   1              		.cpu cortex-a9
   2              		.eabi_attribute 28, 1
   3              		.eabi_attribute 20, 1
   4              		.eabi_attribute 21, 1
   5              		.eabi_attribute 23, 3
   6              		.eabi_attribute 24, 1
   7              		.eabi_attribute 25, 1
   8              		.eabi_attribute 26, 1
   9              		.eabi_attribute 30, 1
  10              		.eabi_attribute 34, 0
  11              		.eabi_attribute 18, 4
  12              		.file	"r_rza2_scifa_lld.c"
  13              		.text
  14              	.Ltext0:
  15              		.cfi_sections	.debug_frame
  16              		.section	.text.R_SCIFA_Start,"ax",%progbits
  17              		.align	2
  18              		.global	R_SCIFA_Start
  19              		.syntax unified
  20              		.arm
  21              		.fpu neon
  23              	R_SCIFA_Start:
  24              	.LFB1:
  25              		.file 1 "../generate/sc_drivers/r_scifa/src/lld/r_rza2_scifa_lld.c"
   1:../generate/sc_drivers/r_scifa/src/lld/r_rza2_scifa_lld.c **** /**************************************************************************************************
   2:../generate/sc_drivers/r_scifa/src/lld/r_rza2_scifa_lld.c ****  * DISCLAIMER
   3:../generate/sc_drivers/r_scifa/src/lld/r_rza2_scifa_lld.c ****  * This software is supplied by Renesas Electronics Corporation and is only
   4:../generate/sc_drivers/r_scifa/src/lld/r_rza2_scifa_lld.c ****  * intended for use with Renesas products. No other uses are authorized. This
   5:../generate/sc_drivers/r_scifa/src/lld/r_rza2_scifa_lld.c ****  * software is owned by Renesas Electronics Corporation and is protected under
   6:../generate/sc_drivers/r_scifa/src/lld/r_rza2_scifa_lld.c ****  * all applicable laws, including copyright laws.
   7:../generate/sc_drivers/r_scifa/src/lld/r_rza2_scifa_lld.c ****  * THIS SOFTWARE IS PROVIDED "AS IS" AND RENESAS MAKES NO WARRANTIES REGARDING
   8:../generate/sc_drivers/r_scifa/src/lld/r_rza2_scifa_lld.c ****  * THIS SOFTWARE, WHETHER EXPRESS, IMPLIED OR STATUTORY, INCLUDING BUT NOT
   9:../generate/sc_drivers/r_scifa/src/lld/r_rza2_scifa_lld.c ****  * LIMITED TO WARRANTIES OF MERCHANTABILITY, FITNESS FOR A PARTICULAR PURPOSE
  10:../generate/sc_drivers/r_scifa/src/lld/r_rza2_scifa_lld.c ****  * AND NON-INFRINGEMENT. ALL SUCH WARRANTIES ARE EXPRESSLY DISCLAIMED.
  11:../generate/sc_drivers/r_scifa/src/lld/r_rza2_scifa_lld.c ****  * TO THE MAXIMUM EXTENT PERMITTED NOT PROHIBITED BY LAW, NEITHER RENESAS
  12:../generate/sc_drivers/r_scifa/src/lld/r_rza2_scifa_lld.c ****  * ELECTRONICS CORPORATION NOR ANY OF ITS AFFILIATED COMPANIES SHALL BE LIABLE
  13:../generate/sc_drivers/r_scifa/src/lld/r_rza2_scifa_lld.c ****  * FOR ANY DIRECT, INDIRECT, SPECIAL, INCIDENTAL OR CONSEQUENTIAL DAMAGES FOR
  14:../generate/sc_drivers/r_scifa/src/lld/r_rza2_scifa_lld.c ****  * ANY REASON RELATED TO THIS SOFTWARE, EVEN IF RENESAS OR ITS AFFILIATES HAVE
  15:../generate/sc_drivers/r_scifa/src/lld/r_rza2_scifa_lld.c ****  * BEEN ADVISED OF THE POSSIBILITY OF SUCH DAMAGES.
  16:../generate/sc_drivers/r_scifa/src/lld/r_rza2_scifa_lld.c ****  * Renesas reserves the right, without notice, to make changes to this software
  17:../generate/sc_drivers/r_scifa/src/lld/r_rza2_scifa_lld.c ****  * and to discontinue the availability of this software. By using this software,
  18:../generate/sc_drivers/r_scifa/src/lld/r_rza2_scifa_lld.c ****  * you agree to the additional terms and conditions found by accessing the
  19:../generate/sc_drivers/r_scifa/src/lld/r_rza2_scifa_lld.c ****  * following link:
  20:../generate/sc_drivers/r_scifa/src/lld/r_rza2_scifa_lld.c ****  * http://www.renesas.com/disclaimer
  21:../generate/sc_drivers/r_scifa/src/lld/r_rza2_scifa_lld.c ****  *
  22:../generate/sc_drivers/r_scifa/src/lld/r_rza2_scifa_lld.c ****  * Copyright (C) 2019 Renesas Electronics Corporation. All rights reserved.
  23:../generate/sc_drivers/r_scifa/src/lld/r_rza2_scifa_lld.c ****  **************************************************************************************************
  24:../generate/sc_drivers/r_scifa/src/lld/r_rza2_scifa_lld.c **** /**************************************************************************************************
  25:../generate/sc_drivers/r_scifa/src/lld/r_rza2_scifa_lld.c ****  * @file          r_rza2_scifa_lld.c
  26:../generate/sc_drivers/r_scifa/src/lld/r_rza2_scifa_lld.c ****  * Device(s)      RZ/A2
  27:../generate/sc_drivers/r_scifa/src/lld/r_rza2_scifa_lld.c ****  * Tool-Chain     GCC ARM Embedded 5.4 2016q3
  28:../generate/sc_drivers/r_scifa/src/lld/r_rza2_scifa_lld.c ****  * H/W Platform   RZ/A2
  29:../generate/sc_drivers/r_scifa/src/lld/r_rza2_scifa_lld.c ****  * @brief         SCIFA Low Layer Driver
  30:../generate/sc_drivers/r_scifa/src/lld/r_rza2_scifa_lld.c ****  **************************************************************************************************
  31:../generate/sc_drivers/r_scifa/src/lld/r_rza2_scifa_lld.c **** /**************************************************************************************************
  32:../generate/sc_drivers/r_scifa/src/lld/r_rza2_scifa_lld.c ****  * History      : DD.MM.YYYY Version Description
  33:../generate/sc_drivers/r_scifa/src/lld/r_rza2_scifa_lld.c ****  *              : 15.05.2018 1.00    Release
  34:../generate/sc_drivers/r_scifa/src/lld/r_rza2_scifa_lld.c ****  *              : 23.05.2019 1.01    Restructuring to ensure that other LLDs are only accessed from
  35:../generate/sc_drivers/r_scifa/src/lld/r_rza2_scifa_lld.c ****  **************************************************************************************************
  36:../generate/sc_drivers/r_scifa/src/lld/r_rza2_scifa_lld.c **** 
  37:../generate/sc_drivers/r_scifa/src/lld/r_rza2_scifa_lld.c **** /**************************************************************************************************
  38:../generate/sc_drivers/r_scifa/src/lld/r_rza2_scifa_lld.c ****  Includes   <System Includes> , "Project Includes"
  39:../generate/sc_drivers/r_scifa/src/lld/r_rza2_scifa_lld.c ****  **************************************************************************************************
  40:../generate/sc_drivers/r_scifa/src/lld/r_rza2_scifa_lld.c **** #include <string.h>
  41:../generate/sc_drivers/r_scifa/src/lld/r_rza2_scifa_lld.c **** 
  42:../generate/sc_drivers/r_scifa/src/lld/r_rza2_scifa_lld.c **** #include "r_typedefs.h"
  43:../generate/sc_drivers/r_scifa/src/lld/r_rza2_scifa_lld.c **** #include "iodefine.h"
  44:../generate/sc_drivers/r_scifa/src/lld/r_rza2_scifa_lld.c **** #include "iobitmask.h"
  45:../generate/sc_drivers/r_scifa/src/lld/r_rza2_scifa_lld.c **** #include "rza_io_regrw.h"              /* Low level register read/write header */
  46:../generate/sc_drivers/r_scifa/src/lld/r_rza2_scifa_lld.c **** 
  47:../generate/sc_drivers/r_scifa/src/lld/r_rza2_scifa_lld.c **** /* Driver Includes */
  48:../generate/sc_drivers/r_scifa/src/lld/r_rza2_scifa_lld.c **** #include "driver.h"                    /* Device driver header */
  49:../generate/sc_drivers/r_scifa/src/lld/r_rza2_scifa_lld.c **** #include "r_rza2_scifa_lld.h"          /* Low Layer Driver header */
  50:../generate/sc_drivers/r_scifa/src/lld/r_rza2_scifa_lld.c **** #include "r_rza2_scifa_lld_cfg.h"      /* Low Layer Driver configuration header */
  51:../generate/sc_drivers/r_scifa/src/lld/r_rza2_scifa_lld.c **** #include "r_scifa_drv_sc_cfg.h"
  52:../generate/sc_drivers/r_scifa/src/lld/r_rza2_scifa_lld.c **** #include "r_stb_drv_link.h"            /* STB driver */
  53:../generate/sc_drivers/r_scifa/src/lld/r_rza2_scifa_lld.c **** #include "r_cpg_drv_api.h"             /* CPG driver */
  54:../generate/sc_drivers/r_scifa/src/lld/r_rza2_scifa_lld.c **** 
  55:../generate/sc_drivers/r_scifa/src/lld/r_rza2_scifa_lld.c **** /**************************************************************************************************
  56:../generate/sc_drivers/r_scifa/src/lld/r_rza2_scifa_lld.c ****  Macro definitions
  57:../generate/sc_drivers/r_scifa/src/lld/r_rza2_scifa_lld.c ****  **************************************************************************************************
  58:../generate/sc_drivers/r_scifa/src/lld/r_rza2_scifa_lld.c **** 
  59:../generate/sc_drivers/r_scifa/src/lld/r_rza2_scifa_lld.c **** #define R_PRV_TX_FIFO_LENGTH        (16)
  60:../generate/sc_drivers/r_scifa/src/lld/r_rza2_scifa_lld.c **** #define R_PRV_RX_FIFO_EMPTY         (0)
  61:../generate/sc_drivers/r_scifa/src/lld/r_rza2_scifa_lld.c **** 
  62:../generate/sc_drivers/r_scifa/src/lld/r_rza2_scifa_lld.c **** #define R_PRV_TX_FIFO_MAX_TRG       (0x0Fu)
  63:../generate/sc_drivers/r_scifa/src/lld/r_rza2_scifa_lld.c **** #define R_PRV_TX_FIFO_MIN_TRG       (0x00u)
  64:../generate/sc_drivers/r_scifa/src/lld/r_rza2_scifa_lld.c **** #define R_PRV_RX_FIFO_MAX_TRG       (0x10u)
  65:../generate/sc_drivers/r_scifa/src/lld/r_rza2_scifa_lld.c **** #define R_PRV_RX_FIFO_MIN_TRG       (0x01u)
  66:../generate/sc_drivers/r_scifa/src/lld/r_rza2_scifa_lld.c **** 
  67:../generate/sc_drivers/r_scifa/src/lld/r_rza2_scifa_lld.c **** #define R_PRV_SCIFA_CHANNEL_0       (0)
  68:../generate/sc_drivers/r_scifa/src/lld/r_rza2_scifa_lld.c **** #define R_PRV_SCIFA_CHANNEL_1       (1)
  69:../generate/sc_drivers/r_scifa/src/lld/r_rza2_scifa_lld.c **** #define R_PRV_SCIFA_CHANNEL_2       (2)
  70:../generate/sc_drivers/r_scifa/src/lld/r_rza2_scifa_lld.c **** #define R_PRV_SCIFA_CHANNEL_3       (3)
  71:../generate/sc_drivers/r_scifa/src/lld/r_rza2_scifa_lld.c **** #define R_PRV_SCIFA_CHANNEL_4       (4)
  72:../generate/sc_drivers/r_scifa/src/lld/r_rza2_scifa_lld.c **** 
  73:../generate/sc_drivers/r_scifa/src/lld/r_rza2_scifa_lld.c **** 
  74:../generate/sc_drivers/r_scifa/src/lld/r_rza2_scifa_lld.c **** /**************************************************************************************************
  75:../generate/sc_drivers/r_scifa/src/lld/r_rza2_scifa_lld.c ****  Typedefs
  76:../generate/sc_drivers/r_scifa/src/lld/r_rza2_scifa_lld.c ****  **************************************************************************************************
  77:../generate/sc_drivers/r_scifa/src/lld/r_rza2_scifa_lld.c **** 
  78:../generate/sc_drivers/r_scifa/src/lld/r_rza2_scifa_lld.c **** /**************************************************************************************************
  79:../generate/sc_drivers/r_scifa/src/lld/r_rza2_scifa_lld.c ****  Private global variables and functions
  80:../generate/sc_drivers/r_scifa/src/lld/r_rza2_scifa_lld.c ****  **************************************************************************************************
  81:../generate/sc_drivers/r_scifa/src/lld/r_rza2_scifa_lld.c **** /**
  82:../generate/sc_drivers/r_scifa/src/lld/r_rza2_scifa_lld.c ****  * @section st_scifa structure used for register access of SCIFA channels
  83:../generate/sc_drivers/r_scifa/src/lld/r_rza2_scifa_lld.c ****  */
  84:../generate/sc_drivers/r_scifa/src/lld/r_rza2_scifa_lld.c **** static volatile struct st_scifa *gsp_scifa[SCIFA_CFG_LLD_NUM_CHANNELS] =
  85:../generate/sc_drivers/r_scifa/src/lld/r_rza2_scifa_lld.c **** {
  86:../generate/sc_drivers/r_scifa/src/lld/r_rza2_scifa_lld.c ****     /* SCIFA channels */
  87:../generate/sc_drivers/r_scifa/src/lld/r_rza2_scifa_lld.c ****     &SCIFA0, &SCIFA1, &SCIFA2, &SCIFA3, &SCIFA4
  88:../generate/sc_drivers/r_scifa/src/lld/r_rza2_scifa_lld.c **** };
  89:../generate/sc_drivers/r_scifa/src/lld/r_rza2_scifa_lld.c **** 
  90:../generate/sc_drivers/r_scifa/src/lld/r_rza2_scifa_lld.c **** /**************************************************************************************************
  91:../generate/sc_drivers/r_scifa/src/lld/r_rza2_scifa_lld.c ****  Prototypes
  92:../generate/sc_drivers/r_scifa/src/lld/r_rza2_scifa_lld.c ****  **************************************************************************************************
  93:../generate/sc_drivers/r_scifa/src/lld/r_rza2_scifa_lld.c **** 
  94:../generate/sc_drivers/r_scifa/src/lld/r_rza2_scifa_lld.c **** /**************************************************************************************************
  95:../generate/sc_drivers/r_scifa/src/lld/r_rza2_scifa_lld.c ****  Public Function Definitions
  96:../generate/sc_drivers/r_scifa/src/lld/r_rza2_scifa_lld.c ****  **************************************************************************************************
  97:../generate/sc_drivers/r_scifa/src/lld/r_rza2_scifa_lld.c **** 
  98:../generate/sc_drivers/r_scifa/src/lld/r_rza2_scifa_lld.c **** /**
  99:../generate/sc_drivers/r_scifa/src/lld/r_rza2_scifa_lld.c ****  * @brief Starts the SCIFA channel allowing reading/writing
 100:../generate/sc_drivers/r_scifa/src/lld/r_rza2_scifa_lld.c ****  *
 101:../generate/sc_drivers/r_scifa/src/lld/r_rza2_scifa_lld.c ****  * R_SCIFA_Start starts an SCIFA channel according to the
 102:../generate/sc_drivers/r_scifa/src/lld/r_rza2_scifa_lld.c ****  * read_write variable, this determines whether Transmit
 103:../generate/sc_drivers/r_scifa/src/lld/r_rza2_scifa_lld.c ****  * Enable and Receive Enable are turned on. Or just one,
 104:../generate/sc_drivers/r_scifa/src/lld/r_rza2_scifa_lld.c ****  * for read-only or write-only access
 105:../generate/sc_drivers/r_scifa/src/lld/r_rza2_scifa_lld.c ****  *
 106:../generate/sc_drivers/r_scifa/src/lld/r_rza2_scifa_lld.c ****  * @param[in] channel: SCIFA channel to be started
 107:../generate/sc_drivers/r_scifa/src/lld/r_rza2_scifa_lld.c ****  * @param[in] read_write: read/write permission setting
 108:../generate/sc_drivers/r_scifa/src/lld/r_rza2_scifa_lld.c ****  *
 109:../generate/sc_drivers/r_scifa/src/lld/r_rza2_scifa_lld.c ****  * @retval  0 DRV_SUCCESS
 110:../generate/sc_drivers/r_scifa/src/lld/r_rza2_scifa_lld.c ****  * @retval -1 DRV_ERROR 
 111:../generate/sc_drivers/r_scifa/src/lld/r_rza2_scifa_lld.c ****  */
 112:../generate/sc_drivers/r_scifa/src/lld/r_rza2_scifa_lld.c **** int_t R_SCIFA_Start (r_channel_t channel, int_t read_write)
 113:../generate/sc_drivers/r_scifa/src/lld/r_rza2_scifa_lld.c **** {
  26              		.loc 1 113 0
  27              		.cfi_startproc
  28              		@ args = 0, pretend = 0, frame = 0
  29              		@ frame_needed = 0, uses_anonymous_args = 0
  30              	.LVL0:
 114:../generate/sc_drivers/r_scifa/src/lld/r_rza2_scifa_lld.c ****     /* check arguments */
 115:../generate/sc_drivers/r_scifa/src/lld/r_rza2_scifa_lld.c ****     if ((channel >= SCIFA_CFG_LLD_NUM_CHANNELS) || (channel < 0))
  31              		.loc 1 115 0
  32 0000 7030EFE6 		uxtb	r3, r0
  33 0004 040053E3 		cmp	r3, #4
  34 0008 2400008A 		bhi	.L4
 113:../generate/sc_drivers/r_scifa/src/lld/r_rza2_scifa_lld.c ****     /* check arguments */
  35              		.loc 1 113 0
  36 000c 70402DE9 		push	{r4, r5, r6, lr}
  37              		.cfi_def_cfa_offset 16
  38              		.cfi_offset 4, -16
  39              		.cfi_offset 5, -12
  40              		.cfi_offset 6, -8
  41              		.cfi_offset 14, -4
  42 0010 0150A0E1 		mov	r5, r1
  43 0014 0040A0E1 		mov	r4, r0
 116:../generate/sc_drivers/r_scifa/src/lld/r_rza2_scifa_lld.c ****     {
 117:../generate/sc_drivers/r_scifa/src/lld/r_rza2_scifa_lld.c ****         return (DRV_ERROR);
 118:../generate/sc_drivers/r_scifa/src/lld/r_rza2_scifa_lld.c ****     }
 119:../generate/sc_drivers/r_scifa/src/lld/r_rza2_scifa_lld.c **** 
 120:../generate/sc_drivers/r_scifa/src/lld/r_rza2_scifa_lld.c ****     if ((read_write & __SWR) > 0)
  44              		.loc 1 120 0
  45 0018 080011E3 		tst	r1, #8
  46 001c 0D00000A 		beq	.L3
 121:../generate/sc_drivers/r_scifa/src/lld/r_rza2_scifa_lld.c ****     {
 122:../generate/sc_drivers/r_scifa/src/lld/r_rza2_scifa_lld.c ****         /* Enable transmit */
 123:../generate/sc_drivers/r_scifa/src/lld/r_rza2_scifa_lld.c ****         RZA_IO_RegWrite_16((volatile uint16_t *) &gsp_scifa[channel]->SCR.WORD, (uint16_t) 1, SCIFA
  47              		.loc 1 123 0
  48 0020 003000E3 		movw	r3, #:lower16:.LANCHOR0
  49 0024 003040E3 		movt	r3, #:upper16:.LANCHOR0
  50 0028 006193E7 		ldr	r6, [r3, r0, lsl #2]
  51 002c 046086E2 		add	r6, r6, #4
  52 0030 2030A0E3 		mov	r3, #32
  53 0034 0520A0E3 		mov	r2, #5
  54 0038 0110A0E3 		mov	r1, #1
  55              	.LVL1:
  56 003c 0600A0E1 		mov	r0, r6
  57              	.LVL2:
  58 0040 FEFFFFEB 		bl	RZA_IO_RegWrite_16
  59              	.LVL3:
 124:../generate/sc_drivers/r_scifa/src/lld/r_rza2_scifa_lld.c **** 
 125:../generate/sc_drivers/r_scifa/src/lld/r_rza2_scifa_lld.c ****         /* Disable transmit interrupt */
 126:../generate/sc_drivers/r_scifa/src/lld/r_rza2_scifa_lld.c ****         RZA_IO_RegWrite_16((volatile uint16_t *) &gsp_scifa[channel]->SCR.WORD, (uint16_t) 0, SCIFA
  60              		.loc 1 126 0
  61 0044 8030A0E3 		mov	r3, #128
  62 0048 0720A0E3 		mov	r2, #7
  63 004c 0010A0E3 		mov	r1, #0
  64 0050 0600A0E1 		mov	r0, r6
  65 0054 FEFFFFEB 		bl	RZA_IO_RegWrite_16
  66              	.LVL4:
  67              	.L3:
 127:../generate/sc_drivers/r_scifa/src/lld/r_rza2_scifa_lld.c ****     }
 128:../generate/sc_drivers/r_scifa/src/lld/r_rza2_scifa_lld.c **** 
 129:../generate/sc_drivers/r_scifa/src/lld/r_rza2_scifa_lld.c ****     if ((read_write & __SRD) > 0)
  68              		.loc 1 129 0
  69 0058 040015E3 		tst	r5, #4
  70 005c 1100000A 		beq	.L5
 130:../generate/sc_drivers/r_scifa/src/lld/r_rza2_scifa_lld.c ****     {
 131:../generate/sc_drivers/r_scifa/src/lld/r_rza2_scifa_lld.c ****         /* Enable receive */
 132:../generate/sc_drivers/r_scifa/src/lld/r_rza2_scifa_lld.c ****         RZA_IO_RegWrite_16((volatile uint16_t *) &gsp_scifa[channel]->SCR.WORD, (uint16_t) 1, SCIFA
  71              		.loc 1 132 0
  72 0060 003000E3 		movw	r3, #:lower16:.LANCHOR0
  73 0064 003040E3 		movt	r3, #:upper16:.LANCHOR0
  74 0068 044193E7 		ldr	r4, [r3, r4, lsl #2]
  75 006c 044084E2 		add	r4, r4, #4
  76 0070 1030A0E3 		mov	r3, #16
  77 0074 0420A0E3 		mov	r2, #4
  78 0078 0110A0E3 		mov	r1, #1
  79 007c 0400A0E1 		mov	r0, r4
  80 0080 FEFFFFEB 		bl	RZA_IO_RegWrite_16
  81              	.LVL5:
 133:../generate/sc_drivers/r_scifa/src/lld/r_rza2_scifa_lld.c **** 
 134:../generate/sc_drivers/r_scifa/src/lld/r_rza2_scifa_lld.c ****         /* Enable receive interrupt */
 135:../generate/sc_drivers/r_scifa/src/lld/r_rza2_scifa_lld.c ****         RZA_IO_RegWrite_16((volatile uint16_t *) &gsp_scifa[channel]->SCR.WORD, (uint16_t) 1, SCIFA
  82              		.loc 1 135 0
  83 0084 4030A0E3 		mov	r3, #64
  84 0088 0620A0E3 		mov	r2, #6
  85 008c 0110A0E3 		mov	r1, #1
  86 0090 0400A0E1 		mov	r0, r4
  87 0094 FEFFFFEB 		bl	RZA_IO_RegWrite_16
  88              	.LVL6:
 136:../generate/sc_drivers/r_scifa/src/lld/r_rza2_scifa_lld.c ****     }
 137:../generate/sc_drivers/r_scifa/src/lld/r_rza2_scifa_lld.c **** 
 138:../generate/sc_drivers/r_scifa/src/lld/r_rza2_scifa_lld.c ****     return (DRV_SUCCESS);
  89              		.loc 1 138 0
  90 0098 0000A0E3 		mov	r0, #0
  91 009c 7080BDE8 		pop	{r4, r5, r6, pc}
  92              	.LVL7:
  93              	.L4:
  94              		.cfi_def_cfa_offset 0
  95              		.cfi_restore 4
  96              		.cfi_restore 5
  97              		.cfi_restore 6
  98              		.cfi_restore 14
 117:../generate/sc_drivers/r_scifa/src/lld/r_rza2_scifa_lld.c ****     }
  99              		.loc 1 117 0
 100 00a0 0000E0E3 		mvn	r0, #0
 101              	.LVL8:
 102 00a4 1EFF2FE1 		bx	lr
 103              	.LVL9:
 104              	.L5:
 105              		.cfi_def_cfa_offset 16
 106              		.cfi_offset 4, -16
 107              		.cfi_offset 5, -12
 108              		.cfi_offset 6, -8
 109              		.cfi_offset 14, -4
 110              		.loc 1 138 0
 111 00a8 0000A0E3 		mov	r0, #0
 139:../generate/sc_drivers/r_scifa/src/lld/r_rza2_scifa_lld.c **** }
 112              		.loc 1 139 0
 113 00ac 7080BDE8 		pop	{r4, r5, r6, pc}
 114              		.cfi_endproc
 115              	.LFE1:
 117              		.section	.text.R_SCIFA_Stop,"ax",%progbits
 118              		.align	2
 119              		.global	R_SCIFA_Stop
 120              		.syntax unified
 121              		.arm
 122              		.fpu neon
 124              	R_SCIFA_Stop:
 125              	.LFB2:
 140:../generate/sc_drivers/r_scifa/src/lld/r_rza2_scifa_lld.c **** /**************************************************************************************************
 141:../generate/sc_drivers/r_scifa/src/lld/r_rza2_scifa_lld.c ****  * End of Function R_SCIFA_Start
 142:../generate/sc_drivers/r_scifa/src/lld/r_rza2_scifa_lld.c ****   *************************************************************************************************
 143:../generate/sc_drivers/r_scifa/src/lld/r_rza2_scifa_lld.c **** 
 144:../generate/sc_drivers/r_scifa/src/lld/r_rza2_scifa_lld.c **** /**
 145:../generate/sc_drivers/r_scifa/src/lld/r_rza2_scifa_lld.c ****  * @brief Stops SCIFA channel operation
 146:../generate/sc_drivers/r_scifa/src/lld/r_rza2_scifa_lld.c ****  *
 147:../generate/sc_drivers/r_scifa/src/lld/r_rza2_scifa_lld.c ****  * R_SCIFA_Stop will turn off the Transmit/Receive enable for a given
 148:../generate/sc_drivers/r_scifa/src/lld/r_rza2_scifa_lld.c ****  * channel, it also prevents the device from triggering TXI and RXI
 149:../generate/sc_drivers/r_scifa/src/lld/r_rza2_scifa_lld.c ****  *
 150:../generate/sc_drivers/r_scifa/src/lld/r_rza2_scifa_lld.c ****  * @param[in] Channel: the channel to stop operation for
 151:../generate/sc_drivers/r_scifa/src/lld/r_rza2_scifa_lld.c ****  *
 152:../generate/sc_drivers/r_scifa/src/lld/r_rza2_scifa_lld.c ****  * @retval  0 DRV_SUCCESS
 153:../generate/sc_drivers/r_scifa/src/lld/r_rza2_scifa_lld.c ****  * @retval -1 DRV_ERROR 
 154:../generate/sc_drivers/r_scifa/src/lld/r_rza2_scifa_lld.c ****  */
 155:../generate/sc_drivers/r_scifa/src/lld/r_rza2_scifa_lld.c **** int_t R_SCIFA_Stop (r_channel_t channel)
 156:../generate/sc_drivers/r_scifa/src/lld/r_rza2_scifa_lld.c **** {
 126              		.loc 1 156 0
 127              		.cfi_startproc
 128              		@ args = 0, pretend = 0, frame = 0
 129              		@ frame_needed = 0, uses_anonymous_args = 0
 130              	.LVL10:
 157:../generate/sc_drivers/r_scifa/src/lld/r_rza2_scifa_lld.c ****     /* check arguments */
 158:../generate/sc_drivers/r_scifa/src/lld/r_rza2_scifa_lld.c ****     if ((channel >= SCIFA_CFG_LLD_NUM_CHANNELS) || (channel < 0))
 131              		.loc 1 158 0
 132 0000 7030EFE6 		uxtb	r3, r0
 133 0004 040053E3 		cmp	r3, #4
 134 0008 1A00008A 		bhi	.L12
 156:../generate/sc_drivers/r_scifa/src/lld/r_rza2_scifa_lld.c ****     /* check arguments */
 135              		.loc 1 156 0
 136 000c 10402DE9 		push	{r4, lr}
 137              		.cfi_def_cfa_offset 8
 138              		.cfi_offset 4, -8
 139              		.cfi_offset 14, -4
 159:../generate/sc_drivers/r_scifa/src/lld/r_rza2_scifa_lld.c ****     {
 160:../generate/sc_drivers/r_scifa/src/lld/r_rza2_scifa_lld.c ****         return (DRV_ERROR);
 161:../generate/sc_drivers/r_scifa/src/lld/r_rza2_scifa_lld.c ****     }
 162:../generate/sc_drivers/r_scifa/src/lld/r_rza2_scifa_lld.c **** 
 163:../generate/sc_drivers/r_scifa/src/lld/r_rza2_scifa_lld.c ****     /* Disable transmit interrupt */
 164:../generate/sc_drivers/r_scifa/src/lld/r_rza2_scifa_lld.c ****     RZA_IO_RegWrite_16((volatile uint16_t *) &gsp_scifa[channel]->SCR.WORD, (uint16_t) 0, SCIFA_SCR
 140              		.loc 1 164 0
 141 0010 003000E3 		movw	r3, #:lower16:.LANCHOR0
 142 0014 003040E3 		movt	r3, #:upper16:.LANCHOR0
 143 0018 004193E7 		ldr	r4, [r3, r0, lsl #2]
 144 001c 044084E2 		add	r4, r4, #4
 145 0020 8030A0E3 		mov	r3, #128
 146 0024 0720A0E3 		mov	r2, #7
 147 0028 0010A0E3 		mov	r1, #0
 148 002c 0400A0E1 		mov	r0, r4
 149              	.LVL11:
 150 0030 FEFFFFEB 		bl	RZA_IO_RegWrite_16
 151              	.LVL12:
 165:../generate/sc_drivers/r_scifa/src/lld/r_rza2_scifa_lld.c **** 
 166:../generate/sc_drivers/r_scifa/src/lld/r_rza2_scifa_lld.c ****     /* Disable transmit */
 167:../generate/sc_drivers/r_scifa/src/lld/r_rza2_scifa_lld.c ****     RZA_IO_RegWrite_16((volatile uint16_t *) &gsp_scifa[channel]->SCR.WORD, (uint16_t) 0, SCIFA_SCR
 152              		.loc 1 167 0
 153 0034 2030A0E3 		mov	r3, #32
 154 0038 0520A0E3 		mov	r2, #5
 155 003c 0010A0E3 		mov	r1, #0
 156 0040 0400A0E1 		mov	r0, r4
 157 0044 FEFFFFEB 		bl	RZA_IO_RegWrite_16
 158              	.LVL13:
 168:../generate/sc_drivers/r_scifa/src/lld/r_rza2_scifa_lld.c **** 
 169:../generate/sc_drivers/r_scifa/src/lld/r_rza2_scifa_lld.c ****     /* Disable receive interrupt */
 170:../generate/sc_drivers/r_scifa/src/lld/r_rza2_scifa_lld.c ****     RZA_IO_RegWrite_16((volatile uint16_t *) &gsp_scifa[channel]->SCR.WORD, (uint16_t) 0, SCIFA_SCR
 159              		.loc 1 170 0
 160 0048 4030A0E3 		mov	r3, #64
 161 004c 0620A0E3 		mov	r2, #6
 162 0050 0010A0E3 		mov	r1, #0
 163 0054 0400A0E1 		mov	r0, r4
 164 0058 FEFFFFEB 		bl	RZA_IO_RegWrite_16
 165              	.LVL14:
 171:../generate/sc_drivers/r_scifa/src/lld/r_rza2_scifa_lld.c **** 
 172:../generate/sc_drivers/r_scifa/src/lld/r_rza2_scifa_lld.c ****     /* Disable receive */
 173:../generate/sc_drivers/r_scifa/src/lld/r_rza2_scifa_lld.c ****     RZA_IO_RegWrite_16((volatile uint16_t *) &gsp_scifa[channel]->SCR.WORD, (uint16_t) 0, SCIFA_SCR
 166              		.loc 1 173 0
 167 005c 1030A0E3 		mov	r3, #16
 168 0060 0420A0E3 		mov	r2, #4
 169 0064 0010A0E3 		mov	r1, #0
 170 0068 0400A0E1 		mov	r0, r4
 171 006c FEFFFFEB 		bl	RZA_IO_RegWrite_16
 172              	.LVL15:
 174:../generate/sc_drivers/r_scifa/src/lld/r_rza2_scifa_lld.c **** 
 175:../generate/sc_drivers/r_scifa/src/lld/r_rza2_scifa_lld.c ****     return (DRV_SUCCESS);
 173              		.loc 1 175 0
 174 0070 0000A0E3 		mov	r0, #0
 175 0074 1080BDE8 		pop	{r4, pc}
 176              	.LVL16:
 177              	.L12:
 178              		.cfi_def_cfa_offset 0
 179              		.cfi_restore 4
 180              		.cfi_restore 14
 160:../generate/sc_drivers/r_scifa/src/lld/r_rza2_scifa_lld.c ****     }
 181              		.loc 1 160 0
 182 0078 0000E0E3 		mvn	r0, #0
 183              	.LVL17:
 184 007c 1EFF2FE1 		bx	lr
 185              		.cfi_endproc
 186              	.LFE2:
 188              		.section	.text.R_SCIFA_GetChannel,"ax",%progbits
 189              		.align	2
 190              		.global	R_SCIFA_GetChannel
 191              		.syntax unified
 192              		.arm
 193              		.fpu neon
 195              	R_SCIFA_GetChannel:
 196              	.LFB3:
 176:../generate/sc_drivers/r_scifa/src/lld/r_rza2_scifa_lld.c **** }
 177:../generate/sc_drivers/r_scifa/src/lld/r_rza2_scifa_lld.c **** /**************************************************************************************************
 178:../generate/sc_drivers/r_scifa/src/lld/r_rza2_scifa_lld.c ****  * End of Function R_SCIFA_Stop
 179:../generate/sc_drivers/r_scifa/src/lld/r_rza2_scifa_lld.c ****  **************************************************************************************************
 180:../generate/sc_drivers/r_scifa/src/lld/r_rza2_scifa_lld.c **** 
 181:../generate/sc_drivers/r_scifa/src/lld/r_rza2_scifa_lld.c **** /**
 182:../generate/sc_drivers/r_scifa/src/lld/r_rza2_scifa_lld.c ****  * @brief R_SCIFA_GetChannel Converts SC table index into SCIFA channel
 183:../generate/sc_drivers/r_scifa/src/lld/r_rza2_scifa_lld.c ****  *
 184:../generate/sc_drivers/r_scifa/src/lld/r_rza2_scifa_lld.c ****  * This function interrogates SC table to determine which
 185:../generate/sc_drivers/r_scifa/src/lld/r_rza2_scifa_lld.c ****  * channel is described by sc_config
 186:../generate/sc_drivers/r_scifa/src/lld/r_rza2_scifa_lld.c ****  *
 187:../generate/sc_drivers/r_scifa/src/lld/r_rza2_scifa_lld.c ****  * @param[in] sc_config: configuration ID
 188:../generate/sc_drivers/r_scifa/src/lld/r_rza2_scifa_lld.c ****  *
 189:../generate/sc_drivers/r_scifa/src/lld/r_rza2_scifa_lld.c ****  * @retval  =>0: corresponding SCIFA channel
 190:../generate/sc_drivers/r_scifa/src/lld/r_rza2_scifa_lld.c ****  * @retval  -1 DRV_ERROR
 191:../generate/sc_drivers/r_scifa/src/lld/r_rza2_scifa_lld.c ****  */
 192:../generate/sc_drivers/r_scifa/src/lld/r_rza2_scifa_lld.c **** r_channel_t R_SCIFA_GetChannel (r_sc_index_t sc_config_index)
 193:../generate/sc_drivers/r_scifa/src/lld/r_rza2_scifa_lld.c **** {
 197              		.loc 1 193 0
 198              		.cfi_startproc
 199              		@ args = 0, pretend = 0, frame = 0
 200              		@ frame_needed = 0, uses_anonymous_args = 0
 201              		@ link register save eliminated.
 202              	.LVL18:
 194:../generate/sc_drivers/r_scifa/src/lld/r_rza2_scifa_lld.c ****     r_channel_t ret = DRV_ERROR;
 195:../generate/sc_drivers/r_scifa/src/lld/r_rza2_scifa_lld.c ****     r_sc_index_t sc_table_size = (sizeof(SCIFA_SC_TABLE)) / sizeof(st_r_drv_scifa_sc_config_t);
 196:../generate/sc_drivers/r_scifa/src/lld/r_rza2_scifa_lld.c **** 
 197:../generate/sc_drivers/r_scifa/src/lld/r_rza2_scifa_lld.c ****     /* Perform range check of sc_config to determine if index is available in st_r_drv_scifa_sc_con
 198:../generate/sc_drivers/r_scifa/src/lld/r_rza2_scifa_lld.c ****     if ((sc_config_index >= 0) && (sc_config_index < sc_table_size))
 203              		.loc 1 198 0
 204 0000 0030E0E1 		mvn	r3, r0
 205 0004 A33FA0E1 		lsr	r3, r3, #31
 206 0008 000050E3 		cmp	r0, #0
 207 000c 0030A0C3 		movgt	r3, #0
 208 0010 000053E3 		cmp	r3, #0
 209 0014 0500000A 		beq	.L19
 199:../generate/sc_drivers/r_scifa/src/lld/r_rza2_scifa_lld.c ****     {
 200:../generate/sc_drivers/r_scifa/src/lld/r_rza2_scifa_lld.c ****         ret = SCIFA_SC_TABLE[sc_config_index].channel;
 210              		.loc 1 200 0
 211 0018 003000E3 		movw	r3, #:lower16:.LANCHOR1
 212 001c 003040E3 		movt	r3, #:upper16:.LANCHOR1
 213 0020 800180E0 		add	r0, r0, r0, lsl #3
 214              	.LVL19:
 215 0024 8021A0E1 		lsl	r2, r0, #3
 216 0028 D20093E1 		ldrsb	r0, [r3, r2]
 217              	.LVL20:
 218 002c 1EFF2FE1 		bx	lr
 219              	.LVL21:
 220              	.L19:
 194:../generate/sc_drivers/r_scifa/src/lld/r_rza2_scifa_lld.c ****     r_channel_t ret = DRV_ERROR;
 221              		.loc 1 194 0
 222 0030 0000E0E3 		mvn	r0, #0
 223              	.LVL22:
 201:../generate/sc_drivers/r_scifa/src/lld/r_rza2_scifa_lld.c ****     }
 202:../generate/sc_drivers/r_scifa/src/lld/r_rza2_scifa_lld.c **** 
 203:../generate/sc_drivers/r_scifa/src/lld/r_rza2_scifa_lld.c ****     return (ret);
 204:../generate/sc_drivers/r_scifa/src/lld/r_rza2_scifa_lld.c **** }
 224              		.loc 1 204 0
 225 0034 1EFF2FE1 		bx	lr
 226              		.cfi_endproc
 227              	.LFE3:
 229              		.section	.text.R_SCIFA_SetParity,"ax",%progbits
 230              		.align	2
 231              		.global	R_SCIFA_SetParity
 232              		.syntax unified
 233              		.arm
 234              		.fpu neon
 236              	R_SCIFA_SetParity:
 237              	.LFB5:
 205:../generate/sc_drivers/r_scifa/src/lld/r_rza2_scifa_lld.c **** /**************************************************************************************************
 206:../generate/sc_drivers/r_scifa/src/lld/r_rza2_scifa_lld.c ****  End of function R_SCIFA_GetChannel
 207:../generate/sc_drivers/r_scifa/src/lld/r_rza2_scifa_lld.c ****  **************************************************************************************************
 208:../generate/sc_drivers/r_scifa/src/lld/r_rza2_scifa_lld.c **** 
 209:../generate/sc_drivers/r_scifa/src/lld/r_rza2_scifa_lld.c **** /**
 210:../generate/sc_drivers/r_scifa/src/lld/r_rza2_scifa_lld.c ****  * @brief R_SCIFA_Init initialises a channel for set-up
 211:../generate/sc_drivers/r_scifa/src/lld/r_rza2_scifa_lld.c ****  * This function configures device registers in preparation for
 212:../generate/sc_drivers/r_scifa/src/lld/r_rza2_scifa_lld.c ****  * configuration
 213:../generate/sc_drivers/r_scifa/src/lld/r_rza2_scifa_lld.c ****  *
 214:../generate/sc_drivers/r_scifa/src/lld/r_rza2_scifa_lld.c ****  * @param[in] channel Channel to initialise.
 215:../generate/sc_drivers/r_scifa/src/lld/r_rza2_scifa_lld.c ****  *
 216:../generate/sc_drivers/r_scifa/src/lld/r_rza2_scifa_lld.c ****  * @retval  0 DRV_SUCCESS
 217:../generate/sc_drivers/r_scifa/src/lld/r_rza2_scifa_lld.c ****  * @retval -1 DRV_ERROR 
 218:../generate/sc_drivers/r_scifa/src/lld/r_rza2_scifa_lld.c ****  */
 219:../generate/sc_drivers/r_scifa/src/lld/r_rza2_scifa_lld.c **** int_t R_SCIFA_Init (r_channel_t channel)
 220:../generate/sc_drivers/r_scifa/src/lld/r_rza2_scifa_lld.c **** {
 221:../generate/sc_drivers/r_scifa/src/lld/r_rza2_scifa_lld.c ****     /* check arguments */
 222:../generate/sc_drivers/r_scifa/src/lld/r_rza2_scifa_lld.c ****     if ((channel >= SCIFA_CFG_LLD_NUM_CHANNELS) || (channel < 0))
 223:../generate/sc_drivers/r_scifa/src/lld/r_rza2_scifa_lld.c ****     {
 224:../generate/sc_drivers/r_scifa/src/lld/r_rza2_scifa_lld.c ****         return (DRV_ERROR);
 225:../generate/sc_drivers/r_scifa/src/lld/r_rza2_scifa_lld.c ****     }
 226:../generate/sc_drivers/r_scifa/src/lld/r_rza2_scifa_lld.c **** 
 227:../generate/sc_drivers/r_scifa/src/lld/r_rza2_scifa_lld.c ****     /* Set SCR.TE and SCR.RE -> 0 */
 228:../generate/sc_drivers/r_scifa/src/lld/r_rza2_scifa_lld.c ****     RZA_IO_RegWrite_16((volatile uint16_t *) &gsp_scifa[channel]->SCR.WORD, (uint16_t) 0, IOREG_NON
 229:../generate/sc_drivers/r_scifa/src/lld/r_rza2_scifa_lld.c **** 
 230:../generate/sc_drivers/r_scifa/src/lld/r_rza2_scifa_lld.c ****     /* Reset TFRST */
 231:../generate/sc_drivers/r_scifa/src/lld/r_rza2_scifa_lld.c ****     RZA_IO_RegWrite_16((volatile uint16_t *) &gsp_scifa[channel]->FCR.WORD, (uint16_t) 1, SCIFA_FCR
 232:../generate/sc_drivers/r_scifa/src/lld/r_rza2_scifa_lld.c **** 
 233:../generate/sc_drivers/r_scifa/src/lld/r_rza2_scifa_lld.c ****     /* Reset FRDR */
 234:../generate/sc_drivers/r_scifa/src/lld/r_rza2_scifa_lld.c ****     RZA_IO_RegWrite_16((volatile uint16_t *) &gsp_scifa[channel]->FCR.WORD, (uint16_t) 1, SCIFA_FCR
 235:../generate/sc_drivers/r_scifa/src/lld/r_rza2_scifa_lld.c **** 
 236:../generate/sc_drivers/r_scifa/src/lld/r_rza2_scifa_lld.c ****     /* Read error flag first*/
 237:../generate/sc_drivers/r_scifa/src/lld/r_rza2_scifa_lld.c ****     RZA_IO_RegRead_16((volatile uint16_t *) &gsp_scifa[channel]->FSR.WORD, IOREG_NONSHIFT_ACCESS, I
 238:../generate/sc_drivers/r_scifa/src/lld/r_rza2_scifa_lld.c **** 
 239:../generate/sc_drivers/r_scifa/src/lld/r_rza2_scifa_lld.c ****     /* Clear all error flags of FSR */
 240:../generate/sc_drivers/r_scifa/src/lld/r_rza2_scifa_lld.c ****     RZA_IO_RegWrite_16((volatile uint16_t *) &gsp_scifa[channel]->FSR.WORD, (uint16_t) 0, IOREG_NON
 241:../generate/sc_drivers/r_scifa/src/lld/r_rza2_scifa_lld.c **** 
 242:../generate/sc_drivers/r_scifa/src/lld/r_rza2_scifa_lld.c ****     /* Read error flag first */
 243:../generate/sc_drivers/r_scifa/src/lld/r_rza2_scifa_lld.c ****     RZA_IO_RegRead_16((volatile uint16_t *) &gsp_scifa[channel]->LSR.WORD, IOREG_NONSHIFT_ACCESS, I
 244:../generate/sc_drivers/r_scifa/src/lld/r_rza2_scifa_lld.c **** 
 245:../generate/sc_drivers/r_scifa/src/lld/r_rza2_scifa_lld.c ****     /* clear error flag of LSR */
 246:../generate/sc_drivers/r_scifa/src/lld/r_rza2_scifa_lld.c ****     RZA_IO_RegWrite_16((volatile uint16_t *) &gsp_scifa[channel]->LSR.WORD, (uint16_t) 0, SCIFA_LSR
 247:../generate/sc_drivers/r_scifa/src/lld/r_rza2_scifa_lld.c **** 
 248:../generate/sc_drivers/r_scifa/src/lld/r_rza2_scifa_lld.c ****     /* set TXD output high */
 249:../generate/sc_drivers/r_scifa/src/lld/r_rza2_scifa_lld.c ****     R_SCIFA_SetTXDOutput(channel, SCIFA_SPTR_INIT_HIGH);
 250:../generate/sc_drivers/r_scifa/src/lld/r_rza2_scifa_lld.c **** 
 251:../generate/sc_drivers/r_scifa/src/lld/r_rza2_scifa_lld.c ****     return (DRV_SUCCESS);
 252:../generate/sc_drivers/r_scifa/src/lld/r_rza2_scifa_lld.c **** }
 253:../generate/sc_drivers/r_scifa/src/lld/r_rza2_scifa_lld.c **** /**************************************************************************************************
 254:../generate/sc_drivers/r_scifa/src/lld/r_rza2_scifa_lld.c ****  * End of Function R_SCIFA_Init
 255:../generate/sc_drivers/r_scifa/src/lld/r_rza2_scifa_lld.c ****  **************************************************************************************************
 256:../generate/sc_drivers/r_scifa/src/lld/r_rza2_scifa_lld.c **** 
 257:../generate/sc_drivers/r_scifa/src/lld/r_rza2_scifa_lld.c **** /**
 258:../generate/sc_drivers/r_scifa/src/lld/r_rza2_scifa_lld.c ****  * @brief R_SCIFA_SetParity Sets the channel parity
 259:../generate/sc_drivers/r_scifa/src/lld/r_rza2_scifa_lld.c ****  * This function configures the channel parity to a setting
 260:../generate/sc_drivers/r_scifa/src/lld/r_rza2_scifa_lld.c ****  * specified in e_scifa_parity_t
 261:../generate/sc_drivers/r_scifa/src/lld/r_rza2_scifa_lld.c ****  *
 262:../generate/sc_drivers/r_scifa/src/lld/r_rza2_scifa_lld.c ****  * @param[in] channel: channel to configure parity for
 263:../generate/sc_drivers/r_scifa/src/lld/r_rza2_scifa_lld.c ****  * @param[in] desired_parity: parity to configure channel with
 264:../generate/sc_drivers/r_scifa/src/lld/r_rza2_scifa_lld.c ****  *
 265:../generate/sc_drivers/r_scifa/src/lld/r_rza2_scifa_lld.c ****  * @retval  0 DRV_SUCCESS
 266:../generate/sc_drivers/r_scifa/src/lld/r_rza2_scifa_lld.c ****  * @retval -1 DRV_ERROR
 267:../generate/sc_drivers/r_scifa/src/lld/r_rza2_scifa_lld.c ****  */
 268:../generate/sc_drivers/r_scifa/src/lld/r_rza2_scifa_lld.c **** int_t R_SCIFA_SetParity (r_channel_t channel, scifa_parity_t desired_parity)
 269:../generate/sc_drivers/r_scifa/src/lld/r_rza2_scifa_lld.c **** {
 238              		.loc 1 269 0
 239              		.cfi_startproc
 240              		@ args = 0, pretend = 0, frame = 0
 241              		@ frame_needed = 0, uses_anonymous_args = 0
 242              	.LVL23:
 270:../generate/sc_drivers/r_scifa/src/lld/r_rza2_scifa_lld.c ****     if ((channel > R_PRV_CFG_SCIF_LAST_CHANNEL) || (channel < 0))
 243              		.loc 1 270 0
 244 0000 7030EFE6 		uxtb	r3, r0
 245 0004 050053E3 		cmp	r3, #5
 246 0008 2E00008A 		bhi	.L25
 269:../generate/sc_drivers/r_scifa/src/lld/r_rza2_scifa_lld.c ****     if ((channel > R_PRV_CFG_SCIF_LAST_CHANNEL) || (channel < 0))
 247              		.loc 1 269 0
 248 000c 10402DE9 		push	{r4, lr}
 249              		.cfi_def_cfa_offset 8
 250              		.cfi_offset 4, -8
 251              		.cfi_offset 14, -4
 271:../generate/sc_drivers/r_scifa/src/lld/r_rza2_scifa_lld.c ****     {
 272:../generate/sc_drivers/r_scifa/src/lld/r_rza2_scifa_lld.c ****         return (DRV_ERROR);
 273:../generate/sc_drivers/r_scifa/src/lld/r_rza2_scifa_lld.c ****     }
 274:../generate/sc_drivers/r_scifa/src/lld/r_rza2_scifa_lld.c **** 
 275:../generate/sc_drivers/r_scifa/src/lld/r_rza2_scifa_lld.c ****     switch (desired_parity)
 252              		.loc 1 275 0
 253 0010 010051E3 		cmp	r1, #1
 254 0014 1C00000A 		beq	.L22
 255 0018 0300003A 		bcc	.L23
 256 001c 020051E3 		cmp	r1, #2
 257 0020 0A00000A 		beq	.L24
 276:../generate/sc_drivers/r_scifa/src/lld/r_rza2_scifa_lld.c ****     {
 277:../generate/sc_drivers/r_scifa/src/lld/r_rza2_scifa_lld.c ****         default:
 278:../generate/sc_drivers/r_scifa/src/lld/r_rza2_scifa_lld.c ****         {
 279:../generate/sc_drivers/r_scifa/src/lld/r_rza2_scifa_lld.c ****             /* invalid desired_parity value */
 280:../generate/sc_drivers/r_scifa/src/lld/r_rza2_scifa_lld.c ****             return (DRV_ERROR);
 258              		.loc 1 280 0
 259 0024 0000E0E3 		mvn	r0, #0
 260              	.LVL24:
 281:../generate/sc_drivers/r_scifa/src/lld/r_rza2_scifa_lld.c ****         }
 282:../generate/sc_drivers/r_scifa/src/lld/r_rza2_scifa_lld.c **** 
 283:../generate/sc_drivers/r_scifa/src/lld/r_rza2_scifa_lld.c ****         case SCIFA_NONE_PARITY:
 284:../generate/sc_drivers/r_scifa/src/lld/r_rza2_scifa_lld.c ****         {
 285:../generate/sc_drivers/r_scifa/src/lld/r_rza2_scifa_lld.c ****             /* Parity enable bit */
 286:../generate/sc_drivers/r_scifa/src/lld/r_rza2_scifa_lld.c ****             RZA_IO_RegWrite_16((volatile uint16_t *) &gsp_scifa[channel]->SMR.WORD, (uint16_t) 0, S
 287:../generate/sc_drivers/r_scifa/src/lld/r_rza2_scifa_lld.c ****             break;
 288:../generate/sc_drivers/r_scifa/src/lld/r_rza2_scifa_lld.c ****         }
 289:../generate/sc_drivers/r_scifa/src/lld/r_rza2_scifa_lld.c **** 
 290:../generate/sc_drivers/r_scifa/src/lld/r_rza2_scifa_lld.c ****         case SCIFA_ODD_PARITY:
 291:../generate/sc_drivers/r_scifa/src/lld/r_rza2_scifa_lld.c ****         {
 292:../generate/sc_drivers/r_scifa/src/lld/r_rza2_scifa_lld.c ****             /* Parity enable bit */
 293:../generate/sc_drivers/r_scifa/src/lld/r_rza2_scifa_lld.c ****             RZA_IO_RegWrite_16((volatile uint16_t *) &gsp_scifa[channel]->SMR.WORD, (uint16_t) 1, S
 294:../generate/sc_drivers/r_scifa/src/lld/r_rza2_scifa_lld.c **** 
 295:../generate/sc_drivers/r_scifa/src/lld/r_rza2_scifa_lld.c ****             /* Parity mode bit */
 296:../generate/sc_drivers/r_scifa/src/lld/r_rza2_scifa_lld.c ****             RZA_IO_RegWrite_16((volatile uint16_t *) &gsp_scifa[channel]->SMR.WORD, (uint16_t) 1, S
 297:../generate/sc_drivers/r_scifa/src/lld/r_rza2_scifa_lld.c ****             break;
 298:../generate/sc_drivers/r_scifa/src/lld/r_rza2_scifa_lld.c ****         }
 299:../generate/sc_drivers/r_scifa/src/lld/r_rza2_scifa_lld.c **** 
 300:../generate/sc_drivers/r_scifa/src/lld/r_rza2_scifa_lld.c ****         case SCIFA_EVEN_PARITY:
 301:../generate/sc_drivers/r_scifa/src/lld/r_rza2_scifa_lld.c ****         {
 302:../generate/sc_drivers/r_scifa/src/lld/r_rza2_scifa_lld.c ****             /* Parity enable bit */
 303:../generate/sc_drivers/r_scifa/src/lld/r_rza2_scifa_lld.c ****             RZA_IO_RegWrite_16((volatile uint16_t *) &gsp_scifa[channel]->SMR.WORD, (uint16_t) 1, S
 304:../generate/sc_drivers/r_scifa/src/lld/r_rza2_scifa_lld.c **** 
 305:../generate/sc_drivers/r_scifa/src/lld/r_rza2_scifa_lld.c ****             /* Parity mode bit */
 306:../generate/sc_drivers/r_scifa/src/lld/r_rza2_scifa_lld.c ****             RZA_IO_RegWrite_16((volatile uint16_t *) &gsp_scifa[channel]->SMR.WORD, (uint16_t) 0, S
 307:../generate/sc_drivers/r_scifa/src/lld/r_rza2_scifa_lld.c ****             break;
 308:../generate/sc_drivers/r_scifa/src/lld/r_rza2_scifa_lld.c ****         }
 309:../generate/sc_drivers/r_scifa/src/lld/r_rza2_scifa_lld.c ****     }
 310:../generate/sc_drivers/r_scifa/src/lld/r_rza2_scifa_lld.c **** 
 311:../generate/sc_drivers/r_scifa/src/lld/r_rza2_scifa_lld.c ****     return (DRV_SUCCESS);
 312:../generate/sc_drivers/r_scifa/src/lld/r_rza2_scifa_lld.c **** }
 261              		.loc 1 312 0
 262 0028 1080BDE8 		pop	{r4, pc}
 263              	.LVL25:
 264              	.L23:
 286:../generate/sc_drivers/r_scifa/src/lld/r_rza2_scifa_lld.c ****             break;
 265              		.loc 1 286 0
 266 002c 00C000E3 		movw	ip, #:lower16:.LANCHOR0
 267 0030 00C040E3 		movt	ip, #:upper16:.LANCHOR0
 268 0034 2030A0E3 		mov	r3, #32
 269 0038 0520A0E3 		mov	r2, #5
 270 003c 0010A0E3 		mov	r1, #0
 271              	.LVL26:
 272 0040 00019CE7 		ldr	r0, [ip, r0, lsl #2]
 273              	.LVL27:
 274 0044 FEFFFFEB 		bl	RZA_IO_RegWrite_16
 275              	.LVL28:
 311:../generate/sc_drivers/r_scifa/src/lld/r_rza2_scifa_lld.c **** }
 276              		.loc 1 311 0
 277 0048 0000A0E3 		mov	r0, #0
 287:../generate/sc_drivers/r_scifa/src/lld/r_rza2_scifa_lld.c ****         }
 278              		.loc 1 287 0
 279 004c 1080BDE8 		pop	{r4, pc}
 280              	.LVL29:
 281              	.L24:
 293:../generate/sc_drivers/r_scifa/src/lld/r_rza2_scifa_lld.c **** 
 282              		.loc 1 293 0
 283 0050 003000E3 		movw	r3, #:lower16:.LANCHOR0
 284 0054 003040E3 		movt	r3, #:upper16:.LANCHOR0
 285 0058 004193E7 		ldr	r4, [r3, r0, lsl #2]
 286 005c 2030A0E3 		mov	r3, #32
 287 0060 0520A0E3 		mov	r2, #5
 288 0064 0110A0E3 		mov	r1, #1
 289              	.LVL30:
 290 0068 0400A0E1 		mov	r0, r4
 291              	.LVL31:
 292 006c FEFFFFEB 		bl	RZA_IO_RegWrite_16
 293              	.LVL32:
 296:../generate/sc_drivers/r_scifa/src/lld/r_rza2_scifa_lld.c ****             break;
 294              		.loc 1 296 0
 295 0070 1030A0E3 		mov	r3, #16
 296 0074 0420A0E3 		mov	r2, #4
 297 0078 0110A0E3 		mov	r1, #1
 298 007c 0400A0E1 		mov	r0, r4
 299 0080 FEFFFFEB 		bl	RZA_IO_RegWrite_16
 300              	.LVL33:
 311:../generate/sc_drivers/r_scifa/src/lld/r_rza2_scifa_lld.c **** }
 301              		.loc 1 311 0
 302 0084 0000A0E3 		mov	r0, #0
 297:../generate/sc_drivers/r_scifa/src/lld/r_rza2_scifa_lld.c ****         }
 303              		.loc 1 297 0
 304 0088 1080BDE8 		pop	{r4, pc}
 305              	.LVL34:
 306              	.L22:
 303:../generate/sc_drivers/r_scifa/src/lld/r_rza2_scifa_lld.c **** 
 307              		.loc 1 303 0
 308 008c 003000E3 		movw	r3, #:lower16:.LANCHOR0
 309 0090 003040E3 		movt	r3, #:upper16:.LANCHOR0
 310 0094 004193E7 		ldr	r4, [r3, r0, lsl #2]
 311 0098 2030A0E3 		mov	r3, #32
 312 009c 0520A0E3 		mov	r2, #5
 313 00a0 0110A0E3 		mov	r1, #1
 314              	.LVL35:
 315 00a4 0400A0E1 		mov	r0, r4
 316              	.LVL36:
 317 00a8 FEFFFFEB 		bl	RZA_IO_RegWrite_16
 318              	.LVL37:
 306:../generate/sc_drivers/r_scifa/src/lld/r_rza2_scifa_lld.c ****             break;
 319              		.loc 1 306 0
 320 00ac 1030A0E3 		mov	r3, #16
 321 00b0 0420A0E3 		mov	r2, #4
 322 00b4 0010A0E3 		mov	r1, #0
 323 00b8 0400A0E1 		mov	r0, r4
 324 00bc FEFFFFEB 		bl	RZA_IO_RegWrite_16
 325              	.LVL38:
 311:../generate/sc_drivers/r_scifa/src/lld/r_rza2_scifa_lld.c **** }
 326              		.loc 1 311 0
 327 00c0 0000A0E3 		mov	r0, #0
 307:../generate/sc_drivers/r_scifa/src/lld/r_rza2_scifa_lld.c ****         }
 328              		.loc 1 307 0
 329 00c4 1080BDE8 		pop	{r4, pc}
 330              	.LVL39:
 331              	.L25:
 332              		.cfi_def_cfa_offset 0
 333              		.cfi_restore 4
 334              		.cfi_restore 14
 272:../generate/sc_drivers/r_scifa/src/lld/r_rza2_scifa_lld.c ****     }
 335              		.loc 1 272 0
 336 00c8 0000E0E3 		mvn	r0, #0
 337              	.LVL40:
 338 00cc 1EFF2FE1 		bx	lr
 339              		.cfi_endproc
 340              	.LFE5:
 342              		.section	.text.R_SICFA_SetTransmissionMode,"ax",%progbits
 343              		.align	2
 344              		.global	R_SICFA_SetTransmissionMode
 345              		.syntax unified
 346              		.arm
 347              		.fpu neon
 349              	R_SICFA_SetTransmissionMode:
 350              	.LFB6:
 313:../generate/sc_drivers/r_scifa/src/lld/r_rza2_scifa_lld.c **** /**************************************************************************************************
 314:../generate/sc_drivers/r_scifa/src/lld/r_rza2_scifa_lld.c ****  * End of Function R_SCIFA_SetParity
 315:../generate/sc_drivers/r_scifa/src/lld/r_rza2_scifa_lld.c ****  **************************************************************************************************
 316:../generate/sc_drivers/r_scifa/src/lld/r_rza2_scifa_lld.c **** 
 317:../generate/sc_drivers/r_scifa/src/lld/r_rza2_scifa_lld.c **** /**
 318:../generate/sc_drivers/r_scifa/src/lld/r_rza2_scifa_lld.c ****  * @brief R_SICFA_SetTransmissionMode sets the transmission mode for a channel
 319:../generate/sc_drivers/r_scifa/src/lld/r_rza2_scifa_lld.c ****  * This function configures the channel parity to a setting
 320:../generate/sc_drivers/r_scifa/src/lld/r_rza2_scifa_lld.c ****  * specified in e_scifa_mode_t
 321:../generate/sc_drivers/r_scifa/src/lld/r_rza2_scifa_lld.c ****  *
 322:../generate/sc_drivers/r_scifa/src/lld/r_rza2_scifa_lld.c ****  * @param[in] channel: channel to set transmission mode for
 323:../generate/sc_drivers/r_scifa/src/lld/r_rza2_scifa_lld.c ****  * @param[in] desired_mode: the desired transmission mode for the channel
 324:../generate/sc_drivers/r_scifa/src/lld/r_rza2_scifa_lld.c ****  *
 325:../generate/sc_drivers/r_scifa/src/lld/r_rza2_scifa_lld.c ****  * @retval  0 DRV_SUCCESS
 326:../generate/sc_drivers/r_scifa/src/lld/r_rza2_scifa_lld.c ****  * @retval -1 DRV_ERROR
 327:../generate/sc_drivers/r_scifa/src/lld/r_rza2_scifa_lld.c ****  */
 328:../generate/sc_drivers/r_scifa/src/lld/r_rza2_scifa_lld.c **** int_t R_SICFA_SetTransmissionMode (r_channel_t channel, scifa_sync_mode_t desired_mode)
 329:../generate/sc_drivers/r_scifa/src/lld/r_rza2_scifa_lld.c **** {
 351              		.loc 1 329 0
 352              		.cfi_startproc
 353              		@ args = 0, pretend = 0, frame = 0
 354              		@ frame_needed = 0, uses_anonymous_args = 0
 355              	.LVL41:
 330:../generate/sc_drivers/r_scifa/src/lld/r_rza2_scifa_lld.c ****     if ((channel > R_PRV_CFG_SCIF_LAST_CHANNEL) || (channel < 0))
 356              		.loc 1 330 0
 357 0000 7030EFE6 		uxtb	r3, r0
 358 0004 050053E3 		cmp	r3, #5
 359 0008 1800008A 		bhi	.L36
 329:../generate/sc_drivers/r_scifa/src/lld/r_rza2_scifa_lld.c ****     if ((channel > R_PRV_CFG_SCIF_LAST_CHANNEL) || (channel < 0))
 360              		.loc 1 329 0
 361 000c 10402DE9 		push	{r4, lr}
 362              		.cfi_def_cfa_offset 8
 363              		.cfi_offset 4, -8
 364              		.cfi_offset 14, -4
 331:../generate/sc_drivers/r_scifa/src/lld/r_rza2_scifa_lld.c ****     {
 332:../generate/sc_drivers/r_scifa/src/lld/r_rza2_scifa_lld.c ****         return (DRV_ERROR);
 333:../generate/sc_drivers/r_scifa/src/lld/r_rza2_scifa_lld.c ****     }
 334:../generate/sc_drivers/r_scifa/src/lld/r_rza2_scifa_lld.c **** 
 335:../generate/sc_drivers/r_scifa/src/lld/r_rza2_scifa_lld.c ****     switch (desired_mode)
 365              		.loc 1 335 0
 366 0010 000051E3 		cmp	r1, #0
 367 0014 0300000A 		beq	.L34
 368 0018 010051E3 		cmp	r1, #1
 369 001c 0A00000A 		beq	.L35
 336:../generate/sc_drivers/r_scifa/src/lld/r_rza2_scifa_lld.c ****     {
 337:../generate/sc_drivers/r_scifa/src/lld/r_rza2_scifa_lld.c ****         default:
 338:../generate/sc_drivers/r_scifa/src/lld/r_rza2_scifa_lld.c ****         {
 339:../generate/sc_drivers/r_scifa/src/lld/r_rza2_scifa_lld.c ****             /* invalid desired_mode value */
 340:../generate/sc_drivers/r_scifa/src/lld/r_rza2_scifa_lld.c ****             return (DRV_ERROR);
 370              		.loc 1 340 0
 371 0020 0000E0E3 		mvn	r0, #0
 372              	.LVL42:
 341:../generate/sc_drivers/r_scifa/src/lld/r_rza2_scifa_lld.c ****         }
 342:../generate/sc_drivers/r_scifa/src/lld/r_rza2_scifa_lld.c **** 
 343:../generate/sc_drivers/r_scifa/src/lld/r_rza2_scifa_lld.c ****         case SCIFA_MODE_ASYNC:
 344:../generate/sc_drivers/r_scifa/src/lld/r_rza2_scifa_lld.c ****         {
 345:../generate/sc_drivers/r_scifa/src/lld/r_rza2_scifa_lld.c ****             /* Communication mode : Asynchronous */
 346:../generate/sc_drivers/r_scifa/src/lld/r_rza2_scifa_lld.c ****             RZA_IO_RegWrite_16((volatile uint16_t *) &gsp_scifa[channel]->SMR.WORD, (uint16_t) 0, S
 347:../generate/sc_drivers/r_scifa/src/lld/r_rza2_scifa_lld.c ****             break;
 348:../generate/sc_drivers/r_scifa/src/lld/r_rza2_scifa_lld.c ****         }
 349:../generate/sc_drivers/r_scifa/src/lld/r_rza2_scifa_lld.c **** 
 350:../generate/sc_drivers/r_scifa/src/lld/r_rza2_scifa_lld.c ****         case SCIFA_MODE_SYNC:
 351:../generate/sc_drivers/r_scifa/src/lld/r_rza2_scifa_lld.c ****         {
 352:../generate/sc_drivers/r_scifa/src/lld/r_rza2_scifa_lld.c ****             /* Communication mode : Synchronous */
 353:../generate/sc_drivers/r_scifa/src/lld/r_rza2_scifa_lld.c ****             RZA_IO_RegWrite_16((volatile uint16_t *) &gsp_scifa[channel]->SMR.WORD, (uint16_t) 1, S
 354:../generate/sc_drivers/r_scifa/src/lld/r_rza2_scifa_lld.c ****             break;
 355:../generate/sc_drivers/r_scifa/src/lld/r_rza2_scifa_lld.c ****         }
 356:../generate/sc_drivers/r_scifa/src/lld/r_rza2_scifa_lld.c ****     }
 357:../generate/sc_drivers/r_scifa/src/lld/r_rza2_scifa_lld.c **** 
 358:../generate/sc_drivers/r_scifa/src/lld/r_rza2_scifa_lld.c ****     return (DRV_SUCCESS);
 359:../generate/sc_drivers/r_scifa/src/lld/r_rza2_scifa_lld.c **** }
 373              		.loc 1 359 0
 374 0024 1080BDE8 		pop	{r4, pc}
 375              	.LVL43:
 376              	.L34:
 346:../generate/sc_drivers/r_scifa/src/lld/r_rza2_scifa_lld.c ****             break;
 377              		.loc 1 346 0
 378 0028 00C000E3 		movw	ip, #:lower16:.LANCHOR0
 379 002c 00C040E3 		movt	ip, #:upper16:.LANCHOR0
 380 0030 8030A0E3 		mov	r3, #128
 381 0034 0720A0E3 		mov	r2, #7
 382 0038 0010A0E3 		mov	r1, #0
 383              	.LVL44:
 384 003c 00019CE7 		ldr	r0, [ip, r0, lsl #2]
 385              	.LVL45:
 386 0040 FEFFFFEB 		bl	RZA_IO_RegWrite_16
 387              	.LVL46:
 358:../generate/sc_drivers/r_scifa/src/lld/r_rza2_scifa_lld.c **** }
 388              		.loc 1 358 0
 389 0044 0000A0E3 		mov	r0, #0
 347:../generate/sc_drivers/r_scifa/src/lld/r_rza2_scifa_lld.c ****         }
 390              		.loc 1 347 0
 391 0048 1080BDE8 		pop	{r4, pc}
 392              	.LVL47:
 393              	.L35:
 353:../generate/sc_drivers/r_scifa/src/lld/r_rza2_scifa_lld.c ****             break;
 394              		.loc 1 353 0
 395 004c 00C000E3 		movw	ip, #:lower16:.LANCHOR0
 396 0050 00C040E3 		movt	ip, #:upper16:.LANCHOR0
 397 0054 8030A0E3 		mov	r3, #128
 398 0058 0720A0E3 		mov	r2, #7
 399 005c 0110A0E3 		mov	r1, #1
 400              	.LVL48:
 401 0060 00019CE7 		ldr	r0, [ip, r0, lsl #2]
 402              	.LVL49:
 403 0064 FEFFFFEB 		bl	RZA_IO_RegWrite_16
 404              	.LVL50:
 358:../generate/sc_drivers/r_scifa/src/lld/r_rza2_scifa_lld.c **** }
 405              		.loc 1 358 0
 406 0068 0000A0E3 		mov	r0, #0
 354:../generate/sc_drivers/r_scifa/src/lld/r_rza2_scifa_lld.c ****         }
 407              		.loc 1 354 0
 408 006c 1080BDE8 		pop	{r4, pc}
 409              	.LVL51:
 410              	.L36:
 411              		.cfi_def_cfa_offset 0
 412              		.cfi_restore 4
 413              		.cfi_restore 14
 332:../generate/sc_drivers/r_scifa/src/lld/r_rza2_scifa_lld.c ****     }
 414              		.loc 1 332 0
 415 0070 0000E0E3 		mvn	r0, #0
 416              	.LVL52:
 417 0074 1EFF2FE1 		bx	lr
 418              		.cfi_endproc
 419              	.LFE6:
 421              		.section	.text.R_SCIFA_SetStopBits,"ax",%progbits
 422              		.align	2
 423              		.global	R_SCIFA_SetStopBits
 424              		.syntax unified
 425              		.arm
 426              		.fpu neon
 428              	R_SCIFA_SetStopBits:
 429              	.LFB7:
 360:../generate/sc_drivers/r_scifa/src/lld/r_rza2_scifa_lld.c **** /**************************************************************************************************
 361:../generate/sc_drivers/r_scifa/src/lld/r_rza2_scifa_lld.c ****  * End of Function R_SICFA_SetTransmissionMode
 362:../generate/sc_drivers/r_scifa/src/lld/r_rza2_scifa_lld.c ****  **************************************************************************************************
 363:../generate/sc_drivers/r_scifa/src/lld/r_rza2_scifa_lld.c **** 
 364:../generate/sc_drivers/r_scifa/src/lld/r_rza2_scifa_lld.c **** /**
 365:../generate/sc_drivers/r_scifa/src/lld/r_rza2_scifa_lld.c ****  * @brief R_SCIFA_SetStopBits Sets the number of stop bits for a channel
 366:../generate/sc_drivers/r_scifa/src/lld/r_rza2_scifa_lld.c ****  * This function configures the channel stop bits to a setting
 367:../generate/sc_drivers/r_scifa/src/lld/r_rza2_scifa_lld.c ****  * specified in e_scifa_stop_bits_t
 368:../generate/sc_drivers/r_scifa/src/lld/r_rza2_scifa_lld.c ****  *
 369:../generate/sc_drivers/r_scifa/src/lld/r_rza2_scifa_lld.c ****  * @param[in] channel: channel to set stop bits for
 370:../generate/sc_drivers/r_scifa/src/lld/r_rza2_scifa_lld.c ****  * @param[in] desired_stop_bits: number of stop bits to set for channel
 371:../generate/sc_drivers/r_scifa/src/lld/r_rza2_scifa_lld.c ****  *
 372:../generate/sc_drivers/r_scifa/src/lld/r_rza2_scifa_lld.c ****  * @retval  0 DRV_SUCCESS
 373:../generate/sc_drivers/r_scifa/src/lld/r_rza2_scifa_lld.c ****  * @retval -1 DRV_ERROR
 374:../generate/sc_drivers/r_scifa/src/lld/r_rza2_scifa_lld.c ****  */
 375:../generate/sc_drivers/r_scifa/src/lld/r_rza2_scifa_lld.c **** int_t R_SCIFA_SetStopBits (r_channel_t channel, scifa_stop_t desired_stop_bits)
 376:../generate/sc_drivers/r_scifa/src/lld/r_rza2_scifa_lld.c **** {
 430              		.loc 1 376 0
 431              		.cfi_startproc
 432              		@ args = 0, pretend = 0, frame = 0
 433              		@ frame_needed = 0, uses_anonymous_args = 0
 434              	.LVL53:
 377:../generate/sc_drivers/r_scifa/src/lld/r_rza2_scifa_lld.c ****     if ((channel > R_PRV_CFG_SCIF_LAST_CHANNEL) || (channel < 0))
 435              		.loc 1 377 0
 436 0000 7030EFE6 		uxtb	r3, r0
 437 0004 050053E3 		cmp	r3, #5
 438 0008 1800008A 		bhi	.L47
 376:../generate/sc_drivers/r_scifa/src/lld/r_rza2_scifa_lld.c ****     if ((channel > R_PRV_CFG_SCIF_LAST_CHANNEL) || (channel < 0))
 439              		.loc 1 376 0
 440 000c 10402DE9 		push	{r4, lr}
 441              		.cfi_def_cfa_offset 8
 442              		.cfi_offset 4, -8
 443              		.cfi_offset 14, -4
 378:../generate/sc_drivers/r_scifa/src/lld/r_rza2_scifa_lld.c ****     {
 379:../generate/sc_drivers/r_scifa/src/lld/r_rza2_scifa_lld.c ****         return (DRV_ERROR);
 380:../generate/sc_drivers/r_scifa/src/lld/r_rza2_scifa_lld.c ****     }
 381:../generate/sc_drivers/r_scifa/src/lld/r_rza2_scifa_lld.c **** 
 382:../generate/sc_drivers/r_scifa/src/lld/r_rza2_scifa_lld.c ****     switch (desired_stop_bits)
 444              		.loc 1 382 0
 445 0010 000051E3 		cmp	r1, #0
 446 0014 0300000A 		beq	.L45
 447 0018 010051E3 		cmp	r1, #1
 448 001c 0A00000A 		beq	.L46
 383:../generate/sc_drivers/r_scifa/src/lld/r_rza2_scifa_lld.c ****     {
 384:../generate/sc_drivers/r_scifa/src/lld/r_rza2_scifa_lld.c ****         default:
 385:../generate/sc_drivers/r_scifa/src/lld/r_rza2_scifa_lld.c ****         {
 386:../generate/sc_drivers/r_scifa/src/lld/r_rza2_scifa_lld.c ****             /* invalid desired_stop_bits value */
 387:../generate/sc_drivers/r_scifa/src/lld/r_rza2_scifa_lld.c ****             return (DRV_ERROR);
 449              		.loc 1 387 0
 450 0020 0000E0E3 		mvn	r0, #0
 451              	.LVL54:
 388:../generate/sc_drivers/r_scifa/src/lld/r_rza2_scifa_lld.c ****         }
 389:../generate/sc_drivers/r_scifa/src/lld/r_rza2_scifa_lld.c **** 
 390:../generate/sc_drivers/r_scifa/src/lld/r_rza2_scifa_lld.c ****         case SCIFA_STOPBITS_1:
 391:../generate/sc_drivers/r_scifa/src/lld/r_rza2_scifa_lld.c ****         {
 392:../generate/sc_drivers/r_scifa/src/lld/r_rza2_scifa_lld.c ****             /* Stop bit length : 1 stop bit */
 393:../generate/sc_drivers/r_scifa/src/lld/r_rza2_scifa_lld.c ****             RZA_IO_RegWrite_16((volatile uint16_t *) &gsp_scifa[channel]->SMR.WORD, (uint16_t) 0, S
 394:../generate/sc_drivers/r_scifa/src/lld/r_rza2_scifa_lld.c ****             break;
 395:../generate/sc_drivers/r_scifa/src/lld/r_rza2_scifa_lld.c ****         }
 396:../generate/sc_drivers/r_scifa/src/lld/r_rza2_scifa_lld.c **** 
 397:../generate/sc_drivers/r_scifa/src/lld/r_rza2_scifa_lld.c ****         case SCIFA_STOPBITS_2:
 398:../generate/sc_drivers/r_scifa/src/lld/r_rza2_scifa_lld.c ****         {
 399:../generate/sc_drivers/r_scifa/src/lld/r_rza2_scifa_lld.c ****             /* Stop bit length : 2 stop bits */
 400:../generate/sc_drivers/r_scifa/src/lld/r_rza2_scifa_lld.c ****             RZA_IO_RegWrite_16((volatile uint16_t *) &gsp_scifa[channel]->SMR.WORD, (uint16_t) 1, S
 401:../generate/sc_drivers/r_scifa/src/lld/r_rza2_scifa_lld.c ****             break;
 402:../generate/sc_drivers/r_scifa/src/lld/r_rza2_scifa_lld.c ****         }
 403:../generate/sc_drivers/r_scifa/src/lld/r_rza2_scifa_lld.c ****     }
 404:../generate/sc_drivers/r_scifa/src/lld/r_rza2_scifa_lld.c **** 
 405:../generate/sc_drivers/r_scifa/src/lld/r_rza2_scifa_lld.c ****     return (DRV_SUCCESS);
 406:../generate/sc_drivers/r_scifa/src/lld/r_rza2_scifa_lld.c **** }
 452              		.loc 1 406 0
 453 0024 1080BDE8 		pop	{r4, pc}
 454              	.LVL55:
 455              	.L45:
 393:../generate/sc_drivers/r_scifa/src/lld/r_rza2_scifa_lld.c ****             break;
 456              		.loc 1 393 0
 457 0028 00C000E3 		movw	ip, #:lower16:.LANCHOR0
 458 002c 00C040E3 		movt	ip, #:upper16:.LANCHOR0
 459 0030 0830A0E3 		mov	r3, #8
 460 0034 0320A0E3 		mov	r2, #3
 461 0038 0010A0E3 		mov	r1, #0
 462              	.LVL56:
 463 003c 00019CE7 		ldr	r0, [ip, r0, lsl #2]
 464              	.LVL57:
 465 0040 FEFFFFEB 		bl	RZA_IO_RegWrite_16
 466              	.LVL58:
 405:../generate/sc_drivers/r_scifa/src/lld/r_rza2_scifa_lld.c **** }
 467              		.loc 1 405 0
 468 0044 0000A0E3 		mov	r0, #0
 394:../generate/sc_drivers/r_scifa/src/lld/r_rza2_scifa_lld.c ****         }
 469              		.loc 1 394 0
 470 0048 1080BDE8 		pop	{r4, pc}
 471              	.LVL59:
 472              	.L46:
 400:../generate/sc_drivers/r_scifa/src/lld/r_rza2_scifa_lld.c ****             break;
 473              		.loc 1 400 0
 474 004c 00C000E3 		movw	ip, #:lower16:.LANCHOR0
 475 0050 00C040E3 		movt	ip, #:upper16:.LANCHOR0
 476 0054 0830A0E3 		mov	r3, #8
 477 0058 0320A0E3 		mov	r2, #3
 478 005c 0110A0E3 		mov	r1, #1
 479              	.LVL60:
 480 0060 00019CE7 		ldr	r0, [ip, r0, lsl #2]
 481              	.LVL61:
 482 0064 FEFFFFEB 		bl	RZA_IO_RegWrite_16
 483              	.LVL62:
 405:../generate/sc_drivers/r_scifa/src/lld/r_rza2_scifa_lld.c **** }
 484              		.loc 1 405 0
 485 0068 0000A0E3 		mov	r0, #0
 401:../generate/sc_drivers/r_scifa/src/lld/r_rza2_scifa_lld.c ****         }
 486              		.loc 1 401 0
 487 006c 1080BDE8 		pop	{r4, pc}
 488              	.LVL63:
 489              	.L47:
 490              		.cfi_def_cfa_offset 0
 491              		.cfi_restore 4
 492              		.cfi_restore 14
 379:../generate/sc_drivers/r_scifa/src/lld/r_rza2_scifa_lld.c ****     }
 493              		.loc 1 379 0
 494 0070 0000E0E3 		mvn	r0, #0
 495              	.LVL64:
 496 0074 1EFF2FE1 		bx	lr
 497              		.cfi_endproc
 498              	.LFE7:
 500              		.section	.text.R_SCIFA_SetDataBits,"ax",%progbits
 501              		.align	2
 502              		.global	R_SCIFA_SetDataBits
 503              		.syntax unified
 504              		.arm
 505              		.fpu neon
 507              	R_SCIFA_SetDataBits:
 508              	.LFB8:
 407:../generate/sc_drivers/r_scifa/src/lld/r_rza2_scifa_lld.c **** /**************************************************************************************************
 408:../generate/sc_drivers/r_scifa/src/lld/r_rza2_scifa_lld.c ****  * End of Function R_SCIFA_SetStopBits
 409:../generate/sc_drivers/r_scifa/src/lld/r_rza2_scifa_lld.c ****  **************************************************************************************************
 410:../generate/sc_drivers/r_scifa/src/lld/r_rza2_scifa_lld.c **** 
 411:../generate/sc_drivers/r_scifa/src/lld/r_rza2_scifa_lld.c **** /**
 412:../generate/sc_drivers/r_scifa/src/lld/r_rza2_scifa_lld.c ****  * @brief R_SCIFA_SetDataBits sets the number of data bits for a channel
 413:../generate/sc_drivers/r_scifa/src/lld/r_rza2_scifa_lld.c ****  * This function configures the channel data bits to a value defined in
 414:../generate/sc_drivers/r_scifa/src/lld/r_rza2_scifa_lld.c ****  * e_scifa_data_bits_t
 415:../generate/sc_drivers/r_scifa/src/lld/r_rza2_scifa_lld.c ****  *
 416:../generate/sc_drivers/r_scifa/src/lld/r_rza2_scifa_lld.c ****  * @param[in] channel: channel to set data bits for
 417:../generate/sc_drivers/r_scifa/src/lld/r_rza2_scifa_lld.c ****  * @param[in] desired_data_bits: number of data bits to set for channel
 418:../generate/sc_drivers/r_scifa/src/lld/r_rza2_scifa_lld.c ****  *
 419:../generate/sc_drivers/r_scifa/src/lld/r_rza2_scifa_lld.c ****  * @retval  0 DRV_SUCCESS
 420:../generate/sc_drivers/r_scifa/src/lld/r_rza2_scifa_lld.c ****  * @retval -1 DRV_ERROR 
 421:../generate/sc_drivers/r_scifa/src/lld/r_rza2_scifa_lld.c ****  */
 422:../generate/sc_drivers/r_scifa/src/lld/r_rza2_scifa_lld.c **** int_t R_SCIFA_SetDataBits (r_channel_t channel, scifa_size_t desired_data_bits)
 423:../generate/sc_drivers/r_scifa/src/lld/r_rza2_scifa_lld.c **** {
 509              		.loc 1 423 0
 510              		.cfi_startproc
 511              		@ args = 0, pretend = 0, frame = 0
 512              		@ frame_needed = 0, uses_anonymous_args = 0
 513              	.LVL65:
 424:../generate/sc_drivers/r_scifa/src/lld/r_rza2_scifa_lld.c ****     if ((channel > R_PRV_CFG_SCIF_LAST_CHANNEL) || (channel < 0))
 514              		.loc 1 424 0
 515 0000 7030EFE6 		uxtb	r3, r0
 516 0004 050053E3 		cmp	r3, #5
 517 0008 1500008A 		bhi	.L58
 423:../generate/sc_drivers/r_scifa/src/lld/r_rza2_scifa_lld.c ****     if ((channel > R_PRV_CFG_SCIF_LAST_CHANNEL) || (channel < 0))
 518              		.loc 1 423 0
 519 000c 10402DE9 		push	{r4, lr}
 520              		.cfi_def_cfa_offset 8
 521              		.cfi_offset 4, -8
 522              		.cfi_offset 14, -4
 425:../generate/sc_drivers/r_scifa/src/lld/r_rza2_scifa_lld.c ****     {
 426:../generate/sc_drivers/r_scifa/src/lld/r_rza2_scifa_lld.c ****         return (DRV_ERROR);
 427:../generate/sc_drivers/r_scifa/src/lld/r_rza2_scifa_lld.c ****     }
 428:../generate/sc_drivers/r_scifa/src/lld/r_rza2_scifa_lld.c **** 
 429:../generate/sc_drivers/r_scifa/src/lld/r_rza2_scifa_lld.c ****     switch (desired_data_bits)
 523              		.loc 1 429 0
 524 0010 000051E3 		cmp	r1, #0
 525 0014 0900000A 		beq	.L56
 526 0018 010051E3 		cmp	r1, #1
 527 001c 1200001A 		bne	.L60
 430:../generate/sc_drivers/r_scifa/src/lld/r_rza2_scifa_lld.c ****     {
 431:../generate/sc_drivers/r_scifa/src/lld/r_rza2_scifa_lld.c ****         default:
 432:../generate/sc_drivers/r_scifa/src/lld/r_rza2_scifa_lld.c ****         {
 433:../generate/sc_drivers/r_scifa/src/lld/r_rza2_scifa_lld.c ****             /* invalid desired_data_bits value */
 434:../generate/sc_drivers/r_scifa/src/lld/r_rza2_scifa_lld.c ****             return (DRV_ERROR);
 435:../generate/sc_drivers/r_scifa/src/lld/r_rza2_scifa_lld.c ****         }
 436:../generate/sc_drivers/r_scifa/src/lld/r_rza2_scifa_lld.c **** 
 437:../generate/sc_drivers/r_scifa/src/lld/r_rza2_scifa_lld.c ****         case SCIFA_DATA_7BIT:
 438:../generate/sc_drivers/r_scifa/src/lld/r_rza2_scifa_lld.c ****         {
 439:../generate/sc_drivers/r_scifa/src/lld/r_rza2_scifa_lld.c ****             /* Character length: 7-bit data */
 440:../generate/sc_drivers/r_scifa/src/lld/r_rza2_scifa_lld.c ****             RZA_IO_RegWrite_16((volatile uint16_t *) &gsp_scifa[channel]->SMR.WORD, (uint16_t) 1, S
 528              		.loc 1 440 0
 529 0020 00C000E3 		movw	ip, #:lower16:.LANCHOR0
 530 0024 00C040E3 		movt	ip, #:upper16:.LANCHOR0
 531 0028 4030A0E3 		mov	r3, #64
 532 002c 0620A0E3 		mov	r2, #6
 533 0030 00019CE7 		ldr	r0, [ip, r0, lsl #2]
 534              	.LVL66:
 535 0034 FEFFFFEB 		bl	RZA_IO_RegWrite_16
 536              	.LVL67:
 441:../generate/sc_drivers/r_scifa/src/lld/r_rza2_scifa_lld.c ****             break;
 442:../generate/sc_drivers/r_scifa/src/lld/r_rza2_scifa_lld.c ****         }
 443:../generate/sc_drivers/r_scifa/src/lld/r_rza2_scifa_lld.c **** 
 444:../generate/sc_drivers/r_scifa/src/lld/r_rza2_scifa_lld.c ****         case SCIFA_DATA_8BIT:
 445:../generate/sc_drivers/r_scifa/src/lld/r_rza2_scifa_lld.c ****         {
 446:../generate/sc_drivers/r_scifa/src/lld/r_rza2_scifa_lld.c ****             /* Character length: 8-bit data */
 447:../generate/sc_drivers/r_scifa/src/lld/r_rza2_scifa_lld.c ****             RZA_IO_RegWrite_16((volatile uint16_t *) &gsp_scifa[channel]->SMR.WORD, (uint16_t) 0, S
 448:../generate/sc_drivers/r_scifa/src/lld/r_rza2_scifa_lld.c ****             break;
 449:../generate/sc_drivers/r_scifa/src/lld/r_rza2_scifa_lld.c ****         }
 450:../generate/sc_drivers/r_scifa/src/lld/r_rza2_scifa_lld.c ****     }
 451:../generate/sc_drivers/r_scifa/src/lld/r_rza2_scifa_lld.c **** 
 452:../generate/sc_drivers/r_scifa/src/lld/r_rza2_scifa_lld.c ****     return (DRV_SUCCESS);
 537              		.loc 1 452 0
 538 0038 0000A0E3 		mov	r0, #0
 441:../generate/sc_drivers/r_scifa/src/lld/r_rza2_scifa_lld.c ****             break;
 539              		.loc 1 441 0
 540 003c 1080BDE8 		pop	{r4, pc}
 541              	.LVL68:
 542              	.L56:
 447:../generate/sc_drivers/r_scifa/src/lld/r_rza2_scifa_lld.c ****             break;
 543              		.loc 1 447 0
 544 0040 00C000E3 		movw	ip, #:lower16:.LANCHOR0
 545 0044 00C040E3 		movt	ip, #:upper16:.LANCHOR0
 546 0048 4030A0E3 		mov	r3, #64
 547 004c 0620A0E3 		mov	r2, #6
 548 0050 0010A0E3 		mov	r1, #0
 549              	.LVL69:
 550 0054 00019CE7 		ldr	r0, [ip, r0, lsl #2]
 551              	.LVL70:
 552 0058 FEFFFFEB 		bl	RZA_IO_RegWrite_16
 553              	.LVL71:
 554              		.loc 1 452 0
 555 005c 0000A0E3 		mov	r0, #0
 448:../generate/sc_drivers/r_scifa/src/lld/r_rza2_scifa_lld.c ****         }
 556              		.loc 1 448 0
 557 0060 1080BDE8 		pop	{r4, pc}
 558              	.LVL72:
 559              	.L58:
 560              		.cfi_def_cfa_offset 0
 561              		.cfi_restore 4
 562              		.cfi_restore 14
 426:../generate/sc_drivers/r_scifa/src/lld/r_rza2_scifa_lld.c ****     }
 563              		.loc 1 426 0
 564 0064 0000E0E3 		mvn	r0, #0
 565              	.LVL73:
 566 0068 1EFF2FE1 		bx	lr
 567              	.LVL74:
 568              	.L60:
 569              		.cfi_def_cfa_offset 8
 570              		.cfi_offset 4, -8
 571              		.cfi_offset 14, -4
 434:../generate/sc_drivers/r_scifa/src/lld/r_rza2_scifa_lld.c ****         }
 572              		.loc 1 434 0
 573 006c 0000E0E3 		mvn	r0, #0
 574              	.LVL75:
 453:../generate/sc_drivers/r_scifa/src/lld/r_rza2_scifa_lld.c **** }
 575              		.loc 1 453 0
 576 0070 1080BDE8 		pop	{r4, pc}
 577              		.cfi_endproc
 578              	.LFE8:
 580              		.section	.text.R_SCIFA_SetLoopBack,"ax",%progbits
 581              		.align	2
 582              		.global	R_SCIFA_SetLoopBack
 583              		.syntax unified
 584              		.arm
 585              		.fpu neon
 587              	R_SCIFA_SetLoopBack:
 588              	.LFB9:
 454:../generate/sc_drivers/r_scifa/src/lld/r_rza2_scifa_lld.c **** /**************************************************************************************************
 455:../generate/sc_drivers/r_scifa/src/lld/r_rza2_scifa_lld.c ****  * End of Function R_SCIFA_SetDataBits
 456:../generate/sc_drivers/r_scifa/src/lld/r_rza2_scifa_lld.c ****  **************************************************************************************************
 457:../generate/sc_drivers/r_scifa/src/lld/r_rza2_scifa_lld.c **** 
 458:../generate/sc_drivers/r_scifa/src/lld/r_rza2_scifa_lld.c **** /**
 459:../generate/sc_drivers/r_scifa/src/lld/r_rza2_scifa_lld.c ****  * @brief R_SCIFA_SetLoopBack enables loop back mode on a channel
 460:../generate/sc_drivers/r_scifa/src/lld/r_rza2_scifa_lld.c ****  * This function enables loop back mode on a channel,
 461:../generate/sc_drivers/r_scifa/src/lld/r_rza2_scifa_lld.c ****  * loop back, connects TX to RX for a given channel,
 462:../generate/sc_drivers/r_scifa/src/lld/r_rza2_scifa_lld.c ****  * this can be useful for testing whether a channel is 
 463:../generate/sc_drivers/r_scifa/src/lld/r_rza2_scifa_lld.c ****  * sending/receiving correctly
 464:../generate/sc_drivers/r_scifa/src/lld/r_rza2_scifa_lld.c ****  *
 465:../generate/sc_drivers/r_scifa/src/lld/r_rza2_scifa_lld.c ****  * @param[in] channel: channel to enable loop back for
 466:../generate/sc_drivers/r_scifa/src/lld/r_rza2_scifa_lld.c ****  * @param[in] loopback: setting for channel loop back
 467:../generate/sc_drivers/r_scifa/src/lld/r_rza2_scifa_lld.c ****  *
 468:../generate/sc_drivers/r_scifa/src/lld/r_rza2_scifa_lld.c ****  * @retval  0 DRV_SUCCESS
 469:../generate/sc_drivers/r_scifa/src/lld/r_rza2_scifa_lld.c ****  * @retval -1 DRV_ERROR
 470:../generate/sc_drivers/r_scifa/src/lld/r_rza2_scifa_lld.c ****  */
 471:../generate/sc_drivers/r_scifa/src/lld/r_rza2_scifa_lld.c **** int_t R_SCIFA_SetLoopBack (r_channel_t channel, scifa_loop_t loopback)
 472:../generate/sc_drivers/r_scifa/src/lld/r_rza2_scifa_lld.c **** {
 589              		.loc 1 472 0
 590              		.cfi_startproc
 591              		@ args = 0, pretend = 0, frame = 0
 592              		@ frame_needed = 0, uses_anonymous_args = 0
 593              	.LVL76:
 473:../generate/sc_drivers/r_scifa/src/lld/r_rza2_scifa_lld.c ****     if ((channel > R_PRV_CFG_SCIF_LAST_CHANNEL) || (channel < 0))
 594              		.loc 1 473 0
 595 0000 7030EFE6 		uxtb	r3, r0
 596 0004 050053E3 		cmp	r3, #5
 597 0008 1A00008A 		bhi	.L69
 472:../generate/sc_drivers/r_scifa/src/lld/r_rza2_scifa_lld.c ****     if ((channel > R_PRV_CFG_SCIF_LAST_CHANNEL) || (channel < 0))
 598              		.loc 1 472 0
 599 000c 10402DE9 		push	{r4, lr}
 600              		.cfi_def_cfa_offset 8
 601              		.cfi_offset 4, -8
 602              		.cfi_offset 14, -4
 474:../generate/sc_drivers/r_scifa/src/lld/r_rza2_scifa_lld.c ****     {
 475:../generate/sc_drivers/r_scifa/src/lld/r_rza2_scifa_lld.c ****         return (DRV_ERROR);
 476:../generate/sc_drivers/r_scifa/src/lld/r_rza2_scifa_lld.c ****     }
 477:../generate/sc_drivers/r_scifa/src/lld/r_rza2_scifa_lld.c **** 
 478:../generate/sc_drivers/r_scifa/src/lld/r_rza2_scifa_lld.c ****     switch (loopback)
 603              		.loc 1 478 0
 604 0010 000051E3 		cmp	r1, #0
 605 0014 0300000A 		beq	.L67
 606 0018 010051E3 		cmp	r1, #1
 607 001c 0B00000A 		beq	.L68
 479:../generate/sc_drivers/r_scifa/src/lld/r_rza2_scifa_lld.c ****     {
 480:../generate/sc_drivers/r_scifa/src/lld/r_rza2_scifa_lld.c ****         default:
 481:../generate/sc_drivers/r_scifa/src/lld/r_rza2_scifa_lld.c ****         {
 482:../generate/sc_drivers/r_scifa/src/lld/r_rza2_scifa_lld.c ****             /* invalid loopback value */
 483:../generate/sc_drivers/r_scifa/src/lld/r_rza2_scifa_lld.c ****             return (DRV_ERROR);
 608              		.loc 1 483 0
 609 0020 0000E0E3 		mvn	r0, #0
 610              	.LVL77:
 484:../generate/sc_drivers/r_scifa/src/lld/r_rza2_scifa_lld.c ****         }
 485:../generate/sc_drivers/r_scifa/src/lld/r_rza2_scifa_lld.c **** 
 486:../generate/sc_drivers/r_scifa/src/lld/r_rza2_scifa_lld.c ****         case SCIFA_LOOPBACK_DISABLE:
 487:../generate/sc_drivers/r_scifa/src/lld/r_rza2_scifa_lld.c ****         {
 488:../generate/sc_drivers/r_scifa/src/lld/r_rza2_scifa_lld.c ****             /* Loop back disabled */
 489:../generate/sc_drivers/r_scifa/src/lld/r_rza2_scifa_lld.c ****             RZA_IO_RegWrite_16((volatile uint16_t *) &gsp_scifa[channel]->FCR.WORD, 0u, SCIFA_FCR_L
 490:../generate/sc_drivers/r_scifa/src/lld/r_rza2_scifa_lld.c ****             break;
 491:../generate/sc_drivers/r_scifa/src/lld/r_rza2_scifa_lld.c ****         }
 492:../generate/sc_drivers/r_scifa/src/lld/r_rza2_scifa_lld.c **** 
 493:../generate/sc_drivers/r_scifa/src/lld/r_rza2_scifa_lld.c ****         case SCIFA_LOOPBACK_ENABLE:
 494:../generate/sc_drivers/r_scifa/src/lld/r_rza2_scifa_lld.c ****         {
 495:../generate/sc_drivers/r_scifa/src/lld/r_rza2_scifa_lld.c ****             /* Loop back enabled */
 496:../generate/sc_drivers/r_scifa/src/lld/r_rza2_scifa_lld.c ****             RZA_IO_RegWrite_16((volatile uint16_t *) &gsp_scifa[channel]->FCR.WORD, 1u, SCIFA_FCR_L
 497:../generate/sc_drivers/r_scifa/src/lld/r_rza2_scifa_lld.c ****             break;
 498:../generate/sc_drivers/r_scifa/src/lld/r_rza2_scifa_lld.c ****         }
 499:../generate/sc_drivers/r_scifa/src/lld/r_rza2_scifa_lld.c ****     }
 500:../generate/sc_drivers/r_scifa/src/lld/r_rza2_scifa_lld.c **** 
 501:../generate/sc_drivers/r_scifa/src/lld/r_rza2_scifa_lld.c ****     return (DRV_SUCCESS);
 502:../generate/sc_drivers/r_scifa/src/lld/r_rza2_scifa_lld.c **** }
 611              		.loc 1 502 0
 612 0024 1080BDE8 		pop	{r4, pc}
 613              	.LVL78:
 614              	.L67:
 489:../generate/sc_drivers/r_scifa/src/lld/r_rza2_scifa_lld.c ****             break;
 615              		.loc 1 489 0
 616 0028 003000E3 		movw	r3, #:lower16:.LANCHOR0
 617 002c 003040E3 		movt	r3, #:upper16:.LANCHOR0
 618 0030 000193E7 		ldr	r0, [r3, r0, lsl #2]
 619              	.LVL79:
 620 0034 0130A0E3 		mov	r3, #1
 621 0038 0020A0E3 		mov	r2, #0
 622 003c 0210A0E1 		mov	r1, r2
 623              	.LVL80:
 624 0040 0C0080E2 		add	r0, r0, #12
 625 0044 FEFFFFEB 		bl	RZA_IO_RegWrite_16
 626              	.LVL81:
 501:../generate/sc_drivers/r_scifa/src/lld/r_rza2_scifa_lld.c **** }
 627              		.loc 1 501 0
 628 0048 0000A0E3 		mov	r0, #0
 490:../generate/sc_drivers/r_scifa/src/lld/r_rza2_scifa_lld.c ****         }
 629              		.loc 1 490 0
 630 004c 1080BDE8 		pop	{r4, pc}
 631              	.LVL82:
 632              	.L68:
 496:../generate/sc_drivers/r_scifa/src/lld/r_rza2_scifa_lld.c ****             break;
 633              		.loc 1 496 0
 634 0050 003000E3 		movw	r3, #:lower16:.LANCHOR0
 635 0054 003040E3 		movt	r3, #:upper16:.LANCHOR0
 636 0058 000193E7 		ldr	r0, [r3, r0, lsl #2]
 637              	.LVL83:
 638 005c 0130A0E3 		mov	r3, #1
 639 0060 0020A0E3 		mov	r2, #0
 640 0064 0310A0E1 		mov	r1, r3
 641              	.LVL84:
 642 0068 0C0080E2 		add	r0, r0, #12
 643 006c FEFFFFEB 		bl	RZA_IO_RegWrite_16
 644              	.LVL85:
 501:../generate/sc_drivers/r_scifa/src/lld/r_rza2_scifa_lld.c **** }
 645              		.loc 1 501 0
 646 0070 0000A0E3 		mov	r0, #0
 497:../generate/sc_drivers/r_scifa/src/lld/r_rza2_scifa_lld.c ****         }
 647              		.loc 1 497 0
 648 0074 1080BDE8 		pop	{r4, pc}
 649              	.LVL86:
 650              	.L69:
 651              		.cfi_def_cfa_offset 0
 652              		.cfi_restore 4
 653              		.cfi_restore 14
 475:../generate/sc_drivers/r_scifa/src/lld/r_rza2_scifa_lld.c ****     }
 654              		.loc 1 475 0
 655 0078 0000E0E3 		mvn	r0, #0
 656              	.LVL87:
 657 007c 1EFF2FE1 		bx	lr
 658              		.cfi_endproc
 659              	.LFE9:
 661              		.section	.text.R_SCIFA_SetDataOrder,"ax",%progbits
 662              		.align	2
 663              		.global	R_SCIFA_SetDataOrder
 664              		.syntax unified
 665              		.arm
 666              		.fpu neon
 668              	R_SCIFA_SetDataOrder:
 669              	.LFB10:
 503:../generate/sc_drivers/r_scifa/src/lld/r_rza2_scifa_lld.c **** /**************************************************************************************************
 504:../generate/sc_drivers/r_scifa/src/lld/r_rza2_scifa_lld.c ****  * End of Function R_SCIFA_SetLoopBack
 505:../generate/sc_drivers/r_scifa/src/lld/r_rza2_scifa_lld.c ****  **************************************************************************************************
 506:../generate/sc_drivers/r_scifa/src/lld/r_rza2_scifa_lld.c **** 
 507:../generate/sc_drivers/r_scifa/src/lld/r_rza2_scifa_lld.c **** /**
 508:../generate/sc_drivers/r_scifa/src/lld/r_rza2_scifa_lld.c ****  * @brief R_SCIFA_SetDataOrder Sets the data order for a given channel
 509:../generate/sc_drivers/r_scifa/src/lld/r_rza2_scifa_lld.c ****  * This function sets the data order for a given channel,
 510:../generate/sc_drivers/r_scifa/src/lld/r_rza2_scifa_lld.c ****  * this is either MSB or LSB first as defined in e_scifa_data_order_t
 511:../generate/sc_drivers/r_scifa/src/lld/r_rza2_scifa_lld.c ****  *
 512:../generate/sc_drivers/r_scifa/src/lld/r_rza2_scifa_lld.c ****  * @param[in] channel: channel to set data order for
 513:../generate/sc_drivers/r_scifa/src/lld/r_rza2_scifa_lld.c ****  * @param[in] desired_data_order: data order setting for channel
 514:../generate/sc_drivers/r_scifa/src/lld/r_rza2_scifa_lld.c ****  *
 515:../generate/sc_drivers/r_scifa/src/lld/r_rza2_scifa_lld.c ****  * @retval  0 DRV_SUCCESS
 516:../generate/sc_drivers/r_scifa/src/lld/r_rza2_scifa_lld.c ****  * @retval -1 DRV_ERROR
 517:../generate/sc_drivers/r_scifa/src/lld/r_rza2_scifa_lld.c ****  */
 518:../generate/sc_drivers/r_scifa/src/lld/r_rza2_scifa_lld.c **** int_t R_SCIFA_SetDataOrder (r_channel_t channel, scifa_dir_t desired_data_order)
 519:../generate/sc_drivers/r_scifa/src/lld/r_rza2_scifa_lld.c **** {
 670              		.loc 1 519 0
 671              		.cfi_startproc
 672              		@ args = 0, pretend = 0, frame = 0
 673              		@ frame_needed = 0, uses_anonymous_args = 0
 674              	.LVL88:
 520:../generate/sc_drivers/r_scifa/src/lld/r_rza2_scifa_lld.c ****     if ((channel > R_PRV_CFG_SCIF_LAST_CHANNEL) || (channel < 0))
 675              		.loc 1 520 0
 676 0000 7030EFE6 		uxtb	r3, r0
 677 0004 050053E3 		cmp	r3, #5
 678 0008 1A00008A 		bhi	.L80
 519:../generate/sc_drivers/r_scifa/src/lld/r_rza2_scifa_lld.c ****     if ((channel > R_PRV_CFG_SCIF_LAST_CHANNEL) || (channel < 0))
 679              		.loc 1 519 0
 680 000c 10402DE9 		push	{r4, lr}
 681              		.cfi_def_cfa_offset 8
 682              		.cfi_offset 4, -8
 683              		.cfi_offset 14, -4
 521:../generate/sc_drivers/r_scifa/src/lld/r_rza2_scifa_lld.c ****     {
 522:../generate/sc_drivers/r_scifa/src/lld/r_rza2_scifa_lld.c ****         return (DRV_ERROR);
 523:../generate/sc_drivers/r_scifa/src/lld/r_rza2_scifa_lld.c ****     }
 524:../generate/sc_drivers/r_scifa/src/lld/r_rza2_scifa_lld.c **** 
 525:../generate/sc_drivers/r_scifa/src/lld/r_rza2_scifa_lld.c ****     switch (desired_data_order)
 684              		.loc 1 525 0
 685 0010 000051E3 		cmp	r1, #0
 686 0014 0300000A 		beq	.L78
 687 0018 010051E3 		cmp	r1, #1
 688 001c 0B00000A 		beq	.L79
 526:../generate/sc_drivers/r_scifa/src/lld/r_rza2_scifa_lld.c ****     {
 527:../generate/sc_drivers/r_scifa/src/lld/r_rza2_scifa_lld.c ****         default:
 528:../generate/sc_drivers/r_scifa/src/lld/r_rza2_scifa_lld.c ****         {
 529:../generate/sc_drivers/r_scifa/src/lld/r_rza2_scifa_lld.c ****             /* invalid desired_data_order value */
 530:../generate/sc_drivers/r_scifa/src/lld/r_rza2_scifa_lld.c ****             return (DRV_ERROR);
 689              		.loc 1 530 0
 690 0020 0000E0E3 		mvn	r0, #0
 691              	.LVL89:
 531:../generate/sc_drivers/r_scifa/src/lld/r_rza2_scifa_lld.c ****         }
 532:../generate/sc_drivers/r_scifa/src/lld/r_rza2_scifa_lld.c **** 
 533:../generate/sc_drivers/r_scifa/src/lld/r_rza2_scifa_lld.c ****         case SCIFA_LSB_FIRST:
 534:../generate/sc_drivers/r_scifa/src/lld/r_rza2_scifa_lld.c ****         {
 535:../generate/sc_drivers/r_scifa/src/lld/r_rza2_scifa_lld.c ****             /* LSB first */
 536:../generate/sc_drivers/r_scifa/src/lld/r_rza2_scifa_lld.c ****             RZA_IO_RegWrite_8((volatile uint8_t *) &gsp_scifa[channel]->SEMR.BYTE, 0u, SCIFA_SEMR_D
 537:../generate/sc_drivers/r_scifa/src/lld/r_rza2_scifa_lld.c ****             break;
 538:../generate/sc_drivers/r_scifa/src/lld/r_rza2_scifa_lld.c ****         }
 539:../generate/sc_drivers/r_scifa/src/lld/r_rza2_scifa_lld.c **** 
 540:../generate/sc_drivers/r_scifa/src/lld/r_rza2_scifa_lld.c ****         case SCIFA_MSB_FIRST:
 541:../generate/sc_drivers/r_scifa/src/lld/r_rza2_scifa_lld.c ****         {
 542:../generate/sc_drivers/r_scifa/src/lld/r_rza2_scifa_lld.c ****             /* MSB first */
 543:../generate/sc_drivers/r_scifa/src/lld/r_rza2_scifa_lld.c ****             RZA_IO_RegWrite_8((volatile uint8_t *) &gsp_scifa[channel]->SEMR.BYTE, 1u, SCIFA_SEMR_D
 544:../generate/sc_drivers/r_scifa/src/lld/r_rza2_scifa_lld.c ****             break;
 545:../generate/sc_drivers/r_scifa/src/lld/r_rza2_scifa_lld.c ****         }
 546:../generate/sc_drivers/r_scifa/src/lld/r_rza2_scifa_lld.c ****     }
 547:../generate/sc_drivers/r_scifa/src/lld/r_rza2_scifa_lld.c **** 
 548:../generate/sc_drivers/r_scifa/src/lld/r_rza2_scifa_lld.c ****     return (DRV_SUCCESS);
 549:../generate/sc_drivers/r_scifa/src/lld/r_rza2_scifa_lld.c **** }
 692              		.loc 1 549 0
 693 0024 1080BDE8 		pop	{r4, pc}
 694              	.LVL90:
 695              	.L78:
 536:../generate/sc_drivers/r_scifa/src/lld/r_rza2_scifa_lld.c ****             break;
 696              		.loc 1 536 0
 697 0028 003000E3 		movw	r3, #:lower16:.LANCHOR0
 698 002c 003040E3 		movt	r3, #:upper16:.LANCHOR0
 699 0030 000193E7 		ldr	r0, [r3, r0, lsl #2]
 700              	.LVL91:
 701 0034 0830A0E3 		mov	r3, #8
 702 0038 0320A0E3 		mov	r2, #3
 703 003c 0010A0E3 		mov	r1, #0
 704              	.LVL92:
 705 0040 140080E2 		add	r0, r0, #20
 706 0044 FEFFFFEB 		bl	RZA_IO_RegWrite_8
 707              	.LVL93:
 548:../generate/sc_drivers/r_scifa/src/lld/r_rza2_scifa_lld.c **** }
 708              		.loc 1 548 0
 709 0048 0000A0E3 		mov	r0, #0
 537:../generate/sc_drivers/r_scifa/src/lld/r_rza2_scifa_lld.c ****         }
 710              		.loc 1 537 0
 711 004c 1080BDE8 		pop	{r4, pc}
 712              	.LVL94:
 713              	.L79:
 543:../generate/sc_drivers/r_scifa/src/lld/r_rza2_scifa_lld.c ****             break;
 714              		.loc 1 543 0
 715 0050 003000E3 		movw	r3, #:lower16:.LANCHOR0
 716 0054 003040E3 		movt	r3, #:upper16:.LANCHOR0
 717 0058 000193E7 		ldr	r0, [r3, r0, lsl #2]
 718              	.LVL95:
 719 005c 0830A0E3 		mov	r3, #8
 720 0060 0320A0E3 		mov	r2, #3
 721 0064 0110A0E3 		mov	r1, #1
 722              	.LVL96:
 723 0068 140080E2 		add	r0, r0, #20
 724 006c FEFFFFEB 		bl	RZA_IO_RegWrite_8
 725              	.LVL97:
 548:../generate/sc_drivers/r_scifa/src/lld/r_rza2_scifa_lld.c **** }
 726              		.loc 1 548 0
 727 0070 0000A0E3 		mov	r0, #0
 544:../generate/sc_drivers/r_scifa/src/lld/r_rza2_scifa_lld.c ****         }
 728              		.loc 1 544 0
 729 0074 1080BDE8 		pop	{r4, pc}
 730              	.LVL98:
 731              	.L80:
 732              		.cfi_def_cfa_offset 0
 733              		.cfi_restore 4
 734              		.cfi_restore 14
 522:../generate/sc_drivers/r_scifa/src/lld/r_rza2_scifa_lld.c ****     }
 735              		.loc 1 522 0
 736 0078 0000E0E3 		mvn	r0, #0
 737              	.LVL99:
 738 007c 1EFF2FE1 		bx	lr
 739              		.cfi_endproc
 740              	.LFE10:
 742              		.section	.text.R_SCIFA_Close,"ax",%progbits
 743              		.align	2
 744              		.global	R_SCIFA_Close
 745              		.syntax unified
 746              		.arm
 747              		.fpu neon
 749              	R_SCIFA_Close:
 750              	.LFB13:
 550:../generate/sc_drivers/r_scifa/src/lld/r_rza2_scifa_lld.c **** /**************************************************************************************************
 551:../generate/sc_drivers/r_scifa/src/lld/r_rza2_scifa_lld.c ****  * End of Function R_SCIFA_SetDataOrder
 552:../generate/sc_drivers/r_scifa/src/lld/r_rza2_scifa_lld.c ****  **************************************************************************************************
 553:../generate/sc_drivers/r_scifa/src/lld/r_rza2_scifa_lld.c **** 
 554:../generate/sc_drivers/r_scifa/src/lld/r_rza2_scifa_lld.c **** /**
 555:../generate/sc_drivers/r_scifa/src/lld/r_rza2_scifa_lld.c ****  * @brief R_SCIFA_Open is to be called when opening a channel
 556:../generate/sc_drivers/r_scifa/src/lld/r_rza2_scifa_lld.c ****  *
 557:../generate/sc_drivers/r_scifa/src/lld/r_rza2_scifa_lld.c ****  * @param[in] sc_config_index: smart Configuration index to open
 558:../generate/sc_drivers/r_scifa/src/lld/r_rza2_scifa_lld.c ****  * @param[out] p_config_set: configuration settings that will be updated
 559:../generate/sc_drivers/r_scifa/src/lld/r_rza2_scifa_lld.c ****  *                            with the values from the SC table
 560:../generate/sc_drivers/r_scifa/src/lld/r_rza2_scifa_lld.c ****  *
 561:../generate/sc_drivers/r_scifa/src/lld/r_rza2_scifa_lld.c ****  * @retval  0 DRV_SUCCESS
 562:../generate/sc_drivers/r_scifa/src/lld/r_rza2_scifa_lld.c ****  * @retval -1 DRV_ERROR
 563:../generate/sc_drivers/r_scifa/src/lld/r_rza2_scifa_lld.c ****  */
 564:../generate/sc_drivers/r_scifa/src/lld/r_rza2_scifa_lld.c **** int_t R_SCIFA_Open (r_sc_index_t sc_config_index, scifa_config_t *p_config_set)
 565:../generate/sc_drivers/r_scifa/src/lld/r_rza2_scifa_lld.c **** {
 566:../generate/sc_drivers/r_scifa/src/lld/r_rza2_scifa_lld.c ****     const scifa_config_t * p_config;
 567:../generate/sc_drivers/r_scifa/src/lld/r_rza2_scifa_lld.c ****     r_channel_t channel;
 568:../generate/sc_drivers/r_scifa/src/lld/r_rza2_scifa_lld.c ****     int_t result;
 569:../generate/sc_drivers/r_scifa/src/lld/r_rza2_scifa_lld.c ****     uint32_t achieved_baud_rate;
 570:../generate/sc_drivers/r_scifa/src/lld/r_rza2_scifa_lld.c **** 
 571:../generate/sc_drivers/r_scifa/src/lld/r_rza2_scifa_lld.c ****     /* get the channel for this configuration */
 572:../generate/sc_drivers/r_scifa/src/lld/r_rza2_scifa_lld.c ****     channel = R_SCIFA_GetChannel(sc_config_index);
 573:../generate/sc_drivers/r_scifa/src/lld/r_rza2_scifa_lld.c **** 
 574:../generate/sc_drivers/r_scifa/src/lld/r_rza2_scifa_lld.c ****     if (DRV_ERROR == channel)
 575:../generate/sc_drivers/r_scifa/src/lld/r_rza2_scifa_lld.c ****     {
 576:../generate/sc_drivers/r_scifa/src/lld/r_rza2_scifa_lld.c ****         return (DRV_ERROR);
 577:../generate/sc_drivers/r_scifa/src/lld/r_rza2_scifa_lld.c ****     }
 578:../generate/sc_drivers/r_scifa/src/lld/r_rza2_scifa_lld.c **** 
 579:../generate/sc_drivers/r_scifa/src/lld/r_rza2_scifa_lld.c ****     /* get the configuration settings from the Smart Configuration table */
 580:../generate/sc_drivers/r_scifa/src/lld/r_rza2_scifa_lld.c ****     p_config = &SCIFA_SC_TABLE[sc_config_index].config;
 581:../generate/sc_drivers/r_scifa/src/lld/r_rza2_scifa_lld.c **** 
 582:../generate/sc_drivers/r_scifa/src/lld/r_rza2_scifa_lld.c ****     /* configure the channel */
 583:../generate/sc_drivers/r_scifa/src/lld/r_rza2_scifa_lld.c ****     result = R_SCIFA_ChannelConfigure(channel, p_config, &achieved_baud_rate);
 584:../generate/sc_drivers/r_scifa/src/lld/r_rza2_scifa_lld.c **** 
 585:../generate/sc_drivers/r_scifa/src/lld/r_rza2_scifa_lld.c ****     /* configure GPIO */
 586:../generate/sc_drivers/r_scifa/src/lld/r_rza2_scifa_lld.c ****     if (DRV_SUCCESS == result)
 587:../generate/sc_drivers/r_scifa/src/lld/r_rza2_scifa_lld.c ****     {
 588:../generate/sc_drivers/r_scifa/src/lld/r_rza2_scifa_lld.c ****         int_t gpio_handle;
 589:../generate/sc_drivers/r_scifa/src/lld/r_rza2_scifa_lld.c ****         gpio_handle = direct_open("gpio", O_RDONLY);
 590:../generate/sc_drivers/r_scifa/src/lld/r_rza2_scifa_lld.c ****         
 591:../generate/sc_drivers/r_scifa/src/lld/r_rza2_scifa_lld.c ****         if (gpio_handle > 0)
 592:../generate/sc_drivers/r_scifa/src/lld/r_rza2_scifa_lld.c ****         {
 593:../generate/sc_drivers/r_scifa/src/lld/r_rza2_scifa_lld.c ****             /* direct_control as direct_control assumes parameter 3 is i/o, but using the parameter
 594:../generate/sc_drivers/r_scifa/src/lld/r_rza2_scifa_lld.c ****             direct_control(gpio_handle, CTL_GPIO_INIT_BY_TABLE, (void *) &SCIFA_SC_TABLE[sc_config_
 595:../generate/sc_drivers/r_scifa/src/lld/r_rza2_scifa_lld.c ****             direct_close(gpio_handle);
 596:../generate/sc_drivers/r_scifa/src/lld/r_rza2_scifa_lld.c ****         }
 597:../generate/sc_drivers/r_scifa/src/lld/r_rza2_scifa_lld.c ****         else
 598:../generate/sc_drivers/r_scifa/src/lld/r_rza2_scifa_lld.c ****         {
 599:../generate/sc_drivers/r_scifa/src/lld/r_rza2_scifa_lld.c ****             result = DRV_ERROR;
 600:../generate/sc_drivers/r_scifa/src/lld/r_rza2_scifa_lld.c ****         }
 601:../generate/sc_drivers/r_scifa/src/lld/r_rza2_scifa_lld.c ****     }
 602:../generate/sc_drivers/r_scifa/src/lld/r_rza2_scifa_lld.c **** 
 603:../generate/sc_drivers/r_scifa/src/lld/r_rza2_scifa_lld.c ****     /* if we were successful, then update the stored configuration data */
 604:../generate/sc_drivers/r_scifa/src/lld/r_rza2_scifa_lld.c ****     if (DRV_SUCCESS == result)
 605:../generate/sc_drivers/r_scifa/src/lld/r_rza2_scifa_lld.c ****     {
 606:../generate/sc_drivers/r_scifa/src/lld/r_rza2_scifa_lld.c ****         memcpy(p_config_set, p_config, sizeof(scifa_config_t));
 607:../generate/sc_drivers/r_scifa/src/lld/r_rza2_scifa_lld.c ****         p_config_set->baud_rate = achieved_baud_rate;
 608:../generate/sc_drivers/r_scifa/src/lld/r_rza2_scifa_lld.c ****     }
 609:../generate/sc_drivers/r_scifa/src/lld/r_rza2_scifa_lld.c **** 
 610:../generate/sc_drivers/r_scifa/src/lld/r_rza2_scifa_lld.c ****     return (result);
 611:../generate/sc_drivers/r_scifa/src/lld/r_rza2_scifa_lld.c **** }
 612:../generate/sc_drivers/r_scifa/src/lld/r_rza2_scifa_lld.c **** /**************************************************************************************************
 613:../generate/sc_drivers/r_scifa/src/lld/r_rza2_scifa_lld.c ****  * End of Function R_SCIFA_Open
 614:../generate/sc_drivers/r_scifa/src/lld/r_rza2_scifa_lld.c ****  **************************************************************************************************
 615:../generate/sc_drivers/r_scifa/src/lld/r_rza2_scifa_lld.c **** 
 616:../generate/sc_drivers/r_scifa/src/lld/r_rza2_scifa_lld.c **** /**
 617:../generate/sc_drivers/r_scifa/src/lld/r_rza2_scifa_lld.c ****  * @brief R_SCIFA_ChannelConfigure configures a channel
 618:../generate/sc_drivers/r_scifa/src/lld/r_rza2_scifa_lld.c ****  *
 619:../generate/sc_drivers/r_scifa/src/lld/r_rza2_scifa_lld.c ****  * @param[in] channel: channel to configure
 620:../generate/sc_drivers/r_scifa/src/lld/r_rza2_scifa_lld.c ****  * @param[in] p_configuration: configuration data
 621:../generate/sc_drivers/r_scifa/src/lld/r_rza2_scifa_lld.c ****  * @param[out] p_achieved_baud_rate: achieved baud rate
 622:../generate/sc_drivers/r_scifa/src/lld/r_rza2_scifa_lld.c ****  *
 623:../generate/sc_drivers/r_scifa/src/lld/r_rza2_scifa_lld.c ****  * @retval  0 DRV_SUCCESS
 624:../generate/sc_drivers/r_scifa/src/lld/r_rza2_scifa_lld.c ****  * @retval -1 DRV_ERROR
 625:../generate/sc_drivers/r_scifa/src/lld/r_rza2_scifa_lld.c ****  */
 626:../generate/sc_drivers/r_scifa/src/lld/r_rza2_scifa_lld.c **** int_t R_SCIFA_ChannelConfigure (r_channel_t channel, const scifa_config_t *p_configuration, uint32_
 627:../generate/sc_drivers/r_scifa/src/lld/r_rza2_scifa_lld.c **** {
 628:../generate/sc_drivers/r_scifa/src/lld/r_rza2_scifa_lld.c ****     int_t result;
 629:../generate/sc_drivers/r_scifa/src/lld/r_rza2_scifa_lld.c **** 
 630:../generate/sc_drivers/r_scifa/src/lld/r_rza2_scifa_lld.c ****     /* stop the device */
 631:../generate/sc_drivers/r_scifa/src/lld/r_rza2_scifa_lld.c ****     result = R_SCIFA_Stop(channel);
 632:../generate/sc_drivers/r_scifa/src/lld/r_rza2_scifa_lld.c **** 
 633:../generate/sc_drivers/r_scifa/src/lld/r_rza2_scifa_lld.c ****     if (DRV_SUCCESS != result)
 634:../generate/sc_drivers/r_scifa/src/lld/r_rza2_scifa_lld.c ****     {
 635:../generate/sc_drivers/r_scifa/src/lld/r_rza2_scifa_lld.c ****         return (result);
 636:../generate/sc_drivers/r_scifa/src/lld/r_rza2_scifa_lld.c ****     }
 637:../generate/sc_drivers/r_scifa/src/lld/r_rza2_scifa_lld.c **** 
 638:../generate/sc_drivers/r_scifa/src/lld/r_rza2_scifa_lld.c ****     /* start the SCIFA module */
 639:../generate/sc_drivers/r_scifa/src/lld/r_rza2_scifa_lld.c ****     result = R_SCIFA_StartModule(channel, true);
 640:../generate/sc_drivers/r_scifa/src/lld/r_rza2_scifa_lld.c **** 
 641:../generate/sc_drivers/r_scifa/src/lld/r_rza2_scifa_lld.c ****     if (DRV_SUCCESS != result)
 642:../generate/sc_drivers/r_scifa/src/lld/r_rza2_scifa_lld.c ****     {
 643:../generate/sc_drivers/r_scifa/src/lld/r_rza2_scifa_lld.c ****         return (result);
 644:../generate/sc_drivers/r_scifa/src/lld/r_rza2_scifa_lld.c ****     }
 645:../generate/sc_drivers/r_scifa/src/lld/r_rza2_scifa_lld.c **** 
 646:../generate/sc_drivers/r_scifa/src/lld/r_rza2_scifa_lld.c ****     /* initialise the device for setup */
 647:../generate/sc_drivers/r_scifa/src/lld/r_rza2_scifa_lld.c ****     result = R_SCIFA_Init(channel);
 648:../generate/sc_drivers/r_scifa/src/lld/r_rza2_scifa_lld.c **** 
 649:../generate/sc_drivers/r_scifa/src/lld/r_rza2_scifa_lld.c ****     if (DRV_SUCCESS != result)
 650:../generate/sc_drivers/r_scifa/src/lld/r_rza2_scifa_lld.c ****     {
 651:../generate/sc_drivers/r_scifa/src/lld/r_rza2_scifa_lld.c ****         return (result);
 652:../generate/sc_drivers/r_scifa/src/lld/r_rza2_scifa_lld.c ****     }
 653:../generate/sc_drivers/r_scifa/src/lld/r_rza2_scifa_lld.c **** 
 654:../generate/sc_drivers/r_scifa/src/lld/r_rza2_scifa_lld.c ****     if (SCIFA_PARITY_ON == p_configuration->parity_en)
 655:../generate/sc_drivers/r_scifa/src/lld/r_rza2_scifa_lld.c ****     {
 656:../generate/sc_drivers/r_scifa/src/lld/r_rza2_scifa_lld.c ****         result = R_SCIFA_SetParity(channel, p_configuration->parity_type);
 657:../generate/sc_drivers/r_scifa/src/lld/r_rza2_scifa_lld.c ****     }
 658:../generate/sc_drivers/r_scifa/src/lld/r_rza2_scifa_lld.c ****     else
 659:../generate/sc_drivers/r_scifa/src/lld/r_rza2_scifa_lld.c ****     {
 660:../generate/sc_drivers/r_scifa/src/lld/r_rza2_scifa_lld.c ****         /* set parity off as SCIFA_PARITY_NONE no longer supported */
 661:../generate/sc_drivers/r_scifa/src/lld/r_rza2_scifa_lld.c ****         result = R_SCIFA_SetParity(channel, SCIFA_NONE_PARITY);
 662:../generate/sc_drivers/r_scifa/src/lld/r_rza2_scifa_lld.c ****     }
 663:../generate/sc_drivers/r_scifa/src/lld/r_rza2_scifa_lld.c **** 
 664:../generate/sc_drivers/r_scifa/src/lld/r_rza2_scifa_lld.c ****     if (DRV_SUCCESS != result)
 665:../generate/sc_drivers/r_scifa/src/lld/r_rza2_scifa_lld.c ****     {
 666:../generate/sc_drivers/r_scifa/src/lld/r_rza2_scifa_lld.c ****         return (result);
 667:../generate/sc_drivers/r_scifa/src/lld/r_rza2_scifa_lld.c ****     }
 668:../generate/sc_drivers/r_scifa/src/lld/r_rza2_scifa_lld.c **** 
 669:../generate/sc_drivers/r_scifa/src/lld/r_rza2_scifa_lld.c ****     result = R_SCIFA_SetStopBits(channel, p_configuration->stop_bits);
 670:../generate/sc_drivers/r_scifa/src/lld/r_rza2_scifa_lld.c **** 
 671:../generate/sc_drivers/r_scifa/src/lld/r_rza2_scifa_lld.c ****     if (DRV_SUCCESS != result)
 672:../generate/sc_drivers/r_scifa/src/lld/r_rza2_scifa_lld.c ****     {
 673:../generate/sc_drivers/r_scifa/src/lld/r_rza2_scifa_lld.c ****         return (result);
 674:../generate/sc_drivers/r_scifa/src/lld/r_rza2_scifa_lld.c ****     }
 675:../generate/sc_drivers/r_scifa/src/lld/r_rza2_scifa_lld.c **** 
 676:../generate/sc_drivers/r_scifa/src/lld/r_rza2_scifa_lld.c ****     result = R_SICFA_SetTransmissionMode(channel, p_configuration->sync_mode);
 677:../generate/sc_drivers/r_scifa/src/lld/r_rza2_scifa_lld.c **** 
 678:../generate/sc_drivers/r_scifa/src/lld/r_rza2_scifa_lld.c ****     if (DRV_SUCCESS != result)
 679:../generate/sc_drivers/r_scifa/src/lld/r_rza2_scifa_lld.c ****     {
 680:../generate/sc_drivers/r_scifa/src/lld/r_rza2_scifa_lld.c ****         return (result);
 681:../generate/sc_drivers/r_scifa/src/lld/r_rza2_scifa_lld.c ****     }
 682:../generate/sc_drivers/r_scifa/src/lld/r_rza2_scifa_lld.c **** 
 683:../generate/sc_drivers/r_scifa/src/lld/r_rza2_scifa_lld.c ****     result = R_SCIFA_SetDataBits(channel, p_configuration->data_size);
 684:../generate/sc_drivers/r_scifa/src/lld/r_rza2_scifa_lld.c **** 
 685:../generate/sc_drivers/r_scifa/src/lld/r_rza2_scifa_lld.c ****     if (DRV_SUCCESS != result)
 686:../generate/sc_drivers/r_scifa/src/lld/r_rza2_scifa_lld.c ****     {
 687:../generate/sc_drivers/r_scifa/src/lld/r_rza2_scifa_lld.c ****         return (result);
 688:../generate/sc_drivers/r_scifa/src/lld/r_rza2_scifa_lld.c ****     }
 689:../generate/sc_drivers/r_scifa/src/lld/r_rza2_scifa_lld.c **** 
 690:../generate/sc_drivers/r_scifa/src/lld/r_rza2_scifa_lld.c ****     int_t cpg_handle;
 691:../generate/sc_drivers/r_scifa/src/lld/r_rza2_scifa_lld.c ****     st_r_drv_cpg_get_clk_t cpg_get_clock_t;
 692:../generate/sc_drivers/r_scifa/src/lld/r_rza2_scifa_lld.c ****     uint32_t current_clk_hz;
 693:../generate/sc_drivers/r_scifa/src/lld/r_rza2_scifa_lld.c **** 
 694:../generate/sc_drivers/r_scifa/src/lld/r_rza2_scifa_lld.c ****     /* open the CPG driver */
 695:../generate/sc_drivers/r_scifa/src/lld/r_rza2_scifa_lld.c ****     cpg_handle = direct_open("cpg", O_RDONLY);
 696:../generate/sc_drivers/r_scifa/src/lld/r_rza2_scifa_lld.c **** 
 697:../generate/sc_drivers/r_scifa/src/lld/r_rza2_scifa_lld.c ****     if (cpg_handle < 0)
 698:../generate/sc_drivers/r_scifa/src/lld/r_rza2_scifa_lld.c ****     {
 699:../generate/sc_drivers/r_scifa/src/lld/r_rza2_scifa_lld.c ****         return (DRV_ERROR);
 700:../generate/sc_drivers/r_scifa/src/lld/r_rza2_scifa_lld.c ****     }
 701:../generate/sc_drivers/r_scifa/src/lld/r_rza2_scifa_lld.c **** 
 702:../generate/sc_drivers/r_scifa/src/lld/r_rza2_scifa_lld.c ****     /* interrogate the CPG driver for the P1 clock frequency */
 703:../generate/sc_drivers/r_scifa/src/lld/r_rza2_scifa_lld.c ****     cpg_get_clock_t.freq_src = CPG_FREQ_P1CLK;
 704:../generate/sc_drivers/r_scifa/src/lld/r_rza2_scifa_lld.c ****     if (control(cpg_handle, CTL_CPG_GET_CLK, &cpg_get_clock_t) != DRV_SUCCESS)
 705:../generate/sc_drivers/r_scifa/src/lld/r_rza2_scifa_lld.c ****     {
 706:../generate/sc_drivers/r_scifa/src/lld/r_rza2_scifa_lld.c ****         return (DRV_ERROR);
 707:../generate/sc_drivers/r_scifa/src/lld/r_rza2_scifa_lld.c ****     }
 708:../generate/sc_drivers/r_scifa/src/lld/r_rza2_scifa_lld.c **** 
 709:../generate/sc_drivers/r_scifa/src/lld/r_rza2_scifa_lld.c ****     /* close the CPG driver */
 710:../generate/sc_drivers/r_scifa/src/lld/r_rza2_scifa_lld.c ****     direct_close(cpg_handle);
 711:../generate/sc_drivers/r_scifa/src/lld/r_rza2_scifa_lld.c **** 
 712:../generate/sc_drivers/r_scifa/src/lld/r_rza2_scifa_lld.c ****     /* convert data from CPG (KHz) to SCIFA (Hz) requirements */
 713:../generate/sc_drivers/r_scifa/src/lld/r_rza2_scifa_lld.c ****     current_clk_hz = ((uint32_t) (cpg_get_clock_t.clk_frequency_khz)) * 1000;
 714:../generate/sc_drivers/r_scifa/src/lld/r_rza2_scifa_lld.c **** 
 715:../generate/sc_drivers/r_scifa/src/lld/r_rza2_scifa_lld.c ****     result = R_SCIFA_SetBaud(channel, p_configuration->baud_rate, current_clk_hz, p_configuration->
 716:../generate/sc_drivers/r_scifa/src/lld/r_rza2_scifa_lld.c **** 
 717:../generate/sc_drivers/r_scifa/src/lld/r_rza2_scifa_lld.c ****     if (DRV_SUCCESS != result)
 718:../generate/sc_drivers/r_scifa/src/lld/r_rza2_scifa_lld.c ****     {
 719:../generate/sc_drivers/r_scifa/src/lld/r_rza2_scifa_lld.c ****         return (result);
 720:../generate/sc_drivers/r_scifa/src/lld/r_rza2_scifa_lld.c ****     }
 721:../generate/sc_drivers/r_scifa/src/lld/r_rza2_scifa_lld.c **** 
 722:../generate/sc_drivers/r_scifa/src/lld/r_rza2_scifa_lld.c ****     result = R_SCIFA_SetLoopBack(channel, p_configuration->loopback);
 723:../generate/sc_drivers/r_scifa/src/lld/r_rza2_scifa_lld.c **** 
 724:../generate/sc_drivers/r_scifa/src/lld/r_rza2_scifa_lld.c ****     if (DRV_SUCCESS != result)
 725:../generate/sc_drivers/r_scifa/src/lld/r_rza2_scifa_lld.c ****     {
 726:../generate/sc_drivers/r_scifa/src/lld/r_rza2_scifa_lld.c ****         return (result);
 727:../generate/sc_drivers/r_scifa/src/lld/r_rza2_scifa_lld.c ****     }
 728:../generate/sc_drivers/r_scifa/src/lld/r_rza2_scifa_lld.c **** 
 729:../generate/sc_drivers/r_scifa/src/lld/r_rza2_scifa_lld.c ****     result = R_SCIFA_SetDataOrder(channel, p_configuration->data_direction);
 730:../generate/sc_drivers/r_scifa/src/lld/r_rza2_scifa_lld.c **** 
 731:../generate/sc_drivers/r_scifa/src/lld/r_rza2_scifa_lld.c ****     if (DRV_SUCCESS != result)
 732:../generate/sc_drivers/r_scifa/src/lld/r_rza2_scifa_lld.c ****     {
 733:../generate/sc_drivers/r_scifa/src/lld/r_rza2_scifa_lld.c ****         return (result);
 734:../generate/sc_drivers/r_scifa/src/lld/r_rza2_scifa_lld.c ****     }
 735:../generate/sc_drivers/r_scifa/src/lld/r_rza2_scifa_lld.c **** 
 736:../generate/sc_drivers/r_scifa/src/lld/r_rza2_scifa_lld.c ****     result = R_SCIFA_SetTXDOutput(channel, p_configuration->txd_init_value);
 737:../generate/sc_drivers/r_scifa/src/lld/r_rza2_scifa_lld.c **** 
 738:../generate/sc_drivers/r_scifa/src/lld/r_rza2_scifa_lld.c ****     if (DRV_SUCCESS != result)
 739:../generate/sc_drivers/r_scifa/src/lld/r_rza2_scifa_lld.c ****     {
 740:../generate/sc_drivers/r_scifa/src/lld/r_rza2_scifa_lld.c ****         return (result);
 741:../generate/sc_drivers/r_scifa/src/lld/r_rza2_scifa_lld.c ****     }
 742:../generate/sc_drivers/r_scifa/src/lld/r_rza2_scifa_lld.c **** 
 743:../generate/sc_drivers/r_scifa/src/lld/r_rza2_scifa_lld.c ****     result = R_SCIFA_SetSCKOutput(channel, p_configuration->sck_init_value);
 744:../generate/sc_drivers/r_scifa/src/lld/r_rza2_scifa_lld.c **** 
 745:../generate/sc_drivers/r_scifa/src/lld/r_rza2_scifa_lld.c ****     if (DRV_SUCCESS != result)
 746:../generate/sc_drivers/r_scifa/src/lld/r_rza2_scifa_lld.c ****     {
 747:../generate/sc_drivers/r_scifa/src/lld/r_rza2_scifa_lld.c ****         return (result);
 748:../generate/sc_drivers/r_scifa/src/lld/r_rza2_scifa_lld.c ****     }
 749:../generate/sc_drivers/r_scifa/src/lld/r_rza2_scifa_lld.c **** 
 750:../generate/sc_drivers/r_scifa/src/lld/r_rza2_scifa_lld.c ****     /* RTS not available on channel 3 or channel 4 */
 751:../generate/sc_drivers/r_scifa/src/lld/r_rza2_scifa_lld.c ****     if ((R_PRV_SCIFA_CHANNEL_3 != channel) && (R_PRV_SCIFA_CHANNEL_4 != channel))
 752:../generate/sc_drivers/r_scifa/src/lld/r_rza2_scifa_lld.c ****     {
 753:../generate/sc_drivers/r_scifa/src/lld/r_rza2_scifa_lld.c ****         result = R_SCIFA_SetRTSOutput(channel, p_configuration->rts_init_value);
 754:../generate/sc_drivers/r_scifa/src/lld/r_rza2_scifa_lld.c ****     }
 755:../generate/sc_drivers/r_scifa/src/lld/r_rza2_scifa_lld.c **** 
 756:../generate/sc_drivers/r_scifa/src/lld/r_rza2_scifa_lld.c ****     if (DRV_SUCCESS != result)
 757:../generate/sc_drivers/r_scifa/src/lld/r_rza2_scifa_lld.c ****     {
 758:../generate/sc_drivers/r_scifa/src/lld/r_rza2_scifa_lld.c ****         return (result);
 759:../generate/sc_drivers/r_scifa/src/lld/r_rza2_scifa_lld.c ****     }
 760:../generate/sc_drivers/r_scifa/src/lld/r_rza2_scifa_lld.c **** 
 761:../generate/sc_drivers/r_scifa/src/lld/r_rza2_scifa_lld.c ****     /* CTS not available on channel 3 or channel 4 */
 762:../generate/sc_drivers/r_scifa/src/lld/r_rza2_scifa_lld.c ****     if ((R_PRV_SCIFA_CHANNEL_3 != channel) && (R_PRV_SCIFA_CHANNEL_4 != channel))
 763:../generate/sc_drivers/r_scifa/src/lld/r_rza2_scifa_lld.c ****     {
 764:../generate/sc_drivers/r_scifa/src/lld/r_rza2_scifa_lld.c ****         result = R_SCIFA_SetCTSOutput(channel, p_configuration->cts_init_value);
 765:../generate/sc_drivers/r_scifa/src/lld/r_rza2_scifa_lld.c ****     }
 766:../generate/sc_drivers/r_scifa/src/lld/r_rza2_scifa_lld.c **** 
 767:../generate/sc_drivers/r_scifa/src/lld/r_rza2_scifa_lld.c ****     if (DRV_SUCCESS != result)
 768:../generate/sc_drivers/r_scifa/src/lld/r_rza2_scifa_lld.c ****     {
 769:../generate/sc_drivers/r_scifa/src/lld/r_rza2_scifa_lld.c ****         return (result);
 770:../generate/sc_drivers/r_scifa/src/lld/r_rza2_scifa_lld.c ****     }
 771:../generate/sc_drivers/r_scifa/src/lld/r_rza2_scifa_lld.c **** 
 772:../generate/sc_drivers/r_scifa/src/lld/r_rza2_scifa_lld.c ****     /* set extended features */
 773:../generate/sc_drivers/r_scifa/src/lld/r_rza2_scifa_lld.c ****     result = R_SCIFA_SetExtendedCfg(channel, p_configuration);
 774:../generate/sc_drivers/r_scifa/src/lld/r_rza2_scifa_lld.c **** 
 775:../generate/sc_drivers/r_scifa/src/lld/r_rza2_scifa_lld.c ****     return (result);
 776:../generate/sc_drivers/r_scifa/src/lld/r_rza2_scifa_lld.c **** }
 777:../generate/sc_drivers/r_scifa/src/lld/r_rza2_scifa_lld.c **** /**************************************************************************************************
 778:../generate/sc_drivers/r_scifa/src/lld/r_rza2_scifa_lld.c ****  * End of Function R_SCIFA_ChannelConfigure
 779:../generate/sc_drivers/r_scifa/src/lld/r_rza2_scifa_lld.c ****  **************************************************************************************************
 780:../generate/sc_drivers/r_scifa/src/lld/r_rza2_scifa_lld.c **** 
 781:../generate/sc_drivers/r_scifa/src/lld/r_rza2_scifa_lld.c **** /**
 782:../generate/sc_drivers/r_scifa/src/lld/r_rza2_scifa_lld.c ****  * @brief R_SCIFA_Close is to be called when closing a channel
 783:../generate/sc_drivers/r_scifa/src/lld/r_rza2_scifa_lld.c ****  * This function is currently stubbed, in case a developer may wish
 784:../generate/sc_drivers/r_scifa/src/lld/r_rza2_scifa_lld.c ****  * to implement it in a future driver update
 785:../generate/sc_drivers/r_scifa/src/lld/r_rza2_scifa_lld.c ****  *
 786:../generate/sc_drivers/r_scifa/src/lld/r_rza2_scifa_lld.c ****  * @param[in] channel: channel to close
 787:../generate/sc_drivers/r_scifa/src/lld/r_rza2_scifa_lld.c ****  *
 788:../generate/sc_drivers/r_scifa/src/lld/r_rza2_scifa_lld.c ****  * @retval  0 DRV_SUCCESS
 789:../generate/sc_drivers/r_scifa/src/lld/r_rza2_scifa_lld.c ****  * @retval -1 DRV_ERROR
 790:../generate/sc_drivers/r_scifa/src/lld/r_rza2_scifa_lld.c ****  */
 791:../generate/sc_drivers/r_scifa/src/lld/r_rza2_scifa_lld.c **** int_t R_SCIFA_Close (r_channel_t channel)
 792:../generate/sc_drivers/r_scifa/src/lld/r_rza2_scifa_lld.c **** {
 751              		.loc 1 792 0
 752              		.cfi_startproc
 753              		@ args = 0, pretend = 0, frame = 0
 754              		@ frame_needed = 0, uses_anonymous_args = 0
 755              		@ link register save eliminated.
 756              	.LVL100:
 793:../generate/sc_drivers/r_scifa/src/lld/r_rza2_scifa_lld.c ****     if ((channel > R_PRV_CFG_SCIF_LAST_CHANNEL) || (channel < 0))
 757              		.loc 1 793 0
 758 0000 7000EFE6 		uxtb	r0, r0
 759 0004 050050E3 		cmp	r0, #5
 760 0008 0100008A 		bhi	.L90
 794:../generate/sc_drivers/r_scifa/src/lld/r_rza2_scifa_lld.c ****     {
 795:../generate/sc_drivers/r_scifa/src/lld/r_rza2_scifa_lld.c ****         return (DRV_ERROR);
 796:../generate/sc_drivers/r_scifa/src/lld/r_rza2_scifa_lld.c ****     }
 797:../generate/sc_drivers/r_scifa/src/lld/r_rza2_scifa_lld.c **** 
 798:../generate/sc_drivers/r_scifa/src/lld/r_rza2_scifa_lld.c ****     return (DRV_SUCCESS);
 761              		.loc 1 798 0
 762 000c 0000A0E3 		mov	r0, #0
 763              	.LVL101:
 799:../generate/sc_drivers/r_scifa/src/lld/r_rza2_scifa_lld.c **** }
 764              		.loc 1 799 0
 765 0010 1EFF2FE1 		bx	lr
 766              	.L90:
 795:../generate/sc_drivers/r_scifa/src/lld/r_rza2_scifa_lld.c ****     }
 767              		.loc 1 795 0
 768 0014 0000E0E3 		mvn	r0, #0
 769 0018 1EFF2FE1 		bx	lr
 770              		.cfi_endproc
 771              	.LFE13:
 773              		.section	.text.R_SCIFA_StopTransmit,"ax",%progbits
 774              		.align	2
 775              		.global	R_SCIFA_StopTransmit
 776              		.syntax unified
 777              		.arm
 778              		.fpu neon
 780              	R_SCIFA_StopTransmit:
 781              	.LFB14:
 800:../generate/sc_drivers/r_scifa/src/lld/r_rza2_scifa_lld.c **** /**************************************************************************************************
 801:../generate/sc_drivers/r_scifa/src/lld/r_rza2_scifa_lld.c ****  * End of Function R_SCIFA_Close
 802:../generate/sc_drivers/r_scifa/src/lld/r_rza2_scifa_lld.c ****  **************************************************************************************************
 803:../generate/sc_drivers/r_scifa/src/lld/r_rza2_scifa_lld.c **** 
 804:../generate/sc_drivers/r_scifa/src/lld/r_rza2_scifa_lld.c **** /**
 805:../generate/sc_drivers/r_scifa/src/lld/r_rza2_scifa_lld.c ****  * @brief R_SCIFA_StopTransmit stops transmission at the end of a DMA transmit
 806:../generate/sc_drivers/r_scifa/src/lld/r_rza2_scifa_lld.c ****  *
 807:../generate/sc_drivers/r_scifa/src/lld/r_rza2_scifa_lld.c ****  * @param[in] channel Channel to stop
 808:../generate/sc_drivers/r_scifa/src/lld/r_rza2_scifa_lld.c ****  *
 809:../generate/sc_drivers/r_scifa/src/lld/r_rza2_scifa_lld.c ****  * @retval  0 DRV_SUCCESS
 810:../generate/sc_drivers/r_scifa/src/lld/r_rza2_scifa_lld.c ****  * @retval -1 DRV_ERROR
 811:../generate/sc_drivers/r_scifa/src/lld/r_rza2_scifa_lld.c ****  */
 812:../generate/sc_drivers/r_scifa/src/lld/r_rza2_scifa_lld.c **** int_t R_SCIFA_StopTransmit (r_channel_t channel)
 813:../generate/sc_drivers/r_scifa/src/lld/r_rza2_scifa_lld.c **** {
 782              		.loc 1 813 0
 783              		.cfi_startproc
 784              		@ args = 0, pretend = 0, frame = 0
 785              		@ frame_needed = 0, uses_anonymous_args = 0
 786              	.LVL102:
 814:../generate/sc_drivers/r_scifa/src/lld/r_rza2_scifa_lld.c ****     /* check arguments */
 815:../generate/sc_drivers/r_scifa/src/lld/r_rza2_scifa_lld.c ****     if ((channel > SCIFA_CFG_LLD_NUM_CHANNELS) || (channel < 0))
 787              		.loc 1 815 0
 788 0000 7030EFE6 		uxtb	r3, r0
 789 0004 050053E3 		cmp	r3, #5
 790 0008 2000008A 		bhi	.L93
 813:../generate/sc_drivers/r_scifa/src/lld/r_rza2_scifa_lld.c ****     /* check arguments */
 791              		.loc 1 813 0
 792 000c 70402DE9 		push	{r4, r5, r6, lr}
 793              		.cfi_def_cfa_offset 16
 794              		.cfi_offset 4, -16
 795              		.cfi_offset 5, -12
 796              		.cfi_offset 6, -8
 797              		.cfi_offset 14, -4
 816:../generate/sc_drivers/r_scifa/src/lld/r_rza2_scifa_lld.c ****     {
 817:../generate/sc_drivers/r_scifa/src/lld/r_rza2_scifa_lld.c ****         return (DRV_ERROR);
 818:../generate/sc_drivers/r_scifa/src/lld/r_rza2_scifa_lld.c ****     }
 819:../generate/sc_drivers/r_scifa/src/lld/r_rza2_scifa_lld.c **** 
 820:../generate/sc_drivers/r_scifa/src/lld/r_rza2_scifa_lld.c ****     /* Disable transmit interrupt */
 821:../generate/sc_drivers/r_scifa/src/lld/r_rza2_scifa_lld.c ****     RZA_IO_RegWrite_16((volatile uint16_t *) &gsp_scifa[channel]->SCR.WORD, (uint16_t) 0, SCIFA_SCR
 798              		.loc 1 821 0
 799 0010 003000E3 		movw	r3, #:lower16:.LANCHOR0
 800 0014 003040E3 		movt	r3, #:upper16:.LANCHOR0
 801 0018 004193E7 		ldr	r4, [r3, r0, lsl #2]
 802 001c 045084E2 		add	r5, r4, #4
 803 0020 8030A0E3 		mov	r3, #128
 804 0024 0720A0E3 		mov	r2, #7
 805 0028 0010A0E3 		mov	r1, #0
 806 002c 0500A0E1 		mov	r0, r5
 807              	.LVL103:
 808 0030 FEFFFFEB 		bl	RZA_IO_RegWrite_16
 809              	.LVL104:
 822:../generate/sc_drivers/r_scifa/src/lld/r_rza2_scifa_lld.c **** 
 823:../generate/sc_drivers/r_scifa/src/lld/r_rza2_scifa_lld.c ****     /* Disable transmit */
 824:../generate/sc_drivers/r_scifa/src/lld/r_rza2_scifa_lld.c ****     RZA_IO_RegWrite_16((volatile uint16_t *) &gsp_scifa[channel]->SCR.WORD, (uint16_t) 0, SCIFA_SCR
 810              		.loc 1 824 0
 811 0034 2030A0E3 		mov	r3, #32
 812 0038 0520A0E3 		mov	r2, #5
 813 003c 0010A0E3 		mov	r1, #0
 814 0040 0500A0E1 		mov	r0, r5
 815 0044 FEFFFFEB 		bl	RZA_IO_RegWrite_16
 816              	.LVL105:
 825:../generate/sc_drivers/r_scifa/src/lld/r_rza2_scifa_lld.c **** 
 826:../generate/sc_drivers/r_scifa/src/lld/r_rza2_scifa_lld.c ****     /* disable transmit end interrupt enable */
 827:../generate/sc_drivers/r_scifa/src/lld/r_rza2_scifa_lld.c ****     RZA_IO_RegWrite_16((volatile uint16_t *) &gsp_scifa[channel]->SCR.WORD, 0, SCIFA_SCR_TEIE_SHIFT
 817              		.loc 1 827 0
 818 0048 0430A0E3 		mov	r3, #4
 819 004c 0220A0E3 		mov	r2, #2
 820 0050 0010A0E3 		mov	r1, #0
 821 0054 0500A0E1 		mov	r0, r5
 822 0058 FEFFFFEB 		bl	RZA_IO_RegWrite_16
 823              	.LVL106:
 828:../generate/sc_drivers/r_scifa/src/lld/r_rza2_scifa_lld.c **** 
 829:../generate/sc_drivers/r_scifa/src/lld/r_rza2_scifa_lld.c ****     /* clear the TEND bit */
 830:../generate/sc_drivers/r_scifa/src/lld/r_rza2_scifa_lld.c ****      RZA_IO_RegWrite_16((volatile uint16_t *) &gsp_scifa[channel]->FSR.WORD, 0, SCIFA_FSR_TEND_SHIF
 824              		.loc 1 830 0
 825 005c 4030A0E3 		mov	r3, #64
 826 0060 0620A0E3 		mov	r2, #6
 827 0064 0010A0E3 		mov	r1, #0
 828 0068 080084E2 		add	r0, r4, #8
 829 006c FEFFFFEB 		bl	RZA_IO_RegWrite_16
 830              	.LVL107:
 831:../generate/sc_drivers/r_scifa/src/lld/r_rza2_scifa_lld.c **** 
 832:../generate/sc_drivers/r_scifa/src/lld/r_rza2_scifa_lld.c ****     /* flush the transmit FIFO */
 833:../generate/sc_drivers/r_scifa/src/lld/r_rza2_scifa_lld.c ****     gsp_scifa[channel]->FCR.BIT.TFRST = 1;
 831              		.loc 1 833 0
 832 0070 BC30D4E1 		ldrh	r3, [r4, #12]
 833 0074 043083E3 		orr	r3, r3, #4
 834 0078 BC30C4E1 		strh	r3, [r4, #12]	@ movhi
 834:../generate/sc_drivers/r_scifa/src/lld/r_rza2_scifa_lld.c ****     gsp_scifa[channel]->FCR.BIT.TFRST = 0;
 835              		.loc 1 834 0
 836 007c BC30D4E1 		ldrh	r3, [r4, #12]
 837 0080 1F31C2E7 		bfc	r3, #2, #1
 838 0084 BC30C4E1 		strh	r3, [r4, #12]	@ movhi
 835:../generate/sc_drivers/r_scifa/src/lld/r_rza2_scifa_lld.c **** 
 836:../generate/sc_drivers/r_scifa/src/lld/r_rza2_scifa_lld.c ****     return (DRV_SUCCESS);
 839              		.loc 1 836 0
 840 0088 0000A0E3 		mov	r0, #0
 841 008c 7080BDE8 		pop	{r4, r5, r6, pc}
 842              	.LVL108:
 843              	.L93:
 844              		.cfi_def_cfa_offset 0
 845              		.cfi_restore 4
 846              		.cfi_restore 5
 847              		.cfi_restore 6
 848              		.cfi_restore 14
 817:../generate/sc_drivers/r_scifa/src/lld/r_rza2_scifa_lld.c ****     }
 849              		.loc 1 817 0
 850 0090 0000E0E3 		mvn	r0, #0
 851              	.LVL109:
 852 0094 1EFF2FE1 		bx	lr
 853              		.cfi_endproc
 854              	.LFE14:
 856              		.section	.text.R_SCIFA_GetTXEIState,"ax",%progbits
 857              		.align	2
 858              		.global	R_SCIFA_GetTXEIState
 859              		.syntax unified
 860              		.arm
 861              		.fpu neon
 863              	R_SCIFA_GetTXEIState:
 864              	.LFB15:
 837:../generate/sc_drivers/r_scifa/src/lld/r_rza2_scifa_lld.c **** }
 838:../generate/sc_drivers/r_scifa/src/lld/r_rza2_scifa_lld.c **** /**************************************************************************************************
 839:../generate/sc_drivers/r_scifa/src/lld/r_rza2_scifa_lld.c ****  * End of Function R_SCIFA_StopTransmit
 840:../generate/sc_drivers/r_scifa/src/lld/r_rza2_scifa_lld.c ****  **************************************************************************************************
 841:../generate/sc_drivers/r_scifa/src/lld/r_rza2_scifa_lld.c **** 
 842:../generate/sc_drivers/r_scifa/src/lld/r_rza2_scifa_lld.c **** /**
 843:../generate/sc_drivers/r_scifa/src/lld/r_rza2_scifa_lld.c ****  * @brief R_SCIFA_GetTXEIState Determines the current TXEI state for a channel
 844:../generate/sc_drivers/r_scifa/src/lld/r_rza2_scifa_lld.c ****  *
 845:../generate/sc_drivers/r_scifa/src/lld/r_rza2_scifa_lld.c ****  * This function will determine whether a channel has recently triggered
 846:../generate/sc_drivers/r_scifa/src/lld/r_rza2_scifa_lld.c ****  * a TXEI interrupt event.
 847:../generate/sc_drivers/r_scifa/src/lld/r_rza2_scifa_lld.c ****  *
 848:../generate/sc_drivers/r_scifa/src/lld/r_rza2_scifa_lld.c ****  * @param[in] channel  Channel to check TXEI status for
 849:../generate/sc_drivers/r_scifa/src/lld/r_rza2_scifa_lld.c ****  *
 850:../generate/sc_drivers/r_scifa/src/lld/r_rza2_scifa_lld.c ****  * @retval  SCIFA_INTERRUPTING or SCIFA_NOT_INTERRUPTING
 851:../generate/sc_drivers/r_scifa/src/lld/r_rza2_scifa_lld.c ****  * @retval -1 DRV_ERROR
 852:../generate/sc_drivers/r_scifa/src/lld/r_rza2_scifa_lld.c ****  */
 853:../generate/sc_drivers/r_scifa/src/lld/r_rza2_scifa_lld.c **** scifa_interrupting_state_t R_SCIFA_GetTXEIState (r_channel_t channel)
 854:../generate/sc_drivers/r_scifa/src/lld/r_rza2_scifa_lld.c **** {
 865              		.loc 1 854 0
 866              		.cfi_startproc
 867              		@ args = 0, pretend = 0, frame = 0
 868              		@ frame_needed = 0, uses_anonymous_args = 0
 869              		@ link register save eliminated.
 870              	.LVL110:
 855:../generate/sc_drivers/r_scifa/src/lld/r_rza2_scifa_lld.c ****     if ((channel > R_PRV_CFG_SCIF_LAST_CHANNEL) || (channel < 0))
 871              		.loc 1 855 0
 872 0000 7030EFE6 		uxtb	r3, r0
 873 0004 050053E3 		cmp	r3, #5
 874 0008 0100009A 		bls	.L101
 856:../generate/sc_drivers/r_scifa/src/lld/r_rza2_scifa_lld.c ****     {
 857:../generate/sc_drivers/r_scifa/src/lld/r_rza2_scifa_lld.c ****         return (DRV_ERROR);
 875              		.loc 1 857 0
 876 000c FF00A0E3 		mov	r0, #255
 877              	.LVL111:
 858:../generate/sc_drivers/r_scifa/src/lld/r_rza2_scifa_lld.c ****     }
 859:../generate/sc_drivers/r_scifa/src/lld/r_rza2_scifa_lld.c **** 
 860:../generate/sc_drivers/r_scifa/src/lld/r_rza2_scifa_lld.c ****     uint16_t txend_interrupt_state;
 861:../generate/sc_drivers/r_scifa/src/lld/r_rza2_scifa_lld.c **** 
 862:../generate/sc_drivers/r_scifa/src/lld/r_rza2_scifa_lld.c ****     /* Get transmit end interrupt state */
 863:../generate/sc_drivers/r_scifa/src/lld/r_rza2_scifa_lld.c ****     txend_interrupt_state = gsp_scifa[channel]->FSR.BIT.TEND;
 864:../generate/sc_drivers/r_scifa/src/lld/r_rza2_scifa_lld.c **** 
 865:../generate/sc_drivers/r_scifa/src/lld/r_rza2_scifa_lld.c ****     return (txend_interrupt_state ? SCIFA_INTERRUPTING : SCIFA_NOT_INTERRUPTING);
 866:../generate/sc_drivers/r_scifa/src/lld/r_rza2_scifa_lld.c **** }
 878              		.loc 1 866 0
 879 0010 1EFF2FE1 		bx	lr
 880              	.LVL112:
 881              	.L101:
 863:../generate/sc_drivers/r_scifa/src/lld/r_rza2_scifa_lld.c **** 
 882              		.loc 1 863 0
 883 0014 003000E3 		movw	r3, #:lower16:.LANCHOR0
 884 0018 003040E3 		movt	r3, #:upper16:.LANCHOR0
 885 001c 003193E7 		ldr	r3, [r3, r0, lsl #2]
 886 0020 B800D3E1 		ldrh	r0, [r3, #8]
 887              	.LVL113:
 888 0024 5003E0E7 		ubfx	r0, r0, #6, #1
 865:../generate/sc_drivers/r_scifa/src/lld/r_rza2_scifa_lld.c **** }
 889              		.loc 1 865 0
 890 0028 1EFF2FE1 		bx	lr
 891              		.cfi_endproc
 892              	.LFE15:
 894              		.section	.text.R_SCIFA_GetTXIState,"ax",%progbits
 895              		.align	2
 896              		.global	R_SCIFA_GetTXIState
 897              		.syntax unified
 898              		.arm
 899              		.fpu neon
 901              	R_SCIFA_GetTXIState:
 902              	.LFB16:
 867:../generate/sc_drivers/r_scifa/src/lld/r_rza2_scifa_lld.c **** /**************************************************************************************************
 868:../generate/sc_drivers/r_scifa/src/lld/r_rza2_scifa_lld.c ****  * End of Function R_SCIFA_GetTXEIState
 869:../generate/sc_drivers/r_scifa/src/lld/r_rza2_scifa_lld.c ****  **************************************************************************************************
 870:../generate/sc_drivers/r_scifa/src/lld/r_rza2_scifa_lld.c **** 
 871:../generate/sc_drivers/r_scifa/src/lld/r_rza2_scifa_lld.c **** /**
 872:../generate/sc_drivers/r_scifa/src/lld/r_rza2_scifa_lld.c ****  * @brief R_SCIFA_GetTXIState Determines the current TXI state for a channel.
 873:../generate/sc_drivers/r_scifa/src/lld/r_rza2_scifa_lld.c ****  * This function will determine whether a channel has recently triggered
 874:../generate/sc_drivers/r_scifa/src/lld/r_rza2_scifa_lld.c ****  * a TXI interrupt event
 875:../generate/sc_drivers/r_scifa/src/lld/r_rza2_scifa_lld.c ****  *
 876:../generate/sc_drivers/r_scifa/src/lld/r_rza2_scifa_lld.c ****  * @param[in] channel: channel to check TXI status for
 877:../generate/sc_drivers/r_scifa/src/lld/r_rza2_scifa_lld.c ****  *
 878:../generate/sc_drivers/r_scifa/src/lld/r_rza2_scifa_lld.c ****  * @retval  SCIFA_INTERRUPTING or SCIFA_NOT_INTERRUPTING
 879:../generate/sc_drivers/r_scifa/src/lld/r_rza2_scifa_lld.c ****  * @retval -1 DRV_ERROR
 880:../generate/sc_drivers/r_scifa/src/lld/r_rza2_scifa_lld.c ****  */
 881:../generate/sc_drivers/r_scifa/src/lld/r_rza2_scifa_lld.c **** scifa_interrupting_state_t R_SCIFA_GetTXIState (r_channel_t channel)
 882:../generate/sc_drivers/r_scifa/src/lld/r_rza2_scifa_lld.c **** {
 903              		.loc 1 882 0
 904              		.cfi_startproc
 905              		@ args = 0, pretend = 0, frame = 0
 906              		@ frame_needed = 0, uses_anonymous_args = 0
 907              	.LVL114:
 883:../generate/sc_drivers/r_scifa/src/lld/r_rza2_scifa_lld.c ****     if ((channel > R_PRV_CFG_SCIF_LAST_CHANNEL) || (channel < 0))
 908              		.loc 1 883 0
 909 0000 7030EFE6 		uxtb	r3, r0
 910 0004 050053E3 		cmp	r3, #5
 911 0008 0100009A 		bls	.L109
 884:../generate/sc_drivers/r_scifa/src/lld/r_rza2_scifa_lld.c ****     {
 885:../generate/sc_drivers/r_scifa/src/lld/r_rza2_scifa_lld.c ****         return (DRV_ERROR);
 912              		.loc 1 885 0
 913 000c FF00A0E3 		mov	r0, #255
 914              	.LVL115:
 915 0010 1EFF2FE1 		bx	lr
 916              	.LVL116:
 917              	.L109:
 882:../generate/sc_drivers/r_scifa/src/lld/r_rza2_scifa_lld.c ****     if ((channel > R_PRV_CFG_SCIF_LAST_CHANNEL) || (channel < 0))
 918              		.loc 1 882 0
 919 0014 70402DE9 		push	{r4, r5, r6, lr}
 920              		.cfi_def_cfa_offset 16
 921              		.cfi_offset 4, -16
 922              		.cfi_offset 5, -12
 923              		.cfi_offset 6, -8
 924              		.cfi_offset 14, -4
 886:../generate/sc_drivers/r_scifa/src/lld/r_rza2_scifa_lld.c ****     }
 887:../generate/sc_drivers/r_scifa/src/lld/r_rza2_scifa_lld.c **** 
 888:../generate/sc_drivers/r_scifa/src/lld/r_rza2_scifa_lld.c ****     uint16_t tx_interrupt_state;
 889:../generate/sc_drivers/r_scifa/src/lld/r_rza2_scifa_lld.c ****     uint16_t tx_interrupt_enable_state;
 890:../generate/sc_drivers/r_scifa/src/lld/r_rza2_scifa_lld.c **** 
 891:../generate/sc_drivers/r_scifa/src/lld/r_rza2_scifa_lld.c ****     /* Get FIFO empty status */
 892:../generate/sc_drivers/r_scifa/src/lld/r_rza2_scifa_lld.c ****     tx_interrupt_state = RZA_IO_RegRead_16((volatile uint16_t *) &gsp_scifa[channel]->FSR.WORD, SCI
 925              		.loc 1 892 0
 926 0018 003000E3 		movw	r3, #:lower16:.LANCHOR0
 927 001c 003040E3 		movt	r3, #:upper16:.LANCHOR0
 928 0020 005193E7 		ldr	r5, [r3, r0, lsl #2]
 929 0024 2020A0E3 		mov	r2, #32
 930 0028 0510A0E3 		mov	r1, #5
 931 002c 080085E2 		add	r0, r5, #8
 932              	.LVL117:
 933 0030 FEFFFFEB 		bl	RZA_IO_RegRead_16
 934              	.LVL118:
 935 0034 0040A0E1 		mov	r4, r0
 936              	.LVL119:
 893:../generate/sc_drivers/r_scifa/src/lld/r_rza2_scifa_lld.c **** 
 894:../generate/sc_drivers/r_scifa/src/lld/r_rza2_scifa_lld.c ****     /* Get interrupt enable status */
 895:../generate/sc_drivers/r_scifa/src/lld/r_rza2_scifa_lld.c ****     tx_interrupt_enable_state = RZA_IO_RegRead_16((volatile uint16_t *) &gsp_scifa[channel]->SCR.WO
 937              		.loc 1 895 0
 938 0038 8020A0E3 		mov	r2, #128
 939 003c 0710A0E3 		mov	r1, #7
 940 0040 040085E2 		add	r0, r5, #4
 941 0044 FEFFFFEB 		bl	RZA_IO_RegRead_16
 942              	.LVL120:
 896:../generate/sc_drivers/r_scifa/src/lld/r_rza2_scifa_lld.c **** 
 897:../generate/sc_drivers/r_scifa/src/lld/r_rza2_scifa_lld.c ****     return ((tx_interrupt_state && tx_interrupt_enable_state) ? SCIFA_INTERRUPTING : SCIFA_NOT_INTE
 943              		.loc 1 897 0
 944 0048 000054E3 		cmp	r4, #0
 945 004c 00005013 		cmpne	r0, #0
 946 0050 0100A013 		movne	r0, #1
 947              	.LVL121:
 948 0054 0000A003 		moveq	r0, #0
 949 0058 7080BDE8 		pop	{r4, r5, r6, pc}
 950              		.cfi_endproc
 951              	.LFE16:
 953              		.section	.text.R_SCIFA_ClearTXIFlags,"ax",%progbits
 954              		.align	2
 955              		.global	R_SCIFA_ClearTXIFlags
 956              		.syntax unified
 957              		.arm
 958              		.fpu neon
 960              	R_SCIFA_ClearTXIFlags:
 961              	.LFB17:
 898:../generate/sc_drivers/r_scifa/src/lld/r_rza2_scifa_lld.c **** }
 899:../generate/sc_drivers/r_scifa/src/lld/r_rza2_scifa_lld.c **** /**************************************************************************************************
 900:../generate/sc_drivers/r_scifa/src/lld/r_rza2_scifa_lld.c ****  * End of Function R_SCIFA_GetTXIState
 901:../generate/sc_drivers/r_scifa/src/lld/r_rza2_scifa_lld.c ****  **************************************************************************************************
 902:../generate/sc_drivers/r_scifa/src/lld/r_rza2_scifa_lld.c **** 
 903:../generate/sc_drivers/r_scifa/src/lld/r_rza2_scifa_lld.c **** /**
 904:../generate/sc_drivers/r_scifa/src/lld/r_rza2_scifa_lld.c ****  * @brief R_SCIFA_ClearTXIFlags removes TXI flags on a channel
 905:../generate/sc_drivers/r_scifa/src/lld/r_rza2_scifa_lld.c ****  * This function is called at the end of an TXI handler routine
 906:../generate/sc_drivers/r_scifa/src/lld/r_rza2_scifa_lld.c ****  * it will clear necessary TXI flag to mark TXI as handled.
 907:../generate/sc_drivers/r_scifa/src/lld/r_rza2_scifa_lld.c ****  *
 908:../generate/sc_drivers/r_scifa/src/lld/r_rza2_scifa_lld.c ****  * @param[in] channel: channel to clear TXI flags for
 909:../generate/sc_drivers/r_scifa/src/lld/r_rza2_scifa_lld.c ****  *
 910:../generate/sc_drivers/r_scifa/src/lld/r_rza2_scifa_lld.c ****  * @retval  0 DRV_SUCCESS
 911:../generate/sc_drivers/r_scifa/src/lld/r_rza2_scifa_lld.c ****  * @retval -1 DRV_ERROR
 912:../generate/sc_drivers/r_scifa/src/lld/r_rza2_scifa_lld.c ****  */
 913:../generate/sc_drivers/r_scifa/src/lld/r_rza2_scifa_lld.c **** int_t R_SCIFA_ClearTXIFlags (r_channel_t channel)
 914:../generate/sc_drivers/r_scifa/src/lld/r_rza2_scifa_lld.c **** {
 962              		.loc 1 914 0
 963              		.cfi_startproc
 964              		@ args = 0, pretend = 0, frame = 0
 965              		@ frame_needed = 0, uses_anonymous_args = 0
 966              	.LVL122:
 915:../generate/sc_drivers/r_scifa/src/lld/r_rza2_scifa_lld.c ****     uint16_t dummy;
 916:../generate/sc_drivers/r_scifa/src/lld/r_rza2_scifa_lld.c **** 
 917:../generate/sc_drivers/r_scifa/src/lld/r_rza2_scifa_lld.c ****     if ((channel > R_PRV_CFG_SCIF_LAST_CHANNEL) || (channel < 0))
 967              		.loc 1 917 0
 968 0000 7030EFE6 		uxtb	r3, r0
 969 0004 050053E3 		cmp	r3, #5
 970 0008 1600008A 		bhi	.L112
 914:../generate/sc_drivers/r_scifa/src/lld/r_rza2_scifa_lld.c ****     uint16_t dummy;
 971              		.loc 1 914 0
 972 000c 10402DE9 		push	{r4, lr}
 973              		.cfi_def_cfa_offset 8
 974              		.cfi_offset 4, -8
 975              		.cfi_offset 14, -4
 976 0010 0040A0E1 		mov	r4, r0
 918:../generate/sc_drivers/r_scifa/src/lld/r_rza2_scifa_lld.c ****     {
 919:../generate/sc_drivers/r_scifa/src/lld/r_rza2_scifa_lld.c ****         return (DRV_ERROR);
 920:../generate/sc_drivers/r_scifa/src/lld/r_rza2_scifa_lld.c ****     }
 921:../generate/sc_drivers/r_scifa/src/lld/r_rza2_scifa_lld.c **** 
 922:../generate/sc_drivers/r_scifa/src/lld/r_rza2_scifa_lld.c ****     /* Dummy read */
 923:../generate/sc_drivers/r_scifa/src/lld/r_rza2_scifa_lld.c ****     dummy = RZA_IO_RegRead_16((volatile uint16_t *) &gsp_scifa[channel]->FSR.WORD, SCIFA_FSR_TDFE_S
 977              		.loc 1 923 0
 978 0014 003000E3 		movw	r3, #:lower16:.LANCHOR0
 979 0018 003040E3 		movt	r3, #:upper16:.LANCHOR0
 980 001c 000193E7 		ldr	r0, [r3, r0, lsl #2]
 981              	.LVL123:
 982 0020 2020A0E3 		mov	r2, #32
 983 0024 0510A0E3 		mov	r1, #5
 984 0028 080080E2 		add	r0, r0, #8
 985 002c FEFFFFEB 		bl	RZA_IO_RegRead_16
 986              	.LVL124:
 924:../generate/sc_drivers/r_scifa/src/lld/r_rza2_scifa_lld.c **** 
 925:../generate/sc_drivers/r_scifa/src/lld/r_rza2_scifa_lld.c ****     /* The TDFE flag can only be reset after a 1 is read from it */
 926:../generate/sc_drivers/r_scifa/src/lld/r_rza2_scifa_lld.c ****     if (1 == dummy)
 987              		.loc 1 926 0
 988 0030 010050E3 		cmp	r0, #1
 989 0034 0100000A 		beq	.L118
 927:../generate/sc_drivers/r_scifa/src/lld/r_rza2_scifa_lld.c ****     {
 928:../generate/sc_drivers/r_scifa/src/lld/r_rza2_scifa_lld.c ****         /* Reset the TDFE flag */
 929:../generate/sc_drivers/r_scifa/src/lld/r_rza2_scifa_lld.c ****         RZA_IO_RegWrite_16((volatile uint16_t *) &gsp_scifa[channel]->FSR.WORD, 0, SCIFA_FSR_TDFE_S
 930:../generate/sc_drivers/r_scifa/src/lld/r_rza2_scifa_lld.c ****     }
 931:../generate/sc_drivers/r_scifa/src/lld/r_rza2_scifa_lld.c **** 
 932:../generate/sc_drivers/r_scifa/src/lld/r_rza2_scifa_lld.c ****     return (DRV_SUCCESS);
 990              		.loc 1 932 0
 991 0038 0000A0E3 		mov	r0, #0
 992              	.LVL125:
 933:../generate/sc_drivers/r_scifa/src/lld/r_rza2_scifa_lld.c **** }
 993              		.loc 1 933 0
 994 003c 1080BDE8 		pop	{r4, pc}
 995              	.LVL126:
 996              	.L118:
 929:../generate/sc_drivers/r_scifa/src/lld/r_rza2_scifa_lld.c ****     }
 997              		.loc 1 929 0
 998 0040 003000E3 		movw	r3, #:lower16:.LANCHOR0
 999 0044 003040E3 		movt	r3, #:upper16:.LANCHOR0
 1000 0048 040193E7 		ldr	r0, [r3, r4, lsl #2]
 1001              	.LVL127:
 1002 004c 2030A0E3 		mov	r3, #32
 1003 0050 0520A0E3 		mov	r2, #5
 1004 0054 0010A0E3 		mov	r1, #0
 1005 0058 080080E2 		add	r0, r0, #8
 1006 005c FEFFFFEB 		bl	RZA_IO_RegWrite_16
 1007              	.LVL128:
 932:../generate/sc_drivers/r_scifa/src/lld/r_rza2_scifa_lld.c **** }
 1008              		.loc 1 932 0
 1009 0060 0000A0E3 		mov	r0, #0
 1010 0064 1080BDE8 		pop	{r4, pc}
 1011              	.LVL129:
 1012              	.L112:
 1013              		.cfi_def_cfa_offset 0
 1014              		.cfi_restore 4
 1015              		.cfi_restore 14
 919:../generate/sc_drivers/r_scifa/src/lld/r_rza2_scifa_lld.c ****     }
 1016              		.loc 1 919 0
 1017 0068 0000E0E3 		mvn	r0, #0
 1018              	.LVL130:
 1019 006c 1EFF2FE1 		bx	lr
 1020              		.cfi_endproc
 1021              	.LFE17:
 1023              		.section	.text.R_SCIFA_CheckRXIError,"ax",%progbits
 1024              		.align	2
 1025              		.global	R_SCIFA_CheckRXIError
 1026              		.syntax unified
 1027              		.arm
 1028              		.fpu neon
 1030              	R_SCIFA_CheckRXIError:
 1031              	.LFB18:
 934:../generate/sc_drivers/r_scifa/src/lld/r_rza2_scifa_lld.c **** /**************************************************************************************************
 935:../generate/sc_drivers/r_scifa/src/lld/r_rza2_scifa_lld.c ****  * End of Function R_SCIFA_ClearTXIFlags
 936:../generate/sc_drivers/r_scifa/src/lld/r_rza2_scifa_lld.c ****  **************************************************************************************************
 937:../generate/sc_drivers/r_scifa/src/lld/r_rza2_scifa_lld.c **** 
 938:../generate/sc_drivers/r_scifa/src/lld/r_rza2_scifa_lld.c **** /**
 939:../generate/sc_drivers/r_scifa/src/lld/r_rza2_scifa_lld.c ****  * @brief R_SCIFA_CheckRXIError Determines error status of channel receive
 940:../generate/sc_drivers/r_scifa/src/lld/r_rza2_scifa_lld.c ****  * This function will determine whether a channel has recently experienced
 941:../generate/sc_drivers/r_scifa/src/lld/r_rza2_scifa_lld.c ****  * any overflow/parity/framing errors when receiving data
 942:../generate/sc_drivers/r_scifa/src/lld/r_rza2_scifa_lld.c ****  * It returns this information in a error data structure
 943:../generate/sc_drivers/r_scifa/src/lld/r_rza2_scifa_lld.c ****  *
 944:../generate/sc_drivers/r_scifa/src/lld/r_rza2_scifa_lld.c ****  * @param[in] channel: channel to check RXI error status for
 945:../generate/sc_drivers/r_scifa/src/lld/r_rza2_scifa_lld.c ****  * @param[out] p_rx_err: error info struct to populate with any error details
 946:../generate/sc_drivers/r_scifa/src/lld/r_rza2_scifa_lld.c ****  *
 947:../generate/sc_drivers/r_scifa/src/lld/r_rza2_scifa_lld.c ****  * @retval  0 DRV_SUCCESS
 948:../generate/sc_drivers/r_scifa/src/lld/r_rza2_scifa_lld.c ****  * @retval -1 DRV_ERROR
 949:../generate/sc_drivers/r_scifa/src/lld/r_rza2_scifa_lld.c ****  */
 950:../generate/sc_drivers/r_scifa/src/lld/r_rza2_scifa_lld.c **** int_t R_SCIFA_CheckRXIError(r_channel_t channel, st_scifa_rx_error_t *p_rx_err)
 951:../generate/sc_drivers/r_scifa/src/lld/r_rza2_scifa_lld.c **** {
 1032              		.loc 1 951 0
 1033              		.cfi_startproc
 1034              		@ args = 0, pretend = 0, frame = 0
 1035              		@ frame_needed = 0, uses_anonymous_args = 0
 1036              	.LVL131:
 1037 0000 F0412DE9 		push	{r4, r5, r6, r7, r8, lr}
 1038              		.cfi_def_cfa_offset 24
 1039              		.cfi_offset 4, -24
 1040              		.cfi_offset 5, -20
 1041              		.cfi_offset 6, -16
 1042              		.cfi_offset 7, -12
 1043              		.cfi_offset 8, -8
 1044              		.cfi_offset 14, -4
 1045 0004 0040A0E1 		mov	r4, r0
 1046 0008 0150A0E1 		mov	r5, r1
 1047              	.LVL132:
 952:../generate/sc_drivers/r_scifa/src/lld/r_rza2_scifa_lld.c ****     int_t ret = DRV_SUCCESS;
 953:../generate/sc_drivers/r_scifa/src/lld/r_rza2_scifa_lld.c ****     uint32_t framing_errors;
 954:../generate/sc_drivers/r_scifa/src/lld/r_rza2_scifa_lld.c ****     uint32_t parity_errors;
 955:../generate/sc_drivers/r_scifa/src/lld/r_rza2_scifa_lld.c ****     bool_t framing_errors_present;
 956:../generate/sc_drivers/r_scifa/src/lld/r_rza2_scifa_lld.c ****     bool_t parity_errors_present;
 957:../generate/sc_drivers/r_scifa/src/lld/r_rza2_scifa_lld.c **** 
 958:../generate/sc_drivers/r_scifa/src/lld/r_rza2_scifa_lld.c ****     /* read the ER flag; this tells us if there were any framing or parity errors */
 959:../generate/sc_drivers/r_scifa/src/lld/r_rza2_scifa_lld.c ****     if (1 == RZA_IO_RegRead_16((volatile uint16_t *) &gsp_scifa[channel]->FSR.WORD, SCIFA_FSR_ER_SH
 1048              		.loc 1 959 0
 1049 000c 003000E3 		movw	r3, #:lower16:.LANCHOR0
 1050 0010 003040E3 		movt	r3, #:upper16:.LANCHOR0
 1051 0014 000193E7 		ldr	r0, [r3, r0, lsl #2]
 1052              	.LVL133:
 1053 0018 8020A0E3 		mov	r2, #128
 1054 001c 0710A0E3 		mov	r1, #7
 1055              	.LVL134:
 1056 0020 080080E2 		add	r0, r0, #8
 1057 0024 FEFFFFEB 		bl	RZA_IO_RegRead_16
 1058              	.LVL135:
 1059 0028 010050E3 		cmp	r0, #1
 1060 002c 1C00000A 		beq	.L132
 1061              	.L120:
 960:../generate/sc_drivers/r_scifa/src/lld/r_rza2_scifa_lld.c ****     {
 961:../generate/sc_drivers/r_scifa/src/lld/r_rza2_scifa_lld.c ****         /* read the FER flag for framing errors */
 962:../generate/sc_drivers/r_scifa/src/lld/r_rza2_scifa_lld.c ****         framing_errors_present = RZA_IO_RegRead_16((volatile uint16_t *) &gsp_scifa[channel]->FSR.W
 963:../generate/sc_drivers/r_scifa/src/lld/r_rza2_scifa_lld.c **** 
 964:../generate/sc_drivers/r_scifa/src/lld/r_rza2_scifa_lld.c ****         /* read the PER flag for parity errors */
 965:../generate/sc_drivers/r_scifa/src/lld/r_rza2_scifa_lld.c ****         parity_errors_present = RZA_IO_RegRead_16((volatile uint16_t *) &gsp_scifa[channel]->FSR.WO
 966:../generate/sc_drivers/r_scifa/src/lld/r_rza2_scifa_lld.c **** 
 967:../generate/sc_drivers/r_scifa/src/lld/r_rza2_scifa_lld.c ****         /* if there were any framing errors, then get the framing error count and update our total 
 968:../generate/sc_drivers/r_scifa/src/lld/r_rza2_scifa_lld.c ****         if (framing_errors_present)
 969:../generate/sc_drivers/r_scifa/src/lld/r_rza2_scifa_lld.c ****         {
 970:../generate/sc_drivers/r_scifa/src/lld/r_rza2_scifa_lld.c ****             /* count framing errors */
 971:../generate/sc_drivers/r_scifa/src/lld/r_rza2_scifa_lld.c ****             framing_errors = RZA_IO_RegRead_16((volatile uint16_t *) &gsp_scifa[channel]->LSR.WORD,
 972:../generate/sc_drivers/r_scifa/src/lld/r_rza2_scifa_lld.c **** 
 973:../generate/sc_drivers/r_scifa/src/lld/r_rza2_scifa_lld.c ****             /* 0 actually means that there were 16 framing errors */
 974:../generate/sc_drivers/r_scifa/src/lld/r_rza2_scifa_lld.c ****             if (0 == framing_errors)
 975:../generate/sc_drivers/r_scifa/src/lld/r_rza2_scifa_lld.c ****             {
 976:../generate/sc_drivers/r_scifa/src/lld/r_rza2_scifa_lld.c ****                 framing_errors = 16;
 977:../generate/sc_drivers/r_scifa/src/lld/r_rza2_scifa_lld.c ****             }
 978:../generate/sc_drivers/r_scifa/src/lld/r_rza2_scifa_lld.c **** 
 979:../generate/sc_drivers/r_scifa/src/lld/r_rza2_scifa_lld.c ****             p_rx_err->cnt_framing += framing_errors;
 980:../generate/sc_drivers/r_scifa/src/lld/r_rza2_scifa_lld.c ****         }
 981:../generate/sc_drivers/r_scifa/src/lld/r_rza2_scifa_lld.c **** 
 982:../generate/sc_drivers/r_scifa/src/lld/r_rza2_scifa_lld.c ****         /* if there were any parity errors, then get the parity error count and update our total */
 983:../generate/sc_drivers/r_scifa/src/lld/r_rza2_scifa_lld.c ****         if (parity_errors_present)
 984:../generate/sc_drivers/r_scifa/src/lld/r_rza2_scifa_lld.c ****         {
 985:../generate/sc_drivers/r_scifa/src/lld/r_rza2_scifa_lld.c ****             /* count parity errors */
 986:../generate/sc_drivers/r_scifa/src/lld/r_rza2_scifa_lld.c ****             parity_errors = RZA_IO_RegRead_16((volatile uint16_t *) &gsp_scifa[channel]->LSR.WORD, 
 987:../generate/sc_drivers/r_scifa/src/lld/r_rza2_scifa_lld.c **** 
 988:../generate/sc_drivers/r_scifa/src/lld/r_rza2_scifa_lld.c ****             /* 0 actually means that there were 16 parity errors */
 989:../generate/sc_drivers/r_scifa/src/lld/r_rza2_scifa_lld.c ****             if (0 == parity_errors)
 990:../generate/sc_drivers/r_scifa/src/lld/r_rza2_scifa_lld.c ****             {
 991:../generate/sc_drivers/r_scifa/src/lld/r_rza2_scifa_lld.c ****                 parity_errors = 16;
 992:../generate/sc_drivers/r_scifa/src/lld/r_rza2_scifa_lld.c ****             }
 993:../generate/sc_drivers/r_scifa/src/lld/r_rza2_scifa_lld.c **** 
 994:../generate/sc_drivers/r_scifa/src/lld/r_rza2_scifa_lld.c ****             p_rx_err->cnt_parity += parity_errors;
 995:../generate/sc_drivers/r_scifa/src/lld/r_rza2_scifa_lld.c ****         }
 996:../generate/sc_drivers/r_scifa/src/lld/r_rza2_scifa_lld.c **** 
 997:../generate/sc_drivers/r_scifa/src/lld/r_rza2_scifa_lld.c ****         /* clear the ER flag */
 998:../generate/sc_drivers/r_scifa/src/lld/r_rza2_scifa_lld.c ****         RZA_IO_RegWrite_16((volatile uint16_t *) &gsp_scifa[channel]->FSR.WORD, 0, SCIFA_FSR_ER_SHI
 999:../generate/sc_drivers/r_scifa/src/lld/r_rza2_scifa_lld.c ****     }
1000:../generate/sc_drivers/r_scifa/src/lld/r_rza2_scifa_lld.c **** 
1001:../generate/sc_drivers/r_scifa/src/lld/r_rza2_scifa_lld.c ****     /* Count break errors */
1002:../generate/sc_drivers/r_scifa/src/lld/r_rza2_scifa_lld.c ****     if (1 == RZA_IO_RegRead_16((volatile uint16_t *) &gsp_scifa[channel]->FSR.WORD, SCIFA_FSR_BRK_S
 1062              		.loc 1 1002 0
 1063 0030 003000E3 		movw	r3, #:lower16:.LANCHOR0
 1064 0034 003040E3 		movt	r3, #:upper16:.LANCHOR0
 1065 0038 040193E7 		ldr	r0, [r3, r4, lsl #2]
 1066 003c 1020A0E3 		mov	r2, #16
 1067 0040 0410A0E3 		mov	r1, #4
 1068 0044 080080E2 		add	r0, r0, #8
 1069 0048 FEFFFFEB 		bl	RZA_IO_RegRead_16
 1070              	.LVL136:
 1071 004c 010050E3 		cmp	r0, #1
 1072 0050 4A00000A 		beq	.L133
 1073              	.L125:
1003:../generate/sc_drivers/r_scifa/src/lld/r_rza2_scifa_lld.c ****     {
1004:../generate/sc_drivers/r_scifa/src/lld/r_rza2_scifa_lld.c ****         p_rx_err->cnt_break++;
1005:../generate/sc_drivers/r_scifa/src/lld/r_rza2_scifa_lld.c ****     }
1006:../generate/sc_drivers/r_scifa/src/lld/r_rza2_scifa_lld.c **** 
1007:../generate/sc_drivers/r_scifa/src/lld/r_rza2_scifa_lld.c ****     /* Count overrun errors */
1008:../generate/sc_drivers/r_scifa/src/lld/r_rza2_scifa_lld.c ****     if (1 == RZA_IO_RegRead_16((volatile uint16_t *) &gsp_scifa[channel]->LSR.WORD, SCIFA_LSR_ORER_
 1074              		.loc 1 1008 0
 1075 0054 003000E3 		movw	r3, #:lower16:.LANCHOR0
 1076 0058 003040E3 		movt	r3, #:upper16:.LANCHOR0
 1077 005c 040193E7 		ldr	r0, [r3, r4, lsl #2]
 1078 0060 0120A0E3 		mov	r2, #1
 1079 0064 0010A0E3 		mov	r1, #0
 1080 0068 120080E2 		add	r0, r0, #18
 1081 006c FEFFFFEB 		bl	RZA_IO_RegRead_16
 1082              	.LVL137:
 1083 0070 010050E3 		cmp	r0, #1
 1084 0074 4500000A 		beq	.L134
 1085              	.L126:
1009:../generate/sc_drivers/r_scifa/src/lld/r_rza2_scifa_lld.c ****     {
1010:../generate/sc_drivers/r_scifa/src/lld/r_rza2_scifa_lld.c ****         p_rx_err->cnt_overrun++;
1011:../generate/sc_drivers/r_scifa/src/lld/r_rza2_scifa_lld.c **** 
1012:../generate/sc_drivers/r_scifa/src/lld/r_rza2_scifa_lld.c ****         /* clear the overrun flag */
1013:../generate/sc_drivers/r_scifa/src/lld/r_rza2_scifa_lld.c ****         RZA_IO_RegWrite_16((volatile uint16_t *) &gsp_scifa[channel]->LSR.WORD, 0, SCIFA_LSR_ORER_S
1014:../generate/sc_drivers/r_scifa/src/lld/r_rza2_scifa_lld.c ****     }
1015:../generate/sc_drivers/r_scifa/src/lld/r_rza2_scifa_lld.c **** 
1016:../generate/sc_drivers/r_scifa/src/lld/r_rza2_scifa_lld.c ****     /* Is data ready? */
1017:../generate/sc_drivers/r_scifa/src/lld/r_rza2_scifa_lld.c ****     if (1 == RZA_IO_RegRead_16((volatile uint16_t *) &gsp_scifa[channel]->FSR.WORD, SCIFA_FSR_DR_SH
 1086              		.loc 1 1017 0
 1087 0078 003000E3 		movw	r3, #:lower16:.LANCHOR0
 1088 007c 003040E3 		movt	r3, #:upper16:.LANCHOR0
 1089 0080 040193E7 		ldr	r0, [r3, r4, lsl #2]
 1090 0084 0120A0E3 		mov	r2, #1
 1091 0088 0010A0E3 		mov	r1, #0
 1092 008c 080080E2 		add	r0, r0, #8
 1093 0090 FEFFFFEB 		bl	RZA_IO_RegRead_16
 1094              	.LVL138:
 1095 0094 010050E3 		cmp	r0, #1
 1096 0098 4800000A 		beq	.L130
 952:../generate/sc_drivers/r_scifa/src/lld/r_rza2_scifa_lld.c ****     uint32_t framing_errors;
 1097              		.loc 1 952 0
 1098 009c 0000A0E3 		mov	r0, #0
 1099 00a0 F081BDE8 		pop	{r4, r5, r6, r7, r8, pc}
 1100              	.L132:
 962:../generate/sc_drivers/r_scifa/src/lld/r_rza2_scifa_lld.c **** 
 1101              		.loc 1 962 0
 1102 00a4 003000E3 		movw	r3, #:lower16:.LANCHOR0
 1103 00a8 003040E3 		movt	r3, #:upper16:.LANCHOR0
 1104 00ac 046193E7 		ldr	r6, [r3, r4, lsl #2]
 1105 00b0 086086E2 		add	r6, r6, #8
 1106 00b4 0820A0E3 		mov	r2, #8
 1107 00b8 0310A0E3 		mov	r1, #3
 1108 00bc 0600A0E1 		mov	r0, r6
 1109 00c0 FEFFFFEB 		bl	RZA_IO_RegRead_16
 1110              	.LVL139:
 1111 00c4 0070A0E1 		mov	r7, r0
 1112              	.LVL140:
 965:../generate/sc_drivers/r_scifa/src/lld/r_rza2_scifa_lld.c **** 
 1113              		.loc 1 965 0
 1114 00c8 0420A0E3 		mov	r2, #4
 1115 00cc 0210A0E3 		mov	r1, #2
 1116 00d0 0600A0E1 		mov	r0, r6
 1117 00d4 FEFFFFEB 		bl	RZA_IO_RegRead_16
 1118              	.LVL141:
 1119 00d8 0060A0E1 		mov	r6, r0
 1120              	.LVL142:
 968:../generate/sc_drivers/r_scifa/src/lld/r_rza2_scifa_lld.c ****         {
 1121              		.loc 1 968 0
 1122 00dc 000057E3 		cmp	r7, #0
 1123 00e0 0A00001A 		bne	.L135
 1124              	.L121:
 983:../generate/sc_drivers/r_scifa/src/lld/r_rza2_scifa_lld.c ****         {
 1125              		.loc 1 983 0
 1126 00e4 000056E3 		cmp	r6, #0
 1127 00e8 1600001A 		bne	.L136
 1128              	.L123:
 998:../generate/sc_drivers/r_scifa/src/lld/r_rza2_scifa_lld.c ****     }
 1129              		.loc 1 998 0
 1130 00ec 003000E3 		movw	r3, #:lower16:.LANCHOR0
 1131 00f0 003040E3 		movt	r3, #:upper16:.LANCHOR0
 1132 00f4 040193E7 		ldr	r0, [r3, r4, lsl #2]
 1133 00f8 8030A0E3 		mov	r3, #128
 1134 00fc 0720A0E3 		mov	r2, #7
 1135 0100 0010A0E3 		mov	r1, #0
 1136 0104 080080E2 		add	r0, r0, #8
 1137 0108 FEFFFFEB 		bl	RZA_IO_RegWrite_16
 1138              	.LVL143:
 1139 010c C7FFFFEA 		b	.L120
 1140              	.L135:
 971:../generate/sc_drivers/r_scifa/src/lld/r_rza2_scifa_lld.c **** 
 1141              		.loc 1 971 0
 1142 0110 003000E3 		movw	r3, #:lower16:.LANCHOR0
 1143 0114 003040E3 		movt	r3, #:upper16:.LANCHOR0
 1144 0118 040193E7 		ldr	r0, [r3, r4, lsl #2]
 1145 011c 3C20A0E3 		mov	r2, #60
 1146 0120 0210A0E3 		mov	r1, #2
 1147 0124 120080E2 		add	r0, r0, #18
 1148 0128 FEFFFFEB 		bl	RZA_IO_RegRead_16
 1149              	.LVL144:
 1150 012c 0020A0E1 		mov	r2, r0
 1151              	.LVL145:
 974:../generate/sc_drivers/r_scifa/src/lld/r_rza2_scifa_lld.c ****             {
 1152              		.loc 1 974 0
 1153 0130 000050E3 		cmp	r0, #0
 976:../generate/sc_drivers/r_scifa/src/lld/r_rza2_scifa_lld.c ****             }
 1154              		.loc 1 976 0
 1155 0134 1020A003 		moveq	r2, #16
 1156              	.L122:
 1157              	.LVL146:
 979:../generate/sc_drivers/r_scifa/src/lld/r_rza2_scifa_lld.c ****         }
 1158              		.loc 1 979 0
 1159 0138 043095E5 		ldr	r3, [r5, #4]
 1160 013c 023083E0 		add	r3, r3, r2
 1161 0140 043085E5 		str	r3, [r5, #4]
 1162 0144 E6FFFFEA 		b	.L121
 1163              	.LVL147:
 1164              	.L136:
 986:../generate/sc_drivers/r_scifa/src/lld/r_rza2_scifa_lld.c **** 
 1165              		.loc 1 986 0
 1166 0148 003000E3 		movw	r3, #:lower16:.LANCHOR0
 1167 014c 003040E3 		movt	r3, #:upper16:.LANCHOR0
 1168 0150 040193E7 		ldr	r0, [r3, r4, lsl #2]
 1169 0154 0F2CA0E3 		mov	r2, #3840
 1170 0158 0810A0E3 		mov	r1, #8
 1171 015c 120080E2 		add	r0, r0, #18
 1172 0160 FEFFFFEB 		bl	RZA_IO_RegRead_16
 1173              	.LVL148:
 1174 0164 0020A0E1 		mov	r2, r0
 1175              	.LVL149:
 989:../generate/sc_drivers/r_scifa/src/lld/r_rza2_scifa_lld.c ****             {
 1176              		.loc 1 989 0
 1177 0168 000050E3 		cmp	r0, #0
 991:../generate/sc_drivers/r_scifa/src/lld/r_rza2_scifa_lld.c ****             }
 1178              		.loc 1 991 0
 1179 016c 1020A003 		moveq	r2, #16
 1180              	.L124:
 1181              	.LVL150:
 994:../generate/sc_drivers/r_scifa/src/lld/r_rza2_scifa_lld.c ****         }
 1182              		.loc 1 994 0
 1183 0170 083095E5 		ldr	r3, [r5, #8]
 1184 0174 023083E0 		add	r3, r3, r2
 1185 0178 083085E5 		str	r3, [r5, #8]
 1186 017c DAFFFFEA 		b	.L123
 1187              	.LVL151:
 1188              	.L133:
1004:../generate/sc_drivers/r_scifa/src/lld/r_rza2_scifa_lld.c ****     }
 1189              		.loc 1 1004 0
 1190 0180 0C3095E5 		ldr	r3, [r5, #12]
 1191 0184 013083E2 		add	r3, r3, #1
 1192 0188 0C3085E5 		str	r3, [r5, #12]
 1193 018c B0FFFFEA 		b	.L125
 1194              	.L134:
1010:../generate/sc_drivers/r_scifa/src/lld/r_rza2_scifa_lld.c **** 
 1195              		.loc 1 1010 0
 1196 0190 003095E5 		ldr	r3, [r5]
 1197 0194 013083E2 		add	r3, r3, #1
 1198 0198 003085E5 		str	r3, [r5]
1013:../generate/sc_drivers/r_scifa/src/lld/r_rza2_scifa_lld.c ****     }
 1199              		.loc 1 1013 0
 1200 019c 003000E3 		movw	r3, #:lower16:.LANCHOR0
 1201 01a0 003040E3 		movt	r3, #:upper16:.LANCHOR0
 1202 01a4 040193E7 		ldr	r0, [r3, r4, lsl #2]
 1203 01a8 0130A0E3 		mov	r3, #1
 1204 01ac 0020A0E3 		mov	r2, #0
 1205 01b0 0210A0E1 		mov	r1, r2
 1206 01b4 120080E2 		add	r0, r0, #18
 1207 01b8 FEFFFFEB 		bl	RZA_IO_RegWrite_16
 1208              	.LVL152:
 1209 01bc ADFFFFEA 		b	.L126
 1210              	.L130:
1018:../generate/sc_drivers/r_scifa/src/lld/r_rza2_scifa_lld.c ****     {
1019:../generate/sc_drivers/r_scifa/src/lld/r_rza2_scifa_lld.c ****         ret = DRV_ERROR;
 1211              		.loc 1 1019 0
 1212 01c0 0000E0E3 		mvn	r0, #0
 1213              	.LVL153:
1020:../generate/sc_drivers/r_scifa/src/lld/r_rza2_scifa_lld.c ****     }
1021:../generate/sc_drivers/r_scifa/src/lld/r_rza2_scifa_lld.c **** 
1022:../generate/sc_drivers/r_scifa/src/lld/r_rza2_scifa_lld.c ****     return (ret);
1023:../generate/sc_drivers/r_scifa/src/lld/r_rza2_scifa_lld.c **** }
 1214              		.loc 1 1023 0
 1215 01c4 F081BDE8 		pop	{r4, r5, r6, r7, r8, pc}
 1216              		.cfi_endproc
 1217              	.LFE18:
 1219              		.section	.text.R_SCIFA_GetRXIState,"ax",%progbits
 1220              		.align	2
 1221              		.global	R_SCIFA_GetRXIState
 1222              		.syntax unified
 1223              		.arm
 1224              		.fpu neon
 1226              	R_SCIFA_GetRXIState:
 1227              	.LFB19:
1024:../generate/sc_drivers/r_scifa/src/lld/r_rza2_scifa_lld.c **** /**************************************************************************************************
1025:../generate/sc_drivers/r_scifa/src/lld/r_rza2_scifa_lld.c ****  * End of Function R_SCIFA_CheckRXIError
1026:../generate/sc_drivers/r_scifa/src/lld/r_rza2_scifa_lld.c ****  **************************************************************************************************
1027:../generate/sc_drivers/r_scifa/src/lld/r_rza2_scifa_lld.c **** 
1028:../generate/sc_drivers/r_scifa/src/lld/r_rza2_scifa_lld.c **** /**
1029:../generate/sc_drivers/r_scifa/src/lld/r_rza2_scifa_lld.c ****  * @brief R_SCIFA_GetRXIState Determines the current RXI state for a channel
1030:../generate/sc_drivers/r_scifa/src/lld/r_rza2_scifa_lld.c ****  * This function will determine whether a channel has recently triggered
1031:../generate/sc_drivers/r_scifa/src/lld/r_rza2_scifa_lld.c ****  * a RXI interrupt event
1032:../generate/sc_drivers/r_scifa/src/lld/r_rza2_scifa_lld.c ****  *
1033:../generate/sc_drivers/r_scifa/src/lld/r_rza2_scifa_lld.c ****  * @param[in] channel: channel to check RXI state for
1034:../generate/sc_drivers/r_scifa/src/lld/r_rza2_scifa_lld.c ****  *
1035:../generate/sc_drivers/r_scifa/src/lld/r_rza2_scifa_lld.c ****  * @retval  SCIFA_INTERRUPTING or SCIFA_NOT_INTERRUPTING
1036:../generate/sc_drivers/r_scifa/src/lld/r_rza2_scifa_lld.c ****  * @retval -1 DRV_ERROR
1037:../generate/sc_drivers/r_scifa/src/lld/r_rza2_scifa_lld.c ****  */
1038:../generate/sc_drivers/r_scifa/src/lld/r_rza2_scifa_lld.c **** scifa_interrupting_state_t R_SCIFA_GetRXIState (r_channel_t channel)
1039:../generate/sc_drivers/r_scifa/src/lld/r_rza2_scifa_lld.c **** {
 1228              		.loc 1 1039 0
 1229              		.cfi_startproc
 1230              		@ args = 0, pretend = 0, frame = 0
 1231              		@ frame_needed = 0, uses_anonymous_args = 0
 1232              	.LVL154:
1040:../generate/sc_drivers/r_scifa/src/lld/r_rza2_scifa_lld.c ****     if ((channel > R_PRV_CFG_SCIF_LAST_CHANNEL) || (channel < 0))
 1233              		.loc 1 1040 0
 1234 0000 7030EFE6 		uxtb	r3, r0
 1235 0004 050053E3 		cmp	r3, #5
 1236 0008 0100009A 		bls	.L147
1041:../generate/sc_drivers/r_scifa/src/lld/r_rza2_scifa_lld.c ****     {
1042:../generate/sc_drivers/r_scifa/src/lld/r_rza2_scifa_lld.c ****         return (DRV_ERROR);
 1237              		.loc 1 1042 0
 1238 000c FF00A0E3 		mov	r0, #255
 1239              	.LVL155:
 1240 0010 1EFF2FE1 		bx	lr
 1241              	.LVL156:
 1242              	.L147:
1039:../generate/sc_drivers/r_scifa/src/lld/r_rza2_scifa_lld.c ****     if ((channel > R_PRV_CFG_SCIF_LAST_CHANNEL) || (channel < 0))
 1243              		.loc 1 1039 0
 1244 0014 70402DE9 		push	{r4, r5, r6, lr}
 1245              		.cfi_def_cfa_offset 16
 1246              		.cfi_offset 4, -16
 1247              		.cfi_offset 5, -12
 1248              		.cfi_offset 6, -8
 1249              		.cfi_offset 14, -4
1043:../generate/sc_drivers/r_scifa/src/lld/r_rza2_scifa_lld.c ****     }
1044:../generate/sc_drivers/r_scifa/src/lld/r_rza2_scifa_lld.c **** 
1045:../generate/sc_drivers/r_scifa/src/lld/r_rza2_scifa_lld.c ****     uint16_t rx_interrupt_state;              // RDF
1046:../generate/sc_drivers/r_scifa/src/lld/r_rza2_scifa_lld.c ****     uint16_t rx_enable_state;                 // RE
1047:../generate/sc_drivers/r_scifa/src/lld/r_rza2_scifa_lld.c ****     uint16_t rx_interrupt_enable_state;       // RIE
1048:../generate/sc_drivers/r_scifa/src/lld/r_rza2_scifa_lld.c **** 
1049:../generate/sc_drivers/r_scifa/src/lld/r_rza2_scifa_lld.c ****     /* Get FIFO full status */
1050:../generate/sc_drivers/r_scifa/src/lld/r_rza2_scifa_lld.c ****     rx_interrupt_state = RZA_IO_RegRead_16((volatile uint16_t *) &gsp_scifa[channel]->FSR.WORD, SCI
 1250              		.loc 1 1050 0
 1251 0018 003000E3 		movw	r3, #:lower16:.LANCHOR0
 1252 001c 003040E3 		movt	r3, #:upper16:.LANCHOR0
 1253 0020 004193E7 		ldr	r4, [r3, r0, lsl #2]
 1254 0024 0220A0E3 		mov	r2, #2
 1255 0028 0110A0E3 		mov	r1, #1
 1256 002c 080084E2 		add	r0, r4, #8
 1257              	.LVL157:
 1258 0030 FEFFFFEB 		bl	RZA_IO_RegRead_16
 1259              	.LVL158:
 1260 0034 0060A0E1 		mov	r6, r0
 1261              	.LVL159:
1051:../generate/sc_drivers/r_scifa/src/lld/r_rza2_scifa_lld.c **** 
1052:../generate/sc_drivers/r_scifa/src/lld/r_rza2_scifa_lld.c ****     /* Get receive enable status */
1053:../generate/sc_drivers/r_scifa/src/lld/r_rza2_scifa_lld.c ****     rx_enable_state = RZA_IO_RegRead_16((volatile uint16_t *) &gsp_scifa[channel]->SCR.WORD, SCIFA_
 1262              		.loc 1 1053 0
 1263 0038 044084E2 		add	r4, r4, #4
 1264 003c 1020A0E3 		mov	r2, #16
 1265 0040 0410A0E3 		mov	r1, #4
 1266 0044 0400A0E1 		mov	r0, r4
 1267 0048 FEFFFFEB 		bl	RZA_IO_RegRead_16
 1268              	.LVL160:
 1269 004c 0050A0E1 		mov	r5, r0
 1270              	.LVL161:
1054:../generate/sc_drivers/r_scifa/src/lld/r_rza2_scifa_lld.c **** 
1055:../generate/sc_drivers/r_scifa/src/lld/r_rza2_scifa_lld.c ****     /* Get interrupt enable status */
1056:../generate/sc_drivers/r_scifa/src/lld/r_rza2_scifa_lld.c ****     rx_interrupt_enable_state = RZA_IO_RegRead_16((volatile uint16_t *) &gsp_scifa[channel]->SCR.WO
 1271              		.loc 1 1056 0
 1272 0050 4020A0E3 		mov	r2, #64
 1273 0054 0610A0E3 		mov	r1, #6
 1274 0058 0400A0E1 		mov	r0, r4
 1275 005c FEFFFFEB 		bl	RZA_IO_RegRead_16
 1276              	.LVL162:
1057:../generate/sc_drivers/r_scifa/src/lld/r_rza2_scifa_lld.c **** 
1058:../generate/sc_drivers/r_scifa/src/lld/r_rza2_scifa_lld.c ****     return ((rx_interrupt_state && rx_enable_state && rx_interrupt_enable_state) ? SCIFA_INTERRUPTI
 1277              		.loc 1 1058 0
 1278 0060 000056E3 		cmp	r6, #0
 1279 0064 00005513 		cmpne	r5, #0
 1280 0068 0200000A 		beq	.L141
 1281              		.loc 1 1058 0 is_stmt 0 discriminator 1
 1282 006c 000050E3 		cmp	r0, #0
 1283              		.loc 1 1058 0
 1284 0070 0100A013 		movne	r0, #1
 1285              	.LVL163:
 1286 0074 000000EA 		b	.L139
 1287              	.LVL164:
 1288              	.L141:
 1289 0078 0000A0E3 		mov	r0, #0
 1290              	.LVL165:
 1291              	.L139:
 1292              		.loc 1 1058 0 discriminator 6
 1293 007c 7000EFE6 		uxtb	r0, r0
 1294 0080 7080BDE8 		pop	{r4, r5, r6, pc}
 1295              		.cfi_endproc
 1296              	.LFE19:
 1298              		.section	.text.R_SCIFA_ClearRXIFlags,"ax",%progbits
 1299              		.align	2
 1300              		.global	R_SCIFA_ClearRXIFlags
 1301              		.syntax unified
 1302              		.arm
 1303              		.fpu neon
 1305              	R_SCIFA_ClearRXIFlags:
 1306              	.LFB20:
1059:../generate/sc_drivers/r_scifa/src/lld/r_rza2_scifa_lld.c **** }
1060:../generate/sc_drivers/r_scifa/src/lld/r_rza2_scifa_lld.c **** /**************************************************************************************************
1061:../generate/sc_drivers/r_scifa/src/lld/r_rza2_scifa_lld.c ****  * End of Function R_SCIFA_GetRXIState
1062:../generate/sc_drivers/r_scifa/src/lld/r_rza2_scifa_lld.c ****  **************************************************************************************************
1063:../generate/sc_drivers/r_scifa/src/lld/r_rza2_scifa_lld.c **** 
1064:../generate/sc_drivers/r_scifa/src/lld/r_rza2_scifa_lld.c **** /**
1065:../generate/sc_drivers/r_scifa/src/lld/r_rza2_scifa_lld.c ****  * @brief R_SCIFA_ClearRXIFlags removes RXI flags on a channel
1066:../generate/sc_drivers/r_scifa/src/lld/r_rza2_scifa_lld.c ****  * This function is called at the end of an RXI handler routine
1067:../generate/sc_drivers/r_scifa/src/lld/r_rza2_scifa_lld.c ****  * it will clear necessary RXI flag to mark RXI as handled
1068:../generate/sc_drivers/r_scifa/src/lld/r_rza2_scifa_lld.c ****  *
1069:../generate/sc_drivers/r_scifa/src/lld/r_rza2_scifa_lld.c ****  * @param[in] channel: channel to clear RXI flags for
1070:../generate/sc_drivers/r_scifa/src/lld/r_rza2_scifa_lld.c ****  *
1071:../generate/sc_drivers/r_scifa/src/lld/r_rza2_scifa_lld.c ****  * @retval  0  DRV_SUCCESS
1072:../generate/sc_drivers/r_scifa/src/lld/r_rza2_scifa_lld.c ****  * @retval -1 DRV_ERROR
1073:../generate/sc_drivers/r_scifa/src/lld/r_rza2_scifa_lld.c ****  */
1074:../generate/sc_drivers/r_scifa/src/lld/r_rza2_scifa_lld.c **** int_t R_SCIFA_ClearRXIFlags (r_channel_t channel)
1075:../generate/sc_drivers/r_scifa/src/lld/r_rza2_scifa_lld.c **** {
 1307              		.loc 1 1075 0 is_stmt 1
 1308              		.cfi_startproc
 1309              		@ args = 0, pretend = 0, frame = 0
 1310              		@ frame_needed = 0, uses_anonymous_args = 0
 1311              	.LVL166:
1076:../generate/sc_drivers/r_scifa/src/lld/r_rza2_scifa_lld.c ****     uint16_t dummy;
1077:../generate/sc_drivers/r_scifa/src/lld/r_rza2_scifa_lld.c **** 
1078:../generate/sc_drivers/r_scifa/src/lld/r_rza2_scifa_lld.c ****     if ((channel > R_PRV_CFG_SCIF_LAST_CHANNEL) || (channel < 0))
 1312              		.loc 1 1078 0
 1313 0000 7030EFE6 		uxtb	r3, r0
 1314 0004 050053E3 		cmp	r3, #5
 1315 0008 1600008A 		bhi	.L150
1075:../generate/sc_drivers/r_scifa/src/lld/r_rza2_scifa_lld.c ****     uint16_t dummy;
 1316              		.loc 1 1075 0
 1317 000c 10402DE9 		push	{r4, lr}
 1318              		.cfi_def_cfa_offset 8
 1319              		.cfi_offset 4, -8
 1320              		.cfi_offset 14, -4
 1321 0010 0040A0E1 		mov	r4, r0
1079:../generate/sc_drivers/r_scifa/src/lld/r_rza2_scifa_lld.c ****     {
1080:../generate/sc_drivers/r_scifa/src/lld/r_rza2_scifa_lld.c ****         return (DRV_ERROR);
1081:../generate/sc_drivers/r_scifa/src/lld/r_rza2_scifa_lld.c ****     }
1082:../generate/sc_drivers/r_scifa/src/lld/r_rza2_scifa_lld.c **** 
1083:../generate/sc_drivers/r_scifa/src/lld/r_rza2_scifa_lld.c ****     /* Clear receive data ready */
1084:../generate/sc_drivers/r_scifa/src/lld/r_rza2_scifa_lld.c ****     dummy = RZA_IO_RegRead_16((volatile uint16_t *) &gsp_scifa[channel]->FSR.WORD, SCIFA_FSR_DR_SHI
 1322              		.loc 1 1084 0
 1323 0014 003000E3 		movw	r3, #:lower16:.LANCHOR0
 1324 0018 003040E3 		movt	r3, #:upper16:.LANCHOR0
 1325 001c 000193E7 		ldr	r0, [r3, r0, lsl #2]
 1326              	.LVL167:
 1327 0020 0120A0E3 		mov	r2, #1
 1328 0024 0010A0E3 		mov	r1, #0
 1329 0028 080080E2 		add	r0, r0, #8
 1330 002c FEFFFFEB 		bl	RZA_IO_RegRead_16
 1331              	.LVL168:
1085:../generate/sc_drivers/r_scifa/src/lld/r_rza2_scifa_lld.c **** 
1086:../generate/sc_drivers/r_scifa/src/lld/r_rza2_scifa_lld.c **** 
1087:../generate/sc_drivers/r_scifa/src/lld/r_rza2_scifa_lld.c ****     if (1 == dummy)
 1332              		.loc 1 1087 0
 1333 0030 010050E3 		cmp	r0, #1
 1334 0034 0100000A 		beq	.L156
1088:../generate/sc_drivers/r_scifa/src/lld/r_rza2_scifa_lld.c ****     {
1089:../generate/sc_drivers/r_scifa/src/lld/r_rza2_scifa_lld.c ****         /* Clear DR only if 1 read */
1090:../generate/sc_drivers/r_scifa/src/lld/r_rza2_scifa_lld.c ****         RZA_IO_RegWrite_16((volatile uint16_t *) &gsp_scifa[channel]->FSR.WORD, 0, SCIFA_FSR_DR_SHI
1091:../generate/sc_drivers/r_scifa/src/lld/r_rza2_scifa_lld.c ****     }
1092:../generate/sc_drivers/r_scifa/src/lld/r_rza2_scifa_lld.c **** 
1093:../generate/sc_drivers/r_scifa/src/lld/r_rza2_scifa_lld.c ****     return (DRV_SUCCESS);
 1335              		.loc 1 1093 0
 1336 0038 0000A0E3 		mov	r0, #0
 1337              	.LVL169:
1094:../generate/sc_drivers/r_scifa/src/lld/r_rza2_scifa_lld.c **** }
 1338              		.loc 1 1094 0
 1339 003c 1080BDE8 		pop	{r4, pc}
 1340              	.LVL170:
 1341              	.L156:
1090:../generate/sc_drivers/r_scifa/src/lld/r_rza2_scifa_lld.c ****     }
 1342              		.loc 1 1090 0
 1343 0040 003000E3 		movw	r3, #:lower16:.LANCHOR0
 1344 0044 003040E3 		movt	r3, #:upper16:.LANCHOR0
 1345 0048 040193E7 		ldr	r0, [r3, r4, lsl #2]
 1346              	.LVL171:
 1347 004c 0130A0E3 		mov	r3, #1
 1348 0050 0020A0E3 		mov	r2, #0
 1349 0054 0210A0E1 		mov	r1, r2
 1350 0058 080080E2 		add	r0, r0, #8
 1351 005c FEFFFFEB 		bl	RZA_IO_RegWrite_16
 1352              	.LVL172:
1093:../generate/sc_drivers/r_scifa/src/lld/r_rza2_scifa_lld.c **** }
 1353              		.loc 1 1093 0
 1354 0060 0000A0E3 		mov	r0, #0
 1355 0064 1080BDE8 		pop	{r4, pc}
 1356              	.LVL173:
 1357              	.L150:
 1358              		.cfi_def_cfa_offset 0
 1359              		.cfi_restore 4
 1360              		.cfi_restore 14
1080:../generate/sc_drivers/r_scifa/src/lld/r_rza2_scifa_lld.c ****     }
 1361              		.loc 1 1080 0
 1362 0068 0000E0E3 		mvn	r0, #0
 1363              	.LVL174:
 1364 006c 1EFF2FE1 		bx	lr
 1365              		.cfi_endproc
 1366              	.LFE20:
 1368              		.section	.text.R_SCIFA_IsRxFifoEmpty,"ax",%progbits
 1369              		.align	2
 1370              		.global	R_SCIFA_IsRxFifoEmpty
 1371              		.syntax unified
 1372              		.arm
 1373              		.fpu neon
 1375              	R_SCIFA_IsRxFifoEmpty:
 1376              	.LFB21:
1095:../generate/sc_drivers/r_scifa/src/lld/r_rza2_scifa_lld.c **** /**************************************************************************************************
1096:../generate/sc_drivers/r_scifa/src/lld/r_rza2_scifa_lld.c ****  * End of Function R_SCIFA_ClearRXIFlags
1097:../generate/sc_drivers/r_scifa/src/lld/r_rza2_scifa_lld.c ****  **************************************************************************************************
1098:../generate/sc_drivers/r_scifa/src/lld/r_rza2_scifa_lld.c **** 
1099:../generate/sc_drivers/r_scifa/src/lld/r_rza2_scifa_lld.c **** /**
1100:../generate/sc_drivers/r_scifa/src/lld/r_rza2_scifa_lld.c ****  * @brief R_SCIFA_IsRxFifoEmpty checks if the RX FIFO is empty
1101:../generate/sc_drivers/r_scifa/src/lld/r_rza2_scifa_lld.c ****  * This function checks the current amount of bytes in the RX FIFO
1102:../generate/sc_drivers/r_scifa/src/lld/r_rza2_scifa_lld.c ****  * it will then return false if data is in the FIFO, or true if it's empty
1103:../generate/sc_drivers/r_scifa/src/lld/r_rza2_scifa_lld.c ****  *
1104:../generate/sc_drivers/r_scifa/src/lld/r_rza2_scifa_lld.c ****  * @param[in] channel: channel to check FIFO
1105:../generate/sc_drivers/r_scifa/src/lld/r_rza2_scifa_lld.c ****  * @param[out] p_fifo_empty: false if data in the FIFO, true if it's empty
1106:../generate/sc_drivers/r_scifa/src/lld/r_rza2_scifa_lld.c ****  *
1107:../generate/sc_drivers/r_scifa/src/lld/r_rza2_scifa_lld.c ****  * @retval  0 DRV_SUCCESS
1108:../generate/sc_drivers/r_scifa/src/lld/r_rza2_scifa_lld.c ****  * @retval -1 DRV_ERROR
1109:../generate/sc_drivers/r_scifa/src/lld/r_rza2_scifa_lld.c ****  */
1110:../generate/sc_drivers/r_scifa/src/lld/r_rza2_scifa_lld.c **** int_t R_SCIFA_IsRxFifoEmpty(r_channel_t channel, bool_t *p_fifo_empty)
1111:../generate/sc_drivers/r_scifa/src/lld/r_rza2_scifa_lld.c **** {
 1377              		.loc 1 1111 0
 1378              		.cfi_startproc
 1379              		@ args = 0, pretend = 0, frame = 0
 1380              		@ frame_needed = 0, uses_anonymous_args = 0
 1381              	.LVL175:
1112:../generate/sc_drivers/r_scifa/src/lld/r_rza2_scifa_lld.c ****     uint16_t fifo_bytes;
1113:../generate/sc_drivers/r_scifa/src/lld/r_rza2_scifa_lld.c **** 
1114:../generate/sc_drivers/r_scifa/src/lld/r_rza2_scifa_lld.c ****     if ((channel > R_PRV_CFG_SCIF_LAST_CHANNEL) || (channel < 0))
 1382              		.loc 1 1114 0
 1383 0000 7030EFE6 		uxtb	r3, r0
 1384 0004 050053E3 		cmp	r3, #5
 1385 0008 1000008A 		bhi	.L160
1111:../generate/sc_drivers/r_scifa/src/lld/r_rza2_scifa_lld.c ****     uint16_t fifo_bytes;
 1386              		.loc 1 1111 0
 1387 000c 10402DE9 		push	{r4, lr}
 1388              		.cfi_def_cfa_offset 8
 1389              		.cfi_offset 4, -8
 1390              		.cfi_offset 14, -4
 1391 0010 0140A0E1 		mov	r4, r1
1115:../generate/sc_drivers/r_scifa/src/lld/r_rza2_scifa_lld.c ****     {
1116:../generate/sc_drivers/r_scifa/src/lld/r_rza2_scifa_lld.c ****         return (DRV_ERROR);
1117:../generate/sc_drivers/r_scifa/src/lld/r_rza2_scifa_lld.c ****     }
1118:../generate/sc_drivers/r_scifa/src/lld/r_rza2_scifa_lld.c **** 
1119:../generate/sc_drivers/r_scifa/src/lld/r_rza2_scifa_lld.c ****     /* get the number of bytes in the FIFO */
1120:../generate/sc_drivers/r_scifa/src/lld/r_rza2_scifa_lld.c ****     fifo_bytes = RZA_IO_RegRead_16((volatile uint16_t *) &gsp_scifa[channel]->FDR.WORD, SCIFA_FDR_R
 1392              		.loc 1 1120 0
 1393 0014 003000E3 		movw	r3, #:lower16:.LANCHOR0
 1394 0018 003040E3 		movt	r3, #:upper16:.LANCHOR0
 1395 001c 000193E7 		ldr	r0, [r3, r0, lsl #2]
 1396              	.LVL176:
 1397 0020 1F20A0E3 		mov	r2, #31
 1398 0024 0010A0E3 		mov	r1, #0
 1399              	.LVL177:
 1400 0028 0E0080E2 		add	r0, r0, #14
 1401 002c FEFFFFEB 		bl	RZA_IO_RegRead_16
 1402              	.LVL178:
1121:../generate/sc_drivers/r_scifa/src/lld/r_rza2_scifa_lld.c **** 
1122:../generate/sc_drivers/r_scifa/src/lld/r_rza2_scifa_lld.c ****     if (R_PRV_RX_FIFO_EMPTY == fifo_bytes)
 1403              		.loc 1 1122 0
 1404 0030 000050E3 		cmp	r0, #0
 1405 0034 0200000A 		beq	.L165
1123:../generate/sc_drivers/r_scifa/src/lld/r_rza2_scifa_lld.c ****     {
1124:../generate/sc_drivers/r_scifa/src/lld/r_rza2_scifa_lld.c ****         *p_fifo_empty = true;
1125:../generate/sc_drivers/r_scifa/src/lld/r_rza2_scifa_lld.c ****     }
1126:../generate/sc_drivers/r_scifa/src/lld/r_rza2_scifa_lld.c ****     else
1127:../generate/sc_drivers/r_scifa/src/lld/r_rza2_scifa_lld.c ****     {
1128:../generate/sc_drivers/r_scifa/src/lld/r_rza2_scifa_lld.c ****         *p_fifo_empty = false;
 1406              		.loc 1 1128 0
 1407 0038 0000A0E3 		mov	r0, #0
 1408              	.LVL179:
 1409 003c 000084E5 		str	r0, [r4]
 1410 0040 1080BDE8 		pop	{r4, pc}
 1411              	.LVL180:
 1412              	.L165:
1124:../generate/sc_drivers/r_scifa/src/lld/r_rza2_scifa_lld.c ****     }
 1413              		.loc 1 1124 0
 1414 0044 0130A0E3 		mov	r3, #1
 1415 0048 003084E5 		str	r3, [r4]
 1416 004c 1080BDE8 		pop	{r4, pc}
 1417              	.LVL181:
 1418              	.L160:
 1419              		.cfi_def_cfa_offset 0
 1420              		.cfi_restore 4
 1421              		.cfi_restore 14
1116:../generate/sc_drivers/r_scifa/src/lld/r_rza2_scifa_lld.c ****     }
 1422              		.loc 1 1116 0
 1423 0050 0000E0E3 		mvn	r0, #0
 1424              	.LVL182:
 1425 0054 1EFF2FE1 		bx	lr
 1426              		.cfi_endproc
 1427              	.LFE21:
 1429              		.section	.text.R_SCIFA_StopTXI,"ax",%progbits
 1430              		.align	2
 1431              		.global	R_SCIFA_StopTXI
 1432              		.syntax unified
 1433              		.arm
 1434              		.fpu neon
 1436              	R_SCIFA_StopTXI:
 1437              	.LFB22:
1129:../generate/sc_drivers/r_scifa/src/lld/r_rza2_scifa_lld.c ****     }
1130:../generate/sc_drivers/r_scifa/src/lld/r_rza2_scifa_lld.c **** 
1131:../generate/sc_drivers/r_scifa/src/lld/r_rza2_scifa_lld.c ****     return (DRV_SUCCESS);
1132:../generate/sc_drivers/r_scifa/src/lld/r_rza2_scifa_lld.c **** }
1133:../generate/sc_drivers/r_scifa/src/lld/r_rza2_scifa_lld.c **** /**************************************************************************************************
1134:../generate/sc_drivers/r_scifa/src/lld/r_rza2_scifa_lld.c ****  * End of Function R_SCIFA_IsRxFifoEmpty
1135:../generate/sc_drivers/r_scifa/src/lld/r_rza2_scifa_lld.c ****  **************************************************************************************************
1136:../generate/sc_drivers/r_scifa/src/lld/r_rza2_scifa_lld.c **** 
1137:../generate/sc_drivers/r_scifa/src/lld/r_rza2_scifa_lld.c **** /**
1138:../generate/sc_drivers/r_scifa/src/lld/r_rza2_scifa_lld.c ****  * @brief R_SCIFA_StopTXI stops TXI for a given channel
1139:../generate/sc_drivers/r_scifa/src/lld/r_rza2_scifa_lld.c ****  *
1140:../generate/sc_drivers/r_scifa/src/lld/r_rza2_scifa_lld.c ****  * @param[in] channel: channel to disable TXI for
1141:../generate/sc_drivers/r_scifa/src/lld/r_rza2_scifa_lld.c ****  *
1142:../generate/sc_drivers/r_scifa/src/lld/r_rza2_scifa_lld.c ****  * @retval  0 DRV_SUCCESS
1143:../generate/sc_drivers/r_scifa/src/lld/r_rza2_scifa_lld.c ****  * @retval -1 DRV_ERROR
1144:../generate/sc_drivers/r_scifa/src/lld/r_rza2_scifa_lld.c ****  */
1145:../generate/sc_drivers/r_scifa/src/lld/r_rza2_scifa_lld.c **** int_t R_SCIFA_StopTXI (r_channel_t channel)
1146:../generate/sc_drivers/r_scifa/src/lld/r_rza2_scifa_lld.c **** {
 1438              		.loc 1 1146 0
 1439              		.cfi_startproc
 1440              		@ args = 0, pretend = 0, frame = 0
 1441              		@ frame_needed = 0, uses_anonymous_args = 0
 1442              	.LVL183:
1147:../generate/sc_drivers/r_scifa/src/lld/r_rza2_scifa_lld.c ****     if ((channel > R_PRV_CFG_SCIF_LAST_CHANNEL) || (channel < 0))
 1443              		.loc 1 1147 0
 1444 0000 7030EFE6 		uxtb	r3, r0
 1445 0004 050053E3 		cmp	r3, #5
 1446 0008 1000008A 		bhi	.L168
1146:../generate/sc_drivers/r_scifa/src/lld/r_rza2_scifa_lld.c ****     if ((channel > R_PRV_CFG_SCIF_LAST_CHANNEL) || (channel < 0))
 1447              		.loc 1 1146 0
 1448 000c 10402DE9 		push	{r4, lr}
 1449              		.cfi_def_cfa_offset 8
 1450              		.cfi_offset 4, -8
 1451              		.cfi_offset 14, -4
1148:../generate/sc_drivers/r_scifa/src/lld/r_rza2_scifa_lld.c ****     {
1149:../generate/sc_drivers/r_scifa/src/lld/r_rza2_scifa_lld.c ****         return (DRV_ERROR);
1150:../generate/sc_drivers/r_scifa/src/lld/r_rza2_scifa_lld.c ****     }
1151:../generate/sc_drivers/r_scifa/src/lld/r_rza2_scifa_lld.c **** 
1152:../generate/sc_drivers/r_scifa/src/lld/r_rza2_scifa_lld.c ****     /* disable transmit interrupt enable */
1153:../generate/sc_drivers/r_scifa/src/lld/r_rza2_scifa_lld.c ****     RZA_IO_RegWrite_16((volatile uint16_t *) &gsp_scifa[channel]->SCR.WORD, 0, SCIFA_SCR_TIE_SHIFT,
 1452              		.loc 1 1153 0
 1453 0010 003000E3 		movw	r3, #:lower16:.LANCHOR0
 1454 0014 003040E3 		movt	r3, #:upper16:.LANCHOR0
 1455 0018 004193E7 		ldr	r4, [r3, r0, lsl #2]
 1456 001c 044084E2 		add	r4, r4, #4
 1457 0020 8030A0E3 		mov	r3, #128
 1458 0024 0720A0E3 		mov	r2, #7
 1459 0028 0010A0E3 		mov	r1, #0
 1460 002c 0400A0E1 		mov	r0, r4
 1461              	.LVL184:
 1462 0030 FEFFFFEB 		bl	RZA_IO_RegWrite_16
 1463              	.LVL185:
1154:../generate/sc_drivers/r_scifa/src/lld/r_rza2_scifa_lld.c **** 
1155:../generate/sc_drivers/r_scifa/src/lld/r_rza2_scifa_lld.c ****     /* disable transmit end interrupt enable */
1156:../generate/sc_drivers/r_scifa/src/lld/r_rza2_scifa_lld.c ****     RZA_IO_RegWrite_16((volatile uint16_t *) &gsp_scifa[channel]->SCR.WORD, 0, SCIFA_SCR_TEIE_SHIFT
 1464              		.loc 1 1156 0
 1465 0034 0430A0E3 		mov	r3, #4
 1466 0038 0220A0E3 		mov	r2, #2
 1467 003c 0010A0E3 		mov	r1, #0
 1468 0040 0400A0E1 		mov	r0, r4
 1469 0044 FEFFFFEB 		bl	RZA_IO_RegWrite_16
 1470              	.LVL186:
1157:../generate/sc_drivers/r_scifa/src/lld/r_rza2_scifa_lld.c **** 
1158:../generate/sc_drivers/r_scifa/src/lld/r_rza2_scifa_lld.c ****     return (DRV_SUCCESS);
 1471              		.loc 1 1158 0
 1472 0048 0000A0E3 		mov	r0, #0
 1473 004c 1080BDE8 		pop	{r4, pc}
 1474              	.LVL187:
 1475              	.L168:
 1476              		.cfi_def_cfa_offset 0
 1477              		.cfi_restore 4
 1478              		.cfi_restore 14
1149:../generate/sc_drivers/r_scifa/src/lld/r_rza2_scifa_lld.c ****     }
 1479              		.loc 1 1149 0
 1480 0050 0000E0E3 		mvn	r0, #0
 1481              	.LVL188:
 1482 0054 1EFF2FE1 		bx	lr
 1483              		.cfi_endproc
 1484              	.LFE22:
 1486              		.section	.text.R_SCIFA_StartRX,"ax",%progbits
 1487              		.align	2
 1488              		.global	R_SCIFA_StartRX
 1489              		.syntax unified
 1490              		.arm
 1491              		.fpu neon
 1493              	R_SCIFA_StartRX:
 1494              	.LFB23:
1159:../generate/sc_drivers/r_scifa/src/lld/r_rza2_scifa_lld.c **** }
1160:../generate/sc_drivers/r_scifa/src/lld/r_rza2_scifa_lld.c **** /**************************************************************************************************
1161:../generate/sc_drivers/r_scifa/src/lld/r_rza2_scifa_lld.c ****  * End of Function R_SCIFA_StopTXI
1162:../generate/sc_drivers/r_scifa/src/lld/r_rza2_scifa_lld.c ****  **************************************************************************************************
1163:../generate/sc_drivers/r_scifa/src/lld/r_rza2_scifa_lld.c **** 
1164:../generate/sc_drivers/r_scifa/src/lld/r_rza2_scifa_lld.c **** /**
1165:../generate/sc_drivers/r_scifa/src/lld/r_rza2_scifa_lld.c ****  * @brief R_SCIFA_StartRX enable receive and receive interrupts
1166:../generate/sc_drivers/r_scifa/src/lld/r_rza2_scifa_lld.c ****  *
1167:../generate/sc_drivers/r_scifa/src/lld/r_rza2_scifa_lld.c ****  * @param[in] channel to start receive
1168:../generate/sc_drivers/r_scifa/src/lld/r_rza2_scifa_lld.c ****  *
1169:../generate/sc_drivers/r_scifa/src/lld/r_rza2_scifa_lld.c ****  * @retval  0 DRV_SUCCESS
1170:../generate/sc_drivers/r_scifa/src/lld/r_rza2_scifa_lld.c ****  * @retval -1 DRV_ERROR
1171:../generate/sc_drivers/r_scifa/src/lld/r_rza2_scifa_lld.c ****  */
1172:../generate/sc_drivers/r_scifa/src/lld/r_rza2_scifa_lld.c **** int_t R_SCIFA_StartRX (r_channel_t channel)
1173:../generate/sc_drivers/r_scifa/src/lld/r_rza2_scifa_lld.c **** {
 1495              		.loc 1 1173 0
 1496              		.cfi_startproc
 1497              		@ args = 0, pretend = 0, frame = 0
 1498              		@ frame_needed = 0, uses_anonymous_args = 0
 1499              	.LVL189:
1174:../generate/sc_drivers/r_scifa/src/lld/r_rza2_scifa_lld.c ****     if ((channel > R_PRV_CFG_SCIF_LAST_CHANNEL) || (channel < 0))
 1500              		.loc 1 1174 0
 1501 0000 7030EFE6 		uxtb	r3, r0
 1502 0004 050053E3 		cmp	r3, #5
 1503 0008 1000008A 		bhi	.L175
1173:../generate/sc_drivers/r_scifa/src/lld/r_rza2_scifa_lld.c ****     if ((channel > R_PRV_CFG_SCIF_LAST_CHANNEL) || (channel < 0))
 1504              		.loc 1 1173 0
 1505 000c 10402DE9 		push	{r4, lr}
 1506              		.cfi_def_cfa_offset 8
 1507              		.cfi_offset 4, -8
 1508              		.cfi_offset 14, -4
1175:../generate/sc_drivers/r_scifa/src/lld/r_rza2_scifa_lld.c ****     {
1176:../generate/sc_drivers/r_scifa/src/lld/r_rza2_scifa_lld.c ****         return (DRV_ERROR);
1177:../generate/sc_drivers/r_scifa/src/lld/r_rza2_scifa_lld.c ****     }
1178:../generate/sc_drivers/r_scifa/src/lld/r_rza2_scifa_lld.c **** 
1179:../generate/sc_drivers/r_scifa/src/lld/r_rza2_scifa_lld.c ****     /* receive enable */
1180:../generate/sc_drivers/r_scifa/src/lld/r_rza2_scifa_lld.c ****     RZA_IO_RegWrite_16((volatile uint16_t *) &gsp_scifa[channel]->SCR.WORD, 1, SCIFA_SCR_RE_SHIFT, 
 1509              		.loc 1 1180 0
 1510 0010 003000E3 		movw	r3, #:lower16:.LANCHOR0
 1511 0014 003040E3 		movt	r3, #:upper16:.LANCHOR0
 1512 0018 004193E7 		ldr	r4, [r3, r0, lsl #2]
 1513 001c 044084E2 		add	r4, r4, #4
 1514 0020 1030A0E3 		mov	r3, #16
 1515 0024 0420A0E3 		mov	r2, #4
 1516 0028 0110A0E3 		mov	r1, #1
 1517 002c 0400A0E1 		mov	r0, r4
 1518              	.LVL190:
 1519 0030 FEFFFFEB 		bl	RZA_IO_RegWrite_16
 1520              	.LVL191:
1181:../generate/sc_drivers/r_scifa/src/lld/r_rza2_scifa_lld.c **** 
1182:../generate/sc_drivers/r_scifa/src/lld/r_rza2_scifa_lld.c ****     /* enable interrupts to trigger DMA */
1183:../generate/sc_drivers/r_scifa/src/lld/r_rza2_scifa_lld.c ****     RZA_IO_RegWrite_16((volatile uint16_t *) &gsp_scifa[channel]->SCR.WORD, 1, SCIFA_SCR_RIE_SHIFT,
 1521              		.loc 1 1183 0
 1522 0034 4030A0E3 		mov	r3, #64
 1523 0038 0620A0E3 		mov	r2, #6
 1524 003c 0110A0E3 		mov	r1, #1
 1525 0040 0400A0E1 		mov	r0, r4
 1526 0044 FEFFFFEB 		bl	RZA_IO_RegWrite_16
 1527              	.LVL192:
1184:../generate/sc_drivers/r_scifa/src/lld/r_rza2_scifa_lld.c **** 
1185:../generate/sc_drivers/r_scifa/src/lld/r_rza2_scifa_lld.c ****     return (DRV_SUCCESS);
 1528              		.loc 1 1185 0
 1529 0048 0000A0E3 		mov	r0, #0
 1530 004c 1080BDE8 		pop	{r4, pc}
 1531              	.LVL193:
 1532              	.L175:
 1533              		.cfi_def_cfa_offset 0
 1534              		.cfi_restore 4
 1535              		.cfi_restore 14
1176:../generate/sc_drivers/r_scifa/src/lld/r_rza2_scifa_lld.c ****     }
 1536              		.loc 1 1176 0
 1537 0050 0000E0E3 		mvn	r0, #0
 1538              	.LVL194:
 1539 0054 1EFF2FE1 		bx	lr
 1540              		.cfi_endproc
 1541              	.LFE23:
 1543              		.section	.text.R_SCIFA_StopRX,"ax",%progbits
 1544              		.align	2
 1545              		.global	R_SCIFA_StopRX
 1546              		.syntax unified
 1547              		.arm
 1548              		.fpu neon
 1550              	R_SCIFA_StopRX:
 1551              	.LFB24:
1186:../generate/sc_drivers/r_scifa/src/lld/r_rza2_scifa_lld.c **** }
1187:../generate/sc_drivers/r_scifa/src/lld/r_rza2_scifa_lld.c **** /**************************************************************************************************
1188:../generate/sc_drivers/r_scifa/src/lld/r_rza2_scifa_lld.c ****  * End of Function R_SCIFA_StartRX
1189:../generate/sc_drivers/r_scifa/src/lld/r_rza2_scifa_lld.c ****  **************************************************************************************************
1190:../generate/sc_drivers/r_scifa/src/lld/r_rza2_scifa_lld.c **** 
1191:../generate/sc_drivers/r_scifa/src/lld/r_rza2_scifa_lld.c **** /**
1192:../generate/sc_drivers/r_scifa/src/lld/r_rza2_scifa_lld.c ****  * @brief R_SCIFA_StopRX disable receive
1193:../generate/sc_drivers/r_scifa/src/lld/r_rza2_scifa_lld.c ****  *
1194:../generate/sc_drivers/r_scifa/src/lld/r_rza2_scifa_lld.c ****  * @param[in] channel to stop receive
1195:../generate/sc_drivers/r_scifa/src/lld/r_rza2_scifa_lld.c ****  *
1196:../generate/sc_drivers/r_scifa/src/lld/r_rza2_scifa_lld.c ****  * @retval  0 DRV_SUCCESS
1197:../generate/sc_drivers/r_scifa/src/lld/r_rza2_scifa_lld.c ****  * @retval -1 DRV_ERROR
1198:../generate/sc_drivers/r_scifa/src/lld/r_rza2_scifa_lld.c ****  */
1199:../generate/sc_drivers/r_scifa/src/lld/r_rza2_scifa_lld.c **** int_t R_SCIFA_StopRX (r_channel_t channel)
1200:../generate/sc_drivers/r_scifa/src/lld/r_rza2_scifa_lld.c **** {
 1552              		.loc 1 1200 0
 1553              		.cfi_startproc
 1554              		@ args = 0, pretend = 0, frame = 0
 1555              		@ frame_needed = 0, uses_anonymous_args = 0
 1556              	.LVL195:
1201:../generate/sc_drivers/r_scifa/src/lld/r_rza2_scifa_lld.c ****     if ((channel > R_PRV_CFG_SCIF_LAST_CHANNEL) || (channel < 0))
 1557              		.loc 1 1201 0
 1558 0000 7030EFE6 		uxtb	r3, r0
 1559 0004 050053E3 		cmp	r3, #5
 1560 0008 0A00008A 		bhi	.L182
1200:../generate/sc_drivers/r_scifa/src/lld/r_rza2_scifa_lld.c ****     if ((channel > R_PRV_CFG_SCIF_LAST_CHANNEL) || (channel < 0))
 1561              		.loc 1 1200 0
 1562 000c 10402DE9 		push	{r4, lr}
 1563              		.cfi_def_cfa_offset 8
 1564              		.cfi_offset 4, -8
 1565              		.cfi_offset 14, -4
1202:../generate/sc_drivers/r_scifa/src/lld/r_rza2_scifa_lld.c ****     {
1203:../generate/sc_drivers/r_scifa/src/lld/r_rza2_scifa_lld.c ****         return (DRV_ERROR);
1204:../generate/sc_drivers/r_scifa/src/lld/r_rza2_scifa_lld.c ****     }
1205:../generate/sc_drivers/r_scifa/src/lld/r_rza2_scifa_lld.c **** 
1206:../generate/sc_drivers/r_scifa/src/lld/r_rza2_scifa_lld.c ****     RZA_IO_RegWrite_16((volatile uint16_t *) &gsp_scifa[channel]->SCR.WORD, 0, SCIFA_SCR_RE_SHIFT, 
 1566              		.loc 1 1206 0
 1567 0010 003000E3 		movw	r3, #:lower16:.LANCHOR0
 1568 0014 003040E3 		movt	r3, #:upper16:.LANCHOR0
 1569 0018 000193E7 		ldr	r0, [r3, r0, lsl #2]
 1570              	.LVL196:
 1571 001c 1030A0E3 		mov	r3, #16
 1572 0020 0420A0E3 		mov	r2, #4
 1573 0024 0010A0E3 		mov	r1, #0
 1574 0028 020080E0 		add	r0, r0, r2
 1575 002c FEFFFFEB 		bl	RZA_IO_RegWrite_16
 1576              	.LVL197:
1207:../generate/sc_drivers/r_scifa/src/lld/r_rza2_scifa_lld.c **** 
1208:../generate/sc_drivers/r_scifa/src/lld/r_rza2_scifa_lld.c ****     return (DRV_SUCCESS);
 1577              		.loc 1 1208 0
 1578 0030 0000A0E3 		mov	r0, #0
 1579 0034 1080BDE8 		pop	{r4, pc}
 1580              	.LVL198:
 1581              	.L182:
 1582              		.cfi_def_cfa_offset 0
 1583              		.cfi_restore 4
 1584              		.cfi_restore 14
1203:../generate/sc_drivers/r_scifa/src/lld/r_rza2_scifa_lld.c ****     }
 1585              		.loc 1 1203 0
 1586 0038 0000E0E3 		mvn	r0, #0
 1587              	.LVL199:
 1588 003c 1EFF2FE1 		bx	lr
 1589              		.cfi_endproc
 1590              	.LFE24:
 1592              		.section	.text.R_SCIFA_GetReadDataRegisterAddress,"ax",%progbits
 1593              		.align	2
 1594              		.global	R_SCIFA_GetReadDataRegisterAddress
 1595              		.syntax unified
 1596              		.arm
 1597              		.fpu neon
 1599              	R_SCIFA_GetReadDataRegisterAddress:
 1600              	.LFB25:
1209:../generate/sc_drivers/r_scifa/src/lld/r_rza2_scifa_lld.c **** }
1210:../generate/sc_drivers/r_scifa/src/lld/r_rza2_scifa_lld.c **** /**************************************************************************************************
1211:../generate/sc_drivers/r_scifa/src/lld/r_rza2_scifa_lld.c ****  * End of Function R_SCIFA_StopRX
1212:../generate/sc_drivers/r_scifa/src/lld/r_rza2_scifa_lld.c ****  **************************************************************************************************
1213:../generate/sc_drivers/r_scifa/src/lld/r_rza2_scifa_lld.c **** 
1214:../generate/sc_drivers/r_scifa/src/lld/r_rza2_scifa_lld.c **** /**
1215:../generate/sc_drivers/r_scifa/src/lld/r_rza2_scifa_lld.c ****  * @brief R_SCIFA_GetReadDataRegisterAddress return the read data register address
1216:../generate/sc_drivers/r_scifa/src/lld/r_rza2_scifa_lld.c ****  *
1217:../generate/sc_drivers/r_scifa/src/lld/r_rza2_scifa_lld.c ****  * @param[in] channel to get the FRDR register address for
1218:../generate/sc_drivers/r_scifa/src/lld/r_rza2_scifa_lld.c ****  *
1219:../generate/sc_drivers/r_scifa/src/lld/r_rza2_scifa_lld.c ****  * @retval the address of the FRDR register
1220:../generate/sc_drivers/r_scifa/src/lld/r_rza2_scifa_lld.c ****  * @retval NULL error
1221:../generate/sc_drivers/r_scifa/src/lld/r_rza2_scifa_lld.c ****  */
1222:../generate/sc_drivers/r_scifa/src/lld/r_rza2_scifa_lld.c **** void * R_SCIFA_GetReadDataRegisterAddress (r_channel_t channel)
1223:../generate/sc_drivers/r_scifa/src/lld/r_rza2_scifa_lld.c **** {
 1601              		.loc 1 1223 0
 1602              		.cfi_startproc
 1603              		@ args = 0, pretend = 0, frame = 0
 1604              		@ frame_needed = 0, uses_anonymous_args = 0
 1605              		@ link register save eliminated.
 1606              	.LVL200:
1224:../generate/sc_drivers/r_scifa/src/lld/r_rza2_scifa_lld.c ****     if ((channel > R_PRV_CFG_SCIF_LAST_CHANNEL) || (channel < 0))
 1607              		.loc 1 1224 0
 1608 0000 7030EFE6 		uxtb	r3, r0
 1609 0004 050053E3 		cmp	r3, #5
 1610 0008 0400008A 		bhi	.L189
1225:../generate/sc_drivers/r_scifa/src/lld/r_rza2_scifa_lld.c ****     {
1226:../generate/sc_drivers/r_scifa/src/lld/r_rza2_scifa_lld.c ****         return (NULL);
1227:../generate/sc_drivers/r_scifa/src/lld/r_rza2_scifa_lld.c ****     }
1228:../generate/sc_drivers/r_scifa/src/lld/r_rza2_scifa_lld.c **** 
1229:../generate/sc_drivers/r_scifa/src/lld/r_rza2_scifa_lld.c ****     return (void *) &gsp_scifa[channel]->FRDR.BYTE;
 1611              		.loc 1 1229 0
 1612 000c 003000E3 		movw	r3, #:lower16:.LANCHOR0
 1613 0010 003040E3 		movt	r3, #:upper16:.LANCHOR0
 1614 0014 000193E7 		ldr	r0, [r3, r0, lsl #2]
 1615              	.LVL201:
 1616 0018 0A0080E2 		add	r0, r0, #10
 1617 001c 1EFF2FE1 		bx	lr
 1618              	.LVL202:
 1619              	.L189:
1226:../generate/sc_drivers/r_scifa/src/lld/r_rza2_scifa_lld.c ****     }
 1620              		.loc 1 1226 0
 1621 0020 0000A0E3 		mov	r0, #0
 1622              	.LVL203:
1230:../generate/sc_drivers/r_scifa/src/lld/r_rza2_scifa_lld.c **** }
 1623              		.loc 1 1230 0
 1624 0024 1EFF2FE1 		bx	lr
 1625              		.cfi_endproc
 1626              	.LFE25:
 1628              		.section	.text.R_SCIFA_StartTX,"ax",%progbits
 1629              		.align	2
 1630              		.global	R_SCIFA_StartTX
 1631              		.syntax unified
 1632              		.arm
 1633              		.fpu neon
 1635              	R_SCIFA_StartTX:
 1636              	.LFB26:
1231:../generate/sc_drivers/r_scifa/src/lld/r_rza2_scifa_lld.c **** /**************************************************************************************************
1232:../generate/sc_drivers/r_scifa/src/lld/r_rza2_scifa_lld.c ****  * End of Function R_SCIFA_GetReadDataRegisterAddress
1233:../generate/sc_drivers/r_scifa/src/lld/r_rza2_scifa_lld.c ****  **************************************************************************************************
1234:../generate/sc_drivers/r_scifa/src/lld/r_rza2_scifa_lld.c **** 
1235:../generate/sc_drivers/r_scifa/src/lld/r_rza2_scifa_lld.c **** /**
1236:../generate/sc_drivers/r_scifa/src/lld/r_rza2_scifa_lld.c ****  * @brief R_SCIFA_StartTX enable transmit and transmit interrupts
1237:../generate/sc_drivers/r_scifa/src/lld/r_rza2_scifa_lld.c ****  *
1238:../generate/sc_drivers/r_scifa/src/lld/r_rza2_scifa_lld.c ****  * @param[in] channel to start transmit
1239:../generate/sc_drivers/r_scifa/src/lld/r_rza2_scifa_lld.c ****  *
1240:../generate/sc_drivers/r_scifa/src/lld/r_rza2_scifa_lld.c ****  * @retval  0 DRV_SUCCESS
1241:../generate/sc_drivers/r_scifa/src/lld/r_rza2_scifa_lld.c ****  * @retval -1 DRV_ERROR
1242:../generate/sc_drivers/r_scifa/src/lld/r_rza2_scifa_lld.c ****  */
1243:../generate/sc_drivers/r_scifa/src/lld/r_rza2_scifa_lld.c **** int_t R_SCIFA_StartTX (r_channel_t channel)
1244:../generate/sc_drivers/r_scifa/src/lld/r_rza2_scifa_lld.c **** {
 1637              		.loc 1 1244 0
 1638              		.cfi_startproc
 1639              		@ args = 0, pretend = 0, frame = 0
 1640              		@ frame_needed = 0, uses_anonymous_args = 0
 1641              	.LVL204:
1245:../generate/sc_drivers/r_scifa/src/lld/r_rza2_scifa_lld.c ****     if ((channel > R_PRV_CFG_SCIF_LAST_CHANNEL) || (channel < 0))
 1642              		.loc 1 1245 0
 1643 0000 7030EFE6 		uxtb	r3, r0
 1644 0004 050053E3 		cmp	r3, #5
 1645 0008 1500008A 		bhi	.L192
1244:../generate/sc_drivers/r_scifa/src/lld/r_rza2_scifa_lld.c ****     if ((channel > R_PRV_CFG_SCIF_LAST_CHANNEL) || (channel < 0))
 1646              		.loc 1 1244 0
 1647 000c 10402DE9 		push	{r4, lr}
 1648              		.cfi_def_cfa_offset 8
 1649              		.cfi_offset 4, -8
 1650              		.cfi_offset 14, -4
1246:../generate/sc_drivers/r_scifa/src/lld/r_rza2_scifa_lld.c ****     {
1247:../generate/sc_drivers/r_scifa/src/lld/r_rza2_scifa_lld.c ****         return (DRV_ERROR);
1248:../generate/sc_drivers/r_scifa/src/lld/r_rza2_scifa_lld.c ****     }
1249:../generate/sc_drivers/r_scifa/src/lld/r_rza2_scifa_lld.c **** 
1250:../generate/sc_drivers/r_scifa/src/lld/r_rza2_scifa_lld.c ****     RZA_IO_RegWrite_16((volatile uint16_t *) &gsp_scifa[channel]->SCR.WORD, 1, SCIFA_SCR_TE_SHIFT, 
 1651              		.loc 1 1250 0
 1652 0010 003000E3 		movw	r3, #:lower16:.LANCHOR0
 1653 0014 003040E3 		movt	r3, #:upper16:.LANCHOR0
 1654 0018 004193E7 		ldr	r4, [r3, r0, lsl #2]
 1655 001c 044084E2 		add	r4, r4, #4
 1656 0020 2030A0E3 		mov	r3, #32
 1657 0024 0520A0E3 		mov	r2, #5
 1658 0028 0110A0E3 		mov	r1, #1
 1659 002c 0400A0E1 		mov	r0, r4
 1660              	.LVL205:
 1661 0030 FEFFFFEB 		bl	RZA_IO_RegWrite_16
 1662              	.LVL206:
1251:../generate/sc_drivers/r_scifa/src/lld/r_rza2_scifa_lld.c **** 
1252:../generate/sc_drivers/r_scifa/src/lld/r_rza2_scifa_lld.c ****     /* enable interrupts to trigger DMA */
1253:../generate/sc_drivers/r_scifa/src/lld/r_rza2_scifa_lld.c ****     RZA_IO_RegWrite_16((volatile uint16_t *) &gsp_scifa[channel]->SCR.WORD, 1, SCIFA_SCR_TIE_SHIFT,
 1663              		.loc 1 1253 0
 1664 0034 8030A0E3 		mov	r3, #128
 1665 0038 0720A0E3 		mov	r2, #7
 1666 003c 0110A0E3 		mov	r1, #1
 1667 0040 0400A0E1 		mov	r0, r4
 1668 0044 FEFFFFEB 		bl	RZA_IO_RegWrite_16
 1669              	.LVL207:
1254:../generate/sc_drivers/r_scifa/src/lld/r_rza2_scifa_lld.c **** 
1255:../generate/sc_drivers/r_scifa/src/lld/r_rza2_scifa_lld.c ****     /* enable transmit end interrupt */
1256:../generate/sc_drivers/r_scifa/src/lld/r_rza2_scifa_lld.c ****     RZA_IO_RegWrite_16((volatile uint16_t *) &gsp_scifa[channel]->SCR.WORD, 1, SCIFA_SCR_TEIE_SHIFT
 1670              		.loc 1 1256 0
 1671 0048 0430A0E3 		mov	r3, #4
 1672 004c 0220A0E3 		mov	r2, #2
 1673 0050 0110A0E3 		mov	r1, #1
 1674 0054 0400A0E1 		mov	r0, r4
 1675 0058 FEFFFFEB 		bl	RZA_IO_RegWrite_16
 1676              	.LVL208:
1257:../generate/sc_drivers/r_scifa/src/lld/r_rza2_scifa_lld.c **** 
1258:../generate/sc_drivers/r_scifa/src/lld/r_rza2_scifa_lld.c ****     return (DRV_SUCCESS);
 1677              		.loc 1 1258 0
 1678 005c 0000A0E3 		mov	r0, #0
 1679 0060 1080BDE8 		pop	{r4, pc}
 1680              	.LVL209:
 1681              	.L192:
 1682              		.cfi_def_cfa_offset 0
 1683              		.cfi_restore 4
 1684              		.cfi_restore 14
1247:../generate/sc_drivers/r_scifa/src/lld/r_rza2_scifa_lld.c ****     }
 1685              		.loc 1 1247 0
 1686 0064 0000E0E3 		mvn	r0, #0
 1687              	.LVL210:
 1688 0068 1EFF2FE1 		bx	lr
 1689              		.cfi_endproc
 1690              	.LFE26:
 1692              		.section	.text.R_SCIFA_StopTX,"ax",%progbits
 1693              		.align	2
 1694              		.global	R_SCIFA_StopTX
 1695              		.syntax unified
 1696              		.arm
 1697              		.fpu neon
 1699              	R_SCIFA_StopTX:
 1700              	.LFB27:
1259:../generate/sc_drivers/r_scifa/src/lld/r_rza2_scifa_lld.c **** }
1260:../generate/sc_drivers/r_scifa/src/lld/r_rza2_scifa_lld.c **** /**************************************************************************************************
1261:../generate/sc_drivers/r_scifa/src/lld/r_rza2_scifa_lld.c ****  * End of Function R_SCIFA_StartTX
1262:../generate/sc_drivers/r_scifa/src/lld/r_rza2_scifa_lld.c ****  **************************************************************************************************
1263:../generate/sc_drivers/r_scifa/src/lld/r_rza2_scifa_lld.c **** 
1264:../generate/sc_drivers/r_scifa/src/lld/r_rza2_scifa_lld.c **** /**
1265:../generate/sc_drivers/r_scifa/src/lld/r_rza2_scifa_lld.c ****  * @brief R_SCIFA_StopTX disable transmit
1266:../generate/sc_drivers/r_scifa/src/lld/r_rza2_scifa_lld.c ****  *
1267:../generate/sc_drivers/r_scifa/src/lld/r_rza2_scifa_lld.c ****  * @param[in] channel to stop transmit
1268:../generate/sc_drivers/r_scifa/src/lld/r_rza2_scifa_lld.c ****  *
1269:../generate/sc_drivers/r_scifa/src/lld/r_rza2_scifa_lld.c ****  * @retval  0 DRV_SUCCESS
1270:../generate/sc_drivers/r_scifa/src/lld/r_rza2_scifa_lld.c ****  * @retval -1 DRV_ERROR
1271:../generate/sc_drivers/r_scifa/src/lld/r_rza2_scifa_lld.c ****  */
1272:../generate/sc_drivers/r_scifa/src/lld/r_rza2_scifa_lld.c **** int_t R_SCIFA_StopTX (r_channel_t channel)
1273:../generate/sc_drivers/r_scifa/src/lld/r_rza2_scifa_lld.c **** {
 1701              		.loc 1 1273 0
 1702              		.cfi_startproc
 1703              		@ args = 0, pretend = 0, frame = 0
 1704              		@ frame_needed = 0, uses_anonymous_args = 0
 1705              	.LVL211:
1274:../generate/sc_drivers/r_scifa/src/lld/r_rza2_scifa_lld.c ****     if ((channel > R_PRV_CFG_SCIF_LAST_CHANNEL) || (channel < 0))
 1706              		.loc 1 1274 0
 1707 0000 7030EFE6 		uxtb	r3, r0
 1708 0004 050053E3 		cmp	r3, #5
 1709 0008 0A00008A 		bhi	.L199
1273:../generate/sc_drivers/r_scifa/src/lld/r_rza2_scifa_lld.c ****     if ((channel > R_PRV_CFG_SCIF_LAST_CHANNEL) || (channel < 0))
 1710              		.loc 1 1273 0
 1711 000c 10402DE9 		push	{r4, lr}
 1712              		.cfi_def_cfa_offset 8
 1713              		.cfi_offset 4, -8
 1714              		.cfi_offset 14, -4
1275:../generate/sc_drivers/r_scifa/src/lld/r_rza2_scifa_lld.c ****     {
1276:../generate/sc_drivers/r_scifa/src/lld/r_rza2_scifa_lld.c ****         return (DRV_ERROR);
1277:../generate/sc_drivers/r_scifa/src/lld/r_rza2_scifa_lld.c ****     }
1278:../generate/sc_drivers/r_scifa/src/lld/r_rza2_scifa_lld.c **** 
1279:../generate/sc_drivers/r_scifa/src/lld/r_rza2_scifa_lld.c ****     RZA_IO_RegWrite_16((volatile uint16_t *) &gsp_scifa[channel]->SCR.WORD, 0, SCIFA_SCR_TE_SHIFT, 
 1715              		.loc 1 1279 0
 1716 0010 003000E3 		movw	r3, #:lower16:.LANCHOR0
 1717 0014 003040E3 		movt	r3, #:upper16:.LANCHOR0
 1718 0018 000193E7 		ldr	r0, [r3, r0, lsl #2]
 1719              	.LVL212:
 1720 001c 2030A0E3 		mov	r3, #32
 1721 0020 0520A0E3 		mov	r2, #5
 1722 0024 0010A0E3 		mov	r1, #0
 1723 0028 040080E2 		add	r0, r0, #4
 1724 002c FEFFFFEB 		bl	RZA_IO_RegWrite_16
 1725              	.LVL213:
1280:../generate/sc_drivers/r_scifa/src/lld/r_rza2_scifa_lld.c **** 
1281:../generate/sc_drivers/r_scifa/src/lld/r_rza2_scifa_lld.c ****     return (DRV_SUCCESS);
 1726              		.loc 1 1281 0
 1727 0030 0000A0E3 		mov	r0, #0
 1728 0034 1080BDE8 		pop	{r4, pc}
 1729              	.LVL214:
 1730              	.L199:
 1731              		.cfi_def_cfa_offset 0
 1732              		.cfi_restore 4
 1733              		.cfi_restore 14
1276:../generate/sc_drivers/r_scifa/src/lld/r_rza2_scifa_lld.c ****     }
 1734              		.loc 1 1276 0
 1735 0038 0000E0E3 		mvn	r0, #0
 1736              	.LVL215:
 1737 003c 1EFF2FE1 		bx	lr
 1738              		.cfi_endproc
 1739              	.LFE27:
 1741              		.section	.text.R_SCIFA_GetWriteDataRegisterAddress,"ax",%progbits
 1742              		.align	2
 1743              		.global	R_SCIFA_GetWriteDataRegisterAddress
 1744              		.syntax unified
 1745              		.arm
 1746              		.fpu neon
 1748              	R_SCIFA_GetWriteDataRegisterAddress:
 1749              	.LFB28:
1282:../generate/sc_drivers/r_scifa/src/lld/r_rza2_scifa_lld.c **** }
1283:../generate/sc_drivers/r_scifa/src/lld/r_rza2_scifa_lld.c **** /**************************************************************************************************
1284:../generate/sc_drivers/r_scifa/src/lld/r_rza2_scifa_lld.c ****  * End of Function R_SCIFA_StopTX
1285:../generate/sc_drivers/r_scifa/src/lld/r_rza2_scifa_lld.c ****  **************************************************************************************************
1286:../generate/sc_drivers/r_scifa/src/lld/r_rza2_scifa_lld.c **** 
1287:../generate/sc_drivers/r_scifa/src/lld/r_rza2_scifa_lld.c **** /**
1288:../generate/sc_drivers/r_scifa/src/lld/r_rza2_scifa_lld.c ****  * @brief R_SCIFA_GetWriteDataRegisterAddress return the read data register address
1289:../generate/sc_drivers/r_scifa/src/lld/r_rza2_scifa_lld.c ****  *
1290:../generate/sc_drivers/r_scifa/src/lld/r_rza2_scifa_lld.c ****  * @param[in] channel to get the FTDR register address for
1291:../generate/sc_drivers/r_scifa/src/lld/r_rza2_scifa_lld.c ****  *
1292:../generate/sc_drivers/r_scifa/src/lld/r_rza2_scifa_lld.c ****  * @retval the address of the FTDR register
1293:../generate/sc_drivers/r_scifa/src/lld/r_rza2_scifa_lld.c ****  * @retval NULL error
1294:../generate/sc_drivers/r_scifa/src/lld/r_rza2_scifa_lld.c ****  */
1295:../generate/sc_drivers/r_scifa/src/lld/r_rza2_scifa_lld.c **** void * R_SCIFA_GetWriteDataRegisterAddress (r_channel_t channel)
1296:../generate/sc_drivers/r_scifa/src/lld/r_rza2_scifa_lld.c **** {
 1750              		.loc 1 1296 0
 1751              		.cfi_startproc
 1752              		@ args = 0, pretend = 0, frame = 0
 1753              		@ frame_needed = 0, uses_anonymous_args = 0
 1754              		@ link register save eliminated.
 1755              	.LVL216:
1297:../generate/sc_drivers/r_scifa/src/lld/r_rza2_scifa_lld.c ****     if ((channel > R_PRV_CFG_SCIF_LAST_CHANNEL) || (channel < 0))
 1756              		.loc 1 1297 0
 1757 0000 7030EFE6 		uxtb	r3, r0
 1758 0004 050053E3 		cmp	r3, #5
 1759 0008 0400008A 		bhi	.L206
1298:../generate/sc_drivers/r_scifa/src/lld/r_rza2_scifa_lld.c ****     {
1299:../generate/sc_drivers/r_scifa/src/lld/r_rza2_scifa_lld.c ****         return (NULL);
1300:../generate/sc_drivers/r_scifa/src/lld/r_rza2_scifa_lld.c ****     }
1301:../generate/sc_drivers/r_scifa/src/lld/r_rza2_scifa_lld.c **** 
1302:../generate/sc_drivers/r_scifa/src/lld/r_rza2_scifa_lld.c ****     return (void *) &gsp_scifa[channel]->FTDR.BYTE;
 1760              		.loc 1 1302 0
 1761 000c 003000E3 		movw	r3, #:lower16:.LANCHOR0
 1762 0010 003040E3 		movt	r3, #:upper16:.LANCHOR0
 1763 0014 000193E7 		ldr	r0, [r3, r0, lsl #2]
 1764              	.LVL217:
 1765 0018 060080E2 		add	r0, r0, #6
 1766 001c 1EFF2FE1 		bx	lr
 1767              	.LVL218:
 1768              	.L206:
1299:../generate/sc_drivers/r_scifa/src/lld/r_rza2_scifa_lld.c ****     }
 1769              		.loc 1 1299 0
 1770 0020 0000A0E3 		mov	r0, #0
 1771              	.LVL219:
1303:../generate/sc_drivers/r_scifa/src/lld/r_rza2_scifa_lld.c **** }
 1772              		.loc 1 1303 0
 1773 0024 1EFF2FE1 		bx	lr
 1774              		.cfi_endproc
 1775              	.LFE28:
 1777              		.section	.text.R_SCIFA_StartTXI,"ax",%progbits
 1778              		.align	2
 1779              		.global	R_SCIFA_StartTXI
 1780              		.syntax unified
 1781              		.arm
 1782              		.fpu neon
 1784              	R_SCIFA_StartTXI:
 1785              	.LFB29:
1304:../generate/sc_drivers/r_scifa/src/lld/r_rza2_scifa_lld.c **** /**************************************************************************************************
1305:../generate/sc_drivers/r_scifa/src/lld/r_rza2_scifa_lld.c ****  * End of Function R_SCIFA_GetWriteDataRegisterAddress
1306:../generate/sc_drivers/r_scifa/src/lld/r_rza2_scifa_lld.c ****  **************************************************************************************************
1307:../generate/sc_drivers/r_scifa/src/lld/r_rza2_scifa_lld.c **** 
1308:../generate/sc_drivers/r_scifa/src/lld/r_rza2_scifa_lld.c **** /**
1309:../generate/sc_drivers/r_scifa/src/lld/r_rza2_scifa_lld.c ****  * @brief R_SCIFA_StartTXI Starts TXI interrupt for a given channel
1310:../generate/sc_drivers/r_scifa/src/lld/r_rza2_scifa_lld.c ****  *
1311:../generate/sc_drivers/r_scifa/src/lld/r_rza2_scifa_lld.c ****  * @param[in] channel: channel to start TXI for
1312:../generate/sc_drivers/r_scifa/src/lld/r_rza2_scifa_lld.c ****  *
1313:../generate/sc_drivers/r_scifa/src/lld/r_rza2_scifa_lld.c ****  * @retval  0 DRV_SUCCESS
1314:../generate/sc_drivers/r_scifa/src/lld/r_rza2_scifa_lld.c ****  * @retval -1 DRV_ERROR
1315:../generate/sc_drivers/r_scifa/src/lld/r_rza2_scifa_lld.c ****  */
1316:../generate/sc_drivers/r_scifa/src/lld/r_rza2_scifa_lld.c **** int_t R_SCIFA_StartTXI (r_channel_t channel)
1317:../generate/sc_drivers/r_scifa/src/lld/r_rza2_scifa_lld.c **** {
 1786              		.loc 1 1317 0
 1787              		.cfi_startproc
 1788              		@ args = 0, pretend = 0, frame = 0
 1789              		@ frame_needed = 0, uses_anonymous_args = 0
 1790              	.LVL220:
1318:../generate/sc_drivers/r_scifa/src/lld/r_rza2_scifa_lld.c ****     if ((channel > R_PRV_CFG_SCIF_LAST_CHANNEL) || (channel < 0))
 1791              		.loc 1 1318 0
 1792 0000 7030EFE6 		uxtb	r3, r0
 1793 0004 050053E3 		cmp	r3, #5
 1794 0008 0A00008A 		bhi	.L209
1317:../generate/sc_drivers/r_scifa/src/lld/r_rza2_scifa_lld.c ****     if ((channel > R_PRV_CFG_SCIF_LAST_CHANNEL) || (channel < 0))
 1795              		.loc 1 1317 0
 1796 000c 10402DE9 		push	{r4, lr}
 1797              		.cfi_def_cfa_offset 8
 1798              		.cfi_offset 4, -8
 1799              		.cfi_offset 14, -4
1319:../generate/sc_drivers/r_scifa/src/lld/r_rza2_scifa_lld.c ****     {
1320:../generate/sc_drivers/r_scifa/src/lld/r_rza2_scifa_lld.c ****         return (DRV_ERROR);
1321:../generate/sc_drivers/r_scifa/src/lld/r_rza2_scifa_lld.c ****     }
1322:../generate/sc_drivers/r_scifa/src/lld/r_rza2_scifa_lld.c **** 
1323:../generate/sc_drivers/r_scifa/src/lld/r_rza2_scifa_lld.c ****     /* enable transmit interrupt enable */
1324:../generate/sc_drivers/r_scifa/src/lld/r_rza2_scifa_lld.c ****     RZA_IO_RegWrite_16((volatile uint16_t *) &gsp_scifa[channel]->SCR.WORD, 1, SCIFA_SCR_TIE_SHIFT,
 1800              		.loc 1 1324 0
 1801 0010 003000E3 		movw	r3, #:lower16:.LANCHOR0
 1802 0014 003040E3 		movt	r3, #:upper16:.LANCHOR0
 1803 0018 000193E7 		ldr	r0, [r3, r0, lsl #2]
 1804              	.LVL221:
 1805 001c 8030A0E3 		mov	r3, #128
 1806 0020 0720A0E3 		mov	r2, #7
 1807 0024 0110A0E3 		mov	r1, #1
 1808 0028 040080E2 		add	r0, r0, #4
 1809 002c FEFFFFEB 		bl	RZA_IO_RegWrite_16
 1810              	.LVL222:
1325:../generate/sc_drivers/r_scifa/src/lld/r_rza2_scifa_lld.c **** 
1326:../generate/sc_drivers/r_scifa/src/lld/r_rza2_scifa_lld.c ****     return (DRV_SUCCESS);
 1811              		.loc 1 1326 0
 1812 0030 0000A0E3 		mov	r0, #0
 1813 0034 1080BDE8 		pop	{r4, pc}
 1814              	.LVL223:
 1815              	.L209:
 1816              		.cfi_def_cfa_offset 0
 1817              		.cfi_restore 4
 1818              		.cfi_restore 14
1320:../generate/sc_drivers/r_scifa/src/lld/r_rza2_scifa_lld.c ****     }
 1819              		.loc 1 1320 0
 1820 0038 0000E0E3 		mvn	r0, #0
 1821              	.LVL224:
 1822 003c 1EFF2FE1 		bx	lr
 1823              		.cfi_endproc
 1824              	.LFE29:
 1826              		.section	.text.R_SCIFA_PutByte,"ax",%progbits
 1827              		.align	2
 1828              		.global	R_SCIFA_PutByte
 1829              		.syntax unified
 1830              		.arm
 1831              		.fpu neon
 1833              	R_SCIFA_PutByte:
 1834              	.LFB30:
1327:../generate/sc_drivers/r_scifa/src/lld/r_rza2_scifa_lld.c **** }
1328:../generate/sc_drivers/r_scifa/src/lld/r_rza2_scifa_lld.c **** /**************************************************************************************************
1329:../generate/sc_drivers/r_scifa/src/lld/r_rza2_scifa_lld.c ****  * End of Function R_SCIFA_StartTXI
1330:../generate/sc_drivers/r_scifa/src/lld/r_rza2_scifa_lld.c ****  **************************************************************************************************
1331:../generate/sc_drivers/r_scifa/src/lld/r_rza2_scifa_lld.c **** 
1332:../generate/sc_drivers/r_scifa/src/lld/r_rza2_scifa_lld.c **** /**
1333:../generate/sc_drivers/r_scifa/src/lld/r_rza2_scifa_lld.c ****  * @brief R_SCIFA_PutByte puts a byte in a channel's FIFO
1334:../generate/sc_drivers/r_scifa/src/lld/r_rza2_scifa_lld.c ****  * This function will put a single byte into the FIFO of the
1335:../generate/sc_drivers/r_scifa/src/lld/r_rza2_scifa_lld.c ****  * channel given
1336:../generate/sc_drivers/r_scifa/src/lld/r_rza2_scifa_lld.c ****  *
1337:../generate/sc_drivers/r_scifa/src/lld/r_rza2_scifa_lld.c ****  * @param[in] channel: channel to put byte in FIFO
1338:../generate/sc_drivers/r_scifa/src/lld/r_rza2_scifa_lld.c ****  * @param[in] data: byte to place in FIFO
1339:../generate/sc_drivers/r_scifa/src/lld/r_rza2_scifa_lld.c ****  *
1340:../generate/sc_drivers/r_scifa/src/lld/r_rza2_scifa_lld.c ****  * @retval  0 DRV_SUCCESS
1341:../generate/sc_drivers/r_scifa/src/lld/r_rza2_scifa_lld.c ****  * @retval -1 DRV_ERROR
1342:../generate/sc_drivers/r_scifa/src/lld/r_rza2_scifa_lld.c ****  */
1343:../generate/sc_drivers/r_scifa/src/lld/r_rza2_scifa_lld.c **** int_t R_SCIFA_PutByte (r_channel_t channel, uint8_t data)
1344:../generate/sc_drivers/r_scifa/src/lld/r_rza2_scifa_lld.c **** {
 1835              		.loc 1 1344 0
 1836              		.cfi_startproc
 1837              		@ args = 0, pretend = 0, frame = 0
 1838              		@ frame_needed = 0, uses_anonymous_args = 0
 1839              	.LVL225:
1345:../generate/sc_drivers/r_scifa/src/lld/r_rza2_scifa_lld.c ****     if ((channel > R_PRV_CFG_SCIF_LAST_CHANNEL) || (channel < 0))
 1840              		.loc 1 1345 0
 1841 0000 7030EFE6 		uxtb	r3, r0
 1842 0004 050053E3 		cmp	r3, #5
 1843 0008 0900008A 		bhi	.L216
1344:../generate/sc_drivers/r_scifa/src/lld/r_rza2_scifa_lld.c ****     if ((channel > R_PRV_CFG_SCIF_LAST_CHANNEL) || (channel < 0))
 1844              		.loc 1 1344 0
 1845 000c 10402DE9 		push	{r4, lr}
 1846              		.cfi_def_cfa_offset 8
 1847              		.cfi_offset 4, -8
 1848              		.cfi_offset 14, -4
1346:../generate/sc_drivers/r_scifa/src/lld/r_rza2_scifa_lld.c ****     {
1347:../generate/sc_drivers/r_scifa/src/lld/r_rza2_scifa_lld.c ****         return (DRV_ERROR);
1348:../generate/sc_drivers/r_scifa/src/lld/r_rza2_scifa_lld.c ****     }
1349:../generate/sc_drivers/r_scifa/src/lld/r_rza2_scifa_lld.c **** 
1350:../generate/sc_drivers/r_scifa/src/lld/r_rza2_scifa_lld.c ****     /* Put byte in FIFO */
1351:../generate/sc_drivers/r_scifa/src/lld/r_rza2_scifa_lld.c ****     RZA_IO_RegWrite_8((volatile uint8_t *) &gsp_scifa[channel]->FTDR.BYTE, data, IOREG_NONSHIFT_ACC
 1849              		.loc 1 1351 0
 1850 0010 003000E3 		movw	r3, #:lower16:.LANCHOR0
 1851 0014 003040E3 		movt	r3, #:upper16:.LANCHOR0
 1852 0018 000193E7 		ldr	r0, [r3, r0, lsl #2]
 1853              	.LVL226:
 1854 001c 0030E0E3 		mvn	r3, #0
 1855 0020 0020A0E3 		mov	r2, #0
 1856 0024 060080E2 		add	r0, r0, #6
 1857 0028 FEFFFFEB 		bl	RZA_IO_RegWrite_8
 1858              	.LVL227:
1352:../generate/sc_drivers/r_scifa/src/lld/r_rza2_scifa_lld.c **** 
1353:../generate/sc_drivers/r_scifa/src/lld/r_rza2_scifa_lld.c ****     return (DRV_SUCCESS);
 1859              		.loc 1 1353 0
 1860 002c 0000A0E3 		mov	r0, #0
 1861 0030 1080BDE8 		pop	{r4, pc}
 1862              	.LVL228:
 1863              	.L216:
 1864              		.cfi_def_cfa_offset 0
 1865              		.cfi_restore 4
 1866              		.cfi_restore 14
1347:../generate/sc_drivers/r_scifa/src/lld/r_rza2_scifa_lld.c ****     }
 1867              		.loc 1 1347 0
 1868 0034 0000E0E3 		mvn	r0, #0
 1869              	.LVL229:
 1870 0038 1EFF2FE1 		bx	lr
 1871              		.cfi_endproc
 1872              	.LFE30:
 1874              		.section	.text.R_SCIFA_GetByte,"ax",%progbits
 1875              		.align	2
 1876              		.global	R_SCIFA_GetByte
 1877              		.syntax unified
 1878              		.arm
 1879              		.fpu neon
 1881              	R_SCIFA_GetByte:
 1882              	.LFB31:
1354:../generate/sc_drivers/r_scifa/src/lld/r_rza2_scifa_lld.c **** }
1355:../generate/sc_drivers/r_scifa/src/lld/r_rza2_scifa_lld.c **** /**************************************************************************************************
1356:../generate/sc_drivers/r_scifa/src/lld/r_rza2_scifa_lld.c ****  * End of Function R_SCIFA_PutByte
1357:../generate/sc_drivers/r_scifa/src/lld/r_rza2_scifa_lld.c ****  **************************************************************************************************
1358:../generate/sc_drivers/r_scifa/src/lld/r_rza2_scifa_lld.c **** 
1359:../generate/sc_drivers/r_scifa/src/lld/r_rza2_scifa_lld.c **** /**
1360:../generate/sc_drivers/r_scifa/src/lld/r_rza2_scifa_lld.c ****  * @brief R_SCIFA_GetByte gets 1 byte from a channel's FIFO
1361:../generate/sc_drivers/r_scifa/src/lld/r_rza2_scifa_lld.c ****  * This function retrieves a single byte from a channel's
1362:../generate/sc_drivers/r_scifa/src/lld/r_rza2_scifa_lld.c ****  * transmit FIFO
1363:../generate/sc_drivers/r_scifa/src/lld/r_rza2_scifa_lld.c ****  *
1364:../generate/sc_drivers/r_scifa/src/lld/r_rza2_scifa_lld.c ****  * @param[in] channel: channel to retrieve byte from FIFO
1365:../generate/sc_drivers/r_scifa/src/lld/r_rza2_scifa_lld.c ****  * @param[out] p_data: location to place retrieved byte
1366:../generate/sc_drivers/r_scifa/src/lld/r_rza2_scifa_lld.c ****  *
1367:../generate/sc_drivers/r_scifa/src/lld/r_rza2_scifa_lld.c ****  * @retval  0 DRV_SUCCESS
1368:../generate/sc_drivers/r_scifa/src/lld/r_rza2_scifa_lld.c ****  * @retval -1 DRV_ERROR
1369:../generate/sc_drivers/r_scifa/src/lld/r_rza2_scifa_lld.c ****  */
1370:../generate/sc_drivers/r_scifa/src/lld/r_rza2_scifa_lld.c **** int_t R_SCIFA_GetByte (r_channel_t channel, uint8_t *p_data)
1371:../generate/sc_drivers/r_scifa/src/lld/r_rza2_scifa_lld.c **** {
 1883              		.loc 1 1371 0
 1884              		.cfi_startproc
 1885              		@ args = 0, pretend = 0, frame = 0
 1886              		@ frame_needed = 0, uses_anonymous_args = 0
 1887              	.LVL230:
1372:../generate/sc_drivers/r_scifa/src/lld/r_rza2_scifa_lld.c ****     if ((channel > R_PRV_CFG_SCIF_LAST_CHANNEL) || (channel < 0))
 1888              		.loc 1 1372 0
 1889 0000 7030EFE6 		uxtb	r3, r0
 1890 0004 050053E3 		cmp	r3, #5
 1891 0008 0B00008A 		bhi	.L223
1371:../generate/sc_drivers/r_scifa/src/lld/r_rza2_scifa_lld.c ****     if ((channel > R_PRV_CFG_SCIF_LAST_CHANNEL) || (channel < 0))
 1892              		.loc 1 1371 0
 1893 000c 10402DE9 		push	{r4, lr}
 1894              		.cfi_def_cfa_offset 8
 1895              		.cfi_offset 4, -8
 1896              		.cfi_offset 14, -4
 1897 0010 0140A0E1 		mov	r4, r1
1373:../generate/sc_drivers/r_scifa/src/lld/r_rza2_scifa_lld.c ****     {
1374:../generate/sc_drivers/r_scifa/src/lld/r_rza2_scifa_lld.c ****         return (DRV_ERROR);
1375:../generate/sc_drivers/r_scifa/src/lld/r_rza2_scifa_lld.c ****     }
1376:../generate/sc_drivers/r_scifa/src/lld/r_rza2_scifa_lld.c **** 
1377:../generate/sc_drivers/r_scifa/src/lld/r_rza2_scifa_lld.c ****     /* get byte from FIFO */
1378:../generate/sc_drivers/r_scifa/src/lld/r_rza2_scifa_lld.c ****     *p_data = RZA_IO_RegRead_8((volatile uint8_t *) &gsp_scifa[channel]->FRDR.BYTE, IOREG_NONSHIFT_
 1898              		.loc 1 1378 0
 1899 0014 003000E3 		movw	r3, #:lower16:.LANCHOR0
 1900 0018 003040E3 		movt	r3, #:upper16:.LANCHOR0
 1901 001c 000193E7 		ldr	r0, [r3, r0, lsl #2]
 1902              	.LVL231:
 1903 0020 0020E0E3 		mvn	r2, #0
 1904 0024 0010A0E3 		mov	r1, #0
 1905              	.LVL232:
 1906 0028 0A0080E2 		add	r0, r0, #10
 1907 002c FEFFFFEB 		bl	RZA_IO_RegRead_8
 1908              	.LVL233:
 1909 0030 0000C4E5 		strb	r0, [r4]
1379:../generate/sc_drivers/r_scifa/src/lld/r_rza2_scifa_lld.c **** 
1380:../generate/sc_drivers/r_scifa/src/lld/r_rza2_scifa_lld.c ****     return (DRV_SUCCESS);
 1910              		.loc 1 1380 0
 1911 0034 0000A0E3 		mov	r0, #0
 1912 0038 1080BDE8 		pop	{r4, pc}
 1913              	.LVL234:
 1914              	.L223:
 1915              		.cfi_def_cfa_offset 0
 1916              		.cfi_restore 4
 1917              		.cfi_restore 14
1374:../generate/sc_drivers/r_scifa/src/lld/r_rza2_scifa_lld.c ****     }
 1918              		.loc 1 1374 0
 1919 003c 0000E0E3 		mvn	r0, #0
 1920              	.LVL235:
 1921 0040 1EFF2FE1 		bx	lr
 1922              		.cfi_endproc
 1923              	.LFE31:
 1925              		.section	.text.R_SCIFA_IsTxFifoFull,"ax",%progbits
 1926              		.align	2
 1927              		.global	R_SCIFA_IsTxFifoFull
 1928              		.syntax unified
 1929              		.arm
 1930              		.fpu neon
 1932              	R_SCIFA_IsTxFifoFull:
 1933              	.LFB32:
1381:../generate/sc_drivers/r_scifa/src/lld/r_rza2_scifa_lld.c **** }
1382:../generate/sc_drivers/r_scifa/src/lld/r_rza2_scifa_lld.c **** /**************************************************************************************************
1383:../generate/sc_drivers/r_scifa/src/lld/r_rza2_scifa_lld.c ****  * End of Function R_SCIFA_GetByte
1384:../generate/sc_drivers/r_scifa/src/lld/r_rza2_scifa_lld.c ****  **************************************************************************************************
1385:../generate/sc_drivers/r_scifa/src/lld/r_rza2_scifa_lld.c **** 
1386:../generate/sc_drivers/r_scifa/src/lld/r_rza2_scifa_lld.c **** /**
1387:../generate/sc_drivers/r_scifa/src/lld/r_rza2_scifa_lld.c ****  * @brief R_SCIFA_IsTxFifoFull Checks for space in the TX FIFO
1388:../generate/sc_drivers/r_scifa/src/lld/r_rza2_scifa_lld.c ****  * This function checks the current amount of bytes in the TX FIFO
1389:../generate/sc_drivers/r_scifa/src/lld/r_rza2_scifa_lld.c ****  * it will then return false if space in the FIFO, true if it's full
1390:../generate/sc_drivers/r_scifa/src/lld/r_rza2_scifa_lld.c ****  *
1391:../generate/sc_drivers/r_scifa/src/lld/r_rza2_scifa_lld.c ****  * @param[in] channel: channel to check TX FIFO for
1392:../generate/sc_drivers/r_scifa/src/lld/r_rza2_scifa_lld.c ****  * @param[out] p_fifo_full: false if space in the FIFO, true if it's full
1393:../generate/sc_drivers/r_scifa/src/lld/r_rza2_scifa_lld.c ****  *
1394:../generate/sc_drivers/r_scifa/src/lld/r_rza2_scifa_lld.c ****  * @retval  0 DRV_SUCCESS
1395:../generate/sc_drivers/r_scifa/src/lld/r_rza2_scifa_lld.c ****  * @retval -1 DRV_ERROR
1396:../generate/sc_drivers/r_scifa/src/lld/r_rza2_scifa_lld.c ****  */
1397:../generate/sc_drivers/r_scifa/src/lld/r_rza2_scifa_lld.c **** int_t R_SCIFA_IsTxFifoFull(r_channel_t channel, bool_t *p_fifo_full)
1398:../generate/sc_drivers/r_scifa/src/lld/r_rza2_scifa_lld.c **** {
 1934              		.loc 1 1398 0
 1935              		.cfi_startproc
 1936              		@ args = 0, pretend = 0, frame = 0
 1937              		@ frame_needed = 0, uses_anonymous_args = 0
 1938              	.LVL236:
1399:../generate/sc_drivers/r_scifa/src/lld/r_rza2_scifa_lld.c ****     uint16_t fifo_bytes;
1400:../generate/sc_drivers/r_scifa/src/lld/r_rza2_scifa_lld.c **** 
1401:../generate/sc_drivers/r_scifa/src/lld/r_rza2_scifa_lld.c ****     if ((channel > R_PRV_CFG_SCIF_LAST_CHANNEL) || (channel < 0))
 1939              		.loc 1 1401 0
 1940 0000 7030EFE6 		uxtb	r3, r0
 1941 0004 050053E3 		cmp	r3, #5
 1942 0008 1100008A 		bhi	.L231
1398:../generate/sc_drivers/r_scifa/src/lld/r_rza2_scifa_lld.c ****     uint16_t fifo_bytes;
 1943              		.loc 1 1398 0
 1944 000c 10402DE9 		push	{r4, lr}
 1945              		.cfi_def_cfa_offset 8
 1946              		.cfi_offset 4, -8
 1947              		.cfi_offset 14, -4
 1948 0010 0140A0E1 		mov	r4, r1
1402:../generate/sc_drivers/r_scifa/src/lld/r_rza2_scifa_lld.c ****     {
1403:../generate/sc_drivers/r_scifa/src/lld/r_rza2_scifa_lld.c ****         return (DRV_ERROR);
1404:../generate/sc_drivers/r_scifa/src/lld/r_rza2_scifa_lld.c ****     }
1405:../generate/sc_drivers/r_scifa/src/lld/r_rza2_scifa_lld.c **** 
1406:../generate/sc_drivers/r_scifa/src/lld/r_rza2_scifa_lld.c ****     /* get the number of bytes in the FIFO */
1407:../generate/sc_drivers/r_scifa/src/lld/r_rza2_scifa_lld.c ****     fifo_bytes = RZA_IO_RegRead_16((volatile uint16_t *) &gsp_scifa[channel]->FDR.WORD, SCIFA_FDR_T
 1949              		.loc 1 1407 0
 1950 0014 003000E3 		movw	r3, #:lower16:.LANCHOR0
 1951 0018 003040E3 		movt	r3, #:upper16:.LANCHOR0
 1952 001c 000193E7 		ldr	r0, [r3, r0, lsl #2]
 1953              	.LVL237:
 1954 0020 1F2CA0E3 		mov	r2, #7936
 1955 0024 0810A0E3 		mov	r1, #8
 1956              	.LVL238:
 1957 0028 0E0080E2 		add	r0, r0, #14
 1958 002c FEFFFFEB 		bl	RZA_IO_RegRead_16
 1959              	.LVL239:
1408:../generate/sc_drivers/r_scifa/src/lld/r_rza2_scifa_lld.c **** 
1409:../generate/sc_drivers/r_scifa/src/lld/r_rza2_scifa_lld.c ****     if (R_PRV_TX_FIFO_LENGTH == fifo_bytes)
 1960              		.loc 1 1409 0
 1961 0030 100050E3 		cmp	r0, #16
 1962 0034 0200000A 		beq	.L236
1410:../generate/sc_drivers/r_scifa/src/lld/r_rza2_scifa_lld.c ****     {
1411:../generate/sc_drivers/r_scifa/src/lld/r_rza2_scifa_lld.c ****         *p_fifo_full = true;
1412:../generate/sc_drivers/r_scifa/src/lld/r_rza2_scifa_lld.c ****     }
1413:../generate/sc_drivers/r_scifa/src/lld/r_rza2_scifa_lld.c ****     else
1414:../generate/sc_drivers/r_scifa/src/lld/r_rza2_scifa_lld.c ****     {
1415:../generate/sc_drivers/r_scifa/src/lld/r_rza2_scifa_lld.c ****         *p_fifo_full = false;
 1963              		.loc 1 1415 0
 1964 0038 0000A0E3 		mov	r0, #0
 1965              	.LVL240:
 1966 003c 000084E5 		str	r0, [r4]
 1967 0040 1080BDE8 		pop	{r4, pc}
 1968              	.LVL241:
 1969              	.L236:
1411:../generate/sc_drivers/r_scifa/src/lld/r_rza2_scifa_lld.c ****     }
 1970              		.loc 1 1411 0
 1971 0044 0130A0E3 		mov	r3, #1
 1972 0048 003084E5 		str	r3, [r4]
1416:../generate/sc_drivers/r_scifa/src/lld/r_rza2_scifa_lld.c ****     }
1417:../generate/sc_drivers/r_scifa/src/lld/r_rza2_scifa_lld.c **** 
1418:../generate/sc_drivers/r_scifa/src/lld/r_rza2_scifa_lld.c ****     return (DRV_SUCCESS);
 1973              		.loc 1 1418 0
 1974 004c 0000A0E3 		mov	r0, #0
 1975              	.LVL242:
 1976 0050 1080BDE8 		pop	{r4, pc}
 1977              	.LVL243:
 1978              	.L231:
 1979              		.cfi_def_cfa_offset 0
 1980              		.cfi_restore 4
 1981              		.cfi_restore 14
1403:../generate/sc_drivers/r_scifa/src/lld/r_rza2_scifa_lld.c ****     }
 1982              		.loc 1 1403 0
 1983 0054 0000E0E3 		mvn	r0, #0
 1984              	.LVL244:
 1985 0058 1EFF2FE1 		bx	lr
 1986              		.cfi_endproc
 1987              	.LFE32:
 1989              		.section	.text.R_SCIFA_SetModemControl,"ax",%progbits
 1990              		.align	2
 1991              		.global	R_SCIFA_SetModemControl
 1992              		.syntax unified
 1993              		.arm
 1994              		.fpu neon
 1996              	R_SCIFA_SetModemControl:
 1997              	.LFB34:
1419:../generate/sc_drivers/r_scifa/src/lld/r_rza2_scifa_lld.c **** }
1420:../generate/sc_drivers/r_scifa/src/lld/r_rza2_scifa_lld.c **** /**************************************************************************************************
1421:../generate/sc_drivers/r_scifa/src/lld/r_rza2_scifa_lld.c ****  * End of Function R_SCIFA_IsTxFifoFull
1422:../generate/sc_drivers/r_scifa/src/lld/r_rza2_scifa_lld.c ****  **************************************************************************************************
1423:../generate/sc_drivers/r_scifa/src/lld/r_rza2_scifa_lld.c **** 
1424:../generate/sc_drivers/r_scifa/src/lld/r_rza2_scifa_lld.c **** /**
1425:../generate/sc_drivers/r_scifa/src/lld/r_rza2_scifa_lld.c ****  * @brief R_SCIFA_SetExtendedCfg sets extended device settings
1426:../generate/sc_drivers/r_scifa/src/lld/r_rza2_scifa_lld.c ****  * This function sets the extended device settings,
1427:../generate/sc_drivers/r_scifa/src/lld/r_rza2_scifa_lld.c ****  * these settings are usually device
1428:../generate/sc_drivers/r_scifa/src/lld/r_rza2_scifa_lld.c ****  * specific or not considered commonly used
1429:../generate/sc_drivers/r_scifa/src/lld/r_rza2_scifa_lld.c ****  *
1430:../generate/sc_drivers/r_scifa/src/lld/r_rza2_scifa_lld.c ****  * @param[in] channel: channel to set extended settings for
1431:../generate/sc_drivers/r_scifa/src/lld/r_rza2_scifa_lld.c ****  * @param[in] p_ext_cfg: extended Settings to be set
1432:../generate/sc_drivers/r_scifa/src/lld/r_rza2_scifa_lld.c ****  *
1433:../generate/sc_drivers/r_scifa/src/lld/r_rza2_scifa_lld.c ****  * @retval  0 DRV_SUCCESS
1434:../generate/sc_drivers/r_scifa/src/lld/r_rza2_scifa_lld.c ****  * @retval -1 DRV_ERROR
1435:../generate/sc_drivers/r_scifa/src/lld/r_rza2_scifa_lld.c ****  */
1436:../generate/sc_drivers/r_scifa/src/lld/r_rza2_scifa_lld.c **** int_t R_SCIFA_SetExtendedCfg(r_channel_t channel, const scifa_config_t *p_ext_cfg)
1437:../generate/sc_drivers/r_scifa/src/lld/r_rza2_scifa_lld.c **** {
1438:../generate/sc_drivers/r_scifa/src/lld/r_rza2_scifa_lld.c ****     int_t ret = DRV_SUCCESS;
1439:../generate/sc_drivers/r_scifa/src/lld/r_rza2_scifa_lld.c **** 
1440:../generate/sc_drivers/r_scifa/src/lld/r_rza2_scifa_lld.c ****     if ((channel > R_PRV_CFG_SCIF_LAST_CHANNEL) || (channel < 0))
1441:../generate/sc_drivers/r_scifa/src/lld/r_rza2_scifa_lld.c ****     {
1442:../generate/sc_drivers/r_scifa/src/lld/r_rza2_scifa_lld.c ****         ret = DRV_ERROR;
1443:../generate/sc_drivers/r_scifa/src/lld/r_rza2_scifa_lld.c ****     }
1444:../generate/sc_drivers/r_scifa/src/lld/r_rza2_scifa_lld.c **** 
1445:../generate/sc_drivers/r_scifa/src/lld/r_rza2_scifa_lld.c ****     /* set clock */
1446:../generate/sc_drivers/r_scifa/src/lld/r_rza2_scifa_lld.c ****     if (DRV_SUCCESS == ret)
1447:../generate/sc_drivers/r_scifa/src/lld/r_rza2_scifa_lld.c ****     {
1448:../generate/sc_drivers/r_scifa/src/lld/r_rza2_scifa_lld.c ****         ret = R_SCIFA_SetClock(channel, p_ext_cfg->clk_enable );
1449:../generate/sc_drivers/r_scifa/src/lld/r_rza2_scifa_lld.c ****     }
1450:../generate/sc_drivers/r_scifa/src/lld/r_rza2_scifa_lld.c **** 
1451:../generate/sc_drivers/r_scifa/src/lld/r_rza2_scifa_lld.c ****     if (DRV_SUCCESS == ret)
1452:../generate/sc_drivers/r_scifa/src/lld/r_rza2_scifa_lld.c ****     {
1453:../generate/sc_drivers/r_scifa/src/lld/r_rza2_scifa_lld.c ****         /* set noise cancellation */
1454:../generate/sc_drivers/r_scifa/src/lld/r_rza2_scifa_lld.c ****         ret = R_SCIFA_SetNoiseCanceller(channel, p_ext_cfg->noise_canceller);
1455:../generate/sc_drivers/r_scifa/src/lld/r_rza2_scifa_lld.c ****     }
1456:../generate/sc_drivers/r_scifa/src/lld/r_rza2_scifa_lld.c **** 
1457:../generate/sc_drivers/r_scifa/src/lld/r_rza2_scifa_lld.c ****     /* set modem */
1458:../generate/sc_drivers/r_scifa/src/lld/r_rza2_scifa_lld.c ****     if (DRV_SUCCESS == ret)
1459:../generate/sc_drivers/r_scifa/src/lld/r_rza2_scifa_lld.c ****     {
1460:../generate/sc_drivers/r_scifa/src/lld/r_rza2_scifa_lld.c ****         ret = R_SCIFA_SetModemControl(channel, p_ext_cfg->modem_control);
1461:../generate/sc_drivers/r_scifa/src/lld/r_rza2_scifa_lld.c ****     }
1462:../generate/sc_drivers/r_scifa/src/lld/r_rza2_scifa_lld.c **** 
1463:../generate/sc_drivers/r_scifa/src/lld/r_rza2_scifa_lld.c ****     /* set FIFO */
1464:../generate/sc_drivers/r_scifa/src/lld/r_rza2_scifa_lld.c ****     if (DRV_SUCCESS == ret)
1465:../generate/sc_drivers/r_scifa/src/lld/r_rza2_scifa_lld.c ****     {
1466:../generate/sc_drivers/r_scifa/src/lld/r_rza2_scifa_lld.c ****         ret = R_SCIFA_SetFIFOThreshold(channel, p_ext_cfg->tftc, p_ext_cfg->rftc);
1467:../generate/sc_drivers/r_scifa/src/lld/r_rza2_scifa_lld.c ****     }
1468:../generate/sc_drivers/r_scifa/src/lld/r_rza2_scifa_lld.c **** 
1469:../generate/sc_drivers/r_scifa/src/lld/r_rza2_scifa_lld.c ****     return (ret);
1470:../generate/sc_drivers/r_scifa/src/lld/r_rza2_scifa_lld.c **** }
1471:../generate/sc_drivers/r_scifa/src/lld/r_rza2_scifa_lld.c **** /**************************************************************************************************
1472:../generate/sc_drivers/r_scifa/src/lld/r_rza2_scifa_lld.c ****  * End of Function R_SCIFA_SetExtendedCfg
1473:../generate/sc_drivers/r_scifa/src/lld/r_rza2_scifa_lld.c ****  **************************************************************************************************
1474:../generate/sc_drivers/r_scifa/src/lld/r_rza2_scifa_lld.c **** 
1475:../generate/sc_drivers/r_scifa/src/lld/r_rza2_scifa_lld.c **** /**
1476:../generate/sc_drivers/r_scifa/src/lld/r_rza2_scifa_lld.c ****  * @brief Sets up modem settings for a channel
1477:../generate/sc_drivers/r_scifa/src/lld/r_rza2_scifa_lld.c ****  *
1478:../generate/sc_drivers/r_scifa/src/lld/r_rza2_scifa_lld.c ****  * @param[in] channel: channel to configure modem settings for
1479:../generate/sc_drivers/r_scifa/src/lld/r_rza2_scifa_lld.c ****  * @param[in] modem: modem setting for the channel
1480:../generate/sc_drivers/r_scifa/src/lld/r_rza2_scifa_lld.c ****  *
1481:../generate/sc_drivers/r_scifa/src/lld/r_rza2_scifa_lld.c ****  * @retval  0 DRV_SUCCESS
1482:../generate/sc_drivers/r_scifa/src/lld/r_rza2_scifa_lld.c ****  * @retval -1 DRV_ERROR 
1483:../generate/sc_drivers/r_scifa/src/lld/r_rza2_scifa_lld.c ****  */
1484:../generate/sc_drivers/r_scifa/src/lld/r_rza2_scifa_lld.c **** int_t R_SCIFA_SetModemControl(r_channel_t channel, scifa_mce_t modem)
1485:../generate/sc_drivers/r_scifa/src/lld/r_rza2_scifa_lld.c **** {
 1998              		.loc 1 1485 0
 1999              		.cfi_startproc
 2000              		@ args = 0, pretend = 0, frame = 0
 2001              		@ frame_needed = 0, uses_anonymous_args = 0
 2002              	.LVL245:
1486:../generate/sc_drivers/r_scifa/src/lld/r_rza2_scifa_lld.c ****     if ((channel > R_PRV_CFG_SCIF_LAST_CHANNEL) || (channel < 0))
 2003              		.loc 1 1486 0
 2004 0000 7030EFE6 		uxtb	r3, r0
 2005 0004 050053E3 		cmp	r3, #5
 2006 0008 0900008A 		bhi	.L239
1485:../generate/sc_drivers/r_scifa/src/lld/r_rza2_scifa_lld.c ****     if ((channel > R_PRV_CFG_SCIF_LAST_CHANNEL) || (channel < 0))
 2007              		.loc 1 1485 0
 2008 000c 10402DE9 		push	{r4, lr}
 2009              		.cfi_def_cfa_offset 8
 2010              		.cfi_offset 4, -8
 2011              		.cfi_offset 14, -4
1487:../generate/sc_drivers/r_scifa/src/lld/r_rza2_scifa_lld.c ****     {
1488:../generate/sc_drivers/r_scifa/src/lld/r_rza2_scifa_lld.c ****         return (DRV_ERROR);
1489:../generate/sc_drivers/r_scifa/src/lld/r_rza2_scifa_lld.c ****     }
1490:../generate/sc_drivers/r_scifa/src/lld/r_rza2_scifa_lld.c **** 
1491:../generate/sc_drivers/r_scifa/src/lld/r_rza2_scifa_lld.c ****     /* Modem Control (RTS/CTS) enable/disable */
1492:../generate/sc_drivers/r_scifa/src/lld/r_rza2_scifa_lld.c ****     RZA_IO_RegWrite_16((volatile uint16_t *) &gsp_scifa[channel]->FCR.WORD, modem, SCIFA_FCR_MCE_SH
 2012              		.loc 1 1492 0
 2013 0010 003000E3 		movw	r3, #:lower16:.LANCHOR0
 2014 0014 003040E3 		movt	r3, #:upper16:.LANCHOR0
 2015 0018 000193E7 		ldr	r0, [r3, r0, lsl #2]
 2016              	.LVL246:
 2017 001c 0830A0E3 		mov	r3, #8
 2018 0020 0320A0E3 		mov	r2, #3
 2019 0024 0C0080E2 		add	r0, r0, #12
 2020 0028 FEFFFFEB 		bl	RZA_IO_RegWrite_16
 2021              	.LVL247:
1493:../generate/sc_drivers/r_scifa/src/lld/r_rza2_scifa_lld.c **** 
1494:../generate/sc_drivers/r_scifa/src/lld/r_rza2_scifa_lld.c ****     return (DRV_SUCCESS);
 2022              		.loc 1 1494 0
 2023 002c 0000A0E3 		mov	r0, #0
 2024 0030 1080BDE8 		pop	{r4, pc}
 2025              	.LVL248:
 2026              	.L239:
 2027              		.cfi_def_cfa_offset 0
 2028              		.cfi_restore 4
 2029              		.cfi_restore 14
1488:../generate/sc_drivers/r_scifa/src/lld/r_rza2_scifa_lld.c ****     }
 2030              		.loc 1 1488 0
 2031 0034 0000E0E3 		mvn	r0, #0
 2032              	.LVL249:
 2033 0038 1EFF2FE1 		bx	lr
 2034              		.cfi_endproc
 2035              	.LFE34:
 2037              		.section	.text.R_SCIFA_SetNoiseCanceller,"ax",%progbits
 2038              		.align	2
 2039              		.global	R_SCIFA_SetNoiseCanceller
 2040              		.syntax unified
 2041              		.arm
 2042              		.fpu neon
 2044              	R_SCIFA_SetNoiseCanceller:
 2045              	.LFB35:
1495:../generate/sc_drivers/r_scifa/src/lld/r_rza2_scifa_lld.c **** }
1496:../generate/sc_drivers/r_scifa/src/lld/r_rza2_scifa_lld.c **** /**************************************************************************************************
1497:../generate/sc_drivers/r_scifa/src/lld/r_rza2_scifa_lld.c ****  * End of Function R_SCIFA_SetModemControl
1498:../generate/sc_drivers/r_scifa/src/lld/r_rza2_scifa_lld.c ****  **************************************************************************************************
1499:../generate/sc_drivers/r_scifa/src/lld/r_rza2_scifa_lld.c **** 
1500:../generate/sc_drivers/r_scifa/src/lld/r_rza2_scifa_lld.c **** /**
1501:../generate/sc_drivers/r_scifa/src/lld/r_rza2_scifa_lld.c ****  * @brief Sets noise cancellation
1502:../generate/sc_drivers/r_scifa/src/lld/r_rza2_scifa_lld.c ****  *
1503:../generate/sc_drivers/r_scifa/src/lld/r_rza2_scifa_lld.c ****  * @param[in] channel: channel to set the noise cancellation for
1504:../generate/sc_drivers/r_scifa/src/lld/r_rza2_scifa_lld.c ****  * @param[in] noise_cancellation: noise cancellation setting
1505:../generate/sc_drivers/r_scifa/src/lld/r_rza2_scifa_lld.c ****  *
1506:../generate/sc_drivers/r_scifa/src/lld/r_rza2_scifa_lld.c ****  * @retval  0 DRV_SUCCESS
1507:../generate/sc_drivers/r_scifa/src/lld/r_rza2_scifa_lld.c ****  * @retval -1 DRV_ERROR 
1508:../generate/sc_drivers/r_scifa/src/lld/r_rza2_scifa_lld.c ****  */
1509:../generate/sc_drivers/r_scifa/src/lld/r_rza2_scifa_lld.c **** int_t R_SCIFA_SetNoiseCanceller(r_channel_t channel, scifa_nfen_t noise_cancellation)
1510:../generate/sc_drivers/r_scifa/src/lld/r_rza2_scifa_lld.c **** {
 2046              		.loc 1 1510 0
 2047              		.cfi_startproc
 2048              		@ args = 0, pretend = 0, frame = 0
 2049              		@ frame_needed = 0, uses_anonymous_args = 0
 2050              	.LVL250:
1511:../generate/sc_drivers/r_scifa/src/lld/r_rza2_scifa_lld.c ****     if ((channel > R_PRV_CFG_SCIF_LAST_CHANNEL) || (channel < 0))
 2051              		.loc 1 1511 0
 2052 0000 7030EFE6 		uxtb	r3, r0
 2053 0004 050053E3 		cmp	r3, #5
 2054 0008 0900008A 		bhi	.L246
1510:../generate/sc_drivers/r_scifa/src/lld/r_rza2_scifa_lld.c ****     if ((channel > R_PRV_CFG_SCIF_LAST_CHANNEL) || (channel < 0))
 2055              		.loc 1 1510 0
 2056 000c 10402DE9 		push	{r4, lr}
 2057              		.cfi_def_cfa_offset 8
 2058              		.cfi_offset 4, -8
 2059              		.cfi_offset 14, -4
1512:../generate/sc_drivers/r_scifa/src/lld/r_rza2_scifa_lld.c ****     {
1513:../generate/sc_drivers/r_scifa/src/lld/r_rza2_scifa_lld.c ****         return (DRV_ERROR);
1514:../generate/sc_drivers/r_scifa/src/lld/r_rza2_scifa_lld.c ****     }
1515:../generate/sc_drivers/r_scifa/src/lld/r_rza2_scifa_lld.c **** 
1516:../generate/sc_drivers/r_scifa/src/lld/r_rza2_scifa_lld.c ****     /* Noise canceller enable/disable */
1517:../generate/sc_drivers/r_scifa/src/lld/r_rza2_scifa_lld.c ****     RZA_IO_RegWrite_8((volatile uint8_t *) &gsp_scifa[channel]->SEMR.BYTE, noise_cancellation, SCIF
 2060              		.loc 1 1517 0
 2061 0010 003000E3 		movw	r3, #:lower16:.LANCHOR0
 2062 0014 003040E3 		movt	r3, #:upper16:.LANCHOR0
 2063 0018 000193E7 		ldr	r0, [r3, r0, lsl #2]
 2064              	.LVL251:
 2065 001c 0430A0E3 		mov	r3, #4
 2066 0020 0220A0E3 		mov	r2, #2
 2067 0024 140080E2 		add	r0, r0, #20
 2068 0028 FEFFFFEB 		bl	RZA_IO_RegWrite_8
 2069              	.LVL252:
1518:../generate/sc_drivers/r_scifa/src/lld/r_rza2_scifa_lld.c **** 
1519:../generate/sc_drivers/r_scifa/src/lld/r_rza2_scifa_lld.c ****     return (DRV_SUCCESS);
 2070              		.loc 1 1519 0
 2071 002c 0000A0E3 		mov	r0, #0
 2072 0030 1080BDE8 		pop	{r4, pc}
 2073              	.LVL253:
 2074              	.L246:
 2075              		.cfi_def_cfa_offset 0
 2076              		.cfi_restore 4
 2077              		.cfi_restore 14
1513:../generate/sc_drivers/r_scifa/src/lld/r_rza2_scifa_lld.c ****     }
 2078              		.loc 1 1513 0
 2079 0034 0000E0E3 		mvn	r0, #0
 2080              	.LVL254:
 2081 0038 1EFF2FE1 		bx	lr
 2082              		.cfi_endproc
 2083              	.LFE35:
 2085              		.section	.text.R_SCIFA_SetClock,"ax",%progbits
 2086              		.align	2
 2087              		.global	R_SCIFA_SetClock
 2088              		.syntax unified
 2089              		.arm
 2090              		.fpu neon
 2092              	R_SCIFA_SetClock:
 2093              	.LFB36:
1520:../generate/sc_drivers/r_scifa/src/lld/r_rza2_scifa_lld.c **** }
1521:../generate/sc_drivers/r_scifa/src/lld/r_rza2_scifa_lld.c **** /**************************************************************************************************
1522:../generate/sc_drivers/r_scifa/src/lld/r_rza2_scifa_lld.c ****  * End of Function R_SCIFA_SetNoiseCanceller
1523:../generate/sc_drivers/r_scifa/src/lld/r_rza2_scifa_lld.c ****  **************************************************************************************************
1524:../generate/sc_drivers/r_scifa/src/lld/r_rza2_scifa_lld.c **** 
1525:../generate/sc_drivers/r_scifa/src/lld/r_rza2_scifa_lld.c **** /**
1526:../generate/sc_drivers/r_scifa/src/lld/r_rza2_scifa_lld.c ****  * @brief Sets the clock source for a channel
1527:../generate/sc_drivers/r_scifa/src/lld/r_rza2_scifa_lld.c ****  *
1528:../generate/sc_drivers/r_scifa/src/lld/r_rza2_scifa_lld.c ****  * @param[in] channel: channel to set clock source for
1529:../generate/sc_drivers/r_scifa/src/lld/r_rza2_scifa_lld.c ****  * @param[in] desired_clock: clock setting for channel
1530:../generate/sc_drivers/r_scifa/src/lld/r_rza2_scifa_lld.c ****  *
1531:../generate/sc_drivers/r_scifa/src/lld/r_rza2_scifa_lld.c ****  * @retval  0 DRV_SUCCESS
1532:../generate/sc_drivers/r_scifa/src/lld/r_rza2_scifa_lld.c ****  * @retval -1 DRV_ERROR 
1533:../generate/sc_drivers/r_scifa/src/lld/r_rza2_scifa_lld.c ****  */
1534:../generate/sc_drivers/r_scifa/src/lld/r_rza2_scifa_lld.c **** int_t R_SCIFA_SetClock(r_channel_t channel, scifa_clk_enable_t desired_clock)
1535:../generate/sc_drivers/r_scifa/src/lld/r_rza2_scifa_lld.c **** {
 2094              		.loc 1 1535 0
 2095              		.cfi_startproc
 2096              		@ args = 0, pretend = 0, frame = 0
 2097              		@ frame_needed = 0, uses_anonymous_args = 0
 2098              	.LVL255:
1536:../generate/sc_drivers/r_scifa/src/lld/r_rza2_scifa_lld.c ****     if ((channel > R_PRV_CFG_SCIF_LAST_CHANNEL) || (channel < 0))
 2099              		.loc 1 1536 0
 2100 0000 7030EFE6 		uxtb	r3, r0
 2101 0004 050053E3 		cmp	r3, #5
 2102 0008 0900008A 		bhi	.L253
1535:../generate/sc_drivers/r_scifa/src/lld/r_rza2_scifa_lld.c ****     if ((channel > R_PRV_CFG_SCIF_LAST_CHANNEL) || (channel < 0))
 2103              		.loc 1 1535 0
 2104 000c 10402DE9 		push	{r4, lr}
 2105              		.cfi_def_cfa_offset 8
 2106              		.cfi_offset 4, -8
 2107              		.cfi_offset 14, -4
1537:../generate/sc_drivers/r_scifa/src/lld/r_rza2_scifa_lld.c ****     {
1538:../generate/sc_drivers/r_scifa/src/lld/r_rza2_scifa_lld.c ****         return (DRV_ERROR);
1539:../generate/sc_drivers/r_scifa/src/lld/r_rza2_scifa_lld.c ****     }
1540:../generate/sc_drivers/r_scifa/src/lld/r_rza2_scifa_lld.c **** 
1541:../generate/sc_drivers/r_scifa/src/lld/r_rza2_scifa_lld.c ****     /* Clock enable mode */
1542:../generate/sc_drivers/r_scifa/src/lld/r_rza2_scifa_lld.c ****     RZA_IO_RegWrite_16((volatile uint16_t *) &gsp_scifa[channel]->SCR.WORD, desired_clock, SCIFA_SC
 2108              		.loc 1 1542 0
 2109 0010 003000E3 		movw	r3, #:lower16:.LANCHOR0
 2110 0014 003040E3 		movt	r3, #:upper16:.LANCHOR0
 2111 0018 000193E7 		ldr	r0, [r3, r0, lsl #2]
 2112              	.LVL256:
 2113 001c 0330A0E3 		mov	r3, #3
 2114 0020 0020A0E3 		mov	r2, #0
 2115 0024 040080E2 		add	r0, r0, #4
 2116 0028 FEFFFFEB 		bl	RZA_IO_RegWrite_16
 2117              	.LVL257:
1543:../generate/sc_drivers/r_scifa/src/lld/r_rza2_scifa_lld.c **** 
1544:../generate/sc_drivers/r_scifa/src/lld/r_rza2_scifa_lld.c ****     return (DRV_SUCCESS);
 2118              		.loc 1 1544 0
 2119 002c 0000A0E3 		mov	r0, #0
 2120 0030 1080BDE8 		pop	{r4, pc}
 2121              	.LVL258:
 2122              	.L253:
 2123              		.cfi_def_cfa_offset 0
 2124              		.cfi_restore 4
 2125              		.cfi_restore 14
1538:../generate/sc_drivers/r_scifa/src/lld/r_rza2_scifa_lld.c ****     }
 2126              		.loc 1 1538 0
 2127 0034 0000E0E3 		mvn	r0, #0
 2128              	.LVL259:
 2129 0038 1EFF2FE1 		bx	lr
 2130              		.cfi_endproc
 2131              	.LFE36:
 2133              		.section	.text.R_SCIFA_SetFIFOThreshold,"ax",%progbits
 2134              		.align	2
 2135              		.global	R_SCIFA_SetFIFOThreshold
 2136              		.syntax unified
 2137              		.arm
 2138              		.fpu neon
 2140              	R_SCIFA_SetFIFOThreshold:
 2141              	.LFB37:
1545:../generate/sc_drivers/r_scifa/src/lld/r_rza2_scifa_lld.c **** }
1546:../generate/sc_drivers/r_scifa/src/lld/r_rza2_scifa_lld.c **** /**************************************************************************************************
1547:../generate/sc_drivers/r_scifa/src/lld/r_rza2_scifa_lld.c ****  * End of Function R_SCIFA_SetClock
1548:../generate/sc_drivers/r_scifa/src/lld/r_rza2_scifa_lld.c ****  **************************************************************************************************
1549:../generate/sc_drivers/r_scifa/src/lld/r_rza2_scifa_lld.c **** 
1550:../generate/sc_drivers/r_scifa/src/lld/r_rza2_scifa_lld.c **** /**
1551:../generate/sc_drivers/r_scifa/src/lld/r_rza2_scifa_lld.c ****  * @brief sets up FIFO control
1552:../generate/sc_drivers/r_scifa/src/lld/r_rza2_scifa_lld.c ****  *
1553:../generate/sc_drivers/r_scifa/src/lld/r_rza2_scifa_lld.c ****  * @param[in] channel: channel to set FIFO for
1554:../generate/sc_drivers/r_scifa/src/lld/r_rza2_scifa_lld.c ****  * @param[in] tx_trg: TX FIFO trigger setting
1555:../generate/sc_drivers/r_scifa/src/lld/r_rza2_scifa_lld.c ****  * @param[in] rx_trg: RX FIFO trigger setting
1556:../generate/sc_drivers/r_scifa/src/lld/r_rza2_scifa_lld.c ****  *
1557:../generate/sc_drivers/r_scifa/src/lld/r_rza2_scifa_lld.c ****  * @retval  0 DRV_SUCCESS
1558:../generate/sc_drivers/r_scifa/src/lld/r_rza2_scifa_lld.c ****  * @retval -1 DRV_ERROR 
1559:../generate/sc_drivers/r_scifa/src/lld/r_rza2_scifa_lld.c ****  */
1560:../generate/sc_drivers/r_scifa/src/lld/r_rza2_scifa_lld.c **** int_t R_SCIFA_SetFIFOThreshold(r_channel_t channel, uint8_t tx_trg, uint8_t rx_trg)
1561:../generate/sc_drivers/r_scifa/src/lld/r_rza2_scifa_lld.c **** {
 2142              		.loc 1 1561 0
 2143              		.cfi_startproc
 2144              		@ args = 0, pretend = 0, frame = 0
 2145              		@ frame_needed = 0, uses_anonymous_args = 0
 2146              	.LVL260:
1562:../generate/sc_drivers/r_scifa/src/lld/r_rza2_scifa_lld.c ****     if ((channel > R_PRV_CFG_SCIF_LAST_CHANNEL) || (channel < 0))
 2147              		.loc 1 1562 0
 2148 0000 7030EFE6 		uxtb	r3, r0
 2149 0004 050053E3 		cmp	r3, #5
 2150 0008 2B00008A 		bhi	.L260
1563:../generate/sc_drivers/r_scifa/src/lld/r_rza2_scifa_lld.c ****     {
1564:../generate/sc_drivers/r_scifa/src/lld/r_rza2_scifa_lld.c ****         return (DRV_ERROR);
1565:../generate/sc_drivers/r_scifa/src/lld/r_rza2_scifa_lld.c ****     }
1566:../generate/sc_drivers/r_scifa/src/lld/r_rza2_scifa_lld.c **** 
1567:../generate/sc_drivers/r_scifa/src/lld/r_rza2_scifa_lld.c ****     /* Check TX FIFO Threshold is correct */
1568:../generate/sc_drivers/r_scifa/src/lld/r_rza2_scifa_lld.c ****     if (tx_trg > R_PRV_TX_FIFO_MAX_TRG)
 2151              		.loc 1 1568 0
 2152 000c 0F0051E3 		cmp	r1, #15
 2153 0010 2B00008A 		bhi	.L261
1569:../generate/sc_drivers/r_scifa/src/lld/r_rza2_scifa_lld.c ****     {
1570:../generate/sc_drivers/r_scifa/src/lld/r_rza2_scifa_lld.c ****         return (DRV_ERROR);
1571:../generate/sc_drivers/r_scifa/src/lld/r_rza2_scifa_lld.c ****     }
1572:../generate/sc_drivers/r_scifa/src/lld/r_rza2_scifa_lld.c **** 
1573:../generate/sc_drivers/r_scifa/src/lld/r_rza2_scifa_lld.c ****     /* Check RX FIFO Threshold is correct */
1574:../generate/sc_drivers/r_scifa/src/lld/r_rza2_scifa_lld.c ****     if ((rx_trg > R_PRV_RX_FIFO_MAX_TRG) || (rx_trg < R_PRV_RX_FIFO_MIN_TRG))
 2154              		.loc 1 1574 0
 2155 0014 013042E2 		sub	r3, r2, #1
 2156 0018 7330EFE6 		uxtb	r3, r3
 2157 001c 0F0053E3 		cmp	r3, #15
 2158 0020 2900008A 		bhi	.L262
1561:../generate/sc_drivers/r_scifa/src/lld/r_rza2_scifa_lld.c ****     if ((channel > R_PRV_CFG_SCIF_LAST_CHANNEL) || (channel < 0))
 2159              		.loc 1 1561 0
 2160 0024 70402DE9 		push	{r4, r5, r6, lr}
 2161              		.cfi_def_cfa_offset 16
 2162              		.cfi_offset 4, -16
 2163              		.cfi_offset 5, -12
 2164              		.cfi_offset 6, -8
 2165              		.cfi_offset 14, -4
 2166 0028 0250A0E1 		mov	r5, r2
1575:../generate/sc_drivers/r_scifa/src/lld/r_rza2_scifa_lld.c ****     {
1576:../generate/sc_drivers/r_scifa/src/lld/r_rza2_scifa_lld.c ****         return (DRV_ERROR);
1577:../generate/sc_drivers/r_scifa/src/lld/r_rza2_scifa_lld.c ****     }
1578:../generate/sc_drivers/r_scifa/src/lld/r_rza2_scifa_lld.c **** 
1579:../generate/sc_drivers/r_scifa/src/lld/r_rza2_scifa_lld.c ****     /* Set TX Threshold */
1580:../generate/sc_drivers/r_scifa/src/lld/r_rza2_scifa_lld.c ****     RZA_IO_RegWrite_16((volatile uint16_t *) &gsp_scifa[channel]->FTCR.WORD, tx_trg, SCIFA_FTCR_TFT
 2167              		.loc 1 1580 0
 2168 002c 003000E3 		movw	r3, #:lower16:.LANCHOR0
 2169 0030 003040E3 		movt	r3, #:upper16:.LANCHOR0
 2170 0034 004193E7 		ldr	r4, [r3, r0, lsl #2]
 2171 0038 166084E2 		add	r6, r4, #22
 2172 003c 1F30A0E3 		mov	r3, #31
 2173 0040 0020A0E3 		mov	r2, #0
 2174              	.LVL261:
 2175 0044 0600A0E1 		mov	r0, r6
 2176              	.LVL262:
 2177 0048 FEFFFFEB 		bl	RZA_IO_RegWrite_16
 2178              	.LVL263:
1581:../generate/sc_drivers/r_scifa/src/lld/r_rza2_scifa_lld.c **** 
1582:../generate/sc_drivers/r_scifa/src/lld/r_rza2_scifa_lld.c ****     /* Set RX Threshold */
1583:../generate/sc_drivers/r_scifa/src/lld/r_rza2_scifa_lld.c ****     RZA_IO_RegWrite_16((volatile uint16_t *) &gsp_scifa[channel]->FTCR.WORD, rx_trg, SCIFA_FTCR_RFT
 2179              		.loc 1 1583 0
 2180 004c 1F3CA0E3 		mov	r3, #7936
 2181 0050 0820A0E3 		mov	r2, #8
 2182 0054 0510A0E1 		mov	r1, r5
 2183 0058 0600A0E1 		mov	r0, r6
 2184 005c FEFFFFEB 		bl	RZA_IO_RegWrite_16
 2185              	.LVL264:
1584:../generate/sc_drivers/r_scifa/src/lld/r_rza2_scifa_lld.c **** 
1585:../generate/sc_drivers/r_scifa/src/lld/r_rza2_scifa_lld.c ****     /* TX - Use the FTCR Trigger settings instead of FCR - giving user more control */
