   1              		.cpu cortex-a9
   2              		.eabi_attribute 28, 1
   3              		.eabi_attribute 20, 1
   4              		.eabi_attribute 21, 1
   5              		.eabi_attribute 23, 3
   6              		.eabi_attribute 24, 1
   7              		.eabi_attribute 25, 1
   8              		.eabi_attribute 26, 1
   9              		.eabi_attribute 30, 1
  10              		.eabi_attribute 34, 0
  11              		.eabi_attribute 18, 4
  12              		.file	"r_rza2_scifa_lld.c"
  13              		.text
  14              	.Ltext0:
  15              		.cfi_sections	.debug_frame
  16              		.section	.text.R_SCIFA_Start,"ax",%progbits
  17              		.align	2
  18              		.global	R_SCIFA_Start
  19              		.syntax unified
  20              		.arm
  21              		.fpu neon
  23              	R_SCIFA_Start:
  24              	.LFB1:
  25              		.file 1 "../generate/sc_drivers/r_scifa/src/lld/r_rza2_scifa_lld.c"
   1:../generate/sc_drivers/r_scifa/src/lld/r_rza2_scifa_lld.c **** /**************************************************************************************************
   2:../generate/sc_drivers/r_scifa/src/lld/r_rza2_scifa_lld.c ****  * DISCLAIMER
   3:../generate/sc_drivers/r_scifa/src/lld/r_rza2_scifa_lld.c ****  * This software is supplied by Renesas Electronics Corporation and is only
   4:../generate/sc_drivers/r_scifa/src/lld/r_rza2_scifa_lld.c ****  * intended for use with Renesas products. No other uses are authorized. This
   5:../generate/sc_drivers/r_scifa/src/lld/r_rza2_scifa_lld.c ****  * software is owned by Renesas Electronics Corporation and is protected under
   6:../generate/sc_drivers/r_scifa/src/lld/r_rza2_scifa_lld.c ****  * all applicable laws, including copyright laws.
   7:../generate/sc_drivers/r_scifa/src/lld/r_rza2_scifa_lld.c ****  * THIS SOFTWARE IS PROVIDED "AS IS" AND RENESAS MAKES NO WARRANTIES REGARDING
   8:../generate/sc_drivers/r_scifa/src/lld/r_rza2_scifa_lld.c ****  * THIS SOFTWARE, WHETHER EXPRESS, IMPLIED OR STATUTORY, INCLUDING BUT NOT
   9:../generate/sc_drivers/r_scifa/src/lld/r_rza2_scifa_lld.c ****  * LIMITED TO WARRANTIES OF MERCHANTABILITY, FITNESS FOR A PARTICULAR PURPOSE
  10:../generate/sc_drivers/r_scifa/src/lld/r_rza2_scifa_lld.c ****  * AND NON-INFRINGEMENT. ALL SUCH WARRANTIES ARE EXPRESSLY DISCLAIMED.
  11:../generate/sc_drivers/r_scifa/src/lld/r_rza2_scifa_lld.c ****  * TO THE MAXIMUM EXTENT PERMITTED NOT PROHIBITED BY LAW, NEITHER RENESAS
  12:../generate/sc_drivers/r_scifa/src/lld/r_rza2_scifa_lld.c ****  * ELECTRONICS CORPORATION NOR ANY OF ITS AFFILIATED COMPANIES SHALL BE LIABLE
  13:../generate/sc_drivers/r_scifa/src/lld/r_rza2_scifa_lld.c ****  * FOR ANY DIRECT, INDIRECT, SPECIAL, INCIDENTAL OR CONSEQUENTIAL DAMAGES FOR
  14:../generate/sc_drivers/r_scifa/src/lld/r_rza2_scifa_lld.c ****  * ANY REASON RELATED TO THIS SOFTWARE, EVEN IF RENESAS OR ITS AFFILIATES HAVE
  15:../generate/sc_drivers/r_scifa/src/lld/r_rza2_scifa_lld.c ****  * BEEN ADVISED OF THE POSSIBILITY OF SUCH DAMAGES.
  16:../generate/sc_drivers/r_scifa/src/lld/r_rza2_scifa_lld.c ****  * Renesas reserves the right, without notice, to make changes to this software
  17:../generate/sc_drivers/r_scifa/src/lld/r_rza2_scifa_lld.c ****  * and to discontinue the availability of this software. By using this software,
  18:../generate/sc_drivers/r_scifa/src/lld/r_rza2_scifa_lld.c ****  * you agree to the additional terms and conditions found by accessing the
  19:../generate/sc_drivers/r_scifa/src/lld/r_rza2_scifa_lld.c ****  * following link:
  20:../generate/sc_drivers/r_scifa/src/lld/r_rza2_scifa_lld.c ****  * http://www.renesas.com/disclaimer
  21:../generate/sc_drivers/r_scifa/src/lld/r_rza2_scifa_lld.c ****  *
  22:../generate/sc_drivers/r_scifa/src/lld/r_rza2_scifa_lld.c ****  * Copyright (C) 2019 Renesas Electronics Corporation. All rights reserved.
  23:../generate/sc_drivers/r_scifa/src/lld/r_rza2_scifa_lld.c ****  **************************************************************************************************
  24:../generate/sc_drivers/r_scifa/src/lld/r_rza2_scifa_lld.c **** /**************************************************************************************************
  25:../generate/sc_drivers/r_scifa/src/lld/r_rza2_scifa_lld.c ****  * @file          r_rza2_scifa_lld.c
  26:../generate/sc_drivers/r_scifa/src/lld/r_rza2_scifa_lld.c ****  * Device(s)      RZ/A2
  27:../generate/sc_drivers/r_scifa/src/lld/r_rza2_scifa_lld.c ****  * Tool-Chain     GCC ARM Embedded 5.4 2016q3
  28:../generate/sc_drivers/r_scifa/src/lld/r_rza2_scifa_lld.c ****  * H/W Platform   RZ/A2
  29:../generate/sc_drivers/r_scifa/src/lld/r_rza2_scifa_lld.c ****  * @brief         SCIFA Low Layer Driver
  30:../generate/sc_drivers/r_scifa/src/lld/r_rza2_scifa_lld.c ****  **************************************************************************************************
  31:../generate/sc_drivers/r_scifa/src/lld/r_rza2_scifa_lld.c **** /**************************************************************************************************
  32:../generate/sc_drivers/r_scifa/src/lld/r_rza2_scifa_lld.c ****  * History      : DD.MM.YYYY Version Description
  33:../generate/sc_drivers/r_scifa/src/lld/r_rza2_scifa_lld.c ****  *              : 15.05.2018 1.00    Release
  34:../generate/sc_drivers/r_scifa/src/lld/r_rza2_scifa_lld.c ****  *              : 23.05.2019 1.01    Restructuring to ensure that other LLDs are only accessed from
  35:../generate/sc_drivers/r_scifa/src/lld/r_rza2_scifa_lld.c ****  **************************************************************************************************
  36:../generate/sc_drivers/r_scifa/src/lld/r_rza2_scifa_lld.c **** 
  37:../generate/sc_drivers/r_scifa/src/lld/r_rza2_scifa_lld.c **** /**************************************************************************************************
  38:../generate/sc_drivers/r_scifa/src/lld/r_rza2_scifa_lld.c ****  Includes   <System Includes> , "Project Includes"
  39:../generate/sc_drivers/r_scifa/src/lld/r_rza2_scifa_lld.c ****  **************************************************************************************************
  40:../generate/sc_drivers/r_scifa/src/lld/r_rza2_scifa_lld.c **** #include <string.h>
  41:../generate/sc_drivers/r_scifa/src/lld/r_rza2_scifa_lld.c **** 
  42:../generate/sc_drivers/r_scifa/src/lld/r_rza2_scifa_lld.c **** #include "r_typedefs.h"
  43:../generate/sc_drivers/r_scifa/src/lld/r_rza2_scifa_lld.c **** #include "iodefine.h"
  44:../generate/sc_drivers/r_scifa/src/lld/r_rza2_scifa_lld.c **** #include "iobitmask.h"
  45:../generate/sc_drivers/r_scifa/src/lld/r_rza2_scifa_lld.c **** #include "rza_io_regrw.h"              /* Low level register read/write header */
  46:../generate/sc_drivers/r_scifa/src/lld/r_rza2_scifa_lld.c **** 
  47:../generate/sc_drivers/r_scifa/src/lld/r_rza2_scifa_lld.c **** /* Driver Includes */
  48:../generate/sc_drivers/r_scifa/src/lld/r_rza2_scifa_lld.c **** #include "driver.h"                    /* Device driver header */
  49:../generate/sc_drivers/r_scifa/src/lld/r_rza2_scifa_lld.c **** #include "r_rza2_scifa_lld.h"          /* Low Layer Driver header */
  50:../generate/sc_drivers/r_scifa/src/lld/r_rza2_scifa_lld.c **** #include "r_rza2_scifa_lld_cfg.h"      /* Low Layer Driver configuration header */
  51:../generate/sc_drivers/r_scifa/src/lld/r_rza2_scifa_lld.c **** #include "r_scifa_drv_sc_cfg.h"
  52:../generate/sc_drivers/r_scifa/src/lld/r_rza2_scifa_lld.c **** #include "r_stb_drv_link.h"            /* STB driver */
  53:../generate/sc_drivers/r_scifa/src/lld/r_rza2_scifa_lld.c **** #include "r_cpg_drv_api.h"             /* CPG driver */
  54:../generate/sc_drivers/r_scifa/src/lld/r_rza2_scifa_lld.c **** 
  55:../generate/sc_drivers/r_scifa/src/lld/r_rza2_scifa_lld.c **** /**************************************************************************************************
  56:../generate/sc_drivers/r_scifa/src/lld/r_rza2_scifa_lld.c ****  Macro definitions
  57:../generate/sc_drivers/r_scifa/src/lld/r_rza2_scifa_lld.c ****  **************************************************************************************************
  58:../generate/sc_drivers/r_scifa/src/lld/r_rza2_scifa_lld.c **** 
  59:../generate/sc_drivers/r_scifa/src/lld/r_rza2_scifa_lld.c **** #define R_PRV_TX_FIFO_LENGTH        (16)
  60:../generate/sc_drivers/r_scifa/src/lld/r_rza2_scifa_lld.c **** #define R_PRV_RX_FIFO_EMPTY         (0)
  61:../generate/sc_drivers/r_scifa/src/lld/r_rza2_scifa_lld.c **** 
  62:../generate/sc_drivers/r_scifa/src/lld/r_rza2_scifa_lld.c **** #define R_PRV_TX_FIFO_MAX_TRG       (0x0Fu)
  63:../generate/sc_drivers/r_scifa/src/lld/r_rza2_scifa_lld.c **** #define R_PRV_TX_FIFO_MIN_TRG       (0x00u)
  64:../generate/sc_drivers/r_scifa/src/lld/r_rza2_scifa_lld.c **** #define R_PRV_RX_FIFO_MAX_TRG       (0x10u)
  65:../generate/sc_drivers/r_scifa/src/lld/r_rza2_scifa_lld.c **** #define R_PRV_RX_FIFO_MIN_TRG       (0x01u)
  66:../generate/sc_drivers/r_scifa/src/lld/r_rza2_scifa_lld.c **** 
  67:../generate/sc_drivers/r_scifa/src/lld/r_rza2_scifa_lld.c **** #define R_PRV_SCIFA_CHANNEL_0       (0)
  68:../generate/sc_drivers/r_scifa/src/lld/r_rza2_scifa_lld.c **** #define R_PRV_SCIFA_CHANNEL_1       (1)
  69:../generate/sc_drivers/r_scifa/src/lld/r_rza2_scifa_lld.c **** #define R_PRV_SCIFA_CHANNEL_2       (2)
  70:../generate/sc_drivers/r_scifa/src/lld/r_rza2_scifa_lld.c **** #define R_PRV_SCIFA_CHANNEL_3       (3)
  71:../generate/sc_drivers/r_scifa/src/lld/r_rza2_scifa_lld.c **** #define R_PRV_SCIFA_CHANNEL_4       (4)
  72:../generate/sc_drivers/r_scifa/src/lld/r_rza2_scifa_lld.c **** 
  73:../generate/sc_drivers/r_scifa/src/lld/r_rza2_scifa_lld.c **** 
  74:../generate/sc_drivers/r_scifa/src/lld/r_rza2_scifa_lld.c **** /**************************************************************************************************
  75:../generate/sc_drivers/r_scifa/src/lld/r_rza2_scifa_lld.c ****  Typedefs
  76:../generate/sc_drivers/r_scifa/src/lld/r_rza2_scifa_lld.c ****  **************************************************************************************************
  77:../generate/sc_drivers/r_scifa/src/lld/r_rza2_scifa_lld.c **** 
  78:../generate/sc_drivers/r_scifa/src/lld/r_rza2_scifa_lld.c **** /**************************************************************************************************
  79:../generate/sc_drivers/r_scifa/src/lld/r_rza2_scifa_lld.c ****  Private global variables and functions
  80:../generate/sc_drivers/r_scifa/src/lld/r_rza2_scifa_lld.c ****  **************************************************************************************************
  81:../generate/sc_drivers/r_scifa/src/lld/r_rza2_scifa_lld.c **** /**
  82:../generate/sc_drivers/r_scifa/src/lld/r_rza2_scifa_lld.c ****  * @section st_scifa structure used for register access of SCIFA channels
  83:../generate/sc_drivers/r_scifa/src/lld/r_rza2_scifa_lld.c ****  */
  84:../generate/sc_drivers/r_scifa/src/lld/r_rza2_scifa_lld.c **** static volatile struct st_scifa *gsp_scifa[SCIFA_CFG_LLD_NUM_CHANNELS] =
  85:../generate/sc_drivers/r_scifa/src/lld/r_rza2_scifa_lld.c **** {
  86:../generate/sc_drivers/r_scifa/src/lld/r_rza2_scifa_lld.c ****     /* SCIFA channels */
  87:../generate/sc_drivers/r_scifa/src/lld/r_rza2_scifa_lld.c ****     &SCIFA0, &SCIFA1, &SCIFA2, &SCIFA3, &SCIFA4
  88:../generate/sc_drivers/r_scifa/src/lld/r_rza2_scifa_lld.c **** };
  89:../generate/sc_drivers/r_scifa/src/lld/r_rza2_scifa_lld.c **** 
  90:../generate/sc_drivers/r_scifa/src/lld/r_rza2_scifa_lld.c **** /**************************************************************************************************
  91:../generate/sc_drivers/r_scifa/src/lld/r_rza2_scifa_lld.c ****  Prototypes
  92:../generate/sc_drivers/r_scifa/src/lld/r_rza2_scifa_lld.c ****  **************************************************************************************************
  93:../generate/sc_drivers/r_scifa/src/lld/r_rza2_scifa_lld.c **** 
  94:../generate/sc_drivers/r_scifa/src/lld/r_rza2_scifa_lld.c **** /**************************************************************************************************
  95:../generate/sc_drivers/r_scifa/src/lld/r_rza2_scifa_lld.c ****  Public Function Definitions
  96:../generate/sc_drivers/r_scifa/src/lld/r_rza2_scifa_lld.c ****  **************************************************************************************************
  97:../generate/sc_drivers/r_scifa/src/lld/r_rza2_scifa_lld.c **** 
  98:../generate/sc_drivers/r_scifa/src/lld/r_rza2_scifa_lld.c **** /**
  99:../generate/sc_drivers/r_scifa/src/lld/r_rza2_scifa_lld.c ****  * @brief Starts the SCIFA channel allowing reading/writing
 100:../generate/sc_drivers/r_scifa/src/lld/r_rza2_scifa_lld.c ****  *
 101:../generate/sc_drivers/r_scifa/src/lld/r_rza2_scifa_lld.c ****  * R_SCIFA_Start starts an SCIFA channel according to the
 102:../generate/sc_drivers/r_scifa/src/lld/r_rza2_scifa_lld.c ****  * read_write variable, this determines whether Transmit
 103:../generate/sc_drivers/r_scifa/src/lld/r_rza2_scifa_lld.c ****  * Enable and Receive Enable are turned on. Or just one,
 104:../generate/sc_drivers/r_scifa/src/lld/r_rza2_scifa_lld.c ****  * for read-only or write-only access
 105:../generate/sc_drivers/r_scifa/src/lld/r_rza2_scifa_lld.c ****  *
 106:../generate/sc_drivers/r_scifa/src/lld/r_rza2_scifa_lld.c ****  * @param[in] channel: SCIFA channel to be started
 107:../generate/sc_drivers/r_scifa/src/lld/r_rza2_scifa_lld.c ****  * @param[in] read_write: read/write permission setting
 108:../generate/sc_drivers/r_scifa/src/lld/r_rza2_scifa_lld.c ****  *
 109:../generate/sc_drivers/r_scifa/src/lld/r_rza2_scifa_lld.c ****  * @retval  0 DRV_SUCCESS
 110:../generate/sc_drivers/r_scifa/src/lld/r_rza2_scifa_lld.c ****  * @retval -1 DRV_ERROR 
 111:../generate/sc_drivers/r_scifa/src/lld/r_rza2_scifa_lld.c ****  */
 112:../generate/sc_drivers/r_scifa/src/lld/r_rza2_scifa_lld.c **** int_t R_SCIFA_Start (r_channel_t channel, int_t read_write)
 113:../generate/sc_drivers/r_scifa/src/lld/r_rza2_scifa_lld.c **** {
  26              		.loc 1 113 0
  27              		.cfi_startproc
  28              		@ args = 0, pretend = 0, frame = 0
  29              		@ frame_needed = 0, uses_anonymous_args = 0
  30              	.LVL0:
 114:../generate/sc_drivers/r_scifa/src/lld/r_rza2_scifa_lld.c ****     /* check arguments */
 115:../generate/sc_drivers/r_scifa/src/lld/r_rza2_scifa_lld.c ****     if ((channel >= SCIFA_CFG_LLD_NUM_CHANNELS) || (channel < 0))
  31              		.loc 1 115 0
  32 0000 7030EFE6 		uxtb	r3, r0
  33 0004 040053E3 		cmp	r3, #4
  34 0008 2400008A 		bhi	.L4
 113:../generate/sc_drivers/r_scifa/src/lld/r_rza2_scifa_lld.c ****     /* check arguments */
  35              		.loc 1 113 0
  36 000c 70402DE9 		push	{r4, r5, r6, lr}
  37              		.cfi_def_cfa_offset 16
  38              		.cfi_offset 4, -16
  39              		.cfi_offset 5, -12
  40              		.cfi_offset 6, -8
  41              		.cfi_offset 14, -4
  42 0010 0150A0E1 		mov	r5, r1
  43 0014 0040A0E1 		mov	r4, r0
 116:../generate/sc_drivers/r_scifa/src/lld/r_rza2_scifa_lld.c ****     {
 117:../generate/sc_drivers/r_scifa/src/lld/r_rza2_scifa_lld.c ****         return (DRV_ERROR);
 118:../generate/sc_drivers/r_scifa/src/lld/r_rza2_scifa_lld.c ****     }
 119:../generate/sc_drivers/r_scifa/src/lld/r_rza2_scifa_lld.c **** 
 120:../generate/sc_drivers/r_scifa/src/lld/r_rza2_scifa_lld.c ****     if ((read_write & __SWR) > 0)
  44              		.loc 1 120 0
  45 0018 080011E3 		tst	r1, #8
  46 001c 0D00000A 		beq	.L3
 121:../generate/sc_drivers/r_scifa/src/lld/r_rza2_scifa_lld.c ****     {
 122:../generate/sc_drivers/r_scifa/src/lld/r_rza2_scifa_lld.c ****         /* Enable transmit */
 123:../generate/sc_drivers/r_scifa/src/lld/r_rza2_scifa_lld.c ****         RZA_IO_RegWrite_16((volatile uint16_t *) &gsp_scifa[channel]->SCR.WORD, (uint16_t) 1, SCIFA
  47              		.loc 1 123 0
  48 0020 003000E3 		movw	r3, #:lower16:.LANCHOR0
  49 0024 003040E3 		movt	r3, #:upper16:.LANCHOR0
  50 0028 006193E7 		ldr	r6, [r3, r0, lsl #2]
  51 002c 046086E2 		add	r6, r6, #4
  52 0030 2030A0E3 		mov	r3, #32
  53 0034 0520A0E3 		mov	r2, #5
  54 0038 0110A0E3 		mov	r1, #1
  55              	.LVL1:
  56 003c 0600A0E1 		mov	r0, r6
  57              	.LVL2:
  58 0040 FEFFFFEB 		bl	RZA_IO_RegWrite_16
  59              	.LVL3:
 124:../generate/sc_drivers/r_scifa/src/lld/r_rza2_scifa_lld.c **** 
 125:../generate/sc_drivers/r_scifa/src/lld/r_rza2_scifa_lld.c ****         /* Disable transmit interrupt */
 126:../generate/sc_drivers/r_scifa/src/lld/r_rza2_scifa_lld.c ****         RZA_IO_RegWrite_16((volatile uint16_t *) &gsp_scifa[channel]->SCR.WORD, (uint16_t) 0, SCIFA
  60              		.loc 1 126 0
  61 0044 8030A0E3 		mov	r3, #128
  62 0048 0720A0E3 		mov	r2, #7
  63 004c 0010A0E3 		mov	r1, #0
  64 0050 0600A0E1 		mov	r0, r6
  65 0054 FEFFFFEB 		bl	RZA_IO_RegWrite_16
  66              	.LVL4:
  67              	.L3:
 127:../generate/sc_drivers/r_scifa/src/lld/r_rza2_scifa_lld.c ****     }
 128:../generate/sc_drivers/r_scifa/src/lld/r_rza2_scifa_lld.c **** 
 129:../generate/sc_drivers/r_scifa/src/lld/r_rza2_scifa_lld.c ****     if ((read_write & __SRD) > 0)
  68              		.loc 1 129 0
  69 0058 040015E3 		tst	r5, #4
  70 005c 1100000A 		beq	.L5
 130:../generate/sc_drivers/r_scifa/src/lld/r_rza2_scifa_lld.c ****     {
 131:../generate/sc_drivers/r_scifa/src/lld/r_rza2_scifa_lld.c ****         /* Enable receive */
 132:../generate/sc_drivers/r_scifa/src/lld/r_rza2_scifa_lld.c ****         RZA_IO_RegWrite_16((volatile uint16_t *) &gsp_scifa[channel]->SCR.WORD, (uint16_t) 1, SCIFA
  71              		.loc 1 132 0
  72 0060 003000E3 		movw	r3, #:lower16:.LANCHOR0
  73 0064 003040E3 		movt	r3, #:upper16:.LANCHOR0
  74 0068 044193E7 		ldr	r4, [r3, r4, lsl #2]
  75 006c 044084E2 		add	r4, r4, #4
  76 0070 1030A0E3 		mov	r3, #16
  77 0074 0420A0E3 		mov	r2, #4
  78 0078 0110A0E3 		mov	r1, #1
  79 007c 0400A0E1 		mov	r0, r4
  80 0080 FEFFFFEB 		bl	RZA_IO_RegWrite_16
  81              	.LVL5:
 133:../generate/sc_drivers/r_scifa/src/lld/r_rza2_scifa_lld.c **** 
 134:../generate/sc_drivers/r_scifa/src/lld/r_rza2_scifa_lld.c ****         /* Enable receive interrupt */
 135:../generate/sc_drivers/r_scifa/src/lld/r_rza2_scifa_lld.c ****         RZA_IO_RegWrite_16((volatile uint16_t *) &gsp_scifa[channel]->SCR.WORD, (uint16_t) 1, SCIFA
  82              		.loc 1 135 0
  83 0084 4030A0E3 		mov	r3, #64
  84 0088 0620A0E3 		mov	r2, #6
  85 008c 0110A0E3 		mov	r1, #1
  86 0090 0400A0E1 		mov	r0, r4
  87 0094 FEFFFFEB 		bl	RZA_IO_RegWrite_16
  88              	.LVL6:
 136:../generate/sc_drivers/r_scifa/src/lld/r_rza2_scifa_lld.c ****     }
 137:../generate/sc_drivers/r_scifa/src/lld/r_rza2_scifa_lld.c **** 
 138:../generate/sc_drivers/r_scifa/src/lld/r_rza2_scifa_lld.c ****     return (DRV_SUCCESS);
  89              		.loc 1 138 0
  90 0098 0000A0E3 		mov	r0, #0
  91 009c 7080BDE8 		pop	{r4, r5, r6, pc}
  92              	.LVL7:
  93              	.L4:
  94              		.cfi_def_cfa_offset 0
  95              		.cfi_restore 4
  96              		.cfi_restore 5
  97              		.cfi_restore 6
  98              		.cfi_restore 14
 117:../generate/sc_drivers/r_scifa/src/lld/r_rza2_scifa_lld.c ****     }
  99              		.loc 1 117 0
 100 00a0 0000E0E3 		mvn	r0, #0
 101              	.LVL8:
 102 00a4 1EFF2FE1 		bx	lr
 103              	.LVL9:
 104              	.L5:
 105              		.cfi_def_cfa_offset 16
 106              		.cfi_offset 4, -16
 107              		.cfi_offset 5, -12
 108              		.cfi_offset 6, -8
 109              		.cfi_offset 14, -4
 110              		.loc 1 138 0
 111 00a8 0000A0E3 		mov	r0, #0
 139:../generate/sc_drivers/r_scifa/src/lld/r_rza2_scifa_lld.c **** }
 112              		.loc 1 139 0
 113 00ac 7080BDE8 		pop	{r4, r5, r6, pc}
 114              		.cfi_endproc
 115              	.LFE1:
 117              		.section	.text.R_SCIFA_Stop,"ax",%progbits
 118              		.align	2
 119              		.global	R_SCIFA_Stop
 120              		.syntax unified
 121              		.arm
 122              		.fpu neon
 124              	R_SCIFA_Stop:
 125              	.LFB2:
 140:../generate/sc_drivers/r_scifa/src/lld/r_rza2_scifa_lld.c **** /**************************************************************************************************
 141:../generate/sc_drivers/r_scifa/src/lld/r_rza2_scifa_lld.c ****  * End of Function R_SCIFA_Start
 142:../generate/sc_drivers/r_scifa/src/lld/r_rza2_scifa_lld.c ****   *************************************************************************************************
 143:../generate/sc_drivers/r_scifa/src/lld/r_rza2_scifa_lld.c **** 
 144:../generate/sc_drivers/r_scifa/src/lld/r_rza2_scifa_lld.c **** /**
 145:../generate/sc_drivers/r_scifa/src/lld/r_rza2_scifa_lld.c ****  * @brief Stops SCIFA channel operation
 146:../generate/sc_drivers/r_scifa/src/lld/r_rza2_scifa_lld.c ****  *
 147:../generate/sc_drivers/r_scifa/src/lld/r_rza2_scifa_lld.c ****  * R_SCIFA_Stop will turn off the Transmit/Receive enable for a given
 148:../generate/sc_drivers/r_scifa/src/lld/r_rza2_scifa_lld.c ****  * channel, it also prevents the device from triggering TXI and RXI
 149:../generate/sc_drivers/r_scifa/src/lld/r_rza2_scifa_lld.c ****  *
 150:../generate/sc_drivers/r_scifa/src/lld/r_rza2_scifa_lld.c ****  * @param[in] Channel: the channel to stop operation for
 151:../generate/sc_drivers/r_scifa/src/lld/r_rza2_scifa_lld.c ****  *
 152:../generate/sc_drivers/r_scifa/src/lld/r_rza2_scifa_lld.c ****  * @retval  0 DRV_SUCCESS
 153:../generate/sc_drivers/r_scifa/src/lld/r_rza2_scifa_lld.c ****  * @retval -1 DRV_ERROR 
 154:../generate/sc_drivers/r_scifa/src/lld/r_rza2_scifa_lld.c ****  */
 155:../generate/sc_drivers/r_scifa/src/lld/r_rza2_scifa_lld.c **** int_t R_SCIFA_Stop (r_channel_t channel)
 156:../generate/sc_drivers/r_scifa/src/lld/r_rza2_scifa_lld.c **** {
 126              		.loc 1 156 0
 127              		.cfi_startproc
 128              		@ args = 0, pretend = 0, frame = 0
 129              		@ frame_needed = 0, uses_anonymous_args = 0
 130              	.LVL10:
 157:../generate/sc_drivers/r_scifa/src/lld/r_rza2_scifa_lld.c ****     /* check arguments */
 158:../generate/sc_drivers/r_scifa/src/lld/r_rza2_scifa_lld.c ****     if ((channel >= SCIFA_CFG_LLD_NUM_CHANNELS) || (channel < 0))
 131              		.loc 1 158 0
 132 0000 7030EFE6 		uxtb	r3, r0
 133 0004 040053E3 		cmp	r3, #4
 134 0008 1A00008A 		bhi	.L12
 156:../generate/sc_drivers/r_scifa/src/lld/r_rza2_scifa_lld.c ****     /* check arguments */
 135              		.loc 1 156 0
 136 000c 10402DE9 		push	{r4, lr}
 137              		.cfi_def_cfa_offset 8
 138              		.cfi_offset 4, -8
 139              		.cfi_offset 14, -4
 159:../generate/sc_drivers/r_scifa/src/lld/r_rza2_scifa_lld.c ****     {
 160:../generate/sc_drivers/r_scifa/src/lld/r_rza2_scifa_lld.c ****         return (DRV_ERROR);
 161:../generate/sc_drivers/r_scifa/src/lld/r_rza2_scifa_lld.c ****     }
 162:../generate/sc_drivers/r_scifa/src/lld/r_rza2_scifa_lld.c **** 
 163:../generate/sc_drivers/r_scifa/src/lld/r_rza2_scifa_lld.c ****     /* Disable transmit interrupt */
 164:../generate/sc_drivers/r_scifa/src/lld/r_rza2_scifa_lld.c ****     RZA_IO_RegWrite_16((volatile uint16_t *) &gsp_scifa[channel]->SCR.WORD, (uint16_t) 0, SCIFA_SCR
 140              		.loc 1 164 0
 141 0010 003000E3 		movw	r3, #:lower16:.LANCHOR0
 142 0014 003040E3 		movt	r3, #:upper16:.LANCHOR0
 143 0018 004193E7 		ldr	r4, [r3, r0, lsl #2]
 144 001c 044084E2 		add	r4, r4, #4
 145 0020 8030A0E3 		mov	r3, #128
 146 0024 0720A0E3 		mov	r2, #7
 147 0028 0010A0E3 		mov	r1, #0
 148 002c 0400A0E1 		mov	r0, r4
 149              	.LVL11:
 150 0030 FEFFFFEB 		bl	RZA_IO_RegWrite_16
 151              	.LVL12:
 165:../generate/sc_drivers/r_scifa/src/lld/r_rza2_scifa_lld.c **** 
 166:../generate/sc_drivers/r_scifa/src/lld/r_rza2_scifa_lld.c ****     /* Disable transmit */
 167:../generate/sc_drivers/r_scifa/src/lld/r_rza2_scifa_lld.c ****     RZA_IO_RegWrite_16((volatile uint16_t *) &gsp_scifa[channel]->SCR.WORD, (uint16_t) 0, SCIFA_SCR
 152              		.loc 1 167 0
 153 0034 2030A0E3 		mov	r3, #32
 154 0038 0520A0E3 		mov	r2, #5
 155 003c 0010A0E3 		mov	r1, #0
 156 0040 0400A0E1 		mov	r0, r4
 157 0044 FEFFFFEB 		bl	RZA_IO_RegWrite_16
 158              	.LVL13:
 168:../generate/sc_drivers/r_scifa/src/lld/r_rza2_scifa_lld.c **** 
 169:../generate/sc_drivers/r_scifa/src/lld/r_rza2_scifa_lld.c ****     /* Disable receive interrupt */
 170:../generate/sc_drivers/r_scifa/src/lld/r_rza2_scifa_lld.c ****     RZA_IO_RegWrite_16((volatile uint16_t *) &gsp_scifa[channel]->SCR.WORD, (uint16_t) 0, SCIFA_SCR
 159              		.loc 1 170 0
 160 0048 4030A0E3 		mov	r3, #64
 161 004c 0620A0E3 		mov	r2, #6
 162 0050 0010A0E3 		mov	r1, #0
 163 0054 0400A0E1 		mov	r0, r4
 164 0058 FEFFFFEB 		bl	RZA_IO_RegWrite_16
 165              	.LVL14:
 171:../generate/sc_drivers/r_scifa/src/lld/r_rza2_scifa_lld.c **** 
 172:../generate/sc_drivers/r_scifa/src/lld/r_rza2_scifa_lld.c ****     /* Disable receive */
 173:../generate/sc_drivers/r_scifa/src/lld/r_rza2_scifa_lld.c ****     RZA_IO_RegWrite_16((volatile uint16_t *) &gsp_scifa[channel]->SCR.WORD, (uint16_t) 0, SCIFA_SCR
 166              		.loc 1 173 0
 167 005c 1030A0E3 		mov	r3, #16
 168 0060 0420A0E3 		mov	r2, #4
 169 0064 0010A0E3 		mov	r1, #0
 170 0068 0400A0E1 		mov	r0, r4
 171 006c FEFFFFEB 		bl	RZA_IO_RegWrite_16
 172              	.LVL15:
 174:../generate/sc_drivers/r_scifa/src/lld/r_rza2_scifa_lld.c **** 
 175:../generate/sc_drivers/r_scifa/src/lld/r_rza2_scifa_lld.c ****     return (DRV_SUCCESS);
 173              		.loc 1 175 0
 174 0070 0000A0E3 		mov	r0, #0
 175 0074 1080BDE8 		pop	{r4, pc}
 176              	.LVL16:
 177              	.L12:
 178              		.cfi_def_cfa_offset 0
 179              		.cfi_restore 4
 180              		.cfi_restore 14
 160:../generate/sc_drivers/r_scifa/src/lld/r_rza2_scifa_lld.c ****     }
 181              		.loc 1 160 0
 182 0078 0000E0E3 		mvn	r0, #0
 183              	.LVL17:
 184 007c 1EFF2FE1 		bx	lr
 185              		.cfi_endproc
 186              	.LFE2:
 188              		.section	.text.R_SCIFA_GetChannel,"ax",%progbits
 189              		.align	2
 190              		.global	R_SCIFA_GetChannel
 191              		.syntax unified
 192              		.arm
 193              		.fpu neon
 195              	R_SCIFA_GetChannel:
 196              	.LFB3:
 176:../generate/sc_drivers/r_scifa/src/lld/r_rza2_scifa_lld.c **** }
 177:../generate/sc_drivers/r_scifa/src/lld/r_rza2_scifa_lld.c **** /**************************************************************************************************
 178:../generate/sc_drivers/r_scifa/src/lld/r_rza2_scifa_lld.c ****  * End of Function R_SCIFA_Stop
 179:../generate/sc_drivers/r_scifa/src/lld/r_rza2_scifa_lld.c ****  **************************************************************************************************
 180:../generate/sc_drivers/r_scifa/src/lld/r_rza2_scifa_lld.c **** 
 181:../generate/sc_drivers/r_scifa/src/lld/r_rza2_scifa_lld.c **** /**
 182:../generate/sc_drivers/r_scifa/src/lld/r_rza2_scifa_lld.c ****  * @brief R_SCIFA_GetChannel Converts SC table index into SCIFA channel
 183:../generate/sc_drivers/r_scifa/src/lld/r_rza2_scifa_lld.c ****  *
 184:../generate/sc_drivers/r_scifa/src/lld/r_rza2_scifa_lld.c ****  * This function interrogates SC table to determine which
 185:../generate/sc_drivers/r_scifa/src/lld/r_rza2_scifa_lld.c ****  * channel is described by sc_config
 186:../generate/sc_drivers/r_scifa/src/lld/r_rza2_scifa_lld.c ****  *
 187:../generate/sc_drivers/r_scifa/src/lld/r_rza2_scifa_lld.c ****  * @param[in] sc_config: configuration ID
 188:../generate/sc_drivers/r_scifa/src/lld/r_rza2_scifa_lld.c ****  *
 189:../generate/sc_drivers/r_scifa/src/lld/r_rza2_scifa_lld.c ****  * @retval  =>0: corresponding SCIFA channel
 190:../generate/sc_drivers/r_scifa/src/lld/r_rza2_scifa_lld.c ****  * @retval  -1 DRV_ERROR
 191:../generate/sc_drivers/r_scifa/src/lld/r_rza2_scifa_lld.c ****  */
 192:../generate/sc_drivers/r_scifa/src/lld/r_rza2_scifa_lld.c **** r_channel_t R_SCIFA_GetChannel (r_sc_index_t sc_config_index)
 193:../generate/sc_drivers/r_scifa/src/lld/r_rza2_scifa_lld.c **** {
 197              		.loc 1 193 0
 198              		.cfi_startproc
 199              		@ args = 0, pretend = 0, frame = 0
 200              		@ frame_needed = 0, uses_anonymous_args = 0
 201              		@ link register save eliminated.
 202              	.LVL18:
 194:../generate/sc_drivers/r_scifa/src/lld/r_rza2_scifa_lld.c ****     r_channel_t ret = DRV_ERROR;
 195:../generate/sc_drivers/r_scifa/src/lld/r_rza2_scifa_lld.c ****     r_sc_index_t sc_table_size = (sizeof(SCIFA_SC_TABLE)) / sizeof(st_r_drv_scifa_sc_config_t);
 196:../generate/sc_drivers/r_scifa/src/lld/r_rza2_scifa_lld.c **** 
 197:../generate/sc_drivers/r_scifa/src/lld/r_rza2_scifa_lld.c ****     /* Perform range check of sc_config to determine if index is available in st_r_drv_scifa_sc_con
 198:../generate/sc_drivers/r_scifa/src/lld/r_rza2_scifa_lld.c ****     if ((sc_config_index >= 0) && (sc_config_index < sc_table_size))
 203              		.loc 1 198 0
 204 0000 0030E0E1 		mvn	r3, r0
 205 0004 A33FA0E1 		lsr	r3, r3, #31
 206 0008 000050E3 		cmp	r0, #0
 207 000c 0030A0C3 		movgt	r3, #0
 208 0010 000053E3 		cmp	r3, #0
 209 0014 0500000A 		beq	.L19
 199:../generate/sc_drivers/r_scifa/src/lld/r_rza2_scifa_lld.c ****     {
 200:../generate/sc_drivers/r_scifa/src/lld/r_rza2_scifa_lld.c ****         ret = SCIFA_SC_TABLE[sc_config_index].channel;
 210              		.loc 1 200 0
 211 0018 003000E3 		movw	r3, #:lower16:.LANCHOR1
 212 001c 003040E3 		movt	r3, #:upper16:.LANCHOR1
 213 0020 800180E0 		add	r0, r0, r0, lsl #3
 214              	.LVL19:
 215 0024 8021A0E1 		lsl	r2, r0, #3
 216 0028 D20093E1 		ldrsb	r0, [r3, r2]
 217              	.LVL20:
 218 002c 1EFF2FE1 		bx	lr
 219              	.LVL21:
 220              	.L19:
 194:../generate/sc_drivers/r_scifa/src/lld/r_rza2_scifa_lld.c ****     r_channel_t ret = DRV_ERROR;
 221              		.loc 1 194 0
 222 0030 0000E0E3 		mvn	r0, #0
 223              	.LVL22:
 201:../generate/sc_drivers/r_scifa/src/lld/r_rza2_scifa_lld.c ****     }
 202:../generate/sc_drivers/r_scifa/src/lld/r_rza2_scifa_lld.c **** 
 203:../generate/sc_drivers/r_scifa/src/lld/r_rza2_scifa_lld.c ****     return (ret);
 204:../generate/sc_drivers/r_scifa/src/lld/r_rza2_scifa_lld.c **** }
 224              		.loc 1 204 0
 225 0034 1EFF2FE1 		bx	lr
 226              		.cfi_endproc
 227              	.LFE3:
 229              		.section	.text.R_SCIFA_SetParity,"ax",%progbits
 230              		.align	2
 231              		.global	R_SCIFA_SetParity
 232              		.syntax unified
 233              		.arm
 234              		.fpu neon
 236              	R_SCIFA_SetParity:
 237              	.LFB5:
 205:../generate/sc_drivers/r_scifa/src/lld/r_rza2_scifa_lld.c **** /**************************************************************************************************
 206:../generate/sc_drivers/r_scifa/src/lld/r_rza2_scifa_lld.c ****  End of function R_SCIFA_GetChannel
 207:../generate/sc_drivers/r_scifa/src/lld/r_rza2_scifa_lld.c ****  **************************************************************************************************
 208:../generate/sc_drivers/r_scifa/src/lld/r_rza2_scifa_lld.c **** 
 209:../generate/sc_drivers/r_scifa/src/lld/r_rza2_scifa_lld.c **** /**
 210:../generate/sc_drivers/r_scifa/src/lld/r_rza2_scifa_lld.c ****  * @brief R_SCIFA_Init initialises a channel for set-up
 211:../generate/sc_drivers/r_scifa/src/lld/r_rza2_scifa_lld.c ****  * This function configures device registers in preparation for
 212:../generate/sc_drivers/r_scifa/src/lld/r_rza2_scifa_lld.c ****  * configuration
 213:../generate/sc_drivers/r_scifa/src/lld/r_rza2_scifa_lld.c ****  *
 214:../generate/sc_drivers/r_scifa/src/lld/r_rza2_scifa_lld.c ****  * @param[in] channel Channel to initialise.
 215:../generate/sc_drivers/r_scifa/src/lld/r_rza2_scifa_lld.c ****  *
 216:../generate/sc_drivers/r_scifa/src/lld/r_rza2_scifa_lld.c ****  * @retval  0 DRV_SUCCESS
 217:../generate/sc_drivers/r_scifa/src/lld/r_rza2_scifa_lld.c ****  * @retval -1 DRV_ERROR 
 218:../generate/sc_drivers/r_scifa/src/lld/r_rza2_scifa_lld.c ****  */
 219:../generate/sc_drivers/r_scifa/src/lld/r_rza2_scifa_lld.c **** int_t R_SCIFA_Init (r_channel_t channel)
 220:../generate/sc_drivers/r_scifa/src/lld/r_rza2_scifa_lld.c **** {
 221:../generate/sc_drivers/r_scifa/src/lld/r_rza2_scifa_lld.c ****     /* check arguments */
 222:../generate/sc_drivers/r_scifa/src/lld/r_rza2_scifa_lld.c ****     if ((channel >= SCIFA_CFG_LLD_NUM_CHANNELS) || (channel < 0))
 223:../generate/sc_drivers/r_scifa/src/lld/r_rza2_scifa_lld.c ****     {
 224:../generate/sc_drivers/r_scifa/src/lld/r_rza2_scifa_lld.c ****         return (DRV_ERROR);
 225:../generate/sc_drivers/r_scifa/src/lld/r_rza2_scifa_lld.c ****     }
 226:../generate/sc_drivers/r_scifa/src/lld/r_rza2_scifa_lld.c **** 
 227:../generate/sc_drivers/r_scifa/src/lld/r_rza2_scifa_lld.c ****     /* Set SCR.TE and SCR.RE -> 0 */
 228:../generate/sc_drivers/r_scifa/src/lld/r_rza2_scifa_lld.c ****     RZA_IO_RegWrite_16((volatile uint16_t *) &gsp_scifa[channel]->SCR.WORD, (uint16_t) 0, IOREG_NON
 229:../generate/sc_drivers/r_scifa/src/lld/r_rza2_scifa_lld.c **** 
 230:../generate/sc_drivers/r_scifa/src/lld/r_rza2_scifa_lld.c ****     /* Reset TFRST */
 231:../generate/sc_drivers/r_scifa/src/lld/r_rza2_scifa_lld.c ****     RZA_IO_RegWrite_16((volatile uint16_t *) &gsp_scifa[channel]->FCR.WORD, (uint16_t) 1, SCIFA_FCR
 232:../generate/sc_drivers/r_scifa/src/lld/r_rza2_scifa_lld.c **** 
 233:../generate/sc_drivers/r_scifa/src/lld/r_rza2_scifa_lld.c ****     /* Reset FRDR */
 234:../generate/sc_drivers/r_scifa/src/lld/r_rza2_scifa_lld.c ****     RZA_IO_RegWrite_16((volatile uint16_t *) &gsp_scifa[channel]->FCR.WORD, (uint16_t) 1, SCIFA_FCR
 235:../generate/sc_drivers/r_scifa/src/lld/r_rza2_scifa_lld.c **** 
 236:../generate/sc_drivers/r_scifa/src/lld/r_rza2_scifa_lld.c ****     /* Read error flag first*/
 237:../generate/sc_drivers/r_scifa/src/lld/r_rza2_scifa_lld.c ****     RZA_IO_RegRead_16((volatile uint16_t *) &gsp_scifa[channel]->FSR.WORD, IOREG_NONSHIFT_ACCESS, I
 238:../generate/sc_drivers/r_scifa/src/lld/r_rza2_scifa_lld.c **** 
 239:../generate/sc_drivers/r_scifa/src/lld/r_rza2_scifa_lld.c ****     /* Clear all error flags of FSR */
 240:../generate/sc_drivers/r_scifa/src/lld/r_rza2_scifa_lld.c ****     RZA_IO_RegWrite_16((volatile uint16_t *) &gsp_scifa[channel]->FSR.WORD, (uint16_t) 0, IOREG_NON
 241:../generate/sc_drivers/r_scifa/src/lld/r_rza2_scifa_lld.c **** 
 242:../generate/sc_drivers/r_scifa/src/lld/r_rza2_scifa_lld.c ****     /* Read error flag first */
 243:../generate/sc_drivers/r_scifa/src/lld/r_rza2_scifa_lld.c ****     RZA_IO_RegRead_16((volatile uint16_t *) &gsp_scifa[channel]->LSR.WORD, IOREG_NONSHIFT_ACCESS, I
 244:../generate/sc_drivers/r_scifa/src/lld/r_rza2_scifa_lld.c **** 
 245:../generate/sc_drivers/r_scifa/src/lld/r_rza2_scifa_lld.c ****     /* clear error flag of LSR */
 246:../generate/sc_drivers/r_scifa/src/lld/r_rza2_scifa_lld.c ****     RZA_IO_RegWrite_16((volatile uint16_t *) &gsp_scifa[channel]->LSR.WORD, (uint16_t) 0, SCIFA_LSR
 247:../generate/sc_drivers/r_scifa/src/lld/r_rza2_scifa_lld.c **** 
 248:../generate/sc_drivers/r_scifa/src/lld/r_rza2_scifa_lld.c ****     /* set TXD output high */
 249:../generate/sc_drivers/r_scifa/src/lld/r_rza2_scifa_lld.c ****     R_SCIFA_SetTXDOutput(channel, SCIFA_SPTR_INIT_HIGH);
 250:../generate/sc_drivers/r_scifa/src/lld/r_rza2_scifa_lld.c **** 
 251:../generate/sc_drivers/r_scifa/src/lld/r_rza2_scifa_lld.c ****     return (DRV_SUCCESS);
 252:../generate/sc_drivers/r_scifa/src/lld/r_rza2_scifa_lld.c **** }
 253:../generate/sc_drivers/r_scifa/src/lld/r_rza2_scifa_lld.c **** /**************************************************************************************************
 254:../generate/sc_drivers/r_scifa/src/lld/r_rza2_scifa_lld.c ****  * End of Function R_SCIFA_Init
 255:../generate/sc_drivers/r_scifa/src/lld/r_rza2_scifa_lld.c ****  **************************************************************************************************
 256:../generate/sc_drivers/r_scifa/src/lld/r_rza2_scifa_lld.c **** 
 257:../generate/sc_drivers/r_scifa/src/lld/r_rza2_scifa_lld.c **** /**
 258:../generate/sc_drivers/r_scifa/src/lld/r_rza2_scifa_lld.c ****  * @brief R_SCIFA_SetParity Sets the channel parity
 259:../generate/sc_drivers/r_scifa/src/lld/r_rza2_scifa_lld.c ****  * This function configures the channel parity to a setting
 260:../generate/sc_drivers/r_scifa/src/lld/r_rza2_scifa_lld.c ****  * specified in e_scifa_parity_t
 261:../generate/sc_drivers/r_scifa/src/lld/r_rza2_scifa_lld.c ****  *
 262:../generate/sc_drivers/r_scifa/src/lld/r_rza2_scifa_lld.c ****  * @param[in] channel: channel to configure parity for
 263:../generate/sc_drivers/r_scifa/src/lld/r_rza2_scifa_lld.c ****  * @param[in] desired_parity: parity to configure channel with
 264:../generate/sc_drivers/r_scifa/src/lld/r_rza2_scifa_lld.c ****  *
 265:../generate/sc_drivers/r_scifa/src/lld/r_rza2_scifa_lld.c ****  * @retval  0 DRV_SUCCESS
 266:../generate/sc_drivers/r_scifa/src/lld/r_rza2_scifa_lld.c ****  * @retval -1 DRV_ERROR
 267:../generate/sc_drivers/r_scifa/src/lld/r_rza2_scifa_lld.c ****  */
 268:../generate/sc_drivers/r_scifa/src/lld/r_rza2_scifa_lld.c **** int_t R_SCIFA_SetParity (r_channel_t channel, scifa_parity_t desired_parity)
 269:../generate/sc_drivers/r_scifa/src/lld/r_rza2_scifa_lld.c **** {
 238              		.loc 1 269 0
 239              		.cfi_startproc
 240              		@ args = 0, pretend = 0, frame = 0
 241              		@ frame_needed = 0, uses_anonymous_args = 0
 242              	.LVL23:
 270:../generate/sc_drivers/r_scifa/src/lld/r_rza2_scifa_lld.c ****     if ((channel > R_PRV_CFG_SCIF_LAST_CHANNEL) || (channel < 0))
 243              		.loc 1 270 0
 244 0000 7030EFE6 		uxtb	r3, r0
 245 0004 050053E3 		cmp	r3, #5
 246 0008 2E00008A 		bhi	.L25
 269:../generate/sc_drivers/r_scifa/src/lld/r_rza2_scifa_lld.c ****     if ((channel > R_PRV_CFG_SCIF_LAST_CHANNEL) || (channel < 0))
 247              		.loc 1 269 0
 248 000c 10402DE9 		push	{r4, lr}
 249              		.cfi_def_cfa_offset 8
 250              		.cfi_offset 4, -8
 251              		.cfi_offset 14, -4
 271:../generate/sc_drivers/r_scifa/src/lld/r_rza2_scifa_lld.c ****     {
 272:../generate/sc_drivers/r_scifa/src/lld/r_rza2_scifa_lld.c ****         return (DRV_ERROR);
 273:../generate/sc_drivers/r_scifa/src/lld/r_rza2_scifa_lld.c ****     }
 274:../generate/sc_drivers/r_scifa/src/lld/r_rza2_scifa_lld.c **** 
 275:../generate/sc_drivers/r_scifa/src/lld/r_rza2_scifa_lld.c ****     switch (desired_parity)
 252              		.loc 1 275 0
 253 0010 010051E3 		cmp	r1, #1
 254 0014 1C00000A 		beq	.L22
 255 0018 0300003A 		bcc	.L23
 256 001c 020051E3 		cmp	r1, #2
 257 0020 0A00000A 		beq	.L24
 276:../generate/sc_drivers/r_scifa/src/lld/r_rza2_scifa_lld.c ****     {
 277:../generate/sc_drivers/r_scifa/src/lld/r_rza2_scifa_lld.c ****         default:
 278:../generate/sc_drivers/r_scifa/src/lld/r_rza2_scifa_lld.c ****         {
 279:../generate/sc_drivers/r_scifa/src/lld/r_rza2_scifa_lld.c ****             /* invalid desired_parity value */
 280:../generate/sc_drivers/r_scifa/src/lld/r_rza2_scifa_lld.c ****             return (DRV_ERROR);
 258              		.loc 1 280 0
 259 0024 0000E0E3 		mvn	r0, #0
 260              	.LVL24:
 281:../generate/sc_drivers/r_scifa/src/lld/r_rza2_scifa_lld.c ****         }
 282:../generate/sc_drivers/r_scifa/src/lld/r_rza2_scifa_lld.c **** 
 283:../generate/sc_drivers/r_scifa/src/lld/r_rza2_scifa_lld.c ****         case SCIFA_NONE_PARITY:
 284:../generate/sc_drivers/r_scifa/src/lld/r_rza2_scifa_lld.c ****         {
 285:../generate/sc_drivers/r_scifa/src/lld/r_rza2_scifa_lld.c ****             /* Parity enable bit */
 286:../generate/sc_drivers/r_scifa/src/lld/r_rza2_scifa_lld.c ****             RZA_IO_RegWrite_16((volatile uint16_t *) &gsp_scifa[channel]->SMR.WORD, (uint16_t) 0, S
 287:../generate/sc_drivers/r_scifa/src/lld/r_rza2_scifa_lld.c ****             break;
 288:../generate/sc_drivers/r_scifa/src/lld/r_rza2_scifa_lld.c ****         }
 289:../generate/sc_drivers/r_scifa/src/lld/r_rza2_scifa_lld.c **** 
 290:../generate/sc_drivers/r_scifa/src/lld/r_rza2_scifa_lld.c ****         case SCIFA_ODD_PARITY:
 291:../generate/sc_drivers/r_scifa/src/lld/r_rza2_scifa_lld.c ****         {
 292:../generate/sc_drivers/r_scifa/src/lld/r_rza2_scifa_lld.c ****             /* Parity enable bit */
 293:../generate/sc_drivers/r_scifa/src/lld/r_rza2_scifa_lld.c ****             RZA_IO_RegWrite_16((volatile uint16_t *) &gsp_scifa[channel]->SMR.WORD, (uint16_t) 1, S
 294:../generate/sc_drivers/r_scifa/src/lld/r_rza2_scifa_lld.c **** 
 295:../generate/sc_drivers/r_scifa/src/lld/r_rza2_scifa_lld.c ****             /* Parity mode bit */
 296:../generate/sc_drivers/r_scifa/src/lld/r_rza2_scifa_lld.c ****             RZA_IO_RegWrite_16((volatile uint16_t *) &gsp_scifa[channel]->SMR.WORD, (uint16_t) 1, S
 297:../generate/sc_drivers/r_scifa/src/lld/r_rza2_scifa_lld.c ****             break;
 298:../generate/sc_drivers/r_scifa/src/lld/r_rza2_scifa_lld.c ****         }
 299:../generate/sc_drivers/r_scifa/src/lld/r_rza2_scifa_lld.c **** 
 300:../generate/sc_drivers/r_scifa/src/lld/r_rza2_scifa_lld.c ****         case SCIFA_EVEN_PARITY:
 301:../generate/sc_drivers/r_scifa/src/lld/r_rza2_scifa_lld.c ****         {
 302:../generate/sc_drivers/r_scifa/src/lld/r_rza2_scifa_lld.c ****             /* Parity enable bit */
 303:../generate/sc_drivers/r_scifa/src/lld/r_rza2_scifa_lld.c ****             RZA_IO_RegWrite_16((volatile uint16_t *) &gsp_scifa[channel]->SMR.WORD, (uint16_t) 1, S
 304:../generate/sc_drivers/r_scifa/src/lld/r_rza2_scifa_lld.c **** 
 305:../generate/sc_drivers/r_scifa/src/lld/r_rza2_scifa_lld.c ****             /* Parity mode bit */
 306:../generate/sc_drivers/r_scifa/src/lld/r_rza2_scifa_lld.c ****             RZA_IO_RegWrite_16((volatile uint16_t *) &gsp_scifa[channel]->SMR.WORD, (uint16_t) 0, S
 307:../generate/sc_drivers/r_scifa/src/lld/r_rza2_scifa_lld.c ****             break;
 308:../generate/sc_drivers/r_scifa/src/lld/r_rza2_scifa_lld.c ****         }
 309:../generate/sc_drivers/r_scifa/src/lld/r_rza2_scifa_lld.c ****     }
 310:../generate/sc_drivers/r_scifa/src/lld/r_rza2_scifa_lld.c **** 
 311:../generate/sc_drivers/r_scifa/src/lld/r_rza2_scifa_lld.c ****     return (DRV_SUCCESS);
 312:../generate/sc_drivers/r_scifa/src/lld/r_rza2_scifa_lld.c **** }
 261              		.loc 1 312 0
 262 0028 1080BDE8 		pop	{r4, pc}
 263              	.LVL25:
 264              	.L23:
 286:../generate/sc_drivers/r_scifa/src/lld/r_rza2_scifa_lld.c ****             break;
 265              		.loc 1 286 0
 266 002c 00C000E3 		movw	ip, #:lower16:.LANCHOR0
 267 0030 00C040E3 		movt	ip, #:upper16:.LANCHOR0
 268 0034 2030A0E3 		mov	r3, #32
 269 0038 0520A0E3 		mov	r2, #5
 270 003c 0010A0E3 		mov	r1, #0
 271              	.LVL26:
 272 0040 00019CE7 		ldr	r0, [ip, r0, lsl #2]
 273              	.LVL27:
 274 0044 FEFFFFEB 		bl	RZA_IO_RegWrite_16
 275              	.LVL28:
 311:../generate/sc_drivers/r_scifa/src/lld/r_rza2_scifa_lld.c **** }
 276              		.loc 1 311 0
 277 0048 0000A0E3 		mov	r0, #0
 287:../generate/sc_drivers/r_scifa/src/lld/r_rza2_scifa_lld.c ****         }
 278              		.loc 1 287 0
 279 004c 1080BDE8 		pop	{r4, pc}
 280              	.LVL29:
 281              	.L24:
 293:../generate/sc_drivers/r_scifa/src/lld/r_rza2_scifa_lld.c **** 
 282              		.loc 1 293 0
 283 0050 003000E3 		movw	r3, #:lower16:.LANCHOR0
 284 0054 003040E3 		movt	r3, #:upper16:.LANCHOR0
 285 0058 004193E7 		ldr	r4, [r3, r0, lsl #2]
 286 005c 2030A0E3 		mov	r3, #32
 287 0060 0520A0E3 		mov	r2, #5
 288 0064 0110A0E3 		mov	r1, #1
 289              	.LVL30:
 290 0068 0400A0E1 		mov	r0, r4
 291              	.LVL31:
 292 006c FEFFFFEB 		bl	RZA_IO_RegWrite_16
 293              	.LVL32:
 296:../generate/sc_drivers/r_scifa/src/lld/r_rza2_scifa_lld.c ****             break;
 294              		.loc 1 296 0
 295 0070 1030A0E3 		mov	r3, #16
 296 0074 0420A0E3 		mov	r2, #4
 297 0078 0110A0E3 		mov	r1, #1
 298 007c 0400A0E1 		mov	r0, r4
 299 0080 FEFFFFEB 		bl	RZA_IO_RegWrite_16
 300              	.LVL33:
 311:../generate/sc_drivers/r_scifa/src/lld/r_rza2_scifa_lld.c **** }
 301              		.loc 1 311 0
 302 0084 0000A0E3 		mov	r0, #0
 297:../generate/sc_drivers/r_scifa/src/lld/r_rza2_scifa_lld.c ****         }
 303              		.loc 1 297 0
 304 0088 1080BDE8 		pop	{r4, pc}
 305              	.LVL34:
 306              	.L22:
 303:../generate/sc_drivers/r_scifa/src/lld/r_rza2_scifa_lld.c **** 
 307              		.loc 1 303 0
 308 008c 003000E3 		movw	r3, #:lower16:.LANCHOR0
 309 0090 003040E3 		movt	r3, #:upper16:.LANCHOR0
 310 0094 004193E7 		ldr	r4, [r3, r0, lsl #2]
 311 0098 2030A0E3 		mov	r3, #32
 312 009c 0520A0E3 		mov	r2, #5
 313 00a0 0110A0E3 		mov	r1, #1
 314              	.LVL35:
 315 00a4 0400A0E1 		mov	r0, r4
 316              	.LVL36:
 317 00a8 FEFFFFEB 		bl	RZA_IO_RegWrite_16
 318              	.LVL37:
 306:../generate/sc_drivers/r_scifa/src/lld/r_rza2_scifa_lld.c ****             break;
 319              		.loc 1 306 0
 320 00ac 1030A0E3 		mov	r3, #16
 321 00b0 0420A0E3 		mov	r2, #4
 322 00b4 0010A0E3 		mov	r1, #0
 323 00b8 0400A0E1 		mov	r0, r4
 324 00bc FEFFFFEB 		bl	RZA_IO_RegWrite_16
 325              	.LVL38:
 311:../generate/sc_drivers/r_scifa/src/lld/r_rza2_scifa_lld.c **** }
 326              		.loc 1 311 0
 327 00c0 0000A0E3 		mov	r0, #0
 307:../generate/sc_drivers/r_scifa/src/lld/r_rza2_scifa_lld.c ****         }
 328              		.loc 1 307 0
 329 00c4 1080BDE8 		pop	{r4, pc}
 330              	.LVL39:
 331              	.L25:
 332              		.cfi_def_cfa_offset 0
 333              		.cfi_restore 4
 334              		.cfi_restore 14
 272:../generate/sc_drivers/r_scifa/src/lld/r_rza2_scifa_lld.c ****     }
 335              		.loc 1 272 0
 336 00c8 0000E0E3 		mvn	r0, #0
 337              	.LVL40:
 338 00cc 1EFF2FE1 		bx	lr
 339              		.cfi_endproc
 340              	.LFE5:
 342              		.section	.text.R_SICFA_SetTransmissionMode,"ax",%progbits
 343              		.align	2
 344              		.global	R_SICFA_SetTransmissionMode
 345              		.syntax unified
 346              		.arm
 347              		.fpu neon
 349              	R_SICFA_SetTransmissionMode:
 350              	.LFB6:
 313:../generate/sc_drivers/r_scifa/src/lld/r_rza2_scifa_lld.c **** /**************************************************************************************************
 314:../generate/sc_drivers/r_scifa/src/lld/r_rza2_scifa_lld.c ****  * End of Function R_SCIFA_SetParity
 315:../generate/sc_drivers/r_scifa/src/lld/r_rza2_scifa_lld.c ****  **************************************************************************************************
 316:../generate/sc_drivers/r_scifa/src/lld/r_rza2_scifa_lld.c **** 
 317:../generate/sc_drivers/r_scifa/src/lld/r_rza2_scifa_lld.c **** /**
 318:../generate/sc_drivers/r_scifa/src/lld/r_rza2_scifa_lld.c ****  * @brief R_SICFA_SetTransmissionMode sets the transmission mode for a channel
 319:../generate/sc_drivers/r_scifa/src/lld/r_rza2_scifa_lld.c ****  * This function configures the channel parity to a setting
 320:../generate/sc_drivers/r_scifa/src/lld/r_rza2_scifa_lld.c ****  * specified in e_scifa_mode_t
 321:../generate/sc_drivers/r_scifa/src/lld/r_rza2_scifa_lld.c ****  *
 322:../generate/sc_drivers/r_scifa/src/lld/r_rza2_scifa_lld.c ****  * @param[in] channel: channel to set transmission mode for
 323:../generate/sc_drivers/r_scifa/src/lld/r_rza2_scifa_lld.c ****  * @param[in] desired_mode: the desired transmission mode for the channel
 324:../generate/sc_drivers/r_scifa/src/lld/r_rza2_scifa_lld.c ****  *
 325:../generate/sc_drivers/r_scifa/src/lld/r_rza2_scifa_lld.c ****  * @retval  0 DRV_SUCCESS
 326:../generate/sc_drivers/r_scifa/src/lld/r_rza2_scifa_lld.c ****  * @retval -1 DRV_ERROR
 327:../generate/sc_drivers/r_scifa/src/lld/r_rza2_scifa_lld.c ****  */
 328:../generate/sc_drivers/r_scifa/src/lld/r_rza2_scifa_lld.c **** int_t R_SICFA_SetTransmissionMode (r_channel_t channel, scifa_sync_mode_t desired_mode)
 329:../generate/sc_drivers/r_scifa/src/lld/r_rza2_scifa_lld.c **** {
 351              		.loc 1 329 0
 352              		.cfi_startproc
 353              		@ args = 0, pretend = 0, frame = 0
 354              		@ frame_needed = 0, uses_anonymous_args = 0
 355              	.LVL41:
 330:../generate/sc_drivers/r_scifa/src/lld/r_rza2_scifa_lld.c ****     if ((channel > R_PRV_CFG_SCIF_LAST_CHANNEL) || (channel < 0))
 356              		.loc 1 330 0
 357 0000 7030EFE6 		uxtb	r3, r0
 358 0004 050053E3 		cmp	r3, #5
 359 0008 1800008A 		bhi	.L36
 329:../generate/sc_drivers/r_scifa/src/lld/r_rza2_scifa_lld.c ****     if ((channel > R_PRV_CFG_SCIF_LAST_CHANNEL) || (channel < 0))
 360              		.loc 1 329 0
 361 000c 10402DE9 		push	{r4, lr}
 362              		.cfi_def_cfa_offset 8
 363              		.cfi_offset 4, -8
 364              		.cfi_offset 14, -4
 331:../generate/sc_drivers/r_scifa/src/lld/r_rza2_scifa_lld.c ****     {
 332:../generate/sc_drivers/r_scifa/src/lld/r_rza2_scifa_lld.c ****         return (DRV_ERROR);
 333:../generate/sc_drivers/r_scifa/src/lld/r_rza2_scifa_lld.c ****     }
 334:../generate/sc_drivers/r_scifa/src/lld/r_rza2_scifa_lld.c **** 
 335:../generate/sc_drivers/r_scifa/src/lld/r_rza2_scifa_lld.c ****     switch (desired_mode)
 365              		.loc 1 335 0
 366 0010 000051E3 		cmp	r1, #0
 367 0014 0300000A 		beq	.L34
 368 0018 010051E3 		cmp	r1, #1
 369 001c 0A00000A 		beq	.L35
 336:../generate/sc_drivers/r_scifa/src/lld/r_rza2_scifa_lld.c ****     {
 337:../generate/sc_drivers/r_scifa/src/lld/r_rza2_scifa_lld.c ****         default:
 338:../generate/sc_drivers/r_scifa/src/lld/r_rza2_scifa_lld.c ****         {
 339:../generate/sc_drivers/r_scifa/src/lld/r_rza2_scifa_lld.c ****             /* invalid desired_mode value */
 340:../generate/sc_drivers/r_scifa/src/lld/r_rza2_scifa_lld.c ****             return (DRV_ERROR);
 370              		.loc 1 340 0
 371 0020 0000E0E3 		mvn	r0, #0
 372              	.LVL42:
 341:../generate/sc_drivers/r_scifa/src/lld/r_rza2_scifa_lld.c ****         }
 342:../generate/sc_drivers/r_scifa/src/lld/r_rza2_scifa_lld.c **** 
 343:../generate/sc_drivers/r_scifa/src/lld/r_rza2_scifa_lld.c ****         case SCIFA_MODE_ASYNC:
 344:../generate/sc_drivers/r_scifa/src/lld/r_rza2_scifa_lld.c ****         {
 345:../generate/sc_drivers/r_scifa/src/lld/r_rza2_scifa_lld.c ****             /* Communication mode : Asynchronous */
 346:../generate/sc_drivers/r_scifa/src/lld/r_rza2_scifa_lld.c ****             RZA_IO_RegWrite_16((volatile uint16_t *) &gsp_scifa[channel]->SMR.WORD, (uint16_t) 0, S
 347:../generate/sc_drivers/r_scifa/src/lld/r_rza2_scifa_lld.c ****             break;
 348:../generate/sc_drivers/r_scifa/src/lld/r_rza2_scifa_lld.c ****         }
 349:../generate/sc_drivers/r_scifa/src/lld/r_rza2_scifa_lld.c **** 
 350:../generate/sc_drivers/r_scifa/src/lld/r_rza2_scifa_lld.c ****         case SCIFA_MODE_SYNC:
 351:../generate/sc_drivers/r_scifa/src/lld/r_rza2_scifa_lld.c ****         {
 352:../generate/sc_drivers/r_scifa/src/lld/r_rza2_scifa_lld.c ****             /* Communication mode : Synchronous */
 353:../generate/sc_drivers/r_scifa/src/lld/r_rza2_scifa_lld.c ****             RZA_IO_RegWrite_16((volatile uint16_t *) &gsp_scifa[channel]->SMR.WORD, (uint16_t) 1, S
 354:../generate/sc_drivers/r_scifa/src/lld/r_rza2_scifa_lld.c ****             break;
 355:../generate/sc_drivers/r_scifa/src/lld/r_rza2_scifa_lld.c ****         }
 356:../generate/sc_drivers/r_scifa/src/lld/r_rza2_scifa_lld.c ****     }
 357:../generate/sc_drivers/r_scifa/src/lld/r_rza2_scifa_lld.c **** 
 358:../generate/sc_drivers/r_scifa/src/lld/r_rza2_scifa_lld.c ****     return (DRV_SUCCESS);
 359:../generate/sc_drivers/r_scifa/src/lld/r_rza2_scifa_lld.c **** }
 373              		.loc 1 359 0
 374 0024 1080BDE8 		pop	{r4, pc}
 375              	.LVL43:
 376              	.L34:
 346:../generate/sc_drivers/r_scifa/src/lld/r_rza2_scifa_lld.c ****             break;
 377              		.loc 1 346 0
 378 0028 00C000E3 		movw	ip, #:lower16:.LANCHOR0
 379 002c 00C040E3 		movt	ip, #:upper16:.LANCHOR0
 380 0030 8030A0E3 		mov	r3, #128
 381 0034 0720A0E3 		mov	r2, #7
 382 0038 0010A0E3 		mov	r1, #0
 383              	.LVL44:
 384 003c 00019CE7 		ldr	r0, [ip, r0, lsl #2]
 385              	.LVL45:
 386 0040 FEFFFFEB 		bl	RZA_IO_RegWrite_16
 387              	.LVL46:
 358:../generate/sc_drivers/r_scifa/src/lld/r_rza2_scifa_lld.c **** }
 388              		.loc 1 358 0
 389 0044 0000A0E3 		mov	r0, #0
 347:../generate/sc_drivers/r_scifa/src/lld/r_rza2_scifa_lld.c ****         }
 390              		.loc 1 347 0
 391 0048 1080BDE8 		pop	{r4, pc}
 392              	.LVL47:
 393              	.L35:
 353:../generate/sc_drivers/r_scifa/src/lld/r_rza2_scifa_lld.c ****             break;
 394              		.loc 1 353 0
 395 004c 00C000E3 		movw	ip, #:lower16:.LANCHOR0
 396 0050 00C040E3 		movt	ip, #:upper16:.LANCHOR0
 397 0054 8030A0E3 		mov	r3, #128
 398 0058 0720A0E3 		mov	r2, #7
 399 005c 0110A0E3 		mov	r1, #1
 400              	.LVL48:
 401 0060 00019CE7 		ldr	r0, [ip, r0, lsl #2]
 402              	.LVL49:
 403 0064 FEFFFFEB 		bl	RZA_IO_RegWrite_16
 404              	.LVL50:
 358:../generate/sc_drivers/r_scifa/src/lld/r_rza2_scifa_lld.c **** }
 405              		.loc 1 358 0
 406 0068 0000A0E3 		mov	r0, #0
 354:../generate/sc_drivers/r_scifa/src/lld/r_rza2_scifa_lld.c ****         }
 407              		.loc 1 354 0
 408 006c 1080BDE8 		pop	{r4, pc}
 409              	.LVL51:
 410              	.L36:
 411              		.cfi_def_cfa_offset 0
 412              		.cfi_restore 4
 413              		.cfi_restore 14
 332:../generate/sc_drivers/r_scifa/src/lld/r_rza2_scifa_lld.c ****     }
 414              		.loc 1 332 0
 415 0070 0000E0E3 		mvn	r0, #0
 416              	.LVL52:
 417 0074 1EFF2FE1 		bx	lr
 418              		.cfi_endproc
 419              	.LFE6:
 421              		.section	.text.R_SCIFA_SetStopBits,"ax",%progbits
 422              		.align	2
 423              		.global	R_SCIFA_SetStopBits
 424              		.syntax unified
 425              		.arm
 426              		.fpu neon
 428              	R_SCIFA_SetStopBits:
 429              	.LFB7:
 360:../generate/sc_drivers/r_scifa/src/lld/r_rza2_scifa_lld.c **** /**************************************************************************************************
 361:../generate/sc_drivers/r_scifa/src/lld/r_rza2_scifa_lld.c ****  * End of Function R_SICFA_SetTransmissionMode
 362:../generate/sc_drivers/r_scifa/src/lld/r_rza2_scifa_lld.c ****  **************************************************************************************************
 363:../generate/sc_drivers/r_scifa/src/lld/r_rza2_scifa_lld.c **** 
 364:../generate/sc_drivers/r_scifa/src/lld/r_rza2_scifa_lld.c **** /**
 365:../generate/sc_drivers/r_scifa/src/lld/r_rza2_scifa_lld.c ****  * @brief R_SCIFA_SetStopBits Sets the number of stop bits for a channel
 366:../generate/sc_drivers/r_scifa/src/lld/r_rza2_scifa_lld.c ****  * This function configures the channel stop bits to a setting
 367:../generate/sc_drivers/r_scifa/src/lld/r_rza2_scifa_lld.c ****  * specified in e_scifa_stop_bits_t
 368:../generate/sc_drivers/r_scifa/src/lld/r_rza2_scifa_lld.c ****  *
 369:../generate/sc_drivers/r_scifa/src/lld/r_rza2_scifa_lld.c ****  * @param[in] channel: channel to set stop bits for
 370:../generate/sc_drivers/r_scifa/src/lld/r_rza2_scifa_lld.c ****  * @param[in] desired_stop_bits: number of stop bits to set for channel
 371:../generate/sc_drivers/r_scifa/src/lld/r_rza2_scifa_lld.c ****  *
 372:../generate/sc_drivers/r_scifa/src/lld/r_rza2_scifa_lld.c ****  * @retval  0 DRV_SUCCESS
 373:../generate/sc_drivers/r_scifa/src/lld/r_rza2_scifa_lld.c ****  * @retval -1 DRV_ERROR
 374:../generate/sc_drivers/r_scifa/src/lld/r_rza2_scifa_lld.c ****  */
 375:../generate/sc_drivers/r_scifa/src/lld/r_rza2_scifa_lld.c **** int_t R_SCIFA_SetStopBits (r_channel_t channel, scifa_stop_t desired_stop_bits)
 376:../generate/sc_drivers/r_scifa/src/lld/r_rza2_scifa_lld.c **** {
 430              		.loc 1 376 0
 431              		.cfi_startproc
 432              		@ args = 0, pretend = 0, frame = 0
 433              		@ frame_needed = 0, uses_anonymous_args = 0
 434              	.LVL53:
 377:../generate/sc_drivers/r_scifa/src/lld/r_rza2_scifa_lld.c ****     if ((channel > R_PRV_CFG_SCIF_LAST_CHANNEL) || (channel < 0))
 435              		.loc 1 377 0
 436 0000 7030EFE6 		uxtb	r3, r0
 437 0004 050053E3 		cmp	r3, #5
 438 0008 1800008A 		bhi	.L47
 376:../generate/sc_drivers/r_scifa/src/lld/r_rza2_scifa_lld.c ****     if ((channel > R_PRV_CFG_SCIF_LAST_CHANNEL) || (channel < 0))
 439              		.loc 1 376 0
 440 000c 10402DE9 		push	{r4, lr}
 441              		.cfi_def_cfa_offset 8
 442              		.cfi_offset 4, -8
 443              		.cfi_offset 14, -4
 378:../generate/sc_drivers/r_scifa/src/lld/r_rza2_scifa_lld.c ****     {
 379:../generate/sc_drivers/r_scifa/src/lld/r_rza2_scifa_lld.c ****         return (DRV_ERROR);
 380:../generate/sc_drivers/r_scifa/src/lld/r_rza2_scifa_lld.c ****     }
 381:../generate/sc_drivers/r_scifa/src/lld/r_rza2_scifa_lld.c **** 
 382:../generate/sc_drivers/r_scifa/src/lld/r_rza2_scifa_lld.c ****     switch (desired_stop_bits)
 444              		.loc 1 382 0
 445 0010 000051E3 		cmp	r1, #0
 446 0014 0300000A 		beq	.L45
 447 0018 010051E3 		cmp	r1, #1
 448 001c 0A00000A 		beq	.L46
 383:../generate/sc_drivers/r_scifa/src/lld/r_rza2_scifa_lld.c ****     {
 384:../generate/sc_drivers/r_scifa/src/lld/r_rza2_scifa_lld.c ****         default:
 385:../generate/sc_drivers/r_scifa/src/lld/r_rza2_scifa_lld.c ****         {
 386:../generate/sc_drivers/r_scifa/src/lld/r_rza2_scifa_lld.c ****             /* invalid desired_stop_bits value */
 387:../generate/sc_drivers/r_scifa/src/lld/r_rza2_scifa_lld.c ****             return (DRV_ERROR);
 449              		.loc 1 387 0
 450 0020 0000E0E3 		mvn	r0, #0
 451              	.LVL54:
 388:../generate/sc_drivers/r_scifa/src/lld/r_rza2_scifa_lld.c ****         }
 389:../generate/sc_drivers/r_scifa/src/lld/r_rza2_scifa_lld.c **** 
 390:../generate/sc_drivers/r_scifa/src/lld/r_rza2_scifa_lld.c ****         case SCIFA_STOPBITS_1:
 391:../generate/sc_drivers/r_scifa/src/lld/r_rza2_scifa_lld.c ****         {
 392:../generate/sc_drivers/r_scifa/src/lld/r_rza2_scifa_lld.c ****             /* Stop bit length : 1 stop bit */
 393:../generate/sc_drivers/r_scifa/src/lld/r_rza2_scifa_lld.c ****             RZA_IO_RegWrite_16((volatile uint16_t *) &gsp_scifa[channel]->SMR.WORD, (uint16_t) 0, S
 394:../generate/sc_drivers/r_scifa/src/lld/r_rza2_scifa_lld.c ****             break;
 395:../generate/sc_drivers/r_scifa/src/lld/r_rza2_scifa_lld.c ****         }
 396:../generate/sc_drivers/r_scifa/src/lld/r_rza2_scifa_lld.c **** 
 397:../generate/sc_drivers/r_scifa/src/lld/r_rza2_scifa_lld.c ****         case SCIFA_STOPBITS_2:
 398:../generate/sc_drivers/r_scifa/src/lld/r_rza2_scifa_lld.c ****         {
 399:../generate/sc_drivers/r_scifa/src/lld/r_rza2_scifa_lld.c ****             /* Stop bit length : 2 stop bits */
 400:../generate/sc_drivers/r_scifa/src/lld/r_rza2_scifa_lld.c ****             RZA_IO_RegWrite_16((volatile uint16_t *) &gsp_scifa[channel]->SMR.WORD, (uint16_t) 1, S
 401:../generate/sc_drivers/r_scifa/src/lld/r_rza2_scifa_lld.c ****             break;
 402:../generate/sc_drivers/r_scifa/src/lld/r_rza2_scifa_lld.c ****         }
 403:../generate/sc_drivers/r_scifa/src/lld/r_rza2_scifa_lld.c ****     }
 404:../generate/sc_drivers/r_scifa/src/lld/r_rza2_scifa_lld.c **** 
 405:../generate/sc_drivers/r_scifa/src/lld/r_rza2_scifa_lld.c ****     return (DRV_SUCCESS);
 406:../generate/sc_drivers/r_scifa/src/lld/r_rza2_scifa_lld.c **** }
 452              		.loc 1 406 0
 453 0024 1080BDE8 		pop	{r4, pc}
 454              	.LVL55:
 455              	.L45:
 393:../generate/sc_drivers/r_scifa/src/lld/r_rza2_scifa_lld.c ****             break;
 456              		.loc 1 393 0
 457 0028 00C000E3 		movw	ip, #:lower16:.LANCHOR0
 458 002c 00C040E3 		movt	ip, #:upper16:.LANCHOR0
 459 0030 0830A0E3 		mov	r3, #8
 460 0034 0320A0E3 		mov	r2, #3
 461 0038 0010A0E3 		mov	r1, #0
 462              	.LVL56:
 463 003c 00019CE7 		ldr	r0, [ip, r0, lsl #2]
 464              	.LVL57:
 465 0040 FEFFFFEB 		bl	RZA_IO_RegWrite_16
 466              	.LVL58:
 405:../generate/sc_drivers/r_scifa/src/lld/r_rza2_scifa_lld.c **** }
 467              		.loc 1 405 0
 468 0044 0000A0E3 		mov	r0, #0
 394:../generate/sc_drivers/r_scifa/src/lld/r_rza2_scifa_lld.c ****         }
 469              		.loc 1 394 0
 470 0048 1080BDE8 		pop	{r4, pc}
 471              	.LVL59:
 472              	.L46:
 400:../generate/sc_drivers/r_scifa/src/lld/r_rza2_scifa_lld.c ****             break;
 473              		.loc 1 400 0
 474 004c 00C000E3 		movw	ip, #:lower16:.LANCHOR0
 475 0050 00C040E3 		movt	ip, #:upper16:.LANCHOR0
 476 0054 0830A0E3 		mov	r3, #8
 477 0058 0320A0E3 		mov	r2, #3
 478 005c 0110A0E3 		mov	r1, #1
 479              	.LVL60:
 480 0060 00019CE7 		ldr	r0, [ip, r0, lsl #2]
 481              	.LVL61:
 482 0064 FEFFFFEB 		bl	RZA_IO_RegWrite_16
 483              	.LVL62:
 405:../generate/sc_drivers/r_scifa/src/lld/r_rza2_scifa_lld.c **** }
 484              		.loc 1 405 0
 485 0068 0000A0E3 		mov	r0, #0
 401:../generate/sc_drivers/r_scifa/src/lld/r_rza2_scifa_lld.c ****         }
 486              		.loc 1 401 0
 487 006c 1080BDE8 		pop	{r4, pc}
 488              	.LVL63:
 489              	.L47:
 490              		.cfi_def_cfa_offset 0
 491              		.cfi_restore 4
 492              		.cfi_restore 14
 379:../generate/sc_drivers/r_scifa/src/lld/r_rza2_scifa_lld.c ****     }
 493              		.loc 1 379 0
 494 0070 0000E0E3 		mvn	r0, #0
 495              	.LVL64:
 496 0074 1EFF2FE1 		bx	lr
 497              		.cfi_endproc
 498              	.LFE7:
 500              		.section	.text.R_SCIFA_SetDataBits,"ax",%progbits
 501              		.align	2
 502              		.global	R_SCIFA_SetDataBits
 503              		.syntax unified
 504              		.arm
 505              		.fpu neon
 507              	R_SCIFA_SetDataBits:
 508              	.LFB8:
 407:../generate/sc_drivers/r_scifa/src/lld/r_rza2_scifa_lld.c **** /**************************************************************************************************
 408:../generate/sc_drivers/r_scifa/src/lld/r_rza2_scifa_lld.c ****  * End of Function R_SCIFA_SetStopBits
 409:../generate/sc_drivers/r_scifa/src/lld/r_rza2_scifa_lld.c ****  **************************************************************************************************
 410:../generate/sc_drivers/r_scifa/src/lld/r_rza2_scifa_lld.c **** 
 411:../generate/sc_drivers/r_scifa/src/lld/r_rza2_scifa_lld.c **** /**
 412:../generate/sc_drivers/r_scifa/src/lld/r_rza2_scifa_lld.c ****  * @brief R_SCIFA_SetDataBits sets the number of data bits for a channel
 413:../generate/sc_drivers/r_scifa/src/lld/r_rza2_scifa_lld.c ****  * This function configures the channel data bits to a value defined in
 414:../generate/sc_drivers/r_scifa/src/lld/r_rza2_scifa_lld.c ****  * e_scifa_data_bits_t
 415:../generate/sc_drivers/r_scifa/src/lld/r_rza2_scifa_lld.c ****  *
 416:../generate/sc_drivers/r_scifa/src/lld/r_rza2_scifa_lld.c ****  * @param[in] channel: channel to set data bits for
 417:../generate/sc_drivers/r_scifa/src/lld/r_rza2_scifa_lld.c ****  * @param[in] desired_data_bits: number of data bits to set for channel
 418:../generate/sc_drivers/r_scifa/src/lld/r_rza2_scifa_lld.c ****  *
 419:../generate/sc_drivers/r_scifa/src/lld/r_rza2_scifa_lld.c ****  * @retval  0 DRV_SUCCESS
 420:../generate/sc_drivers/r_scifa/src/lld/r_rza2_scifa_lld.c ****  * @retval -1 DRV_ERROR 
 421:../generate/sc_drivers/r_scifa/src/lld/r_rza2_scifa_lld.c ****  */
 422:../generate/sc_drivers/r_scifa/src/lld/r_rza2_scifa_lld.c **** int_t R_SCIFA_SetDataBits (r_channel_t channel, scifa_size_t desired_data_bits)
 423:../generate/sc_drivers/r_scifa/src/lld/r_rza2_scifa_lld.c **** {
 509              		.loc 1 423 0
 510              		.cfi_startproc
 511              		@ args = 0, pretend = 0, frame = 0
 512              		@ frame_needed = 0, uses_anonymous_args = 0
 513              	.LVL65:
 424:../generate/sc_drivers/r_scifa/src/lld/r_rza2_scifa_lld.c ****     if ((channel > R_PRV_CFG_SCIF_LAST_CHANNEL) || (channel < 0))
 514              		.loc 1 424 0
 515 0000 7030EFE6 		uxtb	r3, r0
 516 0004 050053E3 		cmp	r3, #5
 517 0008 1500008A 		bhi	.L58
 423:../generate/sc_drivers/r_scifa/src/lld/r_rza2_scifa_lld.c ****     if ((channel > R_PRV_CFG_SCIF_LAST_CHANNEL) || (channel < 0))
 518              		.loc 1 423 0
 519 000c 10402DE9 		push	{r4, lr}
 520              		.cfi_def_cfa_offset 8
 521              		.cfi_offset 4, -8
 522              		.cfi_offset 14, -4
 425:../generate/sc_drivers/r_scifa/src/lld/r_rza2_scifa_lld.c ****     {
 426:../generate/sc_drivers/r_scifa/src/lld/r_rza2_scifa_lld.c ****         return (DRV_ERROR);
 427:../generate/sc_drivers/r_scifa/src/lld/r_rza2_scifa_lld.c ****     }
 428:../generate/sc_drivers/r_scifa/src/lld/r_rza2_scifa_lld.c **** 
 429:../generate/sc_drivers/r_scifa/src/lld/r_rza2_scifa_lld.c ****     switch (desired_data_bits)
 523              		.loc 1 429 0
 524 0010 000051E3 		cmp	r1, #0
 525 0014 0900000A 		beq	.L56
 526 0018 010051E3 		cmp	r1, #1
 527 001c 1200001A 		bne	.L60
 430:../generate/sc_drivers/r_scifa/src/lld/r_rza2_scifa_lld.c ****     {
 431:../generate/sc_drivers/r_scifa/src/lld/r_rza2_scifa_lld.c ****         default:
 432:../generate/sc_drivers/r_scifa/src/lld/r_rza2_scifa_lld.c ****         {
 433:../generate/sc_drivers/r_scifa/src/lld/r_rza2_scifa_lld.c ****             /* invalid desired_data_bits value */
 434:../generate/sc_drivers/r_scifa/src/lld/r_rza2_scifa_lld.c ****             return (DRV_ERROR);
 435:../generate/sc_drivers/r_scifa/src/lld/r_rza2_scifa_lld.c ****         }
 436:../generate/sc_drivers/r_scifa/src/lld/r_rza2_scifa_lld.c **** 
 437:../generate/sc_drivers/r_scifa/src/lld/r_rza2_scifa_lld.c ****         case SCIFA_DATA_7BIT:
 438:../generate/sc_drivers/r_scifa/src/lld/r_rza2_scifa_lld.c ****         {
 439:../generate/sc_drivers/r_scifa/src/lld/r_rza2_scifa_lld.c ****             /* Character length: 7-bit data */
 440:../generate/sc_drivers/r_scifa/src/lld/r_rza2_scifa_lld.c ****             RZA_IO_RegWrite_16((volatile uint16_t *) &gsp_scifa[channel]->SMR.WORD, (uint16_t) 1, S
 528              		.loc 1 440 0
 529 0020 00C000E3 		movw	ip, #:lower16:.LANCHOR0
 530 0024 00C040E3 		movt	ip, #:upper16:.LANCHOR0
 531 0028 4030A0E3 		mov	r3, #64
 532 002c 0620A0E3 		mov	r2, #6
 533 0030 00019CE7 		ldr	r0, [ip, r0, lsl #2]
 534              	.LVL66:
 535 0034 FEFFFFEB 		bl	RZA_IO_RegWrite_16
 536              	.LVL67:
 441:../generate/sc_drivers/r_scifa/src/lld/r_rza2_scifa_lld.c ****             break;
 442:../generate/sc_drivers/r_scifa/src/lld/r_rza2_scifa_lld.c ****         }
 443:../generate/sc_drivers/r_scifa/src/lld/r_rza2_scifa_lld.c **** 
 444:../generate/sc_drivers/r_scifa/src/lld/r_rza2_scifa_lld.c ****         case SCIFA_DATA_8BIT:
 445:../generate/sc_drivers/r_scifa/src/lld/r_rza2_scifa_lld.c ****         {
 446:../generate/sc_drivers/r_scifa/src/lld/r_rza2_scifa_lld.c ****             /* Character length: 8-bit data */
 447:../generate/sc_drivers/r_scifa/src/lld/r_rza2_scifa_lld.c ****             RZA_IO_RegWrite_16((volatile uint16_t *) &gsp_scifa[channel]->SMR.WORD, (uint16_t) 0, S
 448:../generate/sc_drivers/r_scifa/src/lld/r_rza2_scifa_lld.c ****             break;
 449:../generate/sc_drivers/r_scifa/src/lld/r_rza2_scifa_lld.c ****         }
 450:../generate/sc_drivers/r_scifa/src/lld/r_rza2_scifa_lld.c ****     }
 451:../generate/sc_drivers/r_scifa/src/lld/r_rza2_scifa_lld.c **** 
 452:../generate/sc_drivers/r_scifa/src/lld/r_rza2_scifa_lld.c ****     return (DRV_SUCCESS);
 537              		.loc 1 452 0
 538 0038 0000A0E3 		mov	r0, #0
 441:../generate/sc_drivers/r_scifa/src/lld/r_rza2_scifa_lld.c ****             break;
 539              		.loc 1 441 0
 540 003c 1080BDE8 		pop	{r4, pc}
 541              	.LVL68:
 542              	.L56:
 447:../generate/sc_drivers/r_scifa/src/lld/r_rza2_scifa_lld.c ****             break;
 543              		.loc 1 447 0
 544 0040 00C000E3 		movw	ip, #:lower16:.LANCHOR0
 545 0044 00C040E3 		movt	ip, #:upper16:.LANCHOR0
 546 0048 4030A0E3 		mov	r3, #64
 547 004c 0620A0E3 		mov	r2, #6
 548 0050 0010A0E3 		mov	r1, #0
 549              	.LVL69:
 550 0054 00019CE7 		ldr	r0, [ip, r0, lsl #2]
 551              	.LVL70:
 552 0058 FEFFFFEB 		bl	RZA_IO_RegWrite_16
 553              	.LVL71:
 554              		.loc 1 452 0
 555 005c 0000A0E3 		mov	r0, #0
 448:../generate/sc_drivers/r_scifa/src/lld/r_rza2_scifa_lld.c ****         }
 556              		.loc 1 448 0
 557 0060 1080BDE8 		pop	{r4, pc}
 558              	.LVL72:
 559              	.L58:
 560              		.cfi_def_cfa_offset 0
 561              		.cfi_restore 4
 562              		.cfi_restore 14
 426:../generate/sc_drivers/r_scifa/src/lld/r_rza2_scifa_lld.c ****     }
 563              		.loc 1 426 0
 564 0064 0000E0E3 		mvn	r0, #0
 565              	.LVL73:
 566 0068 1EFF2FE1 		bx	lr
 567              	.LVL74:
 568              	.L60:
 569              		.cfi_def_cfa_offset 8
 570              		.cfi_offset 4, -8
 571              		.cfi_offset 14, -4
 434:../generate/sc_drivers/r_scifa/src/lld/r_rza2_scifa_lld.c ****         }
 572              		.loc 1 434 0
 573 006c 0000E0E3 		mvn	r0, #0
 574              	.LVL75:
 453:../generate/sc_drivers/r_scifa/src/lld/r_rza2_scifa_lld.c **** }
 575              		.loc 1 453 0
 576 0070 1080BDE8 		pop	{r4, pc}
 577              		.cfi_endproc
 578              	.LFE8:
 580              		.section	.text.R_SCIFA_SetLoopBack,"ax",%progbits
 581              		.align	2
 582              		.global	R_SCIFA_SetLoopBack
 583              		.syntax unified
 584              		.arm
 585              		.fpu neon
 587              	R_SCIFA_SetLoopBack:
 588              	.LFB9:
 454:../generate/sc_drivers/r_scifa/src/lld/r_rza2_scifa_lld.c **** /**************************************************************************************************
 455:../generate/sc_drivers/r_scifa/src/lld/r_rza2_scifa_lld.c ****  * End of Function R_SCIFA_SetDataBits
 456:../generate/sc_drivers/r_scifa/src/lld/r_rza2_scifa_lld.c ****  **************************************************************************************************
 457:../generate/sc_drivers/r_scifa/src/lld/r_rza2_scifa_lld.c **** 
 458:../generate/sc_drivers/r_scifa/src/lld/r_rza2_scifa_lld.c **** /**
 459:../generate/sc_drivers/r_scifa/src/lld/r_rza2_scifa_lld.c ****  * @brief R_SCIFA_SetLoopBack enables loop back mode on a channel
 460:../generate/sc_drivers/r_scifa/src/lld/r_rza2_scifa_lld.c ****  * This function enables loop back mode on a channel,
 461:../generate/sc_drivers/r_scifa/src/lld/r_rza2_scifa_lld.c ****  * loop back, connects TX to RX for a given channel,
 462:../generate/sc_drivers/r_scifa/src/lld/r_rza2_scifa_lld.c ****  * this can be useful for testing whether a channel is 
 463:../generate/sc_drivers/r_scifa/src/lld/r_rza2_scifa_lld.c ****  * sending/receiving correctly
 464:../generate/sc_drivers/r_scifa/src/lld/r_rza2_scifa_lld.c ****  *
 465:../generate/sc_drivers/r_scifa/src/lld/r_rza2_scifa_lld.c ****  * @param[in] channel: channel to enable loop back for
 466:../generate/sc_drivers/r_scifa/src/lld/r_rza2_scifa_lld.c ****  * @param[in] loopback: setting for channel loop back
 467:../generate/sc_drivers/r_scifa/src/lld/r_rza2_scifa_lld.c ****  *
 468:../generate/sc_drivers/r_scifa/src/lld/r_rza2_scifa_lld.c ****  * @retval  0 DRV_SUCCESS
 469:../generate/sc_drivers/r_scifa/src/lld/r_rza2_scifa_lld.c ****  * @retval -1 DRV_ERROR
 470:../generate/sc_drivers/r_scifa/src/lld/r_rza2_scifa_lld.c ****  */
 471:../generate/sc_drivers/r_scifa/src/lld/r_rza2_scifa_lld.c **** int_t R_SCIFA_SetLoopBack (r_channel_t channel, scifa_loop_t loopback)
 472:../generate/sc_drivers/r_scifa/src/lld/r_rza2_scifa_lld.c **** {
 589              		.loc 1 472 0
 590              		.cfi_startproc
 591              		@ args = 0, pretend = 0, frame = 0
 592              		@ frame_needed = 0, uses_anonymous_args = 0
 593              	.LVL76:
 473:../generate/sc_drivers/r_scifa/src/lld/r_rza2_scifa_lld.c ****     if ((channel > R_PRV_CFG_SCIF_LAST_CHANNEL) || (channel < 0))
 594              		.loc 1 473 0
 595 0000 7030EFE6 		uxtb	r3, r0
 596 0004 050053E3 		cmp	r3, #5
 597 0008 1A00008A 		bhi	.L69
 472:../generate/sc_drivers/r_scifa/src/lld/r_rza2_scifa_lld.c ****     if ((channel > R_PRV_CFG_SCIF_LAST_CHANNEL) || (channel < 0))
 598              		.loc 1 472 0
 599 000c 10402DE9 		push	{r4, lr}
 600              		.cfi_def_cfa_offset 8
 601              		.cfi_offset 4, -8
 602              		.cfi_offset 14, -4
 474:../generate/sc_drivers/r_scifa/src/lld/r_rza2_scifa_lld.c ****     {
 475:../generate/sc_drivers/r_scifa/src/lld/r_rza2_scifa_lld.c ****         return (DRV_ERROR);
 476:../generate/sc_drivers/r_scifa/src/lld/r_rza2_scifa_lld.c ****     }
 477:../generate/sc_drivers/r_scifa/src/lld/r_rza2_scifa_lld.c **** 
 478:../generate/sc_drivers/r_scifa/src/lld/r_rza2_scifa_lld.c ****     switch (loopback)
 603              		.loc 1 478 0
 604 0010 000051E3 		cmp	r1, #0
 605 0014 0300000A 		beq	.L67
 606 0018 010051E3 		cmp	r1, #1
 607 001c 0B00000A 		beq	.L68
 479:../generate/sc_drivers/r_scifa/src/lld/r_rza2_scifa_lld.c ****     {
 480:../generate/sc_drivers/r_scifa/src/lld/r_rza2_scifa_lld.c ****         default:
 481:../generate/sc_drivers/r_scifa/src/lld/r_rza2_scifa_lld.c ****         {
 482:../generate/sc_drivers/r_scifa/src/lld/r_rza2_scifa_lld.c ****             /* invalid loopback value */
 483:../generate/sc_drivers/r_scifa/src/lld/r_rza2_scifa_lld.c ****             return (DRV_ERROR);
 608              		.loc 1 483 0
 609 0020 0000E0E3 		mvn	r0, #0
 610              	.LVL77:
 484:../generate/sc_drivers/r_scifa/src/lld/r_rza2_scifa_lld.c ****         }
 485:../generate/sc_drivers/r_scifa/src/lld/r_rza2_scifa_lld.c **** 
 486:../generate/sc_drivers/r_scifa/src/lld/r_rza2_scifa_lld.c ****         case SCIFA_LOOPBACK_DISABLE:
 487:../generate/sc_drivers/r_scifa/src/lld/r_rza2_scifa_lld.c ****         {
 488:../generate/sc_drivers/r_scifa/src/lld/r_rza2_scifa_lld.c ****             /* Loop back disabled */
 489:../generate/sc_drivers/r_scifa/src/lld/r_rza2_scifa_lld.c ****             RZA_IO_RegWrite_16((volatile uint16_t *) &gsp_scifa[channel]->FCR.WORD, 0u, SCIFA_FCR_L
 490:../generate/sc_drivers/r_scifa/src/lld/r_rza2_scifa_lld.c ****             break;
 491:../generate/sc_drivers/r_scifa/src/lld/r_rza2_scifa_lld.c ****         }
 492:../generate/sc_drivers/r_scifa/src/lld/r_rza2_scifa_lld.c **** 
 493:../generate/sc_drivers/r_scifa/src/lld/r_rza2_scifa_lld.c ****         case SCIFA_LOOPBACK_ENABLE:
 494:../generate/sc_drivers/r_scifa/src/lld/r_rza2_scifa_lld.c ****         {
 495:../generate/sc_drivers/r_scifa/src/lld/r_rza2_scifa_lld.c ****             /* Loop back enabled */
 496:../generate/sc_drivers/r_scifa/src/lld/r_rza2_scifa_lld.c ****             RZA_IO_RegWrite_16((volatile uint16_t *) &gsp_scifa[channel]->FCR.WORD, 1u, SCIFA_FCR_L
 497:../generate/sc_drivers/r_scifa/src/lld/r_rza2_scifa_lld.c ****             break;
 498:../generate/sc_drivers/r_scifa/src/lld/r_rza2_scifa_lld.c ****         }
 499:../generate/sc_drivers/r_scifa/src/lld/r_rza2_scifa_lld.c ****     }
 500:../generate/sc_drivers/r_scifa/src/lld/r_rza2_scifa_lld.c **** 
 501:../generate/sc_drivers/r_scifa/src/lld/r_rza2_scifa_lld.c ****     return (DRV_SUCCESS);
 502:../generate/sc_drivers/r_scifa/src/lld/r_rza2_scifa_lld.c **** }
 611              		.loc 1 502 0
 612 0024 1080BDE8 		pop	{r4, pc}
 613              	.LVL78:
 614              	.L67:
 489:../generate/sc_drivers/r_scifa/src/lld/r_rza2_scifa_lld.c ****             break;
 615              		.loc 1 489 0
 616 0028 003000E3 		movw	r3, #:lower16:.LANCHOR0
 617 002c 003040E3 		movt	r3, #:upper16:.LANCHOR0
 618 0030 000193E7 		ldr	r0, [r3, r0, lsl #2]
 619              	.LVL79:
 620 0034 0130A0E3 		mov	r3, #1
 621 0038 0020A0E3 		mov	r2, #0
 622 003c 0210A0E1 		mov	r1, r2
 623              	.LVL80:
 624 0040 0C0080E2 		add	r0, r0, #12
 625 0044 FEFFFFEB 		bl	RZA_IO_RegWrite_16
 626              	.LVL81:
 501:../generate/sc_drivers/r_scifa/src/lld/r_rza2_scifa_lld.c **** }
 627              		.loc 1 501 0
 628 0048 0000A0E3 		mov	r0, #0
 490:../generate/sc_drivers/r_scifa/src/lld/r_rza2_scifa_lld.c ****         }
 629              		.loc 1 490 0
 630 004c 1080BDE8 		pop	{r4, pc}
 631              	.LVL82:
 632              	.L68:
 496:../generate/sc_drivers/r_scifa/src/lld/r_rza2_scifa_lld.c ****             break;
 633              		.loc 1 496 0
 634 0050 003000E3 		movw	r3, #:lower16:.LANCHOR0
 635 0054 003040E3 		movt	r3, #:upper16:.LANCHOR0
 636 0058 000193E7 		ldr	r0, [r3, r0, lsl #2]
 637              	.LVL83:
 638 005c 0130A0E3 		mov	r3, #1
 639 0060 0020A0E3 		mov	r2, #0
 640 0064 0310A0E1 		mov	r1, r3
 641              	.LVL84:
 642 0068 0C0080E2 		add	r0, r0, #12
 643 006c FEFFFFEB 		bl	RZA_IO_RegWrite_16
 644              	.LVL85:
 501:../generate/sc_drivers/r_scifa/src/lld/r_rza2_scifa_lld.c **** }
 645              		.loc 1 501 0
 646 0070 0000A0E3 		mov	r0, #0
 497:../generate/sc_drivers/r_scifa/src/lld/r_rza2_scifa_lld.c ****         }
 647              		.loc 1 497 0
 648 0074 1080BDE8 		pop	{r4, pc}
 649              	.LVL86:
 650              	.L69:
 651              		.cfi_def_cfa_offset 0
 652              		.cfi_restore 4
 653              		.cfi_restore 14
 475:../generate/sc_drivers/r_scifa/src/lld/r_rza2_scifa_lld.c ****     }
 654              		.loc 1 475 0
 655 0078 0000E0E3 		mvn	r0, #0
 656              	.LVL87:
 657 007c 1EFF2FE1 		bx	lr
 658              		.cfi_endproc
 659              	.LFE9:
 661              		.section	.text.R_SCIFA_SetDataOrder,"ax",%progbits
 662              		.align	2
 663              		.global	R_SCIFA_SetDataOrder
 664              		.syntax unified
 665              		.arm
 666              		.fpu neon
 668              	R_SCIFA_SetDataOrder:
 669              	.LFB10:
 503:../generate/sc_drivers/r_scifa/src/lld/r_rza2_scifa_lld.c **** /**************************************************************************************************
 504:../generate/sc_drivers/r_scifa/src/lld/r_rza2_scifa_lld.c ****  * End of Function R_SCIFA_SetLoopBack
 505:../generate/sc_drivers/r_scifa/src/lld/r_rza2_scifa_lld.c ****  **************************************************************************************************
 506:../generate/sc_drivers/r_scifa/src/lld/r_rza2_scifa_lld.c **** 
 507:../generate/sc_drivers/r_scifa/src/lld/r_rza2_scifa_lld.c **** /**
 508:../generate/sc_drivers/r_scifa/src/lld/r_rza2_scifa_lld.c ****  * @brief R_SCIFA_SetDataOrder Sets the data order for a given channel
 509:../generate/sc_drivers/r_scifa/src/lld/r_rza2_scifa_lld.c ****  * This function sets the data order for a given channel,
 510:../generate/sc_drivers/r_scifa/src/lld/r_rza2_scifa_lld.c ****  * this is either MSB or LSB first as defined in e_scifa_data_order_t
 511:../generate/sc_drivers/r_scifa/src/lld/r_rza2_scifa_lld.c ****  *
 512:../generate/sc_drivers/r_scifa/src/lld/r_rza2_scifa_lld.c ****  * @param[in] channel: channel to set data order for
 513:../generate/sc_drivers/r_scifa/src/lld/r_rza2_scifa_lld.c ****  * @param[in] desired_data_order: data order setting for channel
 514:../generate/sc_drivers/r_scifa/src/lld/r_rza2_scifa_lld.c ****  *
 515:../generate/sc_drivers/r_scifa/src/lld/r_rza2_scifa_lld.c ****  * @retval  0 DRV_SUCCESS
 516:../generate/sc_drivers/r_scifa/src/lld/r_rza2_scifa_lld.c ****  * @retval -1 DRV_ERROR
 517:../generate/sc_drivers/r_scifa/src/lld/r_rza2_scifa_lld.c ****  */
 518:../generate/sc_drivers/r_scifa/src/lld/r_rza2_scifa_lld.c **** int_t R_SCIFA_SetDataOrder (r_channel_t channel, scifa_dir_t desired_data_order)
 519:../generate/sc_drivers/r_scifa/src/lld/r_rza2_scifa_lld.c **** {
 670              		.loc 1 519 0
 671              		.cfi_startproc
 672              		@ args = 0, pretend = 0, frame = 0
 673              		@ frame_needed = 0, uses_anonymous_args = 0
 674              	.LVL88:
 520:../generate/sc_drivers/r_scifa/src/lld/r_rza2_scifa_lld.c ****     if ((channel > R_PRV_CFG_SCIF_LAST_CHANNEL) || (channel < 0))
 675              		.loc 1 520 0
 676 0000 7030EFE6 		uxtb	r3, r0
 677 0004 050053E3 		cmp	r3, #5
 678 0008 1A00008A 		bhi	.L80
 519:../generate/sc_drivers/r_scifa/src/lld/r_rza2_scifa_lld.c ****     if ((channel > R_PRV_CFG_SCIF_LAST_CHANNEL) || (channel < 0))
 679              		.loc 1 519 0
 680 000c 10402DE9 		push	{r4, lr}
 681              		.cfi_def_cfa_offset 8
 682              		.cfi_offset 4, -8
 683              		.cfi_offset 14, -4
 521:../generate/sc_drivers/r_scifa/src/lld/r_rza2_scifa_lld.c ****     {
 522:../generate/sc_drivers/r_scifa/src/lld/r_rza2_scifa_lld.c ****         return (DRV_ERROR);
 523:../generate/sc_drivers/r_scifa/src/lld/r_rza2_scifa_lld.c ****     }
 524:../generate/sc_drivers/r_scifa/src/lld/r_rza2_scifa_lld.c **** 
 525:../generate/sc_drivers/r_scifa/src/lld/r_rza2_scifa_lld.c ****     switch (desired_data_order)
 684              		.loc 1 525 0
 685 0010 000051E3 		cmp	r1, #0
 686 0014 0300000A 		beq	.L78
 687 0018 010051E3 		cmp	r1, #1
 688 001c 0B00000A 		beq	.L79
 526:../generate/sc_drivers/r_scifa/src/lld/r_rza2_scifa_lld.c ****     {
 527:../generate/sc_drivers/r_scifa/src/lld/r_rza2_scifa_lld.c ****         default:
 528:../generate/sc_drivers/r_scifa/src/lld/r_rza2_scifa_lld.c ****         {
 529:../generate/sc_drivers/r_scifa/src/lld/r_rza2_scifa_lld.c ****             /* invalid desired_data_order value */
 530:../generate/sc_drivers/r_scifa/src/lld/r_rza2_scifa_lld.c ****             return (DRV_ERROR);
 689              		.loc 1 530 0
 690 0020 0000E0E3 		mvn	r0, #0
 691              	.LVL89:
 531:../generate/sc_drivers/r_scifa/src/lld/r_rza2_scifa_lld.c ****         }
 532:../generate/sc_drivers/r_scifa/src/lld/r_rza2_scifa_lld.c **** 
 533:../generate/sc_drivers/r_scifa/src/lld/r_rza2_scifa_lld.c ****         case SCIFA_LSB_FIRST:
 534:../generate/sc_drivers/r_scifa/src/lld/r_rza2_scifa_lld.c ****         {
 535:../generate/sc_drivers/r_scifa/src/lld/r_rza2_scifa_lld.c ****             /* LSB first */
 536:../generate/sc_drivers/r_scifa/src/lld/r_rza2_scifa_lld.c ****             RZA_IO_RegWrite_8((volatile uint8_t *) &gsp_scifa[channel]->SEMR.BYTE, 0u, SCIFA_SEMR_D
 537:../generate/sc_drivers/r_scifa/src/lld/r_rza2_scifa_lld.c ****             break;
 538:../generate/sc_drivers/r_scifa/src/lld/r_rza2_scifa_lld.c ****         }
 539:../generate/sc_drivers/r_scifa/src/lld/r_rza2_scifa_lld.c **** 
 540:../generate/sc_drivers/r_scifa/src/lld/r_rza2_scifa_lld.c ****         case SCIFA_MSB_FIRST:
 541:../generate/sc_drivers/r_scifa/src/lld/r_rza2_scifa_lld.c ****         {
 542:../generate/sc_drivers/r_scifa/src/lld/r_rza2_scifa_lld.c ****             /* MSB first */
 543:../generate/sc_drivers/r_scifa/src/lld/r_rza2_scifa_lld.c ****             RZA_IO_RegWrite_8((volatile uint8_t *) &gsp_scifa[channel]->SEMR.BYTE, 1u, SCIFA_SEMR_D
 544:../generate/sc_drivers/r_scifa/src/lld/r_rza2_scifa_lld.c ****             break;
 545:../generate/sc_drivers/r_scifa/src/lld/r_rza2_scifa_lld.c ****         }
 546:../generate/sc_drivers/r_scifa/src/lld/r_rza2_scifa_lld.c ****     }
 547:../generate/sc_drivers/r_scifa/src/lld/r_rza2_scifa_lld.c **** 
 548:../generate/sc_drivers/r_scifa/src/lld/r_rza2_scifa_lld.c ****     return (DRV_SUCCESS);
 549:../generate/sc_drivers/r_scifa/src/lld/r_rza2_scifa_lld.c **** }
 692              		.loc 1 549 0
 693 0024 1080BDE8 		pop	{r4, pc}
 694              	.LVL90:
 695              	.L78:
 536:../generate/sc_drivers/r_scifa/src/lld/r_rza2_scifa_lld.c ****             break;
 696              		.loc 1 536 0
 697 0028 003000E3 		movw	r3, #:lower16:.LANCHOR0
 698 002c 003040E3 		movt	r3, #:upper16:.LANCHOR0
 699 0030 000193E7 		ldr	r0, [r3, r0, lsl #2]
 700              	.LVL91:
 701 0034 0830A0E3 		mov	r3, #8
 702 0038 0320A0E3 		mov	r2, #3
 703 003c 0010A0E3 		mov	r1, #0
 704              	.LVL92:
 705 0040 140080E2 		add	r0, r0, #20
 706 0044 FEFFFFEB 		bl	RZA_IO_RegWrite_8
 707              	.LVL93:
 548:../generate/sc_drivers/r_scifa/src/lld/r_rza2_scifa_lld.c **** }
 708              		.loc 1 548 0
 709 0048 0000A0E3 		mov	r0, #0
 537:../generate/sc_drivers/r_scifa/src/lld/r_rza2_scifa_lld.c ****         }
 710              		.loc 1 537 0
 711 004c 1080BDE8 		pop	{r4, pc}
 712              	.LVL94:
 713              	.L79:
 543:../generate/sc_drivers/r_scifa/src/lld/r_rza2_scifa_lld.c ****             break;
 714              		.loc 1 543 0
 715 0050 003000E3 		movw	r3, #:lower16:.LANCHOR0
 716 0054 003040E3 		movt	r3, #:upper16:.LANCHOR0
 717 0058 000193E7 		ldr	r0, [r3, r0, lsl #2]
 718              	.LVL95:
 719 005c 0830A0E3 		mov	r3, #8
 720 0060 0320A0E3 		mov	r2, #3
 721 0064 0110A0E3 		mov	r1, #1
 722              	.LVL96:
 723 0068 140080E2 		add	r0, r0, #20
 724 006c FEFFFFEB 		bl	RZA_IO_RegWrite_8
 725              	.LVL97:
 548:../generate/sc_drivers/r_scifa/src/lld/r_rza2_scifa_lld.c **** }
 726              		.loc 1 548 0
 727 0070 0000A0E3 		mov	r0, #0
 544:../generate/sc_drivers/r_scifa/src/lld/r_rza2_scifa_lld.c ****         }
 728              		.loc 1 544 0
 729 0074 1080BDE8 		pop	{r4, pc}
 730              	.LVL98:
 731              	.L80:
 732              		.cfi_def_cfa_offset 0
 733              		.cfi_restore 4
 734              		.cfi_restore 14
 522:../generate/sc_drivers/r_scifa/src/lld/r_rza2_scifa_lld.c ****     }
 735              		.loc 1 522 0
 736 0078 0000E0E3 		mvn	r0, #0
 737              	.LVL99:
 738 007c 1EFF2FE1 		bx	lr
 739              		.cfi_endproc
 740              	.LFE10:
 742              		.section	.text.R_SCIFA_Close,"ax",%progbits
 743              		.align	2
 744              		.global	R_SCIFA_Close
 745              		.syntax unified
 746              		.arm
 747              		.fpu neon
 749              	R_SCIFA_Close:
 750              	.LFB13:
 550:../generate/sc_drivers/r_scifa/src/lld/r_rza2_scifa_lld.c **** /**************************************************************************************************
 551:../generate/sc_drivers/r_scifa/src/lld/r_rza2_scifa_lld.c ****  * End of Function R_SCIFA_SetDataOrder
 552:../generate/sc_drivers/r_scifa/src/lld/r_rza2_scifa_lld.c ****  **************************************************************************************************
 553:../generate/sc_drivers/r_scifa/src/lld/r_rza2_scifa_lld.c **** 
 554:../generate/sc_drivers/r_scifa/src/lld/r_rza2_scifa_lld.c **** /**
 555:../generate/sc_drivers/r_scifa/src/lld/r_rza2_scifa_lld.c ****  * @brief R_SCIFA_Open is to be called when opening a channel
 556:../generate/sc_drivers/r_scifa/src/lld/r_rza2_scifa_lld.c ****  *
 557:../generate/sc_drivers/r_scifa/src/lld/r_rza2_scifa_lld.c ****  * @param[in] sc_config_index: smart Configuration index to open
 558:../generate/sc_drivers/r_scifa/src/lld/r_rza2_scifa_lld.c ****  * @param[out] p_config_set: configuration settings that will be updated
 559:../generate/sc_drivers/r_scifa/src/lld/r_rza2_scifa_lld.c ****  *                            with the values from the SC table
 560:../generate/sc_drivers/r_scifa/src/lld/r_rza2_scifa_lld.c ****  *
 561:../generate/sc_drivers/r_scifa/src/lld/r_rza2_scifa_lld.c ****  * @retval  0 DRV_SUCCESS
 562:../generate/sc_drivers/r_scifa/src/lld/r_rza2_scifa_lld.c ****  * @retval -1 DRV_ERROR
 563:../generate/sc_drivers/r_scifa/src/lld/r_rza2_scifa_lld.c ****  */
 564:../generate/sc_drivers/r_scifa/src/lld/r_rza2_scifa_lld.c **** int_t R_SCIFA_Open (r_sc_index_t sc_config_index, scifa_config_t *p_config_set)
 565:../generate/sc_drivers/r_scifa/src/lld/r_rza2_scifa_lld.c **** {
 566:../generate/sc_drivers/r_scifa/src/lld/r_rza2_scifa_lld.c ****     const scifa_config_t * p_config;
 567:../generate/sc_drivers/r_scifa/src/lld/r_rza2_scifa_lld.c ****     r_channel_t channel;
 568:../generate/sc_drivers/r_scifa/src/lld/r_rza2_scifa_lld.c ****     int_t result;
 569:../generate/sc_drivers/r_scifa/src/lld/r_rza2_scifa_lld.c ****     uint32_t achieved_baud_rate;
 570:../generate/sc_drivers/r_scifa/src/lld/r_rza2_scifa_lld.c **** 
 571:../generate/sc_drivers/r_scifa/src/lld/r_rza2_scifa_lld.c ****     /* get the channel for this configuration */
 572:../generate/sc_drivers/r_scifa/src/lld/r_rza2_scifa_lld.c ****     channel = R_SCIFA_GetChannel(sc_config_index);
 573:../generate/sc_drivers/r_scifa/src/lld/r_rza2_scifa_lld.c **** 
 574:../generate/sc_drivers/r_scifa/src/lld/r_rza2_scifa_lld.c ****     if (DRV_ERROR == channel)
 575:../generate/sc_drivers/r_scifa/src/lld/r_rza2_scifa_lld.c ****     {
 576:../generate/sc_drivers/r_scifa/src/lld/r_rza2_scifa_lld.c ****         return (DRV_ERROR);
 577:../generate/sc_drivers/r_scifa/src/lld/r_rza2_scifa_lld.c ****     }
 578:../generate/sc_drivers/r_scifa/src/lld/r_rza2_scifa_lld.c **** 
 579:../generate/sc_drivers/r_scifa/src/lld/r_rza2_scifa_lld.c ****     /* get the configuration settings from the Smart Configuration table */
 580:../generate/sc_drivers/r_scifa/src/lld/r_rza2_scifa_lld.c ****     p_config = &SCIFA_SC_TABLE[sc_config_index].config;
 581:../generate/sc_drivers/r_scifa/src/lld/r_rza2_scifa_lld.c **** 
 582:../generate/sc_drivers/r_scifa/src/lld/r_rza2_scifa_lld.c ****     /* configure the channel */
 583:../generate/sc_drivers/r_scifa/src/lld/r_rza2_scifa_lld.c ****     result = R_SCIFA_ChannelConfigure(channel, p_config, &achieved_baud_rate);
 584:../generate/sc_drivers/r_scifa/src/lld/r_rza2_scifa_lld.c **** 
 585:../generate/sc_drivers/r_scifa/src/lld/r_rza2_scifa_lld.c ****     /* configure GPIO */
 586:../generate/sc_drivers/r_scifa/src/lld/r_rza2_scifa_lld.c ****     if (DRV_SUCCESS == result)
 587:../generate/sc_drivers/r_scifa/src/lld/r_rza2_scifa_lld.c ****     {
 588:../generate/sc_drivers/r_scifa/src/lld/r_rza2_scifa_lld.c ****         int_t gpio_handle;
 589:../generate/sc_drivers/r_scifa/src/lld/r_rza2_scifa_lld.c ****         gpio_handle = direct_open("gpio", O_RDONLY);
 590:../generate/sc_drivers/r_scifa/src/lld/r_rza2_scifa_lld.c ****         
 591:../generate/sc_drivers/r_scifa/src/lld/r_rza2_scifa_lld.c ****         if (gpio_handle > 0)
 592:../generate/sc_drivers/r_scifa/src/lld/r_rza2_scifa_lld.c ****         {
 593:../generate/sc_drivers/r_scifa/src/lld/r_rza2_scifa_lld.c ****             /* direct_control as direct_control assumes parameter 3 is i/o, but using the parameter
 594:../generate/sc_drivers/r_scifa/src/lld/r_rza2_scifa_lld.c ****             direct_control(gpio_handle, CTL_GPIO_INIT_BY_TABLE, (void *) &SCIFA_SC_TABLE[sc_config_
 595:../generate/sc_drivers/r_scifa/src/lld/r_rza2_scifa_lld.c ****             direct_close(gpio_handle);
 596:../generate/sc_drivers/r_scifa/src/lld/r_rza2_scifa_lld.c ****         }
 597:../generate/sc_drivers/r_scifa/src/lld/r_rza2_scifa_lld.c ****         else
 598:../generate/sc_drivers/r_scifa/src/lld/r_rza2_scifa_lld.c ****         {
 599:../generate/sc_drivers/r_scifa/src/lld/r_rza2_scifa_lld.c ****             result = DRV_ERROR;
 600:../generate/sc_drivers/r_scifa/src/lld/r_rza2_scifa_lld.c ****         }
 601:../generate/sc_drivers/r_scifa/src/lld/r_rza2_scifa_lld.c ****     }
 602:../generate/sc_drivers/r_scifa/src/lld/r_rza2_scifa_lld.c **** 
 603:../generate/sc_drivers/r_scifa/src/lld/r_rza2_scifa_lld.c ****     /* if we were successful, then update the stored configuration data */
 604:../generate/sc_drivers/r_scifa/src/lld/r_rza2_scifa_lld.c ****     if (DRV_SUCCESS == result)
 605:../generate/sc_drivers/r_scifa/src/lld/r_rza2_scifa_lld.c ****     {
 606:../generate/sc_drivers/r_scifa/src/lld/r_rza2_scifa_lld.c ****         memcpy(p_config_set, p_config, sizeof(scifa_config_t));
 607:../generate/sc_drivers/r_scifa/src/lld/r_rza2_scifa_lld.c ****         p_config_set->baud_rate = achieved_baud_rate;
 608:../generate/sc_drivers/r_scifa/src/lld/r_rza2_scifa_lld.c ****     }
 609:../generate/sc_drivers/r_scifa/src/lld/r_rza2_scifa_lld.c **** 
 610:../generate/sc_drivers/r_scifa/src/lld/r_rza2_scifa_lld.c ****     return (result);
 611:../generate/sc_drivers/r_scifa/src/lld/r_rza2_scifa_lld.c **** }
 612:../generate/sc_drivers/r_scifa/src/lld/r_rza2_scifa_lld.c **** /**************************************************************************************************
 613:../generate/sc_drivers/r_scifa/src/lld/r_rza2_scifa_lld.c ****  * End of Function R_SCIFA_Open
 614:../generate/sc_drivers/r_scifa/src/lld/r_rza2_scifa_lld.c ****  **************************************************************************************************
 615:../generate/sc_drivers/r_scifa/src/lld/r_rza2_scifa_lld.c **** 
 616:../generate/sc_drivers/r_scifa/src/lld/r_rza2_scifa_lld.c **** /**
 617:../generate/sc_drivers/r_scifa/src/lld/r_rza2_scifa_lld.c ****  * @brief R_SCIFA_ChannelConfigure configures a channel
 618:../generate/sc_drivers/r_scifa/src/lld/r_rza2_scifa_lld.c ****  *
 619:../generate/sc_drivers/r_scifa/src/lld/r_rza2_scifa_lld.c ****  * @param[in] channel: channel to configure
 620:../generate/sc_drivers/r_scifa/src/lld/r_rza2_scifa_lld.c ****  * @param[in] p_configuration: configuration data
 621:../generate/sc_drivers/r_scifa/src/lld/r_rza2_scifa_lld.c ****  * @param[out] p_achieved_baud_rate: achieved baud rate
 622:../generate/sc_drivers/r_scifa/src/lld/r_rza2_scifa_lld.c ****  *
 623:../generate/sc_drivers/r_scifa/src/lld/r_rza2_scifa_lld.c ****  * @retval  0 DRV_SUCCESS
 624:../generate/sc_drivers/r_scifa/src/lld/r_rza2_scifa_lld.c ****  * @retval -1 DRV_ERROR
 625:../generate/sc_drivers/r_scifa/src/lld/r_rza2_scifa_lld.c ****  */
 626:../generate/sc_drivers/r_scifa/src/lld/r_rza2_scifa_lld.c **** int_t R_SCIFA_ChannelConfigure (r_channel_t channel, const scifa_config_t *p_configuration, uint32_
 627:../generate/sc_drivers/r_scifa/src/lld/r_rza2_scifa_lld.c **** {
 628:../generate/sc_drivers/r_scifa/src/lld/r_rza2_scifa_lld.c ****     int_t result;
 629:../generate/sc_drivers/r_scifa/src/lld/r_rza2_scifa_lld.c **** 
 630:../generate/sc_drivers/r_scifa/src/lld/r_rza2_scifa_lld.c ****     /* stop the device */
 631:../generate/sc_drivers/r_scifa/src/lld/r_rza2_scifa_lld.c ****     result = R_SCIFA_Stop(channel);
 632:../generate/sc_drivers/r_scifa/src/lld/r_rza2_scifa_lld.c **** 
 633:../generate/sc_drivers/r_scifa/src/lld/r_rza2_scifa_lld.c ****     if (DRV_SUCCESS != result)
 634:../generate/sc_drivers/r_scifa/src/lld/r_rza2_scifa_lld.c ****     {
 635:../generate/sc_drivers/r_scifa/src/lld/r_rza2_scifa_lld.c ****         return (result);
 636:../generate/sc_drivers/r_scifa/src/lld/r_rza2_scifa_lld.c ****     }
 637:../generate/sc_drivers/r_scifa/src/lld/r_rza2_scifa_lld.c **** 
 638:../generate/sc_drivers/r_scifa/src/lld/r_rza2_scifa_lld.c ****     /* start the SCIFA module */
 639:../generate/sc_drivers/r_scifa/src/lld/r_rza2_scifa_lld.c ****     result = R_SCIFA_StartModule(channel, true);
 640:../generate/sc_drivers/r_scifa/src/lld/r_rza2_scifa_lld.c **** 
 641:../generate/sc_drivers/r_scifa/src/lld/r_rza2_scifa_lld.c ****     if (DRV_SUCCESS != result)
 642:../generate/sc_drivers/r_scifa/src/lld/r_rza2_scifa_lld.c ****     {
 643:../generate/sc_drivers/r_scifa/src/lld/r_rza2_scifa_lld.c ****         return (result);
 644:../generate/sc_drivers/r_scifa/src/lld/r_rza2_scifa_lld.c ****     }
 645:../generate/sc_drivers/r_scifa/src/lld/r_rza2_scifa_lld.c **** 
 646:../generate/sc_drivers/r_scifa/src/lld/r_rza2_scifa_lld.c ****     /* initialise the device for setup */
 647:../generate/sc_drivers/r_scifa/src/lld/r_rza2_scifa_lld.c ****     result = R_SCIFA_Init(channel);
 648:../generate/sc_drivers/r_scifa/src/lld/r_rza2_scifa_lld.c **** 
 649:../generate/sc_drivers/r_scifa/src/lld/r_rza2_scifa_lld.c ****     if (DRV_SUCCESS != result)
 650:../generate/sc_drivers/r_scifa/src/lld/r_rza2_scifa_lld.c ****     {
 651:../generate/sc_drivers/r_scifa/src/lld/r_rza2_scifa_lld.c ****         return (result);
 652:../generate/sc_drivers/r_scifa/src/lld/r_rza2_scifa_lld.c ****     }
 653:../generate/sc_drivers/r_scifa/src/lld/r_rza2_scifa_lld.c **** 
 654:../generate/sc_drivers/r_scifa/src/lld/r_rza2_scifa_lld.c ****     if (SCIFA_PARITY_ON == p_configuration->parity_en)
 655:../generate/sc_drivers/r_scifa/src/lld/r_rza2_scifa_lld.c ****     {
 656:../generate/sc_drivers/r_scifa/src/lld/r_rza2_scifa_lld.c ****         result = R_SCIFA_SetParity(channel, p_configuration->parity_type);
 657:../generate/sc_drivers/r_scifa/src/lld/r_rza2_scifa_lld.c ****     }
 658:../generate/sc_drivers/r_scifa/src/lld/r_rza2_scifa_lld.c ****     else
 659:../generate/sc_drivers/r_scifa/src/lld/r_rza2_scifa_lld.c ****     {
 660:../generate/sc_drivers/r_scifa/src/lld/r_rza2_scifa_lld.c ****         /* set parity off as SCIFA_PARITY_NONE no longer supported */
 661:../generate/sc_drivers/r_scifa/src/lld/r_rza2_scifa_lld.c ****         result = R_SCIFA_SetParity(channel, SCIFA_NONE_PARITY);
 662:../generate/sc_drivers/r_scifa/src/lld/r_rza2_scifa_lld.c ****     }
 663:../generate/sc_drivers/r_scifa/src/lld/r_rza2_scifa_lld.c **** 
 664:../generate/sc_drivers/r_scifa/src/lld/r_rza2_scifa_lld.c ****     if (DRV_SUCCESS != result)
 665:../generate/sc_drivers/r_scifa/src/lld/r_rza2_scifa_lld.c ****     {
 666:../generate/sc_drivers/r_scifa/src/lld/r_rza2_scifa_lld.c ****         return (result);
 667:../generate/sc_drivers/r_scifa/src/lld/r_rza2_scifa_lld.c ****     }
 668:../generate/sc_drivers/r_scifa/src/lld/r_rza2_scifa_lld.c **** 
 669:../generate/sc_drivers/r_scifa/src/lld/r_rza2_scifa_lld.c ****     result = R_SCIFA_SetStopBits(channel, p_configuration->stop_bits);
 670:../generate/sc_drivers/r_scifa/src/lld/r_rza2_scifa_lld.c **** 
 671:../generate/sc_drivers/r_scifa/src/lld/r_rza2_scifa_lld.c ****     if (DRV_SUCCESS != result)
 672:../generate/sc_drivers/r_scifa/src/lld/r_rza2_scifa_lld.c ****     {
 673:../generate/sc_drivers/r_scifa/src/lld/r_rza2_scifa_lld.c ****         return (result);
 674:../generate/sc_drivers/r_scifa/src/lld/r_rza2_scifa_lld.c ****     }
 675:../generate/sc_drivers/r_scifa/src/lld/r_rza2_scifa_lld.c **** 
 676:../generate/sc_drivers/r_scifa/src/lld/r_rza2_scifa_lld.c ****     result = R_SICFA_SetTransmissionMode(channel, p_configuration->sync_mode);
 677:../generate/sc_drivers/r_scifa/src/lld/r_rza2_scifa_lld.c **** 
 678:../generate/sc_drivers/r_scifa/src/lld/r_rza2_scifa_lld.c ****     if (DRV_SUCCESS != result)
 679:../generate/sc_drivers/r_scifa/src/lld/r_rza2_scifa_lld.c ****     {
 680:../generate/sc_drivers/r_scifa/src/lld/r_rza2_scifa_lld.c ****         return (result);
 681:../generate/sc_drivers/r_scifa/src/lld/r_rza2_scifa_lld.c ****     }
 682:../generate/sc_drivers/r_scifa/src/lld/r_rza2_scifa_lld.c **** 
 683:../generate/sc_drivers/r_scifa/src/lld/r_rza2_scifa_lld.c ****     result = R_SCIFA_SetDataBits(channel, p_configuration->data_size);
 684:../generate/sc_drivers/r_scifa/src/lld/r_rza2_scifa_lld.c **** 
 685:../generate/sc_drivers/r_scifa/src/lld/r_rza2_scifa_lld.c ****     if (DRV_SUCCESS != result)
 686:../generate/sc_drivers/r_scifa/src/lld/r_rza2_scifa_lld.c ****     {
 687:../generate/sc_drivers/r_scifa/src/lld/r_rza2_scifa_lld.c ****         return (result);
 688:../generate/sc_drivers/r_scifa/src/lld/r_rza2_scifa_lld.c ****     }
 689:../generate/sc_drivers/r_scifa/src/lld/r_rza2_scifa_lld.c **** 
 690:../generate/sc_drivers/r_scifa/src/lld/r_rza2_scifa_lld.c ****     int_t cpg_handle;
 691:../generate/sc_drivers/r_scifa/src/lld/r_rza2_scifa_lld.c ****     st_r_drv_cpg_get_clk_t cpg_get_clock_t;
 692:../generate/sc_drivers/r_scifa/src/lld/r_rza2_scifa_lld.c ****     uint32_t current_clk_hz;
 693:../generate/sc_drivers/r_scifa/src/lld/r_rza2_scifa_lld.c **** 
 694:../generate/sc_drivers/r_scifa/src/lld/r_rza2_scifa_lld.c ****     /* open the CPG driver */
 695:../generate/sc_drivers/r_scifa/src/lld/r_rza2_scifa_lld.c ****     cpg_handle = direct_open("cpg", O_RDONLY);
 696:../generate/sc_drivers/r_scifa/src/lld/r_rza2_scifa_lld.c **** 
 697:../generate/sc_drivers/r_scifa/src/lld/r_rza2_scifa_lld.c ****     if (cpg_handle < 0)
 698:../generate/sc_drivers/r_scifa/src/lld/r_rza2_scifa_lld.c ****     {
 699:../generate/sc_drivers/r_scifa/src/lld/r_rza2_scifa_lld.c ****         return (DRV_ERROR);
 700:../generate/sc_drivers/r_scifa/src/lld/r_rza2_scifa_lld.c ****     }
 701:../generate/sc_drivers/r_scifa/src/lld/r_rza2_scifa_lld.c **** 
 702:../generate/sc_drivers/r_scifa/src/lld/r_rza2_scifa_lld.c ****     /* interrogate the CPG driver for the P1 clock frequency */
 703:../generate/sc_drivers/r_scifa/src/lld/r_rza2_scifa_lld.c ****     cpg_get_clock_t.freq_src = CPG_FREQ_P1CLK;
 704:../generate/sc_drivers/r_scifa/src/lld/r_rza2_scifa_lld.c ****     if (control(cpg_handle, CTL_CPG_GET_CLK, &cpg_get_clock_t) != DRV_SUCCESS)
 705:../generate/sc_drivers/r_scifa/src/lld/r_rza2_scifa_lld.c ****     {
 706:../generate/sc_drivers/r_scifa/src/lld/r_rza2_scifa_lld.c ****         return (DRV_ERROR);
 707:../generate/sc_drivers/r_scifa/src/lld/r_rza2_scifa_lld.c ****     }
 708:../generate/sc_drivers/r_scifa/src/lld/r_rza2_scifa_lld.c **** 
 709:../generate/sc_drivers/r_scifa/src/lld/r_rza2_scifa_lld.c ****     /* close the CPG driver */
 710:../generate/sc_drivers/r_scifa/src/lld/r_rza2_scifa_lld.c ****     direct_close(cpg_handle);
 711:../generate/sc_drivers/r_scifa/src/lld/r_rza2_scifa_lld.c **** 
 712:../generate/sc_drivers/r_scifa/src/lld/r_rza2_scifa_lld.c ****     /* convert data from CPG (KHz) to SCIFA (Hz) requirements */
 713:../generate/sc_drivers/r_scifa/src/lld/r_rza2_scifa_lld.c ****     current_clk_hz = ((uint32_t) (cpg_get_clock_t.clk_frequency_khz)) * 1000;
 714:../generate/sc_drivers/r_scifa/src/lld/r_rza2_scifa_lld.c **** 
 715:../generate/sc_drivers/r_scifa/src/lld/r_rza2_scifa_lld.c ****     result = R_SCIFA_SetBaud(channel, p_configuration->baud_rate, current_clk_hz, p_configuration->
 716:../generate/sc_drivers/r_scifa/src/lld/r_rza2_scifa_lld.c **** 
 717:../generate/sc_drivers/r_scifa/src/lld/r_rza2_scifa_lld.c ****     if (DRV_SUCCESS != result)
 718:../generate/sc_drivers/r_scifa/src/lld/r_rza2_scifa_lld.c ****     {
 719:../generate/sc_drivers/r_scifa/src/lld/r_rza2_scifa_lld.c ****         return (result);
 720:../generate/sc_drivers/r_scifa/src/lld/r_rza2_scifa_lld.c ****     }
 721:../generate/sc_drivers/r_scifa/src/lld/r_rza2_scifa_lld.c **** 
 722:../generate/sc_drivers/r_scifa/src/lld/r_rza2_scifa_lld.c ****     result = R_SCIFA_SetLoopBack(channel, p_configuration->loopback);
 723:../generate/sc_drivers/r_scifa/src/lld/r_rza2_scifa_lld.c **** 
 724:../generate/sc_drivers/r_scifa/src/lld/r_rza2_scifa_lld.c ****     if (DRV_SUCCESS != result)
 725:../generate/sc_drivers/r_scifa/src/lld/r_rza2_scifa_lld.c ****     {
 726:../generate/sc_drivers/r_scifa/src/lld/r_rza2_scifa_lld.c ****         return (result);
 727:../generate/sc_drivers/r_scifa/src/lld/r_rza2_scifa_lld.c ****     }
 728:../generate/sc_drivers/r_scifa/src/lld/r_rza2_scifa_lld.c **** 
 729:../generate/sc_drivers/r_scifa/src/lld/r_rza2_scifa_lld.c ****     result = R_SCIFA_SetDataOrder(channel, p_configuration->data_direction);
 730:../generate/sc_drivers/r_scifa/src/lld/r_rza2_scifa_lld.c **** 
 731:../generate/sc_drivers/r_scifa/src/lld/r_rza2_scifa_lld.c ****     if (DRV_SUCCESS != result)
 732:../generate/sc_drivers/r_scifa/src/lld/r_rza2_scifa_lld.c ****     {
 733:../generate/sc_drivers/r_scifa/src/lld/r_rza2_scifa_lld.c ****         return (result);
 734:../generate/sc_drivers/r_scifa/src/lld/r_rza2_scifa_lld.c ****     }
 735:../generate/sc_drivers/r_scifa/src/lld/r_rza2_scifa_lld.c **** 
 736:../generate/sc_drivers/r_scifa/src/lld/r_rza2_scifa_lld.c ****     result = R_SCIFA_SetTXDOutput(channel, p_configuration->txd_init_value);
 737:../generate/sc_drivers/r_scifa/src/lld/r_rza2_scifa_lld.c **** 
 738:../generate/sc_drivers/r_scifa/src/lld/r_rza2_scifa_lld.c ****     if (DRV_SUCCESS != result)
 739:../generate/sc_drivers/r_scifa/src/lld/r_rza2_scifa_lld.c ****     {
 740:../generate/sc_drivers/r_scifa/src/lld/r_rza2_scifa_lld.c ****         return (result);
 741:../generate/sc_drivers/r_scifa/src/lld/r_rza2_scifa_lld.c ****     }
 742:../generate/sc_drivers/r_scifa/src/lld/r_rza2_scifa_lld.c **** 
 743:../generate/sc_drivers/r_scifa/src/lld/r_rza2_scifa_lld.c ****     result = R_SCIFA_SetSCKOutput(channel, p_configuration->sck_init_value);
 744:../generate/sc_drivers/r_scifa/src/lld/r_rza2_scifa_lld.c **** 
 745:../generate/sc_drivers/r_scifa/src/lld/r_rza2_scifa_lld.c ****     if (DRV_SUCCESS != result)
 746:../generate/sc_drivers/r_scifa/src/lld/r_rza2_scifa_lld.c ****     {
 747:../generate/sc_drivers/r_scifa/src/lld/r_rza2_scifa_lld.c ****         return (result);
 748:../generate/sc_drivers/r_scifa/src/lld/r_rza2_scifa_lld.c ****     }
 749:../generate/sc_drivers/r_scifa/src/lld/r_rza2_scifa_lld.c **** 
 750:../generate/sc_drivers/r_scifa/src/lld/r_rza2_scifa_lld.c ****     /* RTS not available on channel 3 or channel 4 */
 751:../generate/sc_drivers/r_scifa/src/lld/r_rza2_scifa_lld.c ****     if ((R_PRV_SCIFA_CHANNEL_3 != channel) && (R_PRV_SCIFA_CHANNEL_4 != channel))
 752:../generate/sc_drivers/r_scifa/src/lld/r_rza2_scifa_lld.c ****     {
 753:../generate/sc_drivers/r_scifa/src/lld/r_rza2_scifa_lld.c ****         result = R_SCIFA_SetRTSOutput(channel, p_configuration->rts_init_value);
 754:../generate/sc_drivers/r_scifa/src/lld/r_rza2_scifa_lld.c ****     }
 755:../generate/sc_drivers/r_scifa/src/lld/r_rza2_scifa_lld.c **** 
 756:../generate/sc_drivers/r_scifa/src/lld/r_rza2_scifa_lld.c ****     if (DRV_SUCCESS != result)
 757:../generate/sc_drivers/r_scifa/src/lld/r_rza2_scifa_lld.c ****     {
 758:../generate/sc_drivers/r_scifa/src/lld/r_rza2_scifa_lld.c ****         return (result);
 759:../generate/sc_drivers/r_scifa/src/lld/r_rza2_scifa_lld.c ****     }
 760:../generate/sc_drivers/r_scifa/src/lld/r_rza2_scifa_lld.c **** 
 761:../generate/sc_drivers/r_scifa/src/lld/r_rza2_scifa_lld.c ****     /* CTS not available on channel 3 or channel 4 */
 762:../generate/sc_drivers/r_scifa/src/lld/r_rza2_scifa_lld.c ****     if ((R_PRV_SCIFA_CHANNEL_3 != channel) && (R_PRV_SCIFA_CHANNEL_4 != channel))
 763:../generate/sc_drivers/r_scifa/src/lld/r_rza2_scifa_lld.c ****     {
 764:../generate/sc_drivers/r_scifa/src/lld/r_rza2_scifa_lld.c ****         result = R_SCIFA_SetCTSOutput(channel, p_configuration->cts_init_value);
 765:../generate/sc_drivers/r_scifa/src/lld/r_rza2_scifa_lld.c ****     }
 766:../generate/sc_drivers/r_scifa/src/lld/r_rza2_scifa_lld.c **** 
 767:../generate/sc_drivers/r_scifa/src/lld/r_rza2_scifa_lld.c ****     if (DRV_SUCCESS != result)
 768:../generate/sc_drivers/r_scifa/src/lld/r_rza2_scifa_lld.c ****     {
 769:../generate/sc_drivers/r_scifa/src/lld/r_rza2_scifa_lld.c ****         return (result);
 770:../generate/sc_drivers/r_scifa/src/lld/r_rza2_scifa_lld.c ****     }
 771:../generate/sc_drivers/r_scifa/src/lld/r_rza2_scifa_lld.c **** 
 772:../generate/sc_drivers/r_scifa/src/lld/r_rza2_scifa_lld.c ****     /* set extended features */
 773:../generate/sc_drivers/r_scifa/src/lld/r_rza2_scifa_lld.c ****     result = R_SCIFA_SetExtendedCfg(channel, p_configuration);
 774:../generate/sc_drivers/r_scifa/src/lld/r_rza2_scifa_lld.c **** 
 775:../generate/sc_drivers/r_scifa/src/lld/r_rza2_scifa_lld.c ****     return (result);
 776:../generate/sc_drivers/r_scifa/src/lld/r_rza2_scifa_lld.c **** }
 777:../generate/sc_drivers/r_scifa/src/lld/r_rza2_scifa_lld.c **** /**************************************************************************************************
 778:../generate/sc_drivers/r_scifa/src/lld/r_rza2_scifa_lld.c ****  * End of Function R_SCIFA_ChannelConfigure
 779:../generate/sc_drivers/r_scifa/src/lld/r_rza2_scifa_lld.c ****  **************************************************************************************************
 780:../generate/sc_drivers/r_scifa/src/lld/r_rza2_scifa_lld.c **** 
 781:../generate/sc_drivers/r_scifa/src/lld/r_rza2_scifa_lld.c **** /**
 782:../generate/sc_drivers/r_scifa/src/lld/r_rza2_scifa_lld.c ****  * @brief R_SCIFA_Close is to be called when closing a channel
 783:../generate/sc_drivers/r_scifa/src/lld/r_rza2_scifa_lld.c ****  * This function is currently stubbed, in case a developer may wish
 784:../generate/sc_drivers/r_scifa/src/lld/r_rza2_scifa_lld.c ****  * to implement it in a future driver update
 785:../generate/sc_drivers/r_scifa/src/lld/r_rza2_scifa_lld.c ****  *
 786:../generate/sc_drivers/r_scifa/src/lld/r_rza2_scifa_lld.c ****  * @param[in] channel: channel to close
 787:../generate/sc_drivers/r_scifa/src/lld/r_rza2_scifa_lld.c ****  *
 788:../generate/sc_drivers/r_scifa/src/lld/r_rza2_scifa_lld.c ****  * @retval  0 DRV_SUCCESS
 789:../generate/sc_drivers/r_scifa/src/lld/r_rza2_scifa_lld.c ****  * @retval -1 DRV_ERROR
 790:../generate/sc_drivers/r_scifa/src/lld/r_rza2_scifa_lld.c ****  */
 791:../generate/sc_drivers/r_scifa/src/lld/r_rza2_scifa_lld.c **** int_t R_SCIFA_Close (r_channel_t channel)
 792:../generate/sc_drivers/r_scifa/src/lld/r_rza2_scifa_lld.c **** {
 751              		.loc 1 792 0
 752              		.cfi_startproc
 753              		@ args = 0, pretend = 0, frame = 0
 754              		@ frame_needed = 0, uses_anonymous_args = 0
 755              		@ link register save eliminated.
 756              	.LVL100:
 793:../generate/sc_drivers/r_scifa/src/lld/r_rza2_scifa_lld.c ****     if ((channel > R_PRV_CFG_SCIF_LAST_CHANNEL) || (channel < 0))
 757              		.loc 1 793 0
 758 0000 7000EFE6 		uxtb	r0, r0
 759 0004 050050E3 		cmp	r0, #5
 760 0008 0100008A 		bhi	.L90
 794:../generate/sc_drivers/r_scifa/src/lld/r_rza2_scifa_lld.c ****     {
 795:../generate/sc_drivers/r_scifa/src/lld/r_rza2_scifa_lld.c ****         return (DRV_ERROR);
 796:../generate/sc_drivers/r_scifa/src/lld/r_rza2_scifa_lld.c ****     }
 797:../generate/sc_drivers/r_scifa/src/lld/r_rza2_scifa_lld.c **** 
 798:../generate/sc_drivers/r_scifa/src/lld/r_rza2_scifa_lld.c ****     return (DRV_SUCCESS);
 761              		.loc 1 798 0
 762 000c 0000A0E3 		mov	r0, #0
 763              	.LVL101:
 799:../generate/sc_drivers/r_scifa/src/lld/r_rza2_scifa_lld.c **** }
 764              		.loc 1 799 0
 765 0010 1EFF2FE1 		bx	lr
 766              	.L90:
 795:../generate/sc_drivers/r_scifa/src/lld/r_rza2_scifa_lld.c ****     }
 767              		.loc 1 795 0
 768 0014 0000E0E3 		mvn	r0, #0
 769 0018 1EFF2FE1 		bx	lr
 770              		.cfi_endproc
 771              	.LFE13:
 773              		.section	.text.R_SCIFA_StopTransmit,"ax",%progbits
 774              		.align	2
 775              		.global	R_SCIFA_StopTransmit
 776              		.syntax unified
 777              		.arm
 778              		.fpu neon
 780              	R_SCIFA_StopTransmit:
 781              	.LFB14:
 800:../generate/sc_drivers/r_scifa/src/lld/r_rza2_scifa_lld.c **** /**************************************************************************************************
 801:../generate/sc_drivers/r_scifa/src/lld/r_rza2_scifa_lld.c ****  * End of Function R_SCIFA_Close
 802:../generate/sc_drivers/r_scifa/src/lld/r_rza2_scifa_lld.c ****  **************************************************************************************************
 803:../generate/sc_drivers/r_scifa/src/lld/r_rza2_scifa_lld.c **** 
 804:../generate/sc_drivers/r_scifa/src/lld/r_rza2_scifa_lld.c **** /**
 805:../generate/sc_drivers/r_scifa/src/lld/r_rza2_scifa_lld.c ****  * @brief R_SCIFA_StopTransmit stops transmission at the end of a DMA transmit
 806:../generate/sc_drivers/r_scifa/src/lld/r_rza2_scifa_lld.c ****  *
 807:../generate/sc_drivers/r_scifa/src/lld/r_rza2_scifa_lld.c ****  * @param[in] channel Channel to stop
 808:../generate/sc_drivers/r_scifa/src/lld/r_rza2_scifa_lld.c ****  *
 809:../generate/sc_drivers/r_scifa/src/lld/r_rza2_scifa_lld.c ****  * @retval  0 DRV_SUCCESS
 810:../generate/sc_drivers/r_scifa/src/lld/r_rza2_scifa_lld.c ****  * @retval -1 DRV_ERROR
 811:../generate/sc_drivers/r_scifa/src/lld/r_rza2_scifa_lld.c ****  */
 812:../generate/sc_drivers/r_scifa/src/lld/r_rza2_scifa_lld.c **** int_t R_SCIFA_StopTransmit (r_channel_t channel)
 813:../generate/sc_drivers/r_scifa/src/lld/r_rza2_scifa_lld.c **** {
 782              		.loc 1 813 0
 783              		.cfi_startproc
 784              		@ args = 0, pretend = 0, frame = 0
 785              		@ frame_needed = 0, uses_anonymous_args = 0
 786              	.LVL102:
 814:../generate/sc_drivers/r_scifa/src/lld/r_rza2_scifa_lld.c ****     /* check arguments */
 815:../generate/sc_drivers/r_scifa/src/lld/r_rza2_scifa_lld.c ****     if ((channel > SCIFA_CFG_LLD_NUM_CHANNELS) || (channel < 0))
 787              		.loc 1 815 0
 788 0000 7030EFE6 		uxtb	r3, r0
 789 0004 050053E3 		cmp	r3, #5
 790 0008 2000008A 		bhi	.L93
 813:../generate/sc_drivers/r_scifa/src/lld/r_rza2_scifa_lld.c ****     /* check arguments */
 791              		.loc 1 813 0
 792 000c 70402DE9 		push	{r4, r5, r6, lr}
 793              		.cfi_def_cfa_offset 16
 794              		.cfi_offset 4, -16
 795              		.cfi_offset 5, -12
 796              		.cfi_offset 6, -8
 797              		.cfi_offset 14, -4
 816:../generate/sc_drivers/r_scifa/src/lld/r_rza2_scifa_lld.c ****     {
 817:../generate/sc_drivers/r_scifa/src/lld/r_rza2_scifa_lld.c ****         return (DRV_ERROR);
 818:../generate/sc_drivers/r_scifa/src/lld/r_rza2_scifa_lld.c ****     }
 819:../generate/sc_drivers/r_scifa/src/lld/r_rza2_scifa_lld.c **** 
 820:../generate/sc_drivers/r_scifa/src/lld/r_rza2_scifa_lld.c ****     /* Disable transmit interrupt */
 821:../generate/sc_drivers/r_scifa/src/lld/r_rza2_scifa_lld.c ****     RZA_IO_RegWrite_16((volatile uint16_t *) &gsp_scifa[channel]->SCR.WORD, (uint16_t) 0, SCIFA_SCR
 798              		.loc 1 821 0
 799 0010 003000E3 		movw	r3, #:lower16:.LANCHOR0
 800 0014 003040E3 		movt	r3, #:upper16:.LANCHOR0
 801 0018 004193E7 		ldr	r4, [r3, r0, lsl #2]
 802 001c 045084E2 		add	r5, r4, #4
 803 0020 8030A0E3 		mov	r3, #128
 804 0024 0720A0E3 		mov	r2, #7
 805 0028 0010A0E3 		mov	r1, #0
 806 002c 0500A0E1 		mov	r0, r5
 807              	.LVL103:
 808 0030 FEFFFFEB 		bl	RZA_IO_RegWrite_16
 809              	.LVL104:
 822:../generate/sc_drivers/r_scifa/src/lld/r_rza2_scifa_lld.c **** 
 823:../generate/sc_drivers/r_scifa/src/lld/r_rza2_scifa_lld.c ****     /* Disable transmit */
 824:../generate/sc_drivers/r_scifa/src/lld/r_rza2_scifa_lld.c ****     RZA_IO_RegWrite_16((volatile uint16_t *) &gsp_scifa[channel]->SCR.WORD, (uint16_t) 0, SCIFA_SCR
 810              		.loc 1 824 0
 811 0034 2030A0E3 		mov	r3, #32
 812 0038 0520A0E3 		mov	r2, #5
 813 003c 0010A0E3 		mov	r1, #0
 814 0040 0500A0E1 		mov	r0, r5
 815 0044 FEFFFFEB 		bl	RZA_IO_RegWrite_16
 816              	.LVL105:
 825:../generate/sc_drivers/r_scifa/src/lld/r_rza2_scifa_lld.c **** 
 826:../generate/sc_drivers/r_scifa/src/lld/r_rza2_scifa_lld.c ****     /* disable transmit end interrupt enable */
 827:../generate/sc_drivers/r_scifa/src/lld/r_rza2_scifa_lld.c ****     RZA_IO_RegWrite_16((volatile uint16_t *) &gsp_scifa[channel]->SCR.WORD, 0, SCIFA_SCR_TEIE_SHIFT
 817              		.loc 1 827 0
 818 0048 0430A0E3 		mov	r3, #4
 819 004c 0220A0E3 		mov	r2, #2
 820 0050 0010A0E3 		mov	r1, #0
 821 0054 0500A0E1 		mov	r0, r5
 822 0058 FEFFFFEB 		bl	RZA_IO_RegWrite_16
 823              	.LVL106:
 828:../generate/sc_drivers/r_scifa/src/lld/r_rza2_scifa_lld.c **** 
 829:../generate/sc_drivers/r_scifa/src/lld/r_rza2_scifa_lld.c ****     /* clear the TEND bit */
 830:../generate/sc_drivers/r_scifa/src/lld/r_rza2_scifa_lld.c ****      RZA_IO_RegWrite_16((volatile uint16_t *) &gsp_scifa[channel]->FSR.WORD, 0, SCIFA_FSR_TEND_SHIF
 824              		.loc 1 830 0
 825 005c 4030A0E3 		mov	r3, #64
 826 0060 0620A0E3 		mov	r2, #6
 827 0064 0010A0E3 		mov	r1, #0
 828 0068 080084E2 		add	r0, r4, #8
 829 006c FEFFFFEB 		bl	RZA_IO_RegWrite_16
 830              	.LVL107:
 831:../generate/sc_drivers/r_scifa/src/lld/r_rza2_scifa_lld.c **** 
 832:../generate/sc_drivers/r_scifa/src/lld/r_rza2_scifa_lld.c ****     /* flush the transmit FIFO */
 833:../generate/sc_drivers/r_scifa/src/lld/r_rza2_scifa_lld.c ****     gsp_scifa[channel]->FCR.BIT.TFRST = 1;
 831              		.loc 1 833 0
 832 0070 BC30D4E1 		ldrh	r3, [r4, #12]
 833 0074 043083E3 		orr	r3, r3, #4
 834 0078 BC30C4E1 		strh	r3, [r4, #12]	@ movhi
 834:../generate/sc_drivers/r_scifa/src/lld/r_rza2_scifa_lld.c ****     gsp_scifa[channel]->FCR.BIT.TFRST = 0;
 835              		.loc 1 834 0
 836 007c BC30D4E1 		ldrh	r3, [r4, #12]
 837 0080 1F31C2E7 		bfc	r3, #2, #1
 838 0084 BC30C4E1 		strh	r3, [r4, #12]	@ movhi
 835:../generate/sc_drivers/r_scifa/src/lld/r_rza2_scifa_lld.c **** 
 836:../generate/sc_drivers/r_scifa/src/lld/r_rza2_scifa_lld.c ****     return (DRV_SUCCESS);
 839              		.loc 1 836 0
 840 0088 0000A0E3 		mov	r0, #0
 841 008c 7080BDE8 		pop	{r4, r5, r6, pc}
 842              	.LVL108:
 843              	.L93:
 844              		.cfi_def_cfa_offset 0
 845              		.cfi_restore 4
 846              		.cfi_restore 5
 847              		.cfi_restore 6
 848              		.cfi_restore 14
 817:../generate/sc_drivers/r_scifa/src/lld/r_rza2_scifa_lld.c ****     }
 849              		.loc 1 817 0
 850 0090 0000E0E3 		mvn	r0, #0
 851              	.LVL109:
 852 0094 1EFF2FE1 		bx	lr
 853              		.cfi_endproc
 854              	.LFE14:
 856              		.section	.text.R_SCIFA_GetTXEIState,"ax",%progbits
 857              		.align	2
 858              		.global	R_SCIFA_GetTXEIState
 859              		.syntax unified
 860              		.arm
 861              		.fpu neon
 863              	R_SCIFA_GetTXEIState:
 864              	.LFB15:
 837:../generate/sc_drivers/r_scifa/src/lld/r_rza2_scifa_lld.c **** }
 838:../generate/sc_drivers/r_scifa/src/lld/r_rza2_scifa_lld.c **** /**************************************************************************************************
 839:../generate/sc_drivers/r_scifa/src/lld/r_rza2_scifa_lld.c ****  * End of Function R_SCIFA_StopTransmit
 840:../generate/sc_drivers/r_scifa/src/lld/r_rza2_scifa_lld.c ****  **************************************************************************************************
 841:../generate/sc_drivers/r_scifa/src/lld/r_rza2_scifa_lld.c **** 
 842:../generate/sc_drivers/r_scifa/src/lld/r_rza2_scifa_lld.c **** /**
 843:../generate/sc_drivers/r_scifa/src/lld/r_rza2_scifa_lld.c ****  * @brief R_SCIFA_GetTXEIState Determines the current TXEI state for a channel
 844:../generate/sc_drivers/r_scifa/src/lld/r_rza2_scifa_lld.c ****  *
 845:../generate/sc_drivers/r_scifa/src/lld/r_rza2_scifa_lld.c ****  * This function will determine whether a channel has recently triggered
 846:../generate/sc_drivers/r_scifa/src/lld/r_rza2_scifa_lld.c ****  * a TXEI interrupt event.
 847:../generate/sc_drivers/r_scifa/src/lld/r_rza2_scifa_lld.c ****  *
 848:../generate/sc_drivers/r_scifa/src/lld/r_rza2_scifa_lld.c ****  * @param[in] channel  Channel to check TXEI status for
 849:../generate/sc_drivers/r_scifa/src/lld/r_rza2_scifa_lld.c ****  *
 850:../generate/sc_drivers/r_scifa/src/lld/r_rza2_scifa_lld.c ****  * @retval  SCIFA_INTERRUPTING or SCIFA_NOT_INTERRUPTING
 851:../generate/sc_drivers/r_scifa/src/lld/r_rza2_scifa_lld.c ****  * @retval -1 DRV_ERROR
 852:../generate/sc_drivers/r_scifa/src/lld/r_rza2_scifa_lld.c ****  */
 853:../generate/sc_drivers/r_scifa/src/lld/r_rza2_scifa_lld.c **** scifa_interrupting_state_t R_SCIFA_GetTXEIState (r_channel_t channel)
 854:../generate/sc_drivers/r_scifa/src/lld/r_rza2_scifa_lld.c **** {
 865              		.loc 1 854 0
 866              		.cfi_startproc
 867              		@ args = 0, pretend = 0, frame = 0
 868              		@ frame_needed = 0, uses_anonymous_args = 0
 869              		@ link register save eliminated.
 870              	.LVL110:
 855:../generate/sc_drivers/r_scifa/src/lld/r_rza2_scifa_lld.c ****     if ((channel > R_PRV_CFG_SCIF_LAST_CHANNEL) || (channel < 0))
 871              		.loc 1 855 0
 872 0000 7030EFE6 		uxtb	r3, r0
 873 0004 050053E3 		cmp	r3, #5
 874 0008 0100009A 		bls	.L101
 856:../generate/sc_drivers/r_scifa/src/lld/r_rza2_scifa_lld.c ****     {
 857:../generate/sc_drivers/r_scifa/src/lld/r_rza2_scifa_lld.c ****         return (DRV_ERROR);
 875              		.loc 1 857 0
 876 000c FF00A0E3 		mov	r0, #255
 877              	.LVL111:
 858:../generate/sc_drivers/r_scifa/src/lld/r_rza2_scifa_lld.c ****     }
 859:../generate/sc_drivers/r_scifa/src/lld/r_rza2_scifa_lld.c **** 
 860:../generate/sc_drivers/r_scifa/src/lld/r_rza2_scifa_lld.c ****     uint16_t txend_interrupt_state;
 861:../generate/sc_drivers/r_scifa/src/lld/r_rza2_scifa_lld.c **** 
 862:../generate/sc_drivers/r_scifa/src/lld/r_rza2_scifa_lld.c ****     /* Get transmit end interrupt state */
 863:../generate/sc_drivers/r_scifa/src/lld/r_rza2_scifa_lld.c ****     txend_interrupt_state = gsp_scifa[channel]->FSR.BIT.TEND;
 864:../generate/sc_drivers/r_scifa/src/lld/r_rza2_scifa_lld.c **** 
 865:../generate/sc_drivers/r_scifa/src/lld/r_rza2_scifa_lld.c ****     return (txend_interrupt_state ? SCIFA_INTERRUPTING : SCIFA_NOT_INTERRUPTING);
 866:../generate/sc_drivers/r_scifa/src/lld/r_rza2_scifa_lld.c **** }
 878              		.loc 1 866 0
 879 0010 1EFF2FE1 		bx	lr
 880              	.LVL112:
 881              	.L101:
 863:../generate/sc_drivers/r_scifa/src/lld/r_rza2_scifa_lld.c **** 
 882              		.loc 1 863 0
 883 0014 003000E3 		movw	r3, #:lower16:.LANCHOR0
 884 0018 003040E3 		movt	r3, #:upper16:.LANCHOR0
 885 001c 003193E7 		ldr	r3, [r3, r0, lsl #2]
 886 0020 B800D3E1 		ldrh	r0, [r3, #8]
 887              	.LVL113:
 888 0024 5003E0E7 		ubfx	r0, r0, #6, #1
 865:../generate/sc_drivers/r_scifa/src/lld/r_rza2_scifa_lld.c **** }
 889              		.loc 1 865 0
 890 0028 1EFF2FE1 		bx	lr
 891              		.cfi_endproc
 892              	.LFE15:
 894              		.section	.text.R_SCIFA_GetTXIState,"ax",%progbits
 895              		.align	2
 896              		.global	R_SCIFA_GetTXIState
 897              		.syntax unified
 898              		.arm
 899              		.fpu neon
 901              	R_SCIFA_GetTXIState:
 902              	.LFB16:
 867:../generate/sc_drivers/r_scifa/src/lld/r_rza2_scifa_lld.c **** /**************************************************************************************************
 868:../generate/sc_drivers/r_scifa/src/lld/r_rza2_scifa_lld.c ****  * End of Function R_SCIFA_GetTXEIState
 869:../generate/sc_drivers/r_scifa/src/lld/r_rza2_scifa_lld.c ****  **************************************************************************************************
 870:../generate/sc_drivers/r_scifa/src/lld/r_rza2_scifa_lld.c **** 
 871:../generate/sc_drivers/r_scifa/src/lld/r_rza2_scifa_lld.c **** /**
 872:../generate/sc_drivers/r_scifa/src/lld/r_rza2_scifa_lld.c ****  * @brief R_SCIFA_GetTXIState Determines the current TXI state for a channel.
 873:../generate/sc_drivers/r_scifa/src/lld/r_rza2_scifa_lld.c ****  * This function will determine whether a channel has recently triggered
 874:../generate/sc_drivers/r_scifa/src/lld/r_rza2_scifa_lld.c ****  * a TXI interrupt event
 875:../generate/sc_drivers/r_scifa/src/lld/r_rza2_scifa_lld.c ****  *
 876:../generate/sc_drivers/r_scifa/src/lld/r_rza2_scifa_lld.c ****  * @param[in] channel: channel to check TXI status for
 877:../generate/sc_drivers/r_scifa/src/lld/r_rza2_scifa_lld.c ****  *
 878:../generate/sc_drivers/r_scifa/src/lld/r_rza2_scifa_lld.c ****  * @retval  SCIFA_INTERRUPTING or SCIFA_NOT_INTERRUPTING
 879:../generate/sc_drivers/r_scifa/src/lld/r_rza2_scifa_lld.c ****  * @retval -1 DRV_ERROR
 880:../generate/sc_drivers/r_scifa/src/lld/r_rza2_scifa_lld.c ****  */
 881:../generate/sc_drivers/r_scifa/src/lld/r_rza2_scifa_lld.c **** scifa_interrupting_state_t R_SCIFA_GetTXIState (r_channel_t channel)
 882:../generate/sc_drivers/r_scifa/src/lld/r_rza2_scifa_lld.c **** {
 903              		.loc 1 882 0
 904              		.cfi_startproc
 905              		@ args = 0, pretend = 0, frame = 0
 906              		@ frame_needed = 0, uses_anonymous_args = 0
 907              	.LVL114:
 883:../generate/sc_drivers/r_scifa/src/lld/r_rza2_scifa_lld.c ****     if ((channel > R_PRV_CFG_SCIF_LAST_CHANNEL) || (channel < 0))
 908              		.loc 1 883 0
 909 0000 7030EFE6 		uxtb	r3, r0
 910 0004 050053E3 		cmp	r3, #5
 911 0008 0100009A 		bls	.L109
 884:../generate/sc_drivers/r_scifa/src/lld/r_rza2_scifa_lld.c ****     {
 885:../generate/sc_drivers/r_scifa/src/lld/r_rza2_scifa_lld.c ****         return (DRV_ERROR);
 912              		.loc 1 885 0
 913 000c FF00A0E3 		mov	r0, #255
 914              	.LVL115:
 915 0010 1EFF2FE1 		bx	lr
 916              	.LVL116:
 917              	.L109:
 882:../generate/sc_drivers/r_scifa/src/lld/r_rza2_scifa_lld.c ****     if ((channel > R_PRV_CFG_SCIF_LAST_CHANNEL) || (channel < 0))
 918              		.loc 1 882 0
 919 0014 70402DE9 		push	{r4, r5, r6, lr}
 920              		.cfi_def_cfa_offset 16
 921              		.cfi_offset 4, -16
 922              		.cfi_offset 5, -12
 923              		.cfi_offset 6, -8
 924              		.cfi_offset 14, -4
 886:../generate/sc_drivers/r_scifa/src/lld/r_rza2_scifa_lld.c ****     }
 887:../generate/sc_drivers/r_scifa/src/lld/r_rza2_scifa_lld.c **** 
 888:../generate/sc_drivers/r_scifa/src/lld/r_rza2_scifa_lld.c ****     uint16_t tx_interrupt_state;
 889:../generate/sc_drivers/r_scifa/src/lld/r_rza2_scifa_lld.c ****     uint16_t tx_interrupt_enable_state;
 890:../generate/sc_drivers/r_scifa/src/lld/r_rza2_scifa_lld.c **** 
 891:../generate/sc_drivers/r_scifa/src/lld/r_rza2_scifa_lld.c ****     /* Get FIFO empty status */
 892:../generate/sc_drivers/r_scifa/src/lld/r_rza2_scifa_lld.c ****     tx_interrupt_state = RZA_IO_RegRead_16((volatile uint16_t *) &gsp_scifa[channel]->FSR.WORD, SCI
 925              		.loc 1 892 0
 926 0018 003000E3 		movw	r3, #:lower16:.LANCHOR0
 927 001c 003040E3 		movt	r3, #:upper16:.LANCHOR0
 928 0020 005193E7 		ldr	r5, [r3, r0, lsl #2]
 929 0024 2020A0E3 		mov	r2, #32
 930 0028 0510A0E3 		mov	r1, #5
 931 002c 080085E2 		add	r0, r5, #8
 932              	.LVL117:
 933 0030 FEFFFFEB 		bl	RZA_IO_RegRead_16
 934              	.LVL118:
 935 0034 0040A0E1 		mov	r4, r0
 936              	.LVL119:
 893:../generate/sc_drivers/r_scifa/src/lld/r_rza2_scifa_lld.c **** 
 894:../generate/sc_drivers/r_scifa/src/lld/r_rza2_scifa_lld.c ****     /* Get interrupt enable status */
 895:../generate/sc_drivers/r_scifa/src/lld/r_rza2_scifa_lld.c ****     tx_interrupt_enable_state = RZA_IO_RegRead_16((volatile uint16_t *) &gsp_scifa[channel]->SCR.WO
 937              		.loc 1 895 0
 938 0038 8020A0E3 		mov	r2, #128
 939 003c 0710A0E3 		mov	r1, #7
 940 0040 040085E2 		add	r0, r5, #4
 941 0044 FEFFFFEB 		bl	RZA_IO_RegRead_16
 942              	.LVL120:
 896:../generate/sc_drivers/r_scifa/src/lld/r_rza2_scifa_lld.c **** 
 897:../generate/sc_drivers/r_scifa/src/lld/r_rza2_scifa_lld.c ****     return ((tx_interrupt_state && tx_interrupt_enable_state) ? SCIFA_INTERRUPTING : SCIFA_NOT_INTE
 943              		.loc 1 897 0
 944 0048 000054E3 		cmp	r4, #0
 945 004c 00005013 		cmpne	r0, #0
 946 0050 0100A013 		movne	r0, #1
 947              	.LVL121:
 948 0054 0000A003 		moveq	r0, #0
 949 0058 7080BDE8 		pop	{r4, r5, r6, pc}
 950              		.cfi_endproc
 951              	.LFE16:
 953              		.section	.text.R_SCIFA_ClearTXIFlags,"ax",%progbits
 954              		.align	2
 955              		.global	R_SCIFA_ClearTXIFlags
 956              		.syntax unified
 957              		.arm
 958              		.fpu neon
 960              	R_SCIFA_ClearTXIFlags:
 961              	.LFB17:
 898:../generate/sc_drivers/r_scifa/src/lld/r_rza2_scifa_lld.c **** }
 899:../generate/sc_drivers/r_scifa/src/lld/r_rza2_scifa_lld.c **** /**************************************************************************************************
 900:../generate/sc_drivers/r_scifa/src/lld/r_rza2_scifa_lld.c ****  * End of Function R_SCIFA_GetTXIState
 901:../generate/sc_drivers/r_scifa/src/lld/r_rza2_scifa_lld.c ****  **************************************************************************************************
 902:../generate/sc_drivers/r_scifa/src/lld/r_rza2_scifa_lld.c **** 
 903:../generate/sc_drivers/r_scifa/src/lld/r_rza2_scifa_lld.c **** /**
 904:../generate/sc_drivers/r_scifa/src/lld/r_rza2_scifa_lld.c ****  * @brief R_SCIFA_ClearTXIFlags removes TXI flags on a channel
 905:../generate/sc_drivers/r_scifa/src/lld/r_rza2_scifa_lld.c ****  * This function is called at the end of an TXI handler routine
 906:../generate/sc_drivers/r_scifa/src/lld/r_rza2_scifa_lld.c ****  * it will clear necessary TXI flag to mark TXI as handled.
 907:../generate/sc_drivers/r_scifa/src/lld/r_rza2_scifa_lld.c ****  *
 908:../generate/sc_drivers/r_scifa/src/lld/r_rza2_scifa_lld.c ****  * @param[in] channel: channel to clear TXI flags for
 909:../generate/sc_drivers/r_scifa/src/lld/r_rza2_scifa_lld.c ****  *
 910:../generate/sc_drivers/r_scifa/src/lld/r_rza2_scifa_lld.c ****  * @retval  0 DRV_SUCCESS
 911:../generate/sc_drivers/r_scifa/src/lld/r_rza2_scifa_lld.c ****  * @retval -1 DRV_ERROR
 912:../generate/sc_drivers/r_scifa/src/lld/r_rza2_scifa_lld.c ****  */
 913:../generate/sc_drivers/r_scifa/src/lld/r_rza2_scifa_lld.c **** int_t R_SCIFA_ClearTXIFlags (r_channel_t channel)
 914:../generate/sc_drivers/r_scifa/src/lld/r_rza2_scifa_lld.c **** {
 962              		.loc 1 914 0
 963              		.cfi_startproc
 964              		@ args = 0, pretend = 0, frame = 0
 965              		@ frame_needed = 0, uses_anonymous_args = 0
 966              	.LVL122:
 915:../generate/sc_drivers/r_scifa/src/lld/r_rza2_scifa_lld.c ****     uint16_t dummy;
 916:../generate/sc_drivers/r_scifa/src/lld/r_rza2_scifa_lld.c **** 
 917:../generate/sc_drivers/r_scifa/src/lld/r_rza2_scifa_lld.c ****     if ((channel > R_PRV_CFG_SCIF_LAST_CHANNEL) || (channel < 0))
 967              		.loc 1 917 0
 968 0000 7030EFE6 		uxtb	r3, r0
 969 0004 050053E3 		cmp	r3, #5
 970 0008 1600008A 		bhi	.L112
 914:../generate/sc_drivers/r_scifa/src/lld/r_rza2_scifa_lld.c ****     uint16_t dummy;
 971              		.loc 1 914 0
 972 000c 10402DE9 		push	{r4, lr}
 973              		.cfi_def_cfa_offset 8
 974              		.cfi_offset 4, -8
 975              		.cfi_offset 14, -4
 976 0010 0040A0E1 		mov	r4, r0
 918:../generate/sc_drivers/r_scifa/src/lld/r_rza2_scifa_lld.c ****     {
 919:../generate/sc_drivers/r_scifa/src/lld/r_rza2_scifa_lld.c ****         return (DRV_ERROR);
 920:../generate/sc_drivers/r_scifa/src/lld/r_rza2_scifa_lld.c ****     }
 921:../generate/sc_drivers/r_scifa/src/lld/r_rza2_scifa_lld.c **** 
 922:../generate/sc_drivers/r_scifa/src/lld/r_rza2_scifa_lld.c ****     /* Dummy read */
 923:../generate/sc_drivers/r_scifa/src/lld/r_rza2_scifa_lld.c ****     dummy = RZA_IO_RegRead_16((volatile uint16_t *) &gsp_scifa[channel]->FSR.WORD, SCIFA_FSR_TDFE_S
 977              		.loc 1 923 0
 978 0014 003000E3 		movw	r3, #:lower16:.LANCHOR0
 979 0018 003040E3 		movt	r3, #:upper16:.LANCHOR0
 980 001c 000193E7 		ldr	r0, [r3, r0, lsl #2]
 981              	.LVL123:
 982 0020 2020A0E3 		mov	r2, #32
 983 0024 0510A0E3 		mov	r1, #5
 984 0028 080080E2 		add	r0, r0, #8
 985 002c FEFFFFEB 		bl	RZA_IO_RegRead_16
 986              	.LVL124:
 924:../generate/sc_drivers/r_scifa/src/lld/r_rza2_scifa_lld.c **** 
 925:../generate/sc_drivers/r_scifa/src/lld/r_rza2_scifa_lld.c ****     /* The TDFE flag can only be reset after a 1 is read from it */
 926:../generate/sc_drivers/r_scifa/src/lld/r_rza2_scifa_lld.c ****     if (1 == dummy)
 987              		.loc 1 926 0
 988 0030 010050E3 		cmp	r0, #1
 989 0034 0100000A 		beq	.L118
 927:../generate/sc_drivers/r_scifa/src/lld/r_rza2_scifa_lld.c ****     {
 928:../generate/sc_drivers/r_scifa/src/lld/r_rza2_scifa_lld.c ****         /* Reset the TDFE flag */
 929:../generate/sc_drivers/r_scifa/src/lld/r_rza2_scifa_lld.c ****         RZA_IO_RegWrite_16((volatile uint16_t *) &gsp_scifa[channel]->FSR.WORD, 0, SCIFA_FSR_TDFE_S
 930:../generate/sc_drivers/r_scifa/src/lld/r_rza2_scifa_lld.c ****     }
 931:../generate/sc_drivers/r_scifa/src/lld/r_rza2_scifa_lld.c **** 
 932:../generate/sc_drivers/r_scifa/src/lld/r_rza2_scifa_lld.c ****     return (DRV_SUCCESS);
 990              		.loc 1 932 0
 991 0038 0000A0E3 		mov	r0, #0
 992              	.LVL125:
 933:../generate/sc_drivers/r_scifa/src/lld/r_rza2_scifa_lld.c **** }
 993              		.loc 1 933 0
 994 003c 1080BDE8 		pop	{r4, pc}
 995              	.LVL126:
 996              	.L118:
 929:../generate/sc_drivers/r_scifa/src/lld/r_rza2_scifa_lld.c ****     }
 997              		.loc 1 929 0
 998 0040 003000E3 		movw	r3, #:lower16:.LANCHOR0
 999 0044 003040E3 		movt	r3, #:upper16:.LANCHOR0
 1000 0048 040193E7 		ldr	r0, [r3, r4, lsl #2]
 1001              	.LVL127:
 1002 004c 2030A0E3 		mov	r3, #32
 1003 0050 0520A0E3 		mov	r2, #5
 1004 0054 0010A0E3 		mov	r1, #0
 1005 0058 080080E2 		add	r0, r0, #8
 1006 005c FEFFFFEB 		bl	RZA_IO_RegWrite_16
 1007              	.LVL128:
 932:../generate/sc_drivers/r_scifa/src/lld/r_rza2_scifa_lld.c **** }
 1008              		.loc 1 932 0
 1009 0060 0000A0E3 		mov	r0, #0
 1010 0064 1080BDE8 		pop	{r4, pc}
 1011              	.LVL129:
 1012              	.L112:
 1013              		.cfi_def_cfa_offset 0
 1014              		.cfi_restore 4
 1015              		.cfi_restore 14
 919:../generate/sc_drivers/r_scifa/src/lld/r_rza2_scifa_lld.c ****     }
 1016              		.loc 1 919 0
 1017 0068 0000E0E3 		mvn	r0, #0
 1018              	.LVL130:
 1019 006c 1EFF2FE1 		bx	lr
 1020              		.cfi_endproc
 1021              	.LFE17:
 1023              		.section	.text.R_SCIFA_CheckRXIError,"ax",%progbits
 1024              		.align	2
 1025              		.global	R_SCIFA_CheckRXIError
 1026              		.syntax unified
 1027              		.arm
 1028              		.fpu neon
 1030              	R_SCIFA_CheckRXIError:
 1031              	.LFB18:
 934:../generate/sc_drivers/r_scifa/src/lld/r_rza2_scifa_lld.c **** /**************************************************************************************************
 935:../generate/sc_drivers/r_scifa/src/lld/r_rza2_scifa_lld.c ****  * End of Function R_SCIFA_ClearTXIFlags
 936:../generate/sc_drivers/r_scifa/src/lld/r_rza2_scifa_lld.c ****  **************************************************************************************************
 937:../generate/sc_drivers/r_scifa/src/lld/r_rza2_scifa_lld.c **** 
 938:../generate/sc_drivers/r_scifa/src/lld/r_rza2_scifa_lld.c **** /**
 939:../generate/sc_drivers/r_scifa/src/lld/r_rza2_scifa_lld.c ****  * @brief R_SCIFA_CheckRXIError Determines error status of channel receive
 940:../generate/sc_drivers/r_scifa/src/lld/r_rza2_scifa_lld.c ****  * This function will determine whether a channel has recently experienced
 941:../generate/sc_drivers/r_scifa/src/lld/r_rza2_scifa_lld.c ****  * any overflow/parity/framing errors when receiving data
 942:../generate/sc_drivers/r_scifa/src/lld/r_rza2_scifa_lld.c ****  * It returns this information in a error data structure
 943:../generate/sc_drivers/r_scifa/src/lld/r_rza2_scifa_lld.c ****  *
 944:../generate/sc_drivers/r_scifa/src/lld/r_rza2_scifa_lld.c ****  * @param[in] channel: channel to check RXI error status for
 945:../generate/sc_drivers/r_scifa/src/lld/r_rza2_scifa_lld.c ****  * @param[out] p_rx_err: error info struct to populate with any error details
 946:../generate/sc_drivers/r_scifa/src/lld/r_rza2_scifa_lld.c ****  *
 947:../generate/sc_drivers/r_scifa/src/lld/r_rza2_scifa_lld.c ****  * @retval  0 DRV_SUCCESS
 948:../generate/sc_drivers/r_scifa/src/lld/r_rza2_scifa_lld.c ****  * @retval -1 DRV_ERROR
 949:../generate/sc_drivers/r_scifa/src/lld/r_rza2_scifa_lld.c ****  */
 950:../generate/sc_drivers/r_scifa/src/lld/r_rza2_scifa_lld.c **** int_t R_SCIFA_CheckRXIError(r_channel_t channel, st_scifa_rx_error_t *p_rx_err)
 951:../generate/sc_drivers/r_scifa/src/lld/r_rza2_scifa_lld.c **** {
 1032              		.loc 1 951 0
 1033              		.cfi_startproc
 1034              		@ args = 0, pretend = 0, frame = 0
 1035              		@ frame_needed = 0, uses_anonymous_args = 0
 1036              	.LVL131:
 1037 0000 F0412DE9 		push	{r4, r5, r6, r7, r8, lr}
 1038              		.cfi_def_cfa_offset 24
 1039              		.cfi_offset 4, -24
 1040              		.cfi_offset 5, -20
 1041              		.cfi_offset 6, -16
 1042              		.cfi_offset 7, -12
 1043              		.cfi_offset 8, -8
 1044              		.cfi_offset 14, -4
 1045 0004 0040A0E1 		mov	r4, r0
 1046 0008 0150A0E1 		mov	r5, r1
 1047              	.LVL132:
 952:../generate/sc_drivers/r_scifa/src/lld/r_rza2_scifa_lld.c ****     int_t ret = DRV_SUCCESS;
 953:../generate/sc_drivers/r_scifa/src/lld/r_rza2_scifa_lld.c ****     uint32_t framing_errors;
 954:../generate/sc_drivers/r_scifa/src/lld/r_rza2_scifa_lld.c ****     uint32_t parity_errors;
 955:../generate/sc_drivers/r_scifa/src/lld/r_rza2_scifa_lld.c ****     bool_t framing_errors_present;
 956:../generate/sc_drivers/r_scifa/src/lld/r_rza2_scifa_lld.c ****     bool_t parity_errors_present;
 957:../generate/sc_drivers/r_scifa/src/lld/r_rza2_scifa_lld.c **** 
 958:../generate/sc_drivers/r_scifa/src/lld/r_rza2_scifa_lld.c ****     /* read the ER flag; this tells us if there were any framing or parity errors */
 959:../generate/sc_drivers/r_scifa/src/lld/r_rza2_scifa_lld.c ****     if (1 == RZA_IO_RegRead_16((volatile uint16_t *) &gsp_scifa[channel]->FSR.WORD, SCIFA_FSR_ER_SH
 1048              		.loc 1 959 0
 1049 000c 003000E3 		movw	r3, #:lower16:.LANCHOR0
 1050 0010 003040E3 		movt	r3, #:upper16:.LANCHOR0
 1051 0014 000193E7 		ldr	r0, [r3, r0, lsl #2]
 1052              	.LVL133:
 1053 0018 8020A0E3 		mov	r2, #128
 1054 001c 0710A0E3 		mov	r1, #7
 1055              	.LVL134:
 1056 0020 080080E2 		add	r0, r0, #8
 1057 0024 FEFFFFEB 		bl	RZA_IO_RegRead_16
 1058              	.LVL135:
 1059 0028 010050E3 		cmp	r0, #1
 1060 002c 1C00000A 		beq	.L132
 1061              	.L120:
 960:../generate/sc_drivers/r_scifa/src/lld/r_rza2_scifa_lld.c ****     {
 961:../generate/sc_drivers/r_scifa/src/lld/r_rza2_scifa_lld.c ****         /* read the FER flag for framing errors */
 962:../generate/sc_drivers/r_scifa/src/lld/r_rza2_scifa_lld.c ****         framing_errors_present = RZA_IO_RegRead_16((volatile uint16_t *) &gsp_scifa[channel]->FSR.W
 963:../generate/sc_drivers/r_scifa/src/lld/r_rza2_scifa_lld.c **** 
 964:../generate/sc_drivers/r_scifa/src/lld/r_rza2_scifa_lld.c ****         /* read the PER flag for parity errors */
 965:../generate/sc_drivers/r_scifa/src/lld/r_rza2_scifa_lld.c ****         parity_errors_present = RZA_IO_RegRead_16((volatile uint16_t *) &gsp_scifa[channel]->FSR.WO
 966:../generate/sc_drivers/r_scifa/src/lld/r_rza2_scifa_lld.c **** 
 967:../generate/sc_drivers/r_scifa/src/lld/r_rza2_scifa_lld.c ****         /* if there were any framing errors, then get the framing error count and update our total 
 968:../generate/sc_drivers/r_scifa/src/lld/r_rza2_scifa_lld.c ****         if (framing_errors_present)
 969:../generate/sc_drivers/r_scifa/src/lld/r_rza2_scifa_lld.c ****         {
 970:../generate/sc_drivers/r_scifa/src/lld/r_rza2_scifa_lld.c ****             /* count framing errors */
 971:../generate/sc_drivers/r_scifa/src/lld/r_rza2_scifa_lld.c ****             framing_errors = RZA_IO_RegRead_16((volatile uint16_t *) &gsp_scifa[channel]->LSR.WORD,
 972:../generate/sc_drivers/r_scifa/src/lld/r_rza2_scifa_lld.c **** 
 973:../generate/sc_drivers/r_scifa/src/lld/r_rza2_scifa_lld.c ****             /* 0 actually means that there were 16 framing errors */
 974:../generate/sc_drivers/r_scifa/src/lld/r_rza2_scifa_lld.c ****             if (0 == framing_errors)
 975:../generate/sc_drivers/r_scifa/src/lld/r_rza2_scifa_lld.c ****             {
 976:../generate/sc_drivers/r_scifa/src/lld/r_rza2_scifa_lld.c ****                 framing_errors = 16;
 977:../generate/sc_drivers/r_scifa/src/lld/r_rza2_scifa_lld.c ****             }
 978:../generate/sc_drivers/r_scifa/src/lld/r_rza2_scifa_lld.c **** 
 979:../generate/sc_drivers/r_scifa/src/lld/r_rza2_scifa_lld.c ****             p_rx_err->cnt_framing += framing_errors;
 980:../generate/sc_drivers/r_scifa/src/lld/r_rza2_scifa_lld.c ****         }
 981:../generate/sc_drivers/r_scifa/src/lld/r_rza2_scifa_lld.c **** 
 982:../generate/sc_drivers/r_scifa/src/lld/r_rza2_scifa_lld.c ****         /* if there were any parity errors, then get the parity error count and update our total */
 983:../generate/sc_drivers/r_scifa/src/lld/r_rza2_scifa_lld.c ****         if (parity_errors_present)
 984:../generate/sc_drivers/r_scifa/src/lld/r_rza2_scifa_lld.c ****         {
 985:../generate/sc_drivers/r_scifa/src/lld/r_rza2_scifa_lld.c ****             /* count parity errors */
 986:../generate/sc_drivers/r_scifa/src/lld/r_rza2_scifa_lld.c ****             parity_errors = RZA_IO_RegRead_16((volatile uint16_t *) &gsp_scifa[channel]->LSR.WORD, 
 987:../generate/sc_drivers/r_scifa/src/lld/r_rza2_scifa_lld.c **** 
 988:../generate/sc_drivers/r_scifa/src/lld/r_rza2_scifa_lld.c ****             /* 0 actually means that there were 16 parity errors */
 989:../generate/sc_drivers/r_scifa/src/lld/r_rza2_scifa_lld.c ****             if (0 == parity_errors)
 990:../generate/sc_drivers/r_scifa/src/lld/r_rza2_scifa_lld.c ****             {
 991:../generate/sc_drivers/r_scifa/src/lld/r_rza2_scifa_lld.c ****                 parity_errors = 16;
 992:../generate/sc_drivers/r_scifa/src/lld/r_rza2_scifa_lld.c ****             }
 993:../generate/sc_drivers/r_scifa/src/lld/r_rza2_scifa_lld.c **** 
 994:../generate/sc_drivers/r_scifa/src/lld/r_rza2_scifa_lld.c ****             p_rx_err->cnt_parity += parity_errors;
 995:../generate/sc_drivers/r_scifa/src/lld/r_rza2_scifa_lld.c ****         }
 996:../generate/sc_drivers/r_scifa/src/lld/r_rza2_scifa_lld.c **** 
 997:../generate/sc_drivers/r_scifa/src/lld/r_rza2_scifa_lld.c ****         /* clear the ER flag */
 998:../generate/sc_drivers/r_scifa/src/lld/r_rza2_scifa_lld.c ****         RZA_IO_RegWrite_16((volatile uint16_t *) &gsp_scifa[channel]->FSR.WORD, 0, SCIFA_FSR_ER_SHI
 999:../generate/sc_drivers/r_scifa/src/lld/r_rza2_scifa_lld.c ****     }
1000:../generate/sc_drivers/r_scifa/src/lld/r_rza2_scifa_lld.c **** 
1001:../generate/sc_drivers/r_scifa/src/lld/r_rza2_scifa_lld.c ****     /* Count break errors */
1002:../generate/sc_drivers/r_scifa/src/lld/r_rza2_scifa_lld.c ****     if (1 == RZA_IO_RegRead_16((volatile uint16_t *) &gsp_scifa[channel]->FSR.WORD, SCIFA_FSR_BRK_S
 1062              		.loc 1 1002 0
 1063 0030 003000E3 		movw	r3, #:lower16:.LANCHOR0
 1064 0034 003040E3 		movt	r3, #:upper16:.LANCHOR0
 1065 0038 040193E7 		ldr	r0, [r3, r4, lsl #2]
 1066 003c 1020A0E3 		mov	r2, #16
 1067 0040 0410A0E3 		mov	r1, #4
 1068 0044 080080E2 		add	r0, r0, #8
 1069 0048 FEFFFFEB 		bl	RZA_IO_RegRead_16
 1070              	.LVL136:
 1071 004c 010050E3 		cmp	r0, #1
 1072 0050 4A00000A 		beq	.L133
 1073              	.L125:
1003:../generate/sc_drivers/r_scifa/src/lld/r_rza2_scifa_lld.c ****     {
1004:../generate/sc_drivers/r_scifa/src/lld/r_rza2_scifa_lld.c ****         p_rx_err->cnt_break++;
1005:../generate/sc_drivers/r_scifa/src/lld/r_rza2_scifa_lld.c ****     }
1006:../generate/sc_drivers/r_scifa/src/lld/r_rza2_scifa_lld.c **** 
1007:../generate/sc_drivers/r_scifa/src/lld/r_rza2_scifa_lld.c ****     /* Count overrun errors */
1008:../generate/sc_drivers/r_scifa/src/lld/r_rza2_scifa_lld.c ****     if (1 == RZA_IO_RegRead_16((volatile uint16_t *) &gsp_scifa[channel]->LSR.WORD, SCIFA_LSR_ORER_
 1074              		.loc 1 1008 0
 1075 0054 003000E3 		movw	r3, #:lower16:.LANCHOR0
 1076 0058 003040E3 		movt	r3, #:upper16:.LANCHOR0
 1077 005c 040193E7 		ldr	r0, [r3, r4, lsl #2]
 1078 0060 0120A0E3 		mov	r2, #1
 1079 0064 0010A0E3 		mov	r1, #0
 1080 0068 120080E2 		add	r0, r0, #18
 1081 006c FEFFFFEB 		bl	RZA_IO_RegRead_16
 1082              	.LVL137:
 1083 0070 010050E3 		cmp	r0, #1
 1084 0074 4500000A 		beq	.L134
 1085              	.L126:
1009:../generate/sc_drivers/r_scifa/src/lld/r_rza2_scifa_lld.c ****     {
1010:../generate/sc_drivers/r_scifa/src/lld/r_rza2_scifa_lld.c ****         p_rx_err->cnt_overrun++;
1011:../generate/sc_drivers/r_scifa/src/lld/r_rza2_scifa_lld.c **** 
1012:../generate/sc_drivers/r_scifa/src/lld/r_rza2_scifa_lld.c ****         /* clear the overrun flag */
1013:../generate/sc_drivers/r_scifa/src/lld/r_rza2_scifa_lld.c ****         RZA_IO_RegWrite_16((volatile uint16_t *) &gsp_scifa[channel]->LSR.WORD, 0, SCIFA_LSR_ORER_S
1014:../generate/sc_drivers/r_scifa/src/lld/r_rza2_scifa_lld.c ****     }
1015:../generate/sc_drivers/r_scifa/src/lld/r_rza2_scifa_lld.c **** 
1016:../generate/sc_drivers/r_scifa/src/lld/r_rza2_scifa_lld.c ****     /* Is data ready? */
1017:../generate/sc_drivers/r_scifa/src/lld/r_rza2_scifa_lld.c ****     if (1 == RZA_IO_RegRead_16((volatile uint16_t *) &gsp_scifa[channel]->FSR.WORD, SCIFA_FSR_DR_SH
 1086              		.loc 1 1017 0
 1087 0078 003000E3 		movw	r3, #:lower16:.LANCHOR0
 1088 007c 003040E3 		movt	r3, #:upper16:.LANCHOR0
 1089 0080 040193E7 		ldr	r0, [r3, r4, lsl #2]
 1090 0084 0120A0E3 		mov	r2, #1
 1091 0088 0010A0E3 		mov	r1, #0
 1092 008c 080080E2 		add	r0, r0, #8
 1093 0090 FEFFFFEB 		bl	RZA_IO_RegRead_16
 1094              	.LVL138:
 1095 0094 010050E3 		cmp	r0, #1
 1096 0098 4800000A 		beq	.L130
 952:../generate/sc_drivers/r_scifa/src/lld/r_rza2_scifa_lld.c ****     uint32_t framing_errors;
 1097              		.loc 1 952 0
 1098 009c 0000A0E3 		mov	r0, #0
 1099 00a0 F081BDE8 		pop	{r4, r5, r6, r7, r8, pc}
 1100              	.L132:
 962:../generate/sc_drivers/r_scifa/src/lld/r_rza2_scifa_lld.c **** 
 1101              		.loc 1 962 0
 1102 00a4 003000E3 		movw	r3, #:lower16:.LANCHOR0
 1103 00a8 003040E3 		movt	r3, #:upper16:.LANCHOR0
 1104 00ac 046193E7 		ldr	r6, [r3, r4, lsl #2]
 1105 00b0 086086E2 		add	r6, r6, #8
 1106 00b4 0820A0E3 		mov	r2, #8
 1107 00b8 0310A0E3 		mov	r1, #3
 1108 00bc 0600A0E1 		mov	r0, r6
 1109 00c0 FEFFFFEB 		bl	RZA_IO_RegRead_16
 1110              	.LVL139:
 1111 00c4 0070A0E1 		mov	r7, r0
 1112              	.LVL140:
 965:../generate/sc_drivers/r_scifa/src/lld/r_rza2_scifa_lld.c **** 
 1113              		.loc 1 965 0
 1114 00c8 0420A0E3 		mov	r2, #4
 1115 00cc 0210A0E3 		mov	r1, #2
 1116 00d0 0600A0E1 		mov	r0, r6
 1117 00d4 FEFFFFEB 		bl	RZA_IO_RegRead_16
 1118              	.LVL141:
 1119 00d8 0060A0E1 		mov	r6, r0
 1120              	.LVL142:
 968:../generate/sc_drivers/r_scifa/src/lld/r_rza2_scifa_lld.c ****         {
 1121              		.loc 1 968 0
 1122 00dc 000057E3 		cmp	r7, #0
 1123 00e0 0A00001A 		bne	.L135
 1124              	.L121:
 983:../generate/sc_drivers/r_scifa/src/lld/r_rza2_scifa_lld.c ****         {
 1125              		.loc 1 983 0
 1126 00e4 000056E3 		cmp	r6, #0
 1127 00e8 1600001A 		bne	.L136
 1128              	.L123:
 998:../generate/sc_drivers/r_scifa/src/lld/r_rza2_scifa_lld.c ****     }
 1129              		.loc 1 998 0
 1130 00ec 003000E3 		movw	r3, #:lower16:.LANCHOR0
 1131 00f0 003040E3 		movt	r3, #:upper16:.LANCHOR0
 1132 00f4 040193E7 		ldr	r0, [r3, r4, lsl #2]
 1133 00f8 8030A0E3 		mov	r3, #128
 1134 00fc 0720A0E3 		mov	r2, #7
 1135 0100 0010A0E3 		mov	r1, #0
 1136 0104 080080E2 		add	r0, r0, #8
 1137 0108 FEFFFFEB 		bl	RZA_IO_RegWrite_16
 1138              	.LVL143:
 1139 010c C7FFFFEA 		b	.L120
 1140              	.L135:
 971:../generate/sc_drivers/r_scifa/src/lld/r_rza2_scifa_lld.c **** 
 1141              		.loc 1 971 0
 1142 0110 003000E3 		movw	r3, #:lower16:.LANCHOR0
 1143 0114 003040E3 		movt	r3, #:upper16:.LANCHOR0
 1144 0118 040193E7 		ldr	r0, [r3, r4, lsl #2]
 1145 011c 3C20A0E3 		mov	r2, #60
 1146 0120 0210A0E3 		mov	r1, #2
 1147 0124 120080E2 		add	r0, r0, #18
 1148 0128 FEFFFFEB 		bl	RZA_IO_RegRead_16
 1149              	.LVL144:
 1150 012c 0020A0E1 		mov	r2, r0
 1151              	.LVL145:
 974:../generate/sc_drivers/r_scifa/src/lld/r_rza2_scifa_lld.c ****             {
 1152              		.loc 1 974 0
 1153 0130 000050E3 		cmp	r0, #0
 976:../generate/sc_drivers/r_scifa/src/lld/r_rza2_scifa_lld.c ****             }
 1154              		.loc 1 976 0
 1155 0134 1020A003 		moveq	r2, #16
 1156              	.L122:
 1157              	.LVL146:
 979:../generate/sc_drivers/r_scifa/src/lld/r_rza2_scifa_lld.c ****         }
 1158              		.loc 1 979 0
 1159 0138 043095E5 		ldr	r3, [r5, #4]
 1160 013c 023083E0 		add	r3, r3, r2
 1161 0140 043085E5 		str	r3, [r5, #4]
 1162 0144 E6FFFFEA 		b	.L121
 1163              	.LVL147:
 1164              	.L136:
 986:../generate/sc_drivers/r_scifa/src/lld/r_rza2_scifa_lld.c **** 
 1165              		.loc 1 986 0
 1166 0148 003000E3 		movw	r3, #:lower16:.LANCHOR0
 1167 014c 003040E3 		movt	r3, #:upper16:.LANCHOR0
 1168 0150 040193E7 		ldr	r0, [r3, r4, lsl #2]
 1169 0154 0F2CA0E3 		mov	r2, #3840
 1170 0158 0810A0E3 		mov	r1, #8
 1171 015c 120080E2 		add	r0, r0, #18
 1172 0160 FEFFFFEB 		bl	RZA_IO_RegRead_16
 1173              	.LVL148:
 1174 0164 0020A0E1 		mov	r2, r0
 1175              	.LVL149:
 989:../generate/sc_drivers/r_scifa/src/lld/r_rza2_scifa_lld.c ****             {
 1176              		.loc 1 989 0
 1177 0168 000050E3 		cmp	r0, #0
 991:../generate/sc_drivers/r_scifa/src/lld/r_rza2_scifa_lld.c ****             }
 1178              		.loc 1 991 0
 1179 016c 1020A003 		moveq	r2, #16
 1180              	.L124:
 1181              	.LVL150:
 994:../generate/sc_drivers/r_scifa/src/lld/r_rza2_scifa_lld.c ****         }
 1182              		.loc 1 994 0
 1183 0170 083095E5 		ldr	r3, [r5, #8]
 1184 0174 023083E0 		add	r3, r3, r2
 1185 0178 083085E5 		str	r3, [r5, #8]
 1186 017c DAFFFFEA 		b	.L123
 1187              	.LVL151:
 1188              	.L133:
1004:../generate/sc_drivers/r_scifa/src/lld/r_rza2_scifa_lld.c ****     }
 1189              		.loc 1 1004 0
 1190 0180 0C3095E5 		ldr	r3, [r5, #12]
 1191 0184 013083E2 		add	r3, r3, #1
 1192 0188 0C3085E5 		str	r3, [r5, #12]
 1193 018c B0FFFFEA 		b	.L125
 1194              	.L134:
1010:../generate/sc_drivers/r_scifa/src/lld/r_rza2_scifa_lld.c **** 
 1195              		.loc 1 1010 0
 1196 0190 003095E5 		ldr	r3, [r5]
 1197 0194 013083E2 		add	r3, r3, #1
 1198 0198 003085E5 		str	r3, [r5]
1013:../generate/sc_drivers/r_scifa/src/lld/r_rza2_scifa_lld.c ****     }
 1199              		.loc 1 1013 0
 1200 019c 003000E3 		movw	r3, #:lower16:.LANCHOR0
 1201 01a0 003040E3 		movt	r3, #:upper16:.LANCHOR0
 1202 01a4 040193E7 		ldr	r0, [r3, r4, lsl #2]
 1203 01a8 0130A0E3 		mov	r3, #1
 1204 01ac 0020A0E3 		mov	r2, #0
 1205 01b0 0210A0E1 		mov	r1, r2
 1206 01b4 120080E2 		add	r0, r0, #18
 1207 01b8 FEFFFFEB 		bl	RZA_IO_RegWrite_16
 1208              	.LVL152:
 1209 01bc ADFFFFEA 		b	.L126
 1210              	.L130:
1018:../generate/sc_drivers/r_scifa/src/lld/r_rza2_scifa_lld.c ****     {
1019:../generate/sc_drivers/r_scifa/src/lld/r_rza2_scifa_lld.c ****         ret = DRV_ERROR;
 1211              		.loc 1 1019 0
 1212 01c0 0000E0E3 		mvn	r0, #0
 1213              	.LVL153:
1020:../generate/sc_drivers/r_scifa/src/lld/r_rza2_scifa_lld.c ****     }
1021:../generate/sc_drivers/r_scifa/src/lld/r_rza2_scifa_lld.c **** 
1022:../generate/sc_drivers/r_scifa/src/lld/r_rza2_scifa_lld.c ****     return (ret);
1023:../generate/sc_drivers/r_scifa/src/lld/r_rza2_scifa_lld.c **** }
 1214              		.loc 1 1023 0
 1215 01c4 F081BDE8 		pop	{r4, r5, r6, r7, r8, pc}
 1216              		.cfi_endproc
 1217              	.LFE18:
 1219              		.section	.text.R_SCIFA_GetRXIState,"ax",%progbits
 1220              		.align	2
 1221              		.global	R_SCIFA_GetRXIState
 1222              		.syntax unified
 1223              		.arm
 1224              		.fpu neon
 1226              	R_SCIFA_GetRXIState:
 1227              	.LFB19:
1024:../generate/sc_drivers/r_scifa/src/lld/r_rza2_scifa_lld.c **** /**************************************************************************************************
1025:../generate/sc_drivers/r_scifa/src/lld/r_rza2_scifa_lld.c ****  * End of Function R_SCIFA_CheckRXIError
1026:../generate/sc_drivers/r_scifa/src/lld/r_rza2_scifa_lld.c ****  **************************************************************************************************
1027:../generate/sc_drivers/r_scifa/src/lld/r_rza2_scifa_lld.c **** 
1028:../generate/sc_drivers/r_scifa/src/lld/r_rza2_scifa_lld.c **** /**
1029:../generate/sc_drivers/r_scifa/src/lld/r_rza2_scifa_lld.c ****  * @brief R_SCIFA_GetRXIState Determines the current RXI state for a channel
1030:../generate/sc_drivers/r_scifa/src/lld/r_rza2_scifa_lld.c ****  * This function will determine whether a channel has recently triggered
1031:../generate/sc_drivers/r_scifa/src/lld/r_rza2_scifa_lld.c ****  * a RXI interrupt event
1032:../generate/sc_drivers/r_scifa/src/lld/r_rza2_scifa_lld.c ****  *
1033:../generate/sc_drivers/r_scifa/src/lld/r_rza2_scifa_lld.c ****  * @param[in] channel: channel to check RXI state for
1034:../generate/sc_drivers/r_scifa/src/lld/r_rza2_scifa_lld.c ****  *
1035:../generate/sc_drivers/r_scifa/src/lld/r_rza2_scifa_lld.c ****  * @retval  SCIFA_INTERRUPTING or SCIFA_NOT_INTERRUPTING
1036:../generate/sc_drivers/r_scifa/src/lld/r_rza2_scifa_lld.c ****  * @retval -1 DRV_ERROR
1037:../generate/sc_drivers/r_scifa/src/lld/r_rza2_scifa_lld.c ****  */
1038:../generate/sc_drivers/r_scifa/src/lld/r_rza2_scifa_lld.c **** scifa_interrupting_state_t R_SCIFA_GetRXIState (r_channel_t channel)
1039:../generate/sc_drivers/r_scifa/src/lld/r_rza2_scifa_lld.c **** {
 1228              		.loc 1 1039 0
 1229              		.cfi_startproc
 1230              		@ args = 0, pretend = 0, frame = 0
 1231              		@ frame_needed = 0, uses_anonymous_args = 0
 1232              	.LVL154:
1040:../generate/sc_drivers/r_scifa/src/lld/r_rza2_scifa_lld.c ****     if ((channel > R_PRV_CFG_SCIF_LAST_CHANNEL) || (channel < 0))
 1233              		.loc 1 1040 0
 1234 0000 7030EFE6 		uxtb	r3, r0
 1235 0004 050053E3 		cmp	r3, #5
 1236 0008 0100009A 		bls	.L147
1041:../generate/sc_drivers/r_scifa/src/lld/r_rza2_scifa_lld.c ****     {
1042:../generate/sc_drivers/r_scifa/src/lld/r_rza2_scifa_lld.c ****         return (DRV_ERROR);
 1237              		.loc 1 1042 0
 1238 000c FF00A0E3 		mov	r0, #255
 1239              	.LVL155:
 1240 0010 1EFF2FE1 		bx	lr
 1241              	.LVL156:
 1242              	.L147:
1039:../generate/sc_drivers/r_scifa/src/lld/r_rza2_scifa_lld.c ****     if ((channel > R_PRV_CFG_SCIF_LAST_CHANNEL) || (channel < 0))
 1243              		.loc 1 1039 0
 1244 0014 70402DE9 		push	{r4, r5, r6, lr}
 1245              		.cfi_def_cfa_offset 16
 1246              		.cfi_offset 4, -16
 1247              		.cfi_offset 5, -12
 1248              		.cfi_offset 6, -8
 1249              		.cfi_offset 14, -4
1043:../generate/sc_drivers/r_scifa/src/lld/r_rza2_scifa_lld.c ****     }
1044:../generate/sc_drivers/r_scifa/src/lld/r_rza2_scifa_lld.c **** 
1045:../generate/sc_drivers/r_scifa/src/lld/r_rza2_scifa_lld.c ****     uint16_t rx_interrupt_state;              // RDF
1046:../generate/sc_drivers/r_scifa/src/lld/r_rza2_scifa_lld.c ****     uint16_t rx_enable_state;                 // RE
1047:../generate/sc_drivers/r_scifa/src/lld/r_rza2_scifa_lld.c ****     uint16_t rx_interrupt_enable_state;       // RIE
1048:../generate/sc_drivers/r_scifa/src/lld/r_rza2_scifa_lld.c **** 
1049:../generate/sc_drivers/r_scifa/src/lld/r_rza2_scifa_lld.c ****     /* Get FIFO full status */
1050:../generate/sc_drivers/r_scifa/src/lld/r_rza2_scifa_lld.c ****     rx_interrupt_state = RZA_IO_RegRead_16((volatile uint16_t *) &gsp_scifa[channel]->FSR.WORD, SCI
 1250              		.loc 1 1050 0
 1251 0018 003000E3 		movw	r3, #:lower16:.LANCHOR0
 1252 001c 003040E3 		movt	r3, #:upper16:.LANCHOR0
 1253 0020 004193E7 		ldr	r4, [r3, r0, lsl #2]
 1254 0024 0220A0E3 		mov	r2, #2
 1255 0028 0110A0E3 		mov	r1, #1
 1256 002c 080084E2 		add	r0, r4, #8
 1257              	.LVL157:
 1258 0030 FEFFFFEB 		bl	RZA_IO_RegRead_16
 1259              	.LVL158:
 1260 0034 0060A0E1 		mov	r6, r0
 1261              	.LVL159:
1051:../generate/sc_drivers/r_scifa/src/lld/r_rza2_scifa_lld.c **** 
1052:../generate/sc_drivers/r_scifa/src/lld/r_rza2_scifa_lld.c ****     /* Get receive enable status */
1053:../generate/sc_drivers/r_scifa/src/lld/r_rza2_scifa_lld.c ****     rx_enable_state = RZA_IO_RegRead_16((volatile uint16_t *) &gsp_scifa[channel]->SCR.WORD, SCIFA_
 1262              		.loc 1 1053 0
 1263 0038 044084E2 		add	r4, r4, #4
 1264 003c 1020A0E3 		mov	r2, #16
 1265 0040 0410A0E3 		mov	r1, #4
 1266 0044 0400A0E1 		mov	r0, r4
 1267 0048 FEFFFFEB 		bl	RZA_IO_RegRead_16
 1268              	.LVL160:
 1269 004c 0050A0E1 		mov	r5, r0
 1270              	.LVL161:
1054:../generate/sc_drivers/r_scifa/src/lld/r_rza2_scifa_lld.c **** 
1055:../generate/sc_drivers/r_scifa/src/lld/r_rza2_scifa_lld.c ****     /* Get interrupt enable status */
1056:../generate/sc_drivers/r_scifa/src/lld/r_rza2_scifa_lld.c ****     rx_interrupt_enable_state = RZA_IO_RegRead_16((volatile uint16_t *) &gsp_scifa[channel]->SCR.WO
 1271              		.loc 1 1056 0
 1272 0050 4020A0E3 		mov	r2, #64
 1273 0054 0610A0E3 		mov	r1, #6
 1274 0058 0400A0E1 		mov	r0, r4
 1275 005c FEFFFFEB 		bl	RZA_IO_RegRead_16
 1276              	.LVL162:
1057:../generate/sc_drivers/r_scifa/src/lld/r_rza2_scifa_lld.c **** 
1058:../generate/sc_drivers/r_scifa/src/lld/r_rza2_scifa_lld.c ****     return ((rx_interrupt_state && rx_enable_state && rx_interrupt_enable_state) ? SCIFA_INTERRUPTI
 1277              		.loc 1 1058 0
 1278 0060 000056E3 		cmp	r6, #0
 1279 0064 00005513 		cmpne	r5, #0
 1280 0068 0200000A 		beq	.L141
 1281              		.loc 1 1058 0 is_stmt 0 discriminator 1
 1282 006c 000050E3 		cmp	r0, #0
 1283              		.loc 1 1058 0
 1284 0070 0100A013 		movne	r0, #1
 1285              	.LVL163:
 1286 0074 000000EA 		b	.L139
 1287              	.LVL164:
 1288              	.L141:
 1289 0078 0000A0E3 		mov	r0, #0
 1290              	.LVL165:
 1291              	.L139:
 1292              		.loc 1 1058 0 discriminator 6
 1293 007c 7000EFE6 		uxtb	r0, r0
 1294 0080 7080BDE8 		pop	{r4, r5, r6, pc}
 1295              		.cfi_endproc
 1296              	.LFE19:
 1298              		.section	.text.R_SCIFA_ClearRXIFlags,"ax",%progbits
 1299              		.align	2
 1300              		.global	R_SCIFA_ClearRXIFlags
 1301              		.syntax unified
 1302              		.arm
 1303              		.fpu neon
 1305              	R_SCIFA_ClearRXIFlags:
 1306              	.LFB20:
1059:../generate/sc_drivers/r_scifa/src/lld/r_rza2_scifa_lld.c **** }
1060:../generate/sc_drivers/r_scifa/src/lld/r_rza2_scifa_lld.c **** /**************************************************************************************************
1061:../generate/sc_drivers/r_scifa/src/lld/r_rza2_scifa_lld.c ****  * End of Function R_SCIFA_GetRXIState
1062:../generate/sc_drivers/r_scifa/src/lld/r_rza2_scifa_lld.c ****  **************************************************************************************************
1063:../generate/sc_drivers/r_scifa/src/lld/r_rza2_scifa_lld.c **** 
1064:../generate/sc_drivers/r_scifa/src/lld/r_rza2_scifa_lld.c **** /**
1065:../generate/sc_drivers/r_scifa/src/lld/r_rza2_scifa_lld.c ****  * @brief R_SCIFA_ClearRXIFlags removes RXI flags on a channel
1066:../generate/sc_drivers/r_scifa/src/lld/r_rza2_scifa_lld.c ****  * This function is called at the end of an RXI handler routine
1067:../generate/sc_drivers/r_scifa/src/lld/r_rza2_scifa_lld.c ****  * it will clear necessary RXI flag to mark RXI as handled
1068:../generate/sc_drivers/r_scifa/src/lld/r_rza2_scifa_lld.c ****  *
1069:../generate/sc_drivers/r_scifa/src/lld/r_rza2_scifa_lld.c ****  * @param[in] channel: channel to clear RXI flags for
1070:../generate/sc_drivers/r_scifa/src/lld/r_rza2_scifa_lld.c ****  *
1071:../generate/sc_drivers/r_scifa/src/lld/r_rza2_scifa_lld.c ****  * @retval  0  DRV_SUCCESS
1072:../generate/sc_drivers/r_scifa/src/lld/r_rza2_scifa_lld.c ****  * @retval -1 DRV_ERROR
1073:../generate/sc_drivers/r_scifa/src/lld/r_rza2_scifa_lld.c ****  */
1074:../generate/sc_drivers/r_scifa/src/lld/r_rza2_scifa_lld.c **** int_t R_SCIFA_ClearRXIFlags (r_channel_t channel)
1075:../generate/sc_drivers/r_scifa/src/lld/r_rza2_scifa_lld.c **** {
 1307              		.loc 1 1075 0 is_stmt 1
 1308              		.cfi_startproc
 1309              		@ args = 0, pretend = 0, frame = 0
 1310              		@ frame_needed = 0, uses_anonymous_args = 0
 1311              	.LVL166:
1076:../generate/sc_drivers/r_scifa/src/lld/r_rza2_scifa_lld.c ****     uint16_t dummy;
1077:../generate/sc_drivers/r_scifa/src/lld/r_rza2_scifa_lld.c **** 
1078:../generate/sc_drivers/r_scifa/src/lld/r_rza2_scifa_lld.c ****     if ((channel > R_PRV_CFG_SCIF_LAST_CHANNEL) || (channel < 0))
 1312              		.loc 1 1078 0
 1313 0000 7030EFE6 		uxtb	r3, r0
 1314 0004 050053E3 		cmp	r3, #5
 1315 0008 1600008A 		bhi	.L150
1075:../generate/sc_drivers/r_scifa/src/lld/r_rza2_scifa_lld.c ****     uint16_t dummy;
 1316              		.loc 1 1075 0
 1317 000c 10402DE9 		push	{r4, lr}
 1318              		.cfi_def_cfa_offset 8
 1319              		.cfi_offset 4, -8
 1320              		.cfi_offset 14, -4
 1321 0010 0040A0E1 		mov	r4, r0
1079:../generate/sc_drivers/r_scifa/src/lld/r_rza2_scifa_lld.c ****     {
1080:../generate/sc_drivers/r_scifa/src/lld/r_rza2_scifa_lld.c ****         return (DRV_ERROR);
1081:../generate/sc_drivers/r_scifa/src/lld/r_rza2_scifa_lld.c ****     }
1082:../generate/sc_drivers/r_scifa/src/lld/r_rza2_scifa_lld.c **** 
1083:../generate/sc_drivers/r_scifa/src/lld/r_rza2_scifa_lld.c ****     /* Clear receive data ready */
1084:../generate/sc_drivers/r_scifa/src/lld/r_rza2_scifa_lld.c ****     dummy = RZA_IO_RegRead_16((volatile uint16_t *) &gsp_scifa[channel]->FSR.WORD, SCIFA_FSR_DR_SHI
 1322              		.loc 1 1084 0
 1323 0014 003000E3 		movw	r3, #:lower16:.LANCHOR0
 1324 0018 003040E3 		movt	r3, #:upper16:.LANCHOR0
 1325 001c 000193E7 		ldr	r0, [r3, r0, lsl #2]
 1326              	.LVL167:
 1327 0020 0120A0E3 		mov	r2, #1
 1328 0024 0010A0E3 		mov	r1, #0
 1329 0028 080080E2 		add	r0, r0, #8
 1330 002c FEFFFFEB 		bl	RZA_IO_RegRead_16
 1331              	.LVL168:
1085:../generate/sc_drivers/r_scifa/src/lld/r_rza2_scifa_lld.c **** 
1086:../generate/sc_drivers/r_scifa/src/lld/r_rza2_scifa_lld.c **** 
1087:../generate/sc_drivers/r_scifa/src/lld/r_rza2_scifa_lld.c ****     if (1 == dummy)
 1332              		.loc 1 1087 0
 1333 0030 010050E3 		cmp	r0, #1
 1334 0034 0100000A 		beq	.L156
1088:../generate/sc_drivers/r_scifa/src/lld/r_rza2_scifa_lld.c ****     {
1089:../generate/sc_drivers/r_scifa/src/lld/r_rza2_scifa_lld.c ****         /* Clear DR only if 1 read */
1090:../generate/sc_drivers/r_scifa/src/lld/r_rza2_scifa_lld.c ****         RZA_IO_RegWrite_16((volatile uint16_t *) &gsp_scifa[channel]->FSR.WORD, 0, SCIFA_FSR_DR_SHI
1091:../generate/sc_drivers/r_scifa/src/lld/r_rza2_scifa_lld.c ****     }
1092:../generate/sc_drivers/r_scifa/src/lld/r_rza2_scifa_lld.c **** 
1093:../generate/sc_drivers/r_scifa/src/lld/r_rza2_scifa_lld.c ****     return (DRV_SUCCESS);
 1335              		.loc 1 1093 0
 1336 0038 0000A0E3 		mov	r0, #0
 1337              	.LVL169:
1094:../generate/sc_drivers/r_scifa/src/lld/r_rza2_scifa_lld.c **** }
 1338              		.loc 1 1094 0
 1339 003c 1080BDE8 		pop	{r4, pc}
 1340              	.LVL170:
 1341              	.L156:
1090:../generate/sc_drivers/r_scifa/src/lld/r_rza2_scifa_lld.c ****     }
 1342              		.loc 1 1090 0
 1343 0040 003000E3 		movw	r3, #:lower16:.LANCHOR0
 1344 0044 003040E3 		movt	r3, #:upper16:.LANCHOR0
 1345 0048 040193E7 		ldr	r0, [r3, r4, lsl #2]
 1346              	.LVL171:
 1347 004c 0130A0E3 		mov	r3, #1
 1348 0050 0020A0E3 		mov	r2, #0
 1349 0054 0210A0E1 		mov	r1, r2
 1350 0058 080080E2 		add	r0, r0, #8
 1351 005c FEFFFFEB 		bl	RZA_IO_RegWrite_16
 1352              	.LVL172:
1093:../generate/sc_drivers/r_scifa/src/lld/r_rza2_scifa_lld.c **** }
 1353              		.loc 1 1093 0
 1354 0060 0000A0E3 		mov	r0, #0
 1355 0064 1080BDE8 		pop	{r4, pc}
 1356              	.LVL173:
 1357              	.L150:
 1358              		.cfi_def_cfa_offset 0
 1359              		.cfi_restore 4
 1360              		.cfi_restore 14
1080:../generate/sc_drivers/r_scifa/src/lld/r_rza2_scifa_lld.c ****     }
 1361              		.loc 1 1080 0
 1362 0068 0000E0E3 		mvn	r0, #0
 1363              	.LVL174:
 1364 006c 1EFF2FE1 		bx	lr
 1365              		.cfi_endproc
 1366              	.LFE20:
 1368              		.section	.text.R_SCIFA_IsRxFifoEmpty,"ax",%progbits
 1369              		.align	2
 1370              		.global	R_SCIFA_IsRxFifoEmpty
 1371              		.syntax unified
 1372              		.arm
 1373              		.fpu neon
 1375              	R_SCIFA_IsRxFifoEmpty:
 1376              	.LFB21:
1095:../generate/sc_drivers/r_scifa/src/lld/r_rza2_scifa_lld.c **** /**************************************************************************************************
1096:../generate/sc_drivers/r_scifa/src/lld/r_rza2_scifa_lld.c ****  * End of Function R_SCIFA_ClearRXIFlags
1097:../generate/sc_drivers/r_scifa/src/lld/r_rza2_scifa_lld.c ****  **************************************************************************************************
1098:../generate/sc_drivers/r_scifa/src/lld/r_rza2_scifa_lld.c **** 
1099:../generate/sc_drivers/r_scifa/src/lld/r_rza2_scifa_lld.c **** /**
1100:../generate/sc_drivers/r_scifa/src/lld/r_rza2_scifa_lld.c ****  * @brief R_SCIFA_IsRxFifoEmpty checks if the RX FIFO is empty
1101:../generate/sc_drivers/r_scifa/src/lld/r_rza2_scifa_lld.c ****  * This function checks the current amount of bytes in the RX FIFO
1102:../generate/sc_drivers/r_scifa/src/lld/r_rza2_scifa_lld.c ****  * it will then return false if data is in the FIFO, or true if it's empty
1103:../generate/sc_drivers/r_scifa/src/lld/r_rza2_scifa_lld.c ****  *
1104:../generate/sc_drivers/r_scifa/src/lld/r_rza2_scifa_lld.c ****  * @param[in] channel: channel to check FIFO
1105:../generate/sc_drivers/r_scifa/src/lld/r_rza2_scifa_lld.c ****  * @param[out] p_fifo_empty: false if data in the FIFO, true if it's empty
1106:../generate/sc_drivers/r_scifa/src/lld/r_rza2_scifa_lld.c ****  *
1107:../generate/sc_drivers/r_scifa/src/lld/r_rza2_scifa_lld.c ****  * @retval  0 DRV_SUCCESS
1108:../generate/sc_drivers/r_scifa/src/lld/r_rza2_scifa_lld.c ****  * @retval -1 DRV_ERROR
1109:../generate/sc_drivers/r_scifa/src/lld/r_rza2_scifa_lld.c ****  */
1110:../generate/sc_drivers/r_scifa/src/lld/r_rza2_scifa_lld.c **** int_t R_SCIFA_IsRxFifoEmpty(r_channel_t channel, bool_t *p_fifo_empty)
1111:../generate/sc_drivers/r_scifa/src/lld/r_rza2_scifa_lld.c **** {
 1377              		.loc 1 1111 0
 1378              		.cfi_startproc
 1379              		@ args = 0, pretend = 0, frame = 0
 1380              		@ frame_needed = 0, uses_anonymous_args = 0
 1381              	.LVL175:
1112:../generate/sc_drivers/r_scifa/src/lld/r_rza2_scifa_lld.c ****     uint16_t fifo_bytes;
1113:../generate/sc_drivers/r_scifa/src/lld/r_rza2_scifa_lld.c **** 
1114:../generate/sc_drivers/r_scifa/src/lld/r_rza2_scifa_lld.c ****     if ((channel > R_PRV_CFG_SCIF_LAST_CHANNEL) || (channel < 0))
 1382              		.loc 1 1114 0
 1383 0000 7030EFE6 		uxtb	r3, r0
 1384 0004 050053E3 		cmp	r3, #5
 1385 0008 1000008A 		bhi	.L160
1111:../generate/sc_drivers/r_scifa/src/lld/r_rza2_scifa_lld.c ****     uint16_t fifo_bytes;
 1386              		.loc 1 1111 0
 1387 000c 10402DE9 		push	{r4, lr}
 1388              		.cfi_def_cfa_offset 8
 1389              		.cfi_offset 4, -8
 1390              		.cfi_offset 14, -4
 1391 0010 0140A0E1 		mov	r4, r1
1115:../generate/sc_drivers/r_scifa/src/lld/r_rza2_scifa_lld.c ****     {
1116:../generate/sc_drivers/r_scifa/src/lld/r_rza2_scifa_lld.c ****         return (DRV_ERROR);
1117:../generate/sc_drivers/r_scifa/src/lld/r_rza2_scifa_lld.c ****     }
1118:../generate/sc_drivers/r_scifa/src/lld/r_rza2_scifa_lld.c **** 
1119:../generate/sc_drivers/r_scifa/src/lld/r_rza2_scifa_lld.c ****     /* get the number of bytes in the FIFO */
1120:../generate/sc_drivers/r_scifa/src/lld/r_rza2_scifa_lld.c ****     fifo_bytes = RZA_IO_RegRead_16((volatile uint16_t *) &gsp_scifa[channel]->FDR.WORD, SCIFA_FDR_R
 1392              		.loc 1 1120 0
 1393 0014 003000E3 		movw	r3, #:lower16:.LANCHOR0
 1394 0018 003040E3 		movt	r3, #:upper16:.LANCHOR0
 1395 001c 000193E7 		ldr	r0, [r3, r0, lsl #2]
 1396              	.LVL176:
 1397 0020 1F20A0E3 		mov	r2, #31
 1398 0024 0010A0E3 		mov	r1, #0
 1399              	.LVL177:
 1400 0028 0E0080E2 		add	r0, r0, #14
 1401 002c FEFFFFEB 		bl	RZA_IO_RegRead_16
 1402              	.LVL178:
1121:../generate/sc_drivers/r_scifa/src/lld/r_rza2_scifa_lld.c **** 
1122:../generate/sc_drivers/r_scifa/src/lld/r_rza2_scifa_lld.c ****     if (R_PRV_RX_FIFO_EMPTY == fifo_bytes)
 1403              		.loc 1 1122 0
 1404 0030 000050E3 		cmp	r0, #0
 1405 0034 0200000A 		beq	.L165
1123:../generate/sc_drivers/r_scifa/src/lld/r_rza2_scifa_lld.c ****     {
1124:../generate/sc_drivers/r_scifa/src/lld/r_rza2_scifa_lld.c ****         *p_fifo_empty = true;
1125:../generate/sc_drivers/r_scifa/src/lld/r_rza2_scifa_lld.c ****     }
1126:../generate/sc_drivers/r_scifa/src/lld/r_rza2_scifa_lld.c ****     else
1127:../generate/sc_drivers/r_scifa/src/lld/r_rza2_scifa_lld.c ****     {
1128:../generate/sc_drivers/r_scifa/src/lld/r_rza2_scifa_lld.c ****         *p_fifo_empty = false;
 1406              		.loc 1 1128 0
 1407 0038 0000A0E3 		mov	r0, #0
 1408              	.LVL179:
 1409 003c 000084E5 		str	r0, [r4]
 1410 0040 1080BDE8 		pop	{r4, pc}
 1411              	.LVL180:
 1412              	.L165:
1124:../generate/sc_drivers/r_scifa/src/lld/r_rza2_scifa_lld.c ****     }
 1413              		.loc 1 1124 0
 1414 0044 0130A0E3 		mov	r3, #1
 1415 0048 003084E5 		str	r3, [r4]
 1416 004c 1080BDE8 		pop	{r4, pc}
 1417              	.LVL181:
 1418              	.L160:
 1419              		.cfi_def_cfa_offset 0
 1420              		.cfi_restore 4
 1421              		.cfi_restore 14
1116:../generate/sc_drivers/r_scifa/src/lld/r_rza2_scifa_lld.c ****     }
 1422              		.loc 1 1116 0
 1423 0050 0000E0E3 		mvn	r0, #0
 1424              	.LVL182:
 1425 0054 1EFF2FE1 		bx	lr
 1426              		.cfi_endproc
 1427              	.LFE21:
 1429              		.section	.text.R_SCIFA_StopTXI,"ax",%progbits
 1430              		.align	2
 1431              		.global	R_SCIFA_StopTXI
 1432              		.syntax unified
 1433              		.arm
 1434              		.fpu neon
 1436              	R_SCIFA_StopTXI:
 1437              	.LFB22:
1129:../generate/sc_drivers/r_scifa/src/lld/r_rza2_scifa_lld.c ****     }
1130:../generate/sc_drivers/r_scifa/src/lld/r_rza2_scifa_lld.c **** 
1131:../generate/sc_drivers/r_scifa/src/lld/r_rza2_scifa_lld.c ****     return (DRV_SUCCESS);
1132:../generate/sc_drivers/r_scifa/src/lld/r_rza2_scifa_lld.c **** }
1133:../generate/sc_drivers/r_scifa/src/lld/r_rza2_scifa_lld.c **** /**************************************************************************************************
1134:../generate/sc_drivers/r_scifa/src/lld/r_rza2_scifa_lld.c ****  * End of Function R_SCIFA_IsRxFifoEmpty
1135:../generate/sc_drivers/r_scifa/src/lld/r_rza2_scifa_lld.c ****  **************************************************************************************************
1136:../generate/sc_drivers/r_scifa/src/lld/r_rza2_scifa_lld.c **** 
1137:../generate/sc_drivers/r_scifa/src/lld/r_rza2_scifa_lld.c **** /**
1138:../generate/sc_drivers/r_scifa/src/lld/r_rza2_scifa_lld.c ****  * @brief R_SCIFA_StopTXI stops TXI for a given channel
1139:../generate/sc_drivers/r_scifa/src/lld/r_rza2_scifa_lld.c ****  *
1140:../generate/sc_drivers/r_scifa/src/lld/r_rza2_scifa_lld.c ****  * @param[in] channel: channel to disable TXI for
1141:../generate/sc_drivers/r_scifa/src/lld/r_rza2_scifa_lld.c ****  *
1142:../generate/sc_drivers/r_scifa/src/lld/r_rza2_scifa_lld.c ****  * @retval  0 DRV_SUCCESS
1143:../generate/sc_drivers/r_scifa/src/lld/r_rza2_scifa_lld.c ****  * @retval -1 DRV_ERROR
1144:../generate/sc_drivers/r_scifa/src/lld/r_rza2_scifa_lld.c ****  */
1145:../generate/sc_drivers/r_scifa/src/lld/r_rza2_scifa_lld.c **** int_t R_SCIFA_StopTXI (r_channel_t channel)
1146:../generate/sc_drivers/r_scifa/src/lld/r_rza2_scifa_lld.c **** {
 1438              		.loc 1 1146 0
 1439              		.cfi_startproc
 1440              		@ args = 0, pretend = 0, frame = 0
 1441              		@ frame_needed = 0, uses_anonymous_args = 0
 1442              	.LVL183:
1147:../generate/sc_drivers/r_scifa/src/lld/r_rza2_scifa_lld.c ****     if ((channel > R_PRV_CFG_SCIF_LAST_CHANNEL) || (channel < 0))
 1443              		.loc 1 1147 0
 1444 0000 7030EFE6 		uxtb	r3, r0
 1445 0004 050053E3 		cmp	r3, #5
 1446 0008 1000008A 		bhi	.L168
1146:../generate/sc_drivers/r_scifa/src/lld/r_rza2_scifa_lld.c ****     if ((channel > R_PRV_CFG_SCIF_LAST_CHANNEL) || (channel < 0))
 1447              		.loc 1 1146 0
 1448 000c 10402DE9 		push	{r4, lr}
 1449              		.cfi_def_cfa_offset 8
 1450              		.cfi_offset 4, -8
 1451              		.cfi_offset 14, -4
1148:../generate/sc_drivers/r_scifa/src/lld/r_rza2_scifa_lld.c ****     {
1149:../generate/sc_drivers/r_scifa/src/lld/r_rza2_scifa_lld.c ****         return (DRV_ERROR);
1150:../generate/sc_drivers/r_scifa/src/lld/r_rza2_scifa_lld.c ****     }
1151:../generate/sc_drivers/r_scifa/src/lld/r_rza2_scifa_lld.c **** 
1152:../generate/sc_drivers/r_scifa/src/lld/r_rza2_scifa_lld.c ****     /* disable transmit interrupt enable */
1153:../generate/sc_drivers/r_scifa/src/lld/r_rza2_scifa_lld.c ****     RZA_IO_RegWrite_16((volatile uint16_t *) &gsp_scifa[channel]->SCR.WORD, 0, SCIFA_SCR_TIE_SHIFT,
 1452              		.loc 1 1153 0
 1453 0010 003000E3 		movw	r3, #:lower16:.LANCHOR0
 1454 0014 003040E3 		movt	r3, #:upper16:.LANCHOR0
 1455 0018 004193E7 		ldr	r4, [r3, r0, lsl #2]
 1456 001c 044084E2 		add	r4, r4, #4
 1457 0020 8030A0E3 		mov	r3, #128
 1458 0024 0720A0E3 		mov	r2, #7
 1459 0028 0010A0E3 		mov	r1, #0
 1460 002c 0400A0E1 		mov	r0, r4
 1461              	.LVL184:
 1462 0030 FEFFFFEB 		bl	RZA_IO_RegWrite_16
 1463              	.LVL185:
1154:../generate/sc_drivers/r_scifa/src/lld/r_rza2_scifa_lld.c **** 
1155:../generate/sc_drivers/r_scifa/src/lld/r_rza2_scifa_lld.c ****     /* disable transmit end interrupt enable */
1156:../generate/sc_drivers/r_scifa/src/lld/r_rza2_scifa_lld.c ****     RZA_IO_RegWrite_16((volatile uint16_t *) &gsp_scifa[channel]->SCR.WORD, 0, SCIFA_SCR_TEIE_SHIFT
 1464              		.loc 1 1156 0
 1465 0034 0430A0E3 		mov	r3, #4
 1466 0038 0220A0E3 		mov	r2, #2
 1467 003c 0010A0E3 		mov	r1, #0
 1468 0040 0400A0E1 		mov	r0, r4
 1469 0044 FEFFFFEB 		bl	RZA_IO_RegWrite_16
 1470              	.LVL186:
1157:../generate/sc_drivers/r_scifa/src/lld/r_rza2_scifa_lld.c **** 
1158:../generate/sc_drivers/r_scifa/src/lld/r_rza2_scifa_lld.c ****     return (DRV_SUCCESS);
 1471              		.loc 1 1158 0
 1472 0048 0000A0E3 		mov	r0, #0
 1473 004c 1080BDE8 		pop	{r4, pc}
 1474              	.LVL187:
 1475              	.L168:
 1476              		.cfi_def_cfa_offset 0
 1477              		.cfi_restore 4
 1478              		.cfi_restore 14
1149:../generate/sc_drivers/r_scifa/src/lld/r_rza2_scifa_lld.c ****     }
 1479              		.loc 1 1149 0
 1480 0050 0000E0E3 		mvn	r0, #0
 1481              	.LVL188:
 1482 0054 1EFF2FE1 		bx	lr
 1483              		.cfi_endproc
 1484              	.LFE22:
 1486              		.section	.text.R_SCIFA_StartRX,"ax",%progbits
 1487              		.align	2
 1488              		.global	R_SCIFA_StartRX
 1489              		.syntax unified
 1490              		.arm
 1491              		.fpu neon
 1493              	R_SCIFA_StartRX:
 1494              	.LFB23:
1159:../generate/sc_drivers/r_scifa/src/lld/r_rza2_scifa_lld.c **** }
1160:../generate/sc_drivers/r_scifa/src/lld/r_rza2_scifa_lld.c **** /**************************************************************************************************
1161:../generate/sc_drivers/r_scifa/src/lld/r_rza2_scifa_lld.c ****  * End of Function R_SCIFA_StopTXI
1162:../generate/sc_drivers/r_scifa/src/lld/r_rza2_scifa_lld.c ****  **************************************************************************************************
1163:../generate/sc_drivers/r_scifa/src/lld/r_rza2_scifa_lld.c **** 
1164:../generate/sc_drivers/r_scifa/src/lld/r_rza2_scifa_lld.c **** /**
1165:../generate/sc_drivers/r_scifa/src/lld/r_rza2_scifa_lld.c ****  * @brief R_SCIFA_StartRX enable receive and receive interrupts
1166:../generate/sc_drivers/r_scifa/src/lld/r_rza2_scifa_lld.c ****  *
1167:../generate/sc_drivers/r_scifa/src/lld/r_rza2_scifa_lld.c ****  * @param[in] channel to start receive
1168:../generate/sc_drivers/r_scifa/src/lld/r_rza2_scifa_lld.c ****  *
1169:../generate/sc_drivers/r_scifa/src/lld/r_rza2_scifa_lld.c ****  * @retval  0 DRV_SUCCESS
1170:../generate/sc_drivers/r_scifa/src/lld/r_rza2_scifa_lld.c ****  * @retval -1 DRV_ERROR
1171:../generate/sc_drivers/r_scifa/src/lld/r_rza2_scifa_lld.c ****  */
1172:../generate/sc_drivers/r_scifa/src/lld/r_rza2_scifa_lld.c **** int_t R_SCIFA_StartRX (r_channel_t channel)
1173:../generate/sc_drivers/r_scifa/src/lld/r_rza2_scifa_lld.c **** {
 1495              		.loc 1 1173 0
 1496              		.cfi_startproc
 1497              		@ args = 0, pretend = 0, frame = 0
 1498              		@ frame_needed = 0, uses_anonymous_args = 0
 1499              	.LVL189:
1174:../generate/sc_drivers/r_scifa/src/lld/r_rza2_scifa_lld.c ****     if ((channel > R_PRV_CFG_SCIF_LAST_CHANNEL) || (channel < 0))
 1500              		.loc 1 1174 0
 1501 0000 7030EFE6 		uxtb	r3, r0
 1502 0004 050053E3 		cmp	r3, #5
 1503 0008 1000008A 		bhi	.L175
1173:../generate/sc_drivers/r_scifa/src/lld/r_rza2_scifa_lld.c ****     if ((channel > R_PRV_CFG_SCIF_LAST_CHANNEL) || (channel < 0))
 1504              		.loc 1 1173 0
 1505 000c 10402DE9 		push	{r4, lr}
 1506              		.cfi_def_cfa_offset 8
 1507              		.cfi_offset 4, -8
 1508              		.cfi_offset 14, -4
1175:../generate/sc_drivers/r_scifa/src/lld/r_rza2_scifa_lld.c ****     {
1176:../generate/sc_drivers/r_scifa/src/lld/r_rza2_scifa_lld.c ****         return (DRV_ERROR);
1177:../generate/sc_drivers/r_scifa/src/lld/r_rza2_scifa_lld.c ****     }
1178:../generate/sc_drivers/r_scifa/src/lld/r_rza2_scifa_lld.c **** 
1179:../generate/sc_drivers/r_scifa/src/lld/r_rza2_scifa_lld.c ****     /* receive enable */
1180:../generate/sc_drivers/r_scifa/src/lld/r_rza2_scifa_lld.c ****     RZA_IO_RegWrite_16((volatile uint16_t *) &gsp_scifa[channel]->SCR.WORD, 1, SCIFA_SCR_RE_SHIFT, 
 1509              		.loc 1 1180 0
 1510 0010 003000E3 		movw	r3, #:lower16:.LANCHOR0
 1511 0014 003040E3 		movt	r3, #:upper16:.LANCHOR0
 1512 0018 004193E7 		ldr	r4, [r3, r0, lsl #2]
 1513 001c 044084E2 		add	r4, r4, #4
 1514 0020 1030A0E3 		mov	r3, #16
 1515 0024 0420A0E3 		mov	r2, #4
 1516 0028 0110A0E3 		mov	r1, #1
 1517 002c 0400A0E1 		mov	r0, r4
 1518              	.LVL190:
 1519 0030 FEFFFFEB 		bl	RZA_IO_RegWrite_16
 1520              	.LVL191:
1181:../generate/sc_drivers/r_scifa/src/lld/r_rza2_scifa_lld.c **** 
1182:../generate/sc_drivers/r_scifa/src/lld/r_rza2_scifa_lld.c ****     /* enable interrupts to trigger DMA */
1183:../generate/sc_drivers/r_scifa/src/lld/r_rza2_scifa_lld.c ****     RZA_IO_RegWrite_16((volatile uint16_t *) &gsp_scifa[channel]->SCR.WORD, 1, SCIFA_SCR_RIE_SHIFT,
 1521              		.loc 1 1183 0
 1522 0034 4030A0E3 		mov	r3, #64
 1523 0038 0620A0E3 		mov	r2, #6
 1524 003c 0110A0E3 		mov	r1, #1
 1525 0040 0400A0E1 		mov	r0, r4
 1526 0044 FEFFFFEB 		bl	RZA_IO_RegWrite_16
 1527              	.LVL192:
1184:../generate/sc_drivers/r_scifa/src/lld/r_rza2_scifa_lld.c **** 
1185:../generate/sc_drivers/r_scifa/src/lld/r_rza2_scifa_lld.c ****     return (DRV_SUCCESS);
 1528              		.loc 1 1185 0
 1529 0048 0000A0E3 		mov	r0, #0
 1530 004c 1080BDE8 		pop	{r4, pc}
 1531              	.LVL193:
 1532              	.L175:
 1533              		.cfi_def_cfa_offset 0
 1534              		.cfi_restore 4
 1535              		.cfi_restore 14
1176:../generate/sc_drivers/r_scifa/src/lld/r_rza2_scifa_lld.c ****     }
 1536              		.loc 1 1176 0
 1537 0050 0000E0E3 		mvn	r0, #0
 1538              	.LVL194:
 1539 0054 1EFF2FE1 		bx	lr
 1540              		.cfi_endproc
 1541              	.LFE23:
 1543              		.section	.text.R_SCIFA_StopRX,"ax",%progbits
 1544              		.align	2
 1545              		.global	R_SCIFA_StopRX
 1546              		.syntax unified
 1547              		.arm
 1548              		.fpu neon
 1550              	R_SCIFA_StopRX:
 1551              	.LFB24:
1186:../generate/sc_drivers/r_scifa/src/lld/r_rza2_scifa_lld.c **** }
1187:../generate/sc_drivers/r_scifa/src/lld/r_rza2_scifa_lld.c **** /**************************************************************************************************
1188:../generate/sc_drivers/r_scifa/src/lld/r_rza2_scifa_lld.c ****  * End of Function R_SCIFA_StartRX
1189:../generate/sc_drivers/r_scifa/src/lld/r_rza2_scifa_lld.c ****  **************************************************************************************************
1190:../generate/sc_drivers/r_scifa/src/lld/r_rza2_scifa_lld.c **** 
1191:../generate/sc_drivers/r_scifa/src/lld/r_rza2_scifa_lld.c **** /**
1192:../generate/sc_drivers/r_scifa/src/lld/r_rza2_scifa_lld.c ****  * @brief R_SCIFA_StopRX disable receive
1193:../generate/sc_drivers/r_scifa/src/lld/r_rza2_scifa_lld.c ****  *
1194:../generate/sc_drivers/r_scifa/src/lld/r_rza2_scifa_lld.c ****  * @param[in] channel to stop receive
1195:../generate/sc_drivers/r_scifa/src/lld/r_rza2_scifa_lld.c ****  *
1196:../generate/sc_drivers/r_scifa/src/lld/r_rza2_scifa_lld.c ****  * @retval  0 DRV_SUCCESS
1197:../generate/sc_drivers/r_scifa/src/lld/r_rza2_scifa_lld.c ****  * @retval -1 DRV_ERROR
1198:../generate/sc_drivers/r_scifa/src/lld/r_rza2_scifa_lld.c ****  */
1199:../generate/sc_drivers/r_scifa/src/lld/r_rza2_scifa_lld.c **** int_t R_SCIFA_StopRX (r_channel_t channel)
1200:../generate/sc_drivers/r_scifa/src/lld/r_rza2_scifa_lld.c **** {
 1552              		.loc 1 1200 0
 1553              		.cfi_startproc
 1554              		@ args = 0, pretend = 0, frame = 0
 1555              		@ frame_needed = 0, uses_anonymous_args = 0
 1556              	.LVL195:
1201:../generate/sc_drivers/r_scifa/src/lld/r_rza2_scifa_lld.c ****     if ((channel > R_PRV_CFG_SCIF_LAST_CHANNEL) || (channel < 0))
 1557              		.loc 1 1201 0
 1558 0000 7030EFE6 		uxtb	r3, r0
 1559 0004 050053E3 		cmp	r3, #5
 1560 0008 0A00008A 		bhi	.L182
1200:../generate/sc_drivers/r_scifa/src/lld/r_rza2_scifa_lld.c ****     if ((channel > R_PRV_CFG_SCIF_LAST_CHANNEL) || (channel < 0))
 1561              		.loc 1 1200 0
 1562 000c 10402DE9 		push	{r4, lr}
 1563              		.cfi_def_cfa_offset 8
 1564              		.cfi_offset 4, -8
 1565              		.cfi_offset 14, -4
1202:../generate/sc_drivers/r_scifa/src/lld/r_rza2_scifa_lld.c ****     {
1203:../generate/sc_drivers/r_scifa/src/lld/r_rza2_scifa_lld.c ****         return (DRV_ERROR);
1204:../generate/sc_drivers/r_scifa/src/lld/r_rza2_scifa_lld.c ****     }
1205:../generate/sc_drivers/r_scifa/src/lld/r_rza2_scifa_lld.c **** 
1206:../generate/sc_drivers/r_scifa/src/lld/r_rza2_scifa_lld.c ****     RZA_IO_RegWrite_16((volatile uint16_t *) &gsp_scifa[channel]->SCR.WORD, 0, SCIFA_SCR_RE_SHIFT, 
 1566              		.loc 1 1206 0
 1567 0010 003000E3 		movw	r3, #:lower16:.LANCHOR0
 1568 0014 003040E3 		movt	r3, #:upper16:.LANCHOR0
 1569 0018 000193E7 		ldr	r0, [r3, r0, lsl #2]
 1570              	.LVL196:
 1571 001c 1030A0E3 		mov	r3, #16
 1572 0020 0420A0E3 		mov	r2, #4
 1573 0024 0010A0E3 		mov	r1, #0
 1574 0028 020080E0 		add	r0, r0, r2
 1575 002c FEFFFFEB 		bl	RZA_IO_RegWrite_16
 1576              	.LVL197:
1207:../generate/sc_drivers/r_scifa/src/lld/r_rza2_scifa_lld.c **** 
1208:../generate/sc_drivers/r_scifa/src/lld/r_rza2_scifa_lld.c ****     return (DRV_SUCCESS);
 1577              		.loc 1 1208 0
 1578 0030 0000A0E3 		mov	r0, #0
 1579 0034 1080BDE8 		pop	{r4, pc}
 1580              	.LVL198:
 1581              	.L182:
 1582              		.cfi_def_cfa_offset 0
 1583              		.cfi_restore 4
 1584              		.cfi_restore 14
1203:../generate/sc_drivers/r_scifa/src/lld/r_rza2_scifa_lld.c ****     }
 1585              		.loc 1 1203 0
 1586 0038 0000E0E3 		mvn	r0, #0
 1587              	.LVL199:
 1588 003c 1EFF2FE1 		bx	lr
 1589              		.cfi_endproc
 1590              	.LFE24:
 1592              		.section	.text.R_SCIFA_GetReadDataRegisterAddress,"ax",%progbits
 1593              		.align	2
 1594              		.global	R_SCIFA_GetReadDataRegisterAddress
 1595              		.syntax unified
 1596              		.arm
 1597              		.fpu neon
 1599              	R_SCIFA_GetReadDataRegisterAddress:
 1600              	.LFB25:
1209:../generate/sc_drivers/r_scifa/src/lld/r_rza2_scifa_lld.c **** }
1210:../generate/sc_drivers/r_scifa/src/lld/r_rza2_scifa_lld.c **** /**************************************************************************************************
1211:../generate/sc_drivers/r_scifa/src/lld/r_rza2_scifa_lld.c ****  * End of Function R_SCIFA_StopRX
1212:../generate/sc_drivers/r_scifa/src/lld/r_rza2_scifa_lld.c ****  **************************************************************************************************
1213:../generate/sc_drivers/r_scifa/src/lld/r_rza2_scifa_lld.c **** 
1214:../generate/sc_drivers/r_scifa/src/lld/r_rza2_scifa_lld.c **** /**
1215:../generate/sc_drivers/r_scifa/src/lld/r_rza2_scifa_lld.c ****  * @brief R_SCIFA_GetReadDataRegisterAddress return the read data register address
1216:../generate/sc_drivers/r_scifa/src/lld/r_rza2_scifa_lld.c ****  *
1217:../generate/sc_drivers/r_scifa/src/lld/r_rza2_scifa_lld.c ****  * @param[in] channel to get the FRDR register address for
1218:../generate/sc_drivers/r_scifa/src/lld/r_rza2_scifa_lld.c ****  *
1219:../generate/sc_drivers/r_scifa/src/lld/r_rza2_scifa_lld.c ****  * @retval the address of the FRDR register
1220:../generate/sc_drivers/r_scifa/src/lld/r_rza2_scifa_lld.c ****  * @retval NULL error
1221:../generate/sc_drivers/r_scifa/src/lld/r_rza2_scifa_lld.c ****  */
1222:../generate/sc_drivers/r_scifa/src/lld/r_rza2_scifa_lld.c **** void * R_SCIFA_GetReadDataRegisterAddress (r_channel_t channel)
1223:../generate/sc_drivers/r_scifa/src/lld/r_rza2_scifa_lld.c **** {
 1601              		.loc 1 1223 0
 1602              		.cfi_startproc
 1603              		@ args = 0, pretend = 0, frame = 0
 1604              		@ frame_needed = 0, uses_anonymous_args = 0
 1605              		@ link register save eliminated.
 1606              	.LVL200:
1224:../generate/sc_drivers/r_scifa/src/lld/r_rza2_scifa_lld.c ****     if ((channel > R_PRV_CFG_SCIF_LAST_CHANNEL) || (channel < 0))
 1607              		.loc 1 1224 0
 1608 0000 7030EFE6 		uxtb	r3, r0
 1609 0004 050053E3 		cmp	r3, #5
 1610 0008 0400008A 		bhi	.L189
1225:../generate/sc_drivers/r_scifa/src/lld/r_rza2_scifa_lld.c ****     {
1226:../generate/sc_drivers/r_scifa/src/lld/r_rza2_scifa_lld.c ****         return (NULL);
1227:../generate/sc_drivers/r_scifa/src/lld/r_rza2_scifa_lld.c ****     }
1228:../generate/sc_drivers/r_scifa/src/lld/r_rza2_scifa_lld.c **** 
1229:../generate/sc_drivers/r_scifa/src/lld/r_rza2_scifa_lld.c ****     return (void *) &gsp_scifa[channel]->FRDR.BYTE;
 1611              		.loc 1 1229 0
 1612 000c 003000E3 		movw	r3, #:lower16:.LANCHOR0
 1613 0010 003040E3 		movt	r3, #:upper16:.LANCHOR0
 1614 0014 000193E7 		ldr	r0, [r3, r0, lsl #2]
 1615              	.LVL201:
 1616 0018 0A0080E2 		add	r0, r0, #10
 1617 001c 1EFF2FE1 		bx	lr
 1618              	.LVL202:
 1619              	.L189:
1226:../generate/sc_drivers/r_scifa/src/lld/r_rza2_scifa_lld.c ****     }
 1620              		.loc 1 1226 0
 1621 0020 0000A0E3 		mov	r0, #0
 1622              	.LVL203:
1230:../generate/sc_drivers/r_scifa/src/lld/r_rza2_scifa_lld.c **** }
 1623              		.loc 1 1230 0
 1624 0024 1EFF2FE1 		bx	lr
 1625              		.cfi_endproc
 1626              	.LFE25:
 1628              		.section	.text.R_SCIFA_StartTX,"ax",%progbits
 1629              		.align	2
 1630              		.global	R_SCIFA_StartTX
 1631              		.syntax unified
 1632              		.arm
 1633              		.fpu neon
 1635              	R_SCIFA_StartTX:
 1636              	.LFB26:
1231:../generate/sc_drivers/r_scifa/src/lld/r_rza2_scifa_lld.c **** /**************************************************************************************************
1232:../generate/sc_drivers/r_scifa/src/lld/r_rza2_scifa_lld.c ****  * End of Function R_SCIFA_GetReadDataRegisterAddress
1233:../generate/sc_drivers/r_scifa/src/lld/r_rza2_scifa_lld.c ****  **************************************************************************************************
1234:../generate/sc_drivers/r_scifa/src/lld/r_rza2_scifa_lld.c **** 
1235:../generate/sc_drivers/r_scifa/src/lld/r_rza2_scifa_lld.c **** /**
1236:../generate/sc_drivers/r_scifa/src/lld/r_rza2_scifa_lld.c ****  * @brief R_SCIFA_StartTX enable transmit and transmit interrupts
1237:../generate/sc_drivers/r_scifa/src/lld/r_rza2_scifa_lld.c ****  *
1238:../generate/sc_drivers/r_scifa/src/lld/r_rza2_scifa_lld.c ****  * @param[in] channel to start transmit
1239:../generate/sc_drivers/r_scifa/src/lld/r_rza2_scifa_lld.c ****  *
1240:../generate/sc_drivers/r_scifa/src/lld/r_rza2_scifa_lld.c ****  * @retval  0 DRV_SUCCESS
1241:../generate/sc_drivers/r_scifa/src/lld/r_rza2_scifa_lld.c ****  * @retval -1 DRV_ERROR
1242:../generate/sc_drivers/r_scifa/src/lld/r_rza2_scifa_lld.c ****  */
1243:../generate/sc_drivers/r_scifa/src/lld/r_rza2_scifa_lld.c **** int_t R_SCIFA_StartTX (r_channel_t channel)
1244:../generate/sc_drivers/r_scifa/src/lld/r_rza2_scifa_lld.c **** {
 1637              		.loc 1 1244 0
 1638              		.cfi_startproc
 1639              		@ args = 0, pretend = 0, frame = 0
 1640              		@ frame_needed = 0, uses_anonymous_args = 0
 1641              	.LVL204:
1245:../generate/sc_drivers/r_scifa/src/lld/r_rza2_scifa_lld.c ****     if ((channel > R_PRV_CFG_SCIF_LAST_CHANNEL) || (channel < 0))
 1642              		.loc 1 1245 0
 1643 0000 7030EFE6 		uxtb	r3, r0
 1644 0004 050053E3 		cmp	r3, #5
 1645 0008 1500008A 		bhi	.L192
1244:../generate/sc_drivers/r_scifa/src/lld/r_rza2_scifa_lld.c ****     if ((channel > R_PRV_CFG_SCIF_LAST_CHANNEL) || (channel < 0))
 1646              		.loc 1 1244 0
 1647 000c 10402DE9 		push	{r4, lr}
 1648              		.cfi_def_cfa_offset 8
 1649              		.cfi_offset 4, -8
 1650              		.cfi_offset 14, -4
1246:../generate/sc_drivers/r_scifa/src/lld/r_rza2_scifa_lld.c ****     {
1247:../generate/sc_drivers/r_scifa/src/lld/r_rza2_scifa_lld.c ****         return (DRV_ERROR);
1248:../generate/sc_drivers/r_scifa/src/lld/r_rza2_scifa_lld.c ****     }
1249:../generate/sc_drivers/r_scifa/src/lld/r_rza2_scifa_lld.c **** 
1250:../generate/sc_drivers/r_scifa/src/lld/r_rza2_scifa_lld.c ****     RZA_IO_RegWrite_16((volatile uint16_t *) &gsp_scifa[channel]->SCR.WORD, 1, SCIFA_SCR_TE_SHIFT, 
 1651              		.loc 1 1250 0
 1652 0010 003000E3 		movw	r3, #:lower16:.LANCHOR0
 1653 0014 003040E3 		movt	r3, #:upper16:.LANCHOR0
 1654 0018 004193E7 		ldr	r4, [r3, r0, lsl #2]
 1655 001c 044084E2 		add	r4, r4, #4
 1656 0020 2030A0E3 		mov	r3, #32
 1657 0024 0520A0E3 		mov	r2, #5
 1658 0028 0110A0E3 		mov	r1, #1
 1659 002c 0400A0E1 		mov	r0, r4
 1660              	.LVL205:
 1661 0030 FEFFFFEB 		bl	RZA_IO_RegWrite_16
 1662              	.LVL206:
1251:../generate/sc_drivers/r_scifa/src/lld/r_rza2_scifa_lld.c **** 
1252:../generate/sc_drivers/r_scifa/src/lld/r_rza2_scifa_lld.c ****     /* enable interrupts to trigger DMA */
1253:../generate/sc_drivers/r_scifa/src/lld/r_rza2_scifa_lld.c ****     RZA_IO_RegWrite_16((volatile uint16_t *) &gsp_scifa[channel]->SCR.WORD, 1, SCIFA_SCR_TIE_SHIFT,
 1663              		.loc 1 1253 0
 1664 0034 8030A0E3 		mov	r3, #128
 1665 0038 0720A0E3 		mov	r2, #7
 1666 003c 0110A0E3 		mov	r1, #1
 1667 0040 0400A0E1 		mov	r0, r4
 1668 0044 FEFFFFEB 		bl	RZA_IO_RegWrite_16
 1669              	.LVL207:
1254:../generate/sc_drivers/r_scifa/src/lld/r_rza2_scifa_lld.c **** 
1255:../generate/sc_drivers/r_scifa/src/lld/r_rza2_scifa_lld.c ****     /* enable transmit end interrupt */
1256:../generate/sc_drivers/r_scifa/src/lld/r_rza2_scifa_lld.c ****     RZA_IO_RegWrite_16((volatile uint16_t *) &gsp_scifa[channel]->SCR.WORD, 1, SCIFA_SCR_TEIE_SHIFT
 1670              		.loc 1 1256 0
 1671 0048 0430A0E3 		mov	r3, #4
 1672 004c 0220A0E3 		mov	r2, #2
 1673 0050 0110A0E3 		mov	r1, #1
 1674 0054 0400A0E1 		mov	r0, r4
 1675 0058 FEFFFFEB 		bl	RZA_IO_RegWrite_16
 1676              	.LVL208:
1257:../generate/sc_drivers/r_scifa/src/lld/r_rza2_scifa_lld.c **** 
1258:../generate/sc_drivers/r_scifa/src/lld/r_rza2_scifa_lld.c ****     return (DRV_SUCCESS);
 1677              		.loc 1 1258 0
 1678 005c 0000A0E3 		mov	r0, #0
 1679 0060 1080BDE8 		pop	{r4, pc}
 1680              	.LVL209:
 1681              	.L192:
 1682              		.cfi_def_cfa_offset 0
 1683              		.cfi_restore 4
 1684              		.cfi_restore 14
1247:../generate/sc_drivers/r_scifa/src/lld/r_rza2_scifa_lld.c ****     }
 1685              		.loc 1 1247 0
 1686 0064 0000E0E3 		mvn	r0, #0
 1687              	.LVL210:
 1688 0068 1EFF2FE1 		bx	lr
 1689              		.cfi_endproc
 1690              	.LFE26:
 1692              		.section	.text.R_SCIFA_StopTX,"ax",%progbits
 1693              		.align	2
 1694              		.global	R_SCIFA_StopTX
 1695              		.syntax unified
 1696              		.arm
 1697              		.fpu neon
 1699              	R_SCIFA_StopTX:
 1700              	.LFB27:
1259:../generate/sc_drivers/r_scifa/src/lld/r_rza2_scifa_lld.c **** }
1260:../generate/sc_drivers/r_scifa/src/lld/r_rza2_scifa_lld.c **** /**************************************************************************************************
1261:../generate/sc_drivers/r_scifa/src/lld/r_rza2_scifa_lld.c ****  * End of Function R_SCIFA_StartTX
1262:../generate/sc_drivers/r_scifa/src/lld/r_rza2_scifa_lld.c ****  **************************************************************************************************
1263:../generate/sc_drivers/r_scifa/src/lld/r_rza2_scifa_lld.c **** 
1264:../generate/sc_drivers/r_scifa/src/lld/r_rza2_scifa_lld.c **** /**
1265:../generate/sc_drivers/r_scifa/src/lld/r_rza2_scifa_lld.c ****  * @brief R_SCIFA_StopTX disable transmit
1266:../generate/sc_drivers/r_scifa/src/lld/r_rza2_scifa_lld.c ****  *
1267:../generate/sc_drivers/r_scifa/src/lld/r_rza2_scifa_lld.c ****  * @param[in] channel to stop transmit
1268:../generate/sc_drivers/r_scifa/src/lld/r_rza2_scifa_lld.c ****  *
1269:../generate/sc_drivers/r_scifa/src/lld/r_rza2_scifa_lld.c ****  * @retval  0 DRV_SUCCESS
1270:../generate/sc_drivers/r_scifa/src/lld/r_rza2_scifa_lld.c ****  * @retval -1 DRV_ERROR
1271:../generate/sc_drivers/r_scifa/src/lld/r_rza2_scifa_lld.c ****  */
1272:../generate/sc_drivers/r_scifa/src/lld/r_rza2_scifa_lld.c **** int_t R_SCIFA_StopTX (r_channel_t channel)
1273:../generate/sc_drivers/r_scifa/src/lld/r_rza2_scifa_lld.c **** {
 1701              		.loc 1 1273 0
 1702              		.cfi_startproc
 1703              		@ args = 0, pretend = 0, frame = 0
 1704              		@ frame_needed = 0, uses_anonymous_args = 0
 1705              	.LVL211:
1274:../generate/sc_drivers/r_scifa/src/lld/r_rza2_scifa_lld.c ****     if ((channel > R_PRV_CFG_SCIF_LAST_CHANNEL) || (channel < 0))
 1706              		.loc 1 1274 0
 1707 0000 7030EFE6 		uxtb	r3, r0
 1708 0004 050053E3 		cmp	r3, #5
 1709 0008 0A00008A 		bhi	.L199
1273:../generate/sc_drivers/r_scifa/src/lld/r_rza2_scifa_lld.c ****     if ((channel > R_PRV_CFG_SCIF_LAST_CHANNEL) || (channel < 0))
 1710              		.loc 1 1273 0
 1711 000c 10402DE9 		push	{r4, lr}
 1712              		.cfi_def_cfa_offset 8
 1713              		.cfi_offset 4, -8
 1714              		.cfi_offset 14, -4
1275:../generate/sc_drivers/r_scifa/src/lld/r_rza2_scifa_lld.c ****     {
1276:../generate/sc_drivers/r_scifa/src/lld/r_rza2_scifa_lld.c ****         return (DRV_ERROR);
1277:../generate/sc_drivers/r_scifa/src/lld/r_rza2_scifa_lld.c ****     }
1278:../generate/sc_drivers/r_scifa/src/lld/r_rza2_scifa_lld.c **** 
1279:../generate/sc_drivers/r_scifa/src/lld/r_rza2_scifa_lld.c ****     RZA_IO_RegWrite_16((volatile uint16_t *) &gsp_scifa[channel]->SCR.WORD, 0, SCIFA_SCR_TE_SHIFT, 
 1715              		.loc 1 1279 0
 1716 0010 003000E3 		movw	r3, #:lower16:.LANCHOR0
 1717 0014 003040E3 		movt	r3, #:upper16:.LANCHOR0
 1718 0018 000193E7 		ldr	r0, [r3, r0, lsl #2]
 1719              	.LVL212:
 1720 001c 2030A0E3 		mov	r3, #32
 1721 0020 0520A0E3 		mov	r2, #5
 1722 0024 0010A0E3 		mov	r1, #0
 1723 0028 040080E2 		add	r0, r0, #4
 1724 002c FEFFFFEB 		bl	RZA_IO_RegWrite_16
 1725              	.LVL213:
1280:../generate/sc_drivers/r_scifa/src/lld/r_rza2_scifa_lld.c **** 
1281:../generate/sc_drivers/r_scifa/src/lld/r_rza2_scifa_lld.c ****     return (DRV_SUCCESS);
 1726              		.loc 1 1281 0
 1727 0030 0000A0E3 		mov	r0, #0
 1728 0034 1080BDE8 		pop	{r4, pc}
 1729              	.LVL214:
 1730              	.L199:
 1731              		.cfi_def_cfa_offset 0
 1732              		.cfi_restore 4
 1733              		.cfi_restore 14
1276:../generate/sc_drivers/r_scifa/src/lld/r_rza2_scifa_lld.c ****     }
 1734              		.loc 1 1276 0
 1735 0038 0000E0E3 		mvn	r0, #0
 1736              	.LVL215:
 1737 003c 1EFF2FE1 		bx	lr
 1738              		.cfi_endproc
 1739              	.LFE27:
 1741              		.section	.text.R_SCIFA_GetWriteDataRegisterAddress,"ax",%progbits
 1742              		.align	2
 1743              		.global	R_SCIFA_GetWriteDataRegisterAddress
 1744              		.syntax unified
 1745              		.arm
 1746              		.fpu neon
 1748              	R_SCIFA_GetWriteDataRegisterAddress:
 1749              	.LFB28:
1282:../generate/sc_drivers/r_scifa/src/lld/r_rza2_scifa_lld.c **** }
1283:../generate/sc_drivers/r_scifa/src/lld/r_rza2_scifa_lld.c **** /**************************************************************************************************
1284:../generate/sc_drivers/r_scifa/src/lld/r_rza2_scifa_lld.c ****  * End of Function R_SCIFA_StopTX
1285:../generate/sc_drivers/r_scifa/src/lld/r_rza2_scifa_lld.c ****  **************************************************************************************************
1286:../generate/sc_drivers/r_scifa/src/lld/r_rza2_scifa_lld.c **** 
1287:../generate/sc_drivers/r_scifa/src/lld/r_rza2_scifa_lld.c **** /**
1288:../generate/sc_drivers/r_scifa/src/lld/r_rza2_scifa_lld.c ****  * @brief R_SCIFA_GetWriteDataRegisterAddress return the read data register address
1289:../generate/sc_drivers/r_scifa/src/lld/r_rza2_scifa_lld.c ****  *
1290:../generate/sc_drivers/r_scifa/src/lld/r_rza2_scifa_lld.c ****  * @param[in] channel to get the FTDR register address for
1291:../generate/sc_drivers/r_scifa/src/lld/r_rza2_scifa_lld.c ****  *
1292:../generate/sc_drivers/r_scifa/src/lld/r_rza2_scifa_lld.c ****  * @retval the address of the FTDR register
1293:../generate/sc_drivers/r_scifa/src/lld/r_rza2_scifa_lld.c ****  * @retval NULL error
1294:../generate/sc_drivers/r_scifa/src/lld/r_rza2_scifa_lld.c ****  */
1295:../generate/sc_drivers/r_scifa/src/lld/r_rza2_scifa_lld.c **** void * R_SCIFA_GetWriteDataRegisterAddress (r_channel_t channel)
1296:../generate/sc_drivers/r_scifa/src/lld/r_rza2_scifa_lld.c **** {
 1750              		.loc 1 1296 0
 1751              		.cfi_startproc
 1752              		@ args = 0, pretend = 0, frame = 0
 1753              		@ frame_needed = 0, uses_anonymous_args = 0
 1754              		@ link register save eliminated.
 1755              	.LVL216:
1297:../generate/sc_drivers/r_scifa/src/lld/r_rza2_scifa_lld.c ****     if ((channel > R_PRV_CFG_SCIF_LAST_CHANNEL) || (channel < 0))
 1756              		.loc 1 1297 0
 1757 0000 7030EFE6 		uxtb	r3, r0
 1758 0004 050053E3 		cmp	r3, #5
 1759 0008 0400008A 		bhi	.L206
1298:../generate/sc_drivers/r_scifa/src/lld/r_rza2_scifa_lld.c ****     {
1299:../generate/sc_drivers/r_scifa/src/lld/r_rza2_scifa_lld.c ****         return (NULL);
1300:../generate/sc_drivers/r_scifa/src/lld/r_rza2_scifa_lld.c ****     }
1301:../generate/sc_drivers/r_scifa/src/lld/r_rza2_scifa_lld.c **** 
1302:../generate/sc_drivers/r_scifa/src/lld/r_rza2_scifa_lld.c ****     return (void *) &gsp_scifa[channel]->FTDR.BYTE;
 1760              		.loc 1 1302 0
 1761 000c 003000E3 		movw	r3, #:lower16:.LANCHOR0
 1762 0010 003040E3 		movt	r3, #:upper16:.LANCHOR0
 1763 0014 000193E7 		ldr	r0, [r3, r0, lsl #2]
 1764              	.LVL217:
 1765 0018 060080E2 		add	r0, r0, #6
 1766 001c 1EFF2FE1 		bx	lr
 1767              	.LVL218:
 1768              	.L206:
1299:../generate/sc_drivers/r_scifa/src/lld/r_rza2_scifa_lld.c ****     }
 1769              		.loc 1 1299 0
 1770 0020 0000A0E3 		mov	r0, #0
 1771              	.LVL219:
1303:../generate/sc_drivers/r_scifa/src/lld/r_rza2_scifa_lld.c **** }
 1772              		.loc 1 1303 0
 1773 0024 1EFF2FE1 		bx	lr
 1774              		.cfi_endproc
 1775              	.LFE28:
 1777              		.section	.text.R_SCIFA_StartTXI,"ax",%progbits
 1778              		.align	2
 1779              		.global	R_SCIFA_StartTXI
 1780              		.syntax unified
 1781              		.arm
 1782              		.fpu neon
 1784              	R_SCIFA_StartTXI:
 1785              	.LFB29:
1304:../generate/sc_drivers/r_scifa/src/lld/r_rza2_scifa_lld.c **** /**************************************************************************************************
1305:../generate/sc_drivers/r_scifa/src/lld/r_rza2_scifa_lld.c ****  * End of Function R_SCIFA_GetWriteDataRegisterAddress
1306:../generate/sc_drivers/r_scifa/src/lld/r_rza2_scifa_lld.c ****  **************************************************************************************************
1307:../generate/sc_drivers/r_scifa/src/lld/r_rza2_scifa_lld.c **** 
1308:../generate/sc_drivers/r_scifa/src/lld/r_rza2_scifa_lld.c **** /**
1309:../generate/sc_drivers/r_scifa/src/lld/r_rza2_scifa_lld.c ****  * @brief R_SCIFA_StartTXI Starts TXI interrupt for a given channel
1310:../generate/sc_drivers/r_scifa/src/lld/r_rza2_scifa_lld.c ****  *
1311:../generate/sc_drivers/r_scifa/src/lld/r_rza2_scifa_lld.c ****  * @param[in] channel: channel to start TXI for
1312:../generate/sc_drivers/r_scifa/src/lld/r_rza2_scifa_lld.c ****  *
1313:../generate/sc_drivers/r_scifa/src/lld/r_rza2_scifa_lld.c ****  * @retval  0 DRV_SUCCESS
1314:../generate/sc_drivers/r_scifa/src/lld/r_rza2_scifa_lld.c ****  * @retval -1 DRV_ERROR
1315:../generate/sc_drivers/r_scifa/src/lld/r_rza2_scifa_lld.c ****  */
1316:../generate/sc_drivers/r_scifa/src/lld/r_rza2_scifa_lld.c **** int_t R_SCIFA_StartTXI (r_channel_t channel)
1317:../generate/sc_drivers/r_scifa/src/lld/r_rza2_scifa_lld.c **** {
 1786              		.loc 1 1317 0
 1787              		.cfi_startproc
 1788              		@ args = 0, pretend = 0, frame = 0
 1789              		@ frame_needed = 0, uses_anonymous_args = 0
 1790              	.LVL220:
1318:../generate/sc_drivers/r_scifa/src/lld/r_rza2_scifa_lld.c ****     if ((channel > R_PRV_CFG_SCIF_LAST_CHANNEL) || (channel < 0))
 1791              		.loc 1 1318 0
 1792 0000 7030EFE6 		uxtb	r3, r0
 1793 0004 050053E3 		cmp	r3, #5
 1794 0008 0A00008A 		bhi	.L209
1317:../generate/sc_drivers/r_scifa/src/lld/r_rza2_scifa_lld.c ****     if ((channel > R_PRV_CFG_SCIF_LAST_CHANNEL) || (channel < 0))
 1795              		.loc 1 1317 0
 1796 000c 10402DE9 		push	{r4, lr}
 1797              		.cfi_def_cfa_offset 8
 1798              		.cfi_offset 4, -8
 1799              		.cfi_offset 14, -4
1319:../generate/sc_drivers/r_scifa/src/lld/r_rza2_scifa_lld.c ****     {
1320:../generate/sc_drivers/r_scifa/src/lld/r_rza2_scifa_lld.c ****         return (DRV_ERROR);
1321:../generate/sc_drivers/r_scifa/src/lld/r_rza2_scifa_lld.c ****     }
1322:../generate/sc_drivers/r_scifa/src/lld/r_rza2_scifa_lld.c **** 
1323:../generate/sc_drivers/r_scifa/src/lld/r_rza2_scifa_lld.c ****     /* enable transmit interrupt enable */
1324:../generate/sc_drivers/r_scifa/src/lld/r_rza2_scifa_lld.c ****     RZA_IO_RegWrite_16((volatile uint16_t *) &gsp_scifa[channel]->SCR.WORD, 1, SCIFA_SCR_TIE_SHIFT,
 1800              		.loc 1 1324 0
 1801 0010 003000E3 		movw	r3, #:lower16:.LANCHOR0
 1802 0014 003040E3 		movt	r3, #:upper16:.LANCHOR0
 1803 0018 000193E7 		ldr	r0, [r3, r0, lsl #2]
 1804              	.LVL221:
 1805 001c 8030A0E3 		mov	r3, #128
 1806 0020 0720A0E3 		mov	r2, #7
 1807 0024 0110A0E3 		mov	r1, #1
 1808 0028 040080E2 		add	r0, r0, #4
 1809 002c FEFFFFEB 		bl	RZA_IO_RegWrite_16
 1810              	.LVL222:
1325:../generate/sc_drivers/r_scifa/src/lld/r_rza2_scifa_lld.c **** 
1326:../generate/sc_drivers/r_scifa/src/lld/r_rza2_scifa_lld.c ****     return (DRV_SUCCESS);
 1811              		.loc 1 1326 0
 1812 0030 0000A0E3 		mov	r0, #0
 1813 0034 1080BDE8 		pop	{r4, pc}
 1814              	.LVL223:
 1815              	.L209:
 1816              		.cfi_def_cfa_offset 0
 1817              		.cfi_restore 4
 1818              		.cfi_restore 14
1320:../generate/sc_drivers/r_scifa/src/lld/r_rza2_scifa_lld.c ****     }
 1819              		.loc 1 1320 0
 1820 0038 0000E0E3 		mvn	r0, #0
 1821              	.LVL224:
 1822 003c 1EFF2FE1 		bx	lr
 1823              		.cfi_endproc
 1824              	.LFE29:
 1826              		.section	.text.R_SCIFA_PutByte,"ax",%progbits
 1827              		.align	2
 1828              		.global	R_SCIFA_PutByte
 1829              		.syntax unified
 1830              		.arm
 1831              		.fpu neon
 1833              	R_SCIFA_PutByte:
 1834              	.LFB30:
1327:../generate/sc_drivers/r_scifa/src/lld/r_rza2_scifa_lld.c **** }
1328:../generate/sc_drivers/r_scifa/src/lld/r_rza2_scifa_lld.c **** /**************************************************************************************************
1329:../generate/sc_drivers/r_scifa/src/lld/r_rza2_scifa_lld.c ****  * End of Function R_SCIFA_StartTXI
1330:../generate/sc_drivers/r_scifa/src/lld/r_rza2_scifa_lld.c ****  **************************************************************************************************
1331:../generate/sc_drivers/r_scifa/src/lld/r_rza2_scifa_lld.c **** 
1332:../generate/sc_drivers/r_scifa/src/lld/r_rza2_scifa_lld.c **** /**
1333:../generate/sc_drivers/r_scifa/src/lld/r_rza2_scifa_lld.c ****  * @brief R_SCIFA_PutByte puts a byte in a channel's FIFO
1334:../generate/sc_drivers/r_scifa/src/lld/r_rza2_scifa_lld.c ****  * This function will put a single byte into the FIFO of the
1335:../generate/sc_drivers/r_scifa/src/lld/r_rza2_scifa_lld.c ****  * channel given
1336:../generate/sc_drivers/r_scifa/src/lld/r_rza2_scifa_lld.c ****  *
1337:../generate/sc_drivers/r_scifa/src/lld/r_rza2_scifa_lld.c ****  * @param[in] channel: channel to put byte in FIFO
1338:../generate/sc_drivers/r_scifa/src/lld/r_rza2_scifa_lld.c ****  * @param[in] data: byte to place in FIFO
1339:../generate/sc_drivers/r_scifa/src/lld/r_rza2_scifa_lld.c ****  *
1340:../generate/sc_drivers/r_scifa/src/lld/r_rza2_scifa_lld.c ****  * @retval  0 DRV_SUCCESS
1341:../generate/sc_drivers/r_scifa/src/lld/r_rza2_scifa_lld.c ****  * @retval -1 DRV_ERROR
1342:../generate/sc_drivers/r_scifa/src/lld/r_rza2_scifa_lld.c ****  */
1343:../generate/sc_drivers/r_scifa/src/lld/r_rza2_scifa_lld.c **** int_t R_SCIFA_PutByte (r_channel_t channel, uint8_t data)
1344:../generate/sc_drivers/r_scifa/src/lld/r_rza2_scifa_lld.c **** {
 1835              		.loc 1 1344 0
 1836              		.cfi_startproc
 1837              		@ args = 0, pretend = 0, frame = 0
 1838              		@ frame_needed = 0, uses_anonymous_args = 0
 1839              	.LVL225:
1345:../generate/sc_drivers/r_scifa/src/lld/r_rza2_scifa_lld.c ****     if ((channel > R_PRV_CFG_SCIF_LAST_CHANNEL) || (channel < 0))
 1840              		.loc 1 1345 0
 1841 0000 7030EFE6 		uxtb	r3, r0
 1842 0004 050053E3 		cmp	r3, #5
 1843 0008 0900008A 		bhi	.L216
1344:../generate/sc_drivers/r_scifa/src/lld/r_rza2_scifa_lld.c ****     if ((channel > R_PRV_CFG_SCIF_LAST_CHANNEL) || (channel < 0))
 1844              		.loc 1 1344 0
 1845 000c 10402DE9 		push	{r4, lr}
 1846              		.cfi_def_cfa_offset 8
 1847              		.cfi_offset 4, -8
 1848              		.cfi_offset 14, -4
1346:../generate/sc_drivers/r_scifa/src/lld/r_rza2_scifa_lld.c ****     {
1347:../generate/sc_drivers/r_scifa/src/lld/r_rza2_scifa_lld.c ****         return (DRV_ERROR);
1348:../generate/sc_drivers/r_scifa/src/lld/r_rza2_scifa_lld.c ****     }
1349:../generate/sc_drivers/r_scifa/src/lld/r_rza2_scifa_lld.c **** 
1350:../generate/sc_drivers/r_scifa/src/lld/r_rza2_scifa_lld.c ****     /* Put byte in FIFO */
1351:../generate/sc_drivers/r_scifa/src/lld/r_rza2_scifa_lld.c ****     RZA_IO_RegWrite_8((volatile uint8_t *) &gsp_scifa[channel]->FTDR.BYTE, data, IOREG_NONSHIFT_ACC
 1849              		.loc 1 1351 0
 1850 0010 003000E3 		movw	r3, #:lower16:.LANCHOR0
 1851 0014 003040E3 		movt	r3, #:upper16:.LANCHOR0
 1852 0018 000193E7 		ldr	r0, [r3, r0, lsl #2]
 1853              	.LVL226:
 1854 001c 0030E0E3 		mvn	r3, #0
 1855 0020 0020A0E3 		mov	r2, #0
 1856 0024 060080E2 		add	r0, r0, #6
 1857 0028 FEFFFFEB 		bl	RZA_IO_RegWrite_8
 1858              	.LVL227:
1352:../generate/sc_drivers/r_scifa/src/lld/r_rza2_scifa_lld.c **** 
1353:../generate/sc_drivers/r_scifa/src/lld/r_rza2_scifa_lld.c ****     return (DRV_SUCCESS);
 1859              		.loc 1 1353 0
 1860 002c 0000A0E3 		mov	r0, #0
 1861 0030 1080BDE8 		pop	{r4, pc}
 1862              	.LVL228:
 1863              	.L216:
 1864              		.cfi_def_cfa_offset 0
 1865              		.cfi_restore 4
 1866              		.cfi_restore 14
1347:../generate/sc_drivers/r_scifa/src/lld/r_rza2_scifa_lld.c ****     }
 1867              		.loc 1 1347 0
 1868 0034 0000E0E3 		mvn	r0, #0
 1869              	.LVL229:
 1870 0038 1EFF2FE1 		bx	lr
 1871              		.cfi_endproc
 1872              	.LFE30:
 1874              		.section	.text.R_SCIFA_GetByte,"ax",%progbits
 1875              		.align	2
 1876              		.global	R_SCIFA_GetByte
 1877              		.syntax unified
 1878              		.arm
 1879              		.fpu neon
 1881              	R_SCIFA_GetByte:
 1882              	.LFB31:
1354:../generate/sc_drivers/r_scifa/src/lld/r_rza2_scifa_lld.c **** }
1355:../generate/sc_drivers/r_scifa/src/lld/r_rza2_scifa_lld.c **** /**************************************************************************************************
1356:../generate/sc_drivers/r_scifa/src/lld/r_rza2_scifa_lld.c ****  * End of Function R_SCIFA_PutByte
1357:../generate/sc_drivers/r_scifa/src/lld/r_rza2_scifa_lld.c ****  **************************************************************************************************
1358:../generate/sc_drivers/r_scifa/src/lld/r_rza2_scifa_lld.c **** 
1359:../generate/sc_drivers/r_scifa/src/lld/r_rza2_scifa_lld.c **** /**
1360:../generate/sc_drivers/r_scifa/src/lld/r_rza2_scifa_lld.c ****  * @brief R_SCIFA_GetByte gets 1 byte from a channel's FIFO
1361:../generate/sc_drivers/r_scifa/src/lld/r_rza2_scifa_lld.c ****  * This function retrieves a single byte from a channel's
1362:../generate/sc_drivers/r_scifa/src/lld/r_rza2_scifa_lld.c ****  * transmit FIFO
1363:../generate/sc_drivers/r_scifa/src/lld/r_rza2_scifa_lld.c ****  *
1364:../generate/sc_drivers/r_scifa/src/lld/r_rza2_scifa_lld.c ****  * @param[in] channel: channel to retrieve byte from FIFO
1365:../generate/sc_drivers/r_scifa/src/lld/r_rza2_scifa_lld.c ****  * @param[out] p_data: location to place retrieved byte
1366:../generate/sc_drivers/r_scifa/src/lld/r_rza2_scifa_lld.c ****  *
1367:../generate/sc_drivers/r_scifa/src/lld/r_rza2_scifa_lld.c ****  * @retval  0 DRV_SUCCESS
1368:../generate/sc_drivers/r_scifa/src/lld/r_rza2_scifa_lld.c ****  * @retval -1 DRV_ERROR
1369:../generate/sc_drivers/r_scifa/src/lld/r_rza2_scifa_lld.c ****  */
1370:../generate/sc_drivers/r_scifa/src/lld/r_rza2_scifa_lld.c **** int_t R_SCIFA_GetByte (r_channel_t channel, uint8_t *p_data)
1371:../generate/sc_drivers/r_scifa/src/lld/r_rza2_scifa_lld.c **** {
 1883              		.loc 1 1371 0
 1884              		.cfi_startproc
 1885              		@ args = 0, pretend = 0, frame = 0
 1886              		@ frame_needed = 0, uses_anonymous_args = 0
 1887              	.LVL230:
1372:../generate/sc_drivers/r_scifa/src/lld/r_rza2_scifa_lld.c ****     if ((channel > R_PRV_CFG_SCIF_LAST_CHANNEL) || (channel < 0))
 1888              		.loc 1 1372 0
 1889 0000 7030EFE6 		uxtb	r3, r0
 1890 0004 050053E3 		cmp	r3, #5
 1891 0008 0B00008A 		bhi	.L223
1371:../generate/sc_drivers/r_scifa/src/lld/r_rza2_scifa_lld.c ****     if ((channel > R_PRV_CFG_SCIF_LAST_CHANNEL) || (channel < 0))
 1892              		.loc 1 1371 0
 1893 000c 10402DE9 		push	{r4, lr}
 1894              		.cfi_def_cfa_offset 8
 1895              		.cfi_offset 4, -8
 1896              		.cfi_offset 14, -4
 1897 0010 0140A0E1 		mov	r4, r1
1373:../generate/sc_drivers/r_scifa/src/lld/r_rza2_scifa_lld.c ****     {
1374:../generate/sc_drivers/r_scifa/src/lld/r_rza2_scifa_lld.c ****         return (DRV_ERROR);
1375:../generate/sc_drivers/r_scifa/src/lld/r_rza2_scifa_lld.c ****     }
1376:../generate/sc_drivers/r_scifa/src/lld/r_rza2_scifa_lld.c **** 
1377:../generate/sc_drivers/r_scifa/src/lld/r_rza2_scifa_lld.c ****     /* get byte from FIFO */
1378:../generate/sc_drivers/r_scifa/src/lld/r_rza2_scifa_lld.c ****     *p_data = RZA_IO_RegRead_8((volatile uint8_t *) &gsp_scifa[channel]->FRDR.BYTE, IOREG_NONSHIFT_
 1898              		.loc 1 1378 0
 1899 0014 003000E3 		movw	r3, #:lower16:.LANCHOR0
 1900 0018 003040E3 		movt	r3, #:upper16:.LANCHOR0
 1901 001c 000193E7 		ldr	r0, [r3, r0, lsl #2]
 1902              	.LVL231:
 1903 0020 0020E0E3 		mvn	r2, #0
 1904 0024 0010A0E3 		mov	r1, #0
 1905              	.LVL232:
 1906 0028 0A0080E2 		add	r0, r0, #10
 1907 002c FEFFFFEB 		bl	RZA_IO_RegRead_8
 1908              	.LVL233:
 1909 0030 0000C4E5 		strb	r0, [r4]
1379:../generate/sc_drivers/r_scifa/src/lld/r_rza2_scifa_lld.c **** 
1380:../generate/sc_drivers/r_scifa/src/lld/r_rza2_scifa_lld.c ****     return (DRV_SUCCESS);
 1910              		.loc 1 1380 0
 1911 0034 0000A0E3 		mov	r0, #0
 1912 0038 1080BDE8 		pop	{r4, pc}
 1913              	.LVL234:
 1914              	.L223:
 1915              		.cfi_def_cfa_offset 0
 1916              		.cfi_restore 4
 1917              		.cfi_restore 14
1374:../generate/sc_drivers/r_scifa/src/lld/r_rza2_scifa_lld.c ****     }
 1918              		.loc 1 1374 0
 1919 003c 0000E0E3 		mvn	r0, #0
 1920              	.LVL235:
 1921 0040 1EFF2FE1 		bx	lr
 1922              		.cfi_endproc
 1923              	.LFE31:
 1925              		.section	.text.R_SCIFA_IsTxFifoFull,"ax",%progbits
 1926              		.align	2
 1927              		.global	R_SCIFA_IsTxFifoFull
 1928              		.syntax unified
 1929              		.arm
 1930              		.fpu neon
 1932              	R_SCIFA_IsTxFifoFull:
 1933              	.LFB32:
1381:../generate/sc_drivers/r_scifa/src/lld/r_rza2_scifa_lld.c **** }
1382:../generate/sc_drivers/r_scifa/src/lld/r_rza2_scifa_lld.c **** /**************************************************************************************************
1383:../generate/sc_drivers/r_scifa/src/lld/r_rza2_scifa_lld.c ****  * End of Function R_SCIFA_GetByte
1384:../generate/sc_drivers/r_scifa/src/lld/r_rza2_scifa_lld.c ****  **************************************************************************************************
1385:../generate/sc_drivers/r_scifa/src/lld/r_rza2_scifa_lld.c **** 
1386:../generate/sc_drivers/r_scifa/src/lld/r_rza2_scifa_lld.c **** /**
1387:../generate/sc_drivers/r_scifa/src/lld/r_rza2_scifa_lld.c ****  * @brief R_SCIFA_IsTxFifoFull Checks for space in the TX FIFO
1388:../generate/sc_drivers/r_scifa/src/lld/r_rza2_scifa_lld.c ****  * This function checks the current amount of bytes in the TX FIFO
1389:../generate/sc_drivers/r_scifa/src/lld/r_rza2_scifa_lld.c ****  * it will then return false if space in the FIFO, true if it's full
1390:../generate/sc_drivers/r_scifa/src/lld/r_rza2_scifa_lld.c ****  *
1391:../generate/sc_drivers/r_scifa/src/lld/r_rza2_scifa_lld.c ****  * @param[in] channel: channel to check TX FIFO for
1392:../generate/sc_drivers/r_scifa/src/lld/r_rza2_scifa_lld.c ****  * @param[out] p_fifo_full: false if space in the FIFO, true if it's full
1393:../generate/sc_drivers/r_scifa/src/lld/r_rza2_scifa_lld.c ****  *
1394:../generate/sc_drivers/r_scifa/src/lld/r_rza2_scifa_lld.c ****  * @retval  0 DRV_SUCCESS
1395:../generate/sc_drivers/r_scifa/src/lld/r_rza2_scifa_lld.c ****  * @retval -1 DRV_ERROR
1396:../generate/sc_drivers/r_scifa/src/lld/r_rza2_scifa_lld.c ****  */
1397:../generate/sc_drivers/r_scifa/src/lld/r_rza2_scifa_lld.c **** int_t R_SCIFA_IsTxFifoFull(r_channel_t channel, bool_t *p_fifo_full)
1398:../generate/sc_drivers/r_scifa/src/lld/r_rza2_scifa_lld.c **** {
 1934              		.loc 1 1398 0
 1935              		.cfi_startproc
 1936              		@ args = 0, pretend = 0, frame = 0
 1937              		@ frame_needed = 0, uses_anonymous_args = 0
 1938              	.LVL236:
1399:../generate/sc_drivers/r_scifa/src/lld/r_rza2_scifa_lld.c ****     uint16_t fifo_bytes;
1400:../generate/sc_drivers/r_scifa/src/lld/r_rza2_scifa_lld.c **** 
1401:../generate/sc_drivers/r_scifa/src/lld/r_rza2_scifa_lld.c ****     if ((channel > R_PRV_CFG_SCIF_LAST_CHANNEL) || (channel < 0))
 1939              		.loc 1 1401 0
 1940 0000 7030EFE6 		uxtb	r3, r0
 1941 0004 050053E3 		cmp	r3, #5
 1942 0008 1100008A 		bhi	.L231
1398:../generate/sc_drivers/r_scifa/src/lld/r_rza2_scifa_lld.c ****     uint16_t fifo_bytes;
 1943              		.loc 1 1398 0
 1944 000c 10402DE9 		push	{r4, lr}
 1945              		.cfi_def_cfa_offset 8
 1946              		.cfi_offset 4, -8
 1947              		.cfi_offset 14, -4
 1948 0010 0140A0E1 		mov	r4, r1
1402:../generate/sc_drivers/r_scifa/src/lld/r_rza2_scifa_lld.c ****     {
1403:../generate/sc_drivers/r_scifa/src/lld/r_rza2_scifa_lld.c ****         return (DRV_ERROR);
1404:../generate/sc_drivers/r_scifa/src/lld/r_rza2_scifa_lld.c ****     }
1405:../generate/sc_drivers/r_scifa/src/lld/r_rza2_scifa_lld.c **** 
1406:../generate/sc_drivers/r_scifa/src/lld/r_rza2_scifa_lld.c ****     /* get the number of bytes in the FIFO */
1407:../generate/sc_drivers/r_scifa/src/lld/r_rza2_scifa_lld.c ****     fifo_bytes = RZA_IO_RegRead_16((volatile uint16_t *) &gsp_scifa[channel]->FDR.WORD, SCIFA_FDR_T
 1949              		.loc 1 1407 0
 1950 0014 003000E3 		movw	r3, #:lower16:.LANCHOR0
 1951 0018 003040E3 		movt	r3, #:upper16:.LANCHOR0
 1952 001c 000193E7 		ldr	r0, [r3, r0, lsl #2]
 1953              	.LVL237:
 1954 0020 1F2CA0E3 		mov	r2, #7936
 1955 0024 0810A0E3 		mov	r1, #8
 1956              	.LVL238:
 1957 0028 0E0080E2 		add	r0, r0, #14
 1958 002c FEFFFFEB 		bl	RZA_IO_RegRead_16
 1959              	.LVL239:
1408:../generate/sc_drivers/r_scifa/src/lld/r_rza2_scifa_lld.c **** 
1409:../generate/sc_drivers/r_scifa/src/lld/r_rza2_scifa_lld.c ****     if (R_PRV_TX_FIFO_LENGTH == fifo_bytes)
 1960              		.loc 1 1409 0
 1961 0030 100050E3 		cmp	r0, #16
 1962 0034 0200000A 		beq	.L236
1410:../generate/sc_drivers/r_scifa/src/lld/r_rza2_scifa_lld.c ****     {
1411:../generate/sc_drivers/r_scifa/src/lld/r_rza2_scifa_lld.c ****         *p_fifo_full = true;
1412:../generate/sc_drivers/r_scifa/src/lld/r_rza2_scifa_lld.c ****     }
1413:../generate/sc_drivers/r_scifa/src/lld/r_rza2_scifa_lld.c ****     else
1414:../generate/sc_drivers/r_scifa/src/lld/r_rza2_scifa_lld.c ****     {
1415:../generate/sc_drivers/r_scifa/src/lld/r_rza2_scifa_lld.c ****         *p_fifo_full = false;
 1963              		.loc 1 1415 0
 1964 0038 0000A0E3 		mov	r0, #0
 1965              	.LVL240:
 1966 003c 000084E5 		str	r0, [r4]
 1967 0040 1080BDE8 		pop	{r4, pc}
 1968              	.LVL241:
 1969              	.L236:
1411:../generate/sc_drivers/r_scifa/src/lld/r_rza2_scifa_lld.c ****     }
 1970              		.loc 1 1411 0
 1971 0044 0130A0E3 		mov	r3, #1
 1972 0048 003084E5 		str	r3, [r4]
1416:../generate/sc_drivers/r_scifa/src/lld/r_rza2_scifa_lld.c ****     }
1417:../generate/sc_drivers/r_scifa/src/lld/r_rza2_scifa_lld.c **** 
1418:../generate/sc_drivers/r_scifa/src/lld/r_rza2_scifa_lld.c ****     return (DRV_SUCCESS);
 1973              		.loc 1 1418 0
 1974 004c 0000A0E3 		mov	r0, #0
 1975              	.LVL242:
 1976 0050 1080BDE8 		pop	{r4, pc}
 1977              	.LVL243:
 1978              	.L231:
 1979              		.cfi_def_cfa_offset 0
 1980              		.cfi_restore 4
 1981              		.cfi_restore 14
1403:../generate/sc_drivers/r_scifa/src/lld/r_rza2_scifa_lld.c ****     }
 1982              		.loc 1 1403 0
 1983 0054 0000E0E3 		mvn	r0, #0
 1984              	.LVL244:
 1985 0058 1EFF2FE1 		bx	lr
 1986              		.cfi_endproc
 1987              	.LFE32:
 1989              		.section	.text.R_SCIFA_SetModemControl,"ax",%progbits
 1990              		.align	2
 1991              		.global	R_SCIFA_SetModemControl
 1992              		.syntax unified
 1993              		.arm
 1994              		.fpu neon
 1996              	R_SCIFA_SetModemControl:
 1997              	.LFB34:
1419:../generate/sc_drivers/r_scifa/src/lld/r_rza2_scifa_lld.c **** }
1420:../generate/sc_drivers/r_scifa/src/lld/r_rza2_scifa_lld.c **** /**************************************************************************************************
1421:../generate/sc_drivers/r_scifa/src/lld/r_rza2_scifa_lld.c ****  * End of Function R_SCIFA_IsTxFifoFull
1422:../generate/sc_drivers/r_scifa/src/lld/r_rza2_scifa_lld.c ****  **************************************************************************************************
1423:../generate/sc_drivers/r_scifa/src/lld/r_rza2_scifa_lld.c **** 
1424:../generate/sc_drivers/r_scifa/src/lld/r_rza2_scifa_lld.c **** /**
1425:../generate/sc_drivers/r_scifa/src/lld/r_rza2_scifa_lld.c ****  * @brief R_SCIFA_SetExtendedCfg sets extended device settings
1426:../generate/sc_drivers/r_scifa/src/lld/r_rza2_scifa_lld.c ****  * This function sets the extended device settings,
1427:../generate/sc_drivers/r_scifa/src/lld/r_rza2_scifa_lld.c ****  * these settings are usually device
1428:../generate/sc_drivers/r_scifa/src/lld/r_rza2_scifa_lld.c ****  * specific or not considered commonly used
1429:../generate/sc_drivers/r_scifa/src/lld/r_rza2_scifa_lld.c ****  *
1430:../generate/sc_drivers/r_scifa/src/lld/r_rza2_scifa_lld.c ****  * @param[in] channel: channel to set extended settings for
1431:../generate/sc_drivers/r_scifa/src/lld/r_rza2_scifa_lld.c ****  * @param[in] p_ext_cfg: extended Settings to be set
1432:../generate/sc_drivers/r_scifa/src/lld/r_rza2_scifa_lld.c ****  *
1433:../generate/sc_drivers/r_scifa/src/lld/r_rza2_scifa_lld.c ****  * @retval  0 DRV_SUCCESS
1434:../generate/sc_drivers/r_scifa/src/lld/r_rza2_scifa_lld.c ****  * @retval -1 DRV_ERROR
1435:../generate/sc_drivers/r_scifa/src/lld/r_rza2_scifa_lld.c ****  */
1436:../generate/sc_drivers/r_scifa/src/lld/r_rza2_scifa_lld.c **** int_t R_SCIFA_SetExtendedCfg(r_channel_t channel, const scifa_config_t *p_ext_cfg)
1437:../generate/sc_drivers/r_scifa/src/lld/r_rza2_scifa_lld.c **** {
1438:../generate/sc_drivers/r_scifa/src/lld/r_rza2_scifa_lld.c ****     int_t ret = DRV_SUCCESS;
1439:../generate/sc_drivers/r_scifa/src/lld/r_rza2_scifa_lld.c **** 
1440:../generate/sc_drivers/r_scifa/src/lld/r_rza2_scifa_lld.c ****     if ((channel > R_PRV_CFG_SCIF_LAST_CHANNEL) || (channel < 0))
1441:../generate/sc_drivers/r_scifa/src/lld/r_rza2_scifa_lld.c ****     {
1442:../generate/sc_drivers/r_scifa/src/lld/r_rza2_scifa_lld.c ****         ret = DRV_ERROR;
1443:../generate/sc_drivers/r_scifa/src/lld/r_rza2_scifa_lld.c ****     }
1444:../generate/sc_drivers/r_scifa/src/lld/r_rza2_scifa_lld.c **** 
1445:../generate/sc_drivers/r_scifa/src/lld/r_rza2_scifa_lld.c ****     /* set clock */
1446:../generate/sc_drivers/r_scifa/src/lld/r_rza2_scifa_lld.c ****     if (DRV_SUCCESS == ret)
1447:../generate/sc_drivers/r_scifa/src/lld/r_rza2_scifa_lld.c ****     {
1448:../generate/sc_drivers/r_scifa/src/lld/r_rza2_scifa_lld.c ****         ret = R_SCIFA_SetClock(channel, p_ext_cfg->clk_enable );
1449:../generate/sc_drivers/r_scifa/src/lld/r_rza2_scifa_lld.c ****     }
1450:../generate/sc_drivers/r_scifa/src/lld/r_rza2_scifa_lld.c **** 
1451:../generate/sc_drivers/r_scifa/src/lld/r_rza2_scifa_lld.c ****     if (DRV_SUCCESS == ret)
1452:../generate/sc_drivers/r_scifa/src/lld/r_rza2_scifa_lld.c ****     {
1453:../generate/sc_drivers/r_scifa/src/lld/r_rza2_scifa_lld.c ****         /* set noise cancellation */
1454:../generate/sc_drivers/r_scifa/src/lld/r_rza2_scifa_lld.c ****         ret = R_SCIFA_SetNoiseCanceller(channel, p_ext_cfg->noise_canceller);
1455:../generate/sc_drivers/r_scifa/src/lld/r_rza2_scifa_lld.c ****     }
1456:../generate/sc_drivers/r_scifa/src/lld/r_rza2_scifa_lld.c **** 
1457:../generate/sc_drivers/r_scifa/src/lld/r_rza2_scifa_lld.c ****     /* set modem */
1458:../generate/sc_drivers/r_scifa/src/lld/r_rza2_scifa_lld.c ****     if (DRV_SUCCESS == ret)
1459:../generate/sc_drivers/r_scifa/src/lld/r_rza2_scifa_lld.c ****     {
1460:../generate/sc_drivers/r_scifa/src/lld/r_rza2_scifa_lld.c ****         ret = R_SCIFA_SetModemControl(channel, p_ext_cfg->modem_control);
1461:../generate/sc_drivers/r_scifa/src/lld/r_rza2_scifa_lld.c ****     }
1462:../generate/sc_drivers/r_scifa/src/lld/r_rza2_scifa_lld.c **** 
1463:../generate/sc_drivers/r_scifa/src/lld/r_rza2_scifa_lld.c ****     /* set FIFO */
1464:../generate/sc_drivers/r_scifa/src/lld/r_rza2_scifa_lld.c ****     if (DRV_SUCCESS == ret)
1465:../generate/sc_drivers/r_scifa/src/lld/r_rza2_scifa_lld.c ****     {
1466:../generate/sc_drivers/r_scifa/src/lld/r_rza2_scifa_lld.c ****         ret = R_SCIFA_SetFIFOThreshold(channel, p_ext_cfg->tftc, p_ext_cfg->rftc);
1467:../generate/sc_drivers/r_scifa/src/lld/r_rza2_scifa_lld.c ****     }
1468:../generate/sc_drivers/r_scifa/src/lld/r_rza2_scifa_lld.c **** 
1469:../generate/sc_drivers/r_scifa/src/lld/r_rza2_scifa_lld.c ****     return (ret);
1470:../generate/sc_drivers/r_scifa/src/lld/r_rza2_scifa_lld.c **** }
1471:../generate/sc_drivers/r_scifa/src/lld/r_rza2_scifa_lld.c **** /**************************************************************************************************
1472:../generate/sc_drivers/r_scifa/src/lld/r_rza2_scifa_lld.c ****  * End of Function R_SCIFA_SetExtendedCfg
1473:../generate/sc_drivers/r_scifa/src/lld/r_rza2_scifa_lld.c ****  **************************************************************************************************
1474:../generate/sc_drivers/r_scifa/src/lld/r_rza2_scifa_lld.c **** 
1475:../generate/sc_drivers/r_scifa/src/lld/r_rza2_scifa_lld.c **** /**
1476:../generate/sc_drivers/r_scifa/src/lld/r_rza2_scifa_lld.c ****  * @brief Sets up modem settings for a channel
1477:../generate/sc_drivers/r_scifa/src/lld/r_rza2_scifa_lld.c ****  *
1478:../generate/sc_drivers/r_scifa/src/lld/r_rza2_scifa_lld.c ****  * @param[in] channel: channel to configure modem settings for
1479:../generate/sc_drivers/r_scifa/src/lld/r_rza2_scifa_lld.c ****  * @param[in] modem: modem setting for the channel
1480:../generate/sc_drivers/r_scifa/src/lld/r_rza2_scifa_lld.c ****  *
1481:../generate/sc_drivers/r_scifa/src/lld/r_rza2_scifa_lld.c ****  * @retval  0 DRV_SUCCESS
1482:../generate/sc_drivers/r_scifa/src/lld/r_rza2_scifa_lld.c ****  * @retval -1 DRV_ERROR 
1483:../generate/sc_drivers/r_scifa/src/lld/r_rza2_scifa_lld.c ****  */
1484:../generate/sc_drivers/r_scifa/src/lld/r_rza2_scifa_lld.c **** int_t R_SCIFA_SetModemControl(r_channel_t channel, scifa_mce_t modem)
1485:../generate/sc_drivers/r_scifa/src/lld/r_rza2_scifa_lld.c **** {
 1998              		.loc 1 1485 0
 1999              		.cfi_startproc
 2000              		@ args = 0, pretend = 0, frame = 0
 2001              		@ frame_needed = 0, uses_anonymous_args = 0
 2002              	.LVL245:
1486:../generate/sc_drivers/r_scifa/src/lld/r_rza2_scifa_lld.c ****     if ((channel > R_PRV_CFG_SCIF_LAST_CHANNEL) || (channel < 0))
 2003              		.loc 1 1486 0
 2004 0000 7030EFE6 		uxtb	r3, r0
 2005 0004 050053E3 		cmp	r3, #5
 2006 0008 0900008A 		bhi	.L239
1485:../generate/sc_drivers/r_scifa/src/lld/r_rza2_scifa_lld.c ****     if ((channel > R_PRV_CFG_SCIF_LAST_CHANNEL) || (channel < 0))
 2007              		.loc 1 1485 0
 2008 000c 10402DE9 		push	{r4, lr}
 2009              		.cfi_def_cfa_offset 8
 2010              		.cfi_offset 4, -8
 2011              		.cfi_offset 14, -4
1487:../generate/sc_drivers/r_scifa/src/lld/r_rza2_scifa_lld.c ****     {
1488:../generate/sc_drivers/r_scifa/src/lld/r_rza2_scifa_lld.c ****         return (DRV_ERROR);
1489:../generate/sc_drivers/r_scifa/src/lld/r_rza2_scifa_lld.c ****     }
1490:../generate/sc_drivers/r_scifa/src/lld/r_rza2_scifa_lld.c **** 
1491:../generate/sc_drivers/r_scifa/src/lld/r_rza2_scifa_lld.c ****     /* Modem Control (RTS/CTS) enable/disable */
1492:../generate/sc_drivers/r_scifa/src/lld/r_rza2_scifa_lld.c ****     RZA_IO_RegWrite_16((volatile uint16_t *) &gsp_scifa[channel]->FCR.WORD, modem, SCIFA_FCR_MCE_SH
 2012              		.loc 1 1492 0
 2013 0010 003000E3 		movw	r3, #:lower16:.LANCHOR0
 2014 0014 003040E3 		movt	r3, #:upper16:.LANCHOR0
 2015 0018 000193E7 		ldr	r0, [r3, r0, lsl #2]
 2016              	.LVL246:
 2017 001c 0830A0E3 		mov	r3, #8
 2018 0020 0320A0E3 		mov	r2, #3
 2019 0024 0C0080E2 		add	r0, r0, #12
 2020 0028 FEFFFFEB 		bl	RZA_IO_RegWrite_16
 2021              	.LVL247:
1493:../generate/sc_drivers/r_scifa/src/lld/r_rza2_scifa_lld.c **** 
1494:../generate/sc_drivers/r_scifa/src/lld/r_rza2_scifa_lld.c ****     return (DRV_SUCCESS);
 2022              		.loc 1 1494 0
 2023 002c 0000A0E3 		mov	r0, #0
 2024 0030 1080BDE8 		pop	{r4, pc}
 2025              	.LVL248:
 2026              	.L239:
 2027              		.cfi_def_cfa_offset 0
 2028              		.cfi_restore 4
 2029              		.cfi_restore 14
1488:../generate/sc_drivers/r_scifa/src/lld/r_rza2_scifa_lld.c ****     }
 2030              		.loc 1 1488 0
 2031 0034 0000E0E3 		mvn	r0, #0
 2032              	.LVL249:
 2033 0038 1EFF2FE1 		bx	lr
 2034              		.cfi_endproc
 2035              	.LFE34:
 2037              		.section	.text.R_SCIFA_SetNoiseCanceller,"ax",%progbits
 2038              		.align	2
 2039              		.global	R_SCIFA_SetNoiseCanceller
 2040              		.syntax unified
 2041              		.arm
 2042              		.fpu neon
 2044              	R_SCIFA_SetNoiseCanceller:
 2045              	.LFB35:
1495:../generate/sc_drivers/r_scifa/src/lld/r_rza2_scifa_lld.c **** }
1496:../generate/sc_drivers/r_scifa/src/lld/r_rza2_scifa_lld.c **** /**************************************************************************************************
1497:../generate/sc_drivers/r_scifa/src/lld/r_rza2_scifa_lld.c ****  * End of Function R_SCIFA_SetModemControl
1498:../generate/sc_drivers/r_scifa/src/lld/r_rza2_scifa_lld.c ****  **************************************************************************************************
1499:../generate/sc_drivers/r_scifa/src/lld/r_rza2_scifa_lld.c **** 
1500:../generate/sc_drivers/r_scifa/src/lld/r_rza2_scifa_lld.c **** /**
1501:../generate/sc_drivers/r_scifa/src/lld/r_rza2_scifa_lld.c ****  * @brief Sets noise cancellation
1502:../generate/sc_drivers/r_scifa/src/lld/r_rza2_scifa_lld.c ****  *
1503:../generate/sc_drivers/r_scifa/src/lld/r_rza2_scifa_lld.c ****  * @param[in] channel: channel to set the noise cancellation for
1504:../generate/sc_drivers/r_scifa/src/lld/r_rza2_scifa_lld.c ****  * @param[in] noise_cancellation: noise cancellation setting
1505:../generate/sc_drivers/r_scifa/src/lld/r_rza2_scifa_lld.c ****  *
1506:../generate/sc_drivers/r_scifa/src/lld/r_rza2_scifa_lld.c ****  * @retval  0 DRV_SUCCESS
1507:../generate/sc_drivers/r_scifa/src/lld/r_rza2_scifa_lld.c ****  * @retval -1 DRV_ERROR 
1508:../generate/sc_drivers/r_scifa/src/lld/r_rza2_scifa_lld.c ****  */
1509:../generate/sc_drivers/r_scifa/src/lld/r_rza2_scifa_lld.c **** int_t R_SCIFA_SetNoiseCanceller(r_channel_t channel, scifa_nfen_t noise_cancellation)
1510:../generate/sc_drivers/r_scifa/src/lld/r_rza2_scifa_lld.c **** {
 2046              		.loc 1 1510 0
 2047              		.cfi_startproc
 2048              		@ args = 0, pretend = 0, frame = 0
 2049              		@ frame_needed = 0, uses_anonymous_args = 0
 2050              	.LVL250:
1511:../generate/sc_drivers/r_scifa/src/lld/r_rza2_scifa_lld.c ****     if ((channel > R_PRV_CFG_SCIF_LAST_CHANNEL) || (channel < 0))
 2051              		.loc 1 1511 0
 2052 0000 7030EFE6 		uxtb	r3, r0
 2053 0004 050053E3 		cmp	r3, #5
 2054 0008 0900008A 		bhi	.L246
1510:../generate/sc_drivers/r_scifa/src/lld/r_rza2_scifa_lld.c ****     if ((channel > R_PRV_CFG_SCIF_LAST_CHANNEL) || (channel < 0))
 2055              		.loc 1 1510 0
 2056 000c 10402DE9 		push	{r4, lr}
 2057              		.cfi_def_cfa_offset 8
 2058              		.cfi_offset 4, -8
 2059              		.cfi_offset 14, -4
1512:../generate/sc_drivers/r_scifa/src/lld/r_rza2_scifa_lld.c ****     {
1513:../generate/sc_drivers/r_scifa/src/lld/r_rza2_scifa_lld.c ****         return (DRV_ERROR);
1514:../generate/sc_drivers/r_scifa/src/lld/r_rza2_scifa_lld.c ****     }
1515:../generate/sc_drivers/r_scifa/src/lld/r_rza2_scifa_lld.c **** 
1516:../generate/sc_drivers/r_scifa/src/lld/r_rza2_scifa_lld.c ****     /* Noise canceller enable/disable */
1517:../generate/sc_drivers/r_scifa/src/lld/r_rza2_scifa_lld.c ****     RZA_IO_RegWrite_8((volatile uint8_t *) &gsp_scifa[channel]->SEMR.BYTE, noise_cancellation, SCIF
 2060              		.loc 1 1517 0
 2061 0010 003000E3 		movw	r3, #:lower16:.LANCHOR0
 2062 0014 003040E3 		movt	r3, #:upper16:.LANCHOR0
 2063 0018 000193E7 		ldr	r0, [r3, r0, lsl #2]
 2064              	.LVL251:
 2065 001c 0430A0E3 		mov	r3, #4
 2066 0020 0220A0E3 		mov	r2, #2
 2067 0024 140080E2 		add	r0, r0, #20
 2068 0028 FEFFFFEB 		bl	RZA_IO_RegWrite_8
 2069              	.LVL252:
1518:../generate/sc_drivers/r_scifa/src/lld/r_rza2_scifa_lld.c **** 
1519:../generate/sc_drivers/r_scifa/src/lld/r_rza2_scifa_lld.c ****     return (DRV_SUCCESS);
 2070              		.loc 1 1519 0
 2071 002c 0000A0E3 		mov	r0, #0
 2072 0030 1080BDE8 		pop	{r4, pc}
 2073              	.LVL253:
 2074              	.L246:
 2075              		.cfi_def_cfa_offset 0
 2076              		.cfi_restore 4
 2077              		.cfi_restore 14
1513:../generate/sc_drivers/r_scifa/src/lld/r_rza2_scifa_lld.c ****     }
 2078              		.loc 1 1513 0
 2079 0034 0000E0E3 		mvn	r0, #0
 2080              	.LVL254:
 2081 0038 1EFF2FE1 		bx	lr
 2082              		.cfi_endproc
 2083              	.LFE35:
 2085              		.section	.text.R_SCIFA_SetClock,"ax",%progbits
 2086              		.align	2
 2087              		.global	R_SCIFA_SetClock
 2088              		.syntax unified
 2089              		.arm
 2090              		.fpu neon
 2092              	R_SCIFA_SetClock:
 2093              	.LFB36:
1520:../generate/sc_drivers/r_scifa/src/lld/r_rza2_scifa_lld.c **** }
1521:../generate/sc_drivers/r_scifa/src/lld/r_rza2_scifa_lld.c **** /**************************************************************************************************
1522:../generate/sc_drivers/r_scifa/src/lld/r_rza2_scifa_lld.c ****  * End of Function R_SCIFA_SetNoiseCanceller
1523:../generate/sc_drivers/r_scifa/src/lld/r_rza2_scifa_lld.c ****  **************************************************************************************************
1524:../generate/sc_drivers/r_scifa/src/lld/r_rza2_scifa_lld.c **** 
1525:../generate/sc_drivers/r_scifa/src/lld/r_rza2_scifa_lld.c **** /**
1526:../generate/sc_drivers/r_scifa/src/lld/r_rza2_scifa_lld.c ****  * @brief Sets the clock source for a channel
1527:../generate/sc_drivers/r_scifa/src/lld/r_rza2_scifa_lld.c ****  *
1528:../generate/sc_drivers/r_scifa/src/lld/r_rza2_scifa_lld.c ****  * @param[in] channel: channel to set clock source for
1529:../generate/sc_drivers/r_scifa/src/lld/r_rza2_scifa_lld.c ****  * @param[in] desired_clock: clock setting for channel
1530:../generate/sc_drivers/r_scifa/src/lld/r_rza2_scifa_lld.c ****  *
1531:../generate/sc_drivers/r_scifa/src/lld/r_rza2_scifa_lld.c ****  * @retval  0 DRV_SUCCESS
1532:../generate/sc_drivers/r_scifa/src/lld/r_rza2_scifa_lld.c ****  * @retval -1 DRV_ERROR 
1533:../generate/sc_drivers/r_scifa/src/lld/r_rza2_scifa_lld.c ****  */
1534:../generate/sc_drivers/r_scifa/src/lld/r_rza2_scifa_lld.c **** int_t R_SCIFA_SetClock(r_channel_t channel, scifa_clk_enable_t desired_clock)
1535:../generate/sc_drivers/r_scifa/src/lld/r_rza2_scifa_lld.c **** {
 2094              		.loc 1 1535 0
 2095              		.cfi_startproc
 2096              		@ args = 0, pretend = 0, frame = 0
 2097              		@ frame_needed = 0, uses_anonymous_args = 0
 2098              	.LVL255:
1536:../generate/sc_drivers/r_scifa/src/lld/r_rza2_scifa_lld.c ****     if ((channel > R_PRV_CFG_SCIF_LAST_CHANNEL) || (channel < 0))
 2099              		.loc 1 1536 0
 2100 0000 7030EFE6 		uxtb	r3, r0
 2101 0004 050053E3 		cmp	r3, #5
 2102 0008 0900008A 		bhi	.L253
1535:../generate/sc_drivers/r_scifa/src/lld/r_rza2_scifa_lld.c ****     if ((channel > R_PRV_CFG_SCIF_LAST_CHANNEL) || (channel < 0))
 2103              		.loc 1 1535 0
 2104 000c 10402DE9 		push	{r4, lr}
 2105              		.cfi_def_cfa_offset 8
 2106              		.cfi_offset 4, -8
 2107              		.cfi_offset 14, -4
1537:../generate/sc_drivers/r_scifa/src/lld/r_rza2_scifa_lld.c ****     {
1538:../generate/sc_drivers/r_scifa/src/lld/r_rza2_scifa_lld.c ****         return (DRV_ERROR);
1539:../generate/sc_drivers/r_scifa/src/lld/r_rza2_scifa_lld.c ****     }
1540:../generate/sc_drivers/r_scifa/src/lld/r_rza2_scifa_lld.c **** 
1541:../generate/sc_drivers/r_scifa/src/lld/r_rza2_scifa_lld.c ****     /* Clock enable mode */
1542:../generate/sc_drivers/r_scifa/src/lld/r_rza2_scifa_lld.c ****     RZA_IO_RegWrite_16((volatile uint16_t *) &gsp_scifa[channel]->SCR.WORD, desired_clock, SCIFA_SC
 2108              		.loc 1 1542 0
 2109 0010 003000E3 		movw	r3, #:lower16:.LANCHOR0
 2110 0014 003040E3 		movt	r3, #:upper16:.LANCHOR0
 2111 0018 000193E7 		ldr	r0, [r3, r0, lsl #2]
 2112              	.LVL256:
 2113 001c 0330A0E3 		mov	r3, #3
 2114 0020 0020A0E3 		mov	r2, #0
 2115 0024 040080E2 		add	r0, r0, #4
 2116 0028 FEFFFFEB 		bl	RZA_IO_RegWrite_16
 2117              	.LVL257:
1543:../generate/sc_drivers/r_scifa/src/lld/r_rza2_scifa_lld.c **** 
1544:../generate/sc_drivers/r_scifa/src/lld/r_rza2_scifa_lld.c ****     return (DRV_SUCCESS);
 2118              		.loc 1 1544 0
 2119 002c 0000A0E3 		mov	r0, #0
 2120 0030 1080BDE8 		pop	{r4, pc}
 2121              	.LVL258:
 2122              	.L253:
 2123              		.cfi_def_cfa_offset 0
 2124              		.cfi_restore 4
 2125              		.cfi_restore 14
1538:../generate/sc_drivers/r_scifa/src/lld/r_rza2_scifa_lld.c ****     }
 2126              		.loc 1 1538 0
 2127 0034 0000E0E3 		mvn	r0, #0
 2128              	.LVL259:
 2129 0038 1EFF2FE1 		bx	lr
 2130              		.cfi_endproc
 2131              	.LFE36:
 2133              		.section	.text.R_SCIFA_SetFIFOThreshold,"ax",%progbits
 2134              		.align	2
 2135              		.global	R_SCIFA_SetFIFOThreshold
 2136              		.syntax unified
 2137              		.arm
 2138              		.fpu neon
 2140              	R_SCIFA_SetFIFOThreshold:
 2141              	.LFB37:
1545:../generate/sc_drivers/r_scifa/src/lld/r_rza2_scifa_lld.c **** }
1546:../generate/sc_drivers/r_scifa/src/lld/r_rza2_scifa_lld.c **** /**************************************************************************************************
1547:../generate/sc_drivers/r_scifa/src/lld/r_rza2_scifa_lld.c ****  * End of Function R_SCIFA_SetClock
1548:../generate/sc_drivers/r_scifa/src/lld/r_rza2_scifa_lld.c ****  **************************************************************************************************
1549:../generate/sc_drivers/r_scifa/src/lld/r_rza2_scifa_lld.c **** 
1550:../generate/sc_drivers/r_scifa/src/lld/r_rza2_scifa_lld.c **** /**
1551:../generate/sc_drivers/r_scifa/src/lld/r_rza2_scifa_lld.c ****  * @brief sets up FIFO control
1552:../generate/sc_drivers/r_scifa/src/lld/r_rza2_scifa_lld.c ****  *
1553:../generate/sc_drivers/r_scifa/src/lld/r_rza2_scifa_lld.c ****  * @param[in] channel: channel to set FIFO for
1554:../generate/sc_drivers/r_scifa/src/lld/r_rza2_scifa_lld.c ****  * @param[in] tx_trg: TX FIFO trigger setting
1555:../generate/sc_drivers/r_scifa/src/lld/r_rza2_scifa_lld.c ****  * @param[in] rx_trg: RX FIFO trigger setting
1556:../generate/sc_drivers/r_scifa/src/lld/r_rza2_scifa_lld.c ****  *
1557:../generate/sc_drivers/r_scifa/src/lld/r_rza2_scifa_lld.c ****  * @retval  0 DRV_SUCCESS
1558:../generate/sc_drivers/r_scifa/src/lld/r_rza2_scifa_lld.c ****  * @retval -1 DRV_ERROR 
1559:../generate/sc_drivers/r_scifa/src/lld/r_rza2_scifa_lld.c ****  */
1560:../generate/sc_drivers/r_scifa/src/lld/r_rza2_scifa_lld.c **** int_t R_SCIFA_SetFIFOThreshold(r_channel_t channel, uint8_t tx_trg, uint8_t rx_trg)
1561:../generate/sc_drivers/r_scifa/src/lld/r_rza2_scifa_lld.c **** {
 2142              		.loc 1 1561 0
 2143              		.cfi_startproc
 2144              		@ args = 0, pretend = 0, frame = 0
 2145              		@ frame_needed = 0, uses_anonymous_args = 0
 2146              	.LVL260:
1562:../generate/sc_drivers/r_scifa/src/lld/r_rza2_scifa_lld.c ****     if ((channel > R_PRV_CFG_SCIF_LAST_CHANNEL) || (channel < 0))
 2147              		.loc 1 1562 0
 2148 0000 7030EFE6 		uxtb	r3, r0
 2149 0004 050053E3 		cmp	r3, #5
 2150 0008 2B00008A 		bhi	.L260
1563:../generate/sc_drivers/r_scifa/src/lld/r_rza2_scifa_lld.c ****     {
1564:../generate/sc_drivers/r_scifa/src/lld/r_rza2_scifa_lld.c ****         return (DRV_ERROR);
1565:../generate/sc_drivers/r_scifa/src/lld/r_rza2_scifa_lld.c ****     }
1566:../generate/sc_drivers/r_scifa/src/lld/r_rza2_scifa_lld.c **** 
1567:../generate/sc_drivers/r_scifa/src/lld/r_rza2_scifa_lld.c ****     /* Check TX FIFO Threshold is correct */
1568:../generate/sc_drivers/r_scifa/src/lld/r_rza2_scifa_lld.c ****     if (tx_trg > R_PRV_TX_FIFO_MAX_TRG)
 2151              		.loc 1 1568 0
 2152 000c 0F0051E3 		cmp	r1, #15
 2153 0010 2B00008A 		bhi	.L261
1569:../generate/sc_drivers/r_scifa/src/lld/r_rza2_scifa_lld.c ****     {
1570:../generate/sc_drivers/r_scifa/src/lld/r_rza2_scifa_lld.c ****         return (DRV_ERROR);
1571:../generate/sc_drivers/r_scifa/src/lld/r_rza2_scifa_lld.c ****     }
1572:../generate/sc_drivers/r_scifa/src/lld/r_rza2_scifa_lld.c **** 
1573:../generate/sc_drivers/r_scifa/src/lld/r_rza2_scifa_lld.c ****     /* Check RX FIFO Threshold is correct */
1574:../generate/sc_drivers/r_scifa/src/lld/r_rza2_scifa_lld.c ****     if ((rx_trg > R_PRV_RX_FIFO_MAX_TRG) || (rx_trg < R_PRV_RX_FIFO_MIN_TRG))
 2154              		.loc 1 1574 0
 2155 0014 013042E2 		sub	r3, r2, #1
 2156 0018 7330EFE6 		uxtb	r3, r3
 2157 001c 0F0053E3 		cmp	r3, #15
 2158 0020 2900008A 		bhi	.L262
1561:../generate/sc_drivers/r_scifa/src/lld/r_rza2_scifa_lld.c ****     if ((channel > R_PRV_CFG_SCIF_LAST_CHANNEL) || (channel < 0))
 2159              		.loc 1 1561 0
 2160 0024 70402DE9 		push	{r4, r5, r6, lr}
 2161              		.cfi_def_cfa_offset 16
 2162              		.cfi_offset 4, -16
 2163              		.cfi_offset 5, -12
 2164              		.cfi_offset 6, -8
 2165              		.cfi_offset 14, -4
 2166 0028 0250A0E1 		mov	r5, r2
1575:../generate/sc_drivers/r_scifa/src/lld/r_rza2_scifa_lld.c ****     {
1576:../generate/sc_drivers/r_scifa/src/lld/r_rza2_scifa_lld.c ****         return (DRV_ERROR);
1577:../generate/sc_drivers/r_scifa/src/lld/r_rza2_scifa_lld.c ****     }
1578:../generate/sc_drivers/r_scifa/src/lld/r_rza2_scifa_lld.c **** 
1579:../generate/sc_drivers/r_scifa/src/lld/r_rza2_scifa_lld.c ****     /* Set TX Threshold */
1580:../generate/sc_drivers/r_scifa/src/lld/r_rza2_scifa_lld.c ****     RZA_IO_RegWrite_16((volatile uint16_t *) &gsp_scifa[channel]->FTCR.WORD, tx_trg, SCIFA_FTCR_TFT
 2167              		.loc 1 1580 0
 2168 002c 003000E3 		movw	r3, #:lower16:.LANCHOR0
 2169 0030 003040E3 		movt	r3, #:upper16:.LANCHOR0
 2170 0034 004193E7 		ldr	r4, [r3, r0, lsl #2]
 2171 0038 166084E2 		add	r6, r4, #22
 2172 003c 1F30A0E3 		mov	r3, #31
 2173 0040 0020A0E3 		mov	r2, #0
 2174              	.LVL261:
 2175 0044 0600A0E1 		mov	r0, r6
 2176              	.LVL262:
 2177 0048 FEFFFFEB 		bl	RZA_IO_RegWrite_16
 2178              	.LVL263:
1581:../generate/sc_drivers/r_scifa/src/lld/r_rza2_scifa_lld.c **** 
1582:../generate/sc_drivers/r_scifa/src/lld/r_rza2_scifa_lld.c ****     /* Set RX Threshold */
1583:../generate/sc_drivers/r_scifa/src/lld/r_rza2_scifa_lld.c ****     RZA_IO_RegWrite_16((volatile uint16_t *) &gsp_scifa[channel]->FTCR.WORD, rx_trg, SCIFA_FTCR_RFT
 2179              		.loc 1 1583 0
 2180 004c 1F3CA0E3 		mov	r3, #7936
 2181 0050 0820A0E3 		mov	r2, #8
 2182 0054 0510A0E1 		mov	r1, r5
 2183 0058 0600A0E1 		mov	r0, r6
 2184 005c FEFFFFEB 		bl	RZA_IO_RegWrite_16
 2185              	.LVL264:
1584:../generate/sc_drivers/r_scifa/src/lld/r_rza2_scifa_lld.c **** 
1585:../generate/sc_drivers/r_scifa/src/lld/r_rza2_scifa_lld.c ****     /* TX - Use the FTCR Trigger settings instead of FCR - giving user more control */
1586:../generate/sc_drivers/r_scifa/src/lld/r_rza2_scifa_lld.c ****     RZA_IO_RegWrite_16((volatile uint16_t *) &gsp_scifa[channel]->FTCR.WORD, 1u, SCIFA_FTCR_TTRGS_S
 2186              		.loc 1 1586 0
 2187 0060 8030A0E3 		mov	r3, #128
 2188 0064 0720A0E3 		mov	r2, #7
 2189 0068 0110A0E3 		mov	r1, #1
 2190 006c 0600A0E1 		mov	r0, r6
 2191 0070 FEFFFFEB 		bl	RZA_IO_RegWrite_16
 2192              	.LVL265:
1587:../generate/sc_drivers/r_scifa/src/lld/r_rza2_scifa_lld.c **** 
1588:../generate/sc_drivers/r_scifa/src/lld/r_rza2_scifa_lld.c ****     /* RX - Use the FTCR Trigger settings instead of FCR - giving user more control */
1589:../generate/sc_drivers/r_scifa/src/lld/r_rza2_scifa_lld.c ****     RZA_IO_RegWrite_16((volatile uint16_t *) &gsp_scifa[channel]->FTCR.WORD, 1u, SCIFA_FTCR_RTRGS_S
 2193              		.loc 1 1589 0
 2194 0074 0239A0E3 		mov	r3, #32768
 2195 0078 0F20A0E3 		mov	r2, #15
 2196 007c 0110A0E3 		mov	r1, #1
 2197 0080 0600A0E1 		mov	r0, r6
 2198 0084 FEFFFFEB 		bl	RZA_IO_RegWrite_16
 2199              	.LVL266:
1590:../generate/sc_drivers/r_scifa/src/lld/r_rza2_scifa_lld.c **** 
1591:../generate/sc_drivers/r_scifa/src/lld/r_rza2_scifa_lld.c ****     /* TX - Reset suspended FIFO */
1592:../generate/sc_drivers/r_scifa/src/lld/r_rza2_scifa_lld.c ****     RZA_IO_RegWrite_16((volatile uint16_t *) &gsp_scifa[channel]->FCR.WORD, (uint16_t) 0, SCIFA_FCR
 2200              		.loc 1 1592 0
 2201 0088 0C4084E2 		add	r4, r4, #12
 2202 008c 0430A0E3 		mov	r3, #4
 2203 0090 0220A0E3 		mov	r2, #2
 2204 0094 0010A0E3 		mov	r1, #0
 2205 0098 0400A0E1 		mov	r0, r4
 2206 009c FEFFFFEB 		bl	RZA_IO_RegWrite_16
 2207              	.LVL267:
1593:../generate/sc_drivers/r_scifa/src/lld/r_rza2_scifa_lld.c **** 
1594:../generate/sc_drivers/r_scifa/src/lld/r_rza2_scifa_lld.c ****     /* TX - Reset suspended FIFO */
1595:../generate/sc_drivers/r_scifa/src/lld/r_rza2_scifa_lld.c ****     RZA_IO_RegWrite_16((volatile uint16_t *) &gsp_scifa[channel]->FCR.WORD, (uint16_t) 0, SCIFA_FCR
 2208              		.loc 1 1595 0
 2209 00a0 0230A0E3 		mov	r3, #2
 2210 00a4 0120A0E3 		mov	r2, #1
 2211 00a8 0010A0E3 		mov	r1, #0
 2212 00ac 0400A0E1 		mov	r0, r4
 2213 00b0 FEFFFFEB 		bl	RZA_IO_RegWrite_16
 2214              	.LVL268:
1596:../generate/sc_drivers/r_scifa/src/lld/r_rza2_scifa_lld.c **** 
1597:../generate/sc_drivers/r_scifa/src/lld/r_rza2_scifa_lld.c ****     return (DRV_SUCCESS);
 2215              		.loc 1 1597 0
 2216 00b4 0000A0E3 		mov	r0, #0
 2217 00b8 7080BDE8 		pop	{r4, r5, r6, pc}
 2218              	.LVL269:
 2219              	.L260:
 2220              		.cfi_def_cfa_offset 0
 2221              		.cfi_restore 4
 2222              		.cfi_restore 5
 2223              		.cfi_restore 6
 2224              		.cfi_restore 14
1564:../generate/sc_drivers/r_scifa/src/lld/r_rza2_scifa_lld.c ****     }
 2225              		.loc 1 1564 0
 2226 00bc 0000E0E3 		mvn	r0, #0
 2227              	.LVL270:
 2228 00c0 1EFF2FE1 		bx	lr
 2229              	.LVL271:
 2230              	.L261:
1570:../generate/sc_drivers/r_scifa/src/lld/r_rza2_scifa_lld.c ****     }
 2231              		.loc 1 1570 0
 2232 00c4 0000E0E3 		mvn	r0, #0
 2233              	.LVL272:
 2234 00c8 1EFF2FE1 		bx	lr
 2235              	.LVL273:
 2236              	.L262:
1576:../generate/sc_drivers/r_scifa/src/lld/r_rza2_scifa_lld.c ****     }
 2237              		.loc 1 1576 0
 2238 00cc 0000E0E3 		mvn	r0, #0
 2239              	.LVL274:
 2240 00d0 1EFF2FE1 		bx	lr
 2241              		.cfi_endproc
 2242              	.LFE37:
 2244              		.section	.text.R_SCIFA_SetExtendedCfg,"ax",%progbits
 2245              		.align	2
 2246              		.global	R_SCIFA_SetExtendedCfg
 2247              		.syntax unified
 2248              		.arm
 2249              		.fpu neon
 2251              	R_SCIFA_SetExtendedCfg:
 2252              	.LFB33:
1437:../generate/sc_drivers/r_scifa/src/lld/r_rza2_scifa_lld.c ****     int_t ret = DRV_SUCCESS;
 2253              		.loc 1 1437 0
 2254              		.cfi_startproc
 2255              		@ args = 0, pretend = 0, frame = 0
 2256              		@ frame_needed = 0, uses_anonymous_args = 0
 2257              	.LVL275:
 2258 0000 70402DE9 		push	{r4, r5, r6, lr}
 2259              		.cfi_def_cfa_offset 16
 2260              		.cfi_offset 4, -16
 2261              		.cfi_offset 5, -12
 2262              		.cfi_offset 6, -8
 2263              		.cfi_offset 14, -4
 2264 0004 0040A0E1 		mov	r4, r0
 2265 0008 0150A0E1 		mov	r5, r1
 2266              	.LVL276:
1440:../generate/sc_drivers/r_scifa/src/lld/r_rza2_scifa_lld.c ****     {
 2267              		.loc 1 1440 0
 2268 000c 7030EFE6 		uxtb	r3, r0
 2269 0010 050053E3 		cmp	r3, #5
 2270 0014 0D00008A 		bhi	.L273
1438:../generate/sc_drivers/r_scifa/src/lld/r_rza2_scifa_lld.c **** 
 2271              		.loc 1 1438 0
 2272 0018 0000A0E3 		mov	r0, #0
 2273              	.LVL277:
 2274              	.L268:
1446:../generate/sc_drivers/r_scifa/src/lld/r_rza2_scifa_lld.c ****     {
 2275              		.loc 1 1446 0
 2276 001c 000050E3 		cmp	r0, #0
 2277 0020 0C00000A 		beq	.L275
 2278              	.LVL278:
 2279              	.L269:
1451:../generate/sc_drivers/r_scifa/src/lld/r_rza2_scifa_lld.c ****     {
 2280              		.loc 1 1451 0
 2281 0024 000050E3 		cmp	r0, #0
 2282 0028 0E00000A 		beq	.L276
 2283              	.L270:
1458:../generate/sc_drivers/r_scifa/src/lld/r_rza2_scifa_lld.c ****     {
 2284              		.loc 1 1458 0
 2285 002c 000050E3 		cmp	r0, #0
 2286 0030 1000000A 		beq	.L277
 2287              	.L271:
1464:../generate/sc_drivers/r_scifa/src/lld/r_rza2_scifa_lld.c ****     {
 2288              		.loc 1 1464 0
 2289 0034 000050E3 		cmp	r0, #0
 2290 0038 7080BD18 		popne	{r4, r5, r6, pc}
1466:../generate/sc_drivers/r_scifa/src/lld/r_rza2_scifa_lld.c ****     }
 2291              		.loc 1 1466 0
 2292 003c 1420D5E5 		ldrb	r2, [r5, #20]	@ zero_extendqisi2
 2293 0040 1310D5E5 		ldrb	r1, [r5, #19]	@ zero_extendqisi2
 2294 0044 0400A0E1 		mov	r0, r4
 2295              	.LVL279:
 2296 0048 FEFFFFEB 		bl	R_SCIFA_SetFIFOThreshold
 2297              	.LVL280:
1470:../generate/sc_drivers/r_scifa/src/lld/r_rza2_scifa_lld.c **** /**************************************************************************************************
 2298              		.loc 1 1470 0
 2299 004c 7080BDE8 		pop	{r4, r5, r6, pc}
 2300              	.LVL281:
 2301              	.L273:
1442:../generate/sc_drivers/r_scifa/src/lld/r_rza2_scifa_lld.c ****     }
 2302              		.loc 1 1442 0
 2303 0050 0000E0E3 		mvn	r0, #0
 2304              	.LVL282:
 2305 0054 F0FFFFEA 		b	.L268
 2306              	.LVL283:
 2307              	.L275:
1448:../generate/sc_drivers/r_scifa/src/lld/r_rza2_scifa_lld.c ****     }
 2308              		.loc 1 1448 0
 2309 0058 0810D5E5 		ldrb	r1, [r5, #8]	@ zero_extendqisi2
 2310              	.LVL284:
 2311 005c 0400A0E1 		mov	r0, r4
 2312              	.LVL285:
 2313 0060 FEFFFFEB 		bl	R_SCIFA_SetClock
 2314              	.LVL286:
 2315 0064 EEFFFFEA 		b	.L269
 2316              	.L276:
1454:../generate/sc_drivers/r_scifa/src/lld/r_rza2_scifa_lld.c ****     }
 2317              		.loc 1 1454 0
 2318 0068 0E10D5E5 		ldrb	r1, [r5, #14]	@ zero_extendqisi2
 2319 006c 0400A0E1 		mov	r0, r4
 2320              	.LVL287:
 2321 0070 FEFFFFEB 		bl	R_SCIFA_SetNoiseCanceller
 2322              	.LVL288:
 2323 0074 ECFFFFEA 		b	.L270
 2324              	.L277:
1460:../generate/sc_drivers/r_scifa/src/lld/r_rza2_scifa_lld.c ****     }
 2325              		.loc 1 1460 0
 2326 0078 1110D5E5 		ldrb	r1, [r5, #17]	@ zero_extendqisi2
 2327 007c 0400A0E1 		mov	r0, r4
 2328              	.LVL289:
 2329 0080 FEFFFFEB 		bl	R_SCIFA_SetModemControl
 2330              	.LVL290:
 2331 0084 EAFFFFEA 		b	.L271
 2332              		.cfi_endproc
 2333              	.LFE33:
 2335              		.section	.text.R_SCIFA_SetTXDOutput,"ax",%progbits
 2336              		.align	2
 2337              		.global	R_SCIFA_SetTXDOutput
 2338              		.syntax unified
 2339              		.arm
 2340              		.fpu neon
 2342              	R_SCIFA_SetTXDOutput:
 2343              	.LFB38:
1598:../generate/sc_drivers/r_scifa/src/lld/r_rza2_scifa_lld.c **** }
1599:../generate/sc_drivers/r_scifa/src/lld/r_rza2_scifa_lld.c **** /**************************************************************************************************
1600:../generate/sc_drivers/r_scifa/src/lld/r_rza2_scifa_lld.c ****  * End of Function R_SCIFA_SetFIFOThreshold
1601:../generate/sc_drivers/r_scifa/src/lld/r_rza2_scifa_lld.c ****  **************************************************************************************************
1602:../generate/sc_drivers/r_scifa/src/lld/r_rza2_scifa_lld.c **** 
1603:../generate/sc_drivers/r_scifa/src/lld/r_rza2_scifa_lld.c **** /**
1604:../generate/sc_drivers/r_scifa/src/lld/r_rza2_scifa_lld.c ****  * @brief Sets the TXD output level
1605:../generate/sc_drivers/r_scifa/src/lld/r_rza2_scifa_lld.c ****  * @param[in] channel: the channel to set
1606:../generate/sc_drivers/r_scifa/src/lld/r_rza2_scifa_lld.c ****  * @param[in] level: the level (low or high)
1607:../generate/sc_drivers/r_scifa/src/lld/r_rza2_scifa_lld.c ****  * @retval  0 DRV_SUCCESS
1608:../generate/sc_drivers/r_scifa/src/lld/r_rza2_scifa_lld.c ****  * @retval -1 DRV_ERROR
1609:../generate/sc_drivers/r_scifa/src/lld/r_rza2_scifa_lld.c ****  */
1610:../generate/sc_drivers/r_scifa/src/lld/r_rza2_scifa_lld.c **** int_t R_SCIFA_SetTXDOutput (r_channel_t channel, scifa_sptr_init_t level)
1611:../generate/sc_drivers/r_scifa/src/lld/r_rza2_scifa_lld.c **** {
 2344              		.loc 1 1611 0
 2345              		.cfi_startproc
 2346              		@ args = 0, pretend = 0, frame = 0
 2347              		@ frame_needed = 0, uses_anonymous_args = 0
 2348              	.LVL291:
 2349 0000 10402DE9 		push	{r4, lr}
 2350              		.cfi_def_cfa_offset 8
 2351              		.cfi_offset 4, -8
 2352              		.cfi_offset 14, -4
1612:../generate/sc_drivers/r_scifa/src/lld/r_rza2_scifa_lld.c ****     if (SCIFA_SPTR_INIT_HIGH == level)
 2353              		.loc 1 1612 0
 2354 0004 010051E3 		cmp	r1, #1
 2355 0008 0900000A 		beq	.L282
1613:../generate/sc_drivers/r_scifa/src/lld/r_rza2_scifa_lld.c ****     {
1614:../generate/sc_drivers/r_scifa/src/lld/r_rza2_scifa_lld.c ****         /* set both SPB2DT and SPB2IO high */
1615:../generate/sc_drivers/r_scifa/src/lld/r_rza2_scifa_lld.c ****         RZA_IO_RegWrite_16((volatile uint16_t *) &gsp_scifa[channel]->SPTR.WORD, SCIFA_SPTR_SPB2IO 
1616:../generate/sc_drivers/r_scifa/src/lld/r_rza2_scifa_lld.c ****     }
1617:../generate/sc_drivers/r_scifa/src/lld/r_rza2_scifa_lld.c ****     else
1618:../generate/sc_drivers/r_scifa/src/lld/r_rza2_scifa_lld.c ****     {
1619:../generate/sc_drivers/r_scifa/src/lld/r_rza2_scifa_lld.c ****         /* set SPB2DT low and SPB2IO high */
1620:../generate/sc_drivers/r_scifa/src/lld/r_rza2_scifa_lld.c ****         RZA_IO_RegWrite_16((volatile uint16_t *) &gsp_scifa[channel]->SPTR.WORD, SCIFA_SPTR_SPB2IO,
 2356              		.loc 1 1620 0
 2357 000c 003000E3 		movw	r3, #:lower16:.LANCHOR0
 2358 0010 003040E3 		movt	r3, #:upper16:.LANCHOR0
 2359 0014 000193E7 		ldr	r0, [r3, r0, lsl #2]
 2360              	.LVL292:
 2361 0018 0330A0E3 		mov	r3, #3
 2362 001c 0020A0E3 		mov	r2, #0
 2363 0020 0210A0E3 		mov	r1, #2
 2364              	.LVL293:
 2365 0024 100080E2 		add	r0, r0, #16
 2366 0028 FEFFFFEB 		bl	RZA_IO_RegWrite_16
 2367              	.LVL294:
 2368              	.L280:
1621:../generate/sc_drivers/r_scifa/src/lld/r_rza2_scifa_lld.c ****     }
1622:../generate/sc_drivers/r_scifa/src/lld/r_rza2_scifa_lld.c **** 
1623:../generate/sc_drivers/r_scifa/src/lld/r_rza2_scifa_lld.c ****     return (DRV_SUCCESS);
1624:../generate/sc_drivers/r_scifa/src/lld/r_rza2_scifa_lld.c **** }
 2369              		.loc 1 1624 0
 2370 002c 0000A0E3 		mov	r0, #0
 2371 0030 1080BDE8 		pop	{r4, pc}
 2372              	.LVL295:
 2373              	.L282:
1615:../generate/sc_drivers/r_scifa/src/lld/r_rza2_scifa_lld.c ****     }
 2374              		.loc 1 1615 0
 2375 0034 003000E3 		movw	r3, #:lower16:.LANCHOR0
 2376 0038 003040E3 		movt	r3, #:upper16:.LANCHOR0
 2377 003c 000193E7 		ldr	r0, [r3, r0, lsl #2]
 2378              	.LVL296:
 2379 0040 0330A0E3 		mov	r3, #3
 2380 0044 0020A0E3 		mov	r2, #0
 2381 0048 0310A0E1 		mov	r1, r3
 2382              	.LVL297:
 2383 004c 100080E2 		add	r0, r0, #16
 2384 0050 FEFFFFEB 		bl	RZA_IO_RegWrite_16
 2385              	.LVL298:
 2386 0054 F4FFFFEA 		b	.L280
 2387              		.cfi_endproc
 2388              	.LFE38:
 2390              		.section	.text.R_SCIFA_Init,"ax",%progbits
 2391              		.align	2
 2392              		.global	R_SCIFA_Init
 2393              		.syntax unified
 2394              		.arm
 2395              		.fpu neon
 2397              	R_SCIFA_Init:
 2398              	.LFB4:
 220:../generate/sc_drivers/r_scifa/src/lld/r_rza2_scifa_lld.c ****     /* check arguments */
 2399              		.loc 1 220 0
 2400              		.cfi_startproc
 2401              		@ args = 0, pretend = 0, frame = 0
 2402              		@ frame_needed = 0, uses_anonymous_args = 0
 2403              	.LVL299:
 222:../generate/sc_drivers/r_scifa/src/lld/r_rza2_scifa_lld.c ****     {
 2404              		.loc 1 222 0
 2405 0000 7030EFE6 		uxtb	r3, r0
 2406 0004 040053E3 		cmp	r3, #4
 2407 0008 2D00008A 		bhi	.L285
 220:../generate/sc_drivers/r_scifa/src/lld/r_rza2_scifa_lld.c ****     /* check arguments */
 2408              		.loc 1 220 0
 2409 000c 70402DE9 		push	{r4, r5, r6, lr}
 2410              		.cfi_def_cfa_offset 16
 2411              		.cfi_offset 4, -16
 2412              		.cfi_offset 5, -12
 2413              		.cfi_offset 6, -8
 2414              		.cfi_offset 14, -4
 2415 0010 0050A0E1 		mov	r5, r0
 228:../generate/sc_drivers/r_scifa/src/lld/r_rza2_scifa_lld.c **** 
 2416              		.loc 1 228 0
 2417 0014 003000E3 		movw	r3, #:lower16:.LANCHOR0
 2418 0018 003040E3 		movt	r3, #:upper16:.LANCHOR0
 2419 001c 004193E7 		ldr	r4, [r3, r0, lsl #2]
 2420 0020 0030E0E3 		mvn	r3, #0
 2421 0024 0020A0E3 		mov	r2, #0
 2422 0028 0210A0E1 		mov	r1, r2
 2423 002c 040084E2 		add	r0, r4, #4
 2424              	.LVL300:
 2425 0030 FEFFFFEB 		bl	RZA_IO_RegWrite_16
 2426              	.LVL301:
 231:../generate/sc_drivers/r_scifa/src/lld/r_rza2_scifa_lld.c **** 
 2427              		.loc 1 231 0
 2428 0034 0C6084E2 		add	r6, r4, #12
 2429 0038 0430A0E3 		mov	r3, #4
 2430 003c 0220A0E3 		mov	r2, #2
 2431 0040 0110A0E3 		mov	r1, #1
 2432 0044 0600A0E1 		mov	r0, r6
 2433 0048 FEFFFFEB 		bl	RZA_IO_RegWrite_16
 2434              	.LVL302:
 234:../generate/sc_drivers/r_scifa/src/lld/r_rza2_scifa_lld.c **** 
 2435              		.loc 1 234 0
 2436 004c 0230A0E3 		mov	r3, #2
 2437 0050 0120A0E3 		mov	r2, #1
 2438 0054 0210A0E1 		mov	r1, r2
 2439 0058 0600A0E1 		mov	r0, r6
 2440 005c FEFFFFEB 		bl	RZA_IO_RegWrite_16
 2441              	.LVL303:
 237:../generate/sc_drivers/r_scifa/src/lld/r_rza2_scifa_lld.c **** 
 2442              		.loc 1 237 0
 2443 0060 086084E2 		add	r6, r4, #8
 2444 0064 0020E0E3 		mvn	r2, #0
 2445 0068 0010A0E3 		mov	r1, #0
 2446 006c 0600A0E1 		mov	r0, r6
 2447 0070 FEFFFFEB 		bl	RZA_IO_RegRead_16
 2448              	.LVL304:
 240:../generate/sc_drivers/r_scifa/src/lld/r_rza2_scifa_lld.c **** 
 2449              		.loc 1 240 0
 2450 0074 0030E0E3 		mvn	r3, #0
 2451 0078 0020A0E3 		mov	r2, #0
 2452 007c 0210A0E1 		mov	r1, r2
 2453 0080 0600A0E1 		mov	r0, r6
 2454 0084 FEFFFFEB 		bl	RZA_IO_RegWrite_16
 2455              	.LVL305:
 243:../generate/sc_drivers/r_scifa/src/lld/r_rza2_scifa_lld.c **** 
 2456              		.loc 1 243 0
 2457 0088 124084E2 		add	r4, r4, #18
 2458 008c 0020E0E3 		mvn	r2, #0
 2459 0090 0010A0E3 		mov	r1, #0
 2460 0094 0400A0E1 		mov	r0, r4
 2461 0098 FEFFFFEB 		bl	RZA_IO_RegRead_16
 2462              	.LVL306:
 246:../generate/sc_drivers/r_scifa/src/lld/r_rza2_scifa_lld.c **** 
 2463              		.loc 1 246 0
 2464 009c 0130A0E3 		mov	r3, #1
 2465 00a0 0020A0E3 		mov	r2, #0
 2466 00a4 0210A0E1 		mov	r1, r2
 2467 00a8 0400A0E1 		mov	r0, r4
 2468 00ac FEFFFFEB 		bl	RZA_IO_RegWrite_16
 2469              	.LVL307:
 249:../generate/sc_drivers/r_scifa/src/lld/r_rza2_scifa_lld.c **** 
 2470              		.loc 1 249 0
 2471 00b0 0110A0E3 		mov	r1, #1
 2472 00b4 0500A0E1 		mov	r0, r5
 2473 00b8 FEFFFFEB 		bl	R_SCIFA_SetTXDOutput
 2474              	.LVL308:
 251:../generate/sc_drivers/r_scifa/src/lld/r_rza2_scifa_lld.c **** }
 2475              		.loc 1 251 0
 2476 00bc 0000A0E3 		mov	r0, #0
 2477 00c0 7080BDE8 		pop	{r4, r5, r6, pc}
 2478              	.LVL309:
 2479              	.L285:
 2480              		.cfi_def_cfa_offset 0
 2481              		.cfi_restore 4
 2482              		.cfi_restore 5
 2483              		.cfi_restore 6
 2484              		.cfi_restore 14
 224:../generate/sc_drivers/r_scifa/src/lld/r_rza2_scifa_lld.c ****     }
 2485              		.loc 1 224 0
 2486 00c4 0000E0E3 		mvn	r0, #0
 2487              	.LVL310:
 2488 00c8 1EFF2FE1 		bx	lr
 2489              		.cfi_endproc
 2490              	.LFE4:
 2492              		.section	.text.R_SCIFA_SetSCKOutput,"ax",%progbits
 2493              		.align	2
 2494              		.global	R_SCIFA_SetSCKOutput
 2495              		.syntax unified
 2496              		.arm
 2497              		.fpu neon
 2499              	R_SCIFA_SetSCKOutput:
 2500              	.LFB39:
1625:../generate/sc_drivers/r_scifa/src/lld/r_rza2_scifa_lld.c **** /**************************************************************************************************
1626:../generate/sc_drivers/r_scifa/src/lld/r_rza2_scifa_lld.c ****  * End of Function R_SCIFA_SetTXDOutput
1627:../generate/sc_drivers/r_scifa/src/lld/r_rza2_scifa_lld.c ****  **************************************************************************************************
1628:../generate/sc_drivers/r_scifa/src/lld/r_rza2_scifa_lld.c **** 
1629:../generate/sc_drivers/r_scifa/src/lld/r_rza2_scifa_lld.c **** /**
1630:../generate/sc_drivers/r_scifa/src/lld/r_rza2_scifa_lld.c ****  * @brief Sets the SCK output level
1631:../generate/sc_drivers/r_scifa/src/lld/r_rza2_scifa_lld.c ****  * @param[in] channel: the channel to set
1632:../generate/sc_drivers/r_scifa/src/lld/r_rza2_scifa_lld.c ****  * @param[in] level: the level (low or high)
1633:../generate/sc_drivers/r_scifa/src/lld/r_rza2_scifa_lld.c ****  * @retval  0 DRV_SUCCESS
1634:../generate/sc_drivers/r_scifa/src/lld/r_rza2_scifa_lld.c ****  * @retval -1 DRV_ERROR
1635:../generate/sc_drivers/r_scifa/src/lld/r_rza2_scifa_lld.c ****  */
1636:../generate/sc_drivers/r_scifa/src/lld/r_rza2_scifa_lld.c **** int_t R_SCIFA_SetSCKOutput (r_channel_t channel, scifa_sptr_init_t level)
1637:../generate/sc_drivers/r_scifa/src/lld/r_rza2_scifa_lld.c **** {
 2501              		.loc 1 1637 0
 2502              		.cfi_startproc
 2503              		@ args = 0, pretend = 0, frame = 0
 2504              		@ frame_needed = 0, uses_anonymous_args = 0
 2505              	.LVL311:
 2506 0000 10402DE9 		push	{r4, lr}
 2507              		.cfi_def_cfa_offset 8
 2508              		.cfi_offset 4, -8
 2509              		.cfi_offset 14, -4
1638:../generate/sc_drivers/r_scifa/src/lld/r_rza2_scifa_lld.c ****     if (SCIFA_SPTR_INIT_HIGH == level)
 2510              		.loc 1 1638 0
 2511 0004 010051E3 		cmp	r1, #1
 2512 0008 0900000A 		beq	.L294
1639:../generate/sc_drivers/r_scifa/src/lld/r_rza2_scifa_lld.c ****     {
1640:../generate/sc_drivers/r_scifa/src/lld/r_rza2_scifa_lld.c ****         /* set both SCKDT and SCKIO high */
1641:../generate/sc_drivers/r_scifa/src/lld/r_rza2_scifa_lld.c ****         RZA_IO_RegWrite_16((volatile uint16_t *) &gsp_scifa[channel]->SPTR.WORD, SCIFA_SPTR_SCKIO |
1642:../generate/sc_drivers/r_scifa/src/lld/r_rza2_scifa_lld.c ****     }
1643:../generate/sc_drivers/r_scifa/src/lld/r_rza2_scifa_lld.c ****     else
1644:../generate/sc_drivers/r_scifa/src/lld/r_rza2_scifa_lld.c ****     {
1645:../generate/sc_drivers/r_scifa/src/lld/r_rza2_scifa_lld.c ****         /* set SCKDT low and SCKIO high */
1646:../generate/sc_drivers/r_scifa/src/lld/r_rza2_scifa_lld.c ****         RZA_IO_RegWrite_16((volatile uint16_t *) &gsp_scifa[channel]->SPTR.WORD, SCIFA_SPTR_SCKIO, 
 2513              		.loc 1 1646 0
 2514 000c 003000E3 		movw	r3, #:lower16:.LANCHOR0
 2515 0010 003040E3 		movt	r3, #:upper16:.LANCHOR0
 2516 0014 000193E7 		ldr	r0, [r3, r0, lsl #2]
 2517              	.LVL312:
 2518 0018 0C30A0E3 		mov	r3, #12
 2519 001c 0020A0E3 		mov	r2, #0
 2520 0020 0810A0E3 		mov	r1, #8
 2521              	.LVL313:
 2522 0024 100080E2 		add	r0, r0, #16
 2523 0028 FEFFFFEB 		bl	RZA_IO_RegWrite_16
 2524              	.LVL314:
 2525              	.L292:
1647:../generate/sc_drivers/r_scifa/src/lld/r_rza2_scifa_lld.c ****     }
1648:../generate/sc_drivers/r_scifa/src/lld/r_rza2_scifa_lld.c **** 
1649:../generate/sc_drivers/r_scifa/src/lld/r_rza2_scifa_lld.c ****     return (DRV_SUCCESS);
1650:../generate/sc_drivers/r_scifa/src/lld/r_rza2_scifa_lld.c **** }
 2526              		.loc 1 1650 0
 2527 002c 0000A0E3 		mov	r0, #0
 2528 0030 1080BDE8 		pop	{r4, pc}
 2529              	.LVL315:
 2530              	.L294:
1641:../generate/sc_drivers/r_scifa/src/lld/r_rza2_scifa_lld.c ****     }
 2531              		.loc 1 1641 0
 2532 0034 003000E3 		movw	r3, #:lower16:.LANCHOR0
 2533 0038 003040E3 		movt	r3, #:upper16:.LANCHOR0
 2534 003c 000193E7 		ldr	r0, [r3, r0, lsl #2]
 2535              	.LVL316:
 2536 0040 0C30A0E3 		mov	r3, #12
 2537 0044 0020A0E3 		mov	r2, #0
 2538 0048 0310A0E1 		mov	r1, r3
 2539              	.LVL317:
 2540 004c 100080E2 		add	r0, r0, #16
 2541 0050 FEFFFFEB 		bl	RZA_IO_RegWrite_16
 2542              	.LVL318:
 2543 0054 F4FFFFEA 		b	.L292
 2544              		.cfi_endproc
 2545              	.LFE39:
 2547              		.section	.text.R_SCIFA_SetCTSOutput,"ax",%progbits
 2548              		.align	2
 2549              		.global	R_SCIFA_SetCTSOutput
 2550              		.syntax unified
 2551              		.arm
 2552              		.fpu neon
 2554              	R_SCIFA_SetCTSOutput:
 2555              	.LFB40:
1651:../generate/sc_drivers/r_scifa/src/lld/r_rza2_scifa_lld.c **** /**************************************************************************************************
1652:../generate/sc_drivers/r_scifa/src/lld/r_rza2_scifa_lld.c ****  * End of Function R_SCIFA_SetSCKOutput
1653:../generate/sc_drivers/r_scifa/src/lld/r_rza2_scifa_lld.c ****  **************************************************************************************************
1654:../generate/sc_drivers/r_scifa/src/lld/r_rza2_scifa_lld.c **** 
1655:../generate/sc_drivers/r_scifa/src/lld/r_rza2_scifa_lld.c **** /**
1656:../generate/sc_drivers/r_scifa/src/lld/r_rza2_scifa_lld.c ****  * @brief Sets the CTS output level
1657:../generate/sc_drivers/r_scifa/src/lld/r_rza2_scifa_lld.c ****  * @param[in] channel: the channel to set
1658:../generate/sc_drivers/r_scifa/src/lld/r_rza2_scifa_lld.c ****  * @param[in] level: the level (low or high)
1659:../generate/sc_drivers/r_scifa/src/lld/r_rza2_scifa_lld.c ****  * @retval  0 DRV_SUCCESS
1660:../generate/sc_drivers/r_scifa/src/lld/r_rza2_scifa_lld.c ****  * @retval -1 DRV_ERROR
1661:../generate/sc_drivers/r_scifa/src/lld/r_rza2_scifa_lld.c ****  */
1662:../generate/sc_drivers/r_scifa/src/lld/r_rza2_scifa_lld.c **** int_t R_SCIFA_SetCTSOutput (r_channel_t channel, scifa_sptr_init_t level)
1663:../generate/sc_drivers/r_scifa/src/lld/r_rza2_scifa_lld.c **** {
 2556              		.loc 1 1663 0
 2557              		.cfi_startproc
 2558              		@ args = 0, pretend = 0, frame = 0
 2559              		@ frame_needed = 0, uses_anonymous_args = 0
 2560              	.LVL319:
1664:../generate/sc_drivers/r_scifa/src/lld/r_rza2_scifa_lld.c ****     /* not supported on channel 3 or 4 */
1665:../generate/sc_drivers/r_scifa/src/lld/r_rza2_scifa_lld.c ****     if ((R_PRV_SCIFA_CHANNEL_3 == channel) || (R_PRV_SCIFA_CHANNEL_4 == channel))
 2561              		.loc 1 1665 0
 2562 0000 033040E2 		sub	r3, r0, #3
 2563 0004 7330EFE6 		uxtb	r3, r3
 2564 0008 010053E3 		cmp	r3, #1
 2565 000c 1600009A 		bls	.L298
1663:../generate/sc_drivers/r_scifa/src/lld/r_rza2_scifa_lld.c ****     /* not supported on channel 3 or 4 */
 2566              		.loc 1 1663 0
 2567 0010 10402DE9 		push	{r4, lr}
 2568              		.cfi_def_cfa_offset 8
 2569              		.cfi_offset 4, -8
 2570              		.cfi_offset 14, -4
1666:../generate/sc_drivers/r_scifa/src/lld/r_rza2_scifa_lld.c ****     {
1667:../generate/sc_drivers/r_scifa/src/lld/r_rza2_scifa_lld.c ****         return (DRV_ERROR);
1668:../generate/sc_drivers/r_scifa/src/lld/r_rza2_scifa_lld.c ****     }
1669:../generate/sc_drivers/r_scifa/src/lld/r_rza2_scifa_lld.c **** 
1670:../generate/sc_drivers/r_scifa/src/lld/r_rza2_scifa_lld.c ****     if (SCIFA_SPTR_INIT_HIGH == level)
 2571              		.loc 1 1670 0
 2572 0014 010051E3 		cmp	r1, #1
 2573 0018 0900000A 		beq	.L303
1671:../generate/sc_drivers/r_scifa/src/lld/r_rza2_scifa_lld.c ****     {
1672:../generate/sc_drivers/r_scifa/src/lld/r_rza2_scifa_lld.c ****         /* set both CTS2DT and CTS2IO high */
1673:../generate/sc_drivers/r_scifa/src/lld/r_rza2_scifa_lld.c ****         RZA_IO_RegWrite_16((volatile uint16_t *) &gsp_scifa[channel]->SPTR.WORD, SCIFA_SPTR_CTS2IO 
1674:../generate/sc_drivers/r_scifa/src/lld/r_rza2_scifa_lld.c ****     }
1675:../generate/sc_drivers/r_scifa/src/lld/r_rza2_scifa_lld.c ****     else
1676:../generate/sc_drivers/r_scifa/src/lld/r_rza2_scifa_lld.c ****     {
1677:../generate/sc_drivers/r_scifa/src/lld/r_rza2_scifa_lld.c ****         /* set CTS2DT low and CTS2IO high */
1678:../generate/sc_drivers/r_scifa/src/lld/r_rza2_scifa_lld.c ****         RZA_IO_RegWrite_16((volatile uint16_t *) &gsp_scifa[channel]->SPTR.WORD, SCIFA_SPTR_CTS2IO,
 2574              		.loc 1 1678 0
 2575 001c 003000E3 		movw	r3, #:lower16:.LANCHOR0
 2576 0020 003040E3 		movt	r3, #:upper16:.LANCHOR0
 2577 0024 000193E7 		ldr	r0, [r3, r0, lsl #2]
 2578              	.LVL320:
 2579 0028 3030A0E3 		mov	r3, #48
 2580 002c 0020A0E3 		mov	r2, #0
 2581 0030 2010A0E3 		mov	r1, #32
 2582              	.LVL321:
 2583 0034 100080E2 		add	r0, r0, #16
 2584 0038 FEFFFFEB 		bl	RZA_IO_RegWrite_16
 2585              	.LVL322:
1679:../generate/sc_drivers/r_scifa/src/lld/r_rza2_scifa_lld.c ****     }
1680:../generate/sc_drivers/r_scifa/src/lld/r_rza2_scifa_lld.c **** 
1681:../generate/sc_drivers/r_scifa/src/lld/r_rza2_scifa_lld.c ****     return (DRV_SUCCESS);
 2586              		.loc 1 1681 0
 2587 003c 0000A0E3 		mov	r0, #0
 2588 0040 1080BDE8 		pop	{r4, pc}
 2589              	.LVL323:
 2590              	.L303:
1673:../generate/sc_drivers/r_scifa/src/lld/r_rza2_scifa_lld.c ****     }
 2591              		.loc 1 1673 0
 2592 0044 003000E3 		movw	r3, #:lower16:.LANCHOR0
 2593 0048 003040E3 		movt	r3, #:upper16:.LANCHOR0
 2594 004c 000193E7 		ldr	r0, [r3, r0, lsl #2]
 2595              	.LVL324:
 2596 0050 3030A0E3 		mov	r3, #48
 2597 0054 0020A0E3 		mov	r2, #0
 2598 0058 0310A0E1 		mov	r1, r3
 2599              	.LVL325:
 2600 005c 100080E2 		add	r0, r0, #16
 2601 0060 FEFFFFEB 		bl	RZA_IO_RegWrite_16
 2602              	.LVL326:
 2603              		.loc 1 1681 0
 2604 0064 0000A0E3 		mov	r0, #0
 2605 0068 1080BDE8 		pop	{r4, pc}
 2606              	.LVL327:
 2607              	.L298:
 2608              		.cfi_def_cfa_offset 0
 2609              		.cfi_restore 4
 2610              		.cfi_restore 14
1667:../generate/sc_drivers/r_scifa/src/lld/r_rza2_scifa_lld.c ****     }
 2611              		.loc 1 1667 0
 2612 006c 0000E0E3 		mvn	r0, #0
 2613              	.LVL328:
 2614 0070 1EFF2FE1 		bx	lr
 2615              		.cfi_endproc
 2616              	.LFE40:
 2618              		.section	.text.R_SCIFA_SetRTSOutput,"ax",%progbits
 2619              		.align	2
 2620              		.global	R_SCIFA_SetRTSOutput
 2621              		.syntax unified
 2622              		.arm
 2623              		.fpu neon
 2625              	R_SCIFA_SetRTSOutput:
 2626              	.LFB41:
1682:../generate/sc_drivers/r_scifa/src/lld/r_rza2_scifa_lld.c **** }
1683:../generate/sc_drivers/r_scifa/src/lld/r_rza2_scifa_lld.c **** /**************************************************************************************************
1684:../generate/sc_drivers/r_scifa/src/lld/r_rza2_scifa_lld.c ****  * End of Function R_SCIFA_SetCTSOutput
1685:../generate/sc_drivers/r_scifa/src/lld/r_rza2_scifa_lld.c ****  **************************************************************************************************
1686:../generate/sc_drivers/r_scifa/src/lld/r_rza2_scifa_lld.c **** 
1687:../generate/sc_drivers/r_scifa/src/lld/r_rza2_scifa_lld.c **** /**
1688:../generate/sc_drivers/r_scifa/src/lld/r_rza2_scifa_lld.c ****  * @brief Sets the RTS output level
1689:../generate/sc_drivers/r_scifa/src/lld/r_rza2_scifa_lld.c ****  * @param[in] channel: the channel to set
1690:../generate/sc_drivers/r_scifa/src/lld/r_rza2_scifa_lld.c ****  * @param[in] level: the level (low or high)
1691:../generate/sc_drivers/r_scifa/src/lld/r_rza2_scifa_lld.c ****  * @retval  0 DRV_SUCCESS
1692:../generate/sc_drivers/r_scifa/src/lld/r_rza2_scifa_lld.c ****  * @retval -1 DRV_ERROR
1693:../generate/sc_drivers/r_scifa/src/lld/r_rza2_scifa_lld.c ****  */
1694:../generate/sc_drivers/r_scifa/src/lld/r_rza2_scifa_lld.c **** int_t R_SCIFA_SetRTSOutput (r_channel_t channel, scifa_sptr_init_t level)
1695:../generate/sc_drivers/r_scifa/src/lld/r_rza2_scifa_lld.c **** {
 2627              		.loc 1 1695 0
 2628              		.cfi_startproc
 2629              		@ args = 0, pretend = 0, frame = 0
 2630              		@ frame_needed = 0, uses_anonymous_args = 0
 2631              	.LVL329:
1696:../generate/sc_drivers/r_scifa/src/lld/r_rza2_scifa_lld.c ****     /* not supported on channel 3 or 4 */
1697:../generate/sc_drivers/r_scifa/src/lld/r_rza2_scifa_lld.c ****     if ((R_PRV_SCIFA_CHANNEL_3 == channel) || (R_PRV_SCIFA_CHANNEL_4 == channel))
 2632              		.loc 1 1697 0
 2633 0000 033040E2 		sub	r3, r0, #3
 2634 0004 7330EFE6 		uxtb	r3, r3
 2635 0008 010053E3 		cmp	r3, #1
 2636 000c 1600009A 		bls	.L307
1695:../generate/sc_drivers/r_scifa/src/lld/r_rza2_scifa_lld.c ****     /* not supported on channel 3 or 4 */
 2637              		.loc 1 1695 0
 2638 0010 10402DE9 		push	{r4, lr}
 2639              		.cfi_def_cfa_offset 8
 2640              		.cfi_offset 4, -8
 2641              		.cfi_offset 14, -4
1698:../generate/sc_drivers/r_scifa/src/lld/r_rza2_scifa_lld.c ****     {
1699:../generate/sc_drivers/r_scifa/src/lld/r_rza2_scifa_lld.c ****         return (DRV_ERROR);
1700:../generate/sc_drivers/r_scifa/src/lld/r_rza2_scifa_lld.c ****     }
1701:../generate/sc_drivers/r_scifa/src/lld/r_rza2_scifa_lld.c **** 
1702:../generate/sc_drivers/r_scifa/src/lld/r_rza2_scifa_lld.c ****     if (SCIFA_SPTR_INIT_HIGH == level)
 2642              		.loc 1 1702 0
 2643 0014 010051E3 		cmp	r1, #1
 2644 0018 0900000A 		beq	.L312
1703:../generate/sc_drivers/r_scifa/src/lld/r_rza2_scifa_lld.c ****     {
1704:../generate/sc_drivers/r_scifa/src/lld/r_rza2_scifa_lld.c ****         /* set both RTS2DT and RTS2IO high */
1705:../generate/sc_drivers/r_scifa/src/lld/r_rza2_scifa_lld.c ****         RZA_IO_RegWrite_16((volatile uint16_t *) &gsp_scifa[channel]->SPTR.WORD, SCIFA_SPTR_RTS2IO 
1706:../generate/sc_drivers/r_scifa/src/lld/r_rza2_scifa_lld.c ****     }
1707:../generate/sc_drivers/r_scifa/src/lld/r_rza2_scifa_lld.c ****     else
1708:../generate/sc_drivers/r_scifa/src/lld/r_rza2_scifa_lld.c ****     {
1709:../generate/sc_drivers/r_scifa/src/lld/r_rza2_scifa_lld.c ****         /* set RTS2DT low and RTS2IO high */
1710:../generate/sc_drivers/r_scifa/src/lld/r_rza2_scifa_lld.c ****         RZA_IO_RegWrite_16((volatile uint16_t *) &gsp_scifa[channel]->SPTR.WORD, SCIFA_SPTR_RTS2IO,
 2645              		.loc 1 1710 0
 2646 001c 003000E3 		movw	r3, #:lower16:.LANCHOR0
 2647 0020 003040E3 		movt	r3, #:upper16:.LANCHOR0
 2648 0024 000193E7 		ldr	r0, [r3, r0, lsl #2]
 2649              	.LVL330:
 2650 0028 C030A0E3 		mov	r3, #192
 2651 002c 0020A0E3 		mov	r2, #0
 2652 0030 8010A0E3 		mov	r1, #128
 2653              	.LVL331:
 2654 0034 100080E2 		add	r0, r0, #16
 2655 0038 FEFFFFEB 		bl	RZA_IO_RegWrite_16
 2656              	.LVL332:
1711:../generate/sc_drivers/r_scifa/src/lld/r_rza2_scifa_lld.c ****     }
1712:../generate/sc_drivers/r_scifa/src/lld/r_rza2_scifa_lld.c **** 
1713:../generate/sc_drivers/r_scifa/src/lld/r_rza2_scifa_lld.c ****     return (DRV_SUCCESS);
 2657              		.loc 1 1713 0
 2658 003c 0000A0E3 		mov	r0, #0
 2659 0040 1080BDE8 		pop	{r4, pc}
 2660              	.LVL333:
 2661              	.L312:
1705:../generate/sc_drivers/r_scifa/src/lld/r_rza2_scifa_lld.c ****     }
 2662              		.loc 1 1705 0
 2663 0044 003000E3 		movw	r3, #:lower16:.LANCHOR0
 2664 0048 003040E3 		movt	r3, #:upper16:.LANCHOR0
 2665 004c 000193E7 		ldr	r0, [r3, r0, lsl #2]
 2666              	.LVL334:
 2667 0050 C030A0E3 		mov	r3, #192
 2668 0054 0020A0E3 		mov	r2, #0
 2669 0058 0310A0E1 		mov	r1, r3
 2670              	.LVL335:
 2671 005c 100080E2 		add	r0, r0, #16
 2672 0060 FEFFFFEB 		bl	RZA_IO_RegWrite_16
 2673              	.LVL336:
 2674              		.loc 1 1713 0
 2675 0064 0000A0E3 		mov	r0, #0
 2676 0068 1080BDE8 		pop	{r4, pc}
 2677              	.LVL337:
 2678              	.L307:
 2679              		.cfi_def_cfa_offset 0
 2680              		.cfi_restore 4
 2681              		.cfi_restore 14
1699:../generate/sc_drivers/r_scifa/src/lld/r_rza2_scifa_lld.c ****     }
 2682              		.loc 1 1699 0
 2683 006c 0000E0E3 		mvn	r0, #0
 2684              	.LVL338:
 2685 0070 1EFF2FE1 		bx	lr
 2686              		.cfi_endproc
 2687              	.LFE41:
 2689              		.section	.text.R_SCIFA_GetVersion,"ax",%progbits
 2690              		.align	2
 2691              		.global	R_SCIFA_GetVersion
 2692              		.syntax unified
 2693              		.arm
 2694              		.fpu neon
 2696              	R_SCIFA_GetVersion:
 2697              	.LFB42:
1714:../generate/sc_drivers/r_scifa/src/lld/r_rza2_scifa_lld.c **** }
1715:../generate/sc_drivers/r_scifa/src/lld/r_rza2_scifa_lld.c **** /**************************************************************************************************
1716:../generate/sc_drivers/r_scifa/src/lld/r_rza2_scifa_lld.c ****  * End of Function R_SCIFA_SetRTSOutput
1717:../generate/sc_drivers/r_scifa/src/lld/r_rza2_scifa_lld.c ****  **************************************************************************************************
1718:../generate/sc_drivers/r_scifa/src/lld/r_rza2_scifa_lld.c **** 
1719:../generate/sc_drivers/r_scifa/src/lld/r_rza2_scifa_lld.c **** /**
1720:../generate/sc_drivers/r_scifa/src/lld/r_rza2_scifa_lld.c ****  * @brief R_SCIFA_GetVersion - Get version information
1721:../generate/sc_drivers/r_scifa/src/lld/r_rza2_scifa_lld.c ****  *
1722:../generate/sc_drivers/r_scifa/src/lld/r_rza2_scifa_lld.c ****  * @param[out] pVerInfo: version info
1723:../generate/sc_drivers/r_scifa/src/lld/r_rza2_scifa_lld.c ****  *
1724:../generate/sc_drivers/r_scifa/src/lld/r_rza2_scifa_lld.c ****  * @retval  0 DRV_SUCCESS (always)
1725:../generate/sc_drivers/r_scifa/src/lld/r_rza2_scifa_lld.c ****  */
1726:../generate/sc_drivers/r_scifa/src/lld/r_rza2_scifa_lld.c **** int_t R_SCIFA_GetVersion(st_ver_info_t *pVerInfo)
1727:../generate/sc_drivers/r_scifa/src/lld/r_rza2_scifa_lld.c **** {
 2698              		.loc 1 1727 0
 2699              		.cfi_startproc
 2700              		@ args = 0, pretend = 0, frame = 0
 2701              		@ frame_needed = 0, uses_anonymous_args = 0
 2702              		@ link register save eliminated.
 2703              	.LVL339:
 2704 0000 0030A0E1 		mov	r3, r0
1728:../generate/sc_drivers/r_scifa/src/lld/r_rza2_scifa_lld.c ****     pVerInfo->lld.p_szdriver_name = STDIO_SCIFA_RZ_LLD_DRV_NAME;
 2705              		.loc 1 1728 0
 2706 0004 002000E3 		movw	r2, #:lower16:.LC1
 2707 0008 002040E3 		movt	r2, #:upper16:.LC1
 2708 000c 142080E5 		str	r2, [r0, #20]
1729:../generate/sc_drivers/r_scifa/src/lld/r_rza2_scifa_lld.c ****     pVerInfo->lld.version.sub.major = STDIO_SCIFA_RZ_LLD_VERSION_MAJOR;
 2709              		.loc 1 1729 0
 2710 0010 0220A0E3 		mov	r2, #2
 2711 0014 BE20C0E1 		strh	r2, [r0, #14]	@ movhi
1730:../generate/sc_drivers/r_scifa/src/lld/r_rza2_scifa_lld.c ****     pVerInfo->lld.version.sub.minor = STDIO_SCIFA_RZ_LLD_VERSION_MINOR;
 2712              		.loc 1 1730 0
 2713 0018 0420A0E3 		mov	r2, #4
 2714 001c BC20C0E1 		strh	r2, [r0, #12]	@ movhi
1731:../generate/sc_drivers/r_scifa/src/lld/r_rza2_scifa_lld.c ****     pVerInfo->lld.build = STDIO_SCIFA_RZ_LLD_BUILD_NUM;
 2715              		.loc 1 1731 0
 2716 0020 0000A0E3 		mov	r0, #0
 2717              	.LVL340:
 2718 0024 100083E5 		str	r0, [r3, #16]
1732:../generate/sc_drivers/r_scifa/src/lld/r_rza2_scifa_lld.c **** 
1733:../generate/sc_drivers/r_scifa/src/lld/r_rza2_scifa_lld.c ****     return (DRV_SUCCESS);
1734:../generate/sc_drivers/r_scifa/src/lld/r_rza2_scifa_lld.c **** }
 2719              		.loc 1 1734 0
 2720 0028 1EFF2FE1 		bx	lr
 2721              		.cfi_endproc
 2722              	.LFE42:
 2724              		.section	.text.R_SCIFA_SetupInterrupts,"ax",%progbits
 2725              		.align	2
 2726              		.global	R_SCIFA_SetupInterrupts
 2727              		.syntax unified
 2728              		.arm
 2729              		.fpu neon
 2731              	R_SCIFA_SetupInterrupts:
 2732              	.LFB43:
1735:../generate/sc_drivers/r_scifa/src/lld/r_rza2_scifa_lld.c **** /**************************************************************************************************
1736:../generate/sc_drivers/r_scifa/src/lld/r_rza2_scifa_lld.c ****  * End of Function R_SCIFA_GetVersion
1737:../generate/sc_drivers/r_scifa/src/lld/r_rza2_scifa_lld.c ****  **************************************************************************************************
1738:../generate/sc_drivers/r_scifa/src/lld/r_rza2_scifa_lld.c **** 
1739:../generate/sc_drivers/r_scifa/src/lld/r_rza2_scifa_lld.c **** /**
1740:../generate/sc_drivers/r_scifa/src/lld/r_rza2_scifa_lld.c ****  * @brief R_SCIFA_SetupInterrupts - configures interrupts
1741:../generate/sc_drivers/r_scifa/src/lld/r_rza2_scifa_lld.c ****  *
1742:../generate/sc_drivers/r_scifa/src/lld/r_rza2_scifa_lld.c ****  * @param[in] channel: the channel number
1743:../generate/sc_drivers/r_scifa/src/lld/r_rza2_scifa_lld.c ****  * @param[in] txi_priority: TXI interrupt priority
1744:../generate/sc_drivers/r_scifa/src/lld/r_rza2_scifa_lld.c ****  * @param[in] txei_priority: TXI interrupt priority
1745:../generate/sc_drivers/r_scifa/src/lld/r_rza2_scifa_lld.c ****  * @param[in] rxi_priority: RXI interrupt priority
1746:../generate/sc_drivers/r_scifa/src/lld/r_rza2_scifa_lld.c ****  * @param[in] txi_handler: TXI interrupt handler function
1747:../generate/sc_drivers/r_scifa/src/lld/r_rza2_scifa_lld.c ****  * @param[in] txei_handler: TXEI interrupt handler function
1748:../generate/sc_drivers/r_scifa/src/lld/r_rza2_scifa_lld.c ****  * @param[in] rxi_handler: RXI interrupt handler function
1749:../generate/sc_drivers/r_scifa/src/lld/r_rza2_scifa_lld.c ****  *
1750:../generate/sc_drivers/r_scifa/src/lld/r_rza2_scifa_lld.c ****  * @retval  0 DRV_SUCCESS
1751:../generate/sc_drivers/r_scifa/src/lld/r_rza2_scifa_lld.c ****  * @retval -1 DRV_ERROR
1752:../generate/sc_drivers/r_scifa/src/lld/r_rza2_scifa_lld.c ****  */
1753:../generate/sc_drivers/r_scifa/src/lld/r_rza2_scifa_lld.c **** int_t R_SCIFA_SetupInterrupts(r_channel_t channel, e_r_drv_intc_priority_t txi_priority, e_r_drv_in
1754:../generate/sc_drivers/r_scifa/src/lld/r_rza2_scifa_lld.c ****         void (*txi_handler)(uint32_t), void (*txei_handler)(uint32_t), void (*rxi_handler)(uint32_t
1755:../generate/sc_drivers/r_scifa/src/lld/r_rza2_scifa_lld.c **** {
 2733              		.loc 1 1755 0
 2734              		.cfi_startproc
 2735              		@ args = 12, pretend = 0, frame = 0
 2736              		@ frame_needed = 0, uses_anonymous_args = 0
 2737              	.LVL341:
 2738 0000 70402DE9 		push	{r4, r5, r6, lr}
 2739              		.cfi_def_cfa_offset 16
 2740              		.cfi_offset 4, -16
 2741              		.cfi_offset 5, -12
 2742              		.cfi_offset 6, -8
 2743              		.cfi_offset 14, -4
 2744 0004 0150A0E1 		mov	r5, r1
 2745 0008 0260A0E1 		mov	r6, r2
 2746 000c 0340A0E1 		mov	r4, r3
1756:../generate/sc_drivers/r_scifa/src/lld/r_rza2_scifa_lld.c ****     /* set up interrupts */
1757:../generate/sc_drivers/r_scifa/src/lld/r_rza2_scifa_lld.c ****     switch (channel)
 2747              		.loc 1 1757 0
 2748 0010 040050E3 		cmp	r0, #4
 2749 0014 00F19F97 		ldrls	pc, [pc, r0, asl #2]
 2750 0018 B30000EA 		b	.L332
 2751              	.L317:
 2752 001c 30000000 		.word	.L316
 2753 0020 BC000000 		.word	.L318
 2754 0024 48010000 		.word	.L319
 2755 0028 D4010000 		.word	.L320
 2756 002c 60020000 		.word	.L321
 2757              	.L316:
1758:../generate/sc_drivers/r_scifa/src/lld/r_rza2_scifa_lld.c ****     {
1759:../generate/sc_drivers/r_scifa/src/lld/r_rza2_scifa_lld.c ****         case R_PRV_SCIFA_CHANNEL_0:
1760:../generate/sc_drivers/r_scifa/src/lld/r_rza2_scifa_lld.c ****         {
1761:../generate/sc_drivers/r_scifa/src/lld/r_rza2_scifa_lld.c ****             /* transmit */
1762:../generate/sc_drivers/r_scifa/src/lld/r_rza2_scifa_lld.c ****             R_INTC_RegistIntFunc(INTC_ID_SCIFA_TXI0, txi_handler);
 2758              		.loc 1 1762 0
 2759 0030 10109DE5 		ldr	r1, [sp, #16]
 2760              	.LVL342:
 2761 0034 2B0100E3 		movw	r0, #299
 2762              	.LVL343:
 2763 0038 FEFFFFEB 		bl	R_INTC_RegistIntFunc
 2764              	.LVL344:
1763:../generate/sc_drivers/r_scifa/src/lld/r_rza2_scifa_lld.c ****             R_INTC_Enable(INTC_ID_SCIFA_TXI0);
 2765              		.loc 1 1763 0
 2766 003c 2B0100E3 		movw	r0, #299
 2767 0040 FEFFFFEB 		bl	R_INTC_Enable
 2768              	.LVL345:
1764:../generate/sc_drivers/r_scifa/src/lld/r_rza2_scifa_lld.c ****             R_INTC_SetPriority(INTC_ID_SCIFA_TXI0, txi_priority);
 2769              		.loc 1 1764 0
 2770 0044 0510A0E1 		mov	r1, r5
 2771 0048 2B0100E3 		movw	r0, #299
 2772 004c FEFFFFEB 		bl	R_INTC_SetPriority
 2773              	.LVL346:
1765:../generate/sc_drivers/r_scifa/src/lld/r_rza2_scifa_lld.c **** 
1766:../generate/sc_drivers/r_scifa/src/lld/r_rza2_scifa_lld.c ****             /* transmit end */
1767:../generate/sc_drivers/r_scifa/src/lld/r_rza2_scifa_lld.c ****             if (NULL != txei_handler)
 2774              		.loc 1 1767 0
 2775 0050 14309DE5 		ldr	r3, [sp, #20]
 2776 0054 000053E3 		cmp	r3, #0
 2777 0058 1100000A 		beq	.L322
1768:../generate/sc_drivers/r_scifa/src/lld/r_rza2_scifa_lld.c ****             {
1769:../generate/sc_drivers/r_scifa/src/lld/r_rza2_scifa_lld.c ****                 R_INTC_RegistIntFunc(INTC_ID_SCIFA_TEI0DRI0, txei_handler);
 2778              		.loc 1 1769 0
 2779 005c 0310A0E1 		mov	r1, r3
 2780 0060 4B0FA0E3 		mov	r0, #300
 2781 0064 FEFFFFEB 		bl	R_INTC_RegistIntFunc
 2782              	.LVL347:
1770:../generate/sc_drivers/r_scifa/src/lld/r_rza2_scifa_lld.c ****                 R_INTC_Enable(INTC_ID_SCIFA_TEI0DRI0);
 2783              		.loc 1 1770 0
 2784 0068 4B0FA0E3 		mov	r0, #300
 2785 006c FEFFFFEB 		bl	R_INTC_Enable
 2786              	.LVL348:
1771:../generate/sc_drivers/r_scifa/src/lld/r_rza2_scifa_lld.c ****                 R_INTC_SetPriority(INTC_ID_SCIFA_TEI0DRI0, txei_priority);
 2787              		.loc 1 1771 0
 2788 0070 0610A0E1 		mov	r1, r6
 2789 0074 4B0FA0E3 		mov	r0, #300
 2790 0078 FEFFFFEB 		bl	R_INTC_SetPriority
 2791              	.LVL349:
 2792              	.L323:
1772:../generate/sc_drivers/r_scifa/src/lld/r_rza2_scifa_lld.c ****             }
1773:../generate/sc_drivers/r_scifa/src/lld/r_rza2_scifa_lld.c ****             else
1774:../generate/sc_drivers/r_scifa/src/lld/r_rza2_scifa_lld.c ****             {
1775:../generate/sc_drivers/r_scifa/src/lld/r_rza2_scifa_lld.c ****                 R_INTC_RegistIntFunc(INTC_ID_SCIFA_TEI0DRI0, NULL);
1776:../generate/sc_drivers/r_scifa/src/lld/r_rza2_scifa_lld.c ****                 R_INTC_Disable(INTC_ID_SCIFA_TEI0DRI0);
1777:../generate/sc_drivers/r_scifa/src/lld/r_rza2_scifa_lld.c ****             }
1778:../generate/sc_drivers/r_scifa/src/lld/r_rza2_scifa_lld.c **** 
1779:../generate/sc_drivers/r_scifa/src/lld/r_rza2_scifa_lld.c ****             /* receive */
1780:../generate/sc_drivers/r_scifa/src/lld/r_rza2_scifa_lld.c ****             R_INTC_RegistIntFunc(INTC_ID_SCIFA_RXI0, rxi_handler);
 2793              		.loc 1 1780 0
 2794 007c 18109DE5 		ldr	r1, [sp, #24]
 2795 0080 2A0100E3 		movw	r0, #298
 2796 0084 FEFFFFEB 		bl	R_INTC_RegistIntFunc
 2797              	.LVL350:
1781:../generate/sc_drivers/r_scifa/src/lld/r_rza2_scifa_lld.c ****             R_INTC_Enable(INTC_ID_SCIFA_RXI0);
 2798              		.loc 1 1781 0
 2799 0088 2A0100E3 		movw	r0, #298
 2800 008c FEFFFFEB 		bl	R_INTC_Enable
 2801              	.LVL351:
1782:../generate/sc_drivers/r_scifa/src/lld/r_rza2_scifa_lld.c ****             R_INTC_SetPriority(INTC_ID_SCIFA_RXI0, rxi_priority);
 2802              		.loc 1 1782 0
 2803 0090 0410A0E1 		mov	r1, r4
 2804 0094 2A0100E3 		movw	r0, #298
 2805 0098 FEFFFFEB 		bl	R_INTC_SetPriority
 2806              	.LVL352:
1783:../generate/sc_drivers/r_scifa/src/lld/r_rza2_scifa_lld.c ****             break;
1784:../generate/sc_drivers/r_scifa/src/lld/r_rza2_scifa_lld.c ****         }
1785:../generate/sc_drivers/r_scifa/src/lld/r_rza2_scifa_lld.c **** 
1786:../generate/sc_drivers/r_scifa/src/lld/r_rza2_scifa_lld.c ****         case R_PRV_SCIFA_CHANNEL_1:
1787:../generate/sc_drivers/r_scifa/src/lld/r_rza2_scifa_lld.c ****         {
1788:../generate/sc_drivers/r_scifa/src/lld/r_rza2_scifa_lld.c ****             /* transmit */
1789:../generate/sc_drivers/r_scifa/src/lld/r_rza2_scifa_lld.c ****             R_INTC_RegistIntFunc(INTC_ID_SCIFA_TXI1, txi_handler);
1790:../generate/sc_drivers/r_scifa/src/lld/r_rza2_scifa_lld.c ****             R_INTC_Enable(INTC_ID_SCIFA_TXI1);
1791:../generate/sc_drivers/r_scifa/src/lld/r_rza2_scifa_lld.c ****             R_INTC_SetPriority(INTC_ID_SCIFA_TXI1,  txi_priority);
1792:../generate/sc_drivers/r_scifa/src/lld/r_rza2_scifa_lld.c **** 
1793:../generate/sc_drivers/r_scifa/src/lld/r_rza2_scifa_lld.c ****             /* transmit end */
1794:../generate/sc_drivers/r_scifa/src/lld/r_rza2_scifa_lld.c ****             if (NULL != txei_handler)
1795:../generate/sc_drivers/r_scifa/src/lld/r_rza2_scifa_lld.c ****             {
1796:../generate/sc_drivers/r_scifa/src/lld/r_rza2_scifa_lld.c ****                 R_INTC_RegistIntFunc(INTC_ID_SCIFA_TEI1DRI1, txei_handler);
1797:../generate/sc_drivers/r_scifa/src/lld/r_rza2_scifa_lld.c ****                 R_INTC_Enable(INTC_ID_SCIFA_TEI1DRI1);
1798:../generate/sc_drivers/r_scifa/src/lld/r_rza2_scifa_lld.c ****                 R_INTC_SetPriority(INTC_ID_SCIFA_TEI1DRI1, txei_priority);
1799:../generate/sc_drivers/r_scifa/src/lld/r_rza2_scifa_lld.c ****             }
1800:../generate/sc_drivers/r_scifa/src/lld/r_rza2_scifa_lld.c ****             else
1801:../generate/sc_drivers/r_scifa/src/lld/r_rza2_scifa_lld.c ****             {
1802:../generate/sc_drivers/r_scifa/src/lld/r_rza2_scifa_lld.c ****                 R_INTC_RegistIntFunc(INTC_ID_SCIFA_TEI1DRI1, NULL);
1803:../generate/sc_drivers/r_scifa/src/lld/r_rza2_scifa_lld.c ****                 R_INTC_Disable(INTC_ID_SCIFA_TEI1DRI1);
1804:../generate/sc_drivers/r_scifa/src/lld/r_rza2_scifa_lld.c ****             }
1805:../generate/sc_drivers/r_scifa/src/lld/r_rza2_scifa_lld.c **** 
1806:../generate/sc_drivers/r_scifa/src/lld/r_rza2_scifa_lld.c ****             /* receive */
1807:../generate/sc_drivers/r_scifa/src/lld/r_rza2_scifa_lld.c ****             R_INTC_RegistIntFunc(INTC_ID_SCIFA_RXI1, rxi_handler);
1808:../generate/sc_drivers/r_scifa/src/lld/r_rza2_scifa_lld.c ****             R_INTC_Enable(INTC_ID_SCIFA_RXI1);
1809:../generate/sc_drivers/r_scifa/src/lld/r_rza2_scifa_lld.c ****             R_INTC_SetPriority(INTC_ID_SCIFA_RXI1, rxi_priority);
1810:../generate/sc_drivers/r_scifa/src/lld/r_rza2_scifa_lld.c ****             break;
1811:../generate/sc_drivers/r_scifa/src/lld/r_rza2_scifa_lld.c ****         }
1812:../generate/sc_drivers/r_scifa/src/lld/r_rza2_scifa_lld.c **** 
1813:../generate/sc_drivers/r_scifa/src/lld/r_rza2_scifa_lld.c ****         case R_PRV_SCIFA_CHANNEL_2:
1814:../generate/sc_drivers/r_scifa/src/lld/r_rza2_scifa_lld.c ****         {
1815:../generate/sc_drivers/r_scifa/src/lld/r_rza2_scifa_lld.c ****             /* transmit */
1816:../generate/sc_drivers/r_scifa/src/lld/r_rza2_scifa_lld.c ****             R_INTC_RegistIntFunc(INTC_ID_SCIFA_TXI2, txi_handler);
1817:../generate/sc_drivers/r_scifa/src/lld/r_rza2_scifa_lld.c ****             R_INTC_Enable(INTC_ID_SCIFA_TXI2);
1818:../generate/sc_drivers/r_scifa/src/lld/r_rza2_scifa_lld.c ****             R_INTC_SetPriority(INTC_ID_SCIFA_TXI2,  txi_priority);
1819:../generate/sc_drivers/r_scifa/src/lld/r_rza2_scifa_lld.c **** 
1820:../generate/sc_drivers/r_scifa/src/lld/r_rza2_scifa_lld.c ****             /* transmit end */
1821:../generate/sc_drivers/r_scifa/src/lld/r_rza2_scifa_lld.c ****             if (NULL != txei_handler)
1822:../generate/sc_drivers/r_scifa/src/lld/r_rza2_scifa_lld.c ****             {
1823:../generate/sc_drivers/r_scifa/src/lld/r_rza2_scifa_lld.c ****                 R_INTC_RegistIntFunc(INTC_ID_SCIFA_TEI2DRI2, txei_handler);
1824:../generate/sc_drivers/r_scifa/src/lld/r_rza2_scifa_lld.c ****                 R_INTC_Enable(INTC_ID_SCIFA_TEI2DRI2);
1825:../generate/sc_drivers/r_scifa/src/lld/r_rza2_scifa_lld.c ****                 R_INTC_SetPriority(INTC_ID_SCIFA_TEI2DRI2, txei_priority);
1826:../generate/sc_drivers/r_scifa/src/lld/r_rza2_scifa_lld.c ****             }
1827:../generate/sc_drivers/r_scifa/src/lld/r_rza2_scifa_lld.c ****             else
1828:../generate/sc_drivers/r_scifa/src/lld/r_rza2_scifa_lld.c ****             {
1829:../generate/sc_drivers/r_scifa/src/lld/r_rza2_scifa_lld.c ****                 R_INTC_RegistIntFunc(INTC_ID_SCIFA_TEI2DRI2, NULL);
1830:../generate/sc_drivers/r_scifa/src/lld/r_rza2_scifa_lld.c ****                 R_INTC_Disable(INTC_ID_SCIFA_TEI2DRI2);
1831:../generate/sc_drivers/r_scifa/src/lld/r_rza2_scifa_lld.c ****             }
1832:../generate/sc_drivers/r_scifa/src/lld/r_rza2_scifa_lld.c **** 
1833:../generate/sc_drivers/r_scifa/src/lld/r_rza2_scifa_lld.c ****             /* receive */
1834:../generate/sc_drivers/r_scifa/src/lld/r_rza2_scifa_lld.c ****             R_INTC_RegistIntFunc(INTC_ID_SCIFA_RXI2, rxi_handler);
1835:../generate/sc_drivers/r_scifa/src/lld/r_rza2_scifa_lld.c ****             R_INTC_Enable(INTC_ID_SCIFA_RXI2);
1836:../generate/sc_drivers/r_scifa/src/lld/r_rza2_scifa_lld.c ****             R_INTC_SetPriority(INTC_ID_SCIFA_RXI2, rxi_priority);
1837:../generate/sc_drivers/r_scifa/src/lld/r_rza2_scifa_lld.c ****             break;
1838:../generate/sc_drivers/r_scifa/src/lld/r_rza2_scifa_lld.c ****         }
1839:../generate/sc_drivers/r_scifa/src/lld/r_rza2_scifa_lld.c **** 
1840:../generate/sc_drivers/r_scifa/src/lld/r_rza2_scifa_lld.c ****         case R_PRV_SCIFA_CHANNEL_3:
1841:../generate/sc_drivers/r_scifa/src/lld/r_rza2_scifa_lld.c ****         {
1842:../generate/sc_drivers/r_scifa/src/lld/r_rza2_scifa_lld.c ****             /* transmit */
1843:../generate/sc_drivers/r_scifa/src/lld/r_rza2_scifa_lld.c ****             R_INTC_RegistIntFunc(INTC_ID_SCIFA_TXI3, txi_handler);
1844:../generate/sc_drivers/r_scifa/src/lld/r_rza2_scifa_lld.c ****             R_INTC_Enable(INTC_ID_SCIFA_TXI3);
1845:../generate/sc_drivers/r_scifa/src/lld/r_rza2_scifa_lld.c ****             R_INTC_SetPriority(INTC_ID_SCIFA_TXI3,  txi_priority);
1846:../generate/sc_drivers/r_scifa/src/lld/r_rza2_scifa_lld.c **** 
1847:../generate/sc_drivers/r_scifa/src/lld/r_rza2_scifa_lld.c ****             /* transmit end */
1848:../generate/sc_drivers/r_scifa/src/lld/r_rza2_scifa_lld.c ****             if (NULL != txei_handler)
1849:../generate/sc_drivers/r_scifa/src/lld/r_rza2_scifa_lld.c ****             {
1850:../generate/sc_drivers/r_scifa/src/lld/r_rza2_scifa_lld.c ****                 R_INTC_RegistIntFunc(INTC_ID_SCIFA_TEI3DRI3, txei_handler);
1851:../generate/sc_drivers/r_scifa/src/lld/r_rza2_scifa_lld.c ****                 R_INTC_Enable(INTC_ID_SCIFA_TEI3DRI3);
1852:../generate/sc_drivers/r_scifa/src/lld/r_rza2_scifa_lld.c ****                 R_INTC_SetPriority(INTC_ID_SCIFA_TEI3DRI3, txei_priority);
1853:../generate/sc_drivers/r_scifa/src/lld/r_rza2_scifa_lld.c ****             }
1854:../generate/sc_drivers/r_scifa/src/lld/r_rza2_scifa_lld.c ****             else
1855:../generate/sc_drivers/r_scifa/src/lld/r_rza2_scifa_lld.c ****             {
1856:../generate/sc_drivers/r_scifa/src/lld/r_rza2_scifa_lld.c ****                 R_INTC_RegistIntFunc(INTC_ID_SCIFA_TEI3DRI3, NULL);
1857:../generate/sc_drivers/r_scifa/src/lld/r_rza2_scifa_lld.c ****                 R_INTC_Disable(INTC_ID_SCIFA_TEI3DRI3);
1858:../generate/sc_drivers/r_scifa/src/lld/r_rza2_scifa_lld.c ****             }
1859:../generate/sc_drivers/r_scifa/src/lld/r_rza2_scifa_lld.c **** 
1860:../generate/sc_drivers/r_scifa/src/lld/r_rza2_scifa_lld.c ****             /* receive */
1861:../generate/sc_drivers/r_scifa/src/lld/r_rza2_scifa_lld.c ****             R_INTC_RegistIntFunc(INTC_ID_SCIFA_RXI3, rxi_handler);
1862:../generate/sc_drivers/r_scifa/src/lld/r_rza2_scifa_lld.c ****             R_INTC_Enable(INTC_ID_SCIFA_RXI3);
1863:../generate/sc_drivers/r_scifa/src/lld/r_rza2_scifa_lld.c ****             R_INTC_SetPriority(INTC_ID_SCIFA_RXI3, rxi_priority);
1864:../generate/sc_drivers/r_scifa/src/lld/r_rza2_scifa_lld.c ****             break;
1865:../generate/sc_drivers/r_scifa/src/lld/r_rza2_scifa_lld.c ****         }
1866:../generate/sc_drivers/r_scifa/src/lld/r_rza2_scifa_lld.c **** 
1867:../generate/sc_drivers/r_scifa/src/lld/r_rza2_scifa_lld.c ****         case R_PRV_SCIFA_CHANNEL_4:
1868:../generate/sc_drivers/r_scifa/src/lld/r_rza2_scifa_lld.c ****         {
1869:../generate/sc_drivers/r_scifa/src/lld/r_rza2_scifa_lld.c ****             /* transmit */
1870:../generate/sc_drivers/r_scifa/src/lld/r_rza2_scifa_lld.c ****             R_INTC_RegistIntFunc(INTC_ID_SCIFA_TXI4, txi_handler);
1871:../generate/sc_drivers/r_scifa/src/lld/r_rza2_scifa_lld.c ****             R_INTC_Enable(INTC_ID_SCIFA_TXI4);
1872:../generate/sc_drivers/r_scifa/src/lld/r_rza2_scifa_lld.c ****             R_INTC_SetPriority(INTC_ID_SCIFA_TXI4, txi_priority);
1873:../generate/sc_drivers/r_scifa/src/lld/r_rza2_scifa_lld.c **** 
1874:../generate/sc_drivers/r_scifa/src/lld/r_rza2_scifa_lld.c ****             /* transmit end */
1875:../generate/sc_drivers/r_scifa/src/lld/r_rza2_scifa_lld.c ****             if (NULL != txei_handler)
1876:../generate/sc_drivers/r_scifa/src/lld/r_rza2_scifa_lld.c ****             {
1877:../generate/sc_drivers/r_scifa/src/lld/r_rza2_scifa_lld.c ****                 R_INTC_RegistIntFunc(INTC_ID_SCIFA_TEI4DRI4, txei_handler);
1878:../generate/sc_drivers/r_scifa/src/lld/r_rza2_scifa_lld.c ****                 R_INTC_Enable(INTC_ID_SCIFA_TEI4DRI4);
1879:../generate/sc_drivers/r_scifa/src/lld/r_rza2_scifa_lld.c ****                 R_INTC_SetPriority(INTC_ID_SCIFA_TEI4DRI4, txei_priority);
1880:../generate/sc_drivers/r_scifa/src/lld/r_rza2_scifa_lld.c ****             }
1881:../generate/sc_drivers/r_scifa/src/lld/r_rza2_scifa_lld.c ****             else
1882:../generate/sc_drivers/r_scifa/src/lld/r_rza2_scifa_lld.c ****             {
1883:../generate/sc_drivers/r_scifa/src/lld/r_rza2_scifa_lld.c ****                 R_INTC_RegistIntFunc(INTC_ID_SCIFA_TEI4DRI4, NULL);
1884:../generate/sc_drivers/r_scifa/src/lld/r_rza2_scifa_lld.c ****                 R_INTC_Disable(INTC_ID_SCIFA_TEI4DRI4);
1885:../generate/sc_drivers/r_scifa/src/lld/r_rza2_scifa_lld.c ****             }
1886:../generate/sc_drivers/r_scifa/src/lld/r_rza2_scifa_lld.c **** 
1887:../generate/sc_drivers/r_scifa/src/lld/r_rza2_scifa_lld.c ****             /* receive */
1888:../generate/sc_drivers/r_scifa/src/lld/r_rza2_scifa_lld.c ****             R_INTC_RegistIntFunc(INTC_ID_SCIFA_RXI4, rxi_handler);
1889:../generate/sc_drivers/r_scifa/src/lld/r_rza2_scifa_lld.c ****             R_INTC_Enable(INTC_ID_SCIFA_RXI4);
1890:../generate/sc_drivers/r_scifa/src/lld/r_rza2_scifa_lld.c ****             R_INTC_SetPriority(INTC_ID_SCIFA_RXI4, rxi_priority);
1891:../generate/sc_drivers/r_scifa/src/lld/r_rza2_scifa_lld.c ****             break;
1892:../generate/sc_drivers/r_scifa/src/lld/r_rza2_scifa_lld.c ****         }
1893:../generate/sc_drivers/r_scifa/src/lld/r_rza2_scifa_lld.c **** 
1894:../generate/sc_drivers/r_scifa/src/lld/r_rza2_scifa_lld.c ****         default:
1895:../generate/sc_drivers/r_scifa/src/lld/r_rza2_scifa_lld.c ****         {
1896:../generate/sc_drivers/r_scifa/src/lld/r_rza2_scifa_lld.c ****             return (DRV_ERROR);
1897:../generate/sc_drivers/r_scifa/src/lld/r_rza2_scifa_lld.c ****         }
1898:../generate/sc_drivers/r_scifa/src/lld/r_rza2_scifa_lld.c ****     }
1899:../generate/sc_drivers/r_scifa/src/lld/r_rza2_scifa_lld.c **** 
1900:../generate/sc_drivers/r_scifa/src/lld/r_rza2_scifa_lld.c ****     return (DRV_SUCCESS);
 2807              		.loc 1 1900 0
 2808 009c 0000A0E3 		mov	r0, #0
1783:../generate/sc_drivers/r_scifa/src/lld/r_rza2_scifa_lld.c ****             break;
 2809              		.loc 1 1783 0
 2810 00a0 7080BDE8 		pop	{r4, r5, r6, pc}
 2811              	.L322:
1775:../generate/sc_drivers/r_scifa/src/lld/r_rza2_scifa_lld.c ****                 R_INTC_Disable(INTC_ID_SCIFA_TEI0DRI0);
 2812              		.loc 1 1775 0
 2813 00a4 0010A0E3 		mov	r1, #0
 2814 00a8 4B0FA0E3 		mov	r0, #300
 2815 00ac FEFFFFEB 		bl	R_INTC_RegistIntFunc
 2816              	.LVL353:
1776:../generate/sc_drivers/r_scifa/src/lld/r_rza2_scifa_lld.c ****             }
 2817              		.loc 1 1776 0
 2818 00b0 4B0FA0E3 		mov	r0, #300
 2819 00b4 FEFFFFEB 		bl	R_INTC_Disable
 2820              	.LVL354:
 2821 00b8 EFFFFFEA 		b	.L323
 2822              	.LVL355:
 2823              	.L318:
1789:../generate/sc_drivers/r_scifa/src/lld/r_rza2_scifa_lld.c ****             R_INTC_Enable(INTC_ID_SCIFA_TXI1);
 2824              		.loc 1 1789 0
 2825 00bc 10109DE5 		ldr	r1, [sp, #16]
 2826              	.LVL356:
 2827 00c0 310100E3 		movw	r0, #305
 2828              	.LVL357:
 2829 00c4 FEFFFFEB 		bl	R_INTC_RegistIntFunc
 2830              	.LVL358:
1790:../generate/sc_drivers/r_scifa/src/lld/r_rza2_scifa_lld.c ****             R_INTC_SetPriority(INTC_ID_SCIFA_TXI1,  txi_priority);
 2831              		.loc 1 1790 0
 2832 00c8 310100E3 		movw	r0, #305
 2833 00cc FEFFFFEB 		bl	R_INTC_Enable
 2834              	.LVL359:
1791:../generate/sc_drivers/r_scifa/src/lld/r_rza2_scifa_lld.c **** 
 2835              		.loc 1 1791 0
 2836 00d0 0510A0E1 		mov	r1, r5
 2837 00d4 310100E3 		movw	r0, #305
 2838 00d8 FEFFFFEB 		bl	R_INTC_SetPriority
 2839              	.LVL360:
1794:../generate/sc_drivers/r_scifa/src/lld/r_rza2_scifa_lld.c ****             {
 2840              		.loc 1 1794 0
 2841 00dc 14309DE5 		ldr	r3, [sp, #20]
 2842 00e0 000053E3 		cmp	r3, #0
 2843 00e4 1100000A 		beq	.L324
1796:../generate/sc_drivers/r_scifa/src/lld/r_rza2_scifa_lld.c ****                 R_INTC_Enable(INTC_ID_SCIFA_TEI1DRI1);
 2844              		.loc 1 1796 0
 2845 00e8 0310A0E1 		mov	r1, r3
 2846 00ec 320100E3 		movw	r0, #306
 2847 00f0 FEFFFFEB 		bl	R_INTC_RegistIntFunc
 2848              	.LVL361:
1797:../generate/sc_drivers/r_scifa/src/lld/r_rza2_scifa_lld.c ****                 R_INTC_SetPriority(INTC_ID_SCIFA_TEI1DRI1, txei_priority);
 2849              		.loc 1 1797 0
 2850 00f4 320100E3 		movw	r0, #306
 2851 00f8 FEFFFFEB 		bl	R_INTC_Enable
 2852              	.LVL362:
1798:../generate/sc_drivers/r_scifa/src/lld/r_rza2_scifa_lld.c ****             }
 2853              		.loc 1 1798 0
 2854 00fc 0610A0E1 		mov	r1, r6
 2855 0100 320100E3 		movw	r0, #306
 2856 0104 FEFFFFEB 		bl	R_INTC_SetPriority
 2857              	.LVL363:
 2858              	.L325:
1807:../generate/sc_drivers/r_scifa/src/lld/r_rza2_scifa_lld.c ****             R_INTC_Enable(INTC_ID_SCIFA_RXI1);
 2859              		.loc 1 1807 0
 2860 0108 18109DE5 		ldr	r1, [sp, #24]
 2861 010c 130EA0E3 		mov	r0, #304
 2862 0110 FEFFFFEB 		bl	R_INTC_RegistIntFunc
 2863              	.LVL364:
1808:../generate/sc_drivers/r_scifa/src/lld/r_rza2_scifa_lld.c ****             R_INTC_SetPriority(INTC_ID_SCIFA_RXI1, rxi_priority);
 2864              		.loc 1 1808 0
 2865 0114 130EA0E3 		mov	r0, #304
 2866 0118 FEFFFFEB 		bl	R_INTC_Enable
 2867              	.LVL365:
1809:../generate/sc_drivers/r_scifa/src/lld/r_rza2_scifa_lld.c ****             break;
 2868              		.loc 1 1809 0
 2869 011c 0410A0E1 		mov	r1, r4
 2870 0120 130EA0E3 		mov	r0, #304
 2871 0124 FEFFFFEB 		bl	R_INTC_SetPriority
 2872              	.LVL366:
 2873              		.loc 1 1900 0
 2874 0128 0000A0E3 		mov	r0, #0
1810:../generate/sc_drivers/r_scifa/src/lld/r_rza2_scifa_lld.c ****         }
 2875              		.loc 1 1810 0
 2876 012c 7080BDE8 		pop	{r4, r5, r6, pc}
 2877              	.L324:
1802:../generate/sc_drivers/r_scifa/src/lld/r_rza2_scifa_lld.c ****                 R_INTC_Disable(INTC_ID_SCIFA_TEI1DRI1);
 2878              		.loc 1 1802 0
 2879 0130 0010A0E3 		mov	r1, #0
 2880 0134 320100E3 		movw	r0, #306
 2881 0138 FEFFFFEB 		bl	R_INTC_RegistIntFunc
 2882              	.LVL367:
1803:../generate/sc_drivers/r_scifa/src/lld/r_rza2_scifa_lld.c ****             }
 2883              		.loc 1 1803 0
 2884 013c 320100E3 		movw	r0, #306
 2885 0140 FEFFFFEB 		bl	R_INTC_Disable
 2886              	.LVL368:
 2887 0144 EFFFFFEA 		b	.L325
 2888              	.LVL369:
 2889              	.L319:
1816:../generate/sc_drivers/r_scifa/src/lld/r_rza2_scifa_lld.c ****             R_INTC_Enable(INTC_ID_SCIFA_TXI2);
 2890              		.loc 1 1816 0
 2891 0148 10109DE5 		ldr	r1, [sp, #16]
 2892              	.LVL370:
 2893 014c 370100E3 		movw	r0, #311
 2894              	.LVL371:
 2895 0150 FEFFFFEB 		bl	R_INTC_RegistIntFunc
 2896              	.LVL372:
1817:../generate/sc_drivers/r_scifa/src/lld/r_rza2_scifa_lld.c ****             R_INTC_SetPriority(INTC_ID_SCIFA_TXI2,  txi_priority);
 2897              		.loc 1 1817 0
 2898 0154 370100E3 		movw	r0, #311
 2899 0158 FEFFFFEB 		bl	R_INTC_Enable
 2900              	.LVL373:
1818:../generate/sc_drivers/r_scifa/src/lld/r_rza2_scifa_lld.c **** 
 2901              		.loc 1 1818 0
 2902 015c 0510A0E1 		mov	r1, r5
 2903 0160 370100E3 		movw	r0, #311
 2904 0164 FEFFFFEB 		bl	R_INTC_SetPriority
 2905              	.LVL374:
1821:../generate/sc_drivers/r_scifa/src/lld/r_rza2_scifa_lld.c ****             {
 2906              		.loc 1 1821 0
 2907 0168 14309DE5 		ldr	r3, [sp, #20]
 2908 016c 000053E3 		cmp	r3, #0
 2909 0170 1100000A 		beq	.L326
1823:../generate/sc_drivers/r_scifa/src/lld/r_rza2_scifa_lld.c ****                 R_INTC_Enable(INTC_ID_SCIFA_TEI2DRI2);
 2910              		.loc 1 1823 0
 2911 0174 0310A0E1 		mov	r1, r3
 2912 0178 4E0FA0E3 		mov	r0, #312
 2913 017c FEFFFFEB 		bl	R_INTC_RegistIntFunc
 2914              	.LVL375:
1824:../generate/sc_drivers/r_scifa/src/lld/r_rza2_scifa_lld.c ****                 R_INTC_SetPriority(INTC_ID_SCIFA_TEI2DRI2, txei_priority);
 2915              		.loc 1 1824 0
 2916 0180 4E0FA0E3 		mov	r0, #312
 2917 0184 FEFFFFEB 		bl	R_INTC_Enable
 2918              	.LVL376:
1825:../generate/sc_drivers/r_scifa/src/lld/r_rza2_scifa_lld.c ****             }
 2919              		.loc 1 1825 0
 2920 0188 0610A0E1 		mov	r1, r6
 2921 018c 4E0FA0E3 		mov	r0, #312
 2922 0190 FEFFFFEB 		bl	R_INTC_SetPriority
 2923              	.LVL377:
 2924              	.L327:
1834:../generate/sc_drivers/r_scifa/src/lld/r_rza2_scifa_lld.c ****             R_INTC_Enable(INTC_ID_SCIFA_RXI2);
 2925              		.loc 1 1834 0
 2926 0194 18109DE5 		ldr	r1, [sp, #24]
 2927 0198 360100E3 		movw	r0, #310
 2928 019c FEFFFFEB 		bl	R_INTC_RegistIntFunc
 2929              	.LVL378:
1835:../generate/sc_drivers/r_scifa/src/lld/r_rza2_scifa_lld.c ****             R_INTC_SetPriority(INTC_ID_SCIFA_RXI2, rxi_priority);
 2930              		.loc 1 1835 0
 2931 01a0 360100E3 		movw	r0, #310
 2932 01a4 FEFFFFEB 		bl	R_INTC_Enable
 2933              	.LVL379:
1836:../generate/sc_drivers/r_scifa/src/lld/r_rza2_scifa_lld.c ****             break;
 2934              		.loc 1 1836 0
 2935 01a8 0410A0E1 		mov	r1, r4
 2936 01ac 360100E3 		movw	r0, #310
 2937 01b0 FEFFFFEB 		bl	R_INTC_SetPriority
 2938              	.LVL380:
 2939              		.loc 1 1900 0
 2940 01b4 0000A0E3 		mov	r0, #0
1837:../generate/sc_drivers/r_scifa/src/lld/r_rza2_scifa_lld.c ****         }
 2941              		.loc 1 1837 0
 2942 01b8 7080BDE8 		pop	{r4, r5, r6, pc}
 2943              	.L326:
1829:../generate/sc_drivers/r_scifa/src/lld/r_rza2_scifa_lld.c ****                 R_INTC_Disable(INTC_ID_SCIFA_TEI2DRI2);
 2944              		.loc 1 1829 0
 2945 01bc 0010A0E3 		mov	r1, #0
 2946 01c0 4E0FA0E3 		mov	r0, #312
 2947 01c4 FEFFFFEB 		bl	R_INTC_RegistIntFunc
 2948              	.LVL381:
1830:../generate/sc_drivers/r_scifa/src/lld/r_rza2_scifa_lld.c ****             }
 2949              		.loc 1 1830 0
 2950 01c8 4E0FA0E3 		mov	r0, #312
 2951 01cc FEFFFFEB 		bl	R_INTC_Disable
 2952              	.LVL382:
 2953 01d0 EFFFFFEA 		b	.L327
 2954              	.LVL383:
 2955              	.L320:
1843:../generate/sc_drivers/r_scifa/src/lld/r_rza2_scifa_lld.c ****             R_INTC_Enable(INTC_ID_SCIFA_TXI3);
 2956              		.loc 1 1843 0
 2957 01d4 10109DE5 		ldr	r1, [sp, #16]
 2958              	.LVL384:
 2959 01d8 3D0100E3 		movw	r0, #317
 2960              	.LVL385:
 2961 01dc FEFFFFEB 		bl	R_INTC_RegistIntFunc
 2962              	.LVL386:
1844:../generate/sc_drivers/r_scifa/src/lld/r_rza2_scifa_lld.c ****             R_INTC_SetPriority(INTC_ID_SCIFA_TXI3,  txi_priority);
 2963              		.loc 1 1844 0
 2964 01e0 3D0100E3 		movw	r0, #317
 2965 01e4 FEFFFFEB 		bl	R_INTC_Enable
 2966              	.LVL387:
1845:../generate/sc_drivers/r_scifa/src/lld/r_rza2_scifa_lld.c **** 
 2967              		.loc 1 1845 0
 2968 01e8 0510A0E1 		mov	r1, r5
 2969 01ec 3D0100E3 		movw	r0, #317
 2970 01f0 FEFFFFEB 		bl	R_INTC_SetPriority
 2971              	.LVL388:
1848:../generate/sc_drivers/r_scifa/src/lld/r_rza2_scifa_lld.c ****             {
 2972              		.loc 1 1848 0
 2973 01f4 14309DE5 		ldr	r3, [sp, #20]
 2974 01f8 000053E3 		cmp	r3, #0
 2975 01fc 1100000A 		beq	.L328
1850:../generate/sc_drivers/r_scifa/src/lld/r_rza2_scifa_lld.c ****                 R_INTC_Enable(INTC_ID_SCIFA_TEI3DRI3);
 2976              		.loc 1 1850 0
 2977 0200 0310A0E1 		mov	r1, r3
 2978 0204 3E0100E3 		movw	r0, #318
 2979 0208 FEFFFFEB 		bl	R_INTC_RegistIntFunc
 2980              	.LVL389:
1851:../generate/sc_drivers/r_scifa/src/lld/r_rza2_scifa_lld.c ****                 R_INTC_SetPriority(INTC_ID_SCIFA_TEI3DRI3, txei_priority);
 2981              		.loc 1 1851 0
 2982 020c 3E0100E3 		movw	r0, #318
 2983 0210 FEFFFFEB 		bl	R_INTC_Enable
 2984              	.LVL390:
1852:../generate/sc_drivers/r_scifa/src/lld/r_rza2_scifa_lld.c ****             }
 2985              		.loc 1 1852 0
 2986 0214 0610A0E1 		mov	r1, r6
 2987 0218 3E0100E3 		movw	r0, #318
 2988 021c FEFFFFEB 		bl	R_INTC_SetPriority
 2989              	.LVL391:
 2990              	.L329:
1861:../generate/sc_drivers/r_scifa/src/lld/r_rza2_scifa_lld.c ****             R_INTC_Enable(INTC_ID_SCIFA_RXI3);
 2991              		.loc 1 1861 0
 2992 0220 18109DE5 		ldr	r1, [sp, #24]
 2993 0224 4F0FA0E3 		mov	r0, #316
 2994 0228 FEFFFFEB 		bl	R_INTC_RegistIntFunc
 2995              	.LVL392:
1862:../generate/sc_drivers/r_scifa/src/lld/r_rza2_scifa_lld.c ****             R_INTC_SetPriority(INTC_ID_SCIFA_RXI3, rxi_priority);
 2996              		.loc 1 1862 0
 2997 022c 4F0FA0E3 		mov	r0, #316
 2998 0230 FEFFFFEB 		bl	R_INTC_Enable
 2999              	.LVL393:
1863:../generate/sc_drivers/r_scifa/src/lld/r_rza2_scifa_lld.c ****             break;
 3000              		.loc 1 1863 0
 3001 0234 0410A0E1 		mov	r1, r4
 3002 0238 4F0FA0E3 		mov	r0, #316
 3003 023c FEFFFFEB 		bl	R_INTC_SetPriority
 3004              	.LVL394:
 3005              		.loc 1 1900 0
 3006 0240 0000A0E3 		mov	r0, #0
1864:../generate/sc_drivers/r_scifa/src/lld/r_rza2_scifa_lld.c ****         }
 3007              		.loc 1 1864 0
 3008 0244 7080BDE8 		pop	{r4, r5, r6, pc}
 3009              	.L328:
1856:../generate/sc_drivers/r_scifa/src/lld/r_rza2_scifa_lld.c ****                 R_INTC_Disable(INTC_ID_SCIFA_TEI3DRI3);
 3010              		.loc 1 1856 0
 3011 0248 0010A0E3 		mov	r1, #0
 3012 024c 3E0100E3 		movw	r0, #318
 3013 0250 FEFFFFEB 		bl	R_INTC_RegistIntFunc
 3014              	.LVL395:
1857:../generate/sc_drivers/r_scifa/src/lld/r_rza2_scifa_lld.c ****             }
 3015              		.loc 1 1857 0
 3016 0254 3E0100E3 		movw	r0, #318
 3017 0258 FEFFFFEB 		bl	R_INTC_Disable
 3018              	.LVL396:
 3019 025c EFFFFFEA 		b	.L329
 3020              	.LVL397:
 3021              	.L321:
1870:../generate/sc_drivers/r_scifa/src/lld/r_rza2_scifa_lld.c ****             R_INTC_Enable(INTC_ID_SCIFA_TXI4);
 3022              		.loc 1 1870 0
 3023 0260 10109DE5 		ldr	r1, [sp, #16]
 3024              	.LVL398:
 3025 0264 430100E3 		movw	r0, #323
 3026              	.LVL399:
 3027 0268 FEFFFFEB 		bl	R_INTC_RegistIntFunc
 3028              	.LVL400:
1871:../generate/sc_drivers/r_scifa/src/lld/r_rza2_scifa_lld.c ****             R_INTC_SetPriority(INTC_ID_SCIFA_TXI4, txi_priority);
 3029              		.loc 1 1871 0
 3030 026c 430100E3 		movw	r0, #323
 3031 0270 FEFFFFEB 		bl	R_INTC_Enable
 3032              	.LVL401:
1872:../generate/sc_drivers/r_scifa/src/lld/r_rza2_scifa_lld.c **** 
 3033              		.loc 1 1872 0
 3034 0274 0510A0E1 		mov	r1, r5
 3035 0278 430100E3 		movw	r0, #323
 3036 027c FEFFFFEB 		bl	R_INTC_SetPriority
 3037              	.LVL402:
1875:../generate/sc_drivers/r_scifa/src/lld/r_rza2_scifa_lld.c ****             {
 3038              		.loc 1 1875 0
 3039 0280 14309DE5 		ldr	r3, [sp, #20]
 3040 0284 000053E3 		cmp	r3, #0
 3041 0288 1100000A 		beq	.L330
1877:../generate/sc_drivers/r_scifa/src/lld/r_rza2_scifa_lld.c ****                 R_INTC_Enable(INTC_ID_SCIFA_TEI4DRI4);
 3042              		.loc 1 1877 0
 3043 028c 0310A0E1 		mov	r1, r3
 3044 0290 510FA0E3 		mov	r0, #324
 3045 0294 FEFFFFEB 		bl	R_INTC_RegistIntFunc
 3046              	.LVL403:
1878:../generate/sc_drivers/r_scifa/src/lld/r_rza2_scifa_lld.c ****                 R_INTC_SetPriority(INTC_ID_SCIFA_TEI4DRI4, txei_priority);
 3047              		.loc 1 1878 0
 3048 0298 510FA0E3 		mov	r0, #324
 3049 029c FEFFFFEB 		bl	R_INTC_Enable
 3050              	.LVL404:
1879:../generate/sc_drivers/r_scifa/src/lld/r_rza2_scifa_lld.c ****             }
 3051              		.loc 1 1879 0
 3052 02a0 0610A0E1 		mov	r1, r6
 3053 02a4 510FA0E3 		mov	r0, #324
 3054 02a8 FEFFFFEB 		bl	R_INTC_SetPriority
 3055              	.LVL405:
 3056              	.L331:
1888:../generate/sc_drivers/r_scifa/src/lld/r_rza2_scifa_lld.c ****             R_INTC_Enable(INTC_ID_SCIFA_RXI4);
 3057              		.loc 1 1888 0
 3058 02ac 18109DE5 		ldr	r1, [sp, #24]
 3059 02b0 420100E3 		movw	r0, #322
 3060 02b4 FEFFFFEB 		bl	R_INTC_RegistIntFunc
 3061              	.LVL406:
1889:../generate/sc_drivers/r_scifa/src/lld/r_rza2_scifa_lld.c ****             R_INTC_SetPriority(INTC_ID_SCIFA_RXI4, rxi_priority);
 3062              		.loc 1 1889 0
 3063 02b8 420100E3 		movw	r0, #322
 3064 02bc FEFFFFEB 		bl	R_INTC_Enable
 3065              	.LVL407:
1890:../generate/sc_drivers/r_scifa/src/lld/r_rza2_scifa_lld.c ****             break;
 3066              		.loc 1 1890 0
 3067 02c0 0410A0E1 		mov	r1, r4
 3068 02c4 420100E3 		movw	r0, #322
 3069 02c8 FEFFFFEB 		bl	R_INTC_SetPriority
 3070              	.LVL408:
 3071              		.loc 1 1900 0
 3072 02cc 0000A0E3 		mov	r0, #0
1891:../generate/sc_drivers/r_scifa/src/lld/r_rza2_scifa_lld.c ****         }
 3073              		.loc 1 1891 0
 3074 02d0 7080BDE8 		pop	{r4, r5, r6, pc}
 3075              	.L330:
1883:../generate/sc_drivers/r_scifa/src/lld/r_rza2_scifa_lld.c ****                 R_INTC_Disable(INTC_ID_SCIFA_TEI4DRI4);
 3076              		.loc 1 1883 0
 3077 02d4 0010A0E3 		mov	r1, #0
 3078 02d8 510FA0E3 		mov	r0, #324
 3079 02dc FEFFFFEB 		bl	R_INTC_RegistIntFunc
 3080              	.LVL409:
1884:../generate/sc_drivers/r_scifa/src/lld/r_rza2_scifa_lld.c ****             }
 3081              		.loc 1 1884 0
 3082 02e0 510FA0E3 		mov	r0, #324
 3083 02e4 FEFFFFEB 		bl	R_INTC_Disable
 3084              	.LVL410:
 3085 02e8 EFFFFFEA 		b	.L331
 3086              	.LVL411:
 3087              	.L332:
1896:../generate/sc_drivers/r_scifa/src/lld/r_rza2_scifa_lld.c ****         }
 3088              		.loc 1 1896 0
 3089 02ec 0000E0E3 		mvn	r0, #0
 3090              	.LVL412:
1901:../generate/sc_drivers/r_scifa/src/lld/r_rza2_scifa_lld.c **** }
 3091              		.loc 1 1901 0
 3092 02f0 7080BDE8 		pop	{r4, r5, r6, pc}
 3093              		.cfi_endproc
 3094              	.LFE43:
 3096              		.section	.text.R_SCIFA_StartModule,"ax",%progbits
 3097              		.align	2
 3098              		.global	R_SCIFA_StartModule
 3099              		.syntax unified
 3100              		.arm
 3101              		.fpu neon
 3103              	R_SCIFA_StartModule:
 3104              	.LFB44:
1902:../generate/sc_drivers/r_scifa/src/lld/r_rza2_scifa_lld.c **** /**************************************************************************************************
1903:../generate/sc_drivers/r_scifa/src/lld/r_rza2_scifa_lld.c ****  * End of Function R_SCIFA_SetupInterrupts
1904:../generate/sc_drivers/r_scifa/src/lld/r_rza2_scifa_lld.c ****  **************************************************************************************************
1905:../generate/sc_drivers/r_scifa/src/lld/r_rza2_scifa_lld.c **** 
1906:../generate/sc_drivers/r_scifa/src/lld/r_rza2_scifa_lld.c **** /**
1907:../generate/sc_drivers/r_scifa/src/lld/r_rza2_scifa_lld.c ****  * @brief R_SCIFA_StartModule - start or stop SCIFA module
1908:../generate/sc_drivers/r_scifa/src/lld/r_rza2_scifa_lld.c ****  *
1909:../generate/sc_drivers/r_scifa/src/lld/r_rza2_scifa_lld.c ****  * @param[in] channel: the channel number
1910:../generate/sc_drivers/r_scifa/src/lld/r_rza2_scifa_lld.c ****  * @param[in] start: true to start channel, or false to stop it
1911:../generate/sc_drivers/r_scifa/src/lld/r_rza2_scifa_lld.c ****  *
1912:../generate/sc_drivers/r_scifa/src/lld/r_rza2_scifa_lld.c ****  * @retval  0 DRV_SUCCESS
1913:../generate/sc_drivers/r_scifa/src/lld/r_rza2_scifa_lld.c ****  * @retval -1 DRV_ERROR
1914:../generate/sc_drivers/r_scifa/src/lld/r_rza2_scifa_lld.c ****  */
1915:../generate/sc_drivers/r_scifa/src/lld/r_rza2_scifa_lld.c **** int_t R_SCIFA_StartModule(r_channel_t channel, bool_t start)
1916:../generate/sc_drivers/r_scifa/src/lld/r_rza2_scifa_lld.c **** {
 3105              		.loc 1 1916 0
 3106              		.cfi_startproc
 3107              		@ args = 0, pretend = 0, frame = 8
 3108              		@ frame_needed = 0, uses_anonymous_args = 0
 3109              	.LVL413:
 3110 0000 04E02DE5 		str	lr, [sp, #-4]!
 3111              		.cfi_def_cfa_offset 4
 3112              		.cfi_offset 14, -4
 3113 0004 0CD04DE2 		sub	sp, sp, #12
 3114              		.cfi_def_cfa_offset 16
 3115 0008 0030A0E1 		mov	r3, r0
 3116 000c 01C0A0E1 		mov	ip, r1
1917:../generate/sc_drivers/r_scifa/src/lld/r_rza2_scifa_lld.c ****     e_stb_module_t module[] = {MODULE_SCIFA0, MODULE_SCIFA1, MODULE_SCIFA2, MODULE_SCIFA3, MODULE_S
 3117              		.loc 1 1917 0
 3118 0010 002000E3 		movw	r2, #:lower16:.LANCHOR2
 3119 0014 002040E3 		movt	r2, #:upper16:.LANCHOR2
 3120 0018 030092E8 		ldm	r2, {r0, r1}
 3121              	.LVL414:
 3122 001c 00008DE5 		str	r0, [sp]
 3123 0020 0410CDE5 		strb	r1, [sp, #4]
1918:../generate/sc_drivers/r_scifa/src/lld/r_rza2_scifa_lld.c **** 
1919:../generate/sc_drivers/r_scifa/src/lld/r_rza2_scifa_lld.c ****     if ((channel > R_PRV_CFG_SCIF_LAST_CHANNEL) || (channel < 0))
 3124              		.loc 1 1919 0
 3125 0024 7320EFE6 		uxtb	r2, r3
 3126 0028 050052E3 		cmp	r2, #5
 3127 002c 0E00008A 		bhi	.L337
1920:../generate/sc_drivers/r_scifa/src/lld/r_rza2_scifa_lld.c ****     {
1921:../generate/sc_drivers/r_scifa/src/lld/r_rza2_scifa_lld.c ****         return (DRV_ERROR);
1922:../generate/sc_drivers/r_scifa/src/lld/r_rza2_scifa_lld.c ****     }
1923:../generate/sc_drivers/r_scifa/src/lld/r_rza2_scifa_lld.c **** 
1924:../generate/sc_drivers/r_scifa/src/lld/r_rza2_scifa_lld.c ****     if (start)
 3128              		.loc 1 1924 0
 3129 0030 00005CE3 		cmp	ip, #0
 3130 0034 0600001A 		bne	.L339
1925:../generate/sc_drivers/r_scifa/src/lld/r_rza2_scifa_lld.c ****     {
1926:../generate/sc_drivers/r_scifa/src/lld/r_rza2_scifa_lld.c ****         R_STB_StartModule(module[channel]);
1927:../generate/sc_drivers/r_scifa/src/lld/r_rza2_scifa_lld.c ****     }
1928:../generate/sc_drivers/r_scifa/src/lld/r_rza2_scifa_lld.c ****     else
1929:../generate/sc_drivers/r_scifa/src/lld/r_rza2_scifa_lld.c ****     {
1930:../generate/sc_drivers/r_scifa/src/lld/r_rza2_scifa_lld.c ****         R_STB_StopModule(module[channel]);
 3131              		.loc 1 1930 0
 3132 0038 08208DE2 		add	r2, sp, #8
 3133 003c 033082E0 		add	r3, r2, r3
 3134 0040 080053E5 		ldrb	r0, [r3, #-8]	@ zero_extendqisi2
 3135 0044 FEFFFFEB 		bl	R_STB_StopModule
 3136              	.LVL415:
1931:../generate/sc_drivers/r_scifa/src/lld/r_rza2_scifa_lld.c ****     }
1932:../generate/sc_drivers/r_scifa/src/lld/r_rza2_scifa_lld.c **** 
1933:../generate/sc_drivers/r_scifa/src/lld/r_rza2_scifa_lld.c ****     return (DRV_SUCCESS);
 3137              		.loc 1 1933 0
 3138 0048 0000A0E3 		mov	r0, #0
 3139              	.L334:
1934:../generate/sc_drivers/r_scifa/src/lld/r_rza2_scifa_lld.c **** }
 3140              		.loc 1 1934 0
 3141 004c 0CD08DE2 		add	sp, sp, #12
 3142              		.cfi_remember_state
 3143              		.cfi_def_cfa_offset 4
 3144              		@ sp needed
 3145 0050 04F09DE4 		ldr	pc, [sp], #4
 3146              	.LVL416:
 3147              	.L339:
 3148              		.cfi_restore_state
1926:../generate/sc_drivers/r_scifa/src/lld/r_rza2_scifa_lld.c ****     }
 3149              		.loc 1 1926 0
 3150 0054 08208DE2 		add	r2, sp, #8
 3151 0058 033082E0 		add	r3, r2, r3
 3152 005c 080053E5 		ldrb	r0, [r3, #-8]	@ zero_extendqisi2
 3153 0060 FEFFFFEB 		bl	R_STB_StartModule
 3154              	.LVL417:
1933:../generate/sc_drivers/r_scifa/src/lld/r_rza2_scifa_lld.c **** }
 3155              		.loc 1 1933 0
 3156 0064 0000A0E3 		mov	r0, #0
 3157 0068 F7FFFFEA 		b	.L334
 3158              	.LVL418:
 3159              	.L337:
1921:../generate/sc_drivers/r_scifa/src/lld/r_rza2_scifa_lld.c ****     }
 3160              		.loc 1 1921 0
 3161 006c 0000E0E3 		mvn	r0, #0
 3162 0070 F5FFFFEA 		b	.L334
 3163              		.cfi_endproc
 3164              	.LFE44:
 3166              		.section	.text.R_SCIFA_ChannelConfigure,"ax",%progbits
 3167              		.align	2
 3168              		.global	R_SCIFA_ChannelConfigure
 3169              		.syntax unified
 3170              		.arm
 3171              		.fpu neon
 3173              	R_SCIFA_ChannelConfigure:
 3174              	.LFB12:
 627:../generate/sc_drivers/r_scifa/src/lld/r_rza2_scifa_lld.c ****     int_t result;
 3175              		.loc 1 627 0
 3176              		.cfi_startproc
 3177              		@ args = 0, pretend = 0, frame = 16
 3178              		@ frame_needed = 0, uses_anonymous_args = 0
 3179              	.LVL419:
 3180 0000 F0402DE9 		push	{r4, r5, r6, r7, lr}
 3181              		.cfi_def_cfa_offset 20
 3182              		.cfi_offset 4, -20
 3183              		.cfi_offset 5, -16
 3184              		.cfi_offset 6, -12
 3185              		.cfi_offset 7, -8
 3186              		.cfi_offset 14, -4
 3187 0004 1CD04DE2 		sub	sp, sp, #28
 3188              		.cfi_def_cfa_offset 48
 3189 0008 0040A0E1 		mov	r4, r0
 3190 000c 0150A0E1 		mov	r5, r1
 3191 0010 0260A0E1 		mov	r6, r2
 631:../generate/sc_drivers/r_scifa/src/lld/r_rza2_scifa_lld.c **** 
 3192              		.loc 1 631 0
 3193 0014 FEFFFFEB 		bl	R_SCIFA_Stop
 3194              	.LVL420:
 633:../generate/sc_drivers/r_scifa/src/lld/r_rza2_scifa_lld.c ****     {
 3195              		.loc 1 633 0
 3196 0018 000050E3 		cmp	r0, #0
 3197 001c 0100000A 		beq	.L349
 3198              	.LVL421:
 3199              	.L340:
 776:../generate/sc_drivers/r_scifa/src/lld/r_rza2_scifa_lld.c **** /**************************************************************************************************
 3200              		.loc 1 776 0
 3201 0020 1CD08DE2 		add	sp, sp, #28
 3202              		.cfi_remember_state
 3203              		.cfi_def_cfa_offset 20
 3204              		@ sp needed
 3205 0024 F080BDE8 		pop	{r4, r5, r6, r7, pc}
 3206              	.LVL422:
 3207              	.L349:
 3208              		.cfi_restore_state
 639:../generate/sc_drivers/r_scifa/src/lld/r_rza2_scifa_lld.c **** 
 3209              		.loc 1 639 0
 3210 0028 0110A0E3 		mov	r1, #1
 3211 002c 0400A0E1 		mov	r0, r4
 3212              	.LVL423:
 3213 0030 FEFFFFEB 		bl	R_SCIFA_StartModule
 3214              	.LVL424:
 641:../generate/sc_drivers/r_scifa/src/lld/r_rza2_scifa_lld.c ****     {
 3215              		.loc 1 641 0
 3216 0034 000050E3 		cmp	r0, #0
 3217 0038 F8FFFF1A 		bne	.L340
 647:../generate/sc_drivers/r_scifa/src/lld/r_rza2_scifa_lld.c **** 
 3218              		.loc 1 647 0
 3219 003c 0400A0E1 		mov	r0, r4
 3220              	.LVL425:
 3221 0040 FEFFFFEB 		bl	R_SCIFA_Init
 3222              	.LVL426:
 649:../generate/sc_drivers/r_scifa/src/lld/r_rza2_scifa_lld.c ****     {
 3223              		.loc 1 649 0
 3224 0044 000050E3 		cmp	r0, #0
 3225 0048 F4FFFF1A 		bne	.L340
 654:../generate/sc_drivers/r_scifa/src/lld/r_rza2_scifa_lld.c ****     {
 3226              		.loc 1 654 0
 3227 004c 0B30D5E5 		ldrb	r3, [r5, #11]	@ zero_extendqisi2
 3228 0050 010053E3 		cmp	r3, #1
 3229 0054 5700000A 		beq	.L350
 661:../generate/sc_drivers/r_scifa/src/lld/r_rza2_scifa_lld.c ****     }
 3230              		.loc 1 661 0
 3231 0058 0010A0E3 		mov	r1, #0
 3232 005c 0400A0E1 		mov	r0, r4
 3233              	.LVL427:
 3234 0060 FEFFFFEB 		bl	R_SCIFA_SetParity
 3235              	.LVL428:
 3236              	.L343:
 664:../generate/sc_drivers/r_scifa/src/lld/r_rza2_scifa_lld.c ****     {
 3237              		.loc 1 664 0
 3238 0064 000050E3 		cmp	r0, #0
 3239 0068 ECFFFF1A 		bne	.L340
 669:../generate/sc_drivers/r_scifa/src/lld/r_rza2_scifa_lld.c **** 
 3240              		.loc 1 669 0
 3241 006c 0D10D5E5 		ldrb	r1, [r5, #13]	@ zero_extendqisi2
 3242 0070 0400A0E1 		mov	r0, r4
 3243              	.LVL429:
 3244 0074 FEFFFFEB 		bl	R_SCIFA_SetStopBits
 3245              	.LVL430:
 671:../generate/sc_drivers/r_scifa/src/lld/r_rza2_scifa_lld.c ****     {
 3246              		.loc 1 671 0
 3247 0078 000050E3 		cmp	r0, #0
 3248 007c E7FFFF1A 		bne	.L340
 676:../generate/sc_drivers/r_scifa/src/lld/r_rza2_scifa_lld.c **** 
 3249              		.loc 1 676 0
 3250 0080 0010D5E5 		ldrb	r1, [r5]	@ zero_extendqisi2
 3251 0084 0400A0E1 		mov	r0, r4
 3252              	.LVL431:
 3253 0088 FEFFFFEB 		bl	R_SICFA_SetTransmissionMode
 3254              	.LVL432:
 678:../generate/sc_drivers/r_scifa/src/lld/r_rza2_scifa_lld.c ****     {
 3255              		.loc 1 678 0
 3256 008c 000050E3 		cmp	r0, #0
 3257 0090 E2FFFF1A 		bne	.L340
 683:../generate/sc_drivers/r_scifa/src/lld/r_rza2_scifa_lld.c **** 
 3258              		.loc 1 683 0
 3259 0094 0A10D5E5 		ldrb	r1, [r5, #10]	@ zero_extendqisi2
 3260 0098 0400A0E1 		mov	r0, r4
 3261              	.LVL433:
 3262 009c FEFFFFEB 		bl	R_SCIFA_SetDataBits
 3263              	.LVL434:
 685:../generate/sc_drivers/r_scifa/src/lld/r_rza2_scifa_lld.c ****     {
 3264              		.loc 1 685 0
 3265 00a0 000050E3 		cmp	r0, #0
 3266 00a4 DDFFFF1A 		bne	.L340
 695:../generate/sc_drivers/r_scifa/src/lld/r_rza2_scifa_lld.c **** 
 3267              		.loc 1 695 0
 3268 00a8 0010A0E3 		mov	r1, #0
 3269 00ac 000000E3 		movw	r0, #:lower16:.LC2
 3270              	.LVL435:
 3271 00b0 000040E3 		movt	r0, #:upper16:.LC2
 3272 00b4 FEFFFFEB 		bl	direct_open
 3273              	.LVL436:
 697:../generate/sc_drivers/r_scifa/src/lld/r_rza2_scifa_lld.c ****     {
 3274              		.loc 1 697 0
 3275 00b8 007050E2 		subs	r7, r0, #0
 3276 00bc 410000BA 		blt	.L346
 703:../generate/sc_drivers/r_scifa/src/lld/r_rza2_scifa_lld.c ****     if (control(cpg_handle, CTL_CPG_GET_CLK, &cpg_get_clock_t) != DRV_SUCCESS)
 3277              		.loc 1 703 0
 3278 00c0 18208DE2 		add	r2, sp, #24
 3279 00c4 0430A0E3 		mov	r3, #4
 3280 00c8 103062E5 		strb	r3, [r2, #-16]!
 704:../generate/sc_drivers/r_scifa/src/lld/r_rza2_scifa_lld.c ****     {
 3281              		.loc 1 704 0
 3282 00cc 0610A0E3 		mov	r1, #6
 3283 00d0 0700A0E1 		mov	r0, r7
 3284 00d4 FEFFFFEB 		bl	control
 3285              	.LVL437:
 3286 00d8 000050E3 		cmp	r0, #0
 3287 00dc 3B00001A 		bne	.L347
 710:../generate/sc_drivers/r_scifa/src/lld/r_rza2_scifa_lld.c **** 
 3288              		.loc 1 710 0
 3289 00e0 0700A0E1 		mov	r0, r7
 3290 00e4 FEFFFFEB 		bl	direct_close
 3291              	.LVL438:
 713:../generate/sc_drivers/r_scifa/src/lld/r_rza2_scifa_lld.c **** 
 3292              		.loc 1 713 0
 3293 00e8 047B9DED 		vldr.64	d7, [sp, #16]
 3294 00ec C77BFCEE 		vcvt.u32.f64	s15, d7
 3295 00f0 902A17EE 		vmov	r2, s15	@ int
 3296              	.LVL439:
 715:../generate/sc_drivers/r_scifa/src/lld/r_rza2_scifa_lld.c **** 
 3297              		.loc 1 715 0
 3298 00f4 0030D5E5 		ldrb	r3, [r5]	@ zero_extendqisi2
 3299 00f8 00608DE5 		str	r6, [sp]
 3300 00fc FA1FA0E3 		mov	r1, #1000
 3301 0100 910202E0 		mul	r2, r1, r2
 3302              	.LVL440:
 3303 0104 041095E5 		ldr	r1, [r5, #4]
 3304 0108 0400A0E1 		mov	r0, r4
 3305 010c FEFFFFEB 		bl	R_SCIFA_SetBaud
 3306              	.LVL441:
 717:../generate/sc_drivers/r_scifa/src/lld/r_rza2_scifa_lld.c ****     {
 3307              		.loc 1 717 0
 3308 0110 000050E3 		cmp	r0, #0
 3309 0114 C1FFFF1A 		bne	.L340
 722:../generate/sc_drivers/r_scifa/src/lld/r_rza2_scifa_lld.c **** 
 3310              		.loc 1 722 0
 3311 0118 1010D5E5 		ldrb	r1, [r5, #16]	@ zero_extendqisi2
 3312 011c 0400A0E1 		mov	r0, r4
 3313              	.LVL442:
 3314 0120 FEFFFFEB 		bl	R_SCIFA_SetLoopBack
 3315              	.LVL443:
 724:../generate/sc_drivers/r_scifa/src/lld/r_rza2_scifa_lld.c ****     {
 3316              		.loc 1 724 0
 3317 0124 000050E3 		cmp	r0, #0
 3318 0128 BCFFFF1A 		bne	.L340
 729:../generate/sc_drivers/r_scifa/src/lld/r_rza2_scifa_lld.c **** 
 3319              		.loc 1 729 0
 3320 012c 0F10D5E5 		ldrb	r1, [r5, #15]	@ zero_extendqisi2
 3321 0130 0400A0E1 		mov	r0, r4
 3322              	.LVL444:
 3323 0134 FEFFFFEB 		bl	R_SCIFA_SetDataOrder
 3324              	.LVL445:
 731:../generate/sc_drivers/r_scifa/src/lld/r_rza2_scifa_lld.c ****     {
 3325              		.loc 1 731 0
 3326 0138 000050E3 		cmp	r0, #0
 3327 013c B7FFFF1A 		bne	.L340
 736:../generate/sc_drivers/r_scifa/src/lld/r_rza2_scifa_lld.c **** 
 3328              		.loc 1 736 0
 3329 0140 1510D5E5 		ldrb	r1, [r5, #21]	@ zero_extendqisi2
 3330 0144 0400A0E1 		mov	r0, r4
 3331              	.LVL446:
 3332 0148 FEFFFFEB 		bl	R_SCIFA_SetTXDOutput
 3333              	.LVL447:
 738:../generate/sc_drivers/r_scifa/src/lld/r_rza2_scifa_lld.c ****     {
 3334              		.loc 1 738 0
 3335 014c 000050E3 		cmp	r0, #0
 3336 0150 B2FFFF1A 		bne	.L340
 743:../generate/sc_drivers/r_scifa/src/lld/r_rza2_scifa_lld.c **** 
 3337              		.loc 1 743 0
 3338 0154 1610D5E5 		ldrb	r1, [r5, #22]	@ zero_extendqisi2
 3339 0158 0400A0E1 		mov	r0, r4
 3340              	.LVL448:
 3341 015c FEFFFFEB 		bl	R_SCIFA_SetSCKOutput
 3342              	.LVL449:
 745:../generate/sc_drivers/r_scifa/src/lld/r_rza2_scifa_lld.c ****     {
 3343              		.loc 1 745 0
 3344 0160 000050E3 		cmp	r0, #0
 3345 0164 ADFFFF1A 		bne	.L340
 751:../generate/sc_drivers/r_scifa/src/lld/r_rza2_scifa_lld.c ****     {
 3346              		.loc 1 751 0
 3347 0168 036044E2 		sub	r6, r4, #3
 3348              	.LVL450:
 3349 016c 7660EFE6 		uxtb	r6, r6
 3350 0170 010056E3 		cmp	r6, #1
 3351 0174 0200009A 		bls	.L344
 753:../generate/sc_drivers/r_scifa/src/lld/r_rza2_scifa_lld.c ****     }
 3352              		.loc 1 753 0
 3353 0178 1810D5E5 		ldrb	r1, [r5, #24]	@ zero_extendqisi2
 3354 017c 0400A0E1 		mov	r0, r4
 3355              	.LVL451:
 3356 0180 FEFFFFEB 		bl	R_SCIFA_SetRTSOutput
 3357              	.LVL452:
 3358              	.L344:
 756:../generate/sc_drivers/r_scifa/src/lld/r_rza2_scifa_lld.c ****     {
 3359              		.loc 1 756 0
 3360 0184 000050E3 		cmp	r0, #0
 3361 0188 A4FFFF1A 		bne	.L340
 762:../generate/sc_drivers/r_scifa/src/lld/r_rza2_scifa_lld.c ****     {
 3362              		.loc 1 762 0
 3363 018c 010056E3 		cmp	r6, #1
 3364 0190 0200009A 		bls	.L345
 764:../generate/sc_drivers/r_scifa/src/lld/r_rza2_scifa_lld.c ****     }
 3365              		.loc 1 764 0
 3366 0194 1710D5E5 		ldrb	r1, [r5, #23]	@ zero_extendqisi2
 3367 0198 0400A0E1 		mov	r0, r4
 3368              	.LVL453:
 3369 019c FEFFFFEB 		bl	R_SCIFA_SetCTSOutput
 3370              	.LVL454:
 3371              	.L345:
 767:../generate/sc_drivers/r_scifa/src/lld/r_rza2_scifa_lld.c ****     {
 3372              		.loc 1 767 0
 3373 01a0 000050E3 		cmp	r0, #0
 3374 01a4 9DFFFF1A 		bne	.L340
 773:../generate/sc_drivers/r_scifa/src/lld/r_rza2_scifa_lld.c **** 
 3375              		.loc 1 773 0
 3376 01a8 0510A0E1 		mov	r1, r5
 3377 01ac 0400A0E1 		mov	r0, r4
 3378              	.LVL455:
 3379 01b0 FEFFFFEB 		bl	R_SCIFA_SetExtendedCfg
 3380              	.LVL456:
 775:../generate/sc_drivers/r_scifa/src/lld/r_rza2_scifa_lld.c **** }
 3381              		.loc 1 775 0
 3382 01b4 99FFFFEA 		b	.L340
 3383              	.LVL457:
 3384              	.L350:
 656:../generate/sc_drivers/r_scifa/src/lld/r_rza2_scifa_lld.c ****     }
 3385              		.loc 1 656 0
 3386 01b8 0C10D5E5 		ldrb	r1, [r5, #12]	@ zero_extendqisi2
 3387 01bc 0400A0E1 		mov	r0, r4
 3388              	.LVL458:
 3389 01c0 FEFFFFEB 		bl	R_SCIFA_SetParity
 3390              	.LVL459:
 3391 01c4 A6FFFFEA 		b	.L343
 3392              	.LVL460:
 3393              	.L346:
 699:../generate/sc_drivers/r_scifa/src/lld/r_rza2_scifa_lld.c ****     }
 3394              		.loc 1 699 0
 3395 01c8 0000E0E3 		mvn	r0, #0
 3396              	.LVL461:
 3397 01cc 93FFFFEA 		b	.L340
 3398              	.L347:
 706:../generate/sc_drivers/r_scifa/src/lld/r_rza2_scifa_lld.c ****     }
 3399              		.loc 1 706 0
 3400 01d0 0000E0E3 		mvn	r0, #0
 3401 01d4 91FFFFEA 		b	.L340
 3402              		.cfi_endproc
 3403              	.LFE12:
 3405              		.section	.text.R_SCIFA_Open,"ax",%progbits
 3406              		.align	2
 3407              		.global	R_SCIFA_Open
 3408              		.syntax unified
 3409              		.arm
 3410              		.fpu neon
 3412              	R_SCIFA_Open:
 3413              	.LFB11:
 565:../generate/sc_drivers/r_scifa/src/lld/r_rza2_scifa_lld.c ****     const scifa_config_t * p_config;
 3414              		.loc 1 565 0
 3415              		.cfi_startproc
 3416              		@ args = 0, pretend = 0, frame = 8
 3417              		@ frame_needed = 0, uses_anonymous_args = 0
 3418              	.LVL462:
 3419 0000 F0412DE9 		push	{r4, r5, r6, r7, r8, lr}
 3420              		.cfi_def_cfa_offset 24
 3421              		.cfi_offset 4, -24
 3422              		.cfi_offset 5, -20
 3423              		.cfi_offset 6, -16
 3424              		.cfi_offset 7, -12
 3425              		.cfi_offset 8, -8
 3426              		.cfi_offset 14, -4
 3427 0004 08D04DE2 		sub	sp, sp, #8
 3428              		.cfi_def_cfa_offset 32
 3429 0008 0050A0E1 		mov	r5, r0
 3430 000c 0170A0E1 		mov	r7, r1
 572:../generate/sc_drivers/r_scifa/src/lld/r_rza2_scifa_lld.c **** 
 3431              		.loc 1 572 0
 3432 0010 FEFFFFEB 		bl	R_SCIFA_GetChannel
 3433              	.LVL463:
 574:../generate/sc_drivers/r_scifa/src/lld/r_rza2_scifa_lld.c ****     {
 3434              		.loc 1 574 0
 3435 0014 010070E3 		cmn	r0, #1
 3436 0018 2B00000A 		beq	.L354
 580:../generate/sc_drivers/r_scifa/src/lld/r_rza2_scifa_lld.c **** 
 3437              		.loc 1 580 0
 3438 001c 003000E3 		movw	r3, #:lower16:.LANCHOR1
 3439 0020 003040E3 		movt	r3, #:upper16:.LANCHOR1
 3440 0024 852185E0 		add	r2, r5, r5, lsl #3
 3441 0028 8241A0E1 		lsl	r4, r2, #3
 3442 002c 043083E0 		add	r3, r3, r4
 3443 0030 044083E2 		add	r4, r3, #4
 3444              	.LVL464:
 583:../generate/sc_drivers/r_scifa/src/lld/r_rza2_scifa_lld.c **** 
 3445              		.loc 1 583 0
 3446 0034 04208DE2 		add	r2, sp, #4
 3447 0038 0410A0E1 		mov	r1, r4
 3448 003c FEFFFFEB 		bl	R_SCIFA_ChannelConfigure
 3449              	.LVL465:
 586:../generate/sc_drivers/r_scifa/src/lld/r_rza2_scifa_lld.c ****     {
 3450              		.loc 1 586 0
 3451 0040 006050E2 		subs	r6, r0, #0
 3452 0044 0400000A 		beq	.L357
 3453              	.LVL466:
 3454              	.L353:
 604:../generate/sc_drivers/r_scifa/src/lld/r_rza2_scifa_lld.c ****     {
 3455              		.loc 1 604 0
 3456 0048 000056E3 		cmp	r6, #0
 3457 004c 1700000A 		beq	.L358
 3458              	.LVL467:
 3459              	.L351:
 611:../generate/sc_drivers/r_scifa/src/lld/r_rza2_scifa_lld.c **** /**************************************************************************************************
 3460              		.loc 1 611 0
 3461 0050 0600A0E1 		mov	r0, r6
 3462 0054 08D08DE2 		add	sp, sp, #8
 3463              		.cfi_remember_state
 3464              		.cfi_def_cfa_offset 24
 3465              		@ sp needed
 3466 0058 F081BDE8 		pop	{r4, r5, r6, r7, r8, pc}
 3467              	.LVL468:
 3468              	.L357:
 3469              		.cfi_restore_state
 3470              	.LBB2:
 589:../generate/sc_drivers/r_scifa/src/lld/r_rza2_scifa_lld.c ****         
 3471              		.loc 1 589 0
 3472 005c 0010A0E3 		mov	r1, #0
 3473 0060 000000E3 		movw	r0, #:lower16:.LC3
 3474              	.LVL469:
 3475 0064 000040E3 		movt	r0, #:upper16:.LC3
 3476 0068 FEFFFFEB 		bl	direct_open
 3477              	.LVL470:
 591:../generate/sc_drivers/r_scifa/src/lld/r_rza2_scifa_lld.c ****         {
 3478              		.loc 1 591 0
 3479 006c 008050E2 		subs	r8, r0, #0
 3480 0070 0C0000DA 		ble	.L355
 594:../generate/sc_drivers/r_scifa/src/lld/r_rza2_scifa_lld.c ****             direct_close(gpio_handle);
 3481              		.loc 1 594 0
 3482 0074 002000E3 		movw	r2, #:lower16:.LANCHOR1
 3483 0078 002040E3 		movt	r2, #:upper16:.LANCHOR1
 3484 007c 855185E0 		add	r5, r5, r5, lsl #3
 3485 0080 8531A0E1 		lsl	r3, r5, #3
 3486 0084 383083E2 		add	r3, r3, #56
 3487 0088 032082E0 		add	r2, r2, r3
 3488 008c 042082E2 		add	r2, r2, #4
 3489 0090 0410A0E3 		mov	r1, #4
 3490 0094 0800A0E1 		mov	r0, r8
 3491 0098 FEFFFFEB 		bl	direct_control
 3492              	.LVL471:
 595:../generate/sc_drivers/r_scifa/src/lld/r_rza2_scifa_lld.c ****         }
 3493              		.loc 1 595 0
 3494 009c 0800A0E1 		mov	r0, r8
 3495 00a0 FEFFFFEB 		bl	direct_close
 3496              	.LVL472:
 3497 00a4 E7FFFFEA 		b	.L353
 3498              	.LVL473:
 3499              	.L355:
 599:../generate/sc_drivers/r_scifa/src/lld/r_rza2_scifa_lld.c ****         }
 3500              		.loc 1 599 0
 3501 00a8 0060E0E3 		mvn	r6, #0
 3502              	.LVL474:
 3503 00ac E5FFFFEA 		b	.L353
 3504              	.LVL475:
 3505              	.L358:
 3506              	.LBE2:
 606:../generate/sc_drivers/r_scifa/src/lld/r_rza2_scifa_lld.c ****         p_config_set->baud_rate = achieved_baud_rate;
 3507              		.loc 1 606 0
 3508 00b0 3820A0E3 		mov	r2, #56
 3509 00b4 0410A0E1 		mov	r1, r4
 3510 00b8 0700A0E1 		mov	r0, r7
 3511 00bc FEFFFFEB 		bl	memcpy
 3512              	.LVL476:
 607:../generate/sc_drivers/r_scifa/src/lld/r_rza2_scifa_lld.c ****     }
 3513              		.loc 1 607 0
 3514 00c0 04309DE5 		ldr	r3, [sp, #4]
 3515 00c4 043087E5 		str	r3, [r7, #4]
 3516 00c8 E0FFFFEA 		b	.L351
 3517              	.LVL477:
 3518              	.L354:
 576:../generate/sc_drivers/r_scifa/src/lld/r_rza2_scifa_lld.c ****     }
 3519              		.loc 1 576 0
 3520 00cc 0060E0E3 		mvn	r6, #0
 3521 00d0 DEFFFFEA 		b	.L351
 3522              		.cfi_endproc
 3523              	.LFE11:
 3525              		.section	.text.R_SCIFA_DisableTxInterrupt,"ax",%progbits
 3526              		.align	2
 3527              		.global	R_SCIFA_DisableTxInterrupt
 3528              		.syntax unified
 3529              		.arm
 3530              		.fpu neon
 3532              	R_SCIFA_DisableTxInterrupt:
 3533              	.LFB45:
1935:../generate/sc_drivers/r_scifa/src/lld/r_rza2_scifa_lld.c **** /**************************************************************************************************
1936:../generate/sc_drivers/r_scifa/src/lld/r_rza2_scifa_lld.c ****  * End of Function R_SCIFA_StartModule
1937:../generate/sc_drivers/r_scifa/src/lld/r_rza2_scifa_lld.c ****  **************************************************************************************************
1938:../generate/sc_drivers/r_scifa/src/lld/r_rza2_scifa_lld.c **** 
1939:../generate/sc_drivers/r_scifa/src/lld/r_rza2_scifa_lld.c **** /**
1940:../generate/sc_drivers/r_scifa/src/lld/r_rza2_scifa_lld.c ****  * @brief R_SCIFA_DisableTxInterrupt - disable transmit interrupt for channel
1941:../generate/sc_drivers/r_scifa/src/lld/r_rza2_scifa_lld.c ****  *
1942:../generate/sc_drivers/r_scifa/src/lld/r_rza2_scifa_lld.c ****  * @param[in] channel: the channel number
1943:../generate/sc_drivers/r_scifa/src/lld/r_rza2_scifa_lld.c ****  *
1944:../generate/sc_drivers/r_scifa/src/lld/r_rza2_scifa_lld.c ****  * @retval  None
1945:../generate/sc_drivers/r_scifa/src/lld/r_rza2_scifa_lld.c ****  */
1946:../generate/sc_drivers/r_scifa/src/lld/r_rza2_scifa_lld.c **** void R_SCIFA_DisableTxInterrupt(r_channel_t channel)
1947:../generate/sc_drivers/r_scifa/src/lld/r_rza2_scifa_lld.c **** {
 3534              		.loc 1 1947 0
 3535              		.cfi_startproc
 3536              		@ args = 0, pretend = 0, frame = 0
 3537              		@ frame_needed = 0, uses_anonymous_args = 0
 3538              	.LVL478:
 3539 0000 10402DE9 		push	{r4, lr}
 3540              		.cfi_def_cfa_offset 8
 3541              		.cfi_offset 4, -8
 3542              		.cfi_offset 14, -4
1948:../generate/sc_drivers/r_scifa/src/lld/r_rza2_scifa_lld.c ****     RZA_IO_RegWrite_16((volatile uint16_t *) &gsp_scifa[channel]->SCR.WORD, (uint16_t) 0, SCIFA_SCR
 3543              		.loc 1 1948 0
 3544 0004 003000E3 		movw	r3, #:lower16:.LANCHOR0
 3545 0008 003040E3 		movt	r3, #:upper16:.LANCHOR0
 3546 000c 000193E7 		ldr	r0, [r3, r0, lsl #2]
 3547              	.LVL479:
 3548 0010 8030A0E3 		mov	r3, #128
 3549 0014 0720A0E3 		mov	r2, #7
 3550 0018 0010A0E3 		mov	r1, #0
 3551 001c 040080E2 		add	r0, r0, #4
 3552 0020 FEFFFFEB 		bl	RZA_IO_RegWrite_16
 3553              	.LVL480:
 3554 0024 1080BDE8 		pop	{r4, pc}
 3555              		.cfi_endproc
 3556              	.LFE45:
 3558              		.section	.text.R_SCIFA_EnableTxInterrupt,"ax",%progbits
 3559              		.align	2
 3560              		.global	R_SCIFA_EnableTxInterrupt
 3561              		.syntax unified
 3562              		.arm
 3563              		.fpu neon
 3565              	R_SCIFA_EnableTxInterrupt:
 3566              	.LFB46:
1949:../generate/sc_drivers/r_scifa/src/lld/r_rza2_scifa_lld.c **** }
1950:../generate/sc_drivers/r_scifa/src/lld/r_rza2_scifa_lld.c **** /**************************************************************************************************
1951:../generate/sc_drivers/r_scifa/src/lld/r_rza2_scifa_lld.c ****  * End of Function R_SCIFA_DisableTxInterrupt
1952:../generate/sc_drivers/r_scifa/src/lld/r_rza2_scifa_lld.c ****  **************************************************************************************************
1953:../generate/sc_drivers/r_scifa/src/lld/r_rza2_scifa_lld.c **** 
1954:../generate/sc_drivers/r_scifa/src/lld/r_rza2_scifa_lld.c **** /**
1955:../generate/sc_drivers/r_scifa/src/lld/r_rza2_scifa_lld.c ****  * @brief R_SCIFA_EnableTxInterrupt - enable transmit interrupt for channel
1956:../generate/sc_drivers/r_scifa/src/lld/r_rza2_scifa_lld.c ****  *
1957:../generate/sc_drivers/r_scifa/src/lld/r_rza2_scifa_lld.c ****  * @param[in] channel: the channel number
1958:../generate/sc_drivers/r_scifa/src/lld/r_rza2_scifa_lld.c ****  *
1959:../generate/sc_drivers/r_scifa/src/lld/r_rza2_scifa_lld.c ****  * @retval  None
1960:../generate/sc_drivers/r_scifa/src/lld/r_rza2_scifa_lld.c ****  */
1961:../generate/sc_drivers/r_scifa/src/lld/r_rza2_scifa_lld.c **** void R_SCIFA_EnableTxInterrupt(r_channel_t channel)
1962:../generate/sc_drivers/r_scifa/src/lld/r_rza2_scifa_lld.c **** {
 3567              		.loc 1 1962 0
 3568              		.cfi_startproc
 3569              		@ args = 0, pretend = 0, frame = 0
 3570              		@ frame_needed = 0, uses_anonymous_args = 0
 3571              	.LVL481:
 3572 0000 10402DE9 		push	{r4, lr}
 3573              		.cfi_def_cfa_offset 8
 3574              		.cfi_offset 4, -8
 3575              		.cfi_offset 14, -4
1963:../generate/sc_drivers/r_scifa/src/lld/r_rza2_scifa_lld.c ****     RZA_IO_RegWrite_16((volatile uint16_t *) &gsp_scifa[channel]->SCR.WORD, (uint16_t) 1, SCIFA_SCR
 3576              		.loc 1 1963 0
 3577 0004 003000E3 		movw	r3, #:lower16:.LANCHOR0
 3578 0008 003040E3 		movt	r3, #:upper16:.LANCHOR0
 3579 000c 000193E7 		ldr	r0, [r3, r0, lsl #2]
 3580              	.LVL482:
 3581 0010 8030A0E3 		mov	r3, #128
 3582 0014 0720A0E3 		mov	r2, #7
 3583 0018 0110A0E3 		mov	r1, #1
 3584 001c 040080E2 		add	r0, r0, #4
 3585 0020 FEFFFFEB 		bl	RZA_IO_RegWrite_16
 3586              	.LVL483:
 3587 0024 1080BDE8 		pop	{r4, pc}
 3588              		.cfi_endproc
 3589              	.LFE46:
 3591              		.section	.text.R_SCIFA_DisableRxInterrupt,"ax",%progbits
 3592              		.align	2
 3593              		.global	R_SCIFA_DisableRxInterrupt
 3594              		.syntax unified
 3595              		.arm
 3596              		.fpu neon
 3598              	R_SCIFA_DisableRxInterrupt:
 3599              	.LFB47:
1964:../generate/sc_drivers/r_scifa/src/lld/r_rza2_scifa_lld.c **** }
1965:../generate/sc_drivers/r_scifa/src/lld/r_rza2_scifa_lld.c **** /**************************************************************************************************
1966:../generate/sc_drivers/r_scifa/src/lld/r_rza2_scifa_lld.c ****  * End of Function R_SCIFA_EnableTxInterrupt
1967:../generate/sc_drivers/r_scifa/src/lld/r_rza2_scifa_lld.c ****  **************************************************************************************************
1968:../generate/sc_drivers/r_scifa/src/lld/r_rza2_scifa_lld.c **** 
1969:../generate/sc_drivers/r_scifa/src/lld/r_rza2_scifa_lld.c **** /**
1970:../generate/sc_drivers/r_scifa/src/lld/r_rza2_scifa_lld.c ****  * @brief R_SCIFA_DisableRxInterrupt - disable receive interrupt for channel
1971:../generate/sc_drivers/r_scifa/src/lld/r_rza2_scifa_lld.c ****  *
1972:../generate/sc_drivers/r_scifa/src/lld/r_rza2_scifa_lld.c ****  * @param[in] channel: the channel number
1973:../generate/sc_drivers/r_scifa/src/lld/r_rza2_scifa_lld.c ****  *
1974:../generate/sc_drivers/r_scifa/src/lld/r_rza2_scifa_lld.c ****  * @retval  None
1975:../generate/sc_drivers/r_scifa/src/lld/r_rza2_scifa_lld.c ****  */
1976:../generate/sc_drivers/r_scifa/src/lld/r_rza2_scifa_lld.c **** void R_SCIFA_DisableRxInterrupt(r_channel_t channel)
1977:../generate/sc_drivers/r_scifa/src/lld/r_rza2_scifa_lld.c **** {
 3600              		.loc 1 1977 0
 3601              		.cfi_startproc
 3602              		@ args = 0, pretend = 0, frame = 0
 3603              		@ frame_needed = 0, uses_anonymous_args = 0
 3604              	.LVL484:
 3605 0000 10402DE9 		push	{r4, lr}
 3606              		.cfi_def_cfa_offset 8
 3607              		.cfi_offset 4, -8
 3608              		.cfi_offset 14, -4
1978:../generate/sc_drivers/r_scifa/src/lld/r_rza2_scifa_lld.c ****     RZA_IO_RegWrite_16((volatile uint16_t *) &gsp_scifa[channel]->SCR.WORD, (uint16_t) 0, SCIFA_SCR
 3609              		.loc 1 1978 0
 3610 0004 003000E3 		movw	r3, #:lower16:.LANCHOR0
 3611 0008 003040E3 		movt	r3, #:upper16:.LANCHOR0
 3612 000c 000193E7 		ldr	r0, [r3, r0, lsl #2]
 3613              	.LVL485:
 3614 0010 4030A0E3 		mov	r3, #64
 3615 0014 0620A0E3 		mov	r2, #6
 3616 0018 0010A0E3 		mov	r1, #0
 3617 001c 040080E2 		add	r0, r0, #4
 3618 0020 FEFFFFEB 		bl	RZA_IO_RegWrite_16
 3619              	.LVL486:
 3620 0024 1080BDE8 		pop	{r4, pc}
 3621              		.cfi_endproc
 3622              	.LFE47:
 3624              		.section	.text.R_SCIFA_EnableRxInterrupt,"ax",%progbits
 3625              		.align	2
 3626              		.global	R_SCIFA_EnableRxInterrupt
 3627              		.syntax unified
 3628              		.arm
 3629              		.fpu neon
 3631              	R_SCIFA_EnableRxInterrupt:
 3632              	.LFB48:
1979:../generate/sc_drivers/r_scifa/src/lld/r_rza2_scifa_lld.c **** }
1980:../generate/sc_drivers/r_scifa/src/lld/r_rza2_scifa_lld.c **** /**************************************************************************************************
1981:../generate/sc_drivers/r_scifa/src/lld/r_rza2_scifa_lld.c ****  * End of Function R_SCIFA_DisableRxInterrupt
1982:../generate/sc_drivers/r_scifa/src/lld/r_rza2_scifa_lld.c ****  **************************************************************************************************
1983:../generate/sc_drivers/r_scifa/src/lld/r_rza2_scifa_lld.c **** 
1984:../generate/sc_drivers/r_scifa/src/lld/r_rza2_scifa_lld.c **** /**
1985:../generate/sc_drivers/r_scifa/src/lld/r_rza2_scifa_lld.c ****  * @brief R_SCIFA_EnableRxInterrupt - enable receive interrupt for channel
1986:../generate/sc_drivers/r_scifa/src/lld/r_rza2_scifa_lld.c ****  *
1987:../generate/sc_drivers/r_scifa/src/lld/r_rza2_scifa_lld.c ****  * @param[in] channel: the channel number
1988:../generate/sc_drivers/r_scifa/src/lld/r_rza2_scifa_lld.c ****  *
1989:../generate/sc_drivers/r_scifa/src/lld/r_rza2_scifa_lld.c ****  * @retval  None
1990:../generate/sc_drivers/r_scifa/src/lld/r_rza2_scifa_lld.c ****  */
1991:../generate/sc_drivers/r_scifa/src/lld/r_rza2_scifa_lld.c **** void R_SCIFA_EnableRxInterrupt(r_channel_t channel)
1992:../generate/sc_drivers/r_scifa/src/lld/r_rza2_scifa_lld.c **** {
 3633              		.loc 1 1992 0
 3634              		.cfi_startproc
 3635              		@ args = 0, pretend = 0, frame = 0
 3636              		@ frame_needed = 0, uses_anonymous_args = 0
 3637              	.LVL487:
 3638 0000 10402DE9 		push	{r4, lr}
 3639              		.cfi_def_cfa_offset 8
 3640              		.cfi_offset 4, -8
 3641              		.cfi_offset 14, -4
1993:../generate/sc_drivers/r_scifa/src/lld/r_rza2_scifa_lld.c ****     RZA_IO_RegWrite_16((volatile uint16_t *) &gsp_scifa[channel]->SCR.WORD, (uint16_t) 1, SCIFA_SCR
 3642              		.loc 1 1993 0
 3643 0004 003000E3 		movw	r3, #:lower16:.LANCHOR0
 3644 0008 003040E3 		movt	r3, #:upper16:.LANCHOR0
 3645 000c 000193E7 		ldr	r0, [r3, r0, lsl #2]
 3646              	.LVL488:
 3647 0010 4030A0E3 		mov	r3, #64
 3648 0014 0620A0E3 		mov	r2, #6
 3649 0018 0110A0E3 		mov	r1, #1
 3650 001c 040080E2 		add	r0, r0, #4
 3651 0020 FEFFFFEB 		bl	RZA_IO_RegWrite_16
 3652              	.LVL489:
 3653 0024 1080BDE8 		pop	{r4, pc}
 3654              		.cfi_endproc
 3655              	.LFE48:
 3657              		.section	.rodata
 3658              		.align	2
 3659              		.set	.LANCHOR2,. + 0
 3660              	.LC0:
 3661 0000 09       		.byte	9
 3662 0001 0A       		.byte	10
 3663 0002 0B       		.byte	11
 3664 0003 0C       		.byte	12
 3665 0004 0D       		.byte	13
 3666              		.section	.rodata.GPIO_SC_TABLE_scifa4,"a",%progbits
 3667              		.align	2
 3670              	GPIO_SC_TABLE_scifa4:
 3671 0000 0009     		.short	2304
 3672 0002 0A       		.byte	10
 3673 0003 01       		.byte	1
 3674 0004 04       		.byte	4
 3675 0005 00       		.space	1
 3676 0006 0109     		.short	2305
 3677 0008 0A       		.byte	10
 3678 0009 01       		.byte	1
 3679 000a 05       		.byte	5
 3680 000b 00       		.space	1
 3681              		.section	.rodata.R_SCIFA_ChannelConfigure.str1.4,"aMS",%progbits,1
 3682              		.align	2
 3683              	.LC2:
 3684 0000 63706700 		.ascii	"cpg\000"
 3685              		.section	.rodata.R_SCIFA_GetVersion.str1.4,"aMS",%progbits,1
 3686              		.align	2
 3687              	.LC1:
 3688 0000 4C4C4420 		.ascii	"LLD EBK_RZA2M SCIFA\000"
 3688      45424B5F 
 3688      525A4132 
 3688      4D205343 
 3688      49464100 
 3689              		.section	.rodata.R_SCIFA_Open.str1.4,"aMS",%progbits,1
 3690              		.align	2
 3691              	.LC3:
 3692 0000 6770696F 		.ascii	"gpio\000"
 3692      00
 3693              		.section	.rodata.SCIFA_SC_TABLE,"a",%progbits
 3694              		.align	2
 3695              		.set	.LANCHOR1,. + 0
 3698              	SCIFA_SC_TABLE:
 3699 0000 04       		.byte	4
 3700 0001 000000   		.space	3
 3701 0004 00       		.byte	0
 3702 0005 000000   		.space	3
 3703 0008 00C20100 		.word	115200
 3704 000c 00       		.byte	0
 3705 000d 00       		.byte	0
 3706 000e 00       		.byte	0
 3707 000f 00       		.byte	0
 3708 0010 01       		.byte	1
 3709 0011 00       		.byte	0
 3710 0012 00       		.byte	0
 3711 0013 00       		.byte	0
 3712 0014 00       		.byte	0
 3713 0015 00       		.byte	0
 3714 0016 00       		.byte	0
 3715 0017 0F       		.byte	15
 3716 0018 01       		.byte	1
 3717 0019 01       		.byte	1
 3718 001a 01       		.byte	1
 3719 001b 01       		.byte	1
 3720 001c 01       		.byte	1
 3721 001d 02       		.byte	2
 3722 001e 02       		.byte	2
 3723 001f 00       		.byte	0
 3724 0020 1E       		.byte	30
 3725 0021 1E       		.byte	30
 3726 0022 00       		.byte	0
 3727 0023 00       		.space	1
 3728 0024 00000000 		.word	0
 3729 0028 00000000 		.word	0
 3730 002c 00000000 		.word	0
 3731 0030 00000000 		.word	0
 3732 0034 00       		.byte	0
 3733 0035 00       		.byte	0
 3734 0036 0004     		.short	1024
 3735 0038 0004     		.short	1024
 3736 003a 0000     		.space	2
 3737 003c 00000000 		.word	GPIO_SC_TABLE_scifa4
 3738 0040 02000000 		.word	2
 3739 0044 00000000 		.space	4
 3740              		.section	.rodata.gsp_scifa,"a",%progbits
 3741              		.align	2
 3742              		.set	.LANCHOR0,. + 0
 3745              	gsp_scifa:
 3746 0000 007000E8 		.word	-402624512
 3747 0004 007800E8 		.word	-402622464
 3748 0008 008000E8 		.word	-402620416
 3749 000c 008800E8 		.word	-402618368
 3750 0010 009000E8 		.word	-402616320
 3751              		.text
 3752              	.Letext0:
 3753              		.file 2 "c:\\program files (x86)\\gnu tools arm embedded\\6 2017-q2-update\\arm-none-eabi\\include
 3754              		.file 3 "c:\\program files (x86)\\gnu tools arm embedded\\6 2017-q2-update\\arm-none-eabi\\include
 3755              		.file 4 "c:\\program files (x86)\\gnu tools arm embedded\\6 2017-q2-update\\arm-none-eabi\\include
 3756              		.file 5 "c:\\program files (x86)\\gnu tools arm embedded\\6 2017-q2-update\\lib\\gcc\\arm-none-eab
 3757              		.file 6 "c:\\program files (x86)\\gnu tools arm embedded\\6 2017-q2-update\\arm-none-eabi\\include
 3758              		.file 7 "c:\\program files (x86)\\gnu tools arm embedded\\6 2017-q2-update\\arm-none-eabi\\include
 3759              		.file 8 "c:\\program files (x86)\\gnu tools arm embedded\\6 2017-q2-update\\arm-none-eabi\\include
 3760              		.file 9 "C:/Renesas/e2studio_2021_01_workspace_RZA2M_ANPR/ANPR_RZA2M_EBK/generate/system/inc/r_typ
 3761              		.file 10 "C:/Renesas/e2studio_2021_01_workspace_RZA2M_ANPR/ANPR_RZA2M_EBK/generate/system/iodefine
 3762              		.file 11 "C:/Renesas/e2studio_2021_01_workspace_RZA2M_ANPR/ANPR_RZA2M_EBK/generate/system/inc/driv
 3763              		.file 12 "C:/Renesas/e2studio_2021_01_workspace_RZA2M_ANPR/ANPR_RZA2M_EBK/generate/sc_drivers/r_sc
 3764              		.file 13 "C:/Renesas/e2studio_2021_01_workspace_RZA2M_ANPR/ANPR_RZA2M_EBK/generate/drivers/r_intc/
 3765              		.file 14 "C:/Renesas/e2studio_2021_01_workspace_RZA2M_ANPR/ANPR_RZA2M_EBK/generate/sc_drivers/r_sc
 3766              		.file 15 "c:\\program files (x86)\\gnu tools arm embedded\\6 2017-q2-update\\arm-none-eabi\\includ
 3767              		.file 16 "c:\\program files (x86)\\gnu tools arm embedded\\6 2017-q2-update\\arm-none-eabi\\includ
 3768              		.file 17 "C:/Renesas/e2studio_2021_01_workspace_RZA2M_ANPR/ANPR_RZA2M_EBK/generate/drivers/r_gpio/
 3769              		.file 18 "C:/Renesas/e2studio_2021_01_workspace_RZA2M_ANPR/ANPR_RZA2M_EBK/generate/drivers/r_gpio/
 3770              		.file 19 "C:/Renesas/e2studio_2021_01_workspace_RZA2M_ANPR/ANPR_RZA2M_EBK/generate/drivers/r_gpio/
 3771              		.file 20 "C:/Renesas/e2studio_2021_01_workspace_RZA2M_ANPR/ANPR_RZA2M_EBK/generate/sc_drivers/r_sc
 3772              		.file 21 "C:/Renesas/e2studio_2021_01_workspace_RZA2M_ANPR/ANPR_RZA2M_EBK/generate/drivers/r_stb/i
 3773              		.file 22 "C:/Renesas/e2studio_2021_01_workspace_RZA2M_ANPR/ANPR_RZA2M_EBK/generate/drivers/r_cpg/i
 3774              		.file 23 "C:/Renesas/e2studio_2021_01_workspace_RZA2M_ANPR/ANPR_RZA2M_EBK/generate/drivers/r_cpg/i
 3775              		.file 24 "C:/Renesas/e2studio_2021_01_workspace_RZA2M_ANPR/ANPR_RZA2M_EBK/generate/system/inc/rza_
 3776              		.file 25 "C:/Renesas/e2studio_2021_01_workspace_RZA2M_ANPR/ANPR_RZA2M_EBK/generate/system/inc/r_de
DEFINED SYMBOLS
                            *ABS*:00000000 r_rza2_scifa_lld.c
C:\Users\a5050395\AppData\Local\Temp\cca7mIMe.s:17     .text.R_SCIFA_Start:00000000 $a
C:\Users\a5050395\AppData\Local\Temp\cca7mIMe.s:23     .text.R_SCIFA_Start:00000000 R_SCIFA_Start
C:\Users\a5050395\AppData\Local\Temp\cca7mIMe.s:3742   .rodata.gsp_scifa:00000000 .LANCHOR0
C:\Users\a5050395\AppData\Local\Temp\cca7mIMe.s:118    .text.R_SCIFA_Stop:00000000 $a
C:\Users\a5050395\AppData\Local\Temp\cca7mIMe.s:124    .text.R_SCIFA_Stop:00000000 R_SCIFA_Stop
C:\Users\a5050395\AppData\Local\Temp\cca7mIMe.s:189    .text.R_SCIFA_GetChannel:00000000 $a
C:\Users\a5050395\AppData\Local\Temp\cca7mIMe.s:195    .text.R_SCIFA_GetChannel:00000000 R_SCIFA_GetChannel
C:\Users\a5050395\AppData\Local\Temp\cca7mIMe.s:3695   .rodata.SCIFA_SC_TABLE:00000000 .LANCHOR1
C:\Users\a5050395\AppData\Local\Temp\cca7mIMe.s:230    .text.R_SCIFA_SetParity:00000000 $a
C:\Users\a5050395\AppData\Local\Temp\cca7mIMe.s:236    .text.R_SCIFA_SetParity:00000000 R_SCIFA_SetParity
C:\Users\a5050395\AppData\Local\Temp\cca7mIMe.s:343    .text.R_SICFA_SetTransmissionMode:00000000 $a
C:\Users\a5050395\AppData\Local\Temp\cca7mIMe.s:349    .text.R_SICFA_SetTransmissionMode:00000000 R_SICFA_SetTransmissionMode
C:\Users\a5050395\AppData\Local\Temp\cca7mIMe.s:422    .text.R_SCIFA_SetStopBits:00000000 $a
C:\Users\a5050395\AppData\Local\Temp\cca7mIMe.s:428    .text.R_SCIFA_SetStopBits:00000000 R_SCIFA_SetStopBits
C:\Users\a5050395\AppData\Local\Temp\cca7mIMe.s:501    .text.R_SCIFA_SetDataBits:00000000 $a
C:\Users\a5050395\AppData\Local\Temp\cca7mIMe.s:507    .text.R_SCIFA_SetDataBits:00000000 R_SCIFA_SetDataBits
C:\Users\a5050395\AppData\Local\Temp\cca7mIMe.s:581    .text.R_SCIFA_SetLoopBack:00000000 $a
C:\Users\a5050395\AppData\Local\Temp\cca7mIMe.s:587    .text.R_SCIFA_SetLoopBack:00000000 R_SCIFA_SetLoopBack
C:\Users\a5050395\AppData\Local\Temp\cca7mIMe.s:662    .text.R_SCIFA_SetDataOrder:00000000 $a
C:\Users\a5050395\AppData\Local\Temp\cca7mIMe.s:668    .text.R_SCIFA_SetDataOrder:00000000 R_SCIFA_SetDataOrder
C:\Users\a5050395\AppData\Local\Temp\cca7mIMe.s:743    .text.R_SCIFA_Close:00000000 $a
C:\Users\a5050395\AppData\Local\Temp\cca7mIMe.s:749    .text.R_SCIFA_Close:00000000 R_SCIFA_Close
C:\Users\a5050395\AppData\Local\Temp\cca7mIMe.s:774    .text.R_SCIFA_StopTransmit:00000000 $a
C:\Users\a5050395\AppData\Local\Temp\cca7mIMe.s:780    .text.R_SCIFA_StopTransmit:00000000 R_SCIFA_StopTransmit
C:\Users\a5050395\AppData\Local\Temp\cca7mIMe.s:857    .text.R_SCIFA_GetTXEIState:00000000 $a
C:\Users\a5050395\AppData\Local\Temp\cca7mIMe.s:863    .text.R_SCIFA_GetTXEIState:00000000 R_SCIFA_GetTXEIState
C:\Users\a5050395\AppData\Local\Temp\cca7mIMe.s:895    .text.R_SCIFA_GetTXIState:00000000 $a
C:\Users\a5050395\AppData\Local\Temp\cca7mIMe.s:901    .text.R_SCIFA_GetTXIState:00000000 R_SCIFA_GetTXIState
C:\Users\a5050395\AppData\Local\Temp\cca7mIMe.s:954    .text.R_SCIFA_ClearTXIFlags:00000000 $a
C:\Users\a5050395\AppData\Local\Temp\cca7mIMe.s:960    .text.R_SCIFA_ClearTXIFlags:00000000 R_SCIFA_ClearTXIFlags
C:\Users\a5050395\AppData\Local\Temp\cca7mIMe.s:1024   .text.R_SCIFA_CheckRXIError:00000000 $a
C:\Users\a5050395\AppData\Local\Temp\cca7mIMe.s:1030   .text.R_SCIFA_CheckRXIError:00000000 R_SCIFA_CheckRXIError
C:\Users\a5050395\AppData\Local\Temp\cca7mIMe.s:1220   .text.R_SCIFA_GetRXIState:00000000 $a
C:\Users\a5050395\AppData\Local\Temp\cca7mIMe.s:1226   .text.R_SCIFA_GetRXIState:00000000 R_SCIFA_GetRXIState
C:\Users\a5050395\AppData\Local\Temp\cca7mIMe.s:1299   .text.R_SCIFA_ClearRXIFlags:00000000 $a
C:\Users\a5050395\AppData\Local\Temp\cca7mIMe.s:1305   .text.R_SCIFA_ClearRXIFlags:00000000 R_SCIFA_ClearRXIFlags
C:\Users\a5050395\AppData\Local\Temp\cca7mIMe.s:1369   .text.R_SCIFA_IsRxFifoEmpty:00000000 $a
C:\Users\a5050395\AppData\Local\Temp\cca7mIMe.s:1375   .text.R_SCIFA_IsRxFifoEmpty:00000000 R_SCIFA_IsRxFifoEmpty
C:\Users\a5050395\AppData\Local\Temp\cca7mIMe.s:1430   .text.R_SCIFA_StopTXI:00000000 $a
C:\Users\a5050395\AppData\Local\Temp\cca7mIMe.s:1436   .text.R_SCIFA_StopTXI:00000000 R_SCIFA_StopTXI
C:\Users\a5050395\AppData\Local\Temp\cca7mIMe.s:1487   .text.R_SCIFA_StartRX:00000000 $a
C:\Users\a5050395\AppData\Local\Temp\cca7mIMe.s:1493   .text.R_SCIFA_StartRX:00000000 R_SCIFA_StartRX
C:\Users\a5050395\AppData\Local\Temp\cca7mIMe.s:1544   .text.R_SCIFA_StopRX:00000000 $a
C:\Users\a5050395\AppData\Local\Temp\cca7mIMe.s:1550   .text.R_SCIFA_StopRX:00000000 R_SCIFA_StopRX
C:\Users\a5050395\AppData\Local\Temp\cca7mIMe.s:1593   .text.R_SCIFA_GetReadDataRegisterAddress:00000000 $a
C:\Users\a5050395\AppData\Local\Temp\cca7mIMe.s:1599   .text.R_SCIFA_GetReadDataRegisterAddress:00000000 R_SCIFA_GetReadDataRegisterAddress
C:\Users\a5050395\AppData\Local\Temp\cca7mIMe.s:1629   .text.R_SCIFA_StartTX:00000000 $a
C:\Users\a5050395\AppData\Local\Temp\cca7mIMe.s:1635   .text.R_SCIFA_StartTX:00000000 R_SCIFA_StartTX
C:\Users\a5050395\AppData\Local\Temp\cca7mIMe.s:1693   .text.R_SCIFA_StopTX:00000000 $a
C:\Users\a5050395\AppData\Local\Temp\cca7mIMe.s:1699   .text.R_SCIFA_StopTX:00000000 R_SCIFA_StopTX
C:\Users\a5050395\AppData\Local\Temp\cca7mIMe.s:1742   .text.R_SCIFA_GetWriteDataRegisterAddress:00000000 $a
C:\Users\a5050395\AppData\Local\Temp\cca7mIMe.s:1748   .text.R_SCIFA_GetWriteDataRegisterAddress:00000000 R_SCIFA_GetWriteDataRegisterAddress
C:\Users\a5050395\AppData\Local\Temp\cca7mIMe.s:1778   .text.R_SCIFA_StartTXI:00000000 $a
C:\Users\a5050395\AppData\Local\Temp\cca7mIMe.s:1784   .text.R_SCIFA_StartTXI:00000000 R_SCIFA_StartTXI
C:\Users\a5050395\AppData\Local\Temp\cca7mIMe.s:1827   .text.R_SCIFA_PutByte:00000000 $a
C:\Users\a5050395\AppData\Local\Temp\cca7mIMe.s:1833   .text.R_SCIFA_PutByte:00000000 R_SCIFA_PutByte
C:\Users\a5050395\AppData\Local\Temp\cca7mIMe.s:1875   .text.R_SCIFA_GetByte:00000000 $a
C:\Users\a5050395\AppData\Local\Temp\cca7mIMe.s:1881   .text.R_SCIFA_GetByte:00000000 R_SCIFA_GetByte
C:\Users\a5050395\AppData\Local\Temp\cca7mIMe.s:1926   .text.R_SCIFA_IsTxFifoFull:00000000 $a
C:\Users\a5050395\AppData\Local\Temp\cca7mIMe.s:1932   .text.R_SCIFA_IsTxFifoFull:00000000 R_SCIFA_IsTxFifoFull
C:\Users\a5050395\AppData\Local\Temp\cca7mIMe.s:1990   .text.R_SCIFA_SetModemControl:00000000 $a
C:\Users\a5050395\AppData\Local\Temp\cca7mIMe.s:1996   .text.R_SCIFA_SetModemControl:00000000 R_SCIFA_SetModemControl
C:\Users\a5050395\AppData\Local\Temp\cca7mIMe.s:2038   .text.R_SCIFA_SetNoiseCanceller:00000000 $a
C:\Users\a5050395\AppData\Local\Temp\cca7mIMe.s:2044   .text.R_SCIFA_SetNoiseCanceller:00000000 R_SCIFA_SetNoiseCanceller
C:\Users\a5050395\AppData\Local\Temp\cca7mIMe.s:2086   .text.R_SCIFA_SetClock:00000000 $a
C:\Users\a5050395\AppData\Local\Temp\cca7mIMe.s:2092   .text.R_SCIFA_SetClock:00000000 R_SCIFA_SetClock
C:\Users\a5050395\AppData\Local\Temp\cca7mIMe.s:2134   .text.R_SCIFA_SetFIFOThreshold:00000000 $a
C:\Users\a5050395\AppData\Local\Temp\cca7mIMe.s:2140   .text.R_SCIFA_SetFIFOThreshold:00000000 R_SCIFA_SetFIFOThreshold
C:\Users\a5050395\AppData\Local\Temp\cca7mIMe.s:2245   .text.R_SCIFA_SetExtendedCfg:00000000 $a
C:\Users\a5050395\AppData\Local\Temp\cca7mIMe.s:2251   .text.R_SCIFA_SetExtendedCfg:00000000 R_SCIFA_SetExtendedCfg
C:\Users\a5050395\AppData\Local\Temp\cca7mIMe.s:2336   .text.R_SCIFA_SetTXDOutput:00000000 $a
C:\Users\a5050395\AppData\Local\Temp\cca7mIMe.s:2342   .text.R_SCIFA_SetTXDOutput:00000000 R_SCIFA_SetTXDOutput
C:\Users\a5050395\AppData\Local\Temp\cca7mIMe.s:2391   .text.R_SCIFA_Init:00000000 $a
C:\Users\a5050395\AppData\Local\Temp\cca7mIMe.s:2397   .text.R_SCIFA_Init:00000000 R_SCIFA_Init
C:\Users\a5050395\AppData\Local\Temp\cca7mIMe.s:2493   .text.R_SCIFA_SetSCKOutput:00000000 $a
C:\Users\a5050395\AppData\Local\Temp\cca7mIMe.s:2499   .text.R_SCIFA_SetSCKOutput:00000000 R_SCIFA_SetSCKOutput
C:\Users\a5050395\AppData\Local\Temp\cca7mIMe.s:2548   .text.R_SCIFA_SetCTSOutput:00000000 $a
C:\Users\a5050395\AppData\Local\Temp\cca7mIMe.s:2554   .text.R_SCIFA_SetCTSOutput:00000000 R_SCIFA_SetCTSOutput
C:\Users\a5050395\AppData\Local\Temp\cca7mIMe.s:2619   .text.R_SCIFA_SetRTSOutput:00000000 $a
C:\Users\a5050395\AppData\Local\Temp\cca7mIMe.s:2625   .text.R_SCIFA_SetRTSOutput:00000000 R_SCIFA_SetRTSOutput
C:\Users\a5050395\AppData\Local\Temp\cca7mIMe.s:2690   .text.R_SCIFA_GetVersion:00000000 $a
C:\Users\a5050395\AppData\Local\Temp\cca7mIMe.s:2696   .text.R_SCIFA_GetVersion:00000000 R_SCIFA_GetVersion
C:\Users\a5050395\AppData\Local\Temp\cca7mIMe.s:3687   .rodata.R_SCIFA_GetVersion.str1.4:00000000 .LC1
C:\Users\a5050395\AppData\Local\Temp\cca7mIMe.s:2725   .text.R_SCIFA_SetupInterrupts:00000000 $a
C:\Users\a5050395\AppData\Local\Temp\cca7mIMe.s:2731   .text.R_SCIFA_SetupInterrupts:00000000 R_SCIFA_SetupInterrupts
C:\Users\a5050395\AppData\Local\Temp\cca7mIMe.s:2752   .text.R_SCIFA_SetupInterrupts:0000001c $d
C:\Users\a5050395\AppData\Local\Temp\cca7mIMe.s:2759   .text.R_SCIFA_SetupInterrupts:00000030 $a
C:\Users\a5050395\AppData\Local\Temp\cca7mIMe.s:3097   .text.R_SCIFA_StartModule:00000000 $a
C:\Users\a5050395\AppData\Local\Temp\cca7mIMe.s:3103   .text.R_SCIFA_StartModule:00000000 R_SCIFA_StartModule
C:\Users\a5050395\AppData\Local\Temp\cca7mIMe.s:3659   .rodata:00000000 .LANCHOR2
C:\Users\a5050395\AppData\Local\Temp\cca7mIMe.s:3167   .text.R_SCIFA_ChannelConfigure:00000000 $a
C:\Users\a5050395\AppData\Local\Temp\cca7mIMe.s:3173   .text.R_SCIFA_ChannelConfigure:00000000 R_SCIFA_ChannelConfigure
C:\Users\a5050395\AppData\Local\Temp\cca7mIMe.s:3683   .rodata.R_SCIFA_ChannelConfigure.str1.4:00000000 .LC2
C:\Users\a5050395\AppData\Local\Temp\cca7mIMe.s:3406   .text.R_SCIFA_Open:00000000 $a
C:\Users\a5050395\AppData\Local\Temp\cca7mIMe.s:3412   .text.R_SCIFA_Open:00000000 R_SCIFA_Open
C:\Users\a5050395\AppData\Local\Temp\cca7mIMe.s:3691   .rodata.R_SCIFA_Open.str1.4:00000000 .LC3
C:\Users\a5050395\AppData\Local\Temp\cca7mIMe.s:3526   .text.R_SCIFA_DisableTxInterrupt:00000000 $a
C:\Users\a5050395\AppData\Local\Temp\cca7mIMe.s:3532   .text.R_SCIFA_DisableTxInterrupt:00000000 R_SCIFA_DisableTxInterrupt
C:\Users\a5050395\AppData\Local\Temp\cca7mIMe.s:3559   .text.R_SCIFA_EnableTxInterrupt:00000000 $a
C:\Users\a5050395\AppData\Local\Temp\cca7mIMe.s:3565   .text.R_SCIFA_EnableTxInterrupt:00000000 R_SCIFA_EnableTxInterrupt
C:\Users\a5050395\AppData\Local\Temp\cca7mIMe.s:3592   .text.R_SCIFA_DisableRxInterrupt:00000000 $a
C:\Users\a5050395\AppData\Local\Temp\cca7mIMe.s:3598   .text.R_SCIFA_DisableRxInterrupt:00000000 R_SCIFA_DisableRxInterrupt
C:\Users\a5050395\AppData\Local\Temp\cca7mIMe.s:3625   .text.R_SCIFA_EnableRxInterrupt:00000000 $a
C:\Users\a5050395\AppData\Local\Temp\cca7mIMe.s:3631   .text.R_SCIFA_EnableRxInterrupt:00000000 R_SCIFA_EnableRxInterrupt
C:\Users\a5050395\AppData\Local\Temp\cca7mIMe.s:3658   .rodata:00000000 $d
C:\Users\a5050395\AppData\Local\Temp\cca7mIMe.s:3667   .rodata.GPIO_SC_TABLE_scifa4:00000000 $d
C:\Users\a5050395\AppData\Local\Temp\cca7mIMe.s:3670   .rodata.GPIO_SC_TABLE_scifa4:00000000 GPIO_SC_TABLE_scifa4
C:\Users\a5050395\AppData\Local\Temp\cca7mIMe.s:3682   .rodata.R_SCIFA_ChannelConfigure.str1.4:00000000 $d
C:\Users\a5050395\AppData\Local\Temp\cca7mIMe.s:3686   .rodata.R_SCIFA_GetVersion.str1.4:00000000 $d
C:\Users\a5050395\AppData\Local\Temp\cca7mIMe.s:3690   .rodata.R_SCIFA_Open.str1.4:00000000 $d
C:\Users\a5050395\AppData\Local\Temp\cca7mIMe.s:3694   .rodata.SCIFA_SC_TABLE:00000000 $d
C:\Users\a5050395\AppData\Local\Temp\cca7mIMe.s:3698   .rodata.SCIFA_SC_TABLE:00000000 SCIFA_SC_TABLE
C:\Users\a5050395\AppData\Local\Temp\cca7mIMe.s:3741   .rodata.gsp_scifa:00000000 $d
C:\Users\a5050395\AppData\Local\Temp\cca7mIMe.s:3745   .rodata.gsp_scifa:00000000 gsp_scifa
                     .debug_frame:00000010 $d
                           .group:00000000 wm4.0.14fc17be114e5a2cba0959c511ea2aaf
                           .group:00000000 wm4._newlib_version.h.4.3572908597b70d672d181fc7fc501c19
                           .group:00000000 wm4.newlib.h.21.59901f4bf241ab46c63694665baa7297
                           .group:00000000 wm4.features.h.22.5cdadbb3efe495d1c9e38350b8c376c7
                           .group:00000000 wm4.config.h.219.65a553ab5bef5482f0d7880b0d33015e
                           .group:00000000 wm4._ansi.h.23.9f8fcfa20193763fcf364fb91705c94b
                           .group:00000000 wm4.stddef.h.39.a38874c8f8a57e66301090908ec2a69f
                           .group:00000000 wm4._default_types.h.6.959254cf5f09734ea7516c89e8bb21bd
                           .group:00000000 wm4.lock.h.2.1461d1fff82dffe8bfddc23307f6484f
                           .group:00000000 wm4._types.h.125.5cf8a495f1f7ef36777ad868a1e32068
                           .group:00000000 wm4.stddef.h.161.5349cb105733e8777bfb0cf53c4e3f34
                           .group:00000000 wm4._types.h.183.c226d164ceca1f2ecb9ae9360c54a098
                           .group:00000000 wm4.reent.h.17.23b059516345f8f5abfa01ddc379570f
                           .group:00000000 wm4.cdefs.h.47.e658329a094974ebad41b40c60502de7
                           .group:00000000 wm4.string.h.15.dab3980bf35408a4c507182805e2de3a
                           .group:00000000 wm4.stddef.h.161.19e15733342b50ead2919490b095303e
                           .group:00000000 wm4._intsup.h.10.cce27fed8484c08a33f522034c30d2b5
                           .group:00000000 wm4._stdint.h.10.c24fa3af3bc1706662bb5593a907e841
                           .group:00000000 wm4.stdint.h.23.d53047a68f4a85177f80b422d52785ed
                           .group:00000000 wm4.math.h.13.adb102f7bd7860b1f241e149d6914a1e
                           .group:00000000 wm4.r_typedefs.h.38.e90d9de5300d9ae020e5db8c5af88b3e
                           .group:00000000 wm4.adc_iodefine.h.29.14c6f50dce37432a7d004e4b1ce33da7
                           .group:00000000 wm4.bsc_iodefine.h.29.9281d1f3639266933964d6d0c2d42c4f
                           .group:00000000 wm4.ceu_iodefine.h.29.2a669d0b46fdde030a50db9e3c307fbf
                           .group:00000000 wm4.cpg_iodefine.h.29.d6fdc9cb4798723afd88b251d64c2ce2
                           .group:00000000 wm4.csi2link_iodefine.h.29.221c4531636a409f24d307b16341ada8
                           .group:00000000 wm4.dmac_iodefine.h.29.578fccc2cc1da886ec95a029bf874f01
                           .group:00000000 wm4.drpk_iodefine.h.29.580eb8588a2b2d43d2726fbe791e513f
                           .group:00000000 wm4.drw_iodefine.h.29.df30f4a4a34a79f6a86c4df91353dffe
                           .group:00000000 wm4.edmac_iodefine.h.29.33e8759349004a722f42f5429c1353f6
                           .group:00000000 wm4.eptpc_iodefine.h.29.74d8f9fab0f5549b56097fb9e937dde8
                           .group:00000000 wm4.etherc_iodefine.h.29.14602750383a574f1c21f994ad33a366
                           .group:00000000 wm4.gpio_iodefine.h.29.3d0b021c56839cee4ae5149903684e4b
                           .group:00000000 wm4.gpt_iodefine.h.29.557ead75d7b0585b898d3898b64c7f87
                           .group:00000000 wm4.hyper_iodefine.h.29.000caadbb74d881e97db55b39b432154
                           .group:00000000 wm4.imr_iodefine.h.29.77c022f017e711c4d51cc0145db1dad3
                           .group:00000000 wm4.intc_iodefine.h.29.b68f5799a35a7495d63b4cd458e1ba57
                           .group:00000000 wm4.irda_iodefine.h.29.37e67bd2005173d68a74d1cc937d8444
                           .group:00000000 wm4.jcu_iodefine.h.29.3aca452908962e7a7ccf26164751feda
                           .group:00000000 wm4.lvds_iodefine.h.29.c11cbe1900e5209c8dcc76c2336c16bc
                           .group:00000000 wm4.mtu_iodefine.h.29.5498fb974bb53caf05aa143c2deec781
                           .group:00000000 wm4.nandc_iodefine.h.29.e0b343306750f017ee86e169ad98efe9
                           .group:00000000 wm4.octa_iodefine.h.29.4cb0d62e4b9633e173858000dc1c626c
                           .group:00000000 wm4.ostm_iodefine.h.29.6914f7e330a1cf0008b34219adcdfed4
                           .group:00000000 wm4.pl_iodefine.h.29.abbb6d725aed990aa8343242bfe31416
                           .group:00000000 wm4.pmg_iodefine.h.29.8bcfbc4771a6f9b7dd4d6f504427219e
                           .group:00000000 wm4.poeg_iodefine.h.29.0d8e258d10986260cbc70cfb8c0ef273
                           .group:00000000 wm4.poe_iodefine.h.29.fe74e55e7b6b4afbe3596c74ba035e98
                           .group:00000000 wm4.prr_iodefine.h.29.c1f15576f7a27b9c83aa3b40f5b2f988
                           .group:00000000 wm4.ptpedmac_iodefine.h.29.cd24a93374ce35cebc41e26889d619ef
                           .group:00000000 wm4.rcanfd_iodefine.h.29.532dd48b82fcb61d63538aba4b6f1289
                           .group:00000000 wm4.rcan_iodefine.h.29.a47a89db1b35c12b54af48fa1956acba
                           .group:00000000 wm4.riic_iodefine.h.29.f96943d49800d297612c4af3bba5c943
                           .group:00000000 wm4.rspi_iodefine.h.29.7efa041fe34a7d27db66a7b337879dfe
                           .group:00000000 wm4.rtc_iodefine.h.29.6dc76be5ca3df69cecb5a81d06cc46b5
                           .group:00000000 wm4.scifa_iodefine.h.29.b04ccd664d71baaf31c75761c45b9c4d
                           .group:00000000 wm4.scim_iodefine.h.29.87d0760abf94446b00d826c797bf0ff2
                           .group:00000000 wm4.sdmmc_iodefine.h.29.e67e9815445e8057a3262d1566bea0db
                           .group:00000000 wm4.spdif_iodefine.h.29.59f5d70150fa200a4d8ee50be1ee34c8
                           .group:00000000 wm4.spibsc_iodefine.h.29.f4930f8b8da1140200204513a363c76f
                           .group:00000000 wm4.sprite_iodefine.h.29.55796d1fa083a2457fea4ece974a192e
                           .group:00000000 wm4.ssif_iodefine.h.29.054ec6d95f487f631f16aee39c85c47a
                           .group:00000000 wm4.usb_iodefine.h.29.6dc44ea388ba227e8fdcfb33c315887b
                           .group:00000000 wm4.vdc_iodefine.h.29.db282ded1f052d8567fbbd3b61ce8f7a
                           .group:00000000 wm4.vin_iodefine.h.29.9b392e5601347d53e64be3272934e170
                           .group:00000000 wm4.wdt_iodefine.h.29.ed07bb44b797072f8c28b41c64fdca30
                           .group:00000000 wm4.iobitmask.h.29.773e8f8428b0c21e1206a8c47a6d3927
                           .group:00000000 wm4.adc_iobitmask.h.29.48ba2821c8a4fc20022447ad9316d399
                           .group:00000000 wm4.bsc_iobitmask.h.29.115d15c4ad4b48e00598dcd62d33c637
                           .group:00000000 wm4.ceu_iobitmask.h.29.413b5b68bb3c2148786493166a57173e
                           .group:00000000 wm4.cpg_iobitmask.h.29.128911f0454a5339c74031b8d73e8fed
                           .group:00000000 wm4.csi2link_iobitmask.h.29.701c130cb17627664fe7c147084057cf
                           .group:00000000 wm4.dmac_iobitmask.h.29.98850e876107975c53dc0bb8ebb53eb5
                           .group:00000000 wm4.drpk_iobitmask.h.29.167e7cf6b1feb4d38b8903a46d8c35ac
                           .group:00000000 wm4.drw_iobitmask.h.29.71d46f2244f6e7ae6117fe6c41c5567d
                           .group:00000000 wm4.edmac_iobitmask.h.29.4e406d859155ba914663e1cf61cad89a
                           .group:00000000 wm4.eptpc_iobitmask.h.29.64bcd0a67db3a886572992ae6da8898c
                           .group:00000000 wm4.etherc_iobitmask.h.29.07b13cb10c426023658e5c51f952b6de
                           .group:00000000 wm4.gpio_iobitmask.h.29.ea8c1464682eb61f2d0763b97ed530f9
                           .group:00000000 wm4.gpt_iobitmask.h.29.94173800a704c5ba32e348ba97cd23cf
                           .group:00000000 wm4.hyper_iobitmask.h.29.f09febbc7b835674abe34ae75f3c700d
                           .group:00000000 wm4.imr2_iobitmask.h.29.fff702c4c9409266054e806327fa236b
                           .group:00000000 wm4.intc_iobitmask.h.29.6d3be2e47bf3d7eb7e91eeddcab863af
                           .group:00000000 wm4.irda_iobitmask.h.29.6f43dde454e599a1d4a8be2978ac9459
                           .group:00000000 wm4.jcu_iobitmask.h.29.9fd48851a81ff31733aa19b29e4846ad
                           .group:00000000 wm4.lvds_iobitmask.h.29.4a6f69c8911426fa05f0b05eab5f5e15
                           .group:00000000 wm4.mtu_iobitmask.h.29.0dfead439d92d73e6bac91e937399f90
                           .group:00000000 wm4.nandc_iobitmask.h.29.26dc88335e3fd43a64a25f5ba82d9db4
                           .group:00000000 wm4.octa_iobitmask.h.29.75dc3e3c70ac86c7551744de3991f583
                           .group:00000000 wm4.ostm_iobitmask.h.29.38ee9f4e1711e17bd3f38545ba631cde
                           .group:00000000 wm4.pl310_iobitmask.h.29.c1ef5625c0a9d67f24e89fe2fd7e4886
                           .group:00000000 wm4.pmg_iobitmask.h.29.d20cb8352080a58cf6cbf526935d968e
                           .group:00000000 wm4.poe3_iobitmask.h.29.3a3444cc2dbf606e2370573e16d57254
                           .group:00000000 wm4.poeg_iobitmask.h.29.5601eb8cf1161926d683c0720340f85d
                           .group:00000000 wm4.prr_iobitmask.h.29.52f8479a52e2236c122b5956e4bdbfce
                           .group:00000000 wm4.ptpedmac_iobitmask.h.29.494dcb2240ebba7fa20d0c2ab02007f7
                           .group:00000000 wm4.rcanfd_iobitmask.h.29.d172f89cbc4f253e32a4e10346bdc9f6
                           .group:00000000 wm4.rcan_iobitmask.h.29.c6f8b9b62e8fdc007f8b5f40c1f7e95d
                           .group:00000000 wm4.riic_iobitmask.h.29.faa52a36e584704b50a2c22ab62c84de
                           .group:00000000 wm4.rspi_iobitmask.h.29.2e257f44186c83ca40dbb0db2548623b
                           .group:00000000 wm4.rtc_iobitmask.h.29.2c82d3237997f1de7d2ac9d93855f3da
                           .group:00000000 wm4.scifa_iobitmask.h.29.c7af830569e0d6a26f3d66e3adc293d7
                           .group:00000000 wm4.scim_iobitmask.h.29.3b5e9d8b03a11c94acd93de96d2037f6
                           .group:00000000 wm4.sdmmc_iobitmask.h.29.21d47a25c0df1ed3d24cd6232ec3b4e7
                           .group:00000000 wm4.spdif_iobitmask.h.29.c16f83f628828ab24aa2b72615b93e69
                           .group:00000000 wm4.spibsc_iobitmask.h.29.8ade4a581f57cd5b82569a69eb5f0d67
                           .group:00000000 wm4.sprite_iobitmask.h.29.82888597faf7ebb3bc86b5f1018a2253
                           .group:00000000 wm4.ssif_iobitmask.h.29.482529b431f1ad627a02168620c61eee
                           .group:00000000 wm4.usb_iobitmask.h.29.aae4dfd463dfdd120bf5855c9dc97483
                           .group:00000000 wm4.vdc6_iobitmask.h.29.3ce0a3f9d2209ce71e4fec48b4ecb79a
                           .group:00000000 wm4.vin_iobitmask.h.29.576a1d6e4b2cf6cbd353044865e437f2
                           .group:00000000 wm4.wdt_iobitmask.h.29.c612db09eac33fb3da8d8aaee67287a9
                           .group:00000000 wm4.rza_io_regrw.h.33.07c1ee176b41ade23637426c80e4b86a
                           .group:00000000 wm4.driver.h.34.180df73e0731406f5e50150641059ede
                           .group:00000000 wm4.r_rza2_scifa_lld_api.h.40.f15aca924d8f4510909a605ba9e2cfc9
                           .group:00000000 wm4.r_intc_lld_rza2m.h.35.148dee33e6a963828fdce2545668b517
                           .group:00000000 wm4.r_rza2_scifa_lld.h.43.012a3fef11a37869f92df11b17f0b8cf
                           .group:00000000 wm4.r_rza2_scifa_lld_cfg.h.36.61e814bf2acbefb3a77603b0f9c69f70
                           .group:00000000 wm4.stdio.h.27.3fc80220048df77954e38daec3bb9670
                           .group:00000000 wm4.stdarg.h.34.3a23a216c0c293b3d2ea2e89281481e6
                           .group:00000000 wm4.types.h.40.e8c16e7ec36ba55f133d0616070e25fc
                           .group:00000000 wm4._endian.h.31.65a10590763c3dde1ac4a7f66d7d4891
                           .group:00000000 wm4.endian.h.9.49f3a4695c1b61e8a0808de3c4a106cb
                           .group:00000000 wm4._timeval.h.30.0e8bfd94e85db17dda3286ee81496fe6
                           .group:00000000 wm4.timespec.h.41.d855182eb0e690443ab8651bcedca6e1
                           .group:00000000 wm4.select.h.30.bbece7fa40993a78092dcc5805132560
                           .group:00000000 wm4.types.h.69.ed3eae3cf73030a737515151ebcab7a1
                           .group:00000000 wm4.stdio.h.2.4aa87247282eca6c8f36f9de33d8df1a
                           .group:00000000 wm4.stdio.h.81.8188691c2279eac7a223caa50f6694b9
                           .group:00000000 wm4.stdlib.h.13.4ed386f5c1a80d71e72172885d946ef2
                           .group:00000000 wm4.alloca.h.8.dfc0c703c47ec3e69746825b17d9e66d
                           .group:00000000 wm4.stdlib.h.56.d4493cd3736e51e9d56335045f26df45
                           .group:00000000 wm4.reent.h.91.b3ea049ebc5486622b61409b78486f84
                           .group:00000000 wm4._default_fcntl.h.6.b13d56891b95175b639f824a0fd1ed77
                           .group:00000000 wm4.time.h.8.db4619001f026d0b4874c029fef0e91f
                           .group:00000000 wm4.time.h.2.4581ce0ffb6627cfc02162c94bf846c9
                           .group:00000000 wm4.time.h.25.106a07801fea6508dd6bbd3b8a1c271a
                           .group:00000000 wm4.stat.h.71.d65ac61ff88c651e198008cfb38bda9c
                           .group:00000000 wm4.fcntl.h.9.9336f33d7f5028f694c75e6e224e0cf7
                           .group:00000000 wm4.r_devlink_wrapper.h.72.ad1de4c851513efa3aed0532ebca7ca2
                           .group:00000000 wm4.r_gpio_lld_rza2m.h.35.fd76d0816769697a06dd6f4a61c03021
                           .group:00000000 wm4.r_gpio_drv_api.h.82.9514441e942567d0eb0b23efaff62239
                           .group:00000000 wm4.r_stb_lld_rza2m.h.40.c61d2089eb09a49a0dd94a4e921c320f
                           .group:00000000 wm4.r_cpg_lld_rza2m.h.34.816a72e040903fdc81e9bc59d78d8604
                           .group:00000000 wm4.r_cpg_drv_api.h.32.34aa4048b9b772326079abd0eac5b571

UNDEFINED SYMBOLS
RZA_IO_RegWrite_16
RZA_IO_RegWrite_8
RZA_IO_RegRead_16
RZA_IO_RegRead_8
R_INTC_RegistIntFunc
R_INTC_Enable
R_INTC_SetPriority
R_INTC_Disable
R_STB_StopModule
R_STB_StartModule
direct_open
control
direct_close
R_SCIFA_SetBaud
direct_control
memcpy
