   1              		.cpu cortex-a9
   2              		.eabi_attribute 28, 1
   3              		.eabi_attribute 20, 1
   4              		.eabi_attribute 21, 1
   5              		.eabi_attribute 23, 3
   6              		.eabi_attribute 24, 1
   7              		.eabi_attribute 25, 1
   8              		.eabi_attribute 26, 1
   9              		.eabi_attribute 30, 2
  10              		.eabi_attribute 34, 0
  11              		.eabi_attribute 18, 4
  12              		.file	"arm_max_pool_s8.c"
  13              		.text
  14              	.Ltext0:
  15              		.cfi_sections	.debug_frame
  16              		.section	.text.arm_max_pool_s8,"ax",%progbits
  17              		.align	2
  18              		.global	arm_max_pool_s8
  19              		.syntax unified
  20              		.arm
  21              		.fpu neon
  23              	arm_max_pool_s8:
  24              	.LFB124:
  25              		.file 1 "../src/tensorflow_lite/third_party/cmsis/CMSIS/NN/Source/PoolingFunctions/arm_max_pool_s8
   1:../src/tensorflow_lite/third_party/cmsis/CMSIS/NN/Source/PoolingFunctions/arm_max_pool_s8.c **** /*
   2:../src/tensorflow_lite/third_party/cmsis/CMSIS/NN/Source/PoolingFunctions/arm_max_pool_s8.c ****  * Copyright (C) 2010-2020 Arm Limited or its affiliates. All rights reserved.
   3:../src/tensorflow_lite/third_party/cmsis/CMSIS/NN/Source/PoolingFunctions/arm_max_pool_s8.c ****  *
   4:../src/tensorflow_lite/third_party/cmsis/CMSIS/NN/Source/PoolingFunctions/arm_max_pool_s8.c ****  * SPDX-License-Identifier: Apache-2.0
   5:../src/tensorflow_lite/third_party/cmsis/CMSIS/NN/Source/PoolingFunctions/arm_max_pool_s8.c ****  *
   6:../src/tensorflow_lite/third_party/cmsis/CMSIS/NN/Source/PoolingFunctions/arm_max_pool_s8.c ****  * Licensed under the Apache License, Version 2.0 (the License); you may
   7:../src/tensorflow_lite/third_party/cmsis/CMSIS/NN/Source/PoolingFunctions/arm_max_pool_s8.c ****  * not use this file except in compliance with the License.
   8:../src/tensorflow_lite/third_party/cmsis/CMSIS/NN/Source/PoolingFunctions/arm_max_pool_s8.c ****  * You may obtain a copy of the License at
   9:../src/tensorflow_lite/third_party/cmsis/CMSIS/NN/Source/PoolingFunctions/arm_max_pool_s8.c ****  *
  10:../src/tensorflow_lite/third_party/cmsis/CMSIS/NN/Source/PoolingFunctions/arm_max_pool_s8.c ****  * www.apache.org/licenses/LICENSE-2.0
  11:../src/tensorflow_lite/third_party/cmsis/CMSIS/NN/Source/PoolingFunctions/arm_max_pool_s8.c ****  *
  12:../src/tensorflow_lite/third_party/cmsis/CMSIS/NN/Source/PoolingFunctions/arm_max_pool_s8.c ****  * Unless required by applicable law or agreed to in writing, software
  13:../src/tensorflow_lite/third_party/cmsis/CMSIS/NN/Source/PoolingFunctions/arm_max_pool_s8.c ****  * distributed under the License is distributed on an AS IS BASIS, WITHOUT
  14:../src/tensorflow_lite/third_party/cmsis/CMSIS/NN/Source/PoolingFunctions/arm_max_pool_s8.c ****  * WARRANTIES OR CONDITIONS OF ANY KIND, either express or implied.
  15:../src/tensorflow_lite/third_party/cmsis/CMSIS/NN/Source/PoolingFunctions/arm_max_pool_s8.c ****  * See the License for the specific language governing permissions and
  16:../src/tensorflow_lite/third_party/cmsis/CMSIS/NN/Source/PoolingFunctions/arm_max_pool_s8.c ****  * limitations under the License.
  17:../src/tensorflow_lite/third_party/cmsis/CMSIS/NN/Source/PoolingFunctions/arm_max_pool_s8.c ****  */
  18:../src/tensorflow_lite/third_party/cmsis/CMSIS/NN/Source/PoolingFunctions/arm_max_pool_s8.c **** 
  19:../src/tensorflow_lite/third_party/cmsis/CMSIS/NN/Source/PoolingFunctions/arm_max_pool_s8.c **** /* ----------------------------------------------------------------------
  20:../src/tensorflow_lite/third_party/cmsis/CMSIS/NN/Source/PoolingFunctions/arm_max_pool_s8.c ****  * Project:      CMSIS NN Library
  21:../src/tensorflow_lite/third_party/cmsis/CMSIS/NN/Source/PoolingFunctions/arm_max_pool_s8.c ****  * Title:        arm_max_pool_s8.c
  22:../src/tensorflow_lite/third_party/cmsis/CMSIS/NN/Source/PoolingFunctions/arm_max_pool_s8.c ****  * Description:  Pooling function implementations
  23:../src/tensorflow_lite/third_party/cmsis/CMSIS/NN/Source/PoolingFunctions/arm_max_pool_s8.c ****  *
  24:../src/tensorflow_lite/third_party/cmsis/CMSIS/NN/Source/PoolingFunctions/arm_max_pool_s8.c ****  * $Date:        19. Februari 2021
  25:../src/tensorflow_lite/third_party/cmsis/CMSIS/NN/Source/PoolingFunctions/arm_max_pool_s8.c ****  * $Revision:    V.2.0.2
  26:../src/tensorflow_lite/third_party/cmsis/CMSIS/NN/Source/PoolingFunctions/arm_max_pool_s8.c ****  *
  27:../src/tensorflow_lite/third_party/cmsis/CMSIS/NN/Source/PoolingFunctions/arm_max_pool_s8.c ****  * Target Processor:  Cortex-M CPUs
  28:../src/tensorflow_lite/third_party/cmsis/CMSIS/NN/Source/PoolingFunctions/arm_max_pool_s8.c ****  *
  29:../src/tensorflow_lite/third_party/cmsis/CMSIS/NN/Source/PoolingFunctions/arm_max_pool_s8.c ****  * -------------------------------------------------------------------- */
  30:../src/tensorflow_lite/third_party/cmsis/CMSIS/NN/Source/PoolingFunctions/arm_max_pool_s8.c **** 
  31:../src/tensorflow_lite/third_party/cmsis/CMSIS/NN/Source/PoolingFunctions/arm_max_pool_s8.c **** #include "arm_nnfunctions.h"
  32:../src/tensorflow_lite/third_party/cmsis/CMSIS/NN/Source/PoolingFunctions/arm_max_pool_s8.c **** #include "arm_nnsupportfunctions.h"
  33:../src/tensorflow_lite/third_party/cmsis/CMSIS/NN/Source/PoolingFunctions/arm_max_pool_s8.c **** 
  34:../src/tensorflow_lite/third_party/cmsis/CMSIS/NN/Source/PoolingFunctions/arm_max_pool_s8.c **** static void compare_and_replace_if_larger_q7(q7_t *base, const q7_t *target, int32_t length)
  35:../src/tensorflow_lite/third_party/cmsis/CMSIS/NN/Source/PoolingFunctions/arm_max_pool_s8.c **** {
  36:../src/tensorflow_lite/third_party/cmsis/CMSIS/NN/Source/PoolingFunctions/arm_max_pool_s8.c **** #if defined(ARM_MATH_MVEI)
  37:../src/tensorflow_lite/third_party/cmsis/CMSIS/NN/Source/PoolingFunctions/arm_max_pool_s8.c ****     int32_t loop_count = (length + 15) / 16;
  38:../src/tensorflow_lite/third_party/cmsis/CMSIS/NN/Source/PoolingFunctions/arm_max_pool_s8.c ****     for (int i = 0; i < loop_count; i++)
  39:../src/tensorflow_lite/third_party/cmsis/CMSIS/NN/Source/PoolingFunctions/arm_max_pool_s8.c ****     {
  40:../src/tensorflow_lite/third_party/cmsis/CMSIS/NN/Source/PoolingFunctions/arm_max_pool_s8.c ****         mve_pred16_t p = vctp8q((uint32_t)length);
  41:../src/tensorflow_lite/third_party/cmsis/CMSIS/NN/Source/PoolingFunctions/arm_max_pool_s8.c ****         const int8x16_t op_1 = vldrbq_z_s8(base, p);
  42:../src/tensorflow_lite/third_party/cmsis/CMSIS/NN/Source/PoolingFunctions/arm_max_pool_s8.c ****         const int8x16_t op_2 = vldrbq_z_s8(target, p);
  43:../src/tensorflow_lite/third_party/cmsis/CMSIS/NN/Source/PoolingFunctions/arm_max_pool_s8.c ****         const int8x16_t max = vmaxq_m_s8(vuninitializedq_s8(), op_1, op_2, p);
  44:../src/tensorflow_lite/third_party/cmsis/CMSIS/NN/Source/PoolingFunctions/arm_max_pool_s8.c ****         vstrbq_p_s8(base, max, p);
  45:../src/tensorflow_lite/third_party/cmsis/CMSIS/NN/Source/PoolingFunctions/arm_max_pool_s8.c ****         base += 16;
  46:../src/tensorflow_lite/third_party/cmsis/CMSIS/NN/Source/PoolingFunctions/arm_max_pool_s8.c ****         target += 16;
  47:../src/tensorflow_lite/third_party/cmsis/CMSIS/NN/Source/PoolingFunctions/arm_max_pool_s8.c ****         length -= 16;
  48:../src/tensorflow_lite/third_party/cmsis/CMSIS/NN/Source/PoolingFunctions/arm_max_pool_s8.c ****     }
  49:../src/tensorflow_lite/third_party/cmsis/CMSIS/NN/Source/PoolingFunctions/arm_max_pool_s8.c **** #else
  50:../src/tensorflow_lite/third_party/cmsis/CMSIS/NN/Source/PoolingFunctions/arm_max_pool_s8.c ****     q7_t *dst = base;
  51:../src/tensorflow_lite/third_party/cmsis/CMSIS/NN/Source/PoolingFunctions/arm_max_pool_s8.c ****     const q7_t *src = target;
  52:../src/tensorflow_lite/third_party/cmsis/CMSIS/NN/Source/PoolingFunctions/arm_max_pool_s8.c ****     union arm_nnword ref_max;
  53:../src/tensorflow_lite/third_party/cmsis/CMSIS/NN/Source/PoolingFunctions/arm_max_pool_s8.c ****     union arm_nnword comp_max;
  54:../src/tensorflow_lite/third_party/cmsis/CMSIS/NN/Source/PoolingFunctions/arm_max_pool_s8.c ****     int32_t cnt = length >> 2;
  55:../src/tensorflow_lite/third_party/cmsis/CMSIS/NN/Source/PoolingFunctions/arm_max_pool_s8.c **** 
  56:../src/tensorflow_lite/third_party/cmsis/CMSIS/NN/Source/PoolingFunctions/arm_max_pool_s8.c ****     while (cnt > 0l)
  57:../src/tensorflow_lite/third_party/cmsis/CMSIS/NN/Source/PoolingFunctions/arm_max_pool_s8.c ****     {
  58:../src/tensorflow_lite/third_party/cmsis/CMSIS/NN/Source/PoolingFunctions/arm_max_pool_s8.c ****         ref_max.word = arm_nn_read_q7x4(dst);
  59:../src/tensorflow_lite/third_party/cmsis/CMSIS/NN/Source/PoolingFunctions/arm_max_pool_s8.c ****         comp_max.word = arm_nn_read_q7x4_ia(&src);
  60:../src/tensorflow_lite/third_party/cmsis/CMSIS/NN/Source/PoolingFunctions/arm_max_pool_s8.c **** 
  61:../src/tensorflow_lite/third_party/cmsis/CMSIS/NN/Source/PoolingFunctions/arm_max_pool_s8.c ****         if (comp_max.bytes[0] > ref_max.bytes[0])
  62:../src/tensorflow_lite/third_party/cmsis/CMSIS/NN/Source/PoolingFunctions/arm_max_pool_s8.c ****         {
  63:../src/tensorflow_lite/third_party/cmsis/CMSIS/NN/Source/PoolingFunctions/arm_max_pool_s8.c ****             ref_max.bytes[0] = comp_max.bytes[0];
  64:../src/tensorflow_lite/third_party/cmsis/CMSIS/NN/Source/PoolingFunctions/arm_max_pool_s8.c ****         }
  65:../src/tensorflow_lite/third_party/cmsis/CMSIS/NN/Source/PoolingFunctions/arm_max_pool_s8.c ****         if (comp_max.bytes[1] > ref_max.bytes[1])
  66:../src/tensorflow_lite/third_party/cmsis/CMSIS/NN/Source/PoolingFunctions/arm_max_pool_s8.c ****         {
  67:../src/tensorflow_lite/third_party/cmsis/CMSIS/NN/Source/PoolingFunctions/arm_max_pool_s8.c ****             ref_max.bytes[1] = comp_max.bytes[1];
  68:../src/tensorflow_lite/third_party/cmsis/CMSIS/NN/Source/PoolingFunctions/arm_max_pool_s8.c ****         }
  69:../src/tensorflow_lite/third_party/cmsis/CMSIS/NN/Source/PoolingFunctions/arm_max_pool_s8.c ****         if (comp_max.bytes[2] > ref_max.bytes[2])
  70:../src/tensorflow_lite/third_party/cmsis/CMSIS/NN/Source/PoolingFunctions/arm_max_pool_s8.c ****         {
  71:../src/tensorflow_lite/third_party/cmsis/CMSIS/NN/Source/PoolingFunctions/arm_max_pool_s8.c ****             ref_max.bytes[2] = comp_max.bytes[2];
  72:../src/tensorflow_lite/third_party/cmsis/CMSIS/NN/Source/PoolingFunctions/arm_max_pool_s8.c ****         }
  73:../src/tensorflow_lite/third_party/cmsis/CMSIS/NN/Source/PoolingFunctions/arm_max_pool_s8.c ****         if (comp_max.bytes[3] > ref_max.bytes[3])
  74:../src/tensorflow_lite/third_party/cmsis/CMSIS/NN/Source/PoolingFunctions/arm_max_pool_s8.c ****         {
  75:../src/tensorflow_lite/third_party/cmsis/CMSIS/NN/Source/PoolingFunctions/arm_max_pool_s8.c ****             ref_max.bytes[3] = comp_max.bytes[3];
  76:../src/tensorflow_lite/third_party/cmsis/CMSIS/NN/Source/PoolingFunctions/arm_max_pool_s8.c ****         }
  77:../src/tensorflow_lite/third_party/cmsis/CMSIS/NN/Source/PoolingFunctions/arm_max_pool_s8.c **** 
  78:../src/tensorflow_lite/third_party/cmsis/CMSIS/NN/Source/PoolingFunctions/arm_max_pool_s8.c ****         write_q7x4_ia(&dst, ref_max.word);
  79:../src/tensorflow_lite/third_party/cmsis/CMSIS/NN/Source/PoolingFunctions/arm_max_pool_s8.c **** 
  80:../src/tensorflow_lite/third_party/cmsis/CMSIS/NN/Source/PoolingFunctions/arm_max_pool_s8.c ****         cnt--;
  81:../src/tensorflow_lite/third_party/cmsis/CMSIS/NN/Source/PoolingFunctions/arm_max_pool_s8.c ****     }
  82:../src/tensorflow_lite/third_party/cmsis/CMSIS/NN/Source/PoolingFunctions/arm_max_pool_s8.c **** 
  83:../src/tensorflow_lite/third_party/cmsis/CMSIS/NN/Source/PoolingFunctions/arm_max_pool_s8.c ****     cnt = length & 0x3;
  84:../src/tensorflow_lite/third_party/cmsis/CMSIS/NN/Source/PoolingFunctions/arm_max_pool_s8.c ****     while (cnt > 0l)
  85:../src/tensorflow_lite/third_party/cmsis/CMSIS/NN/Source/PoolingFunctions/arm_max_pool_s8.c ****     {
  86:../src/tensorflow_lite/third_party/cmsis/CMSIS/NN/Source/PoolingFunctions/arm_max_pool_s8.c ****         if (*src > *dst)
  87:../src/tensorflow_lite/third_party/cmsis/CMSIS/NN/Source/PoolingFunctions/arm_max_pool_s8.c ****         {
  88:../src/tensorflow_lite/third_party/cmsis/CMSIS/NN/Source/PoolingFunctions/arm_max_pool_s8.c ****             *dst = *src;
  89:../src/tensorflow_lite/third_party/cmsis/CMSIS/NN/Source/PoolingFunctions/arm_max_pool_s8.c ****         }
  90:../src/tensorflow_lite/third_party/cmsis/CMSIS/NN/Source/PoolingFunctions/arm_max_pool_s8.c ****         dst++;
  91:../src/tensorflow_lite/third_party/cmsis/CMSIS/NN/Source/PoolingFunctions/arm_max_pool_s8.c ****         src++;
  92:../src/tensorflow_lite/third_party/cmsis/CMSIS/NN/Source/PoolingFunctions/arm_max_pool_s8.c ****         cnt--;
  93:../src/tensorflow_lite/third_party/cmsis/CMSIS/NN/Source/PoolingFunctions/arm_max_pool_s8.c ****     }
  94:../src/tensorflow_lite/third_party/cmsis/CMSIS/NN/Source/PoolingFunctions/arm_max_pool_s8.c **** #endif
  95:../src/tensorflow_lite/third_party/cmsis/CMSIS/NN/Source/PoolingFunctions/arm_max_pool_s8.c **** }
  96:../src/tensorflow_lite/third_party/cmsis/CMSIS/NN/Source/PoolingFunctions/arm_max_pool_s8.c **** 
  97:../src/tensorflow_lite/third_party/cmsis/CMSIS/NN/Source/PoolingFunctions/arm_max_pool_s8.c **** static void clamp_output(q7_t *source, int32_t length, const int32_t act_min, const int32_t act_max
  98:../src/tensorflow_lite/third_party/cmsis/CMSIS/NN/Source/PoolingFunctions/arm_max_pool_s8.c **** {
  99:../src/tensorflow_lite/third_party/cmsis/CMSIS/NN/Source/PoolingFunctions/arm_max_pool_s8.c **** #if defined(ARM_MATH_MVEI)
 100:../src/tensorflow_lite/third_party/cmsis/CMSIS/NN/Source/PoolingFunctions/arm_max_pool_s8.c ****     int32_t loop_count = (length + 15) / 16;
 101:../src/tensorflow_lite/third_party/cmsis/CMSIS/NN/Source/PoolingFunctions/arm_max_pool_s8.c ****     for (int i = 0; i < loop_count; i++)
 102:../src/tensorflow_lite/third_party/cmsis/CMSIS/NN/Source/PoolingFunctions/arm_max_pool_s8.c ****     {
 103:../src/tensorflow_lite/third_party/cmsis/CMSIS/NN/Source/PoolingFunctions/arm_max_pool_s8.c ****         mve_pred16_t p = vctp8q((uint32_t)length);
 104:../src/tensorflow_lite/third_party/cmsis/CMSIS/NN/Source/PoolingFunctions/arm_max_pool_s8.c ****         length -= 16;
 105:../src/tensorflow_lite/third_party/cmsis/CMSIS/NN/Source/PoolingFunctions/arm_max_pool_s8.c ****         const int8x16_t src = vldrbq_z_s8(source, p);
 106:../src/tensorflow_lite/third_party/cmsis/CMSIS/NN/Source/PoolingFunctions/arm_max_pool_s8.c ****         const int8x16_t predicated_min = vdupq_m_n_s8(vuninitializedq_s8(), (int8_t)act_min, p);
 107:../src/tensorflow_lite/third_party/cmsis/CMSIS/NN/Source/PoolingFunctions/arm_max_pool_s8.c ****         const int8x16_t predicated_max = vdupq_m_n_s8(vuninitializedq_s8(), (int8_t)act_max, p);
 108:../src/tensorflow_lite/third_party/cmsis/CMSIS/NN/Source/PoolingFunctions/arm_max_pool_s8.c ****         int8x16_t res = vmaxq_m_s8(vuninitializedq_s8(), src, predicated_min, p);
 109:../src/tensorflow_lite/third_party/cmsis/CMSIS/NN/Source/PoolingFunctions/arm_max_pool_s8.c ****         res = vminq_m_s8(vuninitializedq_s8(), res, predicated_max, p);
 110:../src/tensorflow_lite/third_party/cmsis/CMSIS/NN/Source/PoolingFunctions/arm_max_pool_s8.c ****         vstrbq_p_s8(source, res, p);
 111:../src/tensorflow_lite/third_party/cmsis/CMSIS/NN/Source/PoolingFunctions/arm_max_pool_s8.c ****         source += 16;
 112:../src/tensorflow_lite/third_party/cmsis/CMSIS/NN/Source/PoolingFunctions/arm_max_pool_s8.c ****     }
 113:../src/tensorflow_lite/third_party/cmsis/CMSIS/NN/Source/PoolingFunctions/arm_max_pool_s8.c **** #else
 114:../src/tensorflow_lite/third_party/cmsis/CMSIS/NN/Source/PoolingFunctions/arm_max_pool_s8.c ****     union arm_nnword in;
 115:../src/tensorflow_lite/third_party/cmsis/CMSIS/NN/Source/PoolingFunctions/arm_max_pool_s8.c ****     int32_t cnt = length >> 2;
 116:../src/tensorflow_lite/third_party/cmsis/CMSIS/NN/Source/PoolingFunctions/arm_max_pool_s8.c **** 
 117:../src/tensorflow_lite/third_party/cmsis/CMSIS/NN/Source/PoolingFunctions/arm_max_pool_s8.c ****     while (cnt > 0l)
 118:../src/tensorflow_lite/third_party/cmsis/CMSIS/NN/Source/PoolingFunctions/arm_max_pool_s8.c ****     {
 119:../src/tensorflow_lite/third_party/cmsis/CMSIS/NN/Source/PoolingFunctions/arm_max_pool_s8.c ****         in.word = arm_nn_read_q7x4(source);
 120:../src/tensorflow_lite/third_party/cmsis/CMSIS/NN/Source/PoolingFunctions/arm_max_pool_s8.c **** 
 121:../src/tensorflow_lite/third_party/cmsis/CMSIS/NN/Source/PoolingFunctions/arm_max_pool_s8.c ****         in.bytes[0] = MAX(in.bytes[0], act_min);
 122:../src/tensorflow_lite/third_party/cmsis/CMSIS/NN/Source/PoolingFunctions/arm_max_pool_s8.c ****         in.bytes[0] = MIN(in.bytes[0], act_max);
 123:../src/tensorflow_lite/third_party/cmsis/CMSIS/NN/Source/PoolingFunctions/arm_max_pool_s8.c ****         in.bytes[1] = MAX(in.bytes[1], act_min);
 124:../src/tensorflow_lite/third_party/cmsis/CMSIS/NN/Source/PoolingFunctions/arm_max_pool_s8.c ****         in.bytes[1] = MIN(in.bytes[1], act_max);
 125:../src/tensorflow_lite/third_party/cmsis/CMSIS/NN/Source/PoolingFunctions/arm_max_pool_s8.c ****         in.bytes[2] = MAX(in.bytes[2], act_min);
 126:../src/tensorflow_lite/third_party/cmsis/CMSIS/NN/Source/PoolingFunctions/arm_max_pool_s8.c ****         in.bytes[2] = MIN(in.bytes[2], act_max);
 127:../src/tensorflow_lite/third_party/cmsis/CMSIS/NN/Source/PoolingFunctions/arm_max_pool_s8.c ****         in.bytes[3] = MAX(in.bytes[3], act_min);
 128:../src/tensorflow_lite/third_party/cmsis/CMSIS/NN/Source/PoolingFunctions/arm_max_pool_s8.c ****         in.bytes[3] = MIN(in.bytes[3], act_max);
 129:../src/tensorflow_lite/third_party/cmsis/CMSIS/NN/Source/PoolingFunctions/arm_max_pool_s8.c **** 
 130:../src/tensorflow_lite/third_party/cmsis/CMSIS/NN/Source/PoolingFunctions/arm_max_pool_s8.c ****         write_q7x4_ia(&source, in.word);
 131:../src/tensorflow_lite/third_party/cmsis/CMSIS/NN/Source/PoolingFunctions/arm_max_pool_s8.c ****         cnt--;
 132:../src/tensorflow_lite/third_party/cmsis/CMSIS/NN/Source/PoolingFunctions/arm_max_pool_s8.c ****     }
 133:../src/tensorflow_lite/third_party/cmsis/CMSIS/NN/Source/PoolingFunctions/arm_max_pool_s8.c **** 
 134:../src/tensorflow_lite/third_party/cmsis/CMSIS/NN/Source/PoolingFunctions/arm_max_pool_s8.c ****     cnt = length & 0x3;
 135:../src/tensorflow_lite/third_party/cmsis/CMSIS/NN/Source/PoolingFunctions/arm_max_pool_s8.c ****     while (cnt > 0l)
 136:../src/tensorflow_lite/third_party/cmsis/CMSIS/NN/Source/PoolingFunctions/arm_max_pool_s8.c ****     {
 137:../src/tensorflow_lite/third_party/cmsis/CMSIS/NN/Source/PoolingFunctions/arm_max_pool_s8.c ****         int32_t comp = *source;
 138:../src/tensorflow_lite/third_party/cmsis/CMSIS/NN/Source/PoolingFunctions/arm_max_pool_s8.c ****         comp = MAX(comp, act_min);
 139:../src/tensorflow_lite/third_party/cmsis/CMSIS/NN/Source/PoolingFunctions/arm_max_pool_s8.c ****         comp = MIN(comp, act_max);
 140:../src/tensorflow_lite/third_party/cmsis/CMSIS/NN/Source/PoolingFunctions/arm_max_pool_s8.c ****         *source++ = (int8_t)comp;
 141:../src/tensorflow_lite/third_party/cmsis/CMSIS/NN/Source/PoolingFunctions/arm_max_pool_s8.c ****         cnt--;
 142:../src/tensorflow_lite/third_party/cmsis/CMSIS/NN/Source/PoolingFunctions/arm_max_pool_s8.c ****     }
 143:../src/tensorflow_lite/third_party/cmsis/CMSIS/NN/Source/PoolingFunctions/arm_max_pool_s8.c **** #endif
 144:../src/tensorflow_lite/third_party/cmsis/CMSIS/NN/Source/PoolingFunctions/arm_max_pool_s8.c **** }
 145:../src/tensorflow_lite/third_party/cmsis/CMSIS/NN/Source/PoolingFunctions/arm_max_pool_s8.c **** 
 146:../src/tensorflow_lite/third_party/cmsis/CMSIS/NN/Source/PoolingFunctions/arm_max_pool_s8.c **** /**
 147:../src/tensorflow_lite/third_party/cmsis/CMSIS/NN/Source/PoolingFunctions/arm_max_pool_s8.c ****  *  @ingroup groupNN
 148:../src/tensorflow_lite/third_party/cmsis/CMSIS/NN/Source/PoolingFunctions/arm_max_pool_s8.c ****  */
 149:../src/tensorflow_lite/third_party/cmsis/CMSIS/NN/Source/PoolingFunctions/arm_max_pool_s8.c **** 
 150:../src/tensorflow_lite/third_party/cmsis/CMSIS/NN/Source/PoolingFunctions/arm_max_pool_s8.c **** /**
 151:../src/tensorflow_lite/third_party/cmsis/CMSIS/NN/Source/PoolingFunctions/arm_max_pool_s8.c ****  * @addtogroup Pooling
 152:../src/tensorflow_lite/third_party/cmsis/CMSIS/NN/Source/PoolingFunctions/arm_max_pool_s8.c ****  * @{
 153:../src/tensorflow_lite/third_party/cmsis/CMSIS/NN/Source/PoolingFunctions/arm_max_pool_s8.c ****  */
 154:../src/tensorflow_lite/third_party/cmsis/CMSIS/NN/Source/PoolingFunctions/arm_max_pool_s8.c **** 
 155:../src/tensorflow_lite/third_party/cmsis/CMSIS/NN/Source/PoolingFunctions/arm_max_pool_s8.c **** /*
 156:../src/tensorflow_lite/third_party/cmsis/CMSIS/NN/Source/PoolingFunctions/arm_max_pool_s8.c ****  * Optimized s8 max pooling function
 157:../src/tensorflow_lite/third_party/cmsis/CMSIS/NN/Source/PoolingFunctions/arm_max_pool_s8.c ****  *
 158:../src/tensorflow_lite/third_party/cmsis/CMSIS/NN/Source/PoolingFunctions/arm_max_pool_s8.c ****  * Refer to header file for details.
 159:../src/tensorflow_lite/third_party/cmsis/CMSIS/NN/Source/PoolingFunctions/arm_max_pool_s8.c ****  *
 160:../src/tensorflow_lite/third_party/cmsis/CMSIS/NN/Source/PoolingFunctions/arm_max_pool_s8.c ****  */
 161:../src/tensorflow_lite/third_party/cmsis/CMSIS/NN/Source/PoolingFunctions/arm_max_pool_s8.c **** 
 162:../src/tensorflow_lite/third_party/cmsis/CMSIS/NN/Source/PoolingFunctions/arm_max_pool_s8.c **** arm_status arm_max_pool_s8(const cmsis_nn_context *ctx,
 163:../src/tensorflow_lite/third_party/cmsis/CMSIS/NN/Source/PoolingFunctions/arm_max_pool_s8.c ****                            const cmsis_nn_pool_params *pool_params,
 164:../src/tensorflow_lite/third_party/cmsis/CMSIS/NN/Source/PoolingFunctions/arm_max_pool_s8.c ****                            const cmsis_nn_dims *input_dims,
 165:../src/tensorflow_lite/third_party/cmsis/CMSIS/NN/Source/PoolingFunctions/arm_max_pool_s8.c ****                            const q7_t *src,
 166:../src/tensorflow_lite/third_party/cmsis/CMSIS/NN/Source/PoolingFunctions/arm_max_pool_s8.c ****                            const cmsis_nn_dims *filter_dims,
 167:../src/tensorflow_lite/third_party/cmsis/CMSIS/NN/Source/PoolingFunctions/arm_max_pool_s8.c ****                            const cmsis_nn_dims *output_dims,
 168:../src/tensorflow_lite/third_party/cmsis/CMSIS/NN/Source/PoolingFunctions/arm_max_pool_s8.c ****                            q7_t *dst)
 169:../src/tensorflow_lite/third_party/cmsis/CMSIS/NN/Source/PoolingFunctions/arm_max_pool_s8.c **** {
  26              		.loc 1 169 0
  27              		.cfi_startproc
  28              		@ args = 12, pretend = 0, frame = 152
  29              		@ frame_needed = 0, uses_anonymous_args = 0
  30              	.LVL0:
  31 0000 F04F2DE9 		push	{r4, r5, r6, r7, r8, r9, r10, fp, lr}
  32              		.cfi_def_cfa_offset 36
  33              		.cfi_offset 4, -36
  34              		.cfi_offset 5, -32
  35              		.cfi_offset 6, -28
  36              		.cfi_offset 7, -24
  37              		.cfi_offset 8, -20
  38              		.cfi_offset 9, -16
  39              		.cfi_offset 10, -12
  40              		.cfi_offset 11, -8
  41              		.cfi_offset 14, -4
  42 0004 9CD04DE2 		sub	sp, sp, #156
  43              		.cfi_def_cfa_offset 192
  44              		.loc 1 169 0
  45 0008 C4E09DE5 		ldr	lr, [sp, #196]
 170:../src/tensorflow_lite/third_party/cmsis/CMSIS/NN/Source/PoolingFunctions/arm_max_pool_s8.c ****     const int32_t input_y = input_dims->h;
 171:../src/tensorflow_lite/third_party/cmsis/CMSIS/NN/Source/PoolingFunctions/arm_max_pool_s8.c ****     const int32_t input_x = input_dims->w;
 172:../src/tensorflow_lite/third_party/cmsis/CMSIS/NN/Source/PoolingFunctions/arm_max_pool_s8.c ****     const int32_t output_y = output_dims->h;
 173:../src/tensorflow_lite/third_party/cmsis/CMSIS/NN/Source/PoolingFunctions/arm_max_pool_s8.c ****     const int32_t output_x = output_dims->w;
 174:../src/tensorflow_lite/third_party/cmsis/CMSIS/NN/Source/PoolingFunctions/arm_max_pool_s8.c ****     const int32_t stride_y = pool_params->stride.h;
 175:../src/tensorflow_lite/third_party/cmsis/CMSIS/NN/Source/PoolingFunctions/arm_max_pool_s8.c ****     const int32_t stride_x = pool_params->stride.w;
 176:../src/tensorflow_lite/third_party/cmsis/CMSIS/NN/Source/PoolingFunctions/arm_max_pool_s8.c ****     const int32_t kernel_y = filter_dims->h;
 177:../src/tensorflow_lite/third_party/cmsis/CMSIS/NN/Source/PoolingFunctions/arm_max_pool_s8.c ****     const int32_t kernel_x = filter_dims->w;
 178:../src/tensorflow_lite/third_party/cmsis/CMSIS/NN/Source/PoolingFunctions/arm_max_pool_s8.c ****     const int32_t pad_y = pool_params->padding.h;
  46              		.loc 1 178 0
  47 000c 0C0091E5 		ldr	r0, [r1, #12]
  48              	.LVL1:
 169:../src/tensorflow_lite/third_party/cmsis/CMSIS/NN/Source/PoolingFunctions/arm_max_pool_s8.c ****     const int32_t input_y = input_dims->h;
  49              		.loc 1 169 0
  50 0010 88308DE5 		str	r3, [sp, #136]
 172:../src/tensorflow_lite/third_party/cmsis/CMSIS/NN/Source/PoolingFunctions/arm_max_pool_s8.c ****     const int32_t output_x = output_dims->w;
  51              		.loc 1 172 0
  52 0014 04309EE5 		ldr	r3, [lr, #4]
  53              	.LVL2:
 179:../src/tensorflow_lite/third_party/cmsis/CMSIS/NN/Source/PoolingFunctions/arm_max_pool_s8.c ****     const int32_t pad_x = pool_params->padding.w;
 180:../src/tensorflow_lite/third_party/cmsis/CMSIS/NN/Source/PoolingFunctions/arm_max_pool_s8.c ****     const int32_t act_min = pool_params->activation.min;
 181:../src/tensorflow_lite/third_party/cmsis/CMSIS/NN/Source/PoolingFunctions/arm_max_pool_s8.c ****     const int32_t act_max = pool_params->activation.max;
 182:../src/tensorflow_lite/third_party/cmsis/CMSIS/NN/Source/PoolingFunctions/arm_max_pool_s8.c ****     const int32_t channel_in = input_dims->c;
  54              		.loc 1 182 0
  55 0018 0CA092E5 		ldr	r10, [r2, #12]
 169:../src/tensorflow_lite/third_party/cmsis/CMSIS/NN/Source/PoolingFunctions/arm_max_pool_s8.c ****     const int32_t input_y = input_dims->h;
  56              		.loc 1 169 0
  57 001c C0C09DE5 		ldr	ip, [sp, #192]
 172:../src/tensorflow_lite/third_party/cmsis/CMSIS/NN/Source/PoolingFunctions/arm_max_pool_s8.c ****     const int32_t output_x = output_dims->w;
  58              		.loc 1 172 0
  59 0020 0340A0E1 		mov	r4, r3
  60 0024 54308DE5 		str	r3, [sp, #84]
  61              	.LBB34:
 183:../src/tensorflow_lite/third_party/cmsis/CMSIS/NN/Source/PoolingFunctions/arm_max_pool_s8.c ****     (void)ctx;
 184:../src/tensorflow_lite/third_party/cmsis/CMSIS/NN/Source/PoolingFunctions/arm_max_pool_s8.c ****     q7_t *dst_base = dst;
 185:../src/tensorflow_lite/third_party/cmsis/CMSIS/NN/Source/PoolingFunctions/arm_max_pool_s8.c **** 
 186:../src/tensorflow_lite/third_party/cmsis/CMSIS/NN/Source/PoolingFunctions/arm_max_pool_s8.c ****     for (int i_y = 0, base_idx_y = -pad_y; i_y < output_y; base_idx_y += stride_y, i_y++)
  62              		.loc 1 186 0
  63 0028 003060E2 		rsb	r3, r0, #0
  64 002c 000054E3 		cmp	r4, #0
  65 0030 34308DE5 		str	r3, [sp, #52]
  66              	.LBE34:
 173:../src/tensorflow_lite/third_party/cmsis/CMSIS/NN/Source/PoolingFunctions/arm_max_pool_s8.c ****     const int32_t stride_y = pool_params->stride.h;
  67              		.loc 1 173 0
  68 0034 08309EE5 		ldr	r3, [lr, #8]
 171:../src/tensorflow_lite/third_party/cmsis/CMSIS/NN/Source/PoolingFunctions/arm_max_pool_s8.c ****     const int32_t output_y = output_dims->h;
  69              		.loc 1 171 0
  70 0038 08E092E5 		ldr	lr, [r2, #8]
 173:../src/tensorflow_lite/third_party/cmsis/CMSIS/NN/Source/PoolingFunctions/arm_max_pool_s8.c ****     const int32_t stride_y = pool_params->stride.h;
  71              		.loc 1 173 0
  72 003c 30308DE5 		str	r3, [sp, #48]
 170:../src/tensorflow_lite/third_party/cmsis/CMSIS/NN/Source/PoolingFunctions/arm_max_pool_s8.c ****     const int32_t input_x = input_dims->w;
  73              		.loc 1 170 0
  74 0040 043092E5 		ldr	r3, [r2, #4]
  75              	.LVL3:
 174:../src/tensorflow_lite/third_party/cmsis/CMSIS/NN/Source/PoolingFunctions/arm_max_pool_s8.c ****     const int32_t stride_x = pool_params->stride.w;
  76              		.loc 1 174 0
  77 0044 042091E5 		ldr	r2, [r1, #4]
  78              	.LVL4:
 171:../src/tensorflow_lite/third_party/cmsis/CMSIS/NN/Source/PoolingFunctions/arm_max_pool_s8.c ****     const int32_t output_y = output_dims->h;
  79              		.loc 1 171 0
  80 0048 50E08DE5 		str	lr, [sp, #80]
  81              	.LVL5:
 174:../src/tensorflow_lite/third_party/cmsis/CMSIS/NN/Source/PoolingFunctions/arm_max_pool_s8.c ****     const int32_t stride_x = pool_params->stride.w;
  82              		.loc 1 174 0
  83 004c 6C208DE5 		str	r2, [sp, #108]
  84              	.LVL6:
 175:../src/tensorflow_lite/third_party/cmsis/CMSIS/NN/Source/PoolingFunctions/arm_max_pool_s8.c ****     const int32_t kernel_y = filter_dims->h;
  85              		.loc 1 175 0
  86 0050 002091E5 		ldr	r2, [r1]
  87              	.LVL7:
  88 0054 70208DE5 		str	r2, [sp, #112]
  89              	.LVL8:
 179:../src/tensorflow_lite/third_party/cmsis/CMSIS/NN/Source/PoolingFunctions/arm_max_pool_s8.c ****     const int32_t act_min = pool_params->activation.min;
  90              		.loc 1 179 0
  91 0058 082091E5 		ldr	r2, [r1, #8]
  92              	.LVL9:
  93 005c 58208DE5 		str	r2, [sp, #88]
 180:../src/tensorflow_lite/third_party/cmsis/CMSIS/NN/Source/PoolingFunctions/arm_max_pool_s8.c ****     const int32_t act_max = pool_params->activation.max;
  94              		.loc 1 180 0
  95 0060 102091E5 		ldr	r2, [r1, #16]
  96 0064 5C208DE5 		str	r2, [sp, #92]
 181:../src/tensorflow_lite/third_party/cmsis/CMSIS/NN/Source/PoolingFunctions/arm_max_pool_s8.c ****     const int32_t channel_in = input_dims->c;
  97              		.loc 1 181 0
  98 0068 142091E5 		ldr	r2, [r1, #20]
  99 006c 60208DE5 		str	r2, [sp, #96]
 176:../src/tensorflow_lite/third_party/cmsis/CMSIS/NN/Source/PoolingFunctions/arm_max_pool_s8.c ****     const int32_t kernel_x = filter_dims->w;
 100              		.loc 1 176 0
 101 0070 04209CE5 		ldr	r2, [ip, #4]
 102 0074 74208DE5 		str	r2, [sp, #116]
 103              	.LVL10:
 177:../src/tensorflow_lite/third_party/cmsis/CMSIS/NN/Source/PoolingFunctions/arm_max_pool_s8.c ****     const int32_t pad_y = pool_params->padding.h;
 104              		.loc 1 177 0
 105 0078 08209CE5 		ldr	r2, [ip, #8]
 106              	.LVL11:
 107 007c 78208DE5 		str	r2, [sp, #120]
 108              	.LVL12:
 109              	.LBB69:
 110              		.loc 1 186 0
 111 0080 CD0000DA 		ble	.L5
 112 0084 58109DE5 		ldr	r1, [sp, #88]
 113              	.LVL13:
 114              	.LBB35:
 115              	.LBB36:
 116              	.LBB37:
 117              	.LBB38:
 118              	.LBB39:
 119              	.LBB40:
 120              	.LBB41:
  83:../src/tensorflow_lite/third_party/cmsis/CMSIS/NN/Source/PoolingFunctions/arm_max_pool_s8.c ****     while (cnt > 0l)
 121              		.loc 1 83 0
 122 0088 03E00AE2 		and	lr, r10, #3
 123              	.LVL14:
 124 008c 30209DE5 		ldr	r2, [sp, #48]
 125              	.LVL15:
 126 0090 0CE08DE5 		str	lr, [sp, #12]
 127 0094 00C061E2 		rsb	ip, r1, #0
 128              	.LVL16:
 129 0098 80C08DE5 		str	ip, [sp, #128]
 130 009c 000052E3 		cmp	r2, #0
  54:../src/tensorflow_lite/third_party/cmsis/CMSIS/NN/Source/PoolingFunctions/arm_max_pool_s8.c **** 
 131              		.loc 1 54 0
 132 00a0 4AC1A0E1 		asr	ip, r10, #2
 133 00a4 14C08DE5 		str	ip, [sp, #20]
 134 00a8 C30000DA 		ble	.L5
 135 00ac 003083E0 		add	r3, r3, r0
 136              	.LVL17:
 137 00b0 50409DE5 		ldr	r4, [sp, #80]
 138              	.LVL18:
 139 00b4 40308DE5 		str	r3, [sp, #64]
 140 00b8 9A0203E0 		mul	r3, r10, r2
 141 00bc 0CC1A0E1 		lsl	ip, ip, #2
  92:../src/tensorflow_lite/third_party/cmsis/CMSIS/NN/Source/PoolingFunctions/arm_max_pool_s8.c ****     }
 142              		.loc 1 92 0
 143 00c0 0AB0A0E1 		mov	fp, r10
 144 00c4 38008DE5 		str	r0, [sp, #56]
 145 00c8 9A0405E0 		mul	r5, r10, r4
 146 00cc 18C08DE5 		str	ip, [sp, #24]
 147 00d0 84308DE5 		str	r3, [sp, #132]
  83:../src/tensorflow_lite/third_party/cmsis/CMSIS/NN/Source/PoolingFunctions/arm_max_pool_s8.c ****     while (cnt > 0l)
 148              		.loc 1 83 0
 149 00d4 C8309DE5 		ldr	r3, [sp, #200]
 150 00d8 28508DE5 		str	r5, [sp, #40]
 151 00dc 3C308DE5 		str	r3, [sp, #60]
 152 00e0 0030A0E3 		mov	r3, #0
 153 00e4 68308DE5 		str	r3, [sp, #104]
 154 00e8 013084E0 		add	r3, r4, r1
 155 00ec 8C308DE5 		str	r3, [sp, #140]
  92:../src/tensorflow_lite/third_party/cmsis/CMSIS/NN/Source/PoolingFunctions/arm_max_pool_s8.c ****     }
 156              		.loc 1 92 0
 157 00f0 01304EE2 		sub	r3, lr, #1
 158 00f4 1C308DE5 		str	r3, [sp, #28]
 159              	.LVL19:
 160              	.L26:
 161 00f8 40309DE5 		ldr	r3, [sp, #64]
 162 00fc 74209DE5 		ldr	r2, [sp, #116]
 163 0100 58109DE5 		ldr	r1, [sp, #88]
 164 0104 020053E1 		cmp	r3, r2
 165 0108 0230A0A1 		movge	r3, r2
 166 010c 48108DE5 		str	r1, [sp, #72]
 167 0110 24308DE5 		str	r3, [sp, #36]
 168 0114 34309DE5 		ldr	r3, [sp, #52]
 169 0118 38209DE5 		ldr	r2, [sp, #56]
 170 011c 8C109DE5 		ldr	r1, [sp, #140]
 171 0120 000053E3 		cmp	r3, #0
 172 0124 0020A0C3 		movgt	r2, #0
 173 0128 033082E0 		add	r3, r2, r3
 174 012c 4C208DE5 		str	r2, [sp, #76]
 175 0130 44108DE5 		str	r1, [sp, #68]
 176 0134 3C209DE5 		ldr	r2, [sp, #60]
 177 0138 18109DE5 		ldr	r1, [sp, #24]
  83:../src/tensorflow_lite/third_party/cmsis/CMSIS/NN/Source/PoolingFunctions/arm_max_pool_s8.c ****     while (cnt > 0l)
 178              		.loc 1 83 0
 179 013c 08208DE5 		str	r2, [sp, #8]
 180 0140 019082E0 		add	r9, r2, r1
 181 0144 50109DE5 		ldr	r1, [sp, #80]
 182 0148 910303E0 		mul	r3, r1, r3
 183 014c 7C308DE5 		str	r3, [sp, #124]
 184 0150 80309DE5 		ldr	r3, [sp, #128]
 185 0154 2C308DE5 		str	r3, [sp, #44]
 186 0158 0030A0E3 		mov	r3, #0
 187 015c 64308DE5 		str	r3, [sp, #100]
 188              	.LVL20:
 189              	.L25:
 190              	.LBE41:
 191              	.LBE40:
 192              	.LBE39:
 193              	.LBE38:
 194              	.LBE37:
 187:../src/tensorflow_lite/third_party/cmsis/CMSIS/NN/Source/PoolingFunctions/arm_max_pool_s8.c ****     {
 188:../src/tensorflow_lite/third_party/cmsis/CMSIS/NN/Source/PoolingFunctions/arm_max_pool_s8.c ****         for (int i_x = 0, base_idx_x = -pad_x; i_x < output_x; base_idx_x += stride_x, i_x++)
 189:../src/tensorflow_lite/third_party/cmsis/CMSIS/NN/Source/PoolingFunctions/arm_max_pool_s8.c ****         {
 190:../src/tensorflow_lite/third_party/cmsis/CMSIS/NN/Source/PoolingFunctions/arm_max_pool_s8.c ****             /* Condition for kernel start dimension: (base_idx_<x,y> + kernel_<x,y>_start) >= 0 */
 191:../src/tensorflow_lite/third_party/cmsis/CMSIS/NN/Source/PoolingFunctions/arm_max_pool_s8.c ****             const int32_t ker_y_start = MAX(0, -base_idx_y);
 192:../src/tensorflow_lite/third_party/cmsis/CMSIS/NN/Source/PoolingFunctions/arm_max_pool_s8.c ****             const int32_t ker_x_start = MAX(0, -base_idx_x);
 195              		.loc 1 192 0
 196 0160 2C309DE5 		ldr	r3, [sp, #44]
 193:../src/tensorflow_lite/third_party/cmsis/CMSIS/NN/Source/PoolingFunctions/arm_max_pool_s8.c **** 
 194:../src/tensorflow_lite/third_party/cmsis/CMSIS/NN/Source/PoolingFunctions/arm_max_pool_s8.c ****             /* Condition for kernel end dimension: (base_idx_<x,y> + kernel_<x,y>_end) < dim_src_<w
 195:../src/tensorflow_lite/third_party/cmsis/CMSIS/NN/Source/PoolingFunctions/arm_max_pool_s8.c ****             const int32_t kernel_y_end = MIN(kernel_y, input_y - base_idx_y);
 196:../src/tensorflow_lite/third_party/cmsis/CMSIS/NN/Source/PoolingFunctions/arm_max_pool_s8.c ****             const int32_t kernel_x_end = MIN(kernel_x, input_x - base_idx_x);
 197              		.loc 1 196 0
 198 0164 78209DE5 		ldr	r2, [sp, #120]
 192:../src/tensorflow_lite/third_party/cmsis/CMSIS/NN/Source/PoolingFunctions/arm_max_pool_s8.c **** 
 199              		.loc 1 192 0
 200 0168 000053E3 		cmp	r3, #0
 201 016c 48309DE5 		ldr	r3, [sp, #72]
 202 0170 0030A0C3 		movgt	r3, #0
 203 0174 10308DE5 		str	r3, [sp, #16]
 204              	.LVL21:
 205              		.loc 1 196 0
 206 0178 44309DE5 		ldr	r3, [sp, #68]
 207              	.LVL22:
 208 017c 020053E1 		cmp	r3, r2
 209 0180 0230A0A1 		movge	r3, r2
 210              	.LBB63:
 197:../src/tensorflow_lite/third_party/cmsis/CMSIS/NN/Source/PoolingFunctions/arm_max_pool_s8.c **** 
 198:../src/tensorflow_lite/third_party/cmsis/CMSIS/NN/Source/PoolingFunctions/arm_max_pool_s8.c ****             int count = 0;
 199:../src/tensorflow_lite/third_party/cmsis/CMSIS/NN/Source/PoolingFunctions/arm_max_pool_s8.c **** 
 200:../src/tensorflow_lite/third_party/cmsis/CMSIS/NN/Source/PoolingFunctions/arm_max_pool_s8.c ****             for (int k_y = ker_y_start; k_y < kernel_y_end; k_y++)
 211              		.loc 1 200 0
 212 0184 24209DE5 		ldr	r2, [sp, #36]
 213              	.LBE63:
 196:../src/tensorflow_lite/third_party/cmsis/CMSIS/NN/Source/PoolingFunctions/arm_max_pool_s8.c **** 
 214              		.loc 1 196 0
 215 0188 04308DE5 		str	r3, [sp, #4]
 216              	.LVL23:
 217              	.LBB64:
 218              		.loc 1 200 0
 219 018c 4C309DE5 		ldr	r3, [sp, #76]
 220              	.LVL24:
 221 0190 020053E1 		cmp	r3, r2
 222 0194 5F0000AA 		bge	.L8
 223 0198 10309DE5 		ldr	r3, [sp, #16]
 224 019c 04209DE5 		ldr	r2, [sp, #4]
 225 01a0 020053E1 		cmp	r3, r2
 226 01a4 5B0000AA 		bge	.L8
 227 01a8 2C209DE5 		ldr	r2, [sp, #44]
 228 01ac 028083E0 		add	r8, r3, r2
 229              		.loc 1 200 0 is_stmt 0 discriminator 1
 230 01b0 4C309DE5 		ldr	r3, [sp, #76]
 231 01b4 88209DE5 		ldr	r2, [sp, #136]
 232 01b8 20308DE5 		str	r3, [sp, #32]
 233 01bc 7C309DE5 		ldr	r3, [sp, #124]
 234 01c0 038088E0 		add	r8, r8, r3
 235 01c4 0030A0E3 		mov	r3, #0
 236 01c8 9B2828E0 		mla	r8, fp, r8, r2
 237              	.LVL25:
 238              	.L23:
 239              	.LBB61:
 240              	.LBB58:
 201:../src/tensorflow_lite/third_party/cmsis/CMSIS/NN/Source/PoolingFunctions/arm_max_pool_s8.c ****             {
 202:../src/tensorflow_lite/third_party/cmsis/CMSIS/NN/Source/PoolingFunctions/arm_max_pool_s8.c ****                 for (int k_x = ker_x_start; k_x < kernel_x_end; k_x++)
 203:../src/tensorflow_lite/third_party/cmsis/CMSIS/NN/Source/PoolingFunctions/arm_max_pool_s8.c ****                 {
 204:../src/tensorflow_lite/third_party/cmsis/CMSIS/NN/Source/PoolingFunctions/arm_max_pool_s8.c ****                     const q7_t *start = src + channel_in * (k_x + base_idx_x + (k_y + base_idx_y) *
 205:../src/tensorflow_lite/third_party/cmsis/CMSIS/NN/Source/PoolingFunctions/arm_max_pool_s8.c **** 
 206:../src/tensorflow_lite/third_party/cmsis/CMSIS/NN/Source/PoolingFunctions/arm_max_pool_s8.c ****                     if (count == 0)
 241              		.loc 1 206 0 is_stmt 1 discriminator 1
 242 01cc 000053E3 		cmp	r3, #0
 204:../src/tensorflow_lite/third_party/cmsis/CMSIS/NN/Source/PoolingFunctions/arm_max_pool_s8.c **** 
 243              		.loc 1 204 0 discriminator 1
 244 01d0 0850A0E1 		mov	r5, r8
 245              	.LVL26:
 246              		.loc 1 206 0 discriminator 1
 247 01d4 CD00000A 		beq	.L24
 248 01d8 10709DE5 		ldr	r7, [sp, #16]
 249 01dc 0860A0E1 		mov	r6, r8
 250              	.LVL27:
 251              	.L9:
 252              	.LBB57:
 253              	.LBB56:
  56:../src/tensorflow_lite/third_party/cmsis/CMSIS/NN/Source/PoolingFunctions/arm_max_pool_s8.c ****     {
 254              		.loc 1 56 0
 255 01e0 14309DE5 		ldr	r3, [sp, #20]
 256 01e4 08A09DE5 		ldr	r10, [sp, #8]
 257 01e8 000053E3 		cmp	r3, #0
 258 01ec 250000DA 		ble	.L11
 259              	.LVL28:
 260              	.L16:
 261              	.LBB42:
 262              	.LBB43:
 263              		.file 2 "C:/Renesas/e2studio_2021_01_workspace_RZA2M_ANPR/ANPR_RZA2M_EBK/src/tensorflow_lite/third
   1:C:/Renesas/e2studio_2021_01_workspace_RZA2M_ANPR/ANPR_RZA2M_EBK/src/tensorflow_lite/third_party/cmsis/CMSIS/NN/Include\arm_nnsupportfunctions.h **** /*
   2:C:/Renesas/e2studio_2021_01_workspace_RZA2M_ANPR/ANPR_RZA2M_EBK/src/tensorflow_lite/third_party/cmsis/CMSIS/NN/Include\arm_nnsupportfunctions.h ****  * Copyright (C) 2010-2021 Arm Limited or its affiliates. All rights reserved.
   3:C:/Renesas/e2studio_2021_01_workspace_RZA2M_ANPR/ANPR_RZA2M_EBK/src/tensorflow_lite/third_party/cmsis/CMSIS/NN/Include\arm_nnsupportfunctions.h ****  *
   4:C:/Renesas/e2studio_2021_01_workspace_RZA2M_ANPR/ANPR_RZA2M_EBK/src/tensorflow_lite/third_party/cmsis/CMSIS/NN/Include\arm_nnsupportfunctions.h ****  * SPDX-License-Identifier: Apache-2.0
   5:C:/Renesas/e2studio_2021_01_workspace_RZA2M_ANPR/ANPR_RZA2M_EBK/src/tensorflow_lite/third_party/cmsis/CMSIS/NN/Include\arm_nnsupportfunctions.h ****  *
   6:C:/Renesas/e2studio_2021_01_workspace_RZA2M_ANPR/ANPR_RZA2M_EBK/src/tensorflow_lite/third_party/cmsis/CMSIS/NN/Include\arm_nnsupportfunctions.h ****  * Licensed under the Apache License, Version 2.0 (the License); you may
   7:C:/Renesas/e2studio_2021_01_workspace_RZA2M_ANPR/ANPR_RZA2M_EBK/src/tensorflow_lite/third_party/cmsis/CMSIS/NN/Include\arm_nnsupportfunctions.h ****  * not use this file except in compliance with the License.
   8:C:/Renesas/e2studio_2021_01_workspace_RZA2M_ANPR/ANPR_RZA2M_EBK/src/tensorflow_lite/third_party/cmsis/CMSIS/NN/Include\arm_nnsupportfunctions.h ****  * You may obtain a copy of the License at
   9:C:/Renesas/e2studio_2021_01_workspace_RZA2M_ANPR/ANPR_RZA2M_EBK/src/tensorflow_lite/third_party/cmsis/CMSIS/NN/Include\arm_nnsupportfunctions.h ****  *
  10:C:/Renesas/e2studio_2021_01_workspace_RZA2M_ANPR/ANPR_RZA2M_EBK/src/tensorflow_lite/third_party/cmsis/CMSIS/NN/Include\arm_nnsupportfunctions.h ****  * www.apache.org/licenses/LICENSE-2.0
  11:C:/Renesas/e2studio_2021_01_workspace_RZA2M_ANPR/ANPR_RZA2M_EBK/src/tensorflow_lite/third_party/cmsis/CMSIS/NN/Include\arm_nnsupportfunctions.h ****  *
  12:C:/Renesas/e2studio_2021_01_workspace_RZA2M_ANPR/ANPR_RZA2M_EBK/src/tensorflow_lite/third_party/cmsis/CMSIS/NN/Include\arm_nnsupportfunctions.h ****  * Unless required by applicable law or agreed to in writing, software
  13:C:/Renesas/e2studio_2021_01_workspace_RZA2M_ANPR/ANPR_RZA2M_EBK/src/tensorflow_lite/third_party/cmsis/CMSIS/NN/Include\arm_nnsupportfunctions.h ****  * distributed under the License is distributed on an AS IS BASIS, WITHOUT
  14:C:/Renesas/e2studio_2021_01_workspace_RZA2M_ANPR/ANPR_RZA2M_EBK/src/tensorflow_lite/third_party/cmsis/CMSIS/NN/Include\arm_nnsupportfunctions.h ****  * WARRANTIES OR CONDITIONS OF ANY KIND, either express or implied.
  15:C:/Renesas/e2studio_2021_01_workspace_RZA2M_ANPR/ANPR_RZA2M_EBK/src/tensorflow_lite/third_party/cmsis/CMSIS/NN/Include\arm_nnsupportfunctions.h ****  * See the License for the specific language governing permissions and
  16:C:/Renesas/e2studio_2021_01_workspace_RZA2M_ANPR/ANPR_RZA2M_EBK/src/tensorflow_lite/third_party/cmsis/CMSIS/NN/Include\arm_nnsupportfunctions.h ****  * limitations under the License.
  17:C:/Renesas/e2studio_2021_01_workspace_RZA2M_ANPR/ANPR_RZA2M_EBK/src/tensorflow_lite/third_party/cmsis/CMSIS/NN/Include\arm_nnsupportfunctions.h ****  */
  18:C:/Renesas/e2studio_2021_01_workspace_RZA2M_ANPR/ANPR_RZA2M_EBK/src/tensorflow_lite/third_party/cmsis/CMSIS/NN/Include\arm_nnsupportfunctions.h **** 
  19:C:/Renesas/e2studio_2021_01_workspace_RZA2M_ANPR/ANPR_RZA2M_EBK/src/tensorflow_lite/third_party/cmsis/CMSIS/NN/Include\arm_nnsupportfunctions.h **** /* ----------------------------------------------------------------------
  20:C:/Renesas/e2studio_2021_01_workspace_RZA2M_ANPR/ANPR_RZA2M_EBK/src/tensorflow_lite/third_party/cmsis/CMSIS/NN/Include\arm_nnsupportfunctions.h ****  * Project:      CMSIS NN Library
  21:C:/Renesas/e2studio_2021_01_workspace_RZA2M_ANPR/ANPR_RZA2M_EBK/src/tensorflow_lite/third_party/cmsis/CMSIS/NN/Include\arm_nnsupportfunctions.h ****  * Title:        arm_nnsupportfunctions.h
  22:C:/Renesas/e2studio_2021_01_workspace_RZA2M_ANPR/ANPR_RZA2M_EBK/src/tensorflow_lite/third_party/cmsis/CMSIS/NN/Include\arm_nnsupportfunctions.h ****  * Description:  Public header file of support functions for CMSIS NN Library
  23:C:/Renesas/e2studio_2021_01_workspace_RZA2M_ANPR/ANPR_RZA2M_EBK/src/tensorflow_lite/third_party/cmsis/CMSIS/NN/Include\arm_nnsupportfunctions.h ****  *
  24:C:/Renesas/e2studio_2021_01_workspace_RZA2M_ANPR/ANPR_RZA2M_EBK/src/tensorflow_lite/third_party/cmsis/CMSIS/NN/Include\arm_nnsupportfunctions.h ****  * $Date:        15. April 2021
  25:C:/Renesas/e2studio_2021_01_workspace_RZA2M_ANPR/ANPR_RZA2M_EBK/src/tensorflow_lite/third_party/cmsis/CMSIS/NN/Include\arm_nnsupportfunctions.h ****  * $Revision:    V.5.5.0
  26:C:/Renesas/e2studio_2021_01_workspace_RZA2M_ANPR/ANPR_RZA2M_EBK/src/tensorflow_lite/third_party/cmsis/CMSIS/NN/Include\arm_nnsupportfunctions.h ****  *
  27:C:/Renesas/e2studio_2021_01_workspace_RZA2M_ANPR/ANPR_RZA2M_EBK/src/tensorflow_lite/third_party/cmsis/CMSIS/NN/Include\arm_nnsupportfunctions.h ****  * Target Processor:  Cortex-M CPUs
  28:C:/Renesas/e2studio_2021_01_workspace_RZA2M_ANPR/ANPR_RZA2M_EBK/src/tensorflow_lite/third_party/cmsis/CMSIS/NN/Include\arm_nnsupportfunctions.h ****  * -------------------------------------------------------------------- */
  29:C:/Renesas/e2studio_2021_01_workspace_RZA2M_ANPR/ANPR_RZA2M_EBK/src/tensorflow_lite/third_party/cmsis/CMSIS/NN/Include\arm_nnsupportfunctions.h **** 
  30:C:/Renesas/e2studio_2021_01_workspace_RZA2M_ANPR/ANPR_RZA2M_EBK/src/tensorflow_lite/third_party/cmsis/CMSIS/NN/Include\arm_nnsupportfunctions.h **** #ifndef _ARM_NNSUPPORTFUNCTIONS_H_
  31:C:/Renesas/e2studio_2021_01_workspace_RZA2M_ANPR/ANPR_RZA2M_EBK/src/tensorflow_lite/third_party/cmsis/CMSIS/NN/Include\arm_nnsupportfunctions.h **** #define _ARM_NNSUPPORTFUNCTIONS_H_
  32:C:/Renesas/e2studio_2021_01_workspace_RZA2M_ANPR/ANPR_RZA2M_EBK/src/tensorflow_lite/third_party/cmsis/CMSIS/NN/Include\arm_nnsupportfunctions.h **** 
  33:C:/Renesas/e2studio_2021_01_workspace_RZA2M_ANPR/ANPR_RZA2M_EBK/src/tensorflow_lite/third_party/cmsis/CMSIS/NN/Include\arm_nnsupportfunctions.h **** #include "arm_common_tables.h"
  34:C:/Renesas/e2studio_2021_01_workspace_RZA2M_ANPR/ANPR_RZA2M_EBK/src/tensorflow_lite/third_party/cmsis/CMSIS/NN/Include\arm_nnsupportfunctions.h **** #include "arm_math_types.h"
  35:C:/Renesas/e2studio_2021_01_workspace_RZA2M_ANPR/ANPR_RZA2M_EBK/src/tensorflow_lite/third_party/cmsis/CMSIS/NN/Include\arm_nnsupportfunctions.h **** 
  36:C:/Renesas/e2studio_2021_01_workspace_RZA2M_ANPR/ANPR_RZA2M_EBK/src/tensorflow_lite/third_party/cmsis/CMSIS/NN/Include\arm_nnsupportfunctions.h **** #ifdef __cplusplus
  37:C:/Renesas/e2studio_2021_01_workspace_RZA2M_ANPR/ANPR_RZA2M_EBK/src/tensorflow_lite/third_party/cmsis/CMSIS/NN/Include\arm_nnsupportfunctions.h **** extern "C" {
  38:C:/Renesas/e2studio_2021_01_workspace_RZA2M_ANPR/ANPR_RZA2M_EBK/src/tensorflow_lite/third_party/cmsis/CMSIS/NN/Include\arm_nnsupportfunctions.h **** #endif
  39:C:/Renesas/e2studio_2021_01_workspace_RZA2M_ANPR/ANPR_RZA2M_EBK/src/tensorflow_lite/third_party/cmsis/CMSIS/NN/Include\arm_nnsupportfunctions.h **** 
  40:C:/Renesas/e2studio_2021_01_workspace_RZA2M_ANPR/ANPR_RZA2M_EBK/src/tensorflow_lite/third_party/cmsis/CMSIS/NN/Include\arm_nnsupportfunctions.h **** #define LEFT_SHIFT(_shift) (_shift > 0 ? _shift : 0)
  41:C:/Renesas/e2studio_2021_01_workspace_RZA2M_ANPR/ANPR_RZA2M_EBK/src/tensorflow_lite/third_party/cmsis/CMSIS/NN/Include\arm_nnsupportfunctions.h **** #define RIGHT_SHIFT(_shift) (_shift > 0 ? 0 : -_shift)
  42:C:/Renesas/e2studio_2021_01_workspace_RZA2M_ANPR/ANPR_RZA2M_EBK/src/tensorflow_lite/third_party/cmsis/CMSIS/NN/Include\arm_nnsupportfunctions.h **** #define MASK_IF_ZERO(x) (x) == 0 ? ~0 : 0
  43:C:/Renesas/e2studio_2021_01_workspace_RZA2M_ANPR/ANPR_RZA2M_EBK/src/tensorflow_lite/third_party/cmsis/CMSIS/NN/Include\arm_nnsupportfunctions.h **** #define MASK_IF_NON_ZERO(x) (x) != 0 ? ~0 : 0
  44:C:/Renesas/e2studio_2021_01_workspace_RZA2M_ANPR/ANPR_RZA2M_EBK/src/tensorflow_lite/third_party/cmsis/CMSIS/NN/Include\arm_nnsupportfunctions.h **** #define SELECT_USING_MASK(mask, a, b) ((mask) & (a)) ^ (~(mask) & (b))
  45:C:/Renesas/e2studio_2021_01_workspace_RZA2M_ANPR/ANPR_RZA2M_EBK/src/tensorflow_lite/third_party/cmsis/CMSIS/NN/Include\arm_nnsupportfunctions.h **** 
  46:C:/Renesas/e2studio_2021_01_workspace_RZA2M_ANPR/ANPR_RZA2M_EBK/src/tensorflow_lite/third_party/cmsis/CMSIS/NN/Include\arm_nnsupportfunctions.h **** #define MAX(A, B) ((A) > (B) ? (A) : (B))
  47:C:/Renesas/e2studio_2021_01_workspace_RZA2M_ANPR/ANPR_RZA2M_EBK/src/tensorflow_lite/third_party/cmsis/CMSIS/NN/Include\arm_nnsupportfunctions.h **** #define MIN(A, B) ((A) < (B) ? (A) : (B))
  48:C:/Renesas/e2studio_2021_01_workspace_RZA2M_ANPR/ANPR_RZA2M_EBK/src/tensorflow_lite/third_party/cmsis/CMSIS/NN/Include\arm_nnsupportfunctions.h **** #define CLAMP(x, h, l) MAX(MIN((x), (h)), (l))
  49:C:/Renesas/e2studio_2021_01_workspace_RZA2M_ANPR/ANPR_RZA2M_EBK/src/tensorflow_lite/third_party/cmsis/CMSIS/NN/Include\arm_nnsupportfunctions.h **** 
  50:C:/Renesas/e2studio_2021_01_workspace_RZA2M_ANPR/ANPR_RZA2M_EBK/src/tensorflow_lite/third_party/cmsis/CMSIS/NN/Include\arm_nnsupportfunctions.h **** /**
  51:C:/Renesas/e2studio_2021_01_workspace_RZA2M_ANPR/ANPR_RZA2M_EBK/src/tensorflow_lite/third_party/cmsis/CMSIS/NN/Include\arm_nnsupportfunctions.h ****  * @brief Union for SIMD access of q31/q15/q7 types
  52:C:/Renesas/e2studio_2021_01_workspace_RZA2M_ANPR/ANPR_RZA2M_EBK/src/tensorflow_lite/third_party/cmsis/CMSIS/NN/Include\arm_nnsupportfunctions.h ****  */
  53:C:/Renesas/e2studio_2021_01_workspace_RZA2M_ANPR/ANPR_RZA2M_EBK/src/tensorflow_lite/third_party/cmsis/CMSIS/NN/Include\arm_nnsupportfunctions.h **** union arm_nnword
  54:C:/Renesas/e2studio_2021_01_workspace_RZA2M_ANPR/ANPR_RZA2M_EBK/src/tensorflow_lite/third_party/cmsis/CMSIS/NN/Include\arm_nnsupportfunctions.h **** {
  55:C:/Renesas/e2studio_2021_01_workspace_RZA2M_ANPR/ANPR_RZA2M_EBK/src/tensorflow_lite/third_party/cmsis/CMSIS/NN/Include\arm_nnsupportfunctions.h ****     q31_t word;
  56:C:/Renesas/e2studio_2021_01_workspace_RZA2M_ANPR/ANPR_RZA2M_EBK/src/tensorflow_lite/third_party/cmsis/CMSIS/NN/Include\arm_nnsupportfunctions.h ****     /**< q31 type */
  57:C:/Renesas/e2studio_2021_01_workspace_RZA2M_ANPR/ANPR_RZA2M_EBK/src/tensorflow_lite/third_party/cmsis/CMSIS/NN/Include\arm_nnsupportfunctions.h ****     q15_t half_words[2];
  58:C:/Renesas/e2studio_2021_01_workspace_RZA2M_ANPR/ANPR_RZA2M_EBK/src/tensorflow_lite/third_party/cmsis/CMSIS/NN/Include\arm_nnsupportfunctions.h ****     /**< q15 type */
  59:C:/Renesas/e2studio_2021_01_workspace_RZA2M_ANPR/ANPR_RZA2M_EBK/src/tensorflow_lite/third_party/cmsis/CMSIS/NN/Include\arm_nnsupportfunctions.h ****     q7_t bytes[4];
  60:C:/Renesas/e2studio_2021_01_workspace_RZA2M_ANPR/ANPR_RZA2M_EBK/src/tensorflow_lite/third_party/cmsis/CMSIS/NN/Include\arm_nnsupportfunctions.h ****     /**< q7 type */
  61:C:/Renesas/e2studio_2021_01_workspace_RZA2M_ANPR/ANPR_RZA2M_EBK/src/tensorflow_lite/third_party/cmsis/CMSIS/NN/Include\arm_nnsupportfunctions.h **** };
  62:C:/Renesas/e2studio_2021_01_workspace_RZA2M_ANPR/ANPR_RZA2M_EBK/src/tensorflow_lite/third_party/cmsis/CMSIS/NN/Include\arm_nnsupportfunctions.h **** 
  63:C:/Renesas/e2studio_2021_01_workspace_RZA2M_ANPR/ANPR_RZA2M_EBK/src/tensorflow_lite/third_party/cmsis/CMSIS/NN/Include\arm_nnsupportfunctions.h **** /**
  64:C:/Renesas/e2studio_2021_01_workspace_RZA2M_ANPR/ANPR_RZA2M_EBK/src/tensorflow_lite/third_party/cmsis/CMSIS/NN/Include\arm_nnsupportfunctions.h ****  * @brief Union for data type long long
  65:C:/Renesas/e2studio_2021_01_workspace_RZA2M_ANPR/ANPR_RZA2M_EBK/src/tensorflow_lite/third_party/cmsis/CMSIS/NN/Include\arm_nnsupportfunctions.h ****  */
  66:C:/Renesas/e2studio_2021_01_workspace_RZA2M_ANPR/ANPR_RZA2M_EBK/src/tensorflow_lite/third_party/cmsis/CMSIS/NN/Include\arm_nnsupportfunctions.h **** struct arm_nn_double
  67:C:/Renesas/e2studio_2021_01_workspace_RZA2M_ANPR/ANPR_RZA2M_EBK/src/tensorflow_lite/third_party/cmsis/CMSIS/NN/Include\arm_nnsupportfunctions.h **** {
  68:C:/Renesas/e2studio_2021_01_workspace_RZA2M_ANPR/ANPR_RZA2M_EBK/src/tensorflow_lite/third_party/cmsis/CMSIS/NN/Include\arm_nnsupportfunctions.h ****     uint32_t low;
  69:C:/Renesas/e2studio_2021_01_workspace_RZA2M_ANPR/ANPR_RZA2M_EBK/src/tensorflow_lite/third_party/cmsis/CMSIS/NN/Include\arm_nnsupportfunctions.h ****     int32_t high;
  70:C:/Renesas/e2studio_2021_01_workspace_RZA2M_ANPR/ANPR_RZA2M_EBK/src/tensorflow_lite/third_party/cmsis/CMSIS/NN/Include\arm_nnsupportfunctions.h **** };
  71:C:/Renesas/e2studio_2021_01_workspace_RZA2M_ANPR/ANPR_RZA2M_EBK/src/tensorflow_lite/third_party/cmsis/CMSIS/NN/Include\arm_nnsupportfunctions.h **** 
  72:C:/Renesas/e2studio_2021_01_workspace_RZA2M_ANPR/ANPR_RZA2M_EBK/src/tensorflow_lite/third_party/cmsis/CMSIS/NN/Include\arm_nnsupportfunctions.h **** union arm_nn_long_long
  73:C:/Renesas/e2studio_2021_01_workspace_RZA2M_ANPR/ANPR_RZA2M_EBK/src/tensorflow_lite/third_party/cmsis/CMSIS/NN/Include\arm_nnsupportfunctions.h **** {
  74:C:/Renesas/e2studio_2021_01_workspace_RZA2M_ANPR/ANPR_RZA2M_EBK/src/tensorflow_lite/third_party/cmsis/CMSIS/NN/Include\arm_nnsupportfunctions.h ****     int64_t long_long;
  75:C:/Renesas/e2studio_2021_01_workspace_RZA2M_ANPR/ANPR_RZA2M_EBK/src/tensorflow_lite/third_party/cmsis/CMSIS/NN/Include\arm_nnsupportfunctions.h ****     struct arm_nn_double word;
  76:C:/Renesas/e2studio_2021_01_workspace_RZA2M_ANPR/ANPR_RZA2M_EBK/src/tensorflow_lite/third_party/cmsis/CMSIS/NN/Include\arm_nnsupportfunctions.h **** };
  77:C:/Renesas/e2studio_2021_01_workspace_RZA2M_ANPR/ANPR_RZA2M_EBK/src/tensorflow_lite/third_party/cmsis/CMSIS/NN/Include\arm_nnsupportfunctions.h **** 
  78:C:/Renesas/e2studio_2021_01_workspace_RZA2M_ANPR/ANPR_RZA2M_EBK/src/tensorflow_lite/third_party/cmsis/CMSIS/NN/Include\arm_nnsupportfunctions.h **** /**
  79:C:/Renesas/e2studio_2021_01_workspace_RZA2M_ANPR/ANPR_RZA2M_EBK/src/tensorflow_lite/third_party/cmsis/CMSIS/NN/Include\arm_nnsupportfunctions.h ****  * @defgroup nndata_convert Neural Network Data Conversion Functions
  80:C:/Renesas/e2studio_2021_01_workspace_RZA2M_ANPR/ANPR_RZA2M_EBK/src/tensorflow_lite/third_party/cmsis/CMSIS/NN/Include\arm_nnsupportfunctions.h ****  *
  81:C:/Renesas/e2studio_2021_01_workspace_RZA2M_ANPR/ANPR_RZA2M_EBK/src/tensorflow_lite/third_party/cmsis/CMSIS/NN/Include\arm_nnsupportfunctions.h ****  * Perform data type conversion in-between neural network operations
  82:C:/Renesas/e2studio_2021_01_workspace_RZA2M_ANPR/ANPR_RZA2M_EBK/src/tensorflow_lite/third_party/cmsis/CMSIS/NN/Include\arm_nnsupportfunctions.h ****  *
  83:C:/Renesas/e2studio_2021_01_workspace_RZA2M_ANPR/ANPR_RZA2M_EBK/src/tensorflow_lite/third_party/cmsis/CMSIS/NN/Include\arm_nnsupportfunctions.h ****  */
  84:C:/Renesas/e2studio_2021_01_workspace_RZA2M_ANPR/ANPR_RZA2M_EBK/src/tensorflow_lite/third_party/cmsis/CMSIS/NN/Include\arm_nnsupportfunctions.h **** 
  85:C:/Renesas/e2studio_2021_01_workspace_RZA2M_ANPR/ANPR_RZA2M_EBK/src/tensorflow_lite/third_party/cmsis/CMSIS/NN/Include\arm_nnsupportfunctions.h **** /**
  86:C:/Renesas/e2studio_2021_01_workspace_RZA2M_ANPR/ANPR_RZA2M_EBK/src/tensorflow_lite/third_party/cmsis/CMSIS/NN/Include\arm_nnsupportfunctions.h ****  * @brief Converts the elements of the q7 vector to q15 vector without left-shift
  87:C:/Renesas/e2studio_2021_01_workspace_RZA2M_ANPR/ANPR_RZA2M_EBK/src/tensorflow_lite/third_party/cmsis/CMSIS/NN/Include\arm_nnsupportfunctions.h ****  * @param[in]       *pSrc points to the q7 input vector
  88:C:/Renesas/e2studio_2021_01_workspace_RZA2M_ANPR/ANPR_RZA2M_EBK/src/tensorflow_lite/third_party/cmsis/CMSIS/NN/Include\arm_nnsupportfunctions.h ****  * @param[out]      *pDst points to the q15 output vector
  89:C:/Renesas/e2studio_2021_01_workspace_RZA2M_ANPR/ANPR_RZA2M_EBK/src/tensorflow_lite/third_party/cmsis/CMSIS/NN/Include\arm_nnsupportfunctions.h ****  * @param[in]       blockSize length of the input vector
  90:C:/Renesas/e2studio_2021_01_workspace_RZA2M_ANPR/ANPR_RZA2M_EBK/src/tensorflow_lite/third_party/cmsis/CMSIS/NN/Include\arm_nnsupportfunctions.h ****  *
  91:C:/Renesas/e2studio_2021_01_workspace_RZA2M_ANPR/ANPR_RZA2M_EBK/src/tensorflow_lite/third_party/cmsis/CMSIS/NN/Include\arm_nnsupportfunctions.h ****  */
  92:C:/Renesas/e2studio_2021_01_workspace_RZA2M_ANPR/ANPR_RZA2M_EBK/src/tensorflow_lite/third_party/cmsis/CMSIS/NN/Include\arm_nnsupportfunctions.h **** void arm_q7_to_q15_no_shift(const q7_t *pSrc, q15_t *pDst, uint32_t blockSize);
  93:C:/Renesas/e2studio_2021_01_workspace_RZA2M_ANPR/ANPR_RZA2M_EBK/src/tensorflow_lite/third_party/cmsis/CMSIS/NN/Include\arm_nnsupportfunctions.h **** 
  94:C:/Renesas/e2studio_2021_01_workspace_RZA2M_ANPR/ANPR_RZA2M_EBK/src/tensorflow_lite/third_party/cmsis/CMSIS/NN/Include\arm_nnsupportfunctions.h **** /**
  95:C:/Renesas/e2studio_2021_01_workspace_RZA2M_ANPR/ANPR_RZA2M_EBK/src/tensorflow_lite/third_party/cmsis/CMSIS/NN/Include\arm_nnsupportfunctions.h ****  * @brief Non-saturating addition of elements of a q7 vector
  96:C:/Renesas/e2studio_2021_01_workspace_RZA2M_ANPR/ANPR_RZA2M_EBK/src/tensorflow_lite/third_party/cmsis/CMSIS/NN/Include\arm_nnsupportfunctions.h ****  * @param[in]       *input Pointer to the q7 input vector
  97:C:/Renesas/e2studio_2021_01_workspace_RZA2M_ANPR/ANPR_RZA2M_EBK/src/tensorflow_lite/third_party/cmsis/CMSIS/NN/Include\arm_nnsupportfunctions.h ****  * @param[out]      *output Pointer to the q31 output variable.
  98:C:/Renesas/e2studio_2021_01_workspace_RZA2M_ANPR/ANPR_RZA2M_EBK/src/tensorflow_lite/third_party/cmsis/CMSIS/NN/Include\arm_nnsupportfunctions.h ****  * @param[in]       block_size length of the input vector
  99:C:/Renesas/e2studio_2021_01_workspace_RZA2M_ANPR/ANPR_RZA2M_EBK/src/tensorflow_lite/third_party/cmsis/CMSIS/NN/Include\arm_nnsupportfunctions.h ****  * \par Description:
 100:C:/Renesas/e2studio_2021_01_workspace_RZA2M_ANPR/ANPR_RZA2M_EBK/src/tensorflow_lite/third_party/cmsis/CMSIS/NN/Include\arm_nnsupportfunctions.h ****  *
 101:C:/Renesas/e2studio_2021_01_workspace_RZA2M_ANPR/ANPR_RZA2M_EBK/src/tensorflow_lite/third_party/cmsis/CMSIS/NN/Include\arm_nnsupportfunctions.h ****  * 2^24 samples can be added without saturating the result.
 102:C:/Renesas/e2studio_2021_01_workspace_RZA2M_ANPR/ANPR_RZA2M_EBK/src/tensorflow_lite/third_party/cmsis/CMSIS/NN/Include\arm_nnsupportfunctions.h ****  *
 103:C:/Renesas/e2studio_2021_01_workspace_RZA2M_ANPR/ANPR_RZA2M_EBK/src/tensorflow_lite/third_party/cmsis/CMSIS/NN/Include\arm_nnsupportfunctions.h ****  * The equation used for the conversion process is:
 104:C:/Renesas/e2studio_2021_01_workspace_RZA2M_ANPR/ANPR_RZA2M_EBK/src/tensorflow_lite/third_party/cmsis/CMSIS/NN/Include\arm_nnsupportfunctions.h ****  *
 105:C:/Renesas/e2studio_2021_01_workspace_RZA2M_ANPR/ANPR_RZA2M_EBK/src/tensorflow_lite/third_party/cmsis/CMSIS/NN/Include\arm_nnsupportfunctions.h ****  * <pre>
 106:C:/Renesas/e2studio_2021_01_workspace_RZA2M_ANPR/ANPR_RZA2M_EBK/src/tensorflow_lite/third_party/cmsis/CMSIS/NN/Include\arm_nnsupportfunctions.h ****  *  sum = input[0] + input[1] + .. + input[block_size -1]
 107:C:/Renesas/e2studio_2021_01_workspace_RZA2M_ANPR/ANPR_RZA2M_EBK/src/tensorflow_lite/third_party/cmsis/CMSIS/NN/Include\arm_nnsupportfunctions.h ****  * </pre>
 108:C:/Renesas/e2studio_2021_01_workspace_RZA2M_ANPR/ANPR_RZA2M_EBK/src/tensorflow_lite/third_party/cmsis/CMSIS/NN/Include\arm_nnsupportfunctions.h ****  *
 109:C:/Renesas/e2studio_2021_01_workspace_RZA2M_ANPR/ANPR_RZA2M_EBK/src/tensorflow_lite/third_party/cmsis/CMSIS/NN/Include\arm_nnsupportfunctions.h ****  * */
 110:C:/Renesas/e2studio_2021_01_workspace_RZA2M_ANPR/ANPR_RZA2M_EBK/src/tensorflow_lite/third_party/cmsis/CMSIS/NN/Include\arm_nnsupportfunctions.h **** void arm_nn_add_q7(const q7_t *input, q31_t *output, uint32_t block_size);
 111:C:/Renesas/e2studio_2021_01_workspace_RZA2M_ANPR/ANPR_RZA2M_EBK/src/tensorflow_lite/third_party/cmsis/CMSIS/NN/Include\arm_nnsupportfunctions.h **** 
 112:C:/Renesas/e2studio_2021_01_workspace_RZA2M_ANPR/ANPR_RZA2M_EBK/src/tensorflow_lite/third_party/cmsis/CMSIS/NN/Include\arm_nnsupportfunctions.h **** /**
 113:C:/Renesas/e2studio_2021_01_workspace_RZA2M_ANPR/ANPR_RZA2M_EBK/src/tensorflow_lite/third_party/cmsis/CMSIS/NN/Include\arm_nnsupportfunctions.h ****  * @brief  Converts the elements of the q7 vector to reordered q15 vector without left-shift
 114:C:/Renesas/e2studio_2021_01_workspace_RZA2M_ANPR/ANPR_RZA2M_EBK/src/tensorflow_lite/third_party/cmsis/CMSIS/NN/Include\arm_nnsupportfunctions.h ****  * @param[in]       *pSrc points to the q7 input vector
 115:C:/Renesas/e2studio_2021_01_workspace_RZA2M_ANPR/ANPR_RZA2M_EBK/src/tensorflow_lite/third_party/cmsis/CMSIS/NN/Include\arm_nnsupportfunctions.h ****  * @param[out]      *pDst points to the q15 output vector
 116:C:/Renesas/e2studio_2021_01_workspace_RZA2M_ANPR/ANPR_RZA2M_EBK/src/tensorflow_lite/third_party/cmsis/CMSIS/NN/Include\arm_nnsupportfunctions.h ****  * @param[in]       blockSize length of the input vector
 117:C:/Renesas/e2studio_2021_01_workspace_RZA2M_ANPR/ANPR_RZA2M_EBK/src/tensorflow_lite/third_party/cmsis/CMSIS/NN/Include\arm_nnsupportfunctions.h ****  * @return none.
 118:C:/Renesas/e2studio_2021_01_workspace_RZA2M_ANPR/ANPR_RZA2M_EBK/src/tensorflow_lite/third_party/cmsis/CMSIS/NN/Include\arm_nnsupportfunctions.h ****  *
 119:C:/Renesas/e2studio_2021_01_workspace_RZA2M_ANPR/ANPR_RZA2M_EBK/src/tensorflow_lite/third_party/cmsis/CMSIS/NN/Include\arm_nnsupportfunctions.h ****  */
 120:C:/Renesas/e2studio_2021_01_workspace_RZA2M_ANPR/ANPR_RZA2M_EBK/src/tensorflow_lite/third_party/cmsis/CMSIS/NN/Include\arm_nnsupportfunctions.h **** void arm_q7_to_q15_reordered_no_shift(const q7_t *pSrc, q15_t *pDst, uint32_t blockSize);
 121:C:/Renesas/e2studio_2021_01_workspace_RZA2M_ANPR/ANPR_RZA2M_EBK/src/tensorflow_lite/third_party/cmsis/CMSIS/NN/Include\arm_nnsupportfunctions.h **** 
 122:C:/Renesas/e2studio_2021_01_workspace_RZA2M_ANPR/ANPR_RZA2M_EBK/src/tensorflow_lite/third_party/cmsis/CMSIS/NN/Include\arm_nnsupportfunctions.h **** /**
 123:C:/Renesas/e2studio_2021_01_workspace_RZA2M_ANPR/ANPR_RZA2M_EBK/src/tensorflow_lite/third_party/cmsis/CMSIS/NN/Include\arm_nnsupportfunctions.h ****  * @brief Converts the elements from a q7 vector to a q15 vector with an added offset
 124:C:/Renesas/e2studio_2021_01_workspace_RZA2M_ANPR/ANPR_RZA2M_EBK/src/tensorflow_lite/third_party/cmsis/CMSIS/NN/Include\arm_nnsupportfunctions.h ****  * @param[in]    src        pointer to the q7 input vector
 125:C:/Renesas/e2studio_2021_01_workspace_RZA2M_ANPR/ANPR_RZA2M_EBK/src/tensorflow_lite/third_party/cmsis/CMSIS/NN/Include\arm_nnsupportfunctions.h ****  * @param[out]   dst        pointer to the q15 output vector
 126:C:/Renesas/e2studio_2021_01_workspace_RZA2M_ANPR/ANPR_RZA2M_EBK/src/tensorflow_lite/third_party/cmsis/CMSIS/NN/Include\arm_nnsupportfunctions.h ****  * @param[in]    block_size length of the input vector
 127:C:/Renesas/e2studio_2021_01_workspace_RZA2M_ANPR/ANPR_RZA2M_EBK/src/tensorflow_lite/third_party/cmsis/CMSIS/NN/Include\arm_nnsupportfunctions.h ****  * @param[in]    offset     q7 offset to be added to each input vector element.
 128:C:/Renesas/e2studio_2021_01_workspace_RZA2M_ANPR/ANPR_RZA2M_EBK/src/tensorflow_lite/third_party/cmsis/CMSIS/NN/Include\arm_nnsupportfunctions.h ****  *
 129:C:/Renesas/e2studio_2021_01_workspace_RZA2M_ANPR/ANPR_RZA2M_EBK/src/tensorflow_lite/third_party/cmsis/CMSIS/NN/Include\arm_nnsupportfunctions.h ****  * \par Description:
 130:C:/Renesas/e2studio_2021_01_workspace_RZA2M_ANPR/ANPR_RZA2M_EBK/src/tensorflow_lite/third_party/cmsis/CMSIS/NN/Include\arm_nnsupportfunctions.h ****  *
 131:C:/Renesas/e2studio_2021_01_workspace_RZA2M_ANPR/ANPR_RZA2M_EBK/src/tensorflow_lite/third_party/cmsis/CMSIS/NN/Include\arm_nnsupportfunctions.h ****  * The equation used for the conversion process is:
 132:C:/Renesas/e2studio_2021_01_workspace_RZA2M_ANPR/ANPR_RZA2M_EBK/src/tensorflow_lite/third_party/cmsis/CMSIS/NN/Include\arm_nnsupportfunctions.h ****  *
 133:C:/Renesas/e2studio_2021_01_workspace_RZA2M_ANPR/ANPR_RZA2M_EBK/src/tensorflow_lite/third_party/cmsis/CMSIS/NN/Include\arm_nnsupportfunctions.h ****  * <pre>
 134:C:/Renesas/e2studio_2021_01_workspace_RZA2M_ANPR/ANPR_RZA2M_EBK/src/tensorflow_lite/third_party/cmsis/CMSIS/NN/Include\arm_nnsupportfunctions.h ****  *  dst[n] = (q15_t) src[n] + offset;   0 <= n < block_size.
 135:C:/Renesas/e2studio_2021_01_workspace_RZA2M_ANPR/ANPR_RZA2M_EBK/src/tensorflow_lite/third_party/cmsis/CMSIS/NN/Include\arm_nnsupportfunctions.h ****  * </pre>
 136:C:/Renesas/e2studio_2021_01_workspace_RZA2M_ANPR/ANPR_RZA2M_EBK/src/tensorflow_lite/third_party/cmsis/CMSIS/NN/Include\arm_nnsupportfunctions.h ****  *
 137:C:/Renesas/e2studio_2021_01_workspace_RZA2M_ANPR/ANPR_RZA2M_EBK/src/tensorflow_lite/third_party/cmsis/CMSIS/NN/Include\arm_nnsupportfunctions.h ****  */
 138:C:/Renesas/e2studio_2021_01_workspace_RZA2M_ANPR/ANPR_RZA2M_EBK/src/tensorflow_lite/third_party/cmsis/CMSIS/NN/Include\arm_nnsupportfunctions.h **** void arm_q7_to_q15_with_offset(const q7_t *src, q15_t *dst, uint32_t block_size, q15_t offset);
 139:C:/Renesas/e2studio_2021_01_workspace_RZA2M_ANPR/ANPR_RZA2M_EBK/src/tensorflow_lite/third_party/cmsis/CMSIS/NN/Include\arm_nnsupportfunctions.h **** 
 140:C:/Renesas/e2studio_2021_01_workspace_RZA2M_ANPR/ANPR_RZA2M_EBK/src/tensorflow_lite/third_party/cmsis/CMSIS/NN/Include\arm_nnsupportfunctions.h **** /**
 141:C:/Renesas/e2studio_2021_01_workspace_RZA2M_ANPR/ANPR_RZA2M_EBK/src/tensorflow_lite/third_party/cmsis/CMSIS/NN/Include\arm_nnsupportfunctions.h ****  * @brief Converts the elements of the q7 vector to reordered q15 vector with an added offset
 142:C:/Renesas/e2studio_2021_01_workspace_RZA2M_ANPR/ANPR_RZA2M_EBK/src/tensorflow_lite/third_party/cmsis/CMSIS/NN/Include\arm_nnsupportfunctions.h ****  * @param[in]       src        pointer to the q7 input vector
 143:C:/Renesas/e2studio_2021_01_workspace_RZA2M_ANPR/ANPR_RZA2M_EBK/src/tensorflow_lite/third_party/cmsis/CMSIS/NN/Include\arm_nnsupportfunctions.h ****  * @param[out]      dst        pointer to the q15 output vector
 144:C:/Renesas/e2studio_2021_01_workspace_RZA2M_ANPR/ANPR_RZA2M_EBK/src/tensorflow_lite/third_party/cmsis/CMSIS/NN/Include\arm_nnsupportfunctions.h ****  * @param[in]       block_size length of the input vector
 145:C:/Renesas/e2studio_2021_01_workspace_RZA2M_ANPR/ANPR_RZA2M_EBK/src/tensorflow_lite/third_party/cmsis/CMSIS/NN/Include\arm_nnsupportfunctions.h ****  * @param[in]       offset     offset to be added to each input vector element.
 146:C:/Renesas/e2studio_2021_01_workspace_RZA2M_ANPR/ANPR_RZA2M_EBK/src/tensorflow_lite/third_party/cmsis/CMSIS/NN/Include\arm_nnsupportfunctions.h ****  * @return none.
 147:C:/Renesas/e2studio_2021_01_workspace_RZA2M_ANPR/ANPR_RZA2M_EBK/src/tensorflow_lite/third_party/cmsis/CMSIS/NN/Include\arm_nnsupportfunctions.h ****  *
 148:C:/Renesas/e2studio_2021_01_workspace_RZA2M_ANPR/ANPR_RZA2M_EBK/src/tensorflow_lite/third_party/cmsis/CMSIS/NN/Include\arm_nnsupportfunctions.h ****  * @details  This function does the q7 to q15 expansion with re-ordering of bytes. Re-ordering is a
 149:C:/Renesas/e2studio_2021_01_workspace_RZA2M_ANPR/ANPR_RZA2M_EBK/src/tensorflow_lite/third_party/cmsis/CMSIS/NN/Include\arm_nnsupportfunctions.h ****  *           the sign extension intrinsic(DSP extension). The tail (i.e., last (N % 4) elements) re
 150:C:/Renesas/e2studio_2021_01_workspace_RZA2M_ANPR/ANPR_RZA2M_EBK/src/tensorflow_lite/third_party/cmsis/CMSIS/NN/Include\arm_nnsupportfunctions.h ****  * original order.
 151:C:/Renesas/e2studio_2021_01_workspace_RZA2M_ANPR/ANPR_RZA2M_EBK/src/tensorflow_lite/third_party/cmsis/CMSIS/NN/Include\arm_nnsupportfunctions.h ****  *
 152:C:/Renesas/e2studio_2021_01_workspace_RZA2M_ANPR/ANPR_RZA2M_EBK/src/tensorflow_lite/third_party/cmsis/CMSIS/NN/Include\arm_nnsupportfunctions.h ****  */
 153:C:/Renesas/e2studio_2021_01_workspace_RZA2M_ANPR/ANPR_RZA2M_EBK/src/tensorflow_lite/third_party/cmsis/CMSIS/NN/Include\arm_nnsupportfunctions.h **** void arm_q7_to_q15_reordered_with_offset(const q7_t *src, q15_t *dst, uint32_t block_size, q15_t of
 154:C:/Renesas/e2studio_2021_01_workspace_RZA2M_ANPR/ANPR_RZA2M_EBK/src/tensorflow_lite/third_party/cmsis/CMSIS/NN/Include\arm_nnsupportfunctions.h **** 
 155:C:/Renesas/e2studio_2021_01_workspace_RZA2M_ANPR/ANPR_RZA2M_EBK/src/tensorflow_lite/third_party/cmsis/CMSIS/NN/Include\arm_nnsupportfunctions.h **** /**
 156:C:/Renesas/e2studio_2021_01_workspace_RZA2M_ANPR/ANPR_RZA2M_EBK/src/tensorflow_lite/third_party/cmsis/CMSIS/NN/Include\arm_nnsupportfunctions.h ****  * @brief Converts the elements from a q7 vector and accumulate to a q15 vector
 157:C:/Renesas/e2studio_2021_01_workspace_RZA2M_ANPR/ANPR_RZA2M_EBK/src/tensorflow_lite/third_party/cmsis/CMSIS/NN/Include\arm_nnsupportfunctions.h ****  * @param[in]    *src       points to the q7 input vector
 158:C:/Renesas/e2studio_2021_01_workspace_RZA2M_ANPR/ANPR_RZA2M_EBK/src/tensorflow_lite/third_party/cmsis/CMSIS/NN/Include\arm_nnsupportfunctions.h ****  * @param[out]   *dst       points to the q15 output vector
 159:C:/Renesas/e2studio_2021_01_workspace_RZA2M_ANPR/ANPR_RZA2M_EBK/src/tensorflow_lite/third_party/cmsis/CMSIS/NN/Include\arm_nnsupportfunctions.h ****  * @param[in]    block_size length of the input vector
 160:C:/Renesas/e2studio_2021_01_workspace_RZA2M_ANPR/ANPR_RZA2M_EBK/src/tensorflow_lite/third_party/cmsis/CMSIS/NN/Include\arm_nnsupportfunctions.h ****  *
 161:C:/Renesas/e2studio_2021_01_workspace_RZA2M_ANPR/ANPR_RZA2M_EBK/src/tensorflow_lite/third_party/cmsis/CMSIS/NN/Include\arm_nnsupportfunctions.h ****  * \par Description:
 162:C:/Renesas/e2studio_2021_01_workspace_RZA2M_ANPR/ANPR_RZA2M_EBK/src/tensorflow_lite/third_party/cmsis/CMSIS/NN/Include\arm_nnsupportfunctions.h ****  *
 163:C:/Renesas/e2studio_2021_01_workspace_RZA2M_ANPR/ANPR_RZA2M_EBK/src/tensorflow_lite/third_party/cmsis/CMSIS/NN/Include\arm_nnsupportfunctions.h ****  * The equation used for the conversion process is:
 164:C:/Renesas/e2studio_2021_01_workspace_RZA2M_ANPR/ANPR_RZA2M_EBK/src/tensorflow_lite/third_party/cmsis/CMSIS/NN/Include\arm_nnsupportfunctions.h ****  *
 165:C:/Renesas/e2studio_2021_01_workspace_RZA2M_ANPR/ANPR_RZA2M_EBK/src/tensorflow_lite/third_party/cmsis/CMSIS/NN/Include\arm_nnsupportfunctions.h ****  * <pre>
 166:C:/Renesas/e2studio_2021_01_workspace_RZA2M_ANPR/ANPR_RZA2M_EBK/src/tensorflow_lite/third_party/cmsis/CMSIS/NN/Include\arm_nnsupportfunctions.h ****  *  dst[n] += (q15_t) src[n] ;   0 <= n < block_size.
 167:C:/Renesas/e2studio_2021_01_workspace_RZA2M_ANPR/ANPR_RZA2M_EBK/src/tensorflow_lite/third_party/cmsis/CMSIS/NN/Include\arm_nnsupportfunctions.h ****  * </pre>
 168:C:/Renesas/e2studio_2021_01_workspace_RZA2M_ANPR/ANPR_RZA2M_EBK/src/tensorflow_lite/third_party/cmsis/CMSIS/NN/Include\arm_nnsupportfunctions.h ****  *
 169:C:/Renesas/e2studio_2021_01_workspace_RZA2M_ANPR/ANPR_RZA2M_EBK/src/tensorflow_lite/third_party/cmsis/CMSIS/NN/Include\arm_nnsupportfunctions.h ****  */
 170:C:/Renesas/e2studio_2021_01_workspace_RZA2M_ANPR/ANPR_RZA2M_EBK/src/tensorflow_lite/third_party/cmsis/CMSIS/NN/Include\arm_nnsupportfunctions.h **** void arm_nn_accumulate_q7_to_q15(q15_t *dst, const q7_t *src, uint32_t block_size);
 171:C:/Renesas/e2studio_2021_01_workspace_RZA2M_ANPR/ANPR_RZA2M_EBK/src/tensorflow_lite/third_party/cmsis/CMSIS/NN/Include\arm_nnsupportfunctions.h **** 
 172:C:/Renesas/e2studio_2021_01_workspace_RZA2M_ANPR/ANPR_RZA2M_EBK/src/tensorflow_lite/third_party/cmsis/CMSIS/NN/Include\arm_nnsupportfunctions.h **** /**
 173:C:/Renesas/e2studio_2021_01_workspace_RZA2M_ANPR/ANPR_RZA2M_EBK/src/tensorflow_lite/third_party/cmsis/CMSIS/NN/Include\arm_nnsupportfunctions.h ****  * @brief Depthwise conv on an im2col buffer where the input channel equals output channel.
 174:C:/Renesas/e2studio_2021_01_workspace_RZA2M_ANPR/ANPR_RZA2M_EBK/src/tensorflow_lite/third_party/cmsis/CMSIS/NN/Include\arm_nnsupportfunctions.h ****  * @param[in]    row     pointer to row
 175:C:/Renesas/e2studio_2021_01_workspace_RZA2M_ANPR/ANPR_RZA2M_EBK/src/tensorflow_lite/third_party/cmsis/CMSIS/NN/Include\arm_nnsupportfunctions.h ****  * @param[in]    col     pointer to im2col buffer, always consists of 2 columns.
 176:C:/Renesas/e2studio_2021_01_workspace_RZA2M_ANPR/ANPR_RZA2M_EBK/src/tensorflow_lite/third_party/cmsis/CMSIS/NN/Include\arm_nnsupportfunctions.h ****  * @param[in]    num_ch   number of channels
 177:C:/Renesas/e2studio_2021_01_workspace_RZA2M_ANPR/ANPR_RZA2M_EBK/src/tensorflow_lite/third_party/cmsis/CMSIS/NN/Include\arm_nnsupportfunctions.h ****  * @param[in]    out_shift  pointer to per output channel requantization shift parameter.
 178:C:/Renesas/e2studio_2021_01_workspace_RZA2M_ANPR/ANPR_RZA2M_EBK/src/tensorflow_lite/third_party/cmsis/CMSIS/NN/Include\arm_nnsupportfunctions.h ****  * @param[in]    out_mult   pointer to per output channel requantization multiplier parameter.
 179:C:/Renesas/e2studio_2021_01_workspace_RZA2M_ANPR/ANPR_RZA2M_EBK/src/tensorflow_lite/third_party/cmsis/CMSIS/NN/Include\arm_nnsupportfunctions.h ****  * @param[in]    out_offset      output tensor offset.
 180:C:/Renesas/e2studio_2021_01_workspace_RZA2M_ANPR/ANPR_RZA2M_EBK/src/tensorflow_lite/third_party/cmsis/CMSIS/NN/Include\arm_nnsupportfunctions.h ****  * @param[in]    activation_min   minimum value to clamp the output to. Range : int8
 181:C:/Renesas/e2studio_2021_01_workspace_RZA2M_ANPR/ANPR_RZA2M_EBK/src/tensorflow_lite/third_party/cmsis/CMSIS/NN/Include\arm_nnsupportfunctions.h ****  * @param[in]    activation_max   maximum value to clamp the output to. Range : int8
 182:C:/Renesas/e2studio_2021_01_workspace_RZA2M_ANPR/ANPR_RZA2M_EBK/src/tensorflow_lite/third_party/cmsis/CMSIS/NN/Include\arm_nnsupportfunctions.h ****  * @param[in]    kernel_size   number of elements in one column.
 183:C:/Renesas/e2studio_2021_01_workspace_RZA2M_ANPR/ANPR_RZA2M_EBK/src/tensorflow_lite/third_party/cmsis/CMSIS/NN/Include\arm_nnsupportfunctions.h ****  * @param[in]    output_bias per output channel bias. Range : int32
 184:C:/Renesas/e2studio_2021_01_workspace_RZA2M_ANPR/ANPR_RZA2M_EBK/src/tensorflow_lite/third_party/cmsis/CMSIS/NN/Include\arm_nnsupportfunctions.h ****  * @param[out]   out         pointer to output
 185:C:/Renesas/e2studio_2021_01_workspace_RZA2M_ANPR/ANPR_RZA2M_EBK/src/tensorflow_lite/third_party/cmsis/CMSIS/NN/Include\arm_nnsupportfunctions.h ****  * @return     The function returns one of the two
 186:C:/Renesas/e2studio_2021_01_workspace_RZA2M_ANPR/ANPR_RZA2M_EBK/src/tensorflow_lite/third_party/cmsis/CMSIS/NN/Include\arm_nnsupportfunctions.h ****  *              1. The incremented output pointer for a successful operation or
 187:C:/Renesas/e2studio_2021_01_workspace_RZA2M_ANPR/ANPR_RZA2M_EBK/src/tensorflow_lite/third_party/cmsis/CMSIS/NN/Include\arm_nnsupportfunctions.h ****  *              2. NULL if implementation is not available.
 188:C:/Renesas/e2studio_2021_01_workspace_RZA2M_ANPR/ANPR_RZA2M_EBK/src/tensorflow_lite/third_party/cmsis/CMSIS/NN/Include\arm_nnsupportfunctions.h ****  *
 189:C:/Renesas/e2studio_2021_01_workspace_RZA2M_ANPR/ANPR_RZA2M_EBK/src/tensorflow_lite/third_party/cmsis/CMSIS/NN/Include\arm_nnsupportfunctions.h ****  * @details     Supported framework: TensorFlow Lite micro.
 190:C:/Renesas/e2studio_2021_01_workspace_RZA2M_ANPR/ANPR_RZA2M_EBK/src/tensorflow_lite/third_party/cmsis/CMSIS/NN/Include\arm_nnsupportfunctions.h ****  */
 191:C:/Renesas/e2studio_2021_01_workspace_RZA2M_ANPR/ANPR_RZA2M_EBK/src/tensorflow_lite/third_party/cmsis/CMSIS/NN/Include\arm_nnsupportfunctions.h **** q7_t *arm_nn_depthwise_conv_s8_core(const q7_t *row,
 192:C:/Renesas/e2studio_2021_01_workspace_RZA2M_ANPR/ANPR_RZA2M_EBK/src/tensorflow_lite/third_party/cmsis/CMSIS/NN/Include\arm_nnsupportfunctions.h ****                                     const q15_t *col,
 193:C:/Renesas/e2studio_2021_01_workspace_RZA2M_ANPR/ANPR_RZA2M_EBK/src/tensorflow_lite/third_party/cmsis/CMSIS/NN/Include\arm_nnsupportfunctions.h ****                                     const uint16_t num_ch,
 194:C:/Renesas/e2studio_2021_01_workspace_RZA2M_ANPR/ANPR_RZA2M_EBK/src/tensorflow_lite/third_party/cmsis/CMSIS/NN/Include\arm_nnsupportfunctions.h ****                                     const int32_t *out_shift,
 195:C:/Renesas/e2studio_2021_01_workspace_RZA2M_ANPR/ANPR_RZA2M_EBK/src/tensorflow_lite/third_party/cmsis/CMSIS/NN/Include\arm_nnsupportfunctions.h ****                                     const int32_t *out_mult,
 196:C:/Renesas/e2studio_2021_01_workspace_RZA2M_ANPR/ANPR_RZA2M_EBK/src/tensorflow_lite/third_party/cmsis/CMSIS/NN/Include\arm_nnsupportfunctions.h ****                                     const int32_t out_offset,
 197:C:/Renesas/e2studio_2021_01_workspace_RZA2M_ANPR/ANPR_RZA2M_EBK/src/tensorflow_lite/third_party/cmsis/CMSIS/NN/Include\arm_nnsupportfunctions.h ****                                     const int32_t activation_min,
 198:C:/Renesas/e2studio_2021_01_workspace_RZA2M_ANPR/ANPR_RZA2M_EBK/src/tensorflow_lite/third_party/cmsis/CMSIS/NN/Include\arm_nnsupportfunctions.h ****                                     const int32_t activation_max,
 199:C:/Renesas/e2studio_2021_01_workspace_RZA2M_ANPR/ANPR_RZA2M_EBK/src/tensorflow_lite/third_party/cmsis/CMSIS/NN/Include\arm_nnsupportfunctions.h ****                                     const uint16_t kernel_size,
 200:C:/Renesas/e2studio_2021_01_workspace_RZA2M_ANPR/ANPR_RZA2M_EBK/src/tensorflow_lite/third_party/cmsis/CMSIS/NN/Include\arm_nnsupportfunctions.h ****                                     const int32_t *const output_bias,
 201:C:/Renesas/e2studio_2021_01_workspace_RZA2M_ANPR/ANPR_RZA2M_EBK/src/tensorflow_lite/third_party/cmsis/CMSIS/NN/Include\arm_nnsupportfunctions.h ****                                     q7_t *out);
 202:C:/Renesas/e2studio_2021_01_workspace_RZA2M_ANPR/ANPR_RZA2M_EBK/src/tensorflow_lite/third_party/cmsis/CMSIS/NN/Include\arm_nnsupportfunctions.h **** 
 203:C:/Renesas/e2studio_2021_01_workspace_RZA2M_ANPR/ANPR_RZA2M_EBK/src/tensorflow_lite/third_party/cmsis/CMSIS/NN/Include\arm_nnsupportfunctions.h **** /**
 204:C:/Renesas/e2studio_2021_01_workspace_RZA2M_ANPR/ANPR_RZA2M_EBK/src/tensorflow_lite/third_party/cmsis/CMSIS/NN/Include\arm_nnsupportfunctions.h ****  * @brief General Matrix-multiplication function with per-channel requantization.
 205:C:/Renesas/e2studio_2021_01_workspace_RZA2M_ANPR/ANPR_RZA2M_EBK/src/tensorflow_lite/third_party/cmsis/CMSIS/NN/Include\arm_nnsupportfunctions.h ****  * @param[in]       input_row    pointer to row operand
 206:C:/Renesas/e2studio_2021_01_workspace_RZA2M_ANPR/ANPR_RZA2M_EBK/src/tensorflow_lite/third_party/cmsis/CMSIS/NN/Include\arm_nnsupportfunctions.h ****  * @param[in]       input_col    pointer to col operand
 207:C:/Renesas/e2studio_2021_01_workspace_RZA2M_ANPR/ANPR_RZA2M_EBK/src/tensorflow_lite/third_party/cmsis/CMSIS/NN/Include\arm_nnsupportfunctions.h ****  * @param[in]       output_ch    number of rows of input_row
 208:C:/Renesas/e2studio_2021_01_workspace_RZA2M_ANPR/ANPR_RZA2M_EBK/src/tensorflow_lite/third_party/cmsis/CMSIS/NN/Include\arm_nnsupportfunctions.h ****  * @param[in]       col_batches  number of column batches. Range: 1 to 4
 209:C:/Renesas/e2studio_2021_01_workspace_RZA2M_ANPR/ANPR_RZA2M_EBK/src/tensorflow_lite/third_party/cmsis/CMSIS/NN/Include\arm_nnsupportfunctions.h ****  * @param[in]       output_shift  pointer to per output channel requantization shift parameter.
 210:C:/Renesas/e2studio_2021_01_workspace_RZA2M_ANPR/ANPR_RZA2M_EBK/src/tensorflow_lite/third_party/cmsis/CMSIS/NN/Include\arm_nnsupportfunctions.h ****  * @param[in]       output_mult   pointer to per output channel requantization multiplier parameter
 211:C:/Renesas/e2studio_2021_01_workspace_RZA2M_ANPR/ANPR_RZA2M_EBK/src/tensorflow_lite/third_party/cmsis/CMSIS/NN/Include\arm_nnsupportfunctions.h ****  * @param[in]       out_offset    output tensor offset.
 212:C:/Renesas/e2studio_2021_01_workspace_RZA2M_ANPR/ANPR_RZA2M_EBK/src/tensorflow_lite/third_party/cmsis/CMSIS/NN/Include\arm_nnsupportfunctions.h ****  * @param[in]       col_offset    input tensor(col) offset.
 213:C:/Renesas/e2studio_2021_01_workspace_RZA2M_ANPR/ANPR_RZA2M_EBK/src/tensorflow_lite/third_party/cmsis/CMSIS/NN/Include\arm_nnsupportfunctions.h ****  * @param[in]       row_offset    kernel offset(row). Not used.
 214:C:/Renesas/e2studio_2021_01_workspace_RZA2M_ANPR/ANPR_RZA2M_EBK/src/tensorflow_lite/third_party/cmsis/CMSIS/NN/Include\arm_nnsupportfunctions.h ****  * @param[in]       out_activation_min   minimum value to clamp the output to. Range : int8
 215:C:/Renesas/e2studio_2021_01_workspace_RZA2M_ANPR/ANPR_RZA2M_EBK/src/tensorflow_lite/third_party/cmsis/CMSIS/NN/Include\arm_nnsupportfunctions.h ****  * @param[in]       out_activation_max   maximum value to clamp the output to. Range : int8
 216:C:/Renesas/e2studio_2021_01_workspace_RZA2M_ANPR/ANPR_RZA2M_EBK/src/tensorflow_lite/third_party/cmsis/CMSIS/NN/Include\arm_nnsupportfunctions.h ****  * @param[in]       row_len       number of elements in each row
 217:C:/Renesas/e2studio_2021_01_workspace_RZA2M_ANPR/ANPR_RZA2M_EBK/src/tensorflow_lite/third_party/cmsis/CMSIS/NN/Include\arm_nnsupportfunctions.h ****  * @param[in]       bias          per output channel bias. Range : int32
 218:C:/Renesas/e2studio_2021_01_workspace_RZA2M_ANPR/ANPR_RZA2M_EBK/src/tensorflow_lite/third_party/cmsis/CMSIS/NN/Include\arm_nnsupportfunctions.h ****  * @param[in,out]   out           pointer to output
 219:C:/Renesas/e2studio_2021_01_workspace_RZA2M_ANPR/ANPR_RZA2M_EBK/src/tensorflow_lite/third_party/cmsis/CMSIS/NN/Include\arm_nnsupportfunctions.h ****  * @return     The function returns one of the two
 220:C:/Renesas/e2studio_2021_01_workspace_RZA2M_ANPR/ANPR_RZA2M_EBK/src/tensorflow_lite/third_party/cmsis/CMSIS/NN/Include\arm_nnsupportfunctions.h ****  *              1. The incremented output pointer for a successful operation or
 221:C:/Renesas/e2studio_2021_01_workspace_RZA2M_ANPR/ANPR_RZA2M_EBK/src/tensorflow_lite/third_party/cmsis/CMSIS/NN/Include\arm_nnsupportfunctions.h ****  *              2. NULL if implementation is not available.
 222:C:/Renesas/e2studio_2021_01_workspace_RZA2M_ANPR/ANPR_RZA2M_EBK/src/tensorflow_lite/third_party/cmsis/CMSIS/NN/Include\arm_nnsupportfunctions.h ****  *
 223:C:/Renesas/e2studio_2021_01_workspace_RZA2M_ANPR/ANPR_RZA2M_EBK/src/tensorflow_lite/third_party/cmsis/CMSIS/NN/Include\arm_nnsupportfunctions.h ****  * @details   Supported framework: TensorFlow Lite
 224:C:/Renesas/e2studio_2021_01_workspace_RZA2M_ANPR/ANPR_RZA2M_EBK/src/tensorflow_lite/third_party/cmsis/CMSIS/NN/Include\arm_nnsupportfunctions.h ****  */
 225:C:/Renesas/e2studio_2021_01_workspace_RZA2M_ANPR/ANPR_RZA2M_EBK/src/tensorflow_lite/third_party/cmsis/CMSIS/NN/Include\arm_nnsupportfunctions.h **** q7_t *arm_nn_mat_mult_s8(const q7_t *input_row,
 226:C:/Renesas/e2studio_2021_01_workspace_RZA2M_ANPR/ANPR_RZA2M_EBK/src/tensorflow_lite/third_party/cmsis/CMSIS/NN/Include\arm_nnsupportfunctions.h ****                          const q7_t *input_col,
 227:C:/Renesas/e2studio_2021_01_workspace_RZA2M_ANPR/ANPR_RZA2M_EBK/src/tensorflow_lite/third_party/cmsis/CMSIS/NN/Include\arm_nnsupportfunctions.h ****                          const uint16_t output_ch,
 228:C:/Renesas/e2studio_2021_01_workspace_RZA2M_ANPR/ANPR_RZA2M_EBK/src/tensorflow_lite/third_party/cmsis/CMSIS/NN/Include\arm_nnsupportfunctions.h ****                          const uint16_t col_batches,
 229:C:/Renesas/e2studio_2021_01_workspace_RZA2M_ANPR/ANPR_RZA2M_EBK/src/tensorflow_lite/third_party/cmsis/CMSIS/NN/Include\arm_nnsupportfunctions.h ****                          const int32_t *output_shift,
 230:C:/Renesas/e2studio_2021_01_workspace_RZA2M_ANPR/ANPR_RZA2M_EBK/src/tensorflow_lite/third_party/cmsis/CMSIS/NN/Include\arm_nnsupportfunctions.h ****                          const int32_t *output_mult,
 231:C:/Renesas/e2studio_2021_01_workspace_RZA2M_ANPR/ANPR_RZA2M_EBK/src/tensorflow_lite/third_party/cmsis/CMSIS/NN/Include\arm_nnsupportfunctions.h ****                          const int32_t out_offset,
 232:C:/Renesas/e2studio_2021_01_workspace_RZA2M_ANPR/ANPR_RZA2M_EBK/src/tensorflow_lite/third_party/cmsis/CMSIS/NN/Include\arm_nnsupportfunctions.h ****                          const int32_t col_offset,
 233:C:/Renesas/e2studio_2021_01_workspace_RZA2M_ANPR/ANPR_RZA2M_EBK/src/tensorflow_lite/third_party/cmsis/CMSIS/NN/Include\arm_nnsupportfunctions.h ****                          const int32_t row_offset,
 234:C:/Renesas/e2studio_2021_01_workspace_RZA2M_ANPR/ANPR_RZA2M_EBK/src/tensorflow_lite/third_party/cmsis/CMSIS/NN/Include\arm_nnsupportfunctions.h ****                          const int16_t out_activation_min,
 235:C:/Renesas/e2studio_2021_01_workspace_RZA2M_ANPR/ANPR_RZA2M_EBK/src/tensorflow_lite/third_party/cmsis/CMSIS/NN/Include\arm_nnsupportfunctions.h ****                          const int16_t out_activation_max,
 236:C:/Renesas/e2studio_2021_01_workspace_RZA2M_ANPR/ANPR_RZA2M_EBK/src/tensorflow_lite/third_party/cmsis/CMSIS/NN/Include\arm_nnsupportfunctions.h ****                          const uint16_t row_len,
 237:C:/Renesas/e2studio_2021_01_workspace_RZA2M_ANPR/ANPR_RZA2M_EBK/src/tensorflow_lite/third_party/cmsis/CMSIS/NN/Include\arm_nnsupportfunctions.h ****                          const int32_t *const bias,
 238:C:/Renesas/e2studio_2021_01_workspace_RZA2M_ANPR/ANPR_RZA2M_EBK/src/tensorflow_lite/third_party/cmsis/CMSIS/NN/Include\arm_nnsupportfunctions.h ****                          q7_t *out);
 239:C:/Renesas/e2studio_2021_01_workspace_RZA2M_ANPR/ANPR_RZA2M_EBK/src/tensorflow_lite/third_party/cmsis/CMSIS/NN/Include\arm_nnsupportfunctions.h **** 
 240:C:/Renesas/e2studio_2021_01_workspace_RZA2M_ANPR/ANPR_RZA2M_EBK/src/tensorflow_lite/third_party/cmsis/CMSIS/NN/Include\arm_nnsupportfunctions.h **** /**
 241:C:/Renesas/e2studio_2021_01_workspace_RZA2M_ANPR/ANPR_RZA2M_EBK/src/tensorflow_lite/third_party/cmsis/CMSIS/NN/Include\arm_nnsupportfunctions.h ****  * @brief General Matrix-multiplication without requantization for one row & one column
 242:C:/Renesas/e2studio_2021_01_workspace_RZA2M_ANPR/ANPR_RZA2M_EBK/src/tensorflow_lite/third_party/cmsis/CMSIS/NN/Include\arm_nnsupportfunctions.h ****  * @param[in]       row_elements  number of row elements
 243:C:/Renesas/e2studio_2021_01_workspace_RZA2M_ANPR/ANPR_RZA2M_EBK/src/tensorflow_lite/third_party/cmsis/CMSIS/NN/Include\arm_nnsupportfunctions.h ****  * @param[in]       row_base      pointer to row operand
 244:C:/Renesas/e2studio_2021_01_workspace_RZA2M_ANPR/ANPR_RZA2M_EBK/src/tensorflow_lite/third_party/cmsis/CMSIS/NN/Include\arm_nnsupportfunctions.h ****  * @param[in]       col_base      pointer to col operand
 245:C:/Renesas/e2studio_2021_01_workspace_RZA2M_ANPR/ANPR_RZA2M_EBK/src/tensorflow_lite/third_party/cmsis/CMSIS/NN/Include\arm_nnsupportfunctions.h ****  * @param[out]      sum_col       pointer to store sum of column elements
 246:C:/Renesas/e2studio_2021_01_workspace_RZA2M_ANPR/ANPR_RZA2M_EBK/src/tensorflow_lite/third_party/cmsis/CMSIS/NN/Include\arm_nnsupportfunctions.h ****  * @param[out]      output        pointer to store result of multiply-accumulate
 247:C:/Renesas/e2studio_2021_01_workspace_RZA2M_ANPR/ANPR_RZA2M_EBK/src/tensorflow_lite/third_party/cmsis/CMSIS/NN/Include\arm_nnsupportfunctions.h ****  * @return     The function returns the multiply-accumulated result of the row by column.
 248:C:/Renesas/e2studio_2021_01_workspace_RZA2M_ANPR/ANPR_RZA2M_EBK/src/tensorflow_lite/third_party/cmsis/CMSIS/NN/Include\arm_nnsupportfunctions.h ****  *
 249:C:/Renesas/e2studio_2021_01_workspace_RZA2M_ANPR/ANPR_RZA2M_EBK/src/tensorflow_lite/third_party/cmsis/CMSIS/NN/Include\arm_nnsupportfunctions.h ****  * @details Pseudo-code
 250:C:/Renesas/e2studio_2021_01_workspace_RZA2M_ANPR/ANPR_RZA2M_EBK/src/tensorflow_lite/third_party/cmsis/CMSIS/NN/Include\arm_nnsupportfunctions.h ****  *      *output = 0
 251:C:/Renesas/e2studio_2021_01_workspace_RZA2M_ANPR/ANPR_RZA2M_EBK/src/tensorflow_lite/third_party/cmsis/CMSIS/NN/Include\arm_nnsupportfunctions.h ****  *      sum_col = 0
 252:C:/Renesas/e2studio_2021_01_workspace_RZA2M_ANPR/ANPR_RZA2M_EBK/src/tensorflow_lite/third_party/cmsis/CMSIS/NN/Include\arm_nnsupportfunctions.h ****  *      for (i = 0; i < row_elements; i++)
 253:C:/Renesas/e2studio_2021_01_workspace_RZA2M_ANPR/ANPR_RZA2M_EBK/src/tensorflow_lite/third_party/cmsis/CMSIS/NN/Include\arm_nnsupportfunctions.h ****  *          *output += row_base[i] * col_base[i]
 254:C:/Renesas/e2studio_2021_01_workspace_RZA2M_ANPR/ANPR_RZA2M_EBK/src/tensorflow_lite/third_party/cmsis/CMSIS/NN/Include\arm_nnsupportfunctions.h ****  *          sum_col += col_base[i]
 255:C:/Renesas/e2studio_2021_01_workspace_RZA2M_ANPR/ANPR_RZA2M_EBK/src/tensorflow_lite/third_party/cmsis/CMSIS/NN/Include\arm_nnsupportfunctions.h ****  *
 256:C:/Renesas/e2studio_2021_01_workspace_RZA2M_ANPR/ANPR_RZA2M_EBK/src/tensorflow_lite/third_party/cmsis/CMSIS/NN/Include\arm_nnsupportfunctions.h ****  */
 257:C:/Renesas/e2studio_2021_01_workspace_RZA2M_ANPR/ANPR_RZA2M_EBK/src/tensorflow_lite/third_party/cmsis/CMSIS/NN/Include\arm_nnsupportfunctions.h **** arm_status arm_nn_mat_mul_core_1x_s8(int32_t row_elements,
 258:C:/Renesas/e2studio_2021_01_workspace_RZA2M_ANPR/ANPR_RZA2M_EBK/src/tensorflow_lite/third_party/cmsis/CMSIS/NN/Include\arm_nnsupportfunctions.h ****                                      const int8_t *row_base,
 259:C:/Renesas/e2studio_2021_01_workspace_RZA2M_ANPR/ANPR_RZA2M_EBK/src/tensorflow_lite/third_party/cmsis/CMSIS/NN/Include\arm_nnsupportfunctions.h ****                                      const int8_t *col_base,
 260:C:/Renesas/e2studio_2021_01_workspace_RZA2M_ANPR/ANPR_RZA2M_EBK/src/tensorflow_lite/third_party/cmsis/CMSIS/NN/Include\arm_nnsupportfunctions.h ****                                      int32_t *const sum_col,
 261:C:/Renesas/e2studio_2021_01_workspace_RZA2M_ANPR/ANPR_RZA2M_EBK/src/tensorflow_lite/third_party/cmsis/CMSIS/NN/Include\arm_nnsupportfunctions.h ****                                      int32_t *const output);
 262:C:/Renesas/e2studio_2021_01_workspace_RZA2M_ANPR/ANPR_RZA2M_EBK/src/tensorflow_lite/third_party/cmsis/CMSIS/NN/Include\arm_nnsupportfunctions.h **** 
 263:C:/Renesas/e2studio_2021_01_workspace_RZA2M_ANPR/ANPR_RZA2M_EBK/src/tensorflow_lite/third_party/cmsis/CMSIS/NN/Include\arm_nnsupportfunctions.h **** /**
 264:C:/Renesas/e2studio_2021_01_workspace_RZA2M_ANPR/ANPR_RZA2M_EBK/src/tensorflow_lite/third_party/cmsis/CMSIS/NN/Include\arm_nnsupportfunctions.h ****  * @brief General Matrix-multiplication without requantization for four rows and one column
 265:C:/Renesas/e2studio_2021_01_workspace_RZA2M_ANPR/ANPR_RZA2M_EBK/src/tensorflow_lite/third_party/cmsis/CMSIS/NN/Include\arm_nnsupportfunctions.h ****  * @param[in]       row_elements  number of row elements
 266:C:/Renesas/e2studio_2021_01_workspace_RZA2M_ANPR/ANPR_RZA2M_EBK/src/tensorflow_lite/third_party/cmsis/CMSIS/NN/Include\arm_nnsupportfunctions.h ****  * @param[in]       offset        offset between rows. Can be the same as row_elements.
 267:C:/Renesas/e2studio_2021_01_workspace_RZA2M_ANPR/ANPR_RZA2M_EBK/src/tensorflow_lite/third_party/cmsis/CMSIS/NN/Include\arm_nnsupportfunctions.h ****  *                                For e.g, in a 1x1 conv scenario with stride as 1.
 268:C:/Renesas/e2studio_2021_01_workspace_RZA2M_ANPR/ANPR_RZA2M_EBK/src/tensorflow_lite/third_party/cmsis/CMSIS/NN/Include\arm_nnsupportfunctions.h ****  * @param[in]       row_base      pointer to row operand
 269:C:/Renesas/e2studio_2021_01_workspace_RZA2M_ANPR/ANPR_RZA2M_EBK/src/tensorflow_lite/third_party/cmsis/CMSIS/NN/Include\arm_nnsupportfunctions.h ****  * @param[in]       col_base      pointer to col operand
 270:C:/Renesas/e2studio_2021_01_workspace_RZA2M_ANPR/ANPR_RZA2M_EBK/src/tensorflow_lite/third_party/cmsis/CMSIS/NN/Include\arm_nnsupportfunctions.h ****  * @param[out]      sum_col       pointer to store sum of column elements
 271:C:/Renesas/e2studio_2021_01_workspace_RZA2M_ANPR/ANPR_RZA2M_EBK/src/tensorflow_lite/third_party/cmsis/CMSIS/NN/Include\arm_nnsupportfunctions.h ****  * @param[out]      output        pointer to store result(4 int32's) of multiply-accumulate
 272:C:/Renesas/e2studio_2021_01_workspace_RZA2M_ANPR/ANPR_RZA2M_EBK/src/tensorflow_lite/third_party/cmsis/CMSIS/NN/Include\arm_nnsupportfunctions.h ****  * @return     The function returns the multiply-accumulated result of the row by column
 273:C:/Renesas/e2studio_2021_01_workspace_RZA2M_ANPR/ANPR_RZA2M_EBK/src/tensorflow_lite/third_party/cmsis/CMSIS/NN/Include\arm_nnsupportfunctions.h ****  *
 274:C:/Renesas/e2studio_2021_01_workspace_RZA2M_ANPR/ANPR_RZA2M_EBK/src/tensorflow_lite/third_party/cmsis/CMSIS/NN/Include\arm_nnsupportfunctions.h ****  * @details Pseudo-code
 275:C:/Renesas/e2studio_2021_01_workspace_RZA2M_ANPR/ANPR_RZA2M_EBK/src/tensorflow_lite/third_party/cmsis/CMSIS/NN/Include\arm_nnsupportfunctions.h ****  *      output[0] = 0
 276:C:/Renesas/e2studio_2021_01_workspace_RZA2M_ANPR/ANPR_RZA2M_EBK/src/tensorflow_lite/third_party/cmsis/CMSIS/NN/Include\arm_nnsupportfunctions.h ****  *         ..
 277:C:/Renesas/e2studio_2021_01_workspace_RZA2M_ANPR/ANPR_RZA2M_EBK/src/tensorflow_lite/third_party/cmsis/CMSIS/NN/Include\arm_nnsupportfunctions.h ****  *      output[3] = 0
 278:C:/Renesas/e2studio_2021_01_workspace_RZA2M_ANPR/ANPR_RZA2M_EBK/src/tensorflow_lite/third_party/cmsis/CMSIS/NN/Include\arm_nnsupportfunctions.h ****  *      sum_col = 0
 279:C:/Renesas/e2studio_2021_01_workspace_RZA2M_ANPR/ANPR_RZA2M_EBK/src/tensorflow_lite/third_party/cmsis/CMSIS/NN/Include\arm_nnsupportfunctions.h ****  *      for (i = 0; i < row_elements; i++)
 280:C:/Renesas/e2studio_2021_01_workspace_RZA2M_ANPR/ANPR_RZA2M_EBK/src/tensorflow_lite/third_party/cmsis/CMSIS/NN/Include\arm_nnsupportfunctions.h ****  *          output[0] += row_base[i] * col_base[i]
 281:C:/Renesas/e2studio_2021_01_workspace_RZA2M_ANPR/ANPR_RZA2M_EBK/src/tensorflow_lite/third_party/cmsis/CMSIS/NN/Include\arm_nnsupportfunctions.h ****  *                ..
 282:C:/Renesas/e2studio_2021_01_workspace_RZA2M_ANPR/ANPR_RZA2M_EBK/src/tensorflow_lite/third_party/cmsis/CMSIS/NN/Include\arm_nnsupportfunctions.h ****  *          output[3] += row_base[i + (row_elements * 3)] * col_base[i]
 283:C:/Renesas/e2studio_2021_01_workspace_RZA2M_ANPR/ANPR_RZA2M_EBK/src/tensorflow_lite/third_party/cmsis/CMSIS/NN/Include\arm_nnsupportfunctions.h ****  *          sum_col += col_base[i]
 284:C:/Renesas/e2studio_2021_01_workspace_RZA2M_ANPR/ANPR_RZA2M_EBK/src/tensorflow_lite/third_party/cmsis/CMSIS/NN/Include\arm_nnsupportfunctions.h ****  */
 285:C:/Renesas/e2studio_2021_01_workspace_RZA2M_ANPR/ANPR_RZA2M_EBK/src/tensorflow_lite/third_party/cmsis/CMSIS/NN/Include\arm_nnsupportfunctions.h **** arm_status arm_nn_mat_mul_core_4x_s8(const int32_t row_elements,
 286:C:/Renesas/e2studio_2021_01_workspace_RZA2M_ANPR/ANPR_RZA2M_EBK/src/tensorflow_lite/third_party/cmsis/CMSIS/NN/Include\arm_nnsupportfunctions.h ****                                      const int32_t offset,
 287:C:/Renesas/e2studio_2021_01_workspace_RZA2M_ANPR/ANPR_RZA2M_EBK/src/tensorflow_lite/third_party/cmsis/CMSIS/NN/Include\arm_nnsupportfunctions.h ****                                      const int8_t *row_base,
 288:C:/Renesas/e2studio_2021_01_workspace_RZA2M_ANPR/ANPR_RZA2M_EBK/src/tensorflow_lite/third_party/cmsis/CMSIS/NN/Include\arm_nnsupportfunctions.h ****                                      const int8_t *col_base,
 289:C:/Renesas/e2studio_2021_01_workspace_RZA2M_ANPR/ANPR_RZA2M_EBK/src/tensorflow_lite/third_party/cmsis/CMSIS/NN/Include\arm_nnsupportfunctions.h ****                                      int32_t *const sum_col,
 290:C:/Renesas/e2studio_2021_01_workspace_RZA2M_ANPR/ANPR_RZA2M_EBK/src/tensorflow_lite/third_party/cmsis/CMSIS/NN/Include\arm_nnsupportfunctions.h ****                                      int32_t *const output);
 291:C:/Renesas/e2studio_2021_01_workspace_RZA2M_ANPR/ANPR_RZA2M_EBK/src/tensorflow_lite/third_party/cmsis/CMSIS/NN/Include\arm_nnsupportfunctions.h **** 
 292:C:/Renesas/e2studio_2021_01_workspace_RZA2M_ANPR/ANPR_RZA2M_EBK/src/tensorflow_lite/third_party/cmsis/CMSIS/NN/Include\arm_nnsupportfunctions.h **** /**
 293:C:/Renesas/e2studio_2021_01_workspace_RZA2M_ANPR/ANPR_RZA2M_EBK/src/tensorflow_lite/third_party/cmsis/CMSIS/NN/Include\arm_nnsupportfunctions.h ****  * @brief General Matrix-multiplication function with per-channel requantization.
 294:C:/Renesas/e2studio_2021_01_workspace_RZA2M_ANPR/ANPR_RZA2M_EBK/src/tensorflow_lite/third_party/cmsis/CMSIS/NN/Include\arm_nnsupportfunctions.h ****  *        This function assumes:
 295:C:/Renesas/e2studio_2021_01_workspace_RZA2M_ANPR/ANPR_RZA2M_EBK/src/tensorflow_lite/third_party/cmsis/CMSIS/NN/Include\arm_nnsupportfunctions.h ****  *        - LHS input matrix NOT transposed (nt)
 296:C:/Renesas/e2studio_2021_01_workspace_RZA2M_ANPR/ANPR_RZA2M_EBK/src/tensorflow_lite/third_party/cmsis/CMSIS/NN/Include\arm_nnsupportfunctions.h ****  *        - RHS input matrix transposed (t)
 297:C:/Renesas/e2studio_2021_01_workspace_RZA2M_ANPR/ANPR_RZA2M_EBK/src/tensorflow_lite/third_party/cmsis/CMSIS/NN/Include\arm_nnsupportfunctions.h ****  *
 298:C:/Renesas/e2studio_2021_01_workspace_RZA2M_ANPR/ANPR_RZA2M_EBK/src/tensorflow_lite/third_party/cmsis/CMSIS/NN/Include\arm_nnsupportfunctions.h ****  *  @note This operation also performs the broadcast bias addition before the requantization
 299:C:/Renesas/e2studio_2021_01_workspace_RZA2M_ANPR/ANPR_RZA2M_EBK/src/tensorflow_lite/third_party/cmsis/CMSIS/NN/Include\arm_nnsupportfunctions.h ****  *
 300:C:/Renesas/e2studio_2021_01_workspace_RZA2M_ANPR/ANPR_RZA2M_EBK/src/tensorflow_lite/third_party/cmsis/CMSIS/NN/Include\arm_nnsupportfunctions.h ****  * @param[in]  lhs                Pointer to the LHS input matrix
 301:C:/Renesas/e2studio_2021_01_workspace_RZA2M_ANPR/ANPR_RZA2M_EBK/src/tensorflow_lite/third_party/cmsis/CMSIS/NN/Include\arm_nnsupportfunctions.h ****  * @param[in]  rhs                Pointer to the RHS input matrix
 302:C:/Renesas/e2studio_2021_01_workspace_RZA2M_ANPR/ANPR_RZA2M_EBK/src/tensorflow_lite/third_party/cmsis/CMSIS/NN/Include\arm_nnsupportfunctions.h ****  * @param[in]  bias               Pointer to the bias vector. The length of this vector is equal to
 303:C:/Renesas/e2studio_2021_01_workspace_RZA2M_ANPR/ANPR_RZA2M_EBK/src/tensorflow_lite/third_party/cmsis/CMSIS/NN/Include\arm_nnsupportfunctions.h ****  * output columns (or RHS input rows)
 304:C:/Renesas/e2studio_2021_01_workspace_RZA2M_ANPR/ANPR_RZA2M_EBK/src/tensorflow_lite/third_party/cmsis/CMSIS/NN/Include\arm_nnsupportfunctions.h ****  * @param[out] dst                Pointer to the output matrix with "m" rows and "n" columns
 305:C:/Renesas/e2studio_2021_01_workspace_RZA2M_ANPR/ANPR_RZA2M_EBK/src/tensorflow_lite/third_party/cmsis/CMSIS/NN/Include\arm_nnsupportfunctions.h ****  * @param[in]  dst_multipliers    Pointer to the multipliers vector needed for the per-channel requ
 306:C:/Renesas/e2studio_2021_01_workspace_RZA2M_ANPR/ANPR_RZA2M_EBK/src/tensorflow_lite/third_party/cmsis/CMSIS/NN/Include\arm_nnsupportfunctions.h ****  *                                The length of this vector is equal to the number of output column
 307:C:/Renesas/e2studio_2021_01_workspace_RZA2M_ANPR/ANPR_RZA2M_EBK/src/tensorflow_lite/third_party/cmsis/CMSIS/NN/Include\arm_nnsupportfunctions.h ****  * rows)
 308:C:/Renesas/e2studio_2021_01_workspace_RZA2M_ANPR/ANPR_RZA2M_EBK/src/tensorflow_lite/third_party/cmsis/CMSIS/NN/Include\arm_nnsupportfunctions.h ****  * @param[in]  dst_shifts         Pointer to the shifts vector needed for the per-channel requantiz
 309:C:/Renesas/e2studio_2021_01_workspace_RZA2M_ANPR/ANPR_RZA2M_EBK/src/tensorflow_lite/third_party/cmsis/CMSIS/NN/Include\arm_nnsupportfunctions.h ****  * of this vector is equal to the number of output columns (or RHS input rows)
 310:C:/Renesas/e2studio_2021_01_workspace_RZA2M_ANPR/ANPR_RZA2M_EBK/src/tensorflow_lite/third_party/cmsis/CMSIS/NN/Include\arm_nnsupportfunctions.h ****  * @param[in]  lhs_rows           Number of LHS input rows
 311:C:/Renesas/e2studio_2021_01_workspace_RZA2M_ANPR/ANPR_RZA2M_EBK/src/tensorflow_lite/third_party/cmsis/CMSIS/NN/Include\arm_nnsupportfunctions.h ****  * @param[in]  rhs_rows           Number of RHS input rows
 312:C:/Renesas/e2studio_2021_01_workspace_RZA2M_ANPR/ANPR_RZA2M_EBK/src/tensorflow_lite/third_party/cmsis/CMSIS/NN/Include\arm_nnsupportfunctions.h ****  * @param[in]  rhs_cols           Number of LHS/RHS input columns
 313:C:/Renesas/e2studio_2021_01_workspace_RZA2M_ANPR/ANPR_RZA2M_EBK/src/tensorflow_lite/third_party/cmsis/CMSIS/NN/Include\arm_nnsupportfunctions.h ****  * @param[in]  lhs_offset         Offset to be applied to the LHS input value
 314:C:/Renesas/e2studio_2021_01_workspace_RZA2M_ANPR/ANPR_RZA2M_EBK/src/tensorflow_lite/third_party/cmsis/CMSIS/NN/Include\arm_nnsupportfunctions.h ****  * @param[in]  dst_offset         Offset to be applied the output result
 315:C:/Renesas/e2studio_2021_01_workspace_RZA2M_ANPR/ANPR_RZA2M_EBK/src/tensorflow_lite/third_party/cmsis/CMSIS/NN/Include\arm_nnsupportfunctions.h ****  * @param[in]  activation_min     Minimum value to clamp down the output. Range : int8
 316:C:/Renesas/e2studio_2021_01_workspace_RZA2M_ANPR/ANPR_RZA2M_EBK/src/tensorflow_lite/third_party/cmsis/CMSIS/NN/Include\arm_nnsupportfunctions.h ****  * @param[in]  activation_max     Maximum value to clamp up the output. Range : int8
 317:C:/Renesas/e2studio_2021_01_workspace_RZA2M_ANPR/ANPR_RZA2M_EBK/src/tensorflow_lite/third_party/cmsis/CMSIS/NN/Include\arm_nnsupportfunctions.h ****  *
 318:C:/Renesas/e2studio_2021_01_workspace_RZA2M_ANPR/ANPR_RZA2M_EBK/src/tensorflow_lite/third_party/cmsis/CMSIS/NN/Include\arm_nnsupportfunctions.h ****  * @return     The function returns <code>ARM_MATH_SUCCESS</code>
 319:C:/Renesas/e2studio_2021_01_workspace_RZA2M_ANPR/ANPR_RZA2M_EBK/src/tensorflow_lite/third_party/cmsis/CMSIS/NN/Include\arm_nnsupportfunctions.h ****  *
 320:C:/Renesas/e2studio_2021_01_workspace_RZA2M_ANPR/ANPR_RZA2M_EBK/src/tensorflow_lite/third_party/cmsis/CMSIS/NN/Include\arm_nnsupportfunctions.h ****  */
 321:C:/Renesas/e2studio_2021_01_workspace_RZA2M_ANPR/ANPR_RZA2M_EBK/src/tensorflow_lite/third_party/cmsis/CMSIS/NN/Include\arm_nnsupportfunctions.h **** arm_status arm_nn_mat_mult_nt_t_s8(const q7_t *lhs,
 322:C:/Renesas/e2studio_2021_01_workspace_RZA2M_ANPR/ANPR_RZA2M_EBK/src/tensorflow_lite/third_party/cmsis/CMSIS/NN/Include\arm_nnsupportfunctions.h ****                                    const q7_t *rhs,
 323:C:/Renesas/e2studio_2021_01_workspace_RZA2M_ANPR/ANPR_RZA2M_EBK/src/tensorflow_lite/third_party/cmsis/CMSIS/NN/Include\arm_nnsupportfunctions.h ****                                    const q31_t *bias,
 324:C:/Renesas/e2studio_2021_01_workspace_RZA2M_ANPR/ANPR_RZA2M_EBK/src/tensorflow_lite/third_party/cmsis/CMSIS/NN/Include\arm_nnsupportfunctions.h ****                                    q7_t *dst,
 325:C:/Renesas/e2studio_2021_01_workspace_RZA2M_ANPR/ANPR_RZA2M_EBK/src/tensorflow_lite/third_party/cmsis/CMSIS/NN/Include\arm_nnsupportfunctions.h ****                                    const int32_t *dst_multipliers,
 326:C:/Renesas/e2studio_2021_01_workspace_RZA2M_ANPR/ANPR_RZA2M_EBK/src/tensorflow_lite/third_party/cmsis/CMSIS/NN/Include\arm_nnsupportfunctions.h ****                                    const int32_t *dst_shifts,
 327:C:/Renesas/e2studio_2021_01_workspace_RZA2M_ANPR/ANPR_RZA2M_EBK/src/tensorflow_lite/third_party/cmsis/CMSIS/NN/Include\arm_nnsupportfunctions.h ****                                    const int32_t lhs_rows,
 328:C:/Renesas/e2studio_2021_01_workspace_RZA2M_ANPR/ANPR_RZA2M_EBK/src/tensorflow_lite/third_party/cmsis/CMSIS/NN/Include\arm_nnsupportfunctions.h ****                                    const int32_t rhs_rows,
 329:C:/Renesas/e2studio_2021_01_workspace_RZA2M_ANPR/ANPR_RZA2M_EBK/src/tensorflow_lite/third_party/cmsis/CMSIS/NN/Include\arm_nnsupportfunctions.h ****                                    const int32_t rhs_cols,
 330:C:/Renesas/e2studio_2021_01_workspace_RZA2M_ANPR/ANPR_RZA2M_EBK/src/tensorflow_lite/third_party/cmsis/CMSIS/NN/Include\arm_nnsupportfunctions.h ****                                    const int32_t lhs_offset,
 331:C:/Renesas/e2studio_2021_01_workspace_RZA2M_ANPR/ANPR_RZA2M_EBK/src/tensorflow_lite/third_party/cmsis/CMSIS/NN/Include\arm_nnsupportfunctions.h ****                                    const int32_t dst_offset,
 332:C:/Renesas/e2studio_2021_01_workspace_RZA2M_ANPR/ANPR_RZA2M_EBK/src/tensorflow_lite/third_party/cmsis/CMSIS/NN/Include\arm_nnsupportfunctions.h ****                                    const int32_t activation_min,
 333:C:/Renesas/e2studio_2021_01_workspace_RZA2M_ANPR/ANPR_RZA2M_EBK/src/tensorflow_lite/third_party/cmsis/CMSIS/NN/Include\arm_nnsupportfunctions.h ****                                    const int32_t activation_max);
 334:C:/Renesas/e2studio_2021_01_workspace_RZA2M_ANPR/ANPR_RZA2M_EBK/src/tensorflow_lite/third_party/cmsis/CMSIS/NN/Include\arm_nnsupportfunctions.h **** 
 335:C:/Renesas/e2studio_2021_01_workspace_RZA2M_ANPR/ANPR_RZA2M_EBK/src/tensorflow_lite/third_party/cmsis/CMSIS/NN/Include\arm_nnsupportfunctions.h **** /**
 336:C:/Renesas/e2studio_2021_01_workspace_RZA2M_ANPR/ANPR_RZA2M_EBK/src/tensorflow_lite/third_party/cmsis/CMSIS/NN/Include\arm_nnsupportfunctions.h ****  * @brief s8 Vector by Matrix (transposed) multiplication
 337:C:/Renesas/e2studio_2021_01_workspace_RZA2M_ANPR/ANPR_RZA2M_EBK/src/tensorflow_lite/third_party/cmsis/CMSIS/NN/Include\arm_nnsupportfunctions.h ****  *
 338:C:/Renesas/e2studio_2021_01_workspace_RZA2M_ANPR/ANPR_RZA2M_EBK/src/tensorflow_lite/third_party/cmsis/CMSIS/NN/Include\arm_nnsupportfunctions.h ****  * @param[in]      lhs             Input left-hand side vector
 339:C:/Renesas/e2studio_2021_01_workspace_RZA2M_ANPR/ANPR_RZA2M_EBK/src/tensorflow_lite/third_party/cmsis/CMSIS/NN/Include\arm_nnsupportfunctions.h ****  * @param[in]      rhs             Input right-hand side matrix (transposed)
 340:C:/Renesas/e2studio_2021_01_workspace_RZA2M_ANPR/ANPR_RZA2M_EBK/src/tensorflow_lite/third_party/cmsis/CMSIS/NN/Include\arm_nnsupportfunctions.h ****  * @param[in]      bias            Input bias
 341:C:/Renesas/e2studio_2021_01_workspace_RZA2M_ANPR/ANPR_RZA2M_EBK/src/tensorflow_lite/third_party/cmsis/CMSIS/NN/Include\arm_nnsupportfunctions.h ****  * @param[out]     dst             Output vector
 342:C:/Renesas/e2studio_2021_01_workspace_RZA2M_ANPR/ANPR_RZA2M_EBK/src/tensorflow_lite/third_party/cmsis/CMSIS/NN/Include\arm_nnsupportfunctions.h ****  * @param[in]      lhs_offset      Offset to be added to the input values of the left-hand side vec
 343:C:/Renesas/e2studio_2021_01_workspace_RZA2M_ANPR/ANPR_RZA2M_EBK/src/tensorflow_lite/third_party/cmsis/CMSIS/NN/Include\arm_nnsupportfunctions.h ****  *                                 Range: -127 to 128
 344:C:/Renesas/e2studio_2021_01_workspace_RZA2M_ANPR/ANPR_RZA2M_EBK/src/tensorflow_lite/third_party/cmsis/CMSIS/NN/Include\arm_nnsupportfunctions.h ****  * @param[in]      rhs_offset      Not used
 345:C:/Renesas/e2studio_2021_01_workspace_RZA2M_ANPR/ANPR_RZA2M_EBK/src/tensorflow_lite/third_party/cmsis/CMSIS/NN/Include\arm_nnsupportfunctions.h ****  * @param[in]      dst_offset      Offset to be added to the output values. Range: -127 to 128
 346:C:/Renesas/e2studio_2021_01_workspace_RZA2M_ANPR/ANPR_RZA2M_EBK/src/tensorflow_lite/third_party/cmsis/CMSIS/NN/Include\arm_nnsupportfunctions.h ****  * @param[in]      dst_multiplier  Output multiplier
 347:C:/Renesas/e2studio_2021_01_workspace_RZA2M_ANPR/ANPR_RZA2M_EBK/src/tensorflow_lite/third_party/cmsis/CMSIS/NN/Include\arm_nnsupportfunctions.h ****  * @param[in]      dst_shift       Output shift
 348:C:/Renesas/e2studio_2021_01_workspace_RZA2M_ANPR/ANPR_RZA2M_EBK/src/tensorflow_lite/third_party/cmsis/CMSIS/NN/Include\arm_nnsupportfunctions.h ****  * @param[in]      rhs_cols        Number of columns in the right-hand side input matrix
 349:C:/Renesas/e2studio_2021_01_workspace_RZA2M_ANPR/ANPR_RZA2M_EBK/src/tensorflow_lite/third_party/cmsis/CMSIS/NN/Include\arm_nnsupportfunctions.h ****  * @param[in]      rhs_rows        Number of rows in the right-hand side input matrix
 350:C:/Renesas/e2studio_2021_01_workspace_RZA2M_ANPR/ANPR_RZA2M_EBK/src/tensorflow_lite/third_party/cmsis/CMSIS/NN/Include\arm_nnsupportfunctions.h ****  * @param[in]      activation_min  Minimum value to clamp the output to. Range: int8
 351:C:/Renesas/e2studio_2021_01_workspace_RZA2M_ANPR/ANPR_RZA2M_EBK/src/tensorflow_lite/third_party/cmsis/CMSIS/NN/Include\arm_nnsupportfunctions.h ****  * @param[in]      activation_max  Maximum value to clamp the output to. Range: int8
 352:C:/Renesas/e2studio_2021_01_workspace_RZA2M_ANPR/ANPR_RZA2M_EBK/src/tensorflow_lite/third_party/cmsis/CMSIS/NN/Include\arm_nnsupportfunctions.h ****  *
 353:C:/Renesas/e2studio_2021_01_workspace_RZA2M_ANPR/ANPR_RZA2M_EBK/src/tensorflow_lite/third_party/cmsis/CMSIS/NN/Include\arm_nnsupportfunctions.h ****  * @return         The function returns <code>ARM_MATH_SUCCESS</code>
 354:C:/Renesas/e2studio_2021_01_workspace_RZA2M_ANPR/ANPR_RZA2M_EBK/src/tensorflow_lite/third_party/cmsis/CMSIS/NN/Include\arm_nnsupportfunctions.h ****  *
 355:C:/Renesas/e2studio_2021_01_workspace_RZA2M_ANPR/ANPR_RZA2M_EBK/src/tensorflow_lite/third_party/cmsis/CMSIS/NN/Include\arm_nnsupportfunctions.h ****  */
 356:C:/Renesas/e2studio_2021_01_workspace_RZA2M_ANPR/ANPR_RZA2M_EBK/src/tensorflow_lite/third_party/cmsis/CMSIS/NN/Include\arm_nnsupportfunctions.h **** arm_status arm_nn_vec_mat_mult_t_s8(const q7_t *lhs,
 357:C:/Renesas/e2studio_2021_01_workspace_RZA2M_ANPR/ANPR_RZA2M_EBK/src/tensorflow_lite/third_party/cmsis/CMSIS/NN/Include\arm_nnsupportfunctions.h ****                                     const q7_t *rhs,
 358:C:/Renesas/e2studio_2021_01_workspace_RZA2M_ANPR/ANPR_RZA2M_EBK/src/tensorflow_lite/third_party/cmsis/CMSIS/NN/Include\arm_nnsupportfunctions.h ****                                     const q31_t *bias,
 359:C:/Renesas/e2studio_2021_01_workspace_RZA2M_ANPR/ANPR_RZA2M_EBK/src/tensorflow_lite/third_party/cmsis/CMSIS/NN/Include\arm_nnsupportfunctions.h ****                                     q7_t *dst,
 360:C:/Renesas/e2studio_2021_01_workspace_RZA2M_ANPR/ANPR_RZA2M_EBK/src/tensorflow_lite/third_party/cmsis/CMSIS/NN/Include\arm_nnsupportfunctions.h ****                                     const int32_t lhs_offset,
 361:C:/Renesas/e2studio_2021_01_workspace_RZA2M_ANPR/ANPR_RZA2M_EBK/src/tensorflow_lite/third_party/cmsis/CMSIS/NN/Include\arm_nnsupportfunctions.h ****                                     const int32_t rhs_offset,
 362:C:/Renesas/e2studio_2021_01_workspace_RZA2M_ANPR/ANPR_RZA2M_EBK/src/tensorflow_lite/third_party/cmsis/CMSIS/NN/Include\arm_nnsupportfunctions.h ****                                     const int32_t dst_offset,
 363:C:/Renesas/e2studio_2021_01_workspace_RZA2M_ANPR/ANPR_RZA2M_EBK/src/tensorflow_lite/third_party/cmsis/CMSIS/NN/Include\arm_nnsupportfunctions.h ****                                     const int32_t dst_multiplier,
 364:C:/Renesas/e2studio_2021_01_workspace_RZA2M_ANPR/ANPR_RZA2M_EBK/src/tensorflow_lite/third_party/cmsis/CMSIS/NN/Include\arm_nnsupportfunctions.h ****                                     const int32_t dst_shift,
 365:C:/Renesas/e2studio_2021_01_workspace_RZA2M_ANPR/ANPR_RZA2M_EBK/src/tensorflow_lite/third_party/cmsis/CMSIS/NN/Include\arm_nnsupportfunctions.h ****                                     const int32_t rhs_cols,
 366:C:/Renesas/e2studio_2021_01_workspace_RZA2M_ANPR/ANPR_RZA2M_EBK/src/tensorflow_lite/third_party/cmsis/CMSIS/NN/Include\arm_nnsupportfunctions.h ****                                     const int32_t rhs_rows,
 367:C:/Renesas/e2studio_2021_01_workspace_RZA2M_ANPR/ANPR_RZA2M_EBK/src/tensorflow_lite/third_party/cmsis/CMSIS/NN/Include\arm_nnsupportfunctions.h ****                                     const int32_t activation_min,
 368:C:/Renesas/e2studio_2021_01_workspace_RZA2M_ANPR/ANPR_RZA2M_EBK/src/tensorflow_lite/third_party/cmsis/CMSIS/NN/Include\arm_nnsupportfunctions.h ****                                     const int32_t activation_max);
 369:C:/Renesas/e2studio_2021_01_workspace_RZA2M_ANPR/ANPR_RZA2M_EBK/src/tensorflow_lite/third_party/cmsis/CMSIS/NN/Include\arm_nnsupportfunctions.h **** 
 370:C:/Renesas/e2studio_2021_01_workspace_RZA2M_ANPR/ANPR_RZA2M_EBK/src/tensorflow_lite/third_party/cmsis/CMSIS/NN/Include\arm_nnsupportfunctions.h **** /**
 371:C:/Renesas/e2studio_2021_01_workspace_RZA2M_ANPR/ANPR_RZA2M_EBK/src/tensorflow_lite/third_party/cmsis/CMSIS/NN/Include\arm_nnsupportfunctions.h ****  * @brief s8 Vector by Matrix (transposed) multiplication with s16 output
 372:C:/Renesas/e2studio_2021_01_workspace_RZA2M_ANPR/ANPR_RZA2M_EBK/src/tensorflow_lite/third_party/cmsis/CMSIS/NN/Include\arm_nnsupportfunctions.h ****  *
 373:C:/Renesas/e2studio_2021_01_workspace_RZA2M_ANPR/ANPR_RZA2M_EBK/src/tensorflow_lite/third_party/cmsis/CMSIS/NN/Include\arm_nnsupportfunctions.h ****  * @param[in]      lhs             Input left-hand side vector
 374:C:/Renesas/e2studio_2021_01_workspace_RZA2M_ANPR/ANPR_RZA2M_EBK/src/tensorflow_lite/third_party/cmsis/CMSIS/NN/Include\arm_nnsupportfunctions.h ****  * @param[in]      rhs             Input right-hand side matrix (transposed)
 375:C:/Renesas/e2studio_2021_01_workspace_RZA2M_ANPR/ANPR_RZA2M_EBK/src/tensorflow_lite/third_party/cmsis/CMSIS/NN/Include\arm_nnsupportfunctions.h ****  * @param[out]     dst             Output vector
 376:C:/Renesas/e2studio_2021_01_workspace_RZA2M_ANPR/ANPR_RZA2M_EBK/src/tensorflow_lite/third_party/cmsis/CMSIS/NN/Include\arm_nnsupportfunctions.h ****  * @param[in]      lhs_offset      Offset to be added to the input values of the left-hand side
 377:C:/Renesas/e2studio_2021_01_workspace_RZA2M_ANPR/ANPR_RZA2M_EBK/src/tensorflow_lite/third_party/cmsis/CMSIS/NN/Include\arm_nnsupportfunctions.h ****  *                                 vector. Range: -127 to 128
 378:C:/Renesas/e2studio_2021_01_workspace_RZA2M_ANPR/ANPR_RZA2M_EBK/src/tensorflow_lite/third_party/cmsis/CMSIS/NN/Include\arm_nnsupportfunctions.h ****  * @param[in]      rhs_offset      Not used
 379:C:/Renesas/e2studio_2021_01_workspace_RZA2M_ANPR/ANPR_RZA2M_EBK/src/tensorflow_lite/third_party/cmsis/CMSIS/NN/Include\arm_nnsupportfunctions.h ****  * @param[in]      scatter_offset  Address offset for dst. First output is stored at 'dst', the
 380:C:/Renesas/e2studio_2021_01_workspace_RZA2M_ANPR/ANPR_RZA2M_EBK/src/tensorflow_lite/third_party/cmsis/CMSIS/NN/Include\arm_nnsupportfunctions.h ****  *                                 second at 'dst + scatter_offset' and so on.
 381:C:/Renesas/e2studio_2021_01_workspace_RZA2M_ANPR/ANPR_RZA2M_EBK/src/tensorflow_lite/third_party/cmsis/CMSIS/NN/Include\arm_nnsupportfunctions.h ****  * @param[in]      dst_multiplier  Output multiplier
 382:C:/Renesas/e2studio_2021_01_workspace_RZA2M_ANPR/ANPR_RZA2M_EBK/src/tensorflow_lite/third_party/cmsis/CMSIS/NN/Include\arm_nnsupportfunctions.h ****  * @param[in]      dst_shift       Output shift
 383:C:/Renesas/e2studio_2021_01_workspace_RZA2M_ANPR/ANPR_RZA2M_EBK/src/tensorflow_lite/third_party/cmsis/CMSIS/NN/Include\arm_nnsupportfunctions.h ****  * @param[in]      rhs_cols        Number of columns in the right-hand side input matrix
 384:C:/Renesas/e2studio_2021_01_workspace_RZA2M_ANPR/ANPR_RZA2M_EBK/src/tensorflow_lite/third_party/cmsis/CMSIS/NN/Include\arm_nnsupportfunctions.h ****  * @param[in]      rhs_rows        Number of rows in the right-hand side input matrix
 385:C:/Renesas/e2studio_2021_01_workspace_RZA2M_ANPR/ANPR_RZA2M_EBK/src/tensorflow_lite/third_party/cmsis/CMSIS/NN/Include\arm_nnsupportfunctions.h ****  * @param[in]      activation_min  Minimum value to clamp the output to. Range: int16
 386:C:/Renesas/e2studio_2021_01_workspace_RZA2M_ANPR/ANPR_RZA2M_EBK/src/tensorflow_lite/third_party/cmsis/CMSIS/NN/Include\arm_nnsupportfunctions.h ****  * @param[in]      activation_max  Maximum value to clamp the output to. Range: int16
 387:C:/Renesas/e2studio_2021_01_workspace_RZA2M_ANPR/ANPR_RZA2M_EBK/src/tensorflow_lite/third_party/cmsis/CMSIS/NN/Include\arm_nnsupportfunctions.h ****  *
 388:C:/Renesas/e2studio_2021_01_workspace_RZA2M_ANPR/ANPR_RZA2M_EBK/src/tensorflow_lite/third_party/cmsis/CMSIS/NN/Include\arm_nnsupportfunctions.h ****  * @return         The function returns <code>ARM_MATH_SUCCESS</code>
 389:C:/Renesas/e2studio_2021_01_workspace_RZA2M_ANPR/ANPR_RZA2M_EBK/src/tensorflow_lite/third_party/cmsis/CMSIS/NN/Include\arm_nnsupportfunctions.h ****  *
 390:C:/Renesas/e2studio_2021_01_workspace_RZA2M_ANPR/ANPR_RZA2M_EBK/src/tensorflow_lite/third_party/cmsis/CMSIS/NN/Include\arm_nnsupportfunctions.h ****  */
 391:C:/Renesas/e2studio_2021_01_workspace_RZA2M_ANPR/ANPR_RZA2M_EBK/src/tensorflow_lite/third_party/cmsis/CMSIS/NN/Include\arm_nnsupportfunctions.h **** arm_status arm_nn_vec_mat_mult_t_svdf_s8(const q7_t *lhs,
 392:C:/Renesas/e2studio_2021_01_workspace_RZA2M_ANPR/ANPR_RZA2M_EBK/src/tensorflow_lite/third_party/cmsis/CMSIS/NN/Include\arm_nnsupportfunctions.h ****                                          const q7_t *rhs,
 393:C:/Renesas/e2studio_2021_01_workspace_RZA2M_ANPR/ANPR_RZA2M_EBK/src/tensorflow_lite/third_party/cmsis/CMSIS/NN/Include\arm_nnsupportfunctions.h ****                                          q15_t *dst,
 394:C:/Renesas/e2studio_2021_01_workspace_RZA2M_ANPR/ANPR_RZA2M_EBK/src/tensorflow_lite/third_party/cmsis/CMSIS/NN/Include\arm_nnsupportfunctions.h ****                                          const int32_t lhs_offset,
 395:C:/Renesas/e2studio_2021_01_workspace_RZA2M_ANPR/ANPR_RZA2M_EBK/src/tensorflow_lite/third_party/cmsis/CMSIS/NN/Include\arm_nnsupportfunctions.h ****                                          const int32_t rhs_offset,
 396:C:/Renesas/e2studio_2021_01_workspace_RZA2M_ANPR/ANPR_RZA2M_EBK/src/tensorflow_lite/third_party/cmsis/CMSIS/NN/Include\arm_nnsupportfunctions.h ****                                          const int32_t scatter_offset,
 397:C:/Renesas/e2studio_2021_01_workspace_RZA2M_ANPR/ANPR_RZA2M_EBK/src/tensorflow_lite/third_party/cmsis/CMSIS/NN/Include\arm_nnsupportfunctions.h ****                                          const int32_t dst_multiplier,
 398:C:/Renesas/e2studio_2021_01_workspace_RZA2M_ANPR/ANPR_RZA2M_EBK/src/tensorflow_lite/third_party/cmsis/CMSIS/NN/Include\arm_nnsupportfunctions.h ****                                          const int32_t dst_shift,
 399:C:/Renesas/e2studio_2021_01_workspace_RZA2M_ANPR/ANPR_RZA2M_EBK/src/tensorflow_lite/third_party/cmsis/CMSIS/NN/Include\arm_nnsupportfunctions.h ****                                          const int32_t rhs_cols,
 400:C:/Renesas/e2studio_2021_01_workspace_RZA2M_ANPR/ANPR_RZA2M_EBK/src/tensorflow_lite/third_party/cmsis/CMSIS/NN/Include\arm_nnsupportfunctions.h ****                                          const int32_t rhs_rows,
 401:C:/Renesas/e2studio_2021_01_workspace_RZA2M_ANPR/ANPR_RZA2M_EBK/src/tensorflow_lite/third_party/cmsis/CMSIS/NN/Include\arm_nnsupportfunctions.h ****                                          const int32_t activation_min,
 402:C:/Renesas/e2studio_2021_01_workspace_RZA2M_ANPR/ANPR_RZA2M_EBK/src/tensorflow_lite/third_party/cmsis/CMSIS/NN/Include\arm_nnsupportfunctions.h ****                                          const int32_t activation_max);
 403:C:/Renesas/e2studio_2021_01_workspace_RZA2M_ANPR/ANPR_RZA2M_EBK/src/tensorflow_lite/third_party/cmsis/CMSIS/NN/Include\arm_nnsupportfunctions.h **** 
 404:C:/Renesas/e2studio_2021_01_workspace_RZA2M_ANPR/ANPR_RZA2M_EBK/src/tensorflow_lite/third_party/cmsis/CMSIS/NN/Include\arm_nnsupportfunctions.h **** /**
 405:C:/Renesas/e2studio_2021_01_workspace_RZA2M_ANPR/ANPR_RZA2M_EBK/src/tensorflow_lite/third_party/cmsis/CMSIS/NN/Include\arm_nnsupportfunctions.h ****  * @brief Depthwise convolution of transposed rhs matrix with 4 lhs matrices. To be used in padded 
 406:C:/Renesas/e2studio_2021_01_workspace_RZA2M_ANPR/ANPR_RZA2M_EBK/src/tensorflow_lite/third_party/cmsis/CMSIS/NN/Include\arm_nnsupportfunctions.h ****  *        the padding is -lhs_offset(Range: int8). Dimensions are the same for lhs and rhs.
 407:C:/Renesas/e2studio_2021_01_workspace_RZA2M_ANPR/ANPR_RZA2M_EBK/src/tensorflow_lite/third_party/cmsis/CMSIS/NN/Include\arm_nnsupportfunctions.h ****  *
 408:C:/Renesas/e2studio_2021_01_workspace_RZA2M_ANPR/ANPR_RZA2M_EBK/src/tensorflow_lite/third_party/cmsis/CMSIS/NN/Include\arm_nnsupportfunctions.h ****  * @param[in]      lhs             Input left-hand side matrix
 409:C:/Renesas/e2studio_2021_01_workspace_RZA2M_ANPR/ANPR_RZA2M_EBK/src/tensorflow_lite/third_party/cmsis/CMSIS/NN/Include\arm_nnsupportfunctions.h ****  * @param[in]      rhs             Input right-hand side matrix (transposed)
 410:C:/Renesas/e2studio_2021_01_workspace_RZA2M_ANPR/ANPR_RZA2M_EBK/src/tensorflow_lite/third_party/cmsis/CMSIS/NN/Include\arm_nnsupportfunctions.h ****  * @param[in]      lhs_offset      LHS matrix offset(input offset). Range: -127 to 128
 411:C:/Renesas/e2studio_2021_01_workspace_RZA2M_ANPR/ANPR_RZA2M_EBK/src/tensorflow_lite/third_party/cmsis/CMSIS/NN/Include\arm_nnsupportfunctions.h ****  * @param[in]      num_ch          Number of channels in LHS/RHS
 412:C:/Renesas/e2studio_2021_01_workspace_RZA2M_ANPR/ANPR_RZA2M_EBK/src/tensorflow_lite/third_party/cmsis/CMSIS/NN/Include\arm_nnsupportfunctions.h ****  * @param[in]      out_shift       Per channel output shift. Length of vector is equal to number of
 413:C:/Renesas/e2studio_2021_01_workspace_RZA2M_ANPR/ANPR_RZA2M_EBK/src/tensorflow_lite/third_party/cmsis/CMSIS/NN/Include\arm_nnsupportfunctions.h ****  * @param[in]      out_mult        Per channel output multiplier. Length of vector is equal to numb
 414:C:/Renesas/e2studio_2021_01_workspace_RZA2M_ANPR/ANPR_RZA2M_EBK/src/tensorflow_lite/third_party/cmsis/CMSIS/NN/Include\arm_nnsupportfunctions.h ****  * @param[in]      out_offset      Offset to be added to the output values. Range: -127 to 128
 415:C:/Renesas/e2studio_2021_01_workspace_RZA2M_ANPR/ANPR_RZA2M_EBK/src/tensorflow_lite/third_party/cmsis/CMSIS/NN/Include\arm_nnsupportfunctions.h ****  * @param[in]      activation_min  Minimum value to clamp the output to. Range: int8
 416:C:/Renesas/e2studio_2021_01_workspace_RZA2M_ANPR/ANPR_RZA2M_EBK/src/tensorflow_lite/third_party/cmsis/CMSIS/NN/Include\arm_nnsupportfunctions.h ****  * @param[in]      activation_max  Maximum value to clamp the output to. Range: int8
 417:C:/Renesas/e2studio_2021_01_workspace_RZA2M_ANPR/ANPR_RZA2M_EBK/src/tensorflow_lite/third_party/cmsis/CMSIS/NN/Include\arm_nnsupportfunctions.h ****  * @param[in]       row_x_col       (row_dimension * col_dimension) of LHS/RHS matrix
 418:C:/Renesas/e2studio_2021_01_workspace_RZA2M_ANPR/ANPR_RZA2M_EBK/src/tensorflow_lite/third_party/cmsis/CMSIS/NN/Include\arm_nnsupportfunctions.h ****  * @param[in]      output_bias     Per channel output bias. Length of vector is equal to number of 
 419:C:/Renesas/e2studio_2021_01_workspace_RZA2M_ANPR/ANPR_RZA2M_EBK/src/tensorflow_lite/third_party/cmsis/CMSIS/NN/Include\arm_nnsupportfunctions.h ****  * @param[in]      out             Output pointer
 420:C:/Renesas/e2studio_2021_01_workspace_RZA2M_ANPR/ANPR_RZA2M_EBK/src/tensorflow_lite/third_party/cmsis/CMSIS/NN/Include\arm_nnsupportfunctions.h ****  *
 421:C:/Renesas/e2studio_2021_01_workspace_RZA2M_ANPR/ANPR_RZA2M_EBK/src/tensorflow_lite/third_party/cmsis/CMSIS/NN/Include\arm_nnsupportfunctions.h ****  * @return         The function returns one of the two
 422:C:/Renesas/e2studio_2021_01_workspace_RZA2M_ANPR/ANPR_RZA2M_EBK/src/tensorflow_lite/third_party/cmsis/CMSIS/NN/Include\arm_nnsupportfunctions.h ****  *                  - Updated output pointer if an implementaiton is available
 423:C:/Renesas/e2studio_2021_01_workspace_RZA2M_ANPR/ANPR_RZA2M_EBK/src/tensorflow_lite/third_party/cmsis/CMSIS/NN/Include\arm_nnsupportfunctions.h ****  *                  - NULL if no implementation is available.
 424:C:/Renesas/e2studio_2021_01_workspace_RZA2M_ANPR/ANPR_RZA2M_EBK/src/tensorflow_lite/third_party/cmsis/CMSIS/NN/Include\arm_nnsupportfunctions.h ****  *
 425:C:/Renesas/e2studio_2021_01_workspace_RZA2M_ANPR/ANPR_RZA2M_EBK/src/tensorflow_lite/third_party/cmsis/CMSIS/NN/Include\arm_nnsupportfunctions.h ****  * @note           If number of channels is not a multiple of 4, upto 3 elements outside the bounda
 426:C:/Renesas/e2studio_2021_01_workspace_RZA2M_ANPR/ANPR_RZA2M_EBK/src/tensorflow_lite/third_party/cmsis/CMSIS/NN/Include\arm_nnsupportfunctions.h ****  * out for the following.
 427:C:/Renesas/e2studio_2021_01_workspace_RZA2M_ANPR/ANPR_RZA2M_EBK/src/tensorflow_lite/third_party/cmsis/CMSIS/NN/Include\arm_nnsupportfunctions.h ****  *                  - Output shift
 428:C:/Renesas/e2studio_2021_01_workspace_RZA2M_ANPR/ANPR_RZA2M_EBK/src/tensorflow_lite/third_party/cmsis/CMSIS/NN/Include\arm_nnsupportfunctions.h ****  *                  - Output multiplier
 429:C:/Renesas/e2studio_2021_01_workspace_RZA2M_ANPR/ANPR_RZA2M_EBK/src/tensorflow_lite/third_party/cmsis/CMSIS/NN/Include\arm_nnsupportfunctions.h ****  *                  - Output bias
 430:C:/Renesas/e2studio_2021_01_workspace_RZA2M_ANPR/ANPR_RZA2M_EBK/src/tensorflow_lite/third_party/cmsis/CMSIS/NN/Include\arm_nnsupportfunctions.h ****  *                  - rhs
 431:C:/Renesas/e2studio_2021_01_workspace_RZA2M_ANPR/ANPR_RZA2M_EBK/src/tensorflow_lite/third_party/cmsis/CMSIS/NN/Include\arm_nnsupportfunctions.h ****  */
 432:C:/Renesas/e2studio_2021_01_workspace_RZA2M_ANPR/ANPR_RZA2M_EBK/src/tensorflow_lite/third_party/cmsis/CMSIS/NN/Include\arm_nnsupportfunctions.h **** q7_t *arm_nn_depthwise_conv_nt_t_padded_s8(const q7_t *lhs,
 433:C:/Renesas/e2studio_2021_01_workspace_RZA2M_ANPR/ANPR_RZA2M_EBK/src/tensorflow_lite/third_party/cmsis/CMSIS/NN/Include\arm_nnsupportfunctions.h ****                                            const q7_t *rhs,
 434:C:/Renesas/e2studio_2021_01_workspace_RZA2M_ANPR/ANPR_RZA2M_EBK/src/tensorflow_lite/third_party/cmsis/CMSIS/NN/Include\arm_nnsupportfunctions.h ****                                            const int32_t lhs_offset,
 435:C:/Renesas/e2studio_2021_01_workspace_RZA2M_ANPR/ANPR_RZA2M_EBK/src/tensorflow_lite/third_party/cmsis/CMSIS/NN/Include\arm_nnsupportfunctions.h ****                                            const uint16_t num_ch,
 436:C:/Renesas/e2studio_2021_01_workspace_RZA2M_ANPR/ANPR_RZA2M_EBK/src/tensorflow_lite/third_party/cmsis/CMSIS/NN/Include\arm_nnsupportfunctions.h ****                                            const int32_t *out_shift,
 437:C:/Renesas/e2studio_2021_01_workspace_RZA2M_ANPR/ANPR_RZA2M_EBK/src/tensorflow_lite/third_party/cmsis/CMSIS/NN/Include\arm_nnsupportfunctions.h ****                                            const int32_t *out_mult,
 438:C:/Renesas/e2studio_2021_01_workspace_RZA2M_ANPR/ANPR_RZA2M_EBK/src/tensorflow_lite/third_party/cmsis/CMSIS/NN/Include\arm_nnsupportfunctions.h ****                                            const int32_t out_offset,
 439:C:/Renesas/e2studio_2021_01_workspace_RZA2M_ANPR/ANPR_RZA2M_EBK/src/tensorflow_lite/third_party/cmsis/CMSIS/NN/Include\arm_nnsupportfunctions.h ****                                            const int32_t activation_min,
 440:C:/Renesas/e2studio_2021_01_workspace_RZA2M_ANPR/ANPR_RZA2M_EBK/src/tensorflow_lite/third_party/cmsis/CMSIS/NN/Include\arm_nnsupportfunctions.h ****                                            const int32_t activation_max,
 441:C:/Renesas/e2studio_2021_01_workspace_RZA2M_ANPR/ANPR_RZA2M_EBK/src/tensorflow_lite/third_party/cmsis/CMSIS/NN/Include\arm_nnsupportfunctions.h ****                                            const uint16_t row_x_col,
 442:C:/Renesas/e2studio_2021_01_workspace_RZA2M_ANPR/ANPR_RZA2M_EBK/src/tensorflow_lite/third_party/cmsis/CMSIS/NN/Include\arm_nnsupportfunctions.h ****                                            const int32_t *const output_bias,
 443:C:/Renesas/e2studio_2021_01_workspace_RZA2M_ANPR/ANPR_RZA2M_EBK/src/tensorflow_lite/third_party/cmsis/CMSIS/NN/Include\arm_nnsupportfunctions.h ****                                            q7_t *out);
 444:C:/Renesas/e2studio_2021_01_workspace_RZA2M_ANPR/ANPR_RZA2M_EBK/src/tensorflow_lite/third_party/cmsis/CMSIS/NN/Include\arm_nnsupportfunctions.h **** 
 445:C:/Renesas/e2studio_2021_01_workspace_RZA2M_ANPR/ANPR_RZA2M_EBK/src/tensorflow_lite/third_party/cmsis/CMSIS/NN/Include\arm_nnsupportfunctions.h **** /**
 446:C:/Renesas/e2studio_2021_01_workspace_RZA2M_ANPR/ANPR_RZA2M_EBK/src/tensorflow_lite/third_party/cmsis/CMSIS/NN/Include\arm_nnsupportfunctions.h ****  * @brief Depthwise convolution of transposed rhs matrix with 4 lhs matrices. To be used in non-pad
 447:C:/Renesas/e2studio_2021_01_workspace_RZA2M_ANPR/ANPR_RZA2M_EBK/src/tensorflow_lite/third_party/cmsis/CMSIS/NN/Include\arm_nnsupportfunctions.h ****  *        Dimensions are the same for lhs and rhs.
 448:C:/Renesas/e2studio_2021_01_workspace_RZA2M_ANPR/ANPR_RZA2M_EBK/src/tensorflow_lite/third_party/cmsis/CMSIS/NN/Include\arm_nnsupportfunctions.h ****  *
 449:C:/Renesas/e2studio_2021_01_workspace_RZA2M_ANPR/ANPR_RZA2M_EBK/src/tensorflow_lite/third_party/cmsis/CMSIS/NN/Include\arm_nnsupportfunctions.h ****  * @param[in]      lhs             Input left-hand side matrix
 450:C:/Renesas/e2studio_2021_01_workspace_RZA2M_ANPR/ANPR_RZA2M_EBK/src/tensorflow_lite/third_party/cmsis/CMSIS/NN/Include\arm_nnsupportfunctions.h ****  * @param[in]      rhs             Input right-hand side matrix (transposed)
 451:C:/Renesas/e2studio_2021_01_workspace_RZA2M_ANPR/ANPR_RZA2M_EBK/src/tensorflow_lite/third_party/cmsis/CMSIS/NN/Include\arm_nnsupportfunctions.h ****  * @param[in]      lhs_offset      LHS matrix offset(input offset). Range: -127 to 128
 452:C:/Renesas/e2studio_2021_01_workspace_RZA2M_ANPR/ANPR_RZA2M_EBK/src/tensorflow_lite/third_party/cmsis/CMSIS/NN/Include\arm_nnsupportfunctions.h ****  * @param[in]      num_ch          Number of channels in LHS/RHS
 453:C:/Renesas/e2studio_2021_01_workspace_RZA2M_ANPR/ANPR_RZA2M_EBK/src/tensorflow_lite/third_party/cmsis/CMSIS/NN/Include\arm_nnsupportfunctions.h ****  * @param[in]      out_shift       Per channel output shift. Length of vector is equal to number of
 454:C:/Renesas/e2studio_2021_01_workspace_RZA2M_ANPR/ANPR_RZA2M_EBK/src/tensorflow_lite/third_party/cmsis/CMSIS/NN/Include\arm_nnsupportfunctions.h ****  * @param[in]      out_mult        Per channel output multiplier. Length of vector is equal to numb
 455:C:/Renesas/e2studio_2021_01_workspace_RZA2M_ANPR/ANPR_RZA2M_EBK/src/tensorflow_lite/third_party/cmsis/CMSIS/NN/Include\arm_nnsupportfunctions.h ****  * @param[in]      out_offset      Offset to be added to the output values. Range: -127 to 128
 456:C:/Renesas/e2studio_2021_01_workspace_RZA2M_ANPR/ANPR_RZA2M_EBK/src/tensorflow_lite/third_party/cmsis/CMSIS/NN/Include\arm_nnsupportfunctions.h ****  * @param[in]      activation_min  Minimum value to clamp the output to. Range: int8
 457:C:/Renesas/e2studio_2021_01_workspace_RZA2M_ANPR/ANPR_RZA2M_EBK/src/tensorflow_lite/third_party/cmsis/CMSIS/NN/Include\arm_nnsupportfunctions.h ****  * @param[in]      activation_max  Maximum value to clamp the output to. Range: int8
 458:C:/Renesas/e2studio_2021_01_workspace_RZA2M_ANPR/ANPR_RZA2M_EBK/src/tensorflow_lite/third_party/cmsis/CMSIS/NN/Include\arm_nnsupportfunctions.h ****  * @param[in]       row_x_col       (row_dimension * col_dimension) of LHS/RHS matrix
 459:C:/Renesas/e2studio_2021_01_workspace_RZA2M_ANPR/ANPR_RZA2M_EBK/src/tensorflow_lite/third_party/cmsis/CMSIS/NN/Include\arm_nnsupportfunctions.h ****  * @param[in]      output_bias     Per channel output bias. Length of vector is equal to number of 
 460:C:/Renesas/e2studio_2021_01_workspace_RZA2M_ANPR/ANPR_RZA2M_EBK/src/tensorflow_lite/third_party/cmsis/CMSIS/NN/Include\arm_nnsupportfunctions.h ****  * @param[in]      out             Output pointer
 461:C:/Renesas/e2studio_2021_01_workspace_RZA2M_ANPR/ANPR_RZA2M_EBK/src/tensorflow_lite/third_party/cmsis/CMSIS/NN/Include\arm_nnsupportfunctions.h ****  *
 462:C:/Renesas/e2studio_2021_01_workspace_RZA2M_ANPR/ANPR_RZA2M_EBK/src/tensorflow_lite/third_party/cmsis/CMSIS/NN/Include\arm_nnsupportfunctions.h ****  * @return         The function returns one of the two
 463:C:/Renesas/e2studio_2021_01_workspace_RZA2M_ANPR/ANPR_RZA2M_EBK/src/tensorflow_lite/third_party/cmsis/CMSIS/NN/Include\arm_nnsupportfunctions.h ****  *                  - Updated output pointer if an implementaiton is available
 464:C:/Renesas/e2studio_2021_01_workspace_RZA2M_ANPR/ANPR_RZA2M_EBK/src/tensorflow_lite/third_party/cmsis/CMSIS/NN/Include\arm_nnsupportfunctions.h ****  *                  - NULL if no implementation is available.
 465:C:/Renesas/e2studio_2021_01_workspace_RZA2M_ANPR/ANPR_RZA2M_EBK/src/tensorflow_lite/third_party/cmsis/CMSIS/NN/Include\arm_nnsupportfunctions.h ****  *
 466:C:/Renesas/e2studio_2021_01_workspace_RZA2M_ANPR/ANPR_RZA2M_EBK/src/tensorflow_lite/third_party/cmsis/CMSIS/NN/Include\arm_nnsupportfunctions.h ****  * @note           If number of channels is not a multiple of 4, upto 3 elements outside the bounda
 467:C:/Renesas/e2studio_2021_01_workspace_RZA2M_ANPR/ANPR_RZA2M_EBK/src/tensorflow_lite/third_party/cmsis/CMSIS/NN/Include\arm_nnsupportfunctions.h ****  * out for the following.
 468:C:/Renesas/e2studio_2021_01_workspace_RZA2M_ANPR/ANPR_RZA2M_EBK/src/tensorflow_lite/third_party/cmsis/CMSIS/NN/Include\arm_nnsupportfunctions.h ****  *                  - Output shift
 469:C:/Renesas/e2studio_2021_01_workspace_RZA2M_ANPR/ANPR_RZA2M_EBK/src/tensorflow_lite/third_party/cmsis/CMSIS/NN/Include\arm_nnsupportfunctions.h ****  *                  - Output multiplier
 470:C:/Renesas/e2studio_2021_01_workspace_RZA2M_ANPR/ANPR_RZA2M_EBK/src/tensorflow_lite/third_party/cmsis/CMSIS/NN/Include\arm_nnsupportfunctions.h ****  *                  - Output bias
 471:C:/Renesas/e2studio_2021_01_workspace_RZA2M_ANPR/ANPR_RZA2M_EBK/src/tensorflow_lite/third_party/cmsis/CMSIS/NN/Include\arm_nnsupportfunctions.h ****  *                  - rhs
 472:C:/Renesas/e2studio_2021_01_workspace_RZA2M_ANPR/ANPR_RZA2M_EBK/src/tensorflow_lite/third_party/cmsis/CMSIS/NN/Include\arm_nnsupportfunctions.h ****  */
 473:C:/Renesas/e2studio_2021_01_workspace_RZA2M_ANPR/ANPR_RZA2M_EBK/src/tensorflow_lite/third_party/cmsis/CMSIS/NN/Include\arm_nnsupportfunctions.h **** q7_t *arm_nn_depthwise_conv_nt_t_s8(const q7_t *lhs,
 474:C:/Renesas/e2studio_2021_01_workspace_RZA2M_ANPR/ANPR_RZA2M_EBK/src/tensorflow_lite/third_party/cmsis/CMSIS/NN/Include\arm_nnsupportfunctions.h ****                                     const q7_t *rhs,
 475:C:/Renesas/e2studio_2021_01_workspace_RZA2M_ANPR/ANPR_RZA2M_EBK/src/tensorflow_lite/third_party/cmsis/CMSIS/NN/Include\arm_nnsupportfunctions.h ****                                     const int32_t lhs_offset,
 476:C:/Renesas/e2studio_2021_01_workspace_RZA2M_ANPR/ANPR_RZA2M_EBK/src/tensorflow_lite/third_party/cmsis/CMSIS/NN/Include\arm_nnsupportfunctions.h ****                                     const uint16_t num_ch,
 477:C:/Renesas/e2studio_2021_01_workspace_RZA2M_ANPR/ANPR_RZA2M_EBK/src/tensorflow_lite/third_party/cmsis/CMSIS/NN/Include\arm_nnsupportfunctions.h ****                                     const int32_t *out_shift,
 478:C:/Renesas/e2studio_2021_01_workspace_RZA2M_ANPR/ANPR_RZA2M_EBK/src/tensorflow_lite/third_party/cmsis/CMSIS/NN/Include\arm_nnsupportfunctions.h ****                                     const int32_t *out_mult,
 479:C:/Renesas/e2studio_2021_01_workspace_RZA2M_ANPR/ANPR_RZA2M_EBK/src/tensorflow_lite/third_party/cmsis/CMSIS/NN/Include\arm_nnsupportfunctions.h ****                                     const int32_t out_offset,
 480:C:/Renesas/e2studio_2021_01_workspace_RZA2M_ANPR/ANPR_RZA2M_EBK/src/tensorflow_lite/third_party/cmsis/CMSIS/NN/Include\arm_nnsupportfunctions.h ****                                     const int32_t activation_min,
 481:C:/Renesas/e2studio_2021_01_workspace_RZA2M_ANPR/ANPR_RZA2M_EBK/src/tensorflow_lite/third_party/cmsis/CMSIS/NN/Include\arm_nnsupportfunctions.h ****                                     const int32_t activation_max,
 482:C:/Renesas/e2studio_2021_01_workspace_RZA2M_ANPR/ANPR_RZA2M_EBK/src/tensorflow_lite/third_party/cmsis/CMSIS/NN/Include\arm_nnsupportfunctions.h ****                                     const uint16_t row_x_col,
 483:C:/Renesas/e2studio_2021_01_workspace_RZA2M_ANPR/ANPR_RZA2M_EBK/src/tensorflow_lite/third_party/cmsis/CMSIS/NN/Include\arm_nnsupportfunctions.h ****                                     const int32_t *const output_bias,
 484:C:/Renesas/e2studio_2021_01_workspace_RZA2M_ANPR/ANPR_RZA2M_EBK/src/tensorflow_lite/third_party/cmsis/CMSIS/NN/Include\arm_nnsupportfunctions.h ****                                     q7_t *out);
 485:C:/Renesas/e2studio_2021_01_workspace_RZA2M_ANPR/ANPR_RZA2M_EBK/src/tensorflow_lite/third_party/cmsis/CMSIS/NN/Include\arm_nnsupportfunctions.h **** 
 486:C:/Renesas/e2studio_2021_01_workspace_RZA2M_ANPR/ANPR_RZA2M_EBK/src/tensorflow_lite/third_party/cmsis/CMSIS/NN/Include\arm_nnsupportfunctions.h **** /**
 487:C:/Renesas/e2studio_2021_01_workspace_RZA2M_ANPR/ANPR_RZA2M_EBK/src/tensorflow_lite/third_party/cmsis/CMSIS/NN/Include\arm_nnsupportfunctions.h ****   @brief         Read 2 q15 elements and post increment pointer.
 488:C:/Renesas/e2studio_2021_01_workspace_RZA2M_ANPR/ANPR_RZA2M_EBK/src/tensorflow_lite/third_party/cmsis/CMSIS/NN/Include\arm_nnsupportfunctions.h ****   @param[in]     in_q15   Pointer to pointer that holds address of input.
 489:C:/Renesas/e2studio_2021_01_workspace_RZA2M_ANPR/ANPR_RZA2M_EBK/src/tensorflow_lite/third_party/cmsis/CMSIS/NN/Include\arm_nnsupportfunctions.h ****   @return        q31 value
 490:C:/Renesas/e2studio_2021_01_workspace_RZA2M_ANPR/ANPR_RZA2M_EBK/src/tensorflow_lite/third_party/cmsis/CMSIS/NN/Include\arm_nnsupportfunctions.h ****  */
 491:C:/Renesas/e2studio_2021_01_workspace_RZA2M_ANPR/ANPR_RZA2M_EBK/src/tensorflow_lite/third_party/cmsis/CMSIS/NN/Include\arm_nnsupportfunctions.h **** __STATIC_FORCEINLINE q31_t arm_nn_read_q15x2_ia(const q15_t **in_q15)
 492:C:/Renesas/e2studio_2021_01_workspace_RZA2M_ANPR/ANPR_RZA2M_EBK/src/tensorflow_lite/third_party/cmsis/CMSIS/NN/Include\arm_nnsupportfunctions.h **** {
 493:C:/Renesas/e2studio_2021_01_workspace_RZA2M_ANPR/ANPR_RZA2M_EBK/src/tensorflow_lite/third_party/cmsis/CMSIS/NN/Include\arm_nnsupportfunctions.h ****     q31_t val;
 494:C:/Renesas/e2studio_2021_01_workspace_RZA2M_ANPR/ANPR_RZA2M_EBK/src/tensorflow_lite/third_party/cmsis/CMSIS/NN/Include\arm_nnsupportfunctions.h **** 
 495:C:/Renesas/e2studio_2021_01_workspace_RZA2M_ANPR/ANPR_RZA2M_EBK/src/tensorflow_lite/third_party/cmsis/CMSIS/NN/Include\arm_nnsupportfunctions.h ****     memcpy(&val, *in_q15, 4);
 496:C:/Renesas/e2studio_2021_01_workspace_RZA2M_ANPR/ANPR_RZA2M_EBK/src/tensorflow_lite/third_party/cmsis/CMSIS/NN/Include\arm_nnsupportfunctions.h ****     *in_q15 += 2;
 497:C:/Renesas/e2studio_2021_01_workspace_RZA2M_ANPR/ANPR_RZA2M_EBK/src/tensorflow_lite/third_party/cmsis/CMSIS/NN/Include\arm_nnsupportfunctions.h **** 
 498:C:/Renesas/e2studio_2021_01_workspace_RZA2M_ANPR/ANPR_RZA2M_EBK/src/tensorflow_lite/third_party/cmsis/CMSIS/NN/Include\arm_nnsupportfunctions.h ****     return (val);
 499:C:/Renesas/e2studio_2021_01_workspace_RZA2M_ANPR/ANPR_RZA2M_EBK/src/tensorflow_lite/third_party/cmsis/CMSIS/NN/Include\arm_nnsupportfunctions.h **** }
 500:C:/Renesas/e2studio_2021_01_workspace_RZA2M_ANPR/ANPR_RZA2M_EBK/src/tensorflow_lite/third_party/cmsis/CMSIS/NN/Include\arm_nnsupportfunctions.h **** 
 501:C:/Renesas/e2studio_2021_01_workspace_RZA2M_ANPR/ANPR_RZA2M_EBK/src/tensorflow_lite/third_party/cmsis/CMSIS/NN/Include\arm_nnsupportfunctions.h **** /**
 502:C:/Renesas/e2studio_2021_01_workspace_RZA2M_ANPR/ANPR_RZA2M_EBK/src/tensorflow_lite/third_party/cmsis/CMSIS/NN/Include\arm_nnsupportfunctions.h ****   @brief         Read 4 q7 from q7 pointer and post increment pointer.
 503:C:/Renesas/e2studio_2021_01_workspace_RZA2M_ANPR/ANPR_RZA2M_EBK/src/tensorflow_lite/third_party/cmsis/CMSIS/NN/Include\arm_nnsupportfunctions.h ****   @param[in]     in_q7       Pointer to pointer that holds address of input.
 504:C:/Renesas/e2studio_2021_01_workspace_RZA2M_ANPR/ANPR_RZA2M_EBK/src/tensorflow_lite/third_party/cmsis/CMSIS/NN/Include\arm_nnsupportfunctions.h ****   @return        q31 value
 505:C:/Renesas/e2studio_2021_01_workspace_RZA2M_ANPR/ANPR_RZA2M_EBK/src/tensorflow_lite/third_party/cmsis/CMSIS/NN/Include\arm_nnsupportfunctions.h ****  */
 506:C:/Renesas/e2studio_2021_01_workspace_RZA2M_ANPR/ANPR_RZA2M_EBK/src/tensorflow_lite/third_party/cmsis/CMSIS/NN/Include\arm_nnsupportfunctions.h **** __STATIC_FORCEINLINE q31_t arm_nn_read_q7x4_ia(const q7_t **in_q7)
 507:C:/Renesas/e2studio_2021_01_workspace_RZA2M_ANPR/ANPR_RZA2M_EBK/src/tensorflow_lite/third_party/cmsis/CMSIS/NN/Include\arm_nnsupportfunctions.h **** {
 508:C:/Renesas/e2studio_2021_01_workspace_RZA2M_ANPR/ANPR_RZA2M_EBK/src/tensorflow_lite/third_party/cmsis/CMSIS/NN/Include\arm_nnsupportfunctions.h ****     q31_t val;
 509:C:/Renesas/e2studio_2021_01_workspace_RZA2M_ANPR/ANPR_RZA2M_EBK/src/tensorflow_lite/third_party/cmsis/CMSIS/NN/Include\arm_nnsupportfunctions.h ****     memcpy(&val, *in_q7, 4);
 510:C:/Renesas/e2studio_2021_01_workspace_RZA2M_ANPR/ANPR_RZA2M_EBK/src/tensorflow_lite/third_party/cmsis/CMSIS/NN/Include\arm_nnsupportfunctions.h ****     *in_q7 += 4;
 511:C:/Renesas/e2studio_2021_01_workspace_RZA2M_ANPR/ANPR_RZA2M_EBK/src/tensorflow_lite/third_party/cmsis/CMSIS/NN/Include\arm_nnsupportfunctions.h **** 
 512:C:/Renesas/e2studio_2021_01_workspace_RZA2M_ANPR/ANPR_RZA2M_EBK/src/tensorflow_lite/third_party/cmsis/CMSIS/NN/Include\arm_nnsupportfunctions.h ****     return (val);
 513:C:/Renesas/e2studio_2021_01_workspace_RZA2M_ANPR/ANPR_RZA2M_EBK/src/tensorflow_lite/third_party/cmsis/CMSIS/NN/Include\arm_nnsupportfunctions.h **** }
 514:C:/Renesas/e2studio_2021_01_workspace_RZA2M_ANPR/ANPR_RZA2M_EBK/src/tensorflow_lite/third_party/cmsis/CMSIS/NN/Include\arm_nnsupportfunctions.h **** 
 515:C:/Renesas/e2studio_2021_01_workspace_RZA2M_ANPR/ANPR_RZA2M_EBK/src/tensorflow_lite/third_party/cmsis/CMSIS/NN/Include\arm_nnsupportfunctions.h **** /**
 516:C:/Renesas/e2studio_2021_01_workspace_RZA2M_ANPR/ANPR_RZA2M_EBK/src/tensorflow_lite/third_party/cmsis/CMSIS/NN/Include\arm_nnsupportfunctions.h ****   @brief         Read 2 q15 from q15 pointer.
 517:C:/Renesas/e2studio_2021_01_workspace_RZA2M_ANPR/ANPR_RZA2M_EBK/src/tensorflow_lite/third_party/cmsis/CMSIS/NN/Include\arm_nnsupportfunctions.h ****   @param[in]     in_q15   pointer to address of input.
 518:C:/Renesas/e2studio_2021_01_workspace_RZA2M_ANPR/ANPR_RZA2M_EBK/src/tensorflow_lite/third_party/cmsis/CMSIS/NN/Include\arm_nnsupportfunctions.h ****   @return        q31 value
 519:C:/Renesas/e2studio_2021_01_workspace_RZA2M_ANPR/ANPR_RZA2M_EBK/src/tensorflow_lite/third_party/cmsis/CMSIS/NN/Include\arm_nnsupportfunctions.h ****  */
 520:C:/Renesas/e2studio_2021_01_workspace_RZA2M_ANPR/ANPR_RZA2M_EBK/src/tensorflow_lite/third_party/cmsis/CMSIS/NN/Include\arm_nnsupportfunctions.h **** __STATIC_FORCEINLINE q31_t arm_nn_read_q15x2(const q15_t *in_q15)
 521:C:/Renesas/e2studio_2021_01_workspace_RZA2M_ANPR/ANPR_RZA2M_EBK/src/tensorflow_lite/third_party/cmsis/CMSIS/NN/Include\arm_nnsupportfunctions.h **** {
 522:C:/Renesas/e2studio_2021_01_workspace_RZA2M_ANPR/ANPR_RZA2M_EBK/src/tensorflow_lite/third_party/cmsis/CMSIS/NN/Include\arm_nnsupportfunctions.h ****     q31_t val;
 523:C:/Renesas/e2studio_2021_01_workspace_RZA2M_ANPR/ANPR_RZA2M_EBK/src/tensorflow_lite/third_party/cmsis/CMSIS/NN/Include\arm_nnsupportfunctions.h ****     memcpy(&val, in_q15, 4);
 524:C:/Renesas/e2studio_2021_01_workspace_RZA2M_ANPR/ANPR_RZA2M_EBK/src/tensorflow_lite/third_party/cmsis/CMSIS/NN/Include\arm_nnsupportfunctions.h **** 
 525:C:/Renesas/e2studio_2021_01_workspace_RZA2M_ANPR/ANPR_RZA2M_EBK/src/tensorflow_lite/third_party/cmsis/CMSIS/NN/Include\arm_nnsupportfunctions.h ****     return (val);
 526:C:/Renesas/e2studio_2021_01_workspace_RZA2M_ANPR/ANPR_RZA2M_EBK/src/tensorflow_lite/third_party/cmsis/CMSIS/NN/Include\arm_nnsupportfunctions.h **** }
 527:C:/Renesas/e2studio_2021_01_workspace_RZA2M_ANPR/ANPR_RZA2M_EBK/src/tensorflow_lite/third_party/cmsis/CMSIS/NN/Include\arm_nnsupportfunctions.h **** 
 528:C:/Renesas/e2studio_2021_01_workspace_RZA2M_ANPR/ANPR_RZA2M_EBK/src/tensorflow_lite/third_party/cmsis/CMSIS/NN/Include\arm_nnsupportfunctions.h **** /**
 529:C:/Renesas/e2studio_2021_01_workspace_RZA2M_ANPR/ANPR_RZA2M_EBK/src/tensorflow_lite/third_party/cmsis/CMSIS/NN/Include\arm_nnsupportfunctions.h ****   @brief         Read 4 q7 values.
 530:C:/Renesas/e2studio_2021_01_workspace_RZA2M_ANPR/ANPR_RZA2M_EBK/src/tensorflow_lite/third_party/cmsis/CMSIS/NN/Include\arm_nnsupportfunctions.h ****   @param[in]     in_q7       pointer to address of input.
 531:C:/Renesas/e2studio_2021_01_workspace_RZA2M_ANPR/ANPR_RZA2M_EBK/src/tensorflow_lite/third_party/cmsis/CMSIS/NN/Include\arm_nnsupportfunctions.h ****   @return        q31 value
 532:C:/Renesas/e2studio_2021_01_workspace_RZA2M_ANPR/ANPR_RZA2M_EBK/src/tensorflow_lite/third_party/cmsis/CMSIS/NN/Include\arm_nnsupportfunctions.h ****  */
 533:C:/Renesas/e2studio_2021_01_workspace_RZA2M_ANPR/ANPR_RZA2M_EBK/src/tensorflow_lite/third_party/cmsis/CMSIS/NN/Include\arm_nnsupportfunctions.h **** __STATIC_FORCEINLINE q31_t arm_nn_read_q7x4(const q7_t *in_q7)
 534:C:/Renesas/e2studio_2021_01_workspace_RZA2M_ANPR/ANPR_RZA2M_EBK/src/tensorflow_lite/third_party/cmsis/CMSIS/NN/Include\arm_nnsupportfunctions.h **** {
 535:C:/Renesas/e2studio_2021_01_workspace_RZA2M_ANPR/ANPR_RZA2M_EBK/src/tensorflow_lite/third_party/cmsis/CMSIS/NN/Include\arm_nnsupportfunctions.h ****     q31_t val;
 536:C:/Renesas/e2studio_2021_01_workspace_RZA2M_ANPR/ANPR_RZA2M_EBK/src/tensorflow_lite/third_party/cmsis/CMSIS/NN/Include\arm_nnsupportfunctions.h ****     memcpy(&val, in_q7, 4);
 264              		.loc 2 536 0
 265 01f0 0A10A0E1 		mov	r1, r10
 266 01f4 0420A0E3 		mov	r2, #4
 267 01f8 94008DE2 		add	r0, sp, #148
 268              	.LBE43:
 269              	.LBE42:
 270              	.LBB46:
 271              	.LBB47:
 272              		.file 3 "C:/Renesas/e2studio_2021_01_workspace_RZA2M_ANPR/ANPR_RZA2M_EBK/src/tensorflow_lite/third
   1:C:/Renesas/e2studio_2021_01_workspace_RZA2M_ANPR/ANPR_RZA2M_EBK/src/tensorflow_lite/third_party/cmsis/CMSIS/DSP/Include\arm_math_memory.h **** /******************************************************************************
   2:C:/Renesas/e2studio_2021_01_workspace_RZA2M_ANPR/ANPR_RZA2M_EBK/src/tensorflow_lite/third_party/cmsis/CMSIS/DSP/Include\arm_math_memory.h ****  * @file     arm_math_memory.h
   3:C:/Renesas/e2studio_2021_01_workspace_RZA2M_ANPR/ANPR_RZA2M_EBK/src/tensorflow_lite/third_party/cmsis/CMSIS/DSP/Include\arm_math_memory.h ****  * @brief    Public header file for CMSIS DSP Library
   4:C:/Renesas/e2studio_2021_01_workspace_RZA2M_ANPR/ANPR_RZA2M_EBK/src/tensorflow_lite/third_party/cmsis/CMSIS/DSP/Include\arm_math_memory.h ****  * @version  V1.9.0
   5:C:/Renesas/e2studio_2021_01_workspace_RZA2M_ANPR/ANPR_RZA2M_EBK/src/tensorflow_lite/third_party/cmsis/CMSIS/DSP/Include\arm_math_memory.h ****  * @date     17. March 2021
   6:C:/Renesas/e2studio_2021_01_workspace_RZA2M_ANPR/ANPR_RZA2M_EBK/src/tensorflow_lite/third_party/cmsis/CMSIS/DSP/Include\arm_math_memory.h ****  ******************************************************************************/
   7:C:/Renesas/e2studio_2021_01_workspace_RZA2M_ANPR/ANPR_RZA2M_EBK/src/tensorflow_lite/third_party/cmsis/CMSIS/DSP/Include\arm_math_memory.h **** /*
   8:C:/Renesas/e2studio_2021_01_workspace_RZA2M_ANPR/ANPR_RZA2M_EBK/src/tensorflow_lite/third_party/cmsis/CMSIS/DSP/Include\arm_math_memory.h ****  * Copyright (c) 2010-2021 Arm Limited or its affiliates. All rights reserved.
   9:C:/Renesas/e2studio_2021_01_workspace_RZA2M_ANPR/ANPR_RZA2M_EBK/src/tensorflow_lite/third_party/cmsis/CMSIS/DSP/Include\arm_math_memory.h ****  *
  10:C:/Renesas/e2studio_2021_01_workspace_RZA2M_ANPR/ANPR_RZA2M_EBK/src/tensorflow_lite/third_party/cmsis/CMSIS/DSP/Include\arm_math_memory.h ****  * SPDX-License-Identifier: Apache-2.0
  11:C:/Renesas/e2studio_2021_01_workspace_RZA2M_ANPR/ANPR_RZA2M_EBK/src/tensorflow_lite/third_party/cmsis/CMSIS/DSP/Include\arm_math_memory.h ****  *
  12:C:/Renesas/e2studio_2021_01_workspace_RZA2M_ANPR/ANPR_RZA2M_EBK/src/tensorflow_lite/third_party/cmsis/CMSIS/DSP/Include\arm_math_memory.h ****  * Licensed under the Apache License, Version 2.0 (the License); you may
  13:C:/Renesas/e2studio_2021_01_workspace_RZA2M_ANPR/ANPR_RZA2M_EBK/src/tensorflow_lite/third_party/cmsis/CMSIS/DSP/Include\arm_math_memory.h ****  * not use this file except in compliance with the License.
  14:C:/Renesas/e2studio_2021_01_workspace_RZA2M_ANPR/ANPR_RZA2M_EBK/src/tensorflow_lite/third_party/cmsis/CMSIS/DSP/Include\arm_math_memory.h ****  * You may obtain a copy of the License at
  15:C:/Renesas/e2studio_2021_01_workspace_RZA2M_ANPR/ANPR_RZA2M_EBK/src/tensorflow_lite/third_party/cmsis/CMSIS/DSP/Include\arm_math_memory.h ****  *
  16:C:/Renesas/e2studio_2021_01_workspace_RZA2M_ANPR/ANPR_RZA2M_EBK/src/tensorflow_lite/third_party/cmsis/CMSIS/DSP/Include\arm_math_memory.h ****  * www.apache.org/licenses/LICENSE-2.0
  17:C:/Renesas/e2studio_2021_01_workspace_RZA2M_ANPR/ANPR_RZA2M_EBK/src/tensorflow_lite/third_party/cmsis/CMSIS/DSP/Include\arm_math_memory.h ****  *
  18:C:/Renesas/e2studio_2021_01_workspace_RZA2M_ANPR/ANPR_RZA2M_EBK/src/tensorflow_lite/third_party/cmsis/CMSIS/DSP/Include\arm_math_memory.h ****  * Unless required by applicable law or agreed to in writing, software
  19:C:/Renesas/e2studio_2021_01_workspace_RZA2M_ANPR/ANPR_RZA2M_EBK/src/tensorflow_lite/third_party/cmsis/CMSIS/DSP/Include\arm_math_memory.h ****  * distributed under the License is distributed on an AS IS BASIS, WITHOUT
  20:C:/Renesas/e2studio_2021_01_workspace_RZA2M_ANPR/ANPR_RZA2M_EBK/src/tensorflow_lite/third_party/cmsis/CMSIS/DSP/Include\arm_math_memory.h ****  * WARRANTIES OR CONDITIONS OF ANY KIND, either express or implied.
  21:C:/Renesas/e2studio_2021_01_workspace_RZA2M_ANPR/ANPR_RZA2M_EBK/src/tensorflow_lite/third_party/cmsis/CMSIS/DSP/Include\arm_math_memory.h ****  * See the License for the specific language governing permissions and
  22:C:/Renesas/e2studio_2021_01_workspace_RZA2M_ANPR/ANPR_RZA2M_EBK/src/tensorflow_lite/third_party/cmsis/CMSIS/DSP/Include\arm_math_memory.h ****  * limitations under the License.
  23:C:/Renesas/e2studio_2021_01_workspace_RZA2M_ANPR/ANPR_RZA2M_EBK/src/tensorflow_lite/third_party/cmsis/CMSIS/DSP/Include\arm_math_memory.h ****  */
  24:C:/Renesas/e2studio_2021_01_workspace_RZA2M_ANPR/ANPR_RZA2M_EBK/src/tensorflow_lite/third_party/cmsis/CMSIS/DSP/Include\arm_math_memory.h **** 
  25:C:/Renesas/e2studio_2021_01_workspace_RZA2M_ANPR/ANPR_RZA2M_EBK/src/tensorflow_lite/third_party/cmsis/CMSIS/DSP/Include\arm_math_memory.h **** #ifndef _ARM_MATH_MEMORY_H_
  26:C:/Renesas/e2studio_2021_01_workspace_RZA2M_ANPR/ANPR_RZA2M_EBK/src/tensorflow_lite/third_party/cmsis/CMSIS/DSP/Include\arm_math_memory.h **** 
  27:C:/Renesas/e2studio_2021_01_workspace_RZA2M_ANPR/ANPR_RZA2M_EBK/src/tensorflow_lite/third_party/cmsis/CMSIS/DSP/Include\arm_math_memory.h **** #define _ARM_MATH_MEMORY_H_
  28:C:/Renesas/e2studio_2021_01_workspace_RZA2M_ANPR/ANPR_RZA2M_EBK/src/tensorflow_lite/third_party/cmsis/CMSIS/DSP/Include\arm_math_memory.h **** 
  29:C:/Renesas/e2studio_2021_01_workspace_RZA2M_ANPR/ANPR_RZA2M_EBK/src/tensorflow_lite/third_party/cmsis/CMSIS/DSP/Include\arm_math_memory.h **** #include "arm_math_types.h"
  30:C:/Renesas/e2studio_2021_01_workspace_RZA2M_ANPR/ANPR_RZA2M_EBK/src/tensorflow_lite/third_party/cmsis/CMSIS/DSP/Include\arm_math_memory.h **** 
  31:C:/Renesas/e2studio_2021_01_workspace_RZA2M_ANPR/ANPR_RZA2M_EBK/src/tensorflow_lite/third_party/cmsis/CMSIS/DSP/Include\arm_math_memory.h **** 
  32:C:/Renesas/e2studio_2021_01_workspace_RZA2M_ANPR/ANPR_RZA2M_EBK/src/tensorflow_lite/third_party/cmsis/CMSIS/DSP/Include\arm_math_memory.h **** #ifdef   __cplusplus
  33:C:/Renesas/e2studio_2021_01_workspace_RZA2M_ANPR/ANPR_RZA2M_EBK/src/tensorflow_lite/third_party/cmsis/CMSIS/DSP/Include\arm_math_memory.h **** extern "C"
  34:C:/Renesas/e2studio_2021_01_workspace_RZA2M_ANPR/ANPR_RZA2M_EBK/src/tensorflow_lite/third_party/cmsis/CMSIS/DSP/Include\arm_math_memory.h **** {
  35:C:/Renesas/e2studio_2021_01_workspace_RZA2M_ANPR/ANPR_RZA2M_EBK/src/tensorflow_lite/third_party/cmsis/CMSIS/DSP/Include\arm_math_memory.h **** #endif
  36:C:/Renesas/e2studio_2021_01_workspace_RZA2M_ANPR/ANPR_RZA2M_EBK/src/tensorflow_lite/third_party/cmsis/CMSIS/DSP/Include\arm_math_memory.h **** 
  37:C:/Renesas/e2studio_2021_01_workspace_RZA2M_ANPR/ANPR_RZA2M_EBK/src/tensorflow_lite/third_party/cmsis/CMSIS/DSP/Include\arm_math_memory.h **** /**
  38:C:/Renesas/e2studio_2021_01_workspace_RZA2M_ANPR/ANPR_RZA2M_EBK/src/tensorflow_lite/third_party/cmsis/CMSIS/DSP/Include\arm_math_memory.h ****   @brief definition to read/write two 16 bit values.
  39:C:/Renesas/e2studio_2021_01_workspace_RZA2M_ANPR/ANPR_RZA2M_EBK/src/tensorflow_lite/third_party/cmsis/CMSIS/DSP/Include\arm_math_memory.h ****   @deprecated
  40:C:/Renesas/e2studio_2021_01_workspace_RZA2M_ANPR/ANPR_RZA2M_EBK/src/tensorflow_lite/third_party/cmsis/CMSIS/DSP/Include\arm_math_memory.h ****  */
  41:C:/Renesas/e2studio_2021_01_workspace_RZA2M_ANPR/ANPR_RZA2M_EBK/src/tensorflow_lite/third_party/cmsis/CMSIS/DSP/Include\arm_math_memory.h **** #if   defined ( __CC_ARM )
  42:C:/Renesas/e2studio_2021_01_workspace_RZA2M_ANPR/ANPR_RZA2M_EBK/src/tensorflow_lite/third_party/cmsis/CMSIS/DSP/Include\arm_math_memory.h ****   #define __SIMD32_TYPE int32_t __packed
  43:C:/Renesas/e2studio_2021_01_workspace_RZA2M_ANPR/ANPR_RZA2M_EBK/src/tensorflow_lite/third_party/cmsis/CMSIS/DSP/Include\arm_math_memory.h **** #elif defined ( __ARMCC_VERSION ) && ( __ARMCC_VERSION >= 6010050 )
  44:C:/Renesas/e2studio_2021_01_workspace_RZA2M_ANPR/ANPR_RZA2M_EBK/src/tensorflow_lite/third_party/cmsis/CMSIS/DSP/Include\arm_math_memory.h ****   #define __SIMD32_TYPE int32_t
  45:C:/Renesas/e2studio_2021_01_workspace_RZA2M_ANPR/ANPR_RZA2M_EBK/src/tensorflow_lite/third_party/cmsis/CMSIS/DSP/Include\arm_math_memory.h **** #elif defined ( __GNUC__ )
  46:C:/Renesas/e2studio_2021_01_workspace_RZA2M_ANPR/ANPR_RZA2M_EBK/src/tensorflow_lite/third_party/cmsis/CMSIS/DSP/Include\arm_math_memory.h ****   #define __SIMD32_TYPE int32_t
  47:C:/Renesas/e2studio_2021_01_workspace_RZA2M_ANPR/ANPR_RZA2M_EBK/src/tensorflow_lite/third_party/cmsis/CMSIS/DSP/Include\arm_math_memory.h **** #elif defined ( __ICCARM__ )
  48:C:/Renesas/e2studio_2021_01_workspace_RZA2M_ANPR/ANPR_RZA2M_EBK/src/tensorflow_lite/third_party/cmsis/CMSIS/DSP/Include\arm_math_memory.h ****   #define __SIMD32_TYPE int32_t __packed
  49:C:/Renesas/e2studio_2021_01_workspace_RZA2M_ANPR/ANPR_RZA2M_EBK/src/tensorflow_lite/third_party/cmsis/CMSIS/DSP/Include\arm_math_memory.h **** #elif defined ( __TI_ARM__ )
  50:C:/Renesas/e2studio_2021_01_workspace_RZA2M_ANPR/ANPR_RZA2M_EBK/src/tensorflow_lite/third_party/cmsis/CMSIS/DSP/Include\arm_math_memory.h ****   #define __SIMD32_TYPE int32_t
  51:C:/Renesas/e2studio_2021_01_workspace_RZA2M_ANPR/ANPR_RZA2M_EBK/src/tensorflow_lite/third_party/cmsis/CMSIS/DSP/Include\arm_math_memory.h **** #elif defined ( __CSMC__ )
  52:C:/Renesas/e2studio_2021_01_workspace_RZA2M_ANPR/ANPR_RZA2M_EBK/src/tensorflow_lite/third_party/cmsis/CMSIS/DSP/Include\arm_math_memory.h ****   #define __SIMD32_TYPE int32_t
  53:C:/Renesas/e2studio_2021_01_workspace_RZA2M_ANPR/ANPR_RZA2M_EBK/src/tensorflow_lite/third_party/cmsis/CMSIS/DSP/Include\arm_math_memory.h **** #elif defined ( __TASKING__ )
  54:C:/Renesas/e2studio_2021_01_workspace_RZA2M_ANPR/ANPR_RZA2M_EBK/src/tensorflow_lite/third_party/cmsis/CMSIS/DSP/Include\arm_math_memory.h ****   #define __SIMD32_TYPE __un(aligned) int32_t
  55:C:/Renesas/e2studio_2021_01_workspace_RZA2M_ANPR/ANPR_RZA2M_EBK/src/tensorflow_lite/third_party/cmsis/CMSIS/DSP/Include\arm_math_memory.h **** #elif defined(_MSC_VER )
  56:C:/Renesas/e2studio_2021_01_workspace_RZA2M_ANPR/ANPR_RZA2M_EBK/src/tensorflow_lite/third_party/cmsis/CMSIS/DSP/Include\arm_math_memory.h ****   #define __SIMD32_TYPE int32_t
  57:C:/Renesas/e2studio_2021_01_workspace_RZA2M_ANPR/ANPR_RZA2M_EBK/src/tensorflow_lite/third_party/cmsis/CMSIS/DSP/Include\arm_math_memory.h **** #else
  58:C:/Renesas/e2studio_2021_01_workspace_RZA2M_ANPR/ANPR_RZA2M_EBK/src/tensorflow_lite/third_party/cmsis/CMSIS/DSP/Include\arm_math_memory.h ****   #error Unknown compiler
  59:C:/Renesas/e2studio_2021_01_workspace_RZA2M_ANPR/ANPR_RZA2M_EBK/src/tensorflow_lite/third_party/cmsis/CMSIS/DSP/Include\arm_math_memory.h **** #endif
  60:C:/Renesas/e2studio_2021_01_workspace_RZA2M_ANPR/ANPR_RZA2M_EBK/src/tensorflow_lite/third_party/cmsis/CMSIS/DSP/Include\arm_math_memory.h **** 
  61:C:/Renesas/e2studio_2021_01_workspace_RZA2M_ANPR/ANPR_RZA2M_EBK/src/tensorflow_lite/third_party/cmsis/CMSIS/DSP/Include\arm_math_memory.h **** #define __SIMD32(addr)        (*(__SIMD32_TYPE **) & (addr))
  62:C:/Renesas/e2studio_2021_01_workspace_RZA2M_ANPR/ANPR_RZA2M_EBK/src/tensorflow_lite/third_party/cmsis/CMSIS/DSP/Include\arm_math_memory.h **** #define __SIMD32_CONST(addr)  ( (__SIMD32_TYPE * )   (addr))
  63:C:/Renesas/e2studio_2021_01_workspace_RZA2M_ANPR/ANPR_RZA2M_EBK/src/tensorflow_lite/third_party/cmsis/CMSIS/DSP/Include\arm_math_memory.h **** #define _SIMD32_OFFSET(addr)  (*(__SIMD32_TYPE * )   (addr))
  64:C:/Renesas/e2studio_2021_01_workspace_RZA2M_ANPR/ANPR_RZA2M_EBK/src/tensorflow_lite/third_party/cmsis/CMSIS/DSP/Include\arm_math_memory.h **** #define __SIMD64(addr)        (*(      int64_t **) & (addr))
  65:C:/Renesas/e2studio_2021_01_workspace_RZA2M_ANPR/ANPR_RZA2M_EBK/src/tensorflow_lite/third_party/cmsis/CMSIS/DSP/Include\arm_math_memory.h **** 
  66:C:/Renesas/e2studio_2021_01_workspace_RZA2M_ANPR/ANPR_RZA2M_EBK/src/tensorflow_lite/third_party/cmsis/CMSIS/DSP/Include\arm_math_memory.h **** 
  67:C:/Renesas/e2studio_2021_01_workspace_RZA2M_ANPR/ANPR_RZA2M_EBK/src/tensorflow_lite/third_party/cmsis/CMSIS/DSP/Include\arm_math_memory.h **** /* SIMD replacement */
  68:C:/Renesas/e2studio_2021_01_workspace_RZA2M_ANPR/ANPR_RZA2M_EBK/src/tensorflow_lite/third_party/cmsis/CMSIS/DSP/Include\arm_math_memory.h **** 
  69:C:/Renesas/e2studio_2021_01_workspace_RZA2M_ANPR/ANPR_RZA2M_EBK/src/tensorflow_lite/third_party/cmsis/CMSIS/DSP/Include\arm_math_memory.h **** 
  70:C:/Renesas/e2studio_2021_01_workspace_RZA2M_ANPR/ANPR_RZA2M_EBK/src/tensorflow_lite/third_party/cmsis/CMSIS/DSP/Include\arm_math_memory.h **** /**
  71:C:/Renesas/e2studio_2021_01_workspace_RZA2M_ANPR/ANPR_RZA2M_EBK/src/tensorflow_lite/third_party/cmsis/CMSIS/DSP/Include\arm_math_memory.h ****   @brief         Read 2 Q15 from Q15 pointer.
  72:C:/Renesas/e2studio_2021_01_workspace_RZA2M_ANPR/ANPR_RZA2M_EBK/src/tensorflow_lite/third_party/cmsis/CMSIS/DSP/Include\arm_math_memory.h ****   @param[in]     pQ15      points to input value
  73:C:/Renesas/e2studio_2021_01_workspace_RZA2M_ANPR/ANPR_RZA2M_EBK/src/tensorflow_lite/third_party/cmsis/CMSIS/DSP/Include\arm_math_memory.h ****   @return        Q31 value
  74:C:/Renesas/e2studio_2021_01_workspace_RZA2M_ANPR/ANPR_RZA2M_EBK/src/tensorflow_lite/third_party/cmsis/CMSIS/DSP/Include\arm_math_memory.h ****  */
  75:C:/Renesas/e2studio_2021_01_workspace_RZA2M_ANPR/ANPR_RZA2M_EBK/src/tensorflow_lite/third_party/cmsis/CMSIS/DSP/Include\arm_math_memory.h **** __STATIC_FORCEINLINE q31_t read_q15x2 (
  76:C:/Renesas/e2studio_2021_01_workspace_RZA2M_ANPR/ANPR_RZA2M_EBK/src/tensorflow_lite/third_party/cmsis/CMSIS/DSP/Include\arm_math_memory.h ****   q15_t * pQ15)
  77:C:/Renesas/e2studio_2021_01_workspace_RZA2M_ANPR/ANPR_RZA2M_EBK/src/tensorflow_lite/third_party/cmsis/CMSIS/DSP/Include\arm_math_memory.h **** {
  78:C:/Renesas/e2studio_2021_01_workspace_RZA2M_ANPR/ANPR_RZA2M_EBK/src/tensorflow_lite/third_party/cmsis/CMSIS/DSP/Include\arm_math_memory.h ****   q31_t val;
  79:C:/Renesas/e2studio_2021_01_workspace_RZA2M_ANPR/ANPR_RZA2M_EBK/src/tensorflow_lite/third_party/cmsis/CMSIS/DSP/Include\arm_math_memory.h **** 
  80:C:/Renesas/e2studio_2021_01_workspace_RZA2M_ANPR/ANPR_RZA2M_EBK/src/tensorflow_lite/third_party/cmsis/CMSIS/DSP/Include\arm_math_memory.h **** #ifdef __ARM_FEATURE_UNALIGNED
  81:C:/Renesas/e2studio_2021_01_workspace_RZA2M_ANPR/ANPR_RZA2M_EBK/src/tensorflow_lite/third_party/cmsis/CMSIS/DSP/Include\arm_math_memory.h ****   memcpy (&val, pQ15, 4);
  82:C:/Renesas/e2studio_2021_01_workspace_RZA2M_ANPR/ANPR_RZA2M_EBK/src/tensorflow_lite/third_party/cmsis/CMSIS/DSP/Include\arm_math_memory.h **** #else
  83:C:/Renesas/e2studio_2021_01_workspace_RZA2M_ANPR/ANPR_RZA2M_EBK/src/tensorflow_lite/third_party/cmsis/CMSIS/DSP/Include\arm_math_memory.h ****   val = (pQ15[1] << 16) | (pQ15[0] & 0x0FFFF) ;
  84:C:/Renesas/e2studio_2021_01_workspace_RZA2M_ANPR/ANPR_RZA2M_EBK/src/tensorflow_lite/third_party/cmsis/CMSIS/DSP/Include\arm_math_memory.h **** #endif
  85:C:/Renesas/e2studio_2021_01_workspace_RZA2M_ANPR/ANPR_RZA2M_EBK/src/tensorflow_lite/third_party/cmsis/CMSIS/DSP/Include\arm_math_memory.h **** 
  86:C:/Renesas/e2studio_2021_01_workspace_RZA2M_ANPR/ANPR_RZA2M_EBK/src/tensorflow_lite/third_party/cmsis/CMSIS/DSP/Include\arm_math_memory.h ****   return (val);
  87:C:/Renesas/e2studio_2021_01_workspace_RZA2M_ANPR/ANPR_RZA2M_EBK/src/tensorflow_lite/third_party/cmsis/CMSIS/DSP/Include\arm_math_memory.h **** }
  88:C:/Renesas/e2studio_2021_01_workspace_RZA2M_ANPR/ANPR_RZA2M_EBK/src/tensorflow_lite/third_party/cmsis/CMSIS/DSP/Include\arm_math_memory.h **** 
  89:C:/Renesas/e2studio_2021_01_workspace_RZA2M_ANPR/ANPR_RZA2M_EBK/src/tensorflow_lite/third_party/cmsis/CMSIS/DSP/Include\arm_math_memory.h **** /**
  90:C:/Renesas/e2studio_2021_01_workspace_RZA2M_ANPR/ANPR_RZA2M_EBK/src/tensorflow_lite/third_party/cmsis/CMSIS/DSP/Include\arm_math_memory.h ****   @brief         Read 2 Q15 from Q15 pointer and increment pointer afterwards.
  91:C:/Renesas/e2studio_2021_01_workspace_RZA2M_ANPR/ANPR_RZA2M_EBK/src/tensorflow_lite/third_party/cmsis/CMSIS/DSP/Include\arm_math_memory.h ****   @param[in]     pQ15      points to input value
  92:C:/Renesas/e2studio_2021_01_workspace_RZA2M_ANPR/ANPR_RZA2M_EBK/src/tensorflow_lite/third_party/cmsis/CMSIS/DSP/Include\arm_math_memory.h ****   @return        Q31 value
  93:C:/Renesas/e2studio_2021_01_workspace_RZA2M_ANPR/ANPR_RZA2M_EBK/src/tensorflow_lite/third_party/cmsis/CMSIS/DSP/Include\arm_math_memory.h ****  */
  94:C:/Renesas/e2studio_2021_01_workspace_RZA2M_ANPR/ANPR_RZA2M_EBK/src/tensorflow_lite/third_party/cmsis/CMSIS/DSP/Include\arm_math_memory.h **** __STATIC_FORCEINLINE q31_t read_q15x2_ia (
  95:C:/Renesas/e2studio_2021_01_workspace_RZA2M_ANPR/ANPR_RZA2M_EBK/src/tensorflow_lite/third_party/cmsis/CMSIS/DSP/Include\arm_math_memory.h ****   q15_t ** pQ15)
  96:C:/Renesas/e2studio_2021_01_workspace_RZA2M_ANPR/ANPR_RZA2M_EBK/src/tensorflow_lite/third_party/cmsis/CMSIS/DSP/Include\arm_math_memory.h **** {
  97:C:/Renesas/e2studio_2021_01_workspace_RZA2M_ANPR/ANPR_RZA2M_EBK/src/tensorflow_lite/third_party/cmsis/CMSIS/DSP/Include\arm_math_memory.h ****   q31_t val;
  98:C:/Renesas/e2studio_2021_01_workspace_RZA2M_ANPR/ANPR_RZA2M_EBK/src/tensorflow_lite/third_party/cmsis/CMSIS/DSP/Include\arm_math_memory.h **** 
  99:C:/Renesas/e2studio_2021_01_workspace_RZA2M_ANPR/ANPR_RZA2M_EBK/src/tensorflow_lite/third_party/cmsis/CMSIS/DSP/Include\arm_math_memory.h **** #ifdef __ARM_FEATURE_UNALIGNED
 100:C:/Renesas/e2studio_2021_01_workspace_RZA2M_ANPR/ANPR_RZA2M_EBK/src/tensorflow_lite/third_party/cmsis/CMSIS/DSP/Include\arm_math_memory.h ****   memcpy (&val, *pQ15, 4);
 101:C:/Renesas/e2studio_2021_01_workspace_RZA2M_ANPR/ANPR_RZA2M_EBK/src/tensorflow_lite/third_party/cmsis/CMSIS/DSP/Include\arm_math_memory.h **** #else
 102:C:/Renesas/e2studio_2021_01_workspace_RZA2M_ANPR/ANPR_RZA2M_EBK/src/tensorflow_lite/third_party/cmsis/CMSIS/DSP/Include\arm_math_memory.h ****   val = ((*pQ15)[1] << 16) | ((*pQ15)[0] & 0x0FFFF);
 103:C:/Renesas/e2studio_2021_01_workspace_RZA2M_ANPR/ANPR_RZA2M_EBK/src/tensorflow_lite/third_party/cmsis/CMSIS/DSP/Include\arm_math_memory.h **** #endif
 104:C:/Renesas/e2studio_2021_01_workspace_RZA2M_ANPR/ANPR_RZA2M_EBK/src/tensorflow_lite/third_party/cmsis/CMSIS/DSP/Include\arm_math_memory.h **** 
 105:C:/Renesas/e2studio_2021_01_workspace_RZA2M_ANPR/ANPR_RZA2M_EBK/src/tensorflow_lite/third_party/cmsis/CMSIS/DSP/Include\arm_math_memory.h ****  *pQ15 += 2;
 106:C:/Renesas/e2studio_2021_01_workspace_RZA2M_ANPR/ANPR_RZA2M_EBK/src/tensorflow_lite/third_party/cmsis/CMSIS/DSP/Include\arm_math_memory.h ****  return (val);
 107:C:/Renesas/e2studio_2021_01_workspace_RZA2M_ANPR/ANPR_RZA2M_EBK/src/tensorflow_lite/third_party/cmsis/CMSIS/DSP/Include\arm_math_memory.h **** }
 108:C:/Renesas/e2studio_2021_01_workspace_RZA2M_ANPR/ANPR_RZA2M_EBK/src/tensorflow_lite/third_party/cmsis/CMSIS/DSP/Include\arm_math_memory.h **** 
 109:C:/Renesas/e2studio_2021_01_workspace_RZA2M_ANPR/ANPR_RZA2M_EBK/src/tensorflow_lite/third_party/cmsis/CMSIS/DSP/Include\arm_math_memory.h **** /**
 110:C:/Renesas/e2studio_2021_01_workspace_RZA2M_ANPR/ANPR_RZA2M_EBK/src/tensorflow_lite/third_party/cmsis/CMSIS/DSP/Include\arm_math_memory.h ****   @brief         Read 2 Q15 from Q15 pointer and decrement pointer afterwards.
 111:C:/Renesas/e2studio_2021_01_workspace_RZA2M_ANPR/ANPR_RZA2M_EBK/src/tensorflow_lite/third_party/cmsis/CMSIS/DSP/Include\arm_math_memory.h ****   @param[in]     pQ15      points to input value
 112:C:/Renesas/e2studio_2021_01_workspace_RZA2M_ANPR/ANPR_RZA2M_EBK/src/tensorflow_lite/third_party/cmsis/CMSIS/DSP/Include\arm_math_memory.h ****   @return        Q31 value
 113:C:/Renesas/e2studio_2021_01_workspace_RZA2M_ANPR/ANPR_RZA2M_EBK/src/tensorflow_lite/third_party/cmsis/CMSIS/DSP/Include\arm_math_memory.h ****  */
 114:C:/Renesas/e2studio_2021_01_workspace_RZA2M_ANPR/ANPR_RZA2M_EBK/src/tensorflow_lite/third_party/cmsis/CMSIS/DSP/Include\arm_math_memory.h **** __STATIC_FORCEINLINE q31_t read_q15x2_da (
 115:C:/Renesas/e2studio_2021_01_workspace_RZA2M_ANPR/ANPR_RZA2M_EBK/src/tensorflow_lite/third_party/cmsis/CMSIS/DSP/Include\arm_math_memory.h ****   q15_t ** pQ15)
 116:C:/Renesas/e2studio_2021_01_workspace_RZA2M_ANPR/ANPR_RZA2M_EBK/src/tensorflow_lite/third_party/cmsis/CMSIS/DSP/Include\arm_math_memory.h **** {
 117:C:/Renesas/e2studio_2021_01_workspace_RZA2M_ANPR/ANPR_RZA2M_EBK/src/tensorflow_lite/third_party/cmsis/CMSIS/DSP/Include\arm_math_memory.h ****   q31_t val;
 118:C:/Renesas/e2studio_2021_01_workspace_RZA2M_ANPR/ANPR_RZA2M_EBK/src/tensorflow_lite/third_party/cmsis/CMSIS/DSP/Include\arm_math_memory.h **** 
 119:C:/Renesas/e2studio_2021_01_workspace_RZA2M_ANPR/ANPR_RZA2M_EBK/src/tensorflow_lite/third_party/cmsis/CMSIS/DSP/Include\arm_math_memory.h **** #ifdef __ARM_FEATURE_UNALIGNED
 120:C:/Renesas/e2studio_2021_01_workspace_RZA2M_ANPR/ANPR_RZA2M_EBK/src/tensorflow_lite/third_party/cmsis/CMSIS/DSP/Include\arm_math_memory.h ****   memcpy (&val, *pQ15, 4);
 121:C:/Renesas/e2studio_2021_01_workspace_RZA2M_ANPR/ANPR_RZA2M_EBK/src/tensorflow_lite/third_party/cmsis/CMSIS/DSP/Include\arm_math_memory.h **** #else
 122:C:/Renesas/e2studio_2021_01_workspace_RZA2M_ANPR/ANPR_RZA2M_EBK/src/tensorflow_lite/third_party/cmsis/CMSIS/DSP/Include\arm_math_memory.h ****   val = ((*pQ15)[1] << 16) | ((*pQ15)[0] & 0x0FFFF);
 123:C:/Renesas/e2studio_2021_01_workspace_RZA2M_ANPR/ANPR_RZA2M_EBK/src/tensorflow_lite/third_party/cmsis/CMSIS/DSP/Include\arm_math_memory.h **** #endif
 124:C:/Renesas/e2studio_2021_01_workspace_RZA2M_ANPR/ANPR_RZA2M_EBK/src/tensorflow_lite/third_party/cmsis/CMSIS/DSP/Include\arm_math_memory.h **** 
 125:C:/Renesas/e2studio_2021_01_workspace_RZA2M_ANPR/ANPR_RZA2M_EBK/src/tensorflow_lite/third_party/cmsis/CMSIS/DSP/Include\arm_math_memory.h ****   *pQ15 -= 2;
 126:C:/Renesas/e2studio_2021_01_workspace_RZA2M_ANPR/ANPR_RZA2M_EBK/src/tensorflow_lite/third_party/cmsis/CMSIS/DSP/Include\arm_math_memory.h ****   return (val);
 127:C:/Renesas/e2studio_2021_01_workspace_RZA2M_ANPR/ANPR_RZA2M_EBK/src/tensorflow_lite/third_party/cmsis/CMSIS/DSP/Include\arm_math_memory.h **** }
 128:C:/Renesas/e2studio_2021_01_workspace_RZA2M_ANPR/ANPR_RZA2M_EBK/src/tensorflow_lite/third_party/cmsis/CMSIS/DSP/Include\arm_math_memory.h **** 
 129:C:/Renesas/e2studio_2021_01_workspace_RZA2M_ANPR/ANPR_RZA2M_EBK/src/tensorflow_lite/third_party/cmsis/CMSIS/DSP/Include\arm_math_memory.h **** /**
 130:C:/Renesas/e2studio_2021_01_workspace_RZA2M_ANPR/ANPR_RZA2M_EBK/src/tensorflow_lite/third_party/cmsis/CMSIS/DSP/Include\arm_math_memory.h ****   @brief         Write 2 Q15 to Q15 pointer and increment pointer afterwards.
 131:C:/Renesas/e2studio_2021_01_workspace_RZA2M_ANPR/ANPR_RZA2M_EBK/src/tensorflow_lite/third_party/cmsis/CMSIS/DSP/Include\arm_math_memory.h ****   @param[in]     pQ15      points to input value
 132:C:/Renesas/e2studio_2021_01_workspace_RZA2M_ANPR/ANPR_RZA2M_EBK/src/tensorflow_lite/third_party/cmsis/CMSIS/DSP/Include\arm_math_memory.h ****   @param[in]     value     Q31 value
 133:C:/Renesas/e2studio_2021_01_workspace_RZA2M_ANPR/ANPR_RZA2M_EBK/src/tensorflow_lite/third_party/cmsis/CMSIS/DSP/Include\arm_math_memory.h ****   @return        none
 134:C:/Renesas/e2studio_2021_01_workspace_RZA2M_ANPR/ANPR_RZA2M_EBK/src/tensorflow_lite/third_party/cmsis/CMSIS/DSP/Include\arm_math_memory.h ****  */
 135:C:/Renesas/e2studio_2021_01_workspace_RZA2M_ANPR/ANPR_RZA2M_EBK/src/tensorflow_lite/third_party/cmsis/CMSIS/DSP/Include\arm_math_memory.h **** __STATIC_FORCEINLINE void write_q15x2_ia (
 136:C:/Renesas/e2studio_2021_01_workspace_RZA2M_ANPR/ANPR_RZA2M_EBK/src/tensorflow_lite/third_party/cmsis/CMSIS/DSP/Include\arm_math_memory.h ****   q15_t ** pQ15,
 137:C:/Renesas/e2studio_2021_01_workspace_RZA2M_ANPR/ANPR_RZA2M_EBK/src/tensorflow_lite/third_party/cmsis/CMSIS/DSP/Include\arm_math_memory.h ****   q31_t    value)
 138:C:/Renesas/e2studio_2021_01_workspace_RZA2M_ANPR/ANPR_RZA2M_EBK/src/tensorflow_lite/third_party/cmsis/CMSIS/DSP/Include\arm_math_memory.h **** {
 139:C:/Renesas/e2studio_2021_01_workspace_RZA2M_ANPR/ANPR_RZA2M_EBK/src/tensorflow_lite/third_party/cmsis/CMSIS/DSP/Include\arm_math_memory.h ****   q31_t val = value;
 140:C:/Renesas/e2studio_2021_01_workspace_RZA2M_ANPR/ANPR_RZA2M_EBK/src/tensorflow_lite/third_party/cmsis/CMSIS/DSP/Include\arm_math_memory.h **** #ifdef __ARM_FEATURE_UNALIGNED
 141:C:/Renesas/e2studio_2021_01_workspace_RZA2M_ANPR/ANPR_RZA2M_EBK/src/tensorflow_lite/third_party/cmsis/CMSIS/DSP/Include\arm_math_memory.h ****   memcpy (*pQ15, &val, 4);
 142:C:/Renesas/e2studio_2021_01_workspace_RZA2M_ANPR/ANPR_RZA2M_EBK/src/tensorflow_lite/third_party/cmsis/CMSIS/DSP/Include\arm_math_memory.h **** #else
 143:C:/Renesas/e2studio_2021_01_workspace_RZA2M_ANPR/ANPR_RZA2M_EBK/src/tensorflow_lite/third_party/cmsis/CMSIS/DSP/Include\arm_math_memory.h ****   (*pQ15)[0] = (val & 0x0FFFF);
 144:C:/Renesas/e2studio_2021_01_workspace_RZA2M_ANPR/ANPR_RZA2M_EBK/src/tensorflow_lite/third_party/cmsis/CMSIS/DSP/Include\arm_math_memory.h ****   (*pQ15)[1] = (val >> 16) & 0x0FFFF;
 145:C:/Renesas/e2studio_2021_01_workspace_RZA2M_ANPR/ANPR_RZA2M_EBK/src/tensorflow_lite/third_party/cmsis/CMSIS/DSP/Include\arm_math_memory.h **** #endif
 146:C:/Renesas/e2studio_2021_01_workspace_RZA2M_ANPR/ANPR_RZA2M_EBK/src/tensorflow_lite/third_party/cmsis/CMSIS/DSP/Include\arm_math_memory.h **** 
 147:C:/Renesas/e2studio_2021_01_workspace_RZA2M_ANPR/ANPR_RZA2M_EBK/src/tensorflow_lite/third_party/cmsis/CMSIS/DSP/Include\arm_math_memory.h ****  *pQ15 += 2;
 148:C:/Renesas/e2studio_2021_01_workspace_RZA2M_ANPR/ANPR_RZA2M_EBK/src/tensorflow_lite/third_party/cmsis/CMSIS/DSP/Include\arm_math_memory.h **** }
 149:C:/Renesas/e2studio_2021_01_workspace_RZA2M_ANPR/ANPR_RZA2M_EBK/src/tensorflow_lite/third_party/cmsis/CMSIS/DSP/Include\arm_math_memory.h **** 
 150:C:/Renesas/e2studio_2021_01_workspace_RZA2M_ANPR/ANPR_RZA2M_EBK/src/tensorflow_lite/third_party/cmsis/CMSIS/DSP/Include\arm_math_memory.h **** /**
 151:C:/Renesas/e2studio_2021_01_workspace_RZA2M_ANPR/ANPR_RZA2M_EBK/src/tensorflow_lite/third_party/cmsis/CMSIS/DSP/Include\arm_math_memory.h ****   @brief         Write 2 Q15 to Q15 pointer.
 152:C:/Renesas/e2studio_2021_01_workspace_RZA2M_ANPR/ANPR_RZA2M_EBK/src/tensorflow_lite/third_party/cmsis/CMSIS/DSP/Include\arm_math_memory.h ****   @param[in]     pQ15      points to input value
 153:C:/Renesas/e2studio_2021_01_workspace_RZA2M_ANPR/ANPR_RZA2M_EBK/src/tensorflow_lite/third_party/cmsis/CMSIS/DSP/Include\arm_math_memory.h ****   @param[in]     value     Q31 value
 154:C:/Renesas/e2studio_2021_01_workspace_RZA2M_ANPR/ANPR_RZA2M_EBK/src/tensorflow_lite/third_party/cmsis/CMSIS/DSP/Include\arm_math_memory.h ****   @return        none
 155:C:/Renesas/e2studio_2021_01_workspace_RZA2M_ANPR/ANPR_RZA2M_EBK/src/tensorflow_lite/third_party/cmsis/CMSIS/DSP/Include\arm_math_memory.h ****  */
 156:C:/Renesas/e2studio_2021_01_workspace_RZA2M_ANPR/ANPR_RZA2M_EBK/src/tensorflow_lite/third_party/cmsis/CMSIS/DSP/Include\arm_math_memory.h **** __STATIC_FORCEINLINE void write_q15x2 (
 157:C:/Renesas/e2studio_2021_01_workspace_RZA2M_ANPR/ANPR_RZA2M_EBK/src/tensorflow_lite/third_party/cmsis/CMSIS/DSP/Include\arm_math_memory.h ****   q15_t * pQ15,
 158:C:/Renesas/e2studio_2021_01_workspace_RZA2M_ANPR/ANPR_RZA2M_EBK/src/tensorflow_lite/third_party/cmsis/CMSIS/DSP/Include\arm_math_memory.h ****   q31_t   value)
 159:C:/Renesas/e2studio_2021_01_workspace_RZA2M_ANPR/ANPR_RZA2M_EBK/src/tensorflow_lite/third_party/cmsis/CMSIS/DSP/Include\arm_math_memory.h **** {
 160:C:/Renesas/e2studio_2021_01_workspace_RZA2M_ANPR/ANPR_RZA2M_EBK/src/tensorflow_lite/third_party/cmsis/CMSIS/DSP/Include\arm_math_memory.h ****   q31_t val = value;
 161:C:/Renesas/e2studio_2021_01_workspace_RZA2M_ANPR/ANPR_RZA2M_EBK/src/tensorflow_lite/third_party/cmsis/CMSIS/DSP/Include\arm_math_memory.h **** 
 162:C:/Renesas/e2studio_2021_01_workspace_RZA2M_ANPR/ANPR_RZA2M_EBK/src/tensorflow_lite/third_party/cmsis/CMSIS/DSP/Include\arm_math_memory.h **** #ifdef __ARM_FEATURE_UNALIGNED
 163:C:/Renesas/e2studio_2021_01_workspace_RZA2M_ANPR/ANPR_RZA2M_EBK/src/tensorflow_lite/third_party/cmsis/CMSIS/DSP/Include\arm_math_memory.h ****   memcpy (pQ15, &val, 4);
 164:C:/Renesas/e2studio_2021_01_workspace_RZA2M_ANPR/ANPR_RZA2M_EBK/src/tensorflow_lite/third_party/cmsis/CMSIS/DSP/Include\arm_math_memory.h **** #else
 165:C:/Renesas/e2studio_2021_01_workspace_RZA2M_ANPR/ANPR_RZA2M_EBK/src/tensorflow_lite/third_party/cmsis/CMSIS/DSP/Include\arm_math_memory.h ****   pQ15[0] = val & 0x0FFFF;
 166:C:/Renesas/e2studio_2021_01_workspace_RZA2M_ANPR/ANPR_RZA2M_EBK/src/tensorflow_lite/third_party/cmsis/CMSIS/DSP/Include\arm_math_memory.h ****   pQ15[1] = val >> 16;
 167:C:/Renesas/e2studio_2021_01_workspace_RZA2M_ANPR/ANPR_RZA2M_EBK/src/tensorflow_lite/third_party/cmsis/CMSIS/DSP/Include\arm_math_memory.h **** #endif
 168:C:/Renesas/e2studio_2021_01_workspace_RZA2M_ANPR/ANPR_RZA2M_EBK/src/tensorflow_lite/third_party/cmsis/CMSIS/DSP/Include\arm_math_memory.h **** }
 169:C:/Renesas/e2studio_2021_01_workspace_RZA2M_ANPR/ANPR_RZA2M_EBK/src/tensorflow_lite/third_party/cmsis/CMSIS/DSP/Include\arm_math_memory.h **** 
 170:C:/Renesas/e2studio_2021_01_workspace_RZA2M_ANPR/ANPR_RZA2M_EBK/src/tensorflow_lite/third_party/cmsis/CMSIS/DSP/Include\arm_math_memory.h **** 
 171:C:/Renesas/e2studio_2021_01_workspace_RZA2M_ANPR/ANPR_RZA2M_EBK/src/tensorflow_lite/third_party/cmsis/CMSIS/DSP/Include\arm_math_memory.h **** /**
 172:C:/Renesas/e2studio_2021_01_workspace_RZA2M_ANPR/ANPR_RZA2M_EBK/src/tensorflow_lite/third_party/cmsis/CMSIS/DSP/Include\arm_math_memory.h ****   @brief         Read 4 Q7 from Q7 pointer and increment pointer afterwards.
 173:C:/Renesas/e2studio_2021_01_workspace_RZA2M_ANPR/ANPR_RZA2M_EBK/src/tensorflow_lite/third_party/cmsis/CMSIS/DSP/Include\arm_math_memory.h ****   @param[in]     pQ7       points to input value
 174:C:/Renesas/e2studio_2021_01_workspace_RZA2M_ANPR/ANPR_RZA2M_EBK/src/tensorflow_lite/third_party/cmsis/CMSIS/DSP/Include\arm_math_memory.h ****   @return        Q31 value
 175:C:/Renesas/e2studio_2021_01_workspace_RZA2M_ANPR/ANPR_RZA2M_EBK/src/tensorflow_lite/third_party/cmsis/CMSIS/DSP/Include\arm_math_memory.h ****  */
 176:C:/Renesas/e2studio_2021_01_workspace_RZA2M_ANPR/ANPR_RZA2M_EBK/src/tensorflow_lite/third_party/cmsis/CMSIS/DSP/Include\arm_math_memory.h **** __STATIC_FORCEINLINE q31_t read_q7x4_ia (
 177:C:/Renesas/e2studio_2021_01_workspace_RZA2M_ANPR/ANPR_RZA2M_EBK/src/tensorflow_lite/third_party/cmsis/CMSIS/DSP/Include\arm_math_memory.h ****   q7_t ** pQ7)
 178:C:/Renesas/e2studio_2021_01_workspace_RZA2M_ANPR/ANPR_RZA2M_EBK/src/tensorflow_lite/third_party/cmsis/CMSIS/DSP/Include\arm_math_memory.h **** {
 179:C:/Renesas/e2studio_2021_01_workspace_RZA2M_ANPR/ANPR_RZA2M_EBK/src/tensorflow_lite/third_party/cmsis/CMSIS/DSP/Include\arm_math_memory.h ****   q31_t val;
 180:C:/Renesas/e2studio_2021_01_workspace_RZA2M_ANPR/ANPR_RZA2M_EBK/src/tensorflow_lite/third_party/cmsis/CMSIS/DSP/Include\arm_math_memory.h **** 
 181:C:/Renesas/e2studio_2021_01_workspace_RZA2M_ANPR/ANPR_RZA2M_EBK/src/tensorflow_lite/third_party/cmsis/CMSIS/DSP/Include\arm_math_memory.h **** 
 182:C:/Renesas/e2studio_2021_01_workspace_RZA2M_ANPR/ANPR_RZA2M_EBK/src/tensorflow_lite/third_party/cmsis/CMSIS/DSP/Include\arm_math_memory.h **** #ifdef __ARM_FEATURE_UNALIGNED
 183:C:/Renesas/e2studio_2021_01_workspace_RZA2M_ANPR/ANPR_RZA2M_EBK/src/tensorflow_lite/third_party/cmsis/CMSIS/DSP/Include\arm_math_memory.h ****   memcpy (&val, *pQ7, 4);
 184:C:/Renesas/e2studio_2021_01_workspace_RZA2M_ANPR/ANPR_RZA2M_EBK/src/tensorflow_lite/third_party/cmsis/CMSIS/DSP/Include\arm_math_memory.h **** #else
 185:C:/Renesas/e2studio_2021_01_workspace_RZA2M_ANPR/ANPR_RZA2M_EBK/src/tensorflow_lite/third_party/cmsis/CMSIS/DSP/Include\arm_math_memory.h ****   val =(((*pQ7)[3] & 0x0FF) << 24)  | (((*pQ7)[2] & 0x0FF) << 16)  | (((*pQ7)[1] & 0x0FF) << 8)  | 
 186:C:/Renesas/e2studio_2021_01_workspace_RZA2M_ANPR/ANPR_RZA2M_EBK/src/tensorflow_lite/third_party/cmsis/CMSIS/DSP/Include\arm_math_memory.h **** #endif 
 187:C:/Renesas/e2studio_2021_01_workspace_RZA2M_ANPR/ANPR_RZA2M_EBK/src/tensorflow_lite/third_party/cmsis/CMSIS/DSP/Include\arm_math_memory.h **** 
 188:C:/Renesas/e2studio_2021_01_workspace_RZA2M_ANPR/ANPR_RZA2M_EBK/src/tensorflow_lite/third_party/cmsis/CMSIS/DSP/Include\arm_math_memory.h ****   *pQ7 += 4;
 189:C:/Renesas/e2studio_2021_01_workspace_RZA2M_ANPR/ANPR_RZA2M_EBK/src/tensorflow_lite/third_party/cmsis/CMSIS/DSP/Include\arm_math_memory.h **** 
 190:C:/Renesas/e2studio_2021_01_workspace_RZA2M_ANPR/ANPR_RZA2M_EBK/src/tensorflow_lite/third_party/cmsis/CMSIS/DSP/Include\arm_math_memory.h ****   return (val);
 191:C:/Renesas/e2studio_2021_01_workspace_RZA2M_ANPR/ANPR_RZA2M_EBK/src/tensorflow_lite/third_party/cmsis/CMSIS/DSP/Include\arm_math_memory.h **** }
 192:C:/Renesas/e2studio_2021_01_workspace_RZA2M_ANPR/ANPR_RZA2M_EBK/src/tensorflow_lite/third_party/cmsis/CMSIS/DSP/Include\arm_math_memory.h **** 
 193:C:/Renesas/e2studio_2021_01_workspace_RZA2M_ANPR/ANPR_RZA2M_EBK/src/tensorflow_lite/third_party/cmsis/CMSIS/DSP/Include\arm_math_memory.h **** /**
 194:C:/Renesas/e2studio_2021_01_workspace_RZA2M_ANPR/ANPR_RZA2M_EBK/src/tensorflow_lite/third_party/cmsis/CMSIS/DSP/Include\arm_math_memory.h ****   @brief         Read 4 Q7 from Q7 pointer and decrement pointer afterwards.
 195:C:/Renesas/e2studio_2021_01_workspace_RZA2M_ANPR/ANPR_RZA2M_EBK/src/tensorflow_lite/third_party/cmsis/CMSIS/DSP/Include\arm_math_memory.h ****   @param[in]     pQ7       points to input value
 196:C:/Renesas/e2studio_2021_01_workspace_RZA2M_ANPR/ANPR_RZA2M_EBK/src/tensorflow_lite/third_party/cmsis/CMSIS/DSP/Include\arm_math_memory.h ****   @return        Q31 value
 197:C:/Renesas/e2studio_2021_01_workspace_RZA2M_ANPR/ANPR_RZA2M_EBK/src/tensorflow_lite/third_party/cmsis/CMSIS/DSP/Include\arm_math_memory.h ****  */
 198:C:/Renesas/e2studio_2021_01_workspace_RZA2M_ANPR/ANPR_RZA2M_EBK/src/tensorflow_lite/third_party/cmsis/CMSIS/DSP/Include\arm_math_memory.h **** __STATIC_FORCEINLINE q31_t read_q7x4_da (
 199:C:/Renesas/e2studio_2021_01_workspace_RZA2M_ANPR/ANPR_RZA2M_EBK/src/tensorflow_lite/third_party/cmsis/CMSIS/DSP/Include\arm_math_memory.h ****   q7_t ** pQ7)
 200:C:/Renesas/e2studio_2021_01_workspace_RZA2M_ANPR/ANPR_RZA2M_EBK/src/tensorflow_lite/third_party/cmsis/CMSIS/DSP/Include\arm_math_memory.h **** {
 201:C:/Renesas/e2studio_2021_01_workspace_RZA2M_ANPR/ANPR_RZA2M_EBK/src/tensorflow_lite/third_party/cmsis/CMSIS/DSP/Include\arm_math_memory.h ****   q31_t val;
 202:C:/Renesas/e2studio_2021_01_workspace_RZA2M_ANPR/ANPR_RZA2M_EBK/src/tensorflow_lite/third_party/cmsis/CMSIS/DSP/Include\arm_math_memory.h **** #ifdef __ARM_FEATURE_UNALIGNED
 203:C:/Renesas/e2studio_2021_01_workspace_RZA2M_ANPR/ANPR_RZA2M_EBK/src/tensorflow_lite/third_party/cmsis/CMSIS/DSP/Include\arm_math_memory.h ****   memcpy (&val, *pQ7, 4);
 204:C:/Renesas/e2studio_2021_01_workspace_RZA2M_ANPR/ANPR_RZA2M_EBK/src/tensorflow_lite/third_party/cmsis/CMSIS/DSP/Include\arm_math_memory.h **** #else
 205:C:/Renesas/e2studio_2021_01_workspace_RZA2M_ANPR/ANPR_RZA2M_EBK/src/tensorflow_lite/third_party/cmsis/CMSIS/DSP/Include\arm_math_memory.h ****   val = ((((*pQ7)[3]) & 0x0FF) << 24) | ((((*pQ7)[2]) & 0x0FF) << 16)   | ((((*pQ7)[1]) & 0x0FF) <<
 206:C:/Renesas/e2studio_2021_01_workspace_RZA2M_ANPR/ANPR_RZA2M_EBK/src/tensorflow_lite/third_party/cmsis/CMSIS/DSP/Include\arm_math_memory.h **** #endif 
 207:C:/Renesas/e2studio_2021_01_workspace_RZA2M_ANPR/ANPR_RZA2M_EBK/src/tensorflow_lite/third_party/cmsis/CMSIS/DSP/Include\arm_math_memory.h ****   *pQ7 -= 4;
 208:C:/Renesas/e2studio_2021_01_workspace_RZA2M_ANPR/ANPR_RZA2M_EBK/src/tensorflow_lite/third_party/cmsis/CMSIS/DSP/Include\arm_math_memory.h **** 
 209:C:/Renesas/e2studio_2021_01_workspace_RZA2M_ANPR/ANPR_RZA2M_EBK/src/tensorflow_lite/third_party/cmsis/CMSIS/DSP/Include\arm_math_memory.h ****   return (val);
 210:C:/Renesas/e2studio_2021_01_workspace_RZA2M_ANPR/ANPR_RZA2M_EBK/src/tensorflow_lite/third_party/cmsis/CMSIS/DSP/Include\arm_math_memory.h **** }
 211:C:/Renesas/e2studio_2021_01_workspace_RZA2M_ANPR/ANPR_RZA2M_EBK/src/tensorflow_lite/third_party/cmsis/CMSIS/DSP/Include\arm_math_memory.h **** 
 212:C:/Renesas/e2studio_2021_01_workspace_RZA2M_ANPR/ANPR_RZA2M_EBK/src/tensorflow_lite/third_party/cmsis/CMSIS/DSP/Include\arm_math_memory.h **** /**
 213:C:/Renesas/e2studio_2021_01_workspace_RZA2M_ANPR/ANPR_RZA2M_EBK/src/tensorflow_lite/third_party/cmsis/CMSIS/DSP/Include\arm_math_memory.h ****   @brief         Write 4 Q7 to Q7 pointer and increment pointer afterwards.
 214:C:/Renesas/e2studio_2021_01_workspace_RZA2M_ANPR/ANPR_RZA2M_EBK/src/tensorflow_lite/third_party/cmsis/CMSIS/DSP/Include\arm_math_memory.h ****   @param[in]     pQ7       points to input value
 215:C:/Renesas/e2studio_2021_01_workspace_RZA2M_ANPR/ANPR_RZA2M_EBK/src/tensorflow_lite/third_party/cmsis/CMSIS/DSP/Include\arm_math_memory.h ****   @param[in]     value     Q31 value
 216:C:/Renesas/e2studio_2021_01_workspace_RZA2M_ANPR/ANPR_RZA2M_EBK/src/tensorflow_lite/third_party/cmsis/CMSIS/DSP/Include\arm_math_memory.h ****   @return        none
 217:C:/Renesas/e2studio_2021_01_workspace_RZA2M_ANPR/ANPR_RZA2M_EBK/src/tensorflow_lite/third_party/cmsis/CMSIS/DSP/Include\arm_math_memory.h ****  */
 218:C:/Renesas/e2studio_2021_01_workspace_RZA2M_ANPR/ANPR_RZA2M_EBK/src/tensorflow_lite/third_party/cmsis/CMSIS/DSP/Include\arm_math_memory.h **** __STATIC_FORCEINLINE void write_q7x4_ia (
 219:C:/Renesas/e2studio_2021_01_workspace_RZA2M_ANPR/ANPR_RZA2M_EBK/src/tensorflow_lite/third_party/cmsis/CMSIS/DSP/Include\arm_math_memory.h ****   q7_t ** pQ7,
 220:C:/Renesas/e2studio_2021_01_workspace_RZA2M_ANPR/ANPR_RZA2M_EBK/src/tensorflow_lite/third_party/cmsis/CMSIS/DSP/Include\arm_math_memory.h ****   q31_t   value)
 221:C:/Renesas/e2studio_2021_01_workspace_RZA2M_ANPR/ANPR_RZA2M_EBK/src/tensorflow_lite/third_party/cmsis/CMSIS/DSP/Include\arm_math_memory.h **** {
 222:C:/Renesas/e2studio_2021_01_workspace_RZA2M_ANPR/ANPR_RZA2M_EBK/src/tensorflow_lite/third_party/cmsis/CMSIS/DSP/Include\arm_math_memory.h ****   q31_t val = value;
 223:C:/Renesas/e2studio_2021_01_workspace_RZA2M_ANPR/ANPR_RZA2M_EBK/src/tensorflow_lite/third_party/cmsis/CMSIS/DSP/Include\arm_math_memory.h **** #ifdef __ARM_FEATURE_UNALIGNED
 224:C:/Renesas/e2studio_2021_01_workspace_RZA2M_ANPR/ANPR_RZA2M_EBK/src/tensorflow_lite/third_party/cmsis/CMSIS/DSP/Include\arm_math_memory.h ****   memcpy (*pQ7, &val, 4);
 225:C:/Renesas/e2studio_2021_01_workspace_RZA2M_ANPR/ANPR_RZA2M_EBK/src/tensorflow_lite/third_party/cmsis/CMSIS/DSP/Include\arm_math_memory.h **** #else
 226:C:/Renesas/e2studio_2021_01_workspace_RZA2M_ANPR/ANPR_RZA2M_EBK/src/tensorflow_lite/third_party/cmsis/CMSIS/DSP/Include\arm_math_memory.h ****   (*pQ7)[0] = val & 0x0FF;
 227:C:/Renesas/e2studio_2021_01_workspace_RZA2M_ANPR/ANPR_RZA2M_EBK/src/tensorflow_lite/third_party/cmsis/CMSIS/DSP/Include\arm_math_memory.h ****   (*pQ7)[1] = (val >> 8) & 0x0FF;
 228:C:/Renesas/e2studio_2021_01_workspace_RZA2M_ANPR/ANPR_RZA2M_EBK/src/tensorflow_lite/third_party/cmsis/CMSIS/DSP/Include\arm_math_memory.h ****   (*pQ7)[2] = (val >> 16) & 0x0FF;
 229:C:/Renesas/e2studio_2021_01_workspace_RZA2M_ANPR/ANPR_RZA2M_EBK/src/tensorflow_lite/third_party/cmsis/CMSIS/DSP/Include\arm_math_memory.h ****   (*pQ7)[3] = (val >> 24) & 0x0FF;
 230:C:/Renesas/e2studio_2021_01_workspace_RZA2M_ANPR/ANPR_RZA2M_EBK/src/tensorflow_lite/third_party/cmsis/CMSIS/DSP/Include\arm_math_memory.h **** 
 231:C:/Renesas/e2studio_2021_01_workspace_RZA2M_ANPR/ANPR_RZA2M_EBK/src/tensorflow_lite/third_party/cmsis/CMSIS/DSP/Include\arm_math_memory.h **** #endif
 232:C:/Renesas/e2studio_2021_01_workspace_RZA2M_ANPR/ANPR_RZA2M_EBK/src/tensorflow_lite/third_party/cmsis/CMSIS/DSP/Include\arm_math_memory.h ****   *pQ7 += 4;
 273              		.loc 3 232 0
 274 01fc 04A08AE2 		add	r10, r10, #4
 275              	.LVL29:
 276              	.LBE47:
 277              	.LBE46:
 278              	.LBB49:
 279              	.LBB44:
 280              		.loc 2 536 0
 281 0200 FEFFFFEB 		bl	memcpy
 282              	.LVL30:
 283              	.LBE44:
 284              	.LBE49:
 285              	.LBB50:
 286              	.LBB51:
 509:C:/Renesas/e2studio_2021_01_workspace_RZA2M_ANPR/ANPR_RZA2M_EBK/src/tensorflow_lite/third_party/cmsis/CMSIS/NN/Include\arm_nnsupportfunctions.h ****     *in_q7 += 4;
 287              		.loc 2 509 0
 288 0204 0510A0E1 		mov	r1, r5
 289 0208 0420A0E3 		mov	r2, #4
 290 020c 94008DE2 		add	r0, sp, #148
 291              	.LBE51:
 292              	.LBE50:
 293              	.LBB53:
 294              	.LBB45:
 537:C:/Renesas/e2studio_2021_01_workspace_RZA2M_ANPR/ANPR_RZA2M_EBK/src/tensorflow_lite/third_party/cmsis/CMSIS/NN/Include\arm_nnsupportfunctions.h **** 
 538:C:/Renesas/e2studio_2021_01_workspace_RZA2M_ANPR/ANPR_RZA2M_EBK/src/tensorflow_lite/third_party/cmsis/CMSIS/NN/Include\arm_nnsupportfunctions.h ****     return (val);
 295              		.loc 2 538 0
 296 0210 94409DE5 		ldr	r4, [sp, #148]
 297              	.LVL31:
 298              	.LBE45:
 299              	.LBE53:
 300              	.LBB54:
 301              	.LBB52:
 509:C:/Renesas/e2studio_2021_01_workspace_RZA2M_ANPR/ANPR_RZA2M_EBK/src/tensorflow_lite/third_party/cmsis/CMSIS/NN/Include\arm_nnsupportfunctions.h ****     *in_q7 += 4;
 302              		.loc 2 509 0
 303 0214 FEFFFFEB 		bl	memcpy
 304              	.LVL32:
 512:C:/Renesas/e2studio_2021_01_workspace_RZA2M_ANPR/ANPR_RZA2M_EBK/src/tensorflow_lite/third_party/cmsis/CMSIS/NN/Include\arm_nnsupportfunctions.h **** }
 305              		.loc 2 512 0
 306 0218 94309DE5 		ldr	r3, [sp, #148]
 307              	.LVL33:
 510:C:/Renesas/e2studio_2021_01_workspace_RZA2M_ANPR/ANPR_RZA2M_EBK/src/tensorflow_lite/third_party/cmsis/CMSIS/NN/Include\arm_nnsupportfunctions.h **** 
 308              		.loc 2 510 0
 309 021c 045085E2 		add	r5, r5, #4
 310              	.LVL34:
 311              	.LBE52:
 312              	.LBE54:
  61:../src/tensorflow_lite/third_party/cmsis/CMSIS/NN/Source/PoolingFunctions/arm_max_pool_s8.c ****         {
 313              		.loc 1 61 0
 314 0220 74C0AFE6 		sxtb	ip, r4
 315              	.LVL35:
  65:../src/tensorflow_lite/third_party/cmsis/CMSIS/NN/Source/PoolingFunctions/arm_max_pool_s8.c ****         {
 316              		.loc 1 65 0
 317 0224 5314A7E7 		sbfx	r1, r3, #8, #8
  61:../src/tensorflow_lite/third_party/cmsis/CMSIS/NN/Source/PoolingFunctions/arm_max_pool_s8.c ****         {
 318              		.loc 1 61 0
 319 0228 7300AFE6 		sxtb	r0, r3
  73:../src/tensorflow_lite/third_party/cmsis/CMSIS/NN/Source/PoolingFunctions/arm_max_pool_s8.c ****         {
 320              		.loc 1 73 0
 321 022c 432CA0E1 		asr	r2, r3, #24
 322              	.LVL36:
  61:../src/tensorflow_lite/third_party/cmsis/CMSIS/NN/Source/PoolingFunctions/arm_max_pool_s8.c ****         {
 323              		.loc 1 61 0
 324 0230 0C0050E1 		cmp	r0, ip
  69:../src/tensorflow_lite/third_party/cmsis/CMSIS/NN/Source/PoolingFunctions/arm_max_pool_s8.c ****         {
 325              		.loc 1 69 0
 326 0234 5338A7E7 		sbfx	r3, r3, #16, #8
 327              	.LVL37:
  63:../src/tensorflow_lite/third_party/cmsis/CMSIS/NN/Source/PoolingFunctions/arm_max_pool_s8.c ****         }
 328              		.loc 1 63 0
 329 0238 1040C7C7 		bfigt	r4, r0, #0, #8
 330              	.LVL38:
  65:../src/tensorflow_lite/third_party/cmsis/CMSIS/NN/Source/PoolingFunctions/arm_max_pool_s8.c ****         {
 331              		.loc 1 65 0
 332 023c 5404A7E7 		sbfx	r0, r4, #8, #8
 333 0240 010050E1 		cmp	r0, r1
  67:../src/tensorflow_lite/third_party/cmsis/CMSIS/NN/Source/PoolingFunctions/arm_max_pool_s8.c ****         }
 334              		.loc 1 67 0
 335 0244 1144CFB7 		bfilt	r4, r1, #8, #8
  69:../src/tensorflow_lite/third_party/cmsis/CMSIS/NN/Source/PoolingFunctions/arm_max_pool_s8.c ****         {
 336              		.loc 1 69 0
 337 0248 5418A7E7 		sbfx	r1, r4, #16, #8
 338 024c 030051E1 		cmp	r1, r3
  71:../src/tensorflow_lite/third_party/cmsis/CMSIS/NN/Source/PoolingFunctions/arm_max_pool_s8.c ****         }
 339              		.loc 1 71 0
 340 0250 1348D7B7 		bfilt	r4, r3, #16, #8
  73:../src/tensorflow_lite/third_party/cmsis/CMSIS/NN/Source/PoolingFunctions/arm_max_pool_s8.c ****         {
 341              		.loc 1 73 0
 342 0254 440C52E1 		cmp	r2, r4, asr #24
  75:../src/tensorflow_lite/third_party/cmsis/CMSIS/NN/Source/PoolingFunctions/arm_max_pool_s8.c ****         }
 343              		.loc 1 75 0
 344 0258 124CDFC7 		bfigt	r4, r2, #24, #8
 345              	.LVL39:
 346              	.LBB55:
 347              	.LBB48:
 227:C:/Renesas/e2studio_2021_01_workspace_RZA2M_ANPR/ANPR_RZA2M_EBK/src/tensorflow_lite/third_party/cmsis/CMSIS/DSP/Include\arm_math_memory.h ****   (*pQ7)[2] = (val >> 16) & 0x0FF;
 348              		.loc 3 227 0
 349 025c 4414A0E1 		asr	r1, r4, #8
 228:C:/Renesas/e2studio_2021_01_workspace_RZA2M_ANPR/ANPR_RZA2M_EBK/src/tensorflow_lite/third_party/cmsis/CMSIS/DSP/Include\arm_math_memory.h ****   (*pQ7)[3] = (val >> 24) & 0x0FF;
 350              		.loc 3 228 0
 351 0260 4428A0E1 		asr	r2, r4, #16
 229:C:/Renesas/e2studio_2021_01_workspace_RZA2M_ANPR/ANPR_RZA2M_EBK/src/tensorflow_lite/third_party/cmsis/CMSIS/DSP/Include\arm_math_memory.h **** 
 352              		.loc 3 229 0
 353 0264 243CA0E1 		lsr	r3, r4, #24
 226:C:/Renesas/e2studio_2021_01_workspace_RZA2M_ANPR/ANPR_RZA2M_EBK/src/tensorflow_lite/third_party/cmsis/CMSIS/DSP/Include\arm_math_memory.h ****   (*pQ7)[1] = (val >> 8) & 0x0FF;
 354              		.loc 3 226 0
 355 0268 04404AE5 		strb	r4, [r10, #-4]
 227:C:/Renesas/e2studio_2021_01_workspace_RZA2M_ANPR/ANPR_RZA2M_EBK/src/tensorflow_lite/third_party/cmsis/CMSIS/DSP/Include\arm_math_memory.h ****   (*pQ7)[2] = (val >> 16) & 0x0FF;
 356              		.loc 3 227 0
 357 026c 03104AE5 		strb	r1, [r10, #-3]
 228:C:/Renesas/e2studio_2021_01_workspace_RZA2M_ANPR/ANPR_RZA2M_EBK/src/tensorflow_lite/third_party/cmsis/CMSIS/DSP/Include\arm_math_memory.h ****   (*pQ7)[3] = (val >> 24) & 0x0FF;
 358              		.loc 3 228 0
 359 0270 02204AE5 		strb	r2, [r10, #-2]
 229:C:/Renesas/e2studio_2021_01_workspace_RZA2M_ANPR/ANPR_RZA2M_EBK/src/tensorflow_lite/third_party/cmsis/CMSIS/DSP/Include\arm_math_memory.h **** 
 360              		.loc 3 229 0
 361 0274 01304AE5 		strb	r3, [r10, #-1]
 362              	.LVL40:
 363              	.LBE48:
 364              	.LBE55:
  56:../src/tensorflow_lite/third_party/cmsis/CMSIS/NN/Source/PoolingFunctions/arm_max_pool_s8.c ****     {
 365              		.loc 1 56 0
 366 0278 09005AE1 		cmp	r10, r9
 367 027c DBFFFF1A 		bne	.L16
 368 0280 18309DE5 		ldr	r3, [sp, #24]
 369 0284 035086E0 		add	r5, r6, r3
 370              	.LVL41:
 371              	.L11:
  84:../src/tensorflow_lite/third_party/cmsis/CMSIS/NN/Source/PoolingFunctions/arm_max_pool_s8.c ****     {
 372              		.loc 1 84 0
 373 0288 0C309DE5 		ldr	r3, [sp, #12]
 374 028c 000053E3 		cmp	r3, #0
 375 0290 1100000A 		beq	.L10
  86:../src/tensorflow_lite/third_party/cmsis/CMSIS/NN/Source/PoolingFunctions/arm_max_pool_s8.c ****         {
 376              		.loc 1 86 0
 377 0294 D020D5E1 		ldrsb	r2, [r5]
 378 0298 D010DAE1 		ldrsb	r1, [r10]
  84:../src/tensorflow_lite/third_party/cmsis/CMSIS/NN/Source/PoolingFunctions/arm_max_pool_s8.c ****     {
 379              		.loc 1 84 0
 380 029c 1C309DE5 		ldr	r3, [sp, #28]
  86:../src/tensorflow_lite/third_party/cmsis/CMSIS/NN/Source/PoolingFunctions/arm_max_pool_s8.c ****         {
 381              		.loc 1 86 0
 382 02a0 020051E1 		cmp	r1, r2
  88:../src/tensorflow_lite/third_party/cmsis/CMSIS/NN/Source/PoolingFunctions/arm_max_pool_s8.c ****         }
 383              		.loc 1 88 0
 384 02a4 0020CAB5 		strblt	r2, [r10]
 385              	.LVL42:
  84:../src/tensorflow_lite/third_party/cmsis/CMSIS/NN/Source/PoolingFunctions/arm_max_pool_s8.c ****     {
 386              		.loc 1 84 0
 387 02a8 000053E3 		cmp	r3, #0
 388 02ac 0A00000A 		beq	.L10
  86:../src/tensorflow_lite/third_party/cmsis/CMSIS/NN/Source/PoolingFunctions/arm_max_pool_s8.c ****         {
 389              		.loc 1 86 0
 390 02b0 D120D5E1 		ldrsb	r2, [r5, #1]
 391 02b4 D110DAE1 		ldrsb	r1, [r10, #1]
  84:../src/tensorflow_lite/third_party/cmsis/CMSIS/NN/Source/PoolingFunctions/arm_max_pool_s8.c ****     {
 392              		.loc 1 84 0
 393 02b8 0C309DE5 		ldr	r3, [sp, #12]
  86:../src/tensorflow_lite/third_party/cmsis/CMSIS/NN/Source/PoolingFunctions/arm_max_pool_s8.c ****         {
 394              		.loc 1 86 0
 395 02bc 020051E1 		cmp	r1, r2
  88:../src/tensorflow_lite/third_party/cmsis/CMSIS/NN/Source/PoolingFunctions/arm_max_pool_s8.c ****         }
 396              		.loc 1 88 0
 397 02c0 0120CAB5 		strblt	r2, [r10, #1]
 398              	.LVL43:
  84:../src/tensorflow_lite/third_party/cmsis/CMSIS/NN/Source/PoolingFunctions/arm_max_pool_s8.c ****     {
 399              		.loc 1 84 0
 400 02c4 020053E3 		cmp	r3, #2
 401 02c8 0300000A 		beq	.L10
 402              	.LVL44:
  86:../src/tensorflow_lite/third_party/cmsis/CMSIS/NN/Source/PoolingFunctions/arm_max_pool_s8.c ****         {
 403              		.loc 1 86 0
 404 02cc D220D5E1 		ldrsb	r2, [r5, #2]
 405 02d0 D210DAE1 		ldrsb	r1, [r10, #2]
 406 02d4 020051E1 		cmp	r1, r2
  88:../src/tensorflow_lite/third_party/cmsis/CMSIS/NN/Source/PoolingFunctions/arm_max_pool_s8.c ****         }
 407              		.loc 1 88 0
 408 02d8 0220CAB5 		strblt	r2, [r10, #2]
 409              	.LVL45:
 410              	.L10:
 411              	.LBE56:
 412              	.LBE57:
 413              	.LBE58:
 202:../src/tensorflow_lite/third_party/cmsis/CMSIS/NN/Source/PoolingFunctions/arm_max_pool_s8.c ****                 {
 414              		.loc 1 202 0 discriminator 2
 415 02dc 04309DE5 		ldr	r3, [sp, #4]
 416 02e0 017087E2 		add	r7, r7, #1
 417              	.LVL46:
 418 02e4 0B6086E0 		add	r6, r6, fp
 419 02e8 070053E1 		cmp	r3, r7
 420              	.LBB59:
 204:../src/tensorflow_lite/third_party/cmsis/CMSIS/NN/Source/PoolingFunctions/arm_max_pool_s8.c **** 
 421              		.loc 1 204 0 discriminator 2
 422 02ec 0650A011 		movne	r5, r6
 423              	.LBE59:
 202:../src/tensorflow_lite/third_party/cmsis/CMSIS/NN/Source/PoolingFunctions/arm_max_pool_s8.c ****                 {
 424              		.loc 1 202 0 discriminator 2
 425 02f0 BAFFFF1A 		bne	.L9
 426 02f4 28209DE5 		ldr	r2, [sp, #40]
 427              	.LBE61:
 200:../src/tensorflow_lite/third_party/cmsis/CMSIS/NN/Source/PoolingFunctions/arm_max_pool_s8.c ****             {
 428              		.loc 1 200 0
 429 02f8 20309DE5 		ldr	r3, [sp, #32]
 430 02fc 028088E0 		add	r8, r8, r2
 431              	.LVL47:
 432 0300 24209DE5 		ldr	r2, [sp, #36]
 433 0304 013083E2 		add	r3, r3, #1
 434 0308 20308DE5 		str	r3, [sp, #32]
 435              	.LVL48:
 436 030c 020053E1 		cmp	r3, r2
 437 0310 0130A0E3 		mov	r3, #1
 438              	.LVL49:
 439 0314 ACFFFF1A 		bne	.L23
 440              	.LVL50:
 441              	.L8:
 442              	.LBE64:
 207:../src/tensorflow_lite/third_party/cmsis/CMSIS/NN/Source/PoolingFunctions/arm_max_pool_s8.c ****                     {
 208:../src/tensorflow_lite/third_party/cmsis/CMSIS/NN/Source/PoolingFunctions/arm_max_pool_s8.c ****                         memcpy(dst, start, channel_in);
 209:../src/tensorflow_lite/third_party/cmsis/CMSIS/NN/Source/PoolingFunctions/arm_max_pool_s8.c ****                         count++;
 210:../src/tensorflow_lite/third_party/cmsis/CMSIS/NN/Source/PoolingFunctions/arm_max_pool_s8.c ****                     }
 211:../src/tensorflow_lite/third_party/cmsis/CMSIS/NN/Source/PoolingFunctions/arm_max_pool_s8.c ****                     else
 212:../src/tensorflow_lite/third_party/cmsis/CMSIS/NN/Source/PoolingFunctions/arm_max_pool_s8.c ****                     {
 213:../src/tensorflow_lite/third_party/cmsis/CMSIS/NN/Source/PoolingFunctions/arm_max_pool_s8.c ****                         compare_and_replace_if_larger_q7(dst, start, channel_in);
 214:../src/tensorflow_lite/third_party/cmsis/CMSIS/NN/Source/PoolingFunctions/arm_max_pool_s8.c ****                     }
 215:../src/tensorflow_lite/third_party/cmsis/CMSIS/NN/Source/PoolingFunctions/arm_max_pool_s8.c ****                 }
 216:../src/tensorflow_lite/third_party/cmsis/CMSIS/NN/Source/PoolingFunctions/arm_max_pool_s8.c ****             }
 217:../src/tensorflow_lite/third_party/cmsis/CMSIS/NN/Source/PoolingFunctions/arm_max_pool_s8.c ****             /* 'count' is expected to be non-zero here. */
 218:../src/tensorflow_lite/third_party/cmsis/CMSIS/NN/Source/PoolingFunctions/arm_max_pool_s8.c ****             dst += channel_in;
 443              		.loc 1 218 0
 444 0318 08209DE5 		ldr	r2, [sp, #8]
 445 031c 0B9089E0 		add	r9, r9, fp
 446              	.LBE36:
 188:../src/tensorflow_lite/third_party/cmsis/CMSIS/NN/Source/PoolingFunctions/arm_max_pool_s8.c ****         {
 447              		.loc 1 188 0
 448 0320 64309DE5 		ldr	r3, [sp, #100]
 449              	.LBB66:
 450              		.loc 1 218 0
 451 0324 0B2082E0 		add	r2, r2, fp
 452 0328 08208DE5 		str	r2, [sp, #8]
 453              	.LVL51:
 454              	.LBE66:
 188:../src/tensorflow_lite/third_party/cmsis/CMSIS/NN/Source/PoolingFunctions/arm_max_pool_s8.c ****         {
 455              		.loc 1 188 0
 456 032c 013083E2 		add	r3, r3, #1
 457 0330 30209DE5 		ldr	r2, [sp, #48]
 458              	.LVL52:
 459 0334 64308DE5 		str	r3, [sp, #100]
 460              	.LVL53:
 461 0338 030052E1 		cmp	r2, r3
 462 033c 70309DE5 		ldr	r3, [sp, #112]
 463 0340 2C209DE5 		ldr	r2, [sp, #44]
 464 0344 032082E0 		add	r2, r2, r3
 465 0348 2C208DE5 		str	r2, [sp, #44]
 466              	.LVL54:
 467 034c 48209DE5 		ldr	r2, [sp, #72]
 468              	.LVL55:
 469 0350 032042E0 		sub	r2, r2, r3
 470 0354 48208DE5 		str	r2, [sp, #72]
 471 0358 44209DE5 		ldr	r2, [sp, #68]
 472 035c 033042E0 		sub	r3, r2, r3
 473 0360 44308DE5 		str	r3, [sp, #68]
 474 0364 7DFFFF1A 		bne	.L25
 475 0368 3C209DE5 		ldr	r2, [sp, #60]
 476 036c 84109DE5 		ldr	r1, [sp, #132]
 477              	.LBE35:
 186:../src/tensorflow_lite/third_party/cmsis/CMSIS/NN/Source/PoolingFunctions/arm_max_pool_s8.c ****     {
 478              		.loc 1 186 0
 479 0370 68309DE5 		ldr	r3, [sp, #104]
 480 0374 012082E0 		add	r2, r2, r1
 481 0378 3C208DE5 		str	r2, [sp, #60]
 482 037c 013083E2 		add	r3, r3, #1
 483 0380 54209DE5 		ldr	r2, [sp, #84]
 484 0384 68308DE5 		str	r3, [sp, #104]
 485              	.LVL56:
 486 0388 030052E1 		cmp	r2, r3
 487 038c 6C309DE5 		ldr	r3, [sp, #108]
 488 0390 34209DE5 		ldr	r2, [sp, #52]
 489 0394 032082E0 		add	r2, r2, r3
 490 0398 34208DE5 		str	r2, [sp, #52]
 491              	.LVL57:
 492 039c 40209DE5 		ldr	r2, [sp, #64]
 493              	.LVL58:
 494 03a0 032042E0 		sub	r2, r2, r3
 495 03a4 40208DE5 		str	r2, [sp, #64]
 496 03a8 38209DE5 		ldr	r2, [sp, #56]
 497 03ac 033042E0 		sub	r3, r2, r3
 498 03b0 38308DE5 		str	r3, [sp, #56]
 499 03b4 4FFFFF1A 		bne	.L26
 500 03b8 0BA0A0E1 		mov	r10, fp
 501              	.LVL59:
 502              	.L5:
 503              	.LBE69:
 219:../src/tensorflow_lite/third_party/cmsis/CMSIS/NN/Source/PoolingFunctions/arm_max_pool_s8.c ****         }
 220:../src/tensorflow_lite/third_party/cmsis/CMSIS/NN/Source/PoolingFunctions/arm_max_pool_s8.c ****     }
 221:../src/tensorflow_lite/third_party/cmsis/CMSIS/NN/Source/PoolingFunctions/arm_max_pool_s8.c **** 
 222:../src/tensorflow_lite/third_party/cmsis/CMSIS/NN/Source/PoolingFunctions/arm_max_pool_s8.c ****     clamp_output(dst_base, output_x * output_y * channel_in, act_min, act_max);
 504              		.loc 1 222 0
 505 03bc 30309DE5 		ldr	r3, [sp, #48]
 506 03c0 54209DE5 		ldr	r2, [sp, #84]
 507 03c4 930205E0 		mul	r5, r3, r2
 508 03c8 9A0505E0 		mul	r5, r10, r5
 509              	.LVL60:
 510              	.LBB70:
 511              	.LBB71:
 115:../src/tensorflow_lite/third_party/cmsis/CMSIS/NN/Source/PoolingFunctions/arm_max_pool_s8.c **** 
 512              		.loc 1 115 0
 513 03cc 4541A0E1 		asr	r4, r5, #2
 514              	.LVL61:
 117:../src/tensorflow_lite/third_party/cmsis/CMSIS/NN/Source/PoolingFunctions/arm_max_pool_s8.c ****     {
 515              		.loc 1 117 0
 516 03d0 000054E3 		cmp	r4, #0
 517 03d4 C8409DD5 		ldrle	r4, [sp, #200]
 518              	.LVL62:
 519 03d8 2F0000DA 		ble	.L4
 520 03dc C8309DE5 		ldr	r3, [sp, #200]
 521 03e0 5C609DE5 		ldr	r6, [sp, #92]
 522 03e4 60709DE5 		ldr	r7, [sp, #96]
 523 03e8 0380A0E1 		mov	r8, r3
 524 03ec 044183E0 		add	r4, r3, r4, lsl #2
 525              	.LVL63:
 526              	.L27:
 527              	.LBB72:
 528              	.LBB73:
 536:C:/Renesas/e2studio_2021_01_workspace_RZA2M_ANPR/ANPR_RZA2M_EBK/src/tensorflow_lite/third_party/cmsis/CMSIS/NN/Include\arm_nnsupportfunctions.h **** 
 529              		.loc 2 536 0
 530 03f0 0810A0E1 		mov	r1, r8
 531 03f4 0420A0E3 		mov	r2, #4
 532 03f8 94008DE2 		add	r0, sp, #148
 533 03fc FEFFFFEB 		bl	memcpy
 534              	.LVL64:
 535              		.loc 2 538 0
 536 0400 94309DE5 		ldr	r3, [sp, #148]
 537              	.LVL65:
 538              	.LBE73:
 539              	.LBE72:
 540              	.LBB74:
 541              	.LBB75:
 542              		.loc 3 232 0
 543 0404 048088E2 		add	r8, r8, #4
 544              	.LVL66:
 545              	.LBE75:
 546              	.LBE74:
 121:../src/tensorflow_lite/third_party/cmsis/CMSIS/NN/Source/PoolingFunctions/arm_max_pool_s8.c ****         in.bytes[0] = MIN(in.bytes[0], act_max);
 547              		.loc 1 121 0
 548 0408 7320AFE6 		sxtb	r2, r3
 549              	.LVL67:
 550 040c 060052E1 		cmp	r2, r6
 551 0410 0620A0B1 		movlt	r2, r6
 552              	.LVL68:
 122:../src/tensorflow_lite/third_party/cmsis/CMSIS/NN/Source/PoolingFunctions/arm_max_pool_s8.c ****         in.bytes[1] = MAX(in.bytes[1], act_min);
 553              		.loc 1 122 0
 554 0414 7220AFE6 		sxtb	r2, r2
 555 0418 070052E1 		cmp	r2, r7
 556 041c 0720A0A1 		movge	r2, r7
 557 0420 1230C7E7 		bfi	r3, r2, #0, #8
 558              	.LVL69:
 123:../src/tensorflow_lite/third_party/cmsis/CMSIS/NN/Source/PoolingFunctions/arm_max_pool_s8.c ****         in.bytes[1] = MIN(in.bytes[1], act_max);
 559              		.loc 1 123 0
 560 0424 5324A7E7 		sbfx	r2, r3, #8, #8
 561 0428 060052E1 		cmp	r2, r6
 562 042c 0620A0B1 		movlt	r2, r6
 124:../src/tensorflow_lite/third_party/cmsis/CMSIS/NN/Source/PoolingFunctions/arm_max_pool_s8.c ****         in.bytes[2] = MAX(in.bytes[2], act_min);
 563              		.loc 1 124 0
 564 0430 7220AFE6 		sxtb	r2, r2
 565 0434 070052E1 		cmp	r2, r7
 566 0438 0720A0A1 		movge	r2, r7
 567 043c 1234CFE7 		bfi	r3, r2, #8, #8
 125:../src/tensorflow_lite/third_party/cmsis/CMSIS/NN/Source/PoolingFunctions/arm_max_pool_s8.c ****         in.bytes[2] = MIN(in.bytes[2], act_max);
 568              		.loc 1 125 0
 569 0440 5328A7E7 		sbfx	r2, r3, #16, #8
 570 0444 060052E1 		cmp	r2, r6
 571 0448 0620A0B1 		movlt	r2, r6
 126:../src/tensorflow_lite/third_party/cmsis/CMSIS/NN/Source/PoolingFunctions/arm_max_pool_s8.c ****         in.bytes[3] = MAX(in.bytes[3], act_min);
 572              		.loc 1 126 0
 573 044c 7220AFE6 		sxtb	r2, r2
 574 0450 070052E1 		cmp	r2, r7
 575 0454 0720A0A1 		movge	r2, r7
 576 0458 1238D7E7 		bfi	r3, r2, #16, #8
 127:../src/tensorflow_lite/third_party/cmsis/CMSIS/NN/Source/PoolingFunctions/arm_max_pool_s8.c ****         in.bytes[3] = MIN(in.bytes[3], act_max);
 577              		.loc 1 127 0
 578 045c 432CA0E1 		asr	r2, r3, #24
 579 0460 060052E1 		cmp	r2, r6
 580 0464 0620A0B1 		movlt	r2, r6
 128:../src/tensorflow_lite/third_party/cmsis/CMSIS/NN/Source/PoolingFunctions/arm_max_pool_s8.c **** 
 581              		.loc 1 128 0
 582 0468 7220AFE6 		sxtb	r2, r2
 583 046c 070052E1 		cmp	r2, r7
 584 0470 0720A0A1 		movge	r2, r7
 585 0474 123CDFE7 		bfi	r3, r2, #24, #8
 586              	.LVL70:
 587              	.LBB77:
 588              	.LBB76:
 227:C:/Renesas/e2studio_2021_01_workspace_RZA2M_ANPR/ANPR_RZA2M_EBK/src/tensorflow_lite/third_party/cmsis/CMSIS/DSP/Include\arm_math_memory.h ****   (*pQ7)[2] = (val >> 16) & 0x0FF;
 589              		.loc 3 227 0
 590 0478 4304A0E1 		asr	r0, r3, #8
 228:C:/Renesas/e2studio_2021_01_workspace_RZA2M_ANPR/ANPR_RZA2M_EBK/src/tensorflow_lite/third_party/cmsis/CMSIS/DSP/Include\arm_math_memory.h ****   (*pQ7)[3] = (val >> 24) & 0x0FF;
 591              		.loc 3 228 0
 592 047c 4318A0E1 		asr	r1, r3, #16
 229:C:/Renesas/e2studio_2021_01_workspace_RZA2M_ANPR/ANPR_RZA2M_EBK/src/tensorflow_lite/third_party/cmsis/CMSIS/DSP/Include\arm_math_memory.h **** 
 593              		.loc 3 229 0
 594 0480 232CA0E1 		lsr	r2, r3, #24
 226:C:/Renesas/e2studio_2021_01_workspace_RZA2M_ANPR/ANPR_RZA2M_EBK/src/tensorflow_lite/third_party/cmsis/CMSIS/DSP/Include\arm_math_memory.h ****   (*pQ7)[1] = (val >> 8) & 0x0FF;
 595              		.loc 3 226 0
 596 0484 043048E5 		strb	r3, [r8, #-4]
 227:C:/Renesas/e2studio_2021_01_workspace_RZA2M_ANPR/ANPR_RZA2M_EBK/src/tensorflow_lite/third_party/cmsis/CMSIS/DSP/Include\arm_math_memory.h ****   (*pQ7)[2] = (val >> 16) & 0x0FF;
 597              		.loc 3 227 0
 598 0488 030048E5 		strb	r0, [r8, #-3]
 228:C:/Renesas/e2studio_2021_01_workspace_RZA2M_ANPR/ANPR_RZA2M_EBK/src/tensorflow_lite/third_party/cmsis/CMSIS/DSP/Include\arm_math_memory.h ****   (*pQ7)[3] = (val >> 24) & 0x0FF;
 599              		.loc 3 228 0
 600 048c 021048E5 		strb	r1, [r8, #-2]
 229:C:/Renesas/e2studio_2021_01_workspace_RZA2M_ANPR/ANPR_RZA2M_EBK/src/tensorflow_lite/third_party/cmsis/CMSIS/DSP/Include\arm_math_memory.h **** 
 601              		.loc 3 229 0
 602 0490 012048E5 		strb	r2, [r8, #-1]
 603              	.LVL71:
 604              	.LBE76:
 605              	.LBE77:
 117:../src/tensorflow_lite/third_party/cmsis/CMSIS/NN/Source/PoolingFunctions/arm_max_pool_s8.c ****     {
 606              		.loc 1 117 0
 607 0494 040058E1 		cmp	r8, r4
 608 0498 D4FFFF1A 		bne	.L27
 609              	.LVL72:
 610              	.L4:
 135:../src/tensorflow_lite/third_party/cmsis/CMSIS/NN/Source/PoolingFunctions/arm_max_pool_s8.c ****     {
 611              		.loc 1 135 0
 612 049c 035015E2 		ands	r5, r5, #3
 613              	.LVL73:
 614 04a0 1700000A 		beq	.L40
 615              	.LBB78:
 137:../src/tensorflow_lite/third_party/cmsis/CMSIS/NN/Source/PoolingFunctions/arm_max_pool_s8.c ****         comp = MAX(comp, act_min);
 616              		.loc 1 137 0
 617 04a4 D030D4E1 		ldrsb	r3, [r4]
 618              	.LVL74:
 138:../src/tensorflow_lite/third_party/cmsis/CMSIS/NN/Source/PoolingFunctions/arm_max_pool_s8.c ****         comp = MIN(comp, act_max);
 619              		.loc 1 138 0
 620 04a8 5C209DE5 		ldr	r2, [sp, #92]
 139:../src/tensorflow_lite/third_party/cmsis/CMSIS/NN/Source/PoolingFunctions/arm_max_pool_s8.c ****         *source++ = (int8_t)comp;
 621              		.loc 1 139 0
 622 04ac 60109DE5 		ldr	r1, [sp, #96]
 138:../src/tensorflow_lite/third_party/cmsis/CMSIS/NN/Source/PoolingFunctions/arm_max_pool_s8.c ****         comp = MIN(comp, act_max);
 623              		.loc 1 138 0
 624 04b0 030052E1 		cmp	r2, r3
 625 04b4 0230A0A1 		movge	r3, r2
 626              	.LVL75:
 139:../src/tensorflow_lite/third_party/cmsis/CMSIS/NN/Source/PoolingFunctions/arm_max_pool_s8.c ****         *source++ = (int8_t)comp;
 627              		.loc 1 139 0
 628 04b8 030051E1 		cmp	r1, r3
 629 04bc 0130A0B1 		movlt	r3, r1
 630              	.LVL76:
 631              	.LBE78:
 135:../src/tensorflow_lite/third_party/cmsis/CMSIS/NN/Source/PoolingFunctions/arm_max_pool_s8.c ****     {
 632              		.loc 1 135 0
 633 04c0 010055E3 		cmp	r5, #1
 634              	.LBB79:
 140:../src/tensorflow_lite/third_party/cmsis/CMSIS/NN/Source/PoolingFunctions/arm_max_pool_s8.c ****         cnt--;
 635              		.loc 1 140 0
 636 04c4 0030C4E5 		strb	r3, [r4]
 637              	.LVL77:
 638              	.LBE79:
 135:../src/tensorflow_lite/third_party/cmsis/CMSIS/NN/Source/PoolingFunctions/arm_max_pool_s8.c ****     {
 639              		.loc 1 135 0
 640 04c8 0D00000A 		beq	.L40
 641              	.LBB80:
 137:../src/tensorflow_lite/third_party/cmsis/CMSIS/NN/Source/PoolingFunctions/arm_max_pool_s8.c ****         comp = MAX(comp, act_min);
 642              		.loc 1 137 0
 643 04cc D130D4E1 		ldrsb	r3, [r4, #1]
 644              	.LVL78:
 138:../src/tensorflow_lite/third_party/cmsis/CMSIS/NN/Source/PoolingFunctions/arm_max_pool_s8.c ****         comp = MIN(comp, act_max);
 645              		.loc 1 138 0
 646 04d0 030052E1 		cmp	r2, r3
 647 04d4 0230A0A1 		movge	r3, r2
 648              	.LVL79:
 139:../src/tensorflow_lite/third_party/cmsis/CMSIS/NN/Source/PoolingFunctions/arm_max_pool_s8.c ****         *source++ = (int8_t)comp;
 649              		.loc 1 139 0
 650 04d8 030051E1 		cmp	r1, r3
 651 04dc 0130A0B1 		movlt	r3, r1
 652              	.LVL80:
 653              	.LBE80:
 135:../src/tensorflow_lite/third_party/cmsis/CMSIS/NN/Source/PoolingFunctions/arm_max_pool_s8.c ****     {
 654              		.loc 1 135 0
 655 04e0 020055E3 		cmp	r5, #2
 656              	.LBB81:
 140:../src/tensorflow_lite/third_party/cmsis/CMSIS/NN/Source/PoolingFunctions/arm_max_pool_s8.c ****         cnt--;
 657              		.loc 1 140 0
 658 04e4 0130C4E5 		strb	r3, [r4, #1]
 659              	.LVL81:
 660              	.LBE81:
 135:../src/tensorflow_lite/third_party/cmsis/CMSIS/NN/Source/PoolingFunctions/arm_max_pool_s8.c ****     {
 661              		.loc 1 135 0
 662 04e8 0500000A 		beq	.L40
 663              	.LVL82:
 664              	.LBB82:
 137:../src/tensorflow_lite/third_party/cmsis/CMSIS/NN/Source/PoolingFunctions/arm_max_pool_s8.c ****         comp = MAX(comp, act_min);
 665              		.loc 1 137 0
 666 04ec D230D4E1 		ldrsb	r3, [r4, #2]
 667              	.LVL83:
 138:../src/tensorflow_lite/third_party/cmsis/CMSIS/NN/Source/PoolingFunctions/arm_max_pool_s8.c ****         comp = MIN(comp, act_max);
 668              		.loc 1 138 0
 669 04f0 030052E1 		cmp	r2, r3
 670 04f4 0230A0A1 		movge	r3, r2
 671              	.LVL84:
 139:../src/tensorflow_lite/third_party/cmsis/CMSIS/NN/Source/PoolingFunctions/arm_max_pool_s8.c ****         *source++ = (int8_t)comp;
 672              		.loc 1 139 0
 673 04f8 030051E1 		cmp	r1, r3
 674 04fc 0130A0B1 		movlt	r3, r1
 675              	.LVL85:
 140:../src/tensorflow_lite/third_party/cmsis/CMSIS/NN/Source/PoolingFunctions/arm_max_pool_s8.c ****         cnt--;
 676              		.loc 1 140 0
 677 0500 0230C4E5 		strb	r3, [r4, #2]
 678              	.LVL86:
 679              	.L40:
 680              	.LBE82:
 681              	.LBE71:
 682              	.LBE70:
 223:../src/tensorflow_lite/third_party/cmsis/CMSIS/NN/Source/PoolingFunctions/arm_max_pool_s8.c **** 
 224:../src/tensorflow_lite/third_party/cmsis/CMSIS/NN/Source/PoolingFunctions/arm_max_pool_s8.c ****     return ARM_MATH_SUCCESS;
 225:../src/tensorflow_lite/third_party/cmsis/CMSIS/NN/Source/PoolingFunctions/arm_max_pool_s8.c **** }
 683              		.loc 1 225 0
 684 0504 0000A0E3 		mov	r0, #0
 685 0508 9CD08DE2 		add	sp, sp, #156
 686              		.cfi_remember_state
 687              		.cfi_def_cfa_offset 36
 688              		@ sp needed
 689 050c F08FBDE8 		pop	{r4, r5, r6, r7, r8, r9, r10, fp, pc}
 690              	.LVL87:
 691              	.L24:
 692              		.cfi_restore_state
 693              	.LBB83:
 694              	.LBB68:
 695              	.LBB67:
 696              	.LBB65:
 697              	.LBB62:
 698              	.LBB60:
 208:../src/tensorflow_lite/third_party/cmsis/CMSIS/NN/Source/PoolingFunctions/arm_max_pool_s8.c ****                         count++;
 699              		.loc 1 208 0
 700 0510 0B20A0E1 		mov	r2, fp
 701 0514 0810A0E1 		mov	r1, r8
 702 0518 08009DE5 		ldr	r0, [sp, #8]
 703 051c 0860A0E1 		mov	r6, r8
 704 0520 FEFFFFEB 		bl	memcpy
 705              	.LVL88:
 706 0524 10709DE5 		ldr	r7, [sp, #16]
 707 0528 6BFFFFEA 		b	.L10
 708              	.LBE60:
 709              	.LBE62:
 710              	.LBE65:
 711              	.LBE67:
 712              	.LBE68:
 713              	.LBE83:
 714              		.cfi_endproc
 715              	.LFE124:
 717              		.text
 718              	.Letext0:
 719              		.file 4 "c:\\program files (x86)\\gnu tools arm embedded\\6 2017-q2-update\\arm-none-eabi\\include
 720              		.file 5 "c:\\program files (x86)\\gnu tools arm embedded\\6 2017-q2-update\\arm-none-eabi\\include
 721              		.file 6 "c:\\program files (x86)\\gnu tools arm embedded\\6 2017-q2-update\\arm-none-eabi\\include
 722              		.file 7 "c:\\program files (x86)\\gnu tools arm embedded\\6 2017-q2-update\\arm-none-eabi\\include
 723              		.file 8 "c:\\program files (x86)\\gnu tools arm embedded\\6 2017-q2-update\\lib\\gcc\\arm-none-eab
 724              		.file 9 "c:\\program files (x86)\\gnu tools arm embedded\\6 2017-q2-update\\arm-none-eabi\\include
 725              		.file 10 "c:\\program files (x86)\\gnu tools arm embedded\\6 2017-q2-update\\arm-none-eabi\\includ
 726              		.file 11 "C:/Renesas/e2studio_2021_01_workspace_RZA2M_ANPR/ANPR_RZA2M_EBK/src/tensorflow_lite/thir
 727              		.file 12 "C:/Renesas/e2studio_2021_01_workspace_RZA2M_ANPR/ANPR_RZA2M_EBK/src/tensorflow_lite/thir
 728              		.file 13 "C:/Renesas/e2studio_2021_01_workspace_RZA2M_ANPR/ANPR_RZA2M_EBK/src/tensorflow_lite/thir