   1              		.cpu cortex-a9
   2              		.eabi_attribute 28, 1
   3              		.eabi_attribute 20, 1
   4              		.eabi_attribute 21, 1
   5              		.eabi_attribute 23, 3
   6              		.eabi_attribute 24, 1
   7              		.eabi_attribute 25, 1
   8              		.eabi_attribute 26, 1
   9              		.eabi_attribute 30, 1
  10              		.eabi_attribute 34, 0
  11              		.eabi_attribute 18, 4
  12              		.file	"wild_compare.c"
  13              		.text
  14              	.Ltext0:
  15              		.cfi_sections	.debug_frame
  16              		.section	.text.wild_char,"ax",%progbits
  17              		.align	2
  18              		.syntax unified
  19              		.arm
  20              		.fpu neon
  22              	wild_char:
  23              	.LFB1:
  24              		.file 1 "../src/renesas/application/common/console/wild_compare.c"
   1:../src/renesas/application/common/console/wild_compare.c **** /******************************************************************************
   2:../src/renesas/application/common/console/wild_compare.c ****  * DISCLAIMER
   3:../src/renesas/application/common/console/wild_compare.c ****  * This software is supplied by Renesas Electronics Corporation and is only
   4:../src/renesas/application/common/console/wild_compare.c ****  * intended for use with Renesas products. No other uses are authorized. This
   5:../src/renesas/application/common/console/wild_compare.c ****  * software is owned by Renesas Electronics Corporation and is protected under
   6:../src/renesas/application/common/console/wild_compare.c ****  * all applicable laws, including copyright laws.
   7:../src/renesas/application/common/console/wild_compare.c ****  * THIS SOFTWARE IS PROVIDED "AS IS" AND RENESAS MAKES NO WARRANTIES REGARDING
   8:../src/renesas/application/common/console/wild_compare.c ****  * THIS SOFTWARE, WHETHER EXPRESS, IMPLIED OR STATUTORY, INCLUDING BUT NOT
   9:../src/renesas/application/common/console/wild_compare.c ****  * LIMITED TO WARRANTIES OF MERCHANTABILITY, FITNESS FOR A PARTICULAR PURPOSE
  10:../src/renesas/application/common/console/wild_compare.c ****  * AND NON-INFRINGEMENT. ALL SUCH WARRANTIES ARE EXPRESSLY DISCLAIMED.
  11:../src/renesas/application/common/console/wild_compare.c ****  * TO THE MAXIMUM EXTENT PERMITTED NOT PROHIBITED BY LAW, NEITHER RENESAS
  12:../src/renesas/application/common/console/wild_compare.c ****  * ELECTRONICS CORPORATION NOR ANY OF ITS AFFILIATED COMPANIES SHALL BE LIABLE
  13:../src/renesas/application/common/console/wild_compare.c ****  * FOR ANY DIRECT, INDIRECT, SPECIAL, INCIDENTAL OR CONSEQUENTIAL DAMAGES FOR
  14:../src/renesas/application/common/console/wild_compare.c ****  * ANY REASON RELATED TO THIS SOFTWARE, EVEN IF RENESAS OR ITS AFFILIATES HAVE
  15:../src/renesas/application/common/console/wild_compare.c ****  * BEEN ADVISED OF THE POSSIBILITY OF SUCH DAMAGES.
  16:../src/renesas/application/common/console/wild_compare.c ****  * Renesas reserves the right, without notice, to make changes to this software
  17:../src/renesas/application/common/console/wild_compare.c ****  * and to discontinue the availability of this software. By using this software,
  18:../src/renesas/application/common/console/wild_compare.c ****  * you agree to the additional terms and conditions found by accessing the
  19:../src/renesas/application/common/console/wild_compare.c ****  * following link:
  20:../src/renesas/application/common/console/wild_compare.c ****  * http://www.renesas.com/disclaimer
  21:../src/renesas/application/common/console/wild_compare.c ****  * Copyright (C) 2014 Renesas Electronics Corporation. All rights reserved.
  22:../src/renesas/application/common/console/wild_compare.c ****  *****************************************************************************/
  23:../src/renesas/application/common/console/wild_compare.c **** /******************************************************************************
  24:../src/renesas/application/common/console/wild_compare.c **** * File Name    : wild_compare.c
  25:../src/renesas/application/common/console/wild_compare.c **** * Version      : 1.01
  26:../src/renesas/application/common/console/wild_compare.c **** * Device(s)    : Renesas
  27:../src/renesas/application/common/console/wild_compare.c **** * Tool-Chain   : N/A
  28:../src/renesas/application/common/console/wild_compare.c **** * OS           : N/A
  29:../src/renesas/application/common/console/wild_compare.c **** * H/W Platform : RSK+
  30:../src/renesas/application/common/console/wild_compare.c **** * Description  : Function to perform a string compare with * wild card.
  31:../src/renesas/application/common/console/wild_compare.c **** *******************************************************************************
  32:../src/renesas/application/common/console/wild_compare.c **** * History      : DD.MM.YYYY Version Description
  33:../src/renesas/application/common/console/wild_compare.c **** *              : 04.02.2010 1.00    First Release
  34:../src/renesas/application/common/console/wild_compare.c **** *              : 10.06.2010 1.01    Updated type definitions
  35:../src/renesas/application/common/console/wild_compare.c ****  *             : __#dd#__.__#mm#__.__#yyyy#__ __#ver_maj#__.__#ver_min#__ First Release
  36:../src/renesas/application/common/console/wild_compare.c ****  *****************************************************************************/
  37:../src/renesas/application/common/console/wild_compare.c **** 
  38:../src/renesas/application/common/console/wild_compare.c **** /******************************************************************************
  39:../src/renesas/application/common/console/wild_compare.c ****  WARNING!  IN ACCORDANCE WITH THE USER LICENCE THIS CODE MUST NOT BE CONVEYED
  40:../src/renesas/application/common/console/wild_compare.c ****  OR REDISTRIBUTED IN COMBINATION WITH ANY SOFTWARE LICENSED UNDER TERMS THE
  41:../src/renesas/application/common/console/wild_compare.c ****  SAME AS OR SIMILAR TO THE GNU GENERAL PUBLIC LICENCE
  42:../src/renesas/application/common/console/wild_compare.c ****  ******************************************************************************/
  43:../src/renesas/application/common/console/wild_compare.c **** 
  44:../src/renesas/application/common/console/wild_compare.c **** /******************************************************************************
  45:../src/renesas/application/common/console/wild_compare.c ****  Includes   <System Includes> , "Project Includes"
  46:../src/renesas/application/common/console/wild_compare.c ****  *****************************************************************************/
  47:../src/renesas/application/common/console/wild_compare.c **** #include <string.h>
  48:../src/renesas/application/common/console/wild_compare.c **** #include <ctype.h>
  49:../src/renesas/application/common/console/wild_compare.c **** 
  50:../src/renesas/application/common/console/wild_compare.c **** #include "wild_compare.h"
  51:../src/renesas/application/common/console/wild_compare.c **** #include "r_typedefs.h"
  52:../src/renesas/application/common/console/wild_compare.c **** 
  53:../src/renesas/application/common/console/wild_compare.c **** /******************************************************************************
  54:../src/renesas/application/common/console/wild_compare.c **** Function Prototypes
  55:../src/renesas/application/common/console/wild_compare.c **** ******************************************************************************/
  56:../src/renesas/application/common/console/wild_compare.c **** 
  57:../src/renesas/application/common/console/wild_compare.c **** static const char_t *wild_char(const char *pszString, char chNext);
  58:../src/renesas/application/common/console/wild_compare.c **** 
  59:../src/renesas/application/common/console/wild_compare.c **** /******************************************************************************
  60:../src/renesas/application/common/console/wild_compare.c **** Exported global variables and functions (to be accessed by other files)
  61:../src/renesas/application/common/console/wild_compare.c **** ******************************************************************************/
  62:../src/renesas/application/common/console/wild_compare.c **** 
  63:../src/renesas/application/common/console/wild_compare.c **** /******************************************************************************
  64:../src/renesas/application/common/console/wild_compare.c **** * Function Name: wild_compare
  65:../src/renesas/application/common/console/wild_compare.c **** * Description  : Function to check a string against a wild card string where the
  66:../src/renesas/application/common/console/wild_compare.c **** *                char '*' indicates any number of characters. The application
  67:../src/renesas/application/common/console/wild_compare.c **** *                of this is to match file names like "*.txt" in this MS demo.
  68:../src/renesas/application/common/console/wild_compare.c **** * Arguments    : IN  pszWildCard - Pointer to the string containing the wild
  69:../src/renesas/application/common/console/wild_compare.c **** *                                  card
  70:../src/renesas/application/common/console/wild_compare.c **** *                IN  pszString - Pointer to the string to compare
  71:../src/renesas/application/common/console/wild_compare.c **** * Return Value : true if the string matches the wild card string.
  72:../src/renesas/application/common/console/wild_compare.c **** ******************************************************************************/
  73:../src/renesas/application/common/console/wild_compare.c **** bool_t wild_compare(const char_t * pszWildCard, const char_t * pszString)
  74:../src/renesas/application/common/console/wild_compare.c **** {
  75:../src/renesas/application/common/console/wild_compare.c ****     /* Check to see if the string contains the wild card */
  76:../src/renesas/application/common/console/wild_compare.c ****     if (!memchr(pszWildCard, '*', strlen(pszWildCard)))
  77:../src/renesas/application/common/console/wild_compare.c ****     {
  78:../src/renesas/application/common/console/wild_compare.c ****         /* if it does not then do a straight case free string compare */
  79:../src/renesas/application/common/console/wild_compare.c ****         while (tolower(*pszWildCard) == tolower(*pszString))
  80:../src/renesas/application/common/console/wild_compare.c ****         {
  81:../src/renesas/application/common/console/wild_compare.c ****             /* Check for end of string */
  82:../src/renesas/application/common/console/wild_compare.c ****             if (!*pszWildCard++)
  83:../src/renesas/application/common/console/wild_compare.c ****             {
  84:../src/renesas/application/common/console/wild_compare.c ****                 /* Match */
  85:../src/renesas/application/common/console/wild_compare.c ****                 return true;
  86:../src/renesas/application/common/console/wild_compare.c ****             }
  87:../src/renesas/application/common/console/wild_compare.c **** 
  88:../src/renesas/application/common/console/wild_compare.c ****             pszString++;
  89:../src/renesas/application/common/console/wild_compare.c ****         }
  90:../src/renesas/application/common/console/wild_compare.c **** 
  91:../src/renesas/application/common/console/wild_compare.c ****         return false;
  92:../src/renesas/application/common/console/wild_compare.c ****     }
  93:../src/renesas/application/common/console/wild_compare.c ****     else
  94:../src/renesas/application/common/console/wild_compare.c ****     {
  95:../src/renesas/application/common/console/wild_compare.c ****         while ((*pszWildCard) && (*pszString))
  96:../src/renesas/application/common/console/wild_compare.c ****         {
  97:../src/renesas/application/common/console/wild_compare.c ****             /* Test for the wild card */
  98:../src/renesas/application/common/console/wild_compare.c ****             if ('*' == (*pszWildCard))
  99:../src/renesas/application/common/console/wild_compare.c ****             {
 100:../src/renesas/application/common/console/wild_compare.c ****                 /* Eat more than one */
 101:../src/renesas/application/common/console/wild_compare.c ****                 while ('*' == (*pszWildCard))
 102:../src/renesas/application/common/console/wild_compare.c ****                 {
 103:../src/renesas/application/common/console/wild_compare.c ****                     pszWildCard++;
 104:../src/renesas/application/common/console/wild_compare.c ****                 }
 105:../src/renesas/application/common/console/wild_compare.c **** 
 106:../src/renesas/application/common/console/wild_compare.c ****                 /* If there are more chars in the string */
 107:../src/renesas/application/common/console/wild_compare.c ****                 if (*pszWildCard)
 108:../src/renesas/application/common/console/wild_compare.c ****                 {
 109:../src/renesas/application/common/console/wild_compare.c ****                     /* Search for the next char */
 110:../src/renesas/application/common/console/wild_compare.c ****                     pszString = wild_char(pszString, *pszWildCard);
 111:../src/renesas/application/common/console/wild_compare.c **** 
 112:../src/renesas/application/common/console/wild_compare.c ****                     /* if it does not exist then the strings don't match */
 113:../src/renesas/application/common/console/wild_compare.c ****                     if (!pszString)
 114:../src/renesas/application/common/console/wild_compare.c ****                     {
 115:../src/renesas/application/common/console/wild_compare.c ****                         return false;
 116:../src/renesas/application/common/console/wild_compare.c ****                     }
 117:../src/renesas/application/common/console/wild_compare.c ****                 }
 118:../src/renesas/application/common/console/wild_compare.c ****                 else
 119:../src/renesas/application/common/console/wild_compare.c ****                 {
 120:../src/renesas/application/common/console/wild_compare.c ****                     if (*pszWildCard)
 121:../src/renesas/application/common/console/wild_compare.c ****                     {
 122:../src/renesas/application/common/console/wild_compare.c ****                         /* continue */
 123:../src/renesas/application/common/console/wild_compare.c ****                         break;
 124:../src/renesas/application/common/console/wild_compare.c ****                     }
 125:../src/renesas/application/common/console/wild_compare.c **** 
 126:../src/renesas/application/common/console/wild_compare.c ****                     return true;
 127:../src/renesas/application/common/console/wild_compare.c ****                 }
 128:../src/renesas/application/common/console/wild_compare.c ****             }
 129:../src/renesas/application/common/console/wild_compare.c ****             else
 130:../src/renesas/application/common/console/wild_compare.c ****             {
 131:../src/renesas/application/common/console/wild_compare.c ****                 /* Fail if they don't match */
 132:../src/renesas/application/common/console/wild_compare.c ****                 if (tolower(*pszWildCard) != tolower(*pszString))
 133:../src/renesas/application/common/console/wild_compare.c ****                 {
 134:../src/renesas/application/common/console/wild_compare.c ****                     return false;
 135:../src/renesas/application/common/console/wild_compare.c ****                 }
 136:../src/renesas/application/common/console/wild_compare.c ****             }
 137:../src/renesas/application/common/console/wild_compare.c **** 
 138:../src/renesas/application/common/console/wild_compare.c ****             /* Bump both pointers */
 139:../src/renesas/application/common/console/wild_compare.c ****             pszWildCard++;
 140:../src/renesas/application/common/console/wild_compare.c ****             pszString++;
 141:../src/renesas/application/common/console/wild_compare.c ****         }
 142:../src/renesas/application/common/console/wild_compare.c **** 
 143:../src/renesas/application/common/console/wild_compare.c ****         /* fail if different lengths */
 144:../src/renesas/application/common/console/wild_compare.c ****         if ((*pszWildCard) != (*pszString))
 145:../src/renesas/application/common/console/wild_compare.c ****         {
 146:../src/renesas/application/common/console/wild_compare.c ****             return false;
 147:../src/renesas/application/common/console/wild_compare.c ****         }
 148:../src/renesas/application/common/console/wild_compare.c ****     }
 149:../src/renesas/application/common/console/wild_compare.c **** 
 150:../src/renesas/application/common/console/wild_compare.c ****     return true;
 151:../src/renesas/application/common/console/wild_compare.c **** }
 152:../src/renesas/application/common/console/wild_compare.c **** /******************************************************************************
 153:../src/renesas/application/common/console/wild_compare.c **** End of function  wild_compare
 154:../src/renesas/application/common/console/wild_compare.c **** ******************************************************************************/
 155:../src/renesas/application/common/console/wild_compare.c **** 
 156:../src/renesas/application/common/console/wild_compare.c **** /******************************************************************************
 157:../src/renesas/application/common/console/wild_compare.c **** Private global variables and functions
 158:../src/renesas/application/common/console/wild_compare.c **** ******************************************************************************/
 159:../src/renesas/application/common/console/wild_compare.c **** 
 160:../src/renesas/application/common/console/wild_compare.c **** /******************************************************************************
 161:../src/renesas/application/common/console/wild_compare.c **** * Function Name: wild_char
 162:../src/renesas/application/common/console/wild_compare.c **** * Description  : Function to return a pointer to the next character in the
 163:../src/renesas/application/common/console/wild_compare.c **** *                string
 164:../src/renesas/application/common/console/wild_compare.c **** * Arguments    : IN  pszString - Pointer to the string to search
 165:../src/renesas/application/common/console/wild_compare.c **** *                IN  chNext - The next character to look for
 166:../src/renesas/application/common/console/wild_compare.c **** * Return Value : Pointer to the first occurrence of the next character or NULL
 167:../src/renesas/application/common/console/wild_compare.c **** *                if not found
 168:../src/renesas/application/common/console/wild_compare.c **** ******************************************************************************/
 169:../src/renesas/application/common/console/wild_compare.c **** static const char_t *wild_char(const char_t *pszString, char_t chNext)
 170:../src/renesas/application/common/console/wild_compare.c **** {
  25              		.loc 1 170 0
  26              		.cfi_startproc
  27              		@ args = 0, pretend = 0, frame = 0
  28              		@ frame_needed = 0, uses_anonymous_args = 0
  29              	.LVL0:
  30 0000 70402DE9 		push	{r4, r5, r6, lr}
  31              		.cfi_def_cfa_offset 16
  32              		.cfi_offset 4, -16
  33              		.cfi_offset 5, -12
  34              		.cfi_offset 6, -8
  35              		.cfi_offset 14, -4
  36 0004 0050A0E1 		mov	r5, r0
  37 0008 0160A0E1 		mov	r6, r1
  38              	.LVL1:
  39              	.LBB2:
 171:../src/renesas/application/common/console/wild_compare.c ****     chNext = (char_t) tolower(chNext);
  40              		.loc 1 171 0
  41 000c FEFFFFEB 		bl	__locale_ctype_ptr
  42              	.LVL2:
  43 0010 060080E0 		add	r0, r0, r6
  44 0014 0130D0E5 		ldrb	r3, [r0, #1]	@ zero_extendqisi2
  45 0018 033003E2 		and	r3, r3, #3
  46 001c 010053E3 		cmp	r3, #1
  47 0020 0100000A 		beq	.L11
  48              	.LVL3:
  49              	.L3:
  50              	.LBE2:
  51              		.loc 1 171 0 is_stmt 0 discriminator 4
  52 0024 7660EFE6 		uxtb	r6, r6
  53              	.LVL4:
 172:../src/renesas/application/common/console/wild_compare.c **** 
 173:../src/renesas/application/common/console/wild_compare.c ****     while (*pszString)
  54              		.loc 1 173 0 is_stmt 1 discriminator 4
  55 0028 050000EA 		b	.L4
  56              	.LVL5:
  57              	.L11:
  58              	.LBB3:
 171:../src/renesas/application/common/console/wild_compare.c ****     chNext = (char_t) tolower(chNext);
  59              		.loc 1 171 0 discriminator 1
  60 002c 206086E2 		add	r6, r6, #32
  61              	.LVL6:
  62 0030 FBFFFFEA 		b	.L3
  63              	.LVL7:
  64              	.L6:
  65              	.LBE3:
 174:../src/renesas/application/common/console/wild_compare.c ****     {
 175:../src/renesas/application/common/console/wild_compare.c ****         if ((char_t) tolower(*pszString) == chNext)
  66              		.loc 1 175 0 discriminator 4
  67 0034 7440EFE6 		uxtb	r4, r4
  68 0038 040056E1 		cmp	r6, r4
  69 003c 0C00000A 		beq	.L9
 176:../src/renesas/application/common/console/wild_compare.c ****         {
 177:../src/renesas/application/common/console/wild_compare.c ****             return pszString;
 178:../src/renesas/application/common/console/wild_compare.c ****         }
 179:../src/renesas/application/common/console/wild_compare.c **** 
 180:../src/renesas/application/common/console/wild_compare.c ****         pszString++;
  70              		.loc 1 180 0
  71 0040 015085E2 		add	r5, r5, #1
  72              	.LVL8:
  73              	.L4:
 173:../src/renesas/application/common/console/wild_compare.c ****     {
  74              		.loc 1 173 0
  75 0044 0040D5E5 		ldrb	r4, [r5]	@ zero_extendqisi2
  76 0048 000054E3 		cmp	r4, #0
  77 004c 0600000A 		beq	.L12
  78              	.LVL9:
  79              	.LBB4:
 175:../src/renesas/application/common/console/wild_compare.c ****         {
  80              		.loc 1 175 0
  81 0050 FEFFFFEB 		bl	__locale_ctype_ptr
  82              	.LVL10:
  83 0054 040080E0 		add	r0, r0, r4
  84 0058 0130D0E5 		ldrb	r3, [r0, #1]	@ zero_extendqisi2
  85 005c 033003E2 		and	r3, r3, #3
  86 0060 010053E3 		cmp	r3, #1
 175:../src/renesas/application/common/console/wild_compare.c ****         {
  87              		.loc 1 175 0 is_stmt 0 discriminator 1
  88 0064 20408402 		addeq	r4, r4, #32
  89              	.LVL11:
  90 0068 F1FFFFEA 		b	.L6
  91              	.LVL12:
  92              	.L12:
  93              	.LBE4:
 181:../src/renesas/application/common/console/wild_compare.c ****     }
 182:../src/renesas/application/common/console/wild_compare.c **** 
 183:../src/renesas/application/common/console/wild_compare.c ****     return NULL;
  94              		.loc 1 183 0 is_stmt 1
  95 006c 0000A0E3 		mov	r0, #0
  96 0070 7080BDE8 		pop	{r4, r5, r6, pc}
  97              	.L9:
 177:../src/renesas/application/common/console/wild_compare.c ****         }
  98              		.loc 1 177 0
  99 0074 0500A0E1 		mov	r0, r5
 184:../src/renesas/application/common/console/wild_compare.c **** }
 100              		.loc 1 184 0
 101 0078 7080BDE8 		pop	{r4, r5, r6, pc}
 102              		.cfi_endproc
 103              	.LFE1:
 105              		.section	.text.wild_compare,"ax",%progbits
 106              		.align	2
 107              		.global	wild_compare
 108              		.syntax unified
 109              		.arm
 110              		.fpu neon
 112              	wild_compare:
 113              	.LFB0:
  74:../src/renesas/application/common/console/wild_compare.c ****     /* Check to see if the string contains the wild card */
 114              		.loc 1 74 0
 115              		.cfi_startproc
 116              		@ args = 0, pretend = 0, frame = 0
 117              		@ frame_needed = 0, uses_anonymous_args = 0
 118              	.LVL13:
 119 0000 F0412DE9 		push	{r4, r5, r6, r7, r8, lr}
 120              		.cfi_def_cfa_offset 24
 121              		.cfi_offset 4, -24
 122              		.cfi_offset 5, -20
 123              		.cfi_offset 6, -16
 124              		.cfi_offset 7, -12
 125              		.cfi_offset 8, -8
 126              		.cfi_offset 14, -4
 127 0004 0040A0E1 		mov	r4, r0
 128 0008 0160A0E1 		mov	r6, r1
  76:../src/renesas/application/common/console/wild_compare.c ****     {
 129              		.loc 1 76 0
 130 000c FEFFFFEB 		bl	strlen
 131              	.LVL14:
 132 0010 0020A0E1 		mov	r2, r0
 133 0014 2A10A0E3 		mov	r1, #42
 134 0018 0400A0E1 		mov	r0, r4
 135 001c FEFFFFEB 		bl	memchr
 136              	.LVL15:
 137 0020 000050E3 		cmp	r0, #0
 138 0024 2D00001A 		bne	.L15
 139 0028 090000EA 		b	.L14
 140              	.LVL16:
 141              	.L40:
 142              	.LBB5:
  79:../src/renesas/application/common/console/wild_compare.c ****         {
 143              		.loc 1 79 0 discriminator 1
 144 002c 207087E2 		add	r7, r7, #32
 145              	.LVL17:
 146 0030 0E0000EA 		b	.L18
 147              	.LVL18:
 148              	.L20:
 149              	.LBE5:
  79:../src/renesas/application/common/console/wild_compare.c ****         {
 150              		.loc 1 79 0 is_stmt 0 discriminator 8
 151 0034 050057E1 		cmp	r7, r5
 152 0038 1400001A 		bne	.L39
  82:../src/renesas/application/common/console/wild_compare.c ****             {
 153              		.loc 1 82 0 is_stmt 1
 154 003c 012084E2 		add	r2, r4, #1
 155              	.LVL19:
 156 0040 0030D4E5 		ldrb	r3, [r4]	@ zero_extendqisi2
 157 0044 000053E3 		cmp	r3, #0
 158 0048 3F00000A 		beq	.L32
  88:../src/renesas/application/common/console/wild_compare.c ****         }
 159              		.loc 1 88 0
 160 004c 016086E2 		add	r6, r6, #1
 161              	.LVL20:
  82:../src/renesas/application/common/console/wild_compare.c ****             {
 162              		.loc 1 82 0
 163 0050 0240A0E1 		mov	r4, r2
 164              	.LVL21:
 165              	.L14:
 166              	.LBB6:
  79:../src/renesas/application/common/console/wild_compare.c ****         {
 167              		.loc 1 79 0
 168 0054 0070D4E5 		ldrb	r7, [r4]	@ zero_extendqisi2
 169              	.LVL22:
 170 0058 FEFFFFEB 		bl	__locale_ctype_ptr
 171              	.LVL23:
 172 005c 070080E0 		add	r0, r0, r7
 173 0060 0130D0E5 		ldrb	r3, [r0, #1]	@ zero_extendqisi2
 174 0064 033003E2 		and	r3, r3, #3
 175 0068 010053E3 		cmp	r3, #1
 176 006c EEFFFF0A 		beq	.L40
 177              	.LVL24:
 178              	.L18:
 179              	.LBE6:
 180              	.LBB7:
  79:../src/renesas/application/common/console/wild_compare.c ****         {
 181              		.loc 1 79 0 is_stmt 0 discriminator 4
 182 0070 0050D6E5 		ldrb	r5, [r6]	@ zero_extendqisi2
 183              	.LVL25:
 184 0074 FEFFFFEB 		bl	__locale_ctype_ptr
 185              	.LVL26:
 186 0078 050080E0 		add	r0, r0, r5
 187 007c 0130D0E5 		ldrb	r3, [r0, #1]	@ zero_extendqisi2
 188 0080 033003E2 		and	r3, r3, #3
 189 0084 010053E3 		cmp	r3, #1
  79:../src/renesas/application/common/console/wild_compare.c ****         {
 190              		.loc 1 79 0 discriminator 5
 191 0088 20508502 		addeq	r5, r5, #32
 192              	.LVL27:
 193 008c E8FFFFEA 		b	.L20
 194              	.LVL28:
 195              	.L39:
 196              	.LBE7:
  91:../src/renesas/application/common/console/wild_compare.c ****     }
 197              		.loc 1 91 0 is_stmt 1
 198 0090 0000A0E3 		mov	r0, #0
 199 0094 F081BDE8 		pop	{r4, r5, r6, r7, r8, pc}
 200              	.L24:
 201              	.LVL29:
 103:../src/renesas/application/common/console/wild_compare.c ****                 }
 202              		.loc 1 103 0
 203 0098 014084E2 		add	r4, r4, #1
 204              	.LVL30:
 205              	.L22:
 101:../src/renesas/application/common/console/wild_compare.c ****                 {
 206              		.loc 1 101 0
 207 009c 0010D4E5 		ldrb	r1, [r4]	@ zero_extendqisi2
 208 00a0 2A0051E3 		cmp	r1, #42
 209 00a4 FBFFFF0A 		beq	.L24
 107:../src/renesas/application/common/console/wild_compare.c ****                 {
 210              		.loc 1 107 0
 211 00a8 000051E3 		cmp	r1, #0
 212 00ac 2800000A 		beq	.L33
 110:../src/renesas/application/common/console/wild_compare.c **** 
 213              		.loc 1 110 0
 214 00b0 0600A0E1 		mov	r0, r6
 215 00b4 FEFFFFEB 		bl	wild_char
 216              	.LVL31:
 113:../src/renesas/application/common/console/wild_compare.c ****                     {
 217              		.loc 1 113 0
 218 00b8 006050E2 		subs	r6, r0, #0
 219 00bc 0500001A 		bne	.L25
 115:../src/renesas/application/common/console/wild_compare.c ****                     }
 220              		.loc 1 115 0
 221 00c0 0000A0E3 		mov	r0, #0
 222              	.LVL32:
 223 00c4 F081BDE8 		pop	{r4, r5, r6, r7, r8, pc}
 224              	.LVL33:
 225              	.L41:
 226              	.LBB8:
 132:../src/renesas/application/common/console/wild_compare.c ****                 {
 227              		.loc 1 132 0 discriminator 1
 228 00c8 205085E2 		add	r5, r5, #32
 229              	.LVL34:
 230 00cc 110000EA 		b	.L27
 231              	.LVL35:
 232              	.L29:
 233              	.LBE8:
 132:../src/renesas/application/common/console/wild_compare.c ****                 {
 234              		.loc 1 132 0 is_stmt 0 discriminator 8
 235 00d0 070055E1 		cmp	r5, r7
 236 00d4 2000001A 		bne	.L35
 237              	.L25:
 238              	.LVL36:
 139:../src/renesas/application/common/console/wild_compare.c ****             pszString++;
 239              		.loc 1 139 0 is_stmt 1
 240 00d8 014084E2 		add	r4, r4, #1
 241              	.LVL37:
 140:../src/renesas/application/common/console/wild_compare.c ****         }
 242              		.loc 1 140 0
 243 00dc 016086E2 		add	r6, r6, #1
 244              	.LVL38:
 245              	.L15:
  95:../src/renesas/application/common/console/wild_compare.c ****         {
 246              		.loc 1 95 0
 247 00e0 0050D4E5 		ldrb	r5, [r4]	@ zero_extendqisi2
 248 00e4 000055E3 		cmp	r5, #0
 249 00e8 1200000A 		beq	.L30
  95:../src/renesas/application/common/console/wild_compare.c ****         {
 250              		.loc 1 95 0 is_stmt 0 discriminator 1
 251 00ec 0030D6E5 		ldrb	r3, [r6]	@ zero_extendqisi2
 252 00f0 000053E3 		cmp	r3, #0
 253 00f4 0F00000A 		beq	.L30
  98:../src/renesas/application/common/console/wild_compare.c ****             {
 254              		.loc 1 98 0 is_stmt 1
 255 00f8 2A0055E3 		cmp	r5, #42
 256 00fc E6FFFF0A 		beq	.L22
 257              	.LVL39:
 258              	.LBB9:
 132:../src/renesas/application/common/console/wild_compare.c ****                 {
 259              		.loc 1 132 0
 260 0100 FEFFFFEB 		bl	__locale_ctype_ptr
 261              	.LVL40:
 262 0104 050080E0 		add	r0, r0, r5
 263 0108 0130D0E5 		ldrb	r3, [r0, #1]	@ zero_extendqisi2
 264 010c 033003E2 		and	r3, r3, #3
 265 0110 010053E3 		cmp	r3, #1
 266 0114 EBFFFF0A 		beq	.L41
 267              	.LVL41:
 268              	.L27:
 269              	.LBE9:
 270              	.LBB10:
 132:../src/renesas/application/common/console/wild_compare.c ****                 {
 271              		.loc 1 132 0 is_stmt 0 discriminator 4
 272 0118 0070D6E5 		ldrb	r7, [r6]	@ zero_extendqisi2
 273              	.LVL42:
 274 011c FEFFFFEB 		bl	__locale_ctype_ptr
 275              	.LVL43:
 276 0120 070080E0 		add	r0, r0, r7
 277 0124 0130D0E5 		ldrb	r3, [r0, #1]	@ zero_extendqisi2
 278 0128 033003E2 		and	r3, r3, #3
 279 012c 010053E3 		cmp	r3, #1
 132:../src/renesas/application/common/console/wild_compare.c ****                 {
 280              		.loc 1 132 0 discriminator 5
 281 0130 20708702 		addeq	r7, r7, #32
 282              	.LVL44:
 283 0134 E5FFFFEA 		b	.L29
 284              	.LVL45:
 285              	.L30:
 286              	.LBE10:
 144:../src/renesas/application/common/console/wild_compare.c ****         {
 287              		.loc 1 144 0 is_stmt 1
 288 0138 0030D6E5 		ldrb	r3, [r6]	@ zero_extendqisi2
 289 013c 030055E1 		cmp	r5, r3
 290 0140 0700000A 		beq	.L36
 146:../src/renesas/application/common/console/wild_compare.c ****         }
 291              		.loc 1 146 0
 292 0144 0000A0E3 		mov	r0, #0
 293 0148 F081BDE8 		pop	{r4, r5, r6, r7, r8, pc}
 294              	.LVL46:
 295              	.L32:
  85:../src/renesas/application/common/console/wild_compare.c ****             }
 296              		.loc 1 85 0
 297 014c 0100A0E3 		mov	r0, #1
 298 0150 F081BDE8 		pop	{r4, r5, r6, r7, r8, pc}
 299              	.LVL47:
 300              	.L33:
 126:../src/renesas/application/common/console/wild_compare.c ****                 }
 301              		.loc 1 126 0
 302 0154 0100A0E3 		mov	r0, #1
 303 0158 F081BDE8 		pop	{r4, r5, r6, r7, r8, pc}
 304              	.L35:
 134:../src/renesas/application/common/console/wild_compare.c ****                 }
 305              		.loc 1 134 0
 306 015c 0000A0E3 		mov	r0, #0
 307 0160 F081BDE8 		pop	{r4, r5, r6, r7, r8, pc}
 308              	.L36:
 150:../src/renesas/application/common/console/wild_compare.c **** }
 309              		.loc 1 150 0
 310 0164 0100A0E3 		mov	r0, #1
 151:../src/renesas/application/common/console/wild_compare.c **** /******************************************************************************
 311              		.loc 1 151 0
 312 0168 F081BDE8 		pop	{r4, r5, r6, r7, r8, pc}
 313              		.cfi_endproc
 314              	.LFE0:
 316              		.text
 317              	.Letext0:
 318              		.file 2 "c:\\program files (x86)\\gnu tools arm embedded\\6 2017-q2-update\\arm-none-eabi\\include
 319              		.file 3 "c:\\program files (x86)\\gnu tools arm embedded\\6 2017-q2-update\\arm-none-eabi\\include
 320              		.file 4 "c:\\program files (x86)\\gnu tools arm embedded\\6 2017-q2-update\\lib\\gcc\\arm-none-eab
 321              		.file 5 "c:\\program files (x86)\\gnu tools arm embedded\\6 2017-q2-update\\arm-none-eabi\\include
 322              		.file 6 "c:\\program files (x86)\\gnu tools arm embedded\\6 2017-q2-update\\arm-none-eabi\\include
 323              		.file 7 "c:\\program files (x86)\\gnu tools arm embedded\\6 2017-q2-update\\arm-none-eabi\\include
 324              		.file 8 "C:/Renesas/e2studio_2021_01_workspace_RZA2M_ANPR/ANPR_RZA2M_EBK/generate/system/inc/r_typ
 325              		.file 9 "c:\\program files (x86)\\gnu tools arm embedded\\6 2017-q2-update\\arm-none-eabi\\include