   1              		.cpu cortex-a9
   2              		.eabi_attribute 28, 1
   3              		.eabi_attribute 20, 1
   4              		.eabi_attribute 21, 1
   5              		.eabi_attribute 23, 3
   6              		.eabi_attribute 24, 1
   7              		.eabi_attribute 25, 1
   8              		.eabi_attribute 26, 1
   9              		.eabi_attribute 30, 2
  10              		.eabi_attribute 34, 0
  11              		.eabi_attribute 18, 4
  12              		.file	"greedy_memory_planner.cpp"
  13              		.text
  14              	.Ltext0:
  15              		.cfi_sections	.debug_frame
  16              		.section	.text._ZN6tflite19GreedyMemoryPlannerD2Ev,"ax",%progbits
  17              		.align	2
  18              		.global	_ZN6tflite19GreedyMemoryPlannerD2Ev
  19              		.syntax unified
  20              		.arm
  21              		.fpu neon
  23              	_ZN6tflite19GreedyMemoryPlannerD2Ev:
  24              		.fnstart
  25              	.LFB22:
  26              		.file 1 "../src/tensorflow_lite/src/tensorflow/lite/micro/memory_planner/greedy_memory_planner.cpp
   1:../src/tensorflow_lite/src/tensorflow/lite/micro/memory_planner/greedy_memory_planner.cpp **** /* Copyright 2019 The TensorFlow Authors. All Rights Reserved.
   2:../src/tensorflow_lite/src/tensorflow/lite/micro/memory_planner/greedy_memory_planner.cpp **** 
   3:../src/tensorflow_lite/src/tensorflow/lite/micro/memory_planner/greedy_memory_planner.cpp **** Licensed under the Apache License, Version 2.0 (the "License");
   4:../src/tensorflow_lite/src/tensorflow/lite/micro/memory_planner/greedy_memory_planner.cpp **** you may not use this file except in compliance with the License.
   5:../src/tensorflow_lite/src/tensorflow/lite/micro/memory_planner/greedy_memory_planner.cpp **** You may obtain a copy of the License at
   6:../src/tensorflow_lite/src/tensorflow/lite/micro/memory_planner/greedy_memory_planner.cpp **** 
   7:../src/tensorflow_lite/src/tensorflow/lite/micro/memory_planner/greedy_memory_planner.cpp ****     http://www.apache.org/licenses/LICENSE-2.0
   8:../src/tensorflow_lite/src/tensorflow/lite/micro/memory_planner/greedy_memory_planner.cpp **** 
   9:../src/tensorflow_lite/src/tensorflow/lite/micro/memory_planner/greedy_memory_planner.cpp **** Unless required by applicable law or agreed to in writing, software
  10:../src/tensorflow_lite/src/tensorflow/lite/micro/memory_planner/greedy_memory_planner.cpp **** distributed under the License is distributed on an "AS IS" BASIS,
  11:../src/tensorflow_lite/src/tensorflow/lite/micro/memory_planner/greedy_memory_planner.cpp **** WITHOUT WARRANTIES OR CONDITIONS OF ANY KIND, either express or implied.
  12:../src/tensorflow_lite/src/tensorflow/lite/micro/memory_planner/greedy_memory_planner.cpp **** See the License for the specific language governing permissions and
  13:../src/tensorflow_lite/src/tensorflow/lite/micro/memory_planner/greedy_memory_planner.cpp **** limitations under the License.
  14:../src/tensorflow_lite/src/tensorflow/lite/micro/memory_planner/greedy_memory_planner.cpp **** ==============================================================================*/
  15:../src/tensorflow_lite/src/tensorflow/lite/micro/memory_planner/greedy_memory_planner.cpp **** 
  16:../src/tensorflow_lite/src/tensorflow/lite/micro/memory_planner/greedy_memory_planner.cpp **** #include "tensorflow/lite/micro/memory_planner/greedy_memory_planner.h"
  17:../src/tensorflow_lite/src/tensorflow/lite/micro/memory_planner/greedy_memory_planner.cpp **** 
  18:../src/tensorflow_lite/src/tensorflow/lite/micro/memory_planner/greedy_memory_planner.cpp **** #include "tensorflow/lite/micro/micro_error_reporter.h"
  19:../src/tensorflow_lite/src/tensorflow/lite/micro/memory_planner/greedy_memory_planner.cpp **** #include "tensorflow/lite/micro/micro_string.h"
  20:../src/tensorflow_lite/src/tensorflow/lite/micro/memory_planner/greedy_memory_planner.cpp **** 
  21:../src/tensorflow_lite/src/tensorflow/lite/micro/memory_planner/greedy_memory_planner.cpp **** namespace tflite {
  22:../src/tensorflow_lite/src/tensorflow/lite/micro/memory_planner/greedy_memory_planner.cpp **** 
  23:../src/tensorflow_lite/src/tensorflow/lite/micro/memory_planner/greedy_memory_planner.cpp **** namespace {
  24:../src/tensorflow_lite/src/tensorflow/lite/micro/memory_planner/greedy_memory_planner.cpp **** 
  25:../src/tensorflow_lite/src/tensorflow/lite/micro/memory_planner/greedy_memory_planner.cpp **** // Returns a character representing a numbered buffer
  26:../src/tensorflow_lite/src/tensorflow/lite/micro/memory_planner/greedy_memory_planner.cpp **** // for GreedyMemoryPlanner::PrintMemoryPlan()
  27:../src/tensorflow_lite/src/tensorflow/lite/micro/memory_planner/greedy_memory_planner.cpp **** char GetOrdinalCharacter(int i) {
  28:../src/tensorflow_lite/src/tensorflow/lite/micro/memory_planner/greedy_memory_planner.cpp ****   if (i < 10) {
  29:../src/tensorflow_lite/src/tensorflow/lite/micro/memory_planner/greedy_memory_planner.cpp ****     return '0' + i;
  30:../src/tensorflow_lite/src/tensorflow/lite/micro/memory_planner/greedy_memory_planner.cpp ****   } else if (i < 36) {
  31:../src/tensorflow_lite/src/tensorflow/lite/micro/memory_planner/greedy_memory_planner.cpp ****     return 'a' + (i - 10);
  32:../src/tensorflow_lite/src/tensorflow/lite/micro/memory_planner/greedy_memory_planner.cpp ****   } else if (i < 62) {
  33:../src/tensorflow_lite/src/tensorflow/lite/micro/memory_planner/greedy_memory_planner.cpp ****     return 'A' + (i - 36);
  34:../src/tensorflow_lite/src/tensorflow/lite/micro/memory_planner/greedy_memory_planner.cpp ****   }
  35:../src/tensorflow_lite/src/tensorflow/lite/micro/memory_planner/greedy_memory_planner.cpp ****   return '*';
  36:../src/tensorflow_lite/src/tensorflow/lite/micro/memory_planner/greedy_memory_planner.cpp **** }
  37:../src/tensorflow_lite/src/tensorflow/lite/micro/memory_planner/greedy_memory_planner.cpp **** 
  38:../src/tensorflow_lite/src/tensorflow/lite/micro/memory_planner/greedy_memory_planner.cpp **** }  // namespace
  39:../src/tensorflow_lite/src/tensorflow/lite/micro/memory_planner/greedy_memory_planner.cpp **** 
  40:../src/tensorflow_lite/src/tensorflow/lite/micro/memory_planner/greedy_memory_planner.cpp **** // Simple stable in-place sort function. Not time-efficient for large arrays.
  41:../src/tensorflow_lite/src/tensorflow/lite/micro/memory_planner/greedy_memory_planner.cpp **** // Would normally be in an anonymous namespace to keep it private, but we want
  42:../src/tensorflow_lite/src/tensorflow/lite/micro/memory_planner/greedy_memory_planner.cpp **** // to be able to test it externally.
  43:../src/tensorflow_lite/src/tensorflow/lite/micro/memory_planner/greedy_memory_planner.cpp **** void ReverseSortInPlace(int* values, int* ids, int size) {
  44:../src/tensorflow_lite/src/tensorflow/lite/micro/memory_planner/greedy_memory_planner.cpp ****   bool any_swapped;
  45:../src/tensorflow_lite/src/tensorflow/lite/micro/memory_planner/greedy_memory_planner.cpp ****   do {
  46:../src/tensorflow_lite/src/tensorflow/lite/micro/memory_planner/greedy_memory_planner.cpp ****     any_swapped = false;
  47:../src/tensorflow_lite/src/tensorflow/lite/micro/memory_planner/greedy_memory_planner.cpp ****     for (int i = 1; i < size; ++i) {
  48:../src/tensorflow_lite/src/tensorflow/lite/micro/memory_planner/greedy_memory_planner.cpp ****       if (values[i - 1] < values[i]) {
  49:../src/tensorflow_lite/src/tensorflow/lite/micro/memory_planner/greedy_memory_planner.cpp ****         const int value_temp = values[i - 1];
  50:../src/tensorflow_lite/src/tensorflow/lite/micro/memory_planner/greedy_memory_planner.cpp ****         values[i - 1] = values[i];
  51:../src/tensorflow_lite/src/tensorflow/lite/micro/memory_planner/greedy_memory_planner.cpp ****         values[i] = value_temp;
  52:../src/tensorflow_lite/src/tensorflow/lite/micro/memory_planner/greedy_memory_planner.cpp ****         const int id_temp = ids[i - 1];
  53:../src/tensorflow_lite/src/tensorflow/lite/micro/memory_planner/greedy_memory_planner.cpp ****         ids[i - 1] = ids[i];
  54:../src/tensorflow_lite/src/tensorflow/lite/micro/memory_planner/greedy_memory_planner.cpp ****         ids[i] = id_temp;
  55:../src/tensorflow_lite/src/tensorflow/lite/micro/memory_planner/greedy_memory_planner.cpp ****         any_swapped = true;
  56:../src/tensorflow_lite/src/tensorflow/lite/micro/memory_planner/greedy_memory_planner.cpp ****       }
  57:../src/tensorflow_lite/src/tensorflow/lite/micro/memory_planner/greedy_memory_planner.cpp ****     }
  58:../src/tensorflow_lite/src/tensorflow/lite/micro/memory_planner/greedy_memory_planner.cpp ****   } while (any_swapped);
  59:../src/tensorflow_lite/src/tensorflow/lite/micro/memory_planner/greedy_memory_planner.cpp **** }
  60:../src/tensorflow_lite/src/tensorflow/lite/micro/memory_planner/greedy_memory_planner.cpp **** 
  61:../src/tensorflow_lite/src/tensorflow/lite/micro/memory_planner/greedy_memory_planner.cpp **** GreedyMemoryPlanner::GreedyMemoryPlanner(unsigned char* scratch_buffer,
  62:../src/tensorflow_lite/src/tensorflow/lite/micro/memory_planner/greedy_memory_planner.cpp ****                                          int scratch_buffer_size)
  63:../src/tensorflow_lite/src/tensorflow/lite/micro/memory_planner/greedy_memory_planner.cpp ****     : buffer_count_(0), need_to_calculate_offsets_(true) {
  64:../src/tensorflow_lite/src/tensorflow/lite/micro/memory_planner/greedy_memory_planner.cpp ****   // Allocate the arrays we need within the scratch buffer arena.
  65:../src/tensorflow_lite/src/tensorflow/lite/micro/memory_planner/greedy_memory_planner.cpp ****   max_buffer_count_ = scratch_buffer_size / per_buffer_size();
  66:../src/tensorflow_lite/src/tensorflow/lite/micro/memory_planner/greedy_memory_planner.cpp **** 
  67:../src/tensorflow_lite/src/tensorflow/lite/micro/memory_planner/greedy_memory_planner.cpp ****   unsigned char* next_free = scratch_buffer;
  68:../src/tensorflow_lite/src/tensorflow/lite/micro/memory_planner/greedy_memory_planner.cpp ****   requirements_ = reinterpret_cast<BufferRequirements*>(next_free);
  69:../src/tensorflow_lite/src/tensorflow/lite/micro/memory_planner/greedy_memory_planner.cpp ****   next_free += sizeof(BufferRequirements) * max_buffer_count_;
  70:../src/tensorflow_lite/src/tensorflow/lite/micro/memory_planner/greedy_memory_planner.cpp **** 
  71:../src/tensorflow_lite/src/tensorflow/lite/micro/memory_planner/greedy_memory_planner.cpp ****   buffer_sizes_sorted_ = reinterpret_cast<int*>(next_free);
  72:../src/tensorflow_lite/src/tensorflow/lite/micro/memory_planner/greedy_memory_planner.cpp ****   next_free += sizeof(int) * max_buffer_count_;
  73:../src/tensorflow_lite/src/tensorflow/lite/micro/memory_planner/greedy_memory_planner.cpp **** 
  74:../src/tensorflow_lite/src/tensorflow/lite/micro/memory_planner/greedy_memory_planner.cpp ****   buffer_ids_sorted_ = reinterpret_cast<int*>(next_free);
  75:../src/tensorflow_lite/src/tensorflow/lite/micro/memory_planner/greedy_memory_planner.cpp ****   next_free += sizeof(int) * max_buffer_count_;
  76:../src/tensorflow_lite/src/tensorflow/lite/micro/memory_planner/greedy_memory_planner.cpp **** 
  77:../src/tensorflow_lite/src/tensorflow/lite/micro/memory_planner/greedy_memory_planner.cpp ****   buffers_sorted_by_offset_ = reinterpret_cast<ListEntry*>(next_free);
  78:../src/tensorflow_lite/src/tensorflow/lite/micro/memory_planner/greedy_memory_planner.cpp ****   next_free += sizeof(ListEntry) * max_buffer_count_;
  79:../src/tensorflow_lite/src/tensorflow/lite/micro/memory_planner/greedy_memory_planner.cpp **** 
  80:../src/tensorflow_lite/src/tensorflow/lite/micro/memory_planner/greedy_memory_planner.cpp ****   buffer_offsets_ = reinterpret_cast<int*>(next_free);
  81:../src/tensorflow_lite/src/tensorflow/lite/micro/memory_planner/greedy_memory_planner.cpp **** }
  82:../src/tensorflow_lite/src/tensorflow/lite/micro/memory_planner/greedy_memory_planner.cpp **** 
  83:../src/tensorflow_lite/src/tensorflow/lite/micro/memory_planner/greedy_memory_planner.cpp **** GreedyMemoryPlanner::~GreedyMemoryPlanner() {
  27              		.loc 1 83 0
  28              		.cfi_startproc
  29              		@ args = 0, pretend = 0, frame = 0
  30              		@ frame_needed = 0, uses_anonymous_args = 0
  31              		@ link register save eliminated.
  32              	.LVL0:
  84:../src/tensorflow_lite/src/tensorflow/lite/micro/memory_planner/greedy_memory_planner.cpp ****   // We don't own the scratch buffer, so don't deallocate anything.
  85:../src/tensorflow_lite/src/tensorflow/lite/micro/memory_planner/greedy_memory_planner.cpp **** }
  33              		.loc 1 85 0
  34 0000 1EFF2FE1 		bx	lr
  35              		.cfi_endproc
  36              	.LFE22:
  37              		.cantunwind
  38              		.fnend
  40              		.global	_ZN6tflite19GreedyMemoryPlannerD1Ev
  41              		.set	_ZN6tflite19GreedyMemoryPlannerD1Ev,_ZN6tflite19GreedyMemoryPlannerD2Ev
  42              		.section	.text._ZN6tflite19GreedyMemoryPlanner14GetBufferCountEv,"ax",%progbits
  43              		.align	2
  44              		.global	_ZN6tflite19GreedyMemoryPlanner14GetBufferCountEv
  45              		.syntax unified
  46              		.arm
  47              		.fpu neon
  49              	_ZN6tflite19GreedyMemoryPlanner14GetBufferCountEv:
  50              		.fnstart
  51              	.LFB32:
  86:../src/tensorflow_lite/src/tensorflow/lite/micro/memory_planner/greedy_memory_planner.cpp **** 
  87:../src/tensorflow_lite/src/tensorflow/lite/micro/memory_planner/greedy_memory_planner.cpp **** TfLiteStatus GreedyMemoryPlanner::AddBuffer(
  88:../src/tensorflow_lite/src/tensorflow/lite/micro/memory_planner/greedy_memory_planner.cpp ****     tflite::ErrorReporter* error_reporter, int size, int first_time_used,
  89:../src/tensorflow_lite/src/tensorflow/lite/micro/memory_planner/greedy_memory_planner.cpp ****     int last_time_used) {
  90:../src/tensorflow_lite/src/tensorflow/lite/micro/memory_planner/greedy_memory_planner.cpp ****   if (buffer_count_ >= max_buffer_count_) {
  91:../src/tensorflow_lite/src/tensorflow/lite/micro/memory_planner/greedy_memory_planner.cpp ****     TF_LITE_REPORT_ERROR(error_reporter, "Too many buffers (max is %d)",
  92:../src/tensorflow_lite/src/tensorflow/lite/micro/memory_planner/greedy_memory_planner.cpp ****                          max_buffer_count_);
  93:../src/tensorflow_lite/src/tensorflow/lite/micro/memory_planner/greedy_memory_planner.cpp ****     return kTfLiteError;
  94:../src/tensorflow_lite/src/tensorflow/lite/micro/memory_planner/greedy_memory_planner.cpp ****   }
  95:../src/tensorflow_lite/src/tensorflow/lite/micro/memory_planner/greedy_memory_planner.cpp ****   BufferRequirements* current = &requirements_[buffer_count_];
  96:../src/tensorflow_lite/src/tensorflow/lite/micro/memory_planner/greedy_memory_planner.cpp ****   current->size = size;
  97:../src/tensorflow_lite/src/tensorflow/lite/micro/memory_planner/greedy_memory_planner.cpp ****   current->first_time_used = first_time_used;
  98:../src/tensorflow_lite/src/tensorflow/lite/micro/memory_planner/greedy_memory_planner.cpp ****   current->last_time_used = last_time_used;
  99:../src/tensorflow_lite/src/tensorflow/lite/micro/memory_planner/greedy_memory_planner.cpp ****   current->offline_offset = kOnlinePlannedBuffer;
 100:../src/tensorflow_lite/src/tensorflow/lite/micro/memory_planner/greedy_memory_planner.cpp ****   ++buffer_count_;
 101:../src/tensorflow_lite/src/tensorflow/lite/micro/memory_planner/greedy_memory_planner.cpp ****   need_to_calculate_offsets_ = true;
 102:../src/tensorflow_lite/src/tensorflow/lite/micro/memory_planner/greedy_memory_planner.cpp ****   return kTfLiteOk;
 103:../src/tensorflow_lite/src/tensorflow/lite/micro/memory_planner/greedy_memory_planner.cpp **** }
 104:../src/tensorflow_lite/src/tensorflow/lite/micro/memory_planner/greedy_memory_planner.cpp **** 
 105:../src/tensorflow_lite/src/tensorflow/lite/micro/memory_planner/greedy_memory_planner.cpp **** TfLiteStatus GreedyMemoryPlanner::AddBuffer(
 106:../src/tensorflow_lite/src/tensorflow/lite/micro/memory_planner/greedy_memory_planner.cpp ****     tflite::ErrorReporter* error_reporter, int size, int first_time_used,
 107:../src/tensorflow_lite/src/tensorflow/lite/micro/memory_planner/greedy_memory_planner.cpp ****     int last_time_used, int offline_offset) {
 108:../src/tensorflow_lite/src/tensorflow/lite/micro/memory_planner/greedy_memory_planner.cpp ****   BufferRequirements* current = &requirements_[buffer_count_];
 109:../src/tensorflow_lite/src/tensorflow/lite/micro/memory_planner/greedy_memory_planner.cpp ****   if (AddBuffer(error_reporter, size, first_time_used, last_time_used) !=
 110:../src/tensorflow_lite/src/tensorflow/lite/micro/memory_planner/greedy_memory_planner.cpp ****       kTfLiteOk) {
 111:../src/tensorflow_lite/src/tensorflow/lite/micro/memory_planner/greedy_memory_planner.cpp ****     return kTfLiteError;
 112:../src/tensorflow_lite/src/tensorflow/lite/micro/memory_planner/greedy_memory_planner.cpp ****   }
 113:../src/tensorflow_lite/src/tensorflow/lite/micro/memory_planner/greedy_memory_planner.cpp ****   current->offline_offset = offline_offset;
 114:../src/tensorflow_lite/src/tensorflow/lite/micro/memory_planner/greedy_memory_planner.cpp ****   return kTfLiteOk;
 115:../src/tensorflow_lite/src/tensorflow/lite/micro/memory_planner/greedy_memory_planner.cpp **** }
 116:../src/tensorflow_lite/src/tensorflow/lite/micro/memory_planner/greedy_memory_planner.cpp **** 
 117:../src/tensorflow_lite/src/tensorflow/lite/micro/memory_planner/greedy_memory_planner.cpp **** bool GreedyMemoryPlanner::DoesEntryOverlapInTime(
 118:../src/tensorflow_lite/src/tensorflow/lite/micro/memory_planner/greedy_memory_planner.cpp ****     const GreedyMemoryPlanner::ListEntry* entry, const int first_time_used,
 119:../src/tensorflow_lite/src/tensorflow/lite/micro/memory_planner/greedy_memory_planner.cpp ****     const int last_time_used) const {
 120:../src/tensorflow_lite/src/tensorflow/lite/micro/memory_planner/greedy_memory_planner.cpp ****   const BufferRequirements* entry_requirements =
 121:../src/tensorflow_lite/src/tensorflow/lite/micro/memory_planner/greedy_memory_planner.cpp ****       &requirements_[entry->requirements_index];
 122:../src/tensorflow_lite/src/tensorflow/lite/micro/memory_planner/greedy_memory_planner.cpp ****   if (entry_requirements->first_time_used > last_time_used) {
 123:../src/tensorflow_lite/src/tensorflow/lite/micro/memory_planner/greedy_memory_planner.cpp ****     return false;
 124:../src/tensorflow_lite/src/tensorflow/lite/micro/memory_planner/greedy_memory_planner.cpp ****   }
 125:../src/tensorflow_lite/src/tensorflow/lite/micro/memory_planner/greedy_memory_planner.cpp ****   if (first_time_used > entry_requirements->last_time_used) {
 126:../src/tensorflow_lite/src/tensorflow/lite/micro/memory_planner/greedy_memory_planner.cpp ****     return false;
 127:../src/tensorflow_lite/src/tensorflow/lite/micro/memory_planner/greedy_memory_planner.cpp ****   }
 128:../src/tensorflow_lite/src/tensorflow/lite/micro/memory_planner/greedy_memory_planner.cpp ****   return true;
 129:../src/tensorflow_lite/src/tensorflow/lite/micro/memory_planner/greedy_memory_planner.cpp **** }
 130:../src/tensorflow_lite/src/tensorflow/lite/micro/memory_planner/greedy_memory_planner.cpp **** 
 131:../src/tensorflow_lite/src/tensorflow/lite/micro/memory_planner/greedy_memory_planner.cpp **** GreedyMemoryPlanner::ListEntry*
 132:../src/tensorflow_lite/src/tensorflow/lite/micro/memory_planner/greedy_memory_planner.cpp **** GreedyMemoryPlanner::NextSimultaneouslyActiveBuffer(
 133:../src/tensorflow_lite/src/tensorflow/lite/micro/memory_planner/greedy_memory_planner.cpp ****     const GreedyMemoryPlanner::ListEntry* start, const int first_time_used,
 134:../src/tensorflow_lite/src/tensorflow/lite/micro/memory_planner/greedy_memory_planner.cpp ****     const int last_time_used) {
 135:../src/tensorflow_lite/src/tensorflow/lite/micro/memory_planner/greedy_memory_planner.cpp ****   ListEntry* result = nullptr;
 136:../src/tensorflow_lite/src/tensorflow/lite/micro/memory_planner/greedy_memory_planner.cpp ****   ListEntry* candidate_next_entry;
 137:../src/tensorflow_lite/src/tensorflow/lite/micro/memory_planner/greedy_memory_planner.cpp ****   if (start == nullptr) {
 138:../src/tensorflow_lite/src/tensorflow/lite/micro/memory_planner/greedy_memory_planner.cpp ****     candidate_next_entry = &buffers_sorted_by_offset_[first_entry_index_];
 139:../src/tensorflow_lite/src/tensorflow/lite/micro/memory_planner/greedy_memory_planner.cpp ****   } else {
 140:../src/tensorflow_lite/src/tensorflow/lite/micro/memory_planner/greedy_memory_planner.cpp ****     if (start->next_entry_index == -1) {
 141:../src/tensorflow_lite/src/tensorflow/lite/micro/memory_planner/greedy_memory_planner.cpp ****       return nullptr;
 142:../src/tensorflow_lite/src/tensorflow/lite/micro/memory_planner/greedy_memory_planner.cpp ****     }
 143:../src/tensorflow_lite/src/tensorflow/lite/micro/memory_planner/greedy_memory_planner.cpp ****     candidate_next_entry = &buffers_sorted_by_offset_[start->next_entry_index];
 144:../src/tensorflow_lite/src/tensorflow/lite/micro/memory_planner/greedy_memory_planner.cpp ****   }
 145:../src/tensorflow_lite/src/tensorflow/lite/micro/memory_planner/greedy_memory_planner.cpp ****   do {
 146:../src/tensorflow_lite/src/tensorflow/lite/micro/memory_planner/greedy_memory_planner.cpp ****     if (DoesEntryOverlapInTime(candidate_next_entry, first_time_used,
 147:../src/tensorflow_lite/src/tensorflow/lite/micro/memory_planner/greedy_memory_planner.cpp ****                                last_time_used)) {
 148:../src/tensorflow_lite/src/tensorflow/lite/micro/memory_planner/greedy_memory_planner.cpp ****       result = candidate_next_entry;
 149:../src/tensorflow_lite/src/tensorflow/lite/micro/memory_planner/greedy_memory_planner.cpp ****       break;
 150:../src/tensorflow_lite/src/tensorflow/lite/micro/memory_planner/greedy_memory_planner.cpp ****     }
 151:../src/tensorflow_lite/src/tensorflow/lite/micro/memory_planner/greedy_memory_planner.cpp ****     if (candidate_next_entry->next_entry_index == -1) {
 152:../src/tensorflow_lite/src/tensorflow/lite/micro/memory_planner/greedy_memory_planner.cpp ****       break;
 153:../src/tensorflow_lite/src/tensorflow/lite/micro/memory_planner/greedy_memory_planner.cpp ****     }
 154:../src/tensorflow_lite/src/tensorflow/lite/micro/memory_planner/greedy_memory_planner.cpp ****     candidate_next_entry =
 155:../src/tensorflow_lite/src/tensorflow/lite/micro/memory_planner/greedy_memory_planner.cpp ****         &buffers_sorted_by_offset_[candidate_next_entry->next_entry_index];
 156:../src/tensorflow_lite/src/tensorflow/lite/micro/memory_planner/greedy_memory_planner.cpp ****   } while (true);
 157:../src/tensorflow_lite/src/tensorflow/lite/micro/memory_planner/greedy_memory_planner.cpp ****   return result;
 158:../src/tensorflow_lite/src/tensorflow/lite/micro/memory_planner/greedy_memory_planner.cpp **** }
 159:../src/tensorflow_lite/src/tensorflow/lite/micro/memory_planner/greedy_memory_planner.cpp **** 
 160:../src/tensorflow_lite/src/tensorflow/lite/micro/memory_planner/greedy_memory_planner.cpp **** void GreedyMemoryPlanner::CalculateOffsetsIfNeeded() {
 161:../src/tensorflow_lite/src/tensorflow/lite/micro/memory_planner/greedy_memory_planner.cpp ****   if (!need_to_calculate_offsets_ || (buffer_count_ == 0)) {
 162:../src/tensorflow_lite/src/tensorflow/lite/micro/memory_planner/greedy_memory_planner.cpp ****     return;
 163:../src/tensorflow_lite/src/tensorflow/lite/micro/memory_planner/greedy_memory_planner.cpp ****   }
 164:../src/tensorflow_lite/src/tensorflow/lite/micro/memory_planner/greedy_memory_planner.cpp ****   need_to_calculate_offsets_ = false;
 165:../src/tensorflow_lite/src/tensorflow/lite/micro/memory_planner/greedy_memory_planner.cpp **** 
 166:../src/tensorflow_lite/src/tensorflow/lite/micro/memory_planner/greedy_memory_planner.cpp ****   // Start off by ordering the buffers in descending order of size.
 167:../src/tensorflow_lite/src/tensorflow/lite/micro/memory_planner/greedy_memory_planner.cpp ****   // This helps find a more compact layout. Intuitively, you can think
 168:../src/tensorflow_lite/src/tensorflow/lite/micro/memory_planner/greedy_memory_planner.cpp ****   // about putting the large buffers in place first, and then the
 169:../src/tensorflow_lite/src/tensorflow/lite/micro/memory_planner/greedy_memory_planner.cpp ****   // smaller buffers can fit in the gaps, rather than fragmenting the
 170:../src/tensorflow_lite/src/tensorflow/lite/micro/memory_planner/greedy_memory_planner.cpp ****   // gaps with small buffers at the beginning. Add offline planned offsets
 171:../src/tensorflow_lite/src/tensorflow/lite/micro/memory_planner/greedy_memory_planner.cpp ****   // first in the list, since they have a predetermined offset.
 172:../src/tensorflow_lite/src/tensorflow/lite/micro/memory_planner/greedy_memory_planner.cpp ****   int idx_from_tail = buffer_count_;
 173:../src/tensorflow_lite/src/tensorflow/lite/micro/memory_planner/greedy_memory_planner.cpp ****   int idx_from_head = 0;
 174:../src/tensorflow_lite/src/tensorflow/lite/micro/memory_planner/greedy_memory_planner.cpp ****   for (int i = 0; i < buffer_count_; ++i) {
 175:../src/tensorflow_lite/src/tensorflow/lite/micro/memory_planner/greedy_memory_planner.cpp ****     if (requirements_[i].offline_offset == kOnlinePlannedBuffer) {
 176:../src/tensorflow_lite/src/tensorflow/lite/micro/memory_planner/greedy_memory_planner.cpp ****       idx_from_tail--;
 177:../src/tensorflow_lite/src/tensorflow/lite/micro/memory_planner/greedy_memory_planner.cpp ****       buffer_sizes_sorted_[idx_from_tail] = requirements_[i].size;
 178:../src/tensorflow_lite/src/tensorflow/lite/micro/memory_planner/greedy_memory_planner.cpp ****       buffer_ids_sorted_[idx_from_tail] = i;
 179:../src/tensorflow_lite/src/tensorflow/lite/micro/memory_planner/greedy_memory_planner.cpp ****       buffer_offsets_[i] = -1;
 180:../src/tensorflow_lite/src/tensorflow/lite/micro/memory_planner/greedy_memory_planner.cpp ****     } else {
 181:../src/tensorflow_lite/src/tensorflow/lite/micro/memory_planner/greedy_memory_planner.cpp ****       buffer_sizes_sorted_[idx_from_head] = requirements_[i].size;
 182:../src/tensorflow_lite/src/tensorflow/lite/micro/memory_planner/greedy_memory_planner.cpp ****       buffer_ids_sorted_[idx_from_head] = i;
 183:../src/tensorflow_lite/src/tensorflow/lite/micro/memory_planner/greedy_memory_planner.cpp ****       buffer_offsets_[i] = requirements_[i].offline_offset;
 184:../src/tensorflow_lite/src/tensorflow/lite/micro/memory_planner/greedy_memory_planner.cpp ****       idx_from_head++;
 185:../src/tensorflow_lite/src/tensorflow/lite/micro/memory_planner/greedy_memory_planner.cpp ****     }
 186:../src/tensorflow_lite/src/tensorflow/lite/micro/memory_planner/greedy_memory_planner.cpp ****   }
 187:../src/tensorflow_lite/src/tensorflow/lite/micro/memory_planner/greedy_memory_planner.cpp **** 
 188:../src/tensorflow_lite/src/tensorflow/lite/micro/memory_planner/greedy_memory_planner.cpp ****   // This sorting algorithm is naive, and may end up taking a very long time
 189:../src/tensorflow_lite/src/tensorflow/lite/micro/memory_planner/greedy_memory_planner.cpp ****   // with hundreds of buffers. Do not sort the offline planned offsets.
 190:../src/tensorflow_lite/src/tensorflow/lite/micro/memory_planner/greedy_memory_planner.cpp ****   ReverseSortInPlace(&buffer_sizes_sorted_[idx_from_head],
 191:../src/tensorflow_lite/src/tensorflow/lite/micro/memory_planner/greedy_memory_planner.cpp ****                      &buffer_ids_sorted_[idx_from_head],
 192:../src/tensorflow_lite/src/tensorflow/lite/micro/memory_planner/greedy_memory_planner.cpp ****                      buffer_count_ - idx_from_head);
 193:../src/tensorflow_lite/src/tensorflow/lite/micro/memory_planner/greedy_memory_planner.cpp **** 
 194:../src/tensorflow_lite/src/tensorflow/lite/micro/memory_planner/greedy_memory_planner.cpp ****   // Initialize the first entry to the first buffer in
 195:../src/tensorflow_lite/src/tensorflow/lite/micro/memory_planner/greedy_memory_planner.cpp ****   // buffer_ids_sorted_.
 196:../src/tensorflow_lite/src/tensorflow/lite/micro/memory_planner/greedy_memory_planner.cpp ****   //   - If there are no offline planned offsets, the largest buffer will be
 197:../src/tensorflow_lite/src/tensorflow/lite/micro/memory_planner/greedy_memory_planner.cpp ****   //     first, and the buffers will be handled in size order.
 198:../src/tensorflow_lite/src/tensorflow/lite/micro/memory_planner/greedy_memory_planner.cpp ****   //   - If offline offsets are present, these will be handled first in order
 199:../src/tensorflow_lite/src/tensorflow/lite/micro/memory_planner/greedy_memory_planner.cpp ****   //     for the greedy algorithm to utilized gaps in the offline plan.
 200:../src/tensorflow_lite/src/tensorflow/lite/micro/memory_planner/greedy_memory_planner.cpp ****   first_entry_index_ = 0;
 201:../src/tensorflow_lite/src/tensorflow/lite/micro/memory_planner/greedy_memory_planner.cpp ****   next_free_entry_ = 1;
 202:../src/tensorflow_lite/src/tensorflow/lite/micro/memory_planner/greedy_memory_planner.cpp ****   ListEntry* first_entry = &buffers_sorted_by_offset_[first_entry_index_];
 203:../src/tensorflow_lite/src/tensorflow/lite/micro/memory_planner/greedy_memory_planner.cpp ****   first_entry->next_entry_index = -1;  // to mark the entry as end of list
 204:../src/tensorflow_lite/src/tensorflow/lite/micro/memory_planner/greedy_memory_planner.cpp ****   int buffer_id = buffer_ids_sorted_[0];
 205:../src/tensorflow_lite/src/tensorflow/lite/micro/memory_planner/greedy_memory_planner.cpp ****   first_entry->requirements_index = buffer_id;
 206:../src/tensorflow_lite/src/tensorflow/lite/micro/memory_planner/greedy_memory_planner.cpp ****   if (requirements_[buffer_id].offline_offset == kOnlinePlannedBuffer) {
 207:../src/tensorflow_lite/src/tensorflow/lite/micro/memory_planner/greedy_memory_planner.cpp ****     buffer_offsets_[buffer_id] = 0;
 208:../src/tensorflow_lite/src/tensorflow/lite/micro/memory_planner/greedy_memory_planner.cpp ****   }
 209:../src/tensorflow_lite/src/tensorflow/lite/micro/memory_planner/greedy_memory_planner.cpp ****   first_entry->offset = buffer_offsets_[buffer_id];
 210:../src/tensorflow_lite/src/tensorflow/lite/micro/memory_planner/greedy_memory_planner.cpp **** 
 211:../src/tensorflow_lite/src/tensorflow/lite/micro/memory_planner/greedy_memory_planner.cpp ****   // Work through the rest of the buffers to find a good gap to place each one.
 212:../src/tensorflow_lite/src/tensorflow/lite/micro/memory_planner/greedy_memory_planner.cpp ****   for (int i = 1; i < buffer_count_; ++i) {
 213:../src/tensorflow_lite/src/tensorflow/lite/micro/memory_planner/greedy_memory_planner.cpp ****     // The id is the order the buffer was originally added by the client.
 214:../src/tensorflow_lite/src/tensorflow/lite/micro/memory_planner/greedy_memory_planner.cpp ****     buffer_id = buffer_ids_sorted_[i];
 215:../src/tensorflow_lite/src/tensorflow/lite/micro/memory_planner/greedy_memory_planner.cpp ****     // Look at what size and time range the buffer needs to be active.
 216:../src/tensorflow_lite/src/tensorflow/lite/micro/memory_planner/greedy_memory_planner.cpp ****     BufferRequirements* wanted_requirements = &requirements_[buffer_id];
 217:../src/tensorflow_lite/src/tensorflow/lite/micro/memory_planner/greedy_memory_planner.cpp ****     const int wanted_size = wanted_requirements->size;
 218:../src/tensorflow_lite/src/tensorflow/lite/micro/memory_planner/greedy_memory_planner.cpp ****     const int wanted_first_time_used = wanted_requirements->first_time_used;
 219:../src/tensorflow_lite/src/tensorflow/lite/micro/memory_planner/greedy_memory_planner.cpp ****     const int wanted_last_time_used = wanted_requirements->last_time_used;
 220:../src/tensorflow_lite/src/tensorflow/lite/micro/memory_planner/greedy_memory_planner.cpp **** 
 221:../src/tensorflow_lite/src/tensorflow/lite/micro/memory_planner/greedy_memory_planner.cpp ****     // Find the first buffer that's active in our time range. All placed
 222:../src/tensorflow_lite/src/tensorflow/lite/micro/memory_planner/greedy_memory_planner.cpp ****     // buffers are stored in the order of their starting position in the arena
 223:../src/tensorflow_lite/src/tensorflow/lite/micro/memory_planner/greedy_memory_planner.cpp ****     // so that it's easy to find the next buffer in memory, and so the gap.
 224:../src/tensorflow_lite/src/tensorflow/lite/micro/memory_planner/greedy_memory_planner.cpp ****     // The candidate_entry variable holds the buffer that we're considering
 225:../src/tensorflow_lite/src/tensorflow/lite/micro/memory_planner/greedy_memory_planner.cpp ****     // placing the current buffer after.
 226:../src/tensorflow_lite/src/tensorflow/lite/micro/memory_planner/greedy_memory_planner.cpp **** 
 227:../src/tensorflow_lite/src/tensorflow/lite/micro/memory_planner/greedy_memory_planner.cpp ****     int candidate_offset = 0;
 228:../src/tensorflow_lite/src/tensorflow/lite/micro/memory_planner/greedy_memory_planner.cpp ****     // Loop through the offset-ordered list of buffers, looking for gaps.
 229:../src/tensorflow_lite/src/tensorflow/lite/micro/memory_planner/greedy_memory_planner.cpp ****     if (wanted_requirements->offline_offset == kOnlinePlannedBuffer) {
 230:../src/tensorflow_lite/src/tensorflow/lite/micro/memory_planner/greedy_memory_planner.cpp ****       ListEntry* prior_entry = nullptr;
 231:../src/tensorflow_lite/src/tensorflow/lite/micro/memory_planner/greedy_memory_planner.cpp ****       while (true) {
 232:../src/tensorflow_lite/src/tensorflow/lite/micro/memory_planner/greedy_memory_planner.cpp ****         // Find out what the next active buffer is.
 233:../src/tensorflow_lite/src/tensorflow/lite/micro/memory_planner/greedy_memory_planner.cpp ****         ListEntry* next_entry = NextSimultaneouslyActiveBuffer(
 234:../src/tensorflow_lite/src/tensorflow/lite/micro/memory_planner/greedy_memory_planner.cpp ****             prior_entry, wanted_first_time_used, wanted_last_time_used);
 235:../src/tensorflow_lite/src/tensorflow/lite/micro/memory_planner/greedy_memory_planner.cpp **** 
 236:../src/tensorflow_lite/src/tensorflow/lite/micro/memory_planner/greedy_memory_planner.cpp ****         if (prior_entry) {
 237:../src/tensorflow_lite/src/tensorflow/lite/micro/memory_planner/greedy_memory_planner.cpp ****           BufferRequirements* candidate_requirements =
 238:../src/tensorflow_lite/src/tensorflow/lite/micro/memory_planner/greedy_memory_planner.cpp ****               &requirements_[prior_entry->requirements_index];
 239:../src/tensorflow_lite/src/tensorflow/lite/micro/memory_planner/greedy_memory_planner.cpp ****           const int prior_entry_offset =
 240:../src/tensorflow_lite/src/tensorflow/lite/micro/memory_planner/greedy_memory_planner.cpp ****               prior_entry->offset + candidate_requirements->size;
 241:../src/tensorflow_lite/src/tensorflow/lite/micro/memory_planner/greedy_memory_planner.cpp ****           if (prior_entry_offset > candidate_offset) {
 242:../src/tensorflow_lite/src/tensorflow/lite/micro/memory_planner/greedy_memory_planner.cpp ****             candidate_offset = prior_entry_offset;
 243:../src/tensorflow_lite/src/tensorflow/lite/micro/memory_planner/greedy_memory_planner.cpp ****           }
 244:../src/tensorflow_lite/src/tensorflow/lite/micro/memory_planner/greedy_memory_planner.cpp ****         }
 245:../src/tensorflow_lite/src/tensorflow/lite/micro/memory_planner/greedy_memory_planner.cpp ****         if (next_entry == nullptr) {
 246:../src/tensorflow_lite/src/tensorflow/lite/micro/memory_planner/greedy_memory_planner.cpp ****           // We're at the end of the list, so we can always append the buffer
 247:../src/tensorflow_lite/src/tensorflow/lite/micro/memory_planner/greedy_memory_planner.cpp ****           // here.
 248:../src/tensorflow_lite/src/tensorflow/lite/micro/memory_planner/greedy_memory_planner.cpp ****           break;
 249:../src/tensorflow_lite/src/tensorflow/lite/micro/memory_planner/greedy_memory_planner.cpp ****         }
 250:../src/tensorflow_lite/src/tensorflow/lite/micro/memory_planner/greedy_memory_planner.cpp ****         // Find out how much space there is between us and the next buffer.
 251:../src/tensorflow_lite/src/tensorflow/lite/micro/memory_planner/greedy_memory_planner.cpp ****         const int gap = next_entry->offset - candidate_offset;
 252:../src/tensorflow_lite/src/tensorflow/lite/micro/memory_planner/greedy_memory_planner.cpp ****         if (gap >= wanted_size) {
 253:../src/tensorflow_lite/src/tensorflow/lite/micro/memory_planner/greedy_memory_planner.cpp ****           // This entry has a big enough gap between it and the next, so
 254:../src/tensorflow_lite/src/tensorflow/lite/micro/memory_planner/greedy_memory_planner.cpp ****           // use it!
 255:../src/tensorflow_lite/src/tensorflow/lite/micro/memory_planner/greedy_memory_planner.cpp ****           break;
 256:../src/tensorflow_lite/src/tensorflow/lite/micro/memory_planner/greedy_memory_planner.cpp ****         }
 257:../src/tensorflow_lite/src/tensorflow/lite/micro/memory_planner/greedy_memory_planner.cpp ****         // The gap wasn't big enough, so move on to another candidate.
 258:../src/tensorflow_lite/src/tensorflow/lite/micro/memory_planner/greedy_memory_planner.cpp ****         prior_entry = next_entry;
 259:../src/tensorflow_lite/src/tensorflow/lite/micro/memory_planner/greedy_memory_planner.cpp ****       }
 260:../src/tensorflow_lite/src/tensorflow/lite/micro/memory_planner/greedy_memory_planner.cpp ****     } else {
 261:../src/tensorflow_lite/src/tensorflow/lite/micro/memory_planner/greedy_memory_planner.cpp ****       // Offline planned offset are to be considered constant
 262:../src/tensorflow_lite/src/tensorflow/lite/micro/memory_planner/greedy_memory_planner.cpp ****       candidate_offset = wanted_requirements->offline_offset;
 263:../src/tensorflow_lite/src/tensorflow/lite/micro/memory_planner/greedy_memory_planner.cpp ****     }
 264:../src/tensorflow_lite/src/tensorflow/lite/micro/memory_planner/greedy_memory_planner.cpp ****     // At this point, we've either found a gap (possibly at the end of the
 265:../src/tensorflow_lite/src/tensorflow/lite/micro/memory_planner/greedy_memory_planner.cpp ****     // list) and want to place the buffer there, or there are no other active
 266:../src/tensorflow_lite/src/tensorflow/lite/micro/memory_planner/greedy_memory_planner.cpp ****     // buffers in this time range and so we can put it at offset zero.
 267:../src/tensorflow_lite/src/tensorflow/lite/micro/memory_planner/greedy_memory_planner.cpp ****     // Record the buffer's offset in our plan.
 268:../src/tensorflow_lite/src/tensorflow/lite/micro/memory_planner/greedy_memory_planner.cpp ****     buffer_offsets_[buffer_id] = candidate_offset;
 269:../src/tensorflow_lite/src/tensorflow/lite/micro/memory_planner/greedy_memory_planner.cpp ****     // Add the newly-placed buffer to our offset-ordered list, so that
 270:../src/tensorflow_lite/src/tensorflow/lite/micro/memory_planner/greedy_memory_planner.cpp ****     // subsequent passes can fit in their buffers around it.
 271:../src/tensorflow_lite/src/tensorflow/lite/micro/memory_planner/greedy_memory_planner.cpp ****     ListEntry* new_entry = &buffers_sorted_by_offset_[next_free_entry_];
 272:../src/tensorflow_lite/src/tensorflow/lite/micro/memory_planner/greedy_memory_planner.cpp ****     new_entry->offset = candidate_offset;
 273:../src/tensorflow_lite/src/tensorflow/lite/micro/memory_planner/greedy_memory_planner.cpp ****     new_entry->requirements_index = buffer_id;
 274:../src/tensorflow_lite/src/tensorflow/lite/micro/memory_planner/greedy_memory_planner.cpp ****     const int new_entry_index = next_free_entry_;
 275:../src/tensorflow_lite/src/tensorflow/lite/micro/memory_planner/greedy_memory_planner.cpp ****     ++next_free_entry_;
 276:../src/tensorflow_lite/src/tensorflow/lite/micro/memory_planner/greedy_memory_planner.cpp **** 
 277:../src/tensorflow_lite/src/tensorflow/lite/micro/memory_planner/greedy_memory_planner.cpp ****     if (first_entry->offset > candidate_offset) {
 278:../src/tensorflow_lite/src/tensorflow/lite/micro/memory_planner/greedy_memory_planner.cpp ****       // The new entry offset is smaller than the first entry offset =>
 279:../src/tensorflow_lite/src/tensorflow/lite/micro/memory_planner/greedy_memory_planner.cpp ****       // replace the first entry
 280:../src/tensorflow_lite/src/tensorflow/lite/micro/memory_planner/greedy_memory_planner.cpp ****       first_entry = new_entry;
 281:../src/tensorflow_lite/src/tensorflow/lite/micro/memory_planner/greedy_memory_planner.cpp ****       first_entry->next_entry_index = first_entry_index_;
 282:../src/tensorflow_lite/src/tensorflow/lite/micro/memory_planner/greedy_memory_planner.cpp ****       first_entry_index_ = new_entry_index;
 283:../src/tensorflow_lite/src/tensorflow/lite/micro/memory_planner/greedy_memory_planner.cpp ****     } else {
 284:../src/tensorflow_lite/src/tensorflow/lite/micro/memory_planner/greedy_memory_planner.cpp ****       ListEntry* current_entry = first_entry;
 285:../src/tensorflow_lite/src/tensorflow/lite/micro/memory_planner/greedy_memory_planner.cpp ****       // Make sure that we insert the buffer at the correct place in the
 286:../src/tensorflow_lite/src/tensorflow/lite/micro/memory_planner/greedy_memory_planner.cpp ****       // buffer-offset-ordered list
 287:../src/tensorflow_lite/src/tensorflow/lite/micro/memory_planner/greedy_memory_planner.cpp ****       while (true) {
 288:../src/tensorflow_lite/src/tensorflow/lite/micro/memory_planner/greedy_memory_planner.cpp ****         const int next_entry_index = current_entry->next_entry_index;
 289:../src/tensorflow_lite/src/tensorflow/lite/micro/memory_planner/greedy_memory_planner.cpp ****         if (next_entry_index == -1) {
 290:../src/tensorflow_lite/src/tensorflow/lite/micro/memory_planner/greedy_memory_planner.cpp ****           // We're at the end of the list, so just add the new entry here.
 291:../src/tensorflow_lite/src/tensorflow/lite/micro/memory_planner/greedy_memory_planner.cpp ****           current_entry->next_entry_index = new_entry_index;
 292:../src/tensorflow_lite/src/tensorflow/lite/micro/memory_planner/greedy_memory_planner.cpp ****           new_entry->next_entry_index = -1;
 293:../src/tensorflow_lite/src/tensorflow/lite/micro/memory_planner/greedy_memory_planner.cpp ****           break;
 294:../src/tensorflow_lite/src/tensorflow/lite/micro/memory_planner/greedy_memory_planner.cpp ****         }
 295:../src/tensorflow_lite/src/tensorflow/lite/micro/memory_planner/greedy_memory_planner.cpp ****         // not at the end of the list -> take a look at next entry
 296:../src/tensorflow_lite/src/tensorflow/lite/micro/memory_planner/greedy_memory_planner.cpp ****         ListEntry* next_entry = &buffers_sorted_by_offset_[next_entry_index];
 297:../src/tensorflow_lite/src/tensorflow/lite/micro/memory_planner/greedy_memory_planner.cpp ****         if (next_entry->offset > candidate_offset) {
 298:../src/tensorflow_lite/src/tensorflow/lite/micro/memory_planner/greedy_memory_planner.cpp ****           // We're at the right spot to do an insertion and retain the sorting
 299:../src/tensorflow_lite/src/tensorflow/lite/micro/memory_planner/greedy_memory_planner.cpp ****           // order, so place the new entry here.
 300:../src/tensorflow_lite/src/tensorflow/lite/micro/memory_planner/greedy_memory_planner.cpp ****           new_entry->next_entry_index = current_entry->next_entry_index;
 301:../src/tensorflow_lite/src/tensorflow/lite/micro/memory_planner/greedy_memory_planner.cpp ****           current_entry->next_entry_index = new_entry_index;
 302:../src/tensorflow_lite/src/tensorflow/lite/micro/memory_planner/greedy_memory_planner.cpp ****           break;
 303:../src/tensorflow_lite/src/tensorflow/lite/micro/memory_planner/greedy_memory_planner.cpp ****         }
 304:../src/tensorflow_lite/src/tensorflow/lite/micro/memory_planner/greedy_memory_planner.cpp ****         current_entry = next_entry;
 305:../src/tensorflow_lite/src/tensorflow/lite/micro/memory_planner/greedy_memory_planner.cpp ****       }
 306:../src/tensorflow_lite/src/tensorflow/lite/micro/memory_planner/greedy_memory_planner.cpp ****     }
 307:../src/tensorflow_lite/src/tensorflow/lite/micro/memory_planner/greedy_memory_planner.cpp ****   }
 308:../src/tensorflow_lite/src/tensorflow/lite/micro/memory_planner/greedy_memory_planner.cpp **** }
 309:../src/tensorflow_lite/src/tensorflow/lite/micro/memory_planner/greedy_memory_planner.cpp **** 
 310:../src/tensorflow_lite/src/tensorflow/lite/micro/memory_planner/greedy_memory_planner.cpp **** size_t GreedyMemoryPlanner::GetMaximumMemorySize() {
 311:../src/tensorflow_lite/src/tensorflow/lite/micro/memory_planner/greedy_memory_planner.cpp ****   CalculateOffsetsIfNeeded();
 312:../src/tensorflow_lite/src/tensorflow/lite/micro/memory_planner/greedy_memory_planner.cpp ****   if (buffer_count_ == 0) {
 313:../src/tensorflow_lite/src/tensorflow/lite/micro/memory_planner/greedy_memory_planner.cpp ****     return 0;
 314:../src/tensorflow_lite/src/tensorflow/lite/micro/memory_planner/greedy_memory_planner.cpp ****   }
 315:../src/tensorflow_lite/src/tensorflow/lite/micro/memory_planner/greedy_memory_planner.cpp ****   ListEntry* entry = &buffers_sorted_by_offset_[first_entry_index_];
 316:../src/tensorflow_lite/src/tensorflow/lite/micro/memory_planner/greedy_memory_planner.cpp ****   size_t max_size = 0;
 317:../src/tensorflow_lite/src/tensorflow/lite/micro/memory_planner/greedy_memory_planner.cpp ****   while (entry) {
 318:../src/tensorflow_lite/src/tensorflow/lite/micro/memory_planner/greedy_memory_planner.cpp ****     BufferRequirements* requirements =
 319:../src/tensorflow_lite/src/tensorflow/lite/micro/memory_planner/greedy_memory_planner.cpp ****         &requirements_[entry->requirements_index];
 320:../src/tensorflow_lite/src/tensorflow/lite/micro/memory_planner/greedy_memory_planner.cpp ****     const size_t current_size = entry->offset + requirements->size;
 321:../src/tensorflow_lite/src/tensorflow/lite/micro/memory_planner/greedy_memory_planner.cpp ****     if (current_size > max_size) {
 322:../src/tensorflow_lite/src/tensorflow/lite/micro/memory_planner/greedy_memory_planner.cpp ****       max_size = current_size;
 323:../src/tensorflow_lite/src/tensorflow/lite/micro/memory_planner/greedy_memory_planner.cpp ****     }
 324:../src/tensorflow_lite/src/tensorflow/lite/micro/memory_planner/greedy_memory_planner.cpp ****     if (entry->next_entry_index == -1) {
 325:../src/tensorflow_lite/src/tensorflow/lite/micro/memory_planner/greedy_memory_planner.cpp ****       break;
 326:../src/tensorflow_lite/src/tensorflow/lite/micro/memory_planner/greedy_memory_planner.cpp ****     }
 327:../src/tensorflow_lite/src/tensorflow/lite/micro/memory_planner/greedy_memory_planner.cpp ****     entry = &buffers_sorted_by_offset_[entry->next_entry_index];
 328:../src/tensorflow_lite/src/tensorflow/lite/micro/memory_planner/greedy_memory_planner.cpp ****   }
 329:../src/tensorflow_lite/src/tensorflow/lite/micro/memory_planner/greedy_memory_planner.cpp ****   return max_size;
 330:../src/tensorflow_lite/src/tensorflow/lite/micro/memory_planner/greedy_memory_planner.cpp **** }
 331:../src/tensorflow_lite/src/tensorflow/lite/micro/memory_planner/greedy_memory_planner.cpp **** 
 332:../src/tensorflow_lite/src/tensorflow/lite/micro/memory_planner/greedy_memory_planner.cpp **** void GreedyMemoryPlanner::PrintMemoryPlan() {
 333:../src/tensorflow_lite/src/tensorflow/lite/micro/memory_planner/greedy_memory_planner.cpp ****   CalculateOffsetsIfNeeded();
 334:../src/tensorflow_lite/src/tensorflow/lite/micro/memory_planner/greedy_memory_planner.cpp **** 
 335:../src/tensorflow_lite/src/tensorflow/lite/micro/memory_planner/greedy_memory_planner.cpp ****   for (int i = 0; i < buffer_count_; ++i) {
 336:../src/tensorflow_lite/src/tensorflow/lite/micro/memory_planner/greedy_memory_planner.cpp ****     MicroPrintf("%c (id=%d): size=%d, offset=%d, first_used=%d last_used=%d",
 337:../src/tensorflow_lite/src/tensorflow/lite/micro/memory_planner/greedy_memory_planner.cpp ****                 GetOrdinalCharacter(i), i, requirements_[i].size,
 338:../src/tensorflow_lite/src/tensorflow/lite/micro/memory_planner/greedy_memory_planner.cpp ****                 buffer_offsets_[i], requirements_[i].first_time_used,
 339:../src/tensorflow_lite/src/tensorflow/lite/micro/memory_planner/greedy_memory_planner.cpp ****                 requirements_[i].last_time_used);
 340:../src/tensorflow_lite/src/tensorflow/lite/micro/memory_planner/greedy_memory_planner.cpp ****   }
 341:../src/tensorflow_lite/src/tensorflow/lite/micro/memory_planner/greedy_memory_planner.cpp **** 
 342:../src/tensorflow_lite/src/tensorflow/lite/micro/memory_planner/greedy_memory_planner.cpp ****   constexpr int kLineWidth = 80;
 343:../src/tensorflow_lite/src/tensorflow/lite/micro/memory_planner/greedy_memory_planner.cpp ****   int max_size = kLineWidth;
 344:../src/tensorflow_lite/src/tensorflow/lite/micro/memory_planner/greedy_memory_planner.cpp ****   int max_time = 0;
 345:../src/tensorflow_lite/src/tensorflow/lite/micro/memory_planner/greedy_memory_planner.cpp ****   for (int i = 0; i < buffer_count_; ++i) {
 346:../src/tensorflow_lite/src/tensorflow/lite/micro/memory_planner/greedy_memory_planner.cpp ****     BufferRequirements* requirements = &requirements_[i];
 347:../src/tensorflow_lite/src/tensorflow/lite/micro/memory_planner/greedy_memory_planner.cpp ****     const int offset = buffer_offsets_[i];
 348:../src/tensorflow_lite/src/tensorflow/lite/micro/memory_planner/greedy_memory_planner.cpp ****     const int last_time_used = requirements->last_time_used;
 349:../src/tensorflow_lite/src/tensorflow/lite/micro/memory_planner/greedy_memory_planner.cpp ****     const int size = offset + requirements->size;
 350:../src/tensorflow_lite/src/tensorflow/lite/micro/memory_planner/greedy_memory_planner.cpp ****     if (size > max_size) {
 351:../src/tensorflow_lite/src/tensorflow/lite/micro/memory_planner/greedy_memory_planner.cpp ****       max_size = size;
 352:../src/tensorflow_lite/src/tensorflow/lite/micro/memory_planner/greedy_memory_planner.cpp ****     }
 353:../src/tensorflow_lite/src/tensorflow/lite/micro/memory_planner/greedy_memory_planner.cpp ****     if (last_time_used > max_time) {
 354:../src/tensorflow_lite/src/tensorflow/lite/micro/memory_planner/greedy_memory_planner.cpp ****       max_time = last_time_used;
 355:../src/tensorflow_lite/src/tensorflow/lite/micro/memory_planner/greedy_memory_planner.cpp ****     }
 356:../src/tensorflow_lite/src/tensorflow/lite/micro/memory_planner/greedy_memory_planner.cpp ****   }
 357:../src/tensorflow_lite/src/tensorflow/lite/micro/memory_planner/greedy_memory_planner.cpp **** 
 358:../src/tensorflow_lite/src/tensorflow/lite/micro/memory_planner/greedy_memory_planner.cpp ****   char line[kLineWidth + 1];
 359:../src/tensorflow_lite/src/tensorflow/lite/micro/memory_planner/greedy_memory_planner.cpp ****   for (int t = 0; t <= max_time; ++t) {
 360:../src/tensorflow_lite/src/tensorflow/lite/micro/memory_planner/greedy_memory_planner.cpp ****     for (int c = 0; c < kLineWidth; ++c) {
 361:../src/tensorflow_lite/src/tensorflow/lite/micro/memory_planner/greedy_memory_planner.cpp ****       line[c] = '.';
 362:../src/tensorflow_lite/src/tensorflow/lite/micro/memory_planner/greedy_memory_planner.cpp ****     }
 363:../src/tensorflow_lite/src/tensorflow/lite/micro/memory_planner/greedy_memory_planner.cpp ****     int memory_use = 0;
 364:../src/tensorflow_lite/src/tensorflow/lite/micro/memory_planner/greedy_memory_planner.cpp ****     for (int i = 0; i < buffer_count_; ++i) {
 365:../src/tensorflow_lite/src/tensorflow/lite/micro/memory_planner/greedy_memory_planner.cpp ****       BufferRequirements* requirements = &requirements_[i];
 366:../src/tensorflow_lite/src/tensorflow/lite/micro/memory_planner/greedy_memory_planner.cpp ****       if ((t < requirements->first_time_used) ||
 367:../src/tensorflow_lite/src/tensorflow/lite/micro/memory_planner/greedy_memory_planner.cpp ****           (t > requirements->last_time_used)) {
 368:../src/tensorflow_lite/src/tensorflow/lite/micro/memory_planner/greedy_memory_planner.cpp ****         continue;
 369:../src/tensorflow_lite/src/tensorflow/lite/micro/memory_planner/greedy_memory_planner.cpp ****       }
 370:../src/tensorflow_lite/src/tensorflow/lite/micro/memory_planner/greedy_memory_planner.cpp ****       const int offset = buffer_offsets_[i];
 371:../src/tensorflow_lite/src/tensorflow/lite/micro/memory_planner/greedy_memory_planner.cpp ****       if (offset == -1) {
 372:../src/tensorflow_lite/src/tensorflow/lite/micro/memory_planner/greedy_memory_planner.cpp ****         continue;
 373:../src/tensorflow_lite/src/tensorflow/lite/micro/memory_planner/greedy_memory_planner.cpp ****       }
 374:../src/tensorflow_lite/src/tensorflow/lite/micro/memory_planner/greedy_memory_planner.cpp ****       const int size = requirements->size;
 375:../src/tensorflow_lite/src/tensorflow/lite/micro/memory_planner/greedy_memory_planner.cpp ****       memory_use += size;
 376:../src/tensorflow_lite/src/tensorflow/lite/micro/memory_planner/greedy_memory_planner.cpp ****       const int line_start = (offset * kLineWidth) / max_size;
 377:../src/tensorflow_lite/src/tensorflow/lite/micro/memory_planner/greedy_memory_planner.cpp ****       const int line_end = ((offset + size) * kLineWidth) / max_size;
 378:../src/tensorflow_lite/src/tensorflow/lite/micro/memory_planner/greedy_memory_planner.cpp ****       for (int n = line_start; n < line_end; ++n) {
 379:../src/tensorflow_lite/src/tensorflow/lite/micro/memory_planner/greedy_memory_planner.cpp ****         if (line[n] == '.') {
 380:../src/tensorflow_lite/src/tensorflow/lite/micro/memory_planner/greedy_memory_planner.cpp ****           line[n] = GetOrdinalCharacter(i);
 381:../src/tensorflow_lite/src/tensorflow/lite/micro/memory_planner/greedy_memory_planner.cpp ****         } else {
 382:../src/tensorflow_lite/src/tensorflow/lite/micro/memory_planner/greedy_memory_planner.cpp ****           line[n] = '!';
 383:../src/tensorflow_lite/src/tensorflow/lite/micro/memory_planner/greedy_memory_planner.cpp ****         }
 384:../src/tensorflow_lite/src/tensorflow/lite/micro/memory_planner/greedy_memory_planner.cpp ****       }
 385:../src/tensorflow_lite/src/tensorflow/lite/micro/memory_planner/greedy_memory_planner.cpp ****     }
 386:../src/tensorflow_lite/src/tensorflow/lite/micro/memory_planner/greedy_memory_planner.cpp ****     line[kLineWidth] = 0;
 387:../src/tensorflow_lite/src/tensorflow/lite/micro/memory_planner/greedy_memory_planner.cpp **** 
 388:../src/tensorflow_lite/src/tensorflow/lite/micro/memory_planner/greedy_memory_planner.cpp ****     MicroPrintf("%s%d: %s (%dk)", t < 10 ? " " : "", t, (const char*)line,
 389:../src/tensorflow_lite/src/tensorflow/lite/micro/memory_planner/greedy_memory_planner.cpp ****                 (memory_use + 1023) / 1024);
 390:../src/tensorflow_lite/src/tensorflow/lite/micro/memory_planner/greedy_memory_planner.cpp ****   }
 391:../src/tensorflow_lite/src/tensorflow/lite/micro/memory_planner/greedy_memory_planner.cpp **** }
 392:../src/tensorflow_lite/src/tensorflow/lite/micro/memory_planner/greedy_memory_planner.cpp **** 
 393:../src/tensorflow_lite/src/tensorflow/lite/micro/memory_planner/greedy_memory_planner.cpp **** int GreedyMemoryPlanner::GetBufferCount() { return buffer_count_; }
  52              		.loc 1 393 0
  53              		.cfi_startproc
  54              		@ args = 0, pretend = 0, frame = 0
  55              		@ frame_needed = 0, uses_anonymous_args = 0
  56              		@ link register save eliminated.
  57              	.LVL1:
  58              		.loc 1 393 0
  59 0000 080090E5 		ldr	r0, [r0, #8]
  60              	.LVL2:
  61 0004 1EFF2FE1 		bx	lr
  62              		.cfi_endproc
  63              	.LFE32:
  64              		.cantunwind
  65              		.fnend
  67              		.section	.text._ZN6tflite19GreedyMemoryPlannerD0Ev,"ax",%progbits
  68              		.align	2
  69              		.global	_ZN6tflite19GreedyMemoryPlannerD0Ev
  70              		.syntax unified
  71              		.arm
  72              		.fpu neon
  74              	_ZN6tflite19GreedyMemoryPlannerD0Ev:
  75              		.fnstart
  76              	.LFB24:
  83:../src/tensorflow_lite/src/tensorflow/lite/micro/memory_planner/greedy_memory_planner.cpp ****   // We don't own the scratch buffer, so don't deallocate anything.
  77              		.loc 1 83 0
  78              		.cfi_startproc
  79              		@ args = 0, pretend = 0, frame = 0
  80              		@ frame_needed = 0, uses_anonymous_args = 0
  81              	.LVL3:
  82 0000 10402DE9 		push	{r4, lr}
  83              		.cfi_def_cfa_offset 8
  84              		.cfi_offset 4, -8
  85              		.cfi_offset 14, -4
  83:../src/tensorflow_lite/src/tensorflow/lite/micro/memory_planner/greedy_memory_planner.cpp ****   // We don't own the scratch buffer, so don't deallocate anything.
  86              		.loc 1 83 0
  87 0004 0040A0E1 		mov	r4, r0
  85:../src/tensorflow_lite/src/tensorflow/lite/micro/memory_planner/greedy_memory_planner.cpp **** 
  88              		.loc 1 85 0
  89 0008 FEFFFFEB 		bl	_ZdlPv
  90              	.LVL4:
  91 000c 0400A0E1 		mov	r0, r4
  92 0010 1080BDE8 		pop	{r4, pc}
  93              		.cfi_endproc
  94              	.LFE24:
  95              		.cantunwind
  96              		.fnend
  98              		.section	.text._ZN6tflite19GreedyMemoryPlanner9AddBufferEPNS_13ErrorReporterEiii,"ax",%progbits
  99              		.align	2
 100              		.global	_ZN6tflite19GreedyMemoryPlanner9AddBufferEPNS_13ErrorReporterEiii
 101              		.syntax unified
 102              		.arm
 103              		.fpu neon
 105              	_ZN6tflite19GreedyMemoryPlanner9AddBufferEPNS_13ErrorReporterEiii:
 106              		.fnstart
 107              	.LFB25:
  89:../src/tensorflow_lite/src/tensorflow/lite/micro/memory_planner/greedy_memory_planner.cpp ****   if (buffer_count_ >= max_buffer_count_) {
 108              		.loc 1 89 0
 109              		.cfi_startproc
 110              		@ args = 4, pretend = 0, frame = 0
 111              		@ frame_needed = 0, uses_anonymous_args = 0
 112              	.LVL5:
 113 0000 70402DE9 		push	{r4, r5, r6, lr}
 114              		.save {r4, r5, r6, lr}
 115              		.cfi_def_cfa_offset 16
 116              		.cfi_offset 4, -16
 117              		.cfi_offset 5, -12
 118              		.cfi_offset 6, -8
 119              		.cfi_offset 14, -4
  90:../src/tensorflow_lite/src/tensorflow/lite/micro/memory_planner/greedy_memory_planner.cpp ****     TF_LITE_REPORT_ERROR(error_reporter, "Too many buffers (max is %d)",
 120              		.loc 1 90 0
 121 0004 104090E9 		ldmib	r0, {r4, lr}
 122 0008 04005EE1 		cmp	lr, r4
 123 000c 0E0000AA 		bge	.L10
  95:../src/tensorflow_lite/src/tensorflow/lite/micro/memory_planner/greedy_memory_planner.cpp ****   current->size = size;
 124              		.loc 1 95 0
 125 0010 0C1090E5 		ldr	r1, [r0, #12]
 126              	.LVL6:
 127 0014 00C0A0E1 		mov	ip, r0
 100:../src/tensorflow_lite/src/tensorflow/lite/micro/memory_planner/greedy_memory_planner.cpp ****   need_to_calculate_offsets_ = true;
 128              		.loc 1 100 0
 129 0018 01508EE2 		add	r5, lr, #1
  99:../src/tensorflow_lite/src/tensorflow/lite/micro/memory_planner/greedy_memory_planner.cpp ****   ++buffer_count_;
 130              		.loc 1 99 0
 131 001c 0060E0E3 		mvn	r6, #0
 101:../src/tensorflow_lite/src/tensorflow/lite/micro/memory_planner/greedy_memory_planner.cpp ****   return kTfLiteOk;
 132              		.loc 1 101 0
 133 0020 0140A0E3 		mov	r4, #1
 102:../src/tensorflow_lite/src/tensorflow/lite/micro/memory_planner/greedy_memory_planner.cpp **** }
 134              		.loc 1 102 0
 135 0024 0000A0E3 		mov	r0, #0
 136              	.LVL7:
  96:../src/tensorflow_lite/src/tensorflow/lite/micro/memory_planner/greedy_memory_planner.cpp ****   current->first_time_used = first_time_used;
 137              		.loc 1 96 0
 138 0028 0E2281E7 		str	r2, [r1, lr, lsl #4]
  95:../src/tensorflow_lite/src/tensorflow/lite/micro/memory_planner/greedy_memory_planner.cpp ****   current->size = size;
 139              		.loc 1 95 0
 140 002c 0E2281E0 		add	r2, r1, lr, lsl #4
 141              	.LVL8:
  97:../src/tensorflow_lite/src/tensorflow/lite/micro/memory_planner/greedy_memory_planner.cpp ****   current->last_time_used = last_time_used;
 142              		.loc 1 97 0
 143 0030 083082E5 		str	r3, [r2, #8]
  98:../src/tensorflow_lite/src/tensorflow/lite/micro/memory_planner/greedy_memory_planner.cpp ****   current->offline_offset = kOnlinePlannedBuffer;
 144              		.loc 1 98 0
 145 0034 10309DE5 		ldr	r3, [sp, #16]
 146              	.LVL9:
  99:../src/tensorflow_lite/src/tensorflow/lite/micro/memory_planner/greedy_memory_planner.cpp ****   ++buffer_count_;
 147              		.loc 1 99 0
 148 0038 046082E5 		str	r6, [r2, #4]
  98:../src/tensorflow_lite/src/tensorflow/lite/micro/memory_planner/greedy_memory_planner.cpp ****   current->offline_offset = kOnlinePlannedBuffer;
 149              		.loc 1 98 0
 150 003c 0C3082E5 		str	r3, [r2, #12]
 100:../src/tensorflow_lite/src/tensorflow/lite/micro/memory_planner/greedy_memory_planner.cpp ****   need_to_calculate_offsets_ = true;
 151              		.loc 1 100 0
 152 0040 08508CE5 		str	r5, [ip, #8]
 101:../src/tensorflow_lite/src/tensorflow/lite/micro/memory_planner/greedy_memory_planner.cpp ****   return kTfLiteOk;
 153              		.loc 1 101 0
 154 0044 2840CCE5 		strb	r4, [ip, #40]
 103:../src/tensorflow_lite/src/tensorflow/lite/micro/memory_planner/greedy_memory_planner.cpp **** 
 155              		.loc 1 103 0
 156 0048 7080BDE8 		pop	{r4, r5, r6, pc}
 157              	.LVL10:
 158              	.L10:
 159 004c 0100A0E1 		mov	r0, r1
 160              	.LVL11:
  91:../src/tensorflow_lite/src/tensorflow/lite/micro/memory_planner/greedy_memory_planner.cpp ****                          max_buffer_count_);
 161              		.loc 1 91 0
 162 0050 001000E3 		movw	r1, #:lower16:.LC0
 163              	.LVL12:
 164 0054 0420A0E1 		mov	r2, r4
 165              	.LVL13:
 166 0058 001040E3 		movt	r1, #:upper16:.LC0
 167 005c FEFFFFEB 		bl	_ZN6tflite13ErrorReporter6ReportEPKcz
 168              	.LVL14:
  93:../src/tensorflow_lite/src/tensorflow/lite/micro/memory_planner/greedy_memory_planner.cpp ****   }
 169              		.loc 1 93 0
 170 0060 0100A0E3 		mov	r0, #1
 171 0064 7080BDE8 		pop	{r4, r5, r6, pc}
 172              		.cfi_endproc
 173              	.LFE25:
 174              		.fnend
 176              		.section	.text._ZN6tflite19GreedyMemoryPlanner24CalculateOffsetsIfNeededEv.part.1,"ax",%progbits
 177              		.align	2
 178              		.syntax unified
 179              		.arm
 180              		.fpu neon
 182              	_ZN6tflite19GreedyMemoryPlanner24CalculateOffsetsIfNeededEv.part.1:
 183              		.fnstart
 184              	.LFB36:
 160:../src/tensorflow_lite/src/tensorflow/lite/micro/memory_planner/greedy_memory_planner.cpp ****   if (!need_to_calculate_offsets_ || (buffer_count_ == 0)) {
 185              		.loc 1 160 0
 186              		.cfi_startproc
 187              		@ args = 0, pretend = 0, frame = 8
 188              		@ frame_needed = 0, uses_anonymous_args = 0
 189              	.LVL15:
 190 0000 F04F2DE9 		push	{r4, r5, r6, r7, r8, r9, r10, fp, lr}
 191              		.cfi_def_cfa_offset 36
 192              		.cfi_offset 4, -36
 193              		.cfi_offset 5, -32
 194              		.cfi_offset 6, -28
 195              		.cfi_offset 7, -24
 196              		.cfi_offset 8, -20
 197              		.cfi_offset 9, -16
 198              		.cfi_offset 10, -12
 199              		.cfi_offset 11, -8
 200              		.cfi_offset 14, -4
 201 0004 0CD04DE2 		sub	sp, sp, #12
 202              		.cfi_def_cfa_offset 48
 161:../src/tensorflow_lite/src/tensorflow/lite/micro/memory_planner/greedy_memory_planner.cpp ****     return;
 203              		.loc 1 161 0
 204 0008 086090E5 		ldr	r6, [r0, #8]
 205 000c 000056E3 		cmp	r6, #0
 206 0010 7300000A 		beq	.L11
 164:../src/tensorflow_lite/src/tensorflow/lite/micro/memory_planner/greedy_memory_planner.cpp **** 
 207              		.loc 1 164 0
 208 0014 0010A0E3 		mov	r1, #0
 209 0018 2810C0E5 		strb	r1, [r0, #40]
 210              	.LVL16:
 211              	.LBB85:
 174:../src/tensorflow_lite/src/tensorflow/lite/micro/memory_planner/greedy_memory_planner.cpp ****     if (requirements_[i].offline_offset == kOnlinePlannedBuffer) {
 212              		.loc 1 174 0
 213 001c B50000DA 		ble	.L61
 214 0020 243090E5 		ldr	r3, [r0, #36]
 215 0024 0CE090E5 		ldr	lr, [r0, #12]
 216 0028 107090E5 		ldr	r7, [r0, #16]
 217 002c 149090E5 		ldr	r9, [r0, #20]
 218 0030 0340A0E1 		mov	r4, r3
 219 0034 04308DE5 		str	r3, [sp, #4]
 220 0038 0E20A0E1 		mov	r2, lr
 221 003c 0130A0E1 		mov	r3, r1
 222              	.LVL17:
 223              	.L15:
 175:../src/tensorflow_lite/src/tensorflow/lite/micro/memory_planner/greedy_memory_planner.cpp ****       idx_from_tail--;
 224              		.loc 1 175 0
 225 0040 04C092E5 		ldr	ip, [r2, #4]
 226 0044 01007CE3 		cmn	ip, #1
 227 0048 6700000A 		beq	.L62
 181:../src/tensorflow_lite/src/tensorflow/lite/micro/memory_planner/greedy_memory_planner.cpp ****       buffer_ids_sorted_[idx_from_head] = i;
 228              		.loc 1 181 0
 229 004c 03C29EE7 		ldr	ip, [lr, r3, lsl #4]
 230 0050 102082E2 		add	r2, r2, #16
 231 0054 01C187E7 		str	ip, [r7, r1, lsl #2]
 182:../src/tensorflow_lite/src/tensorflow/lite/micro/memory_planner/greedy_memory_planner.cpp ****       buffer_offsets_[i] = requirements_[i].offline_offset;
 232              		.loc 1 182 0
 233 0058 013189E7 		str	r3, [r9, r1, lsl #2]
 174:../src/tensorflow_lite/src/tensorflow/lite/micro/memory_planner/greedy_memory_planner.cpp ****     if (requirements_[i].offline_offset == kOnlinePlannedBuffer) {
 234              		.loc 1 174 0
 235 005c 013083E2 		add	r3, r3, #1
 236              	.LVL18:
 183:../src/tensorflow_lite/src/tensorflow/lite/micro/memory_planner/greedy_memory_planner.cpp ****       idx_from_head++;
 237              		.loc 1 183 0
 238 0060 0CC012E5 		ldr	ip, [r2, #-12]
 184:../src/tensorflow_lite/src/tensorflow/lite/micro/memory_planner/greedy_memory_planner.cpp ****     }
 239              		.loc 1 184 0
 240 0064 011081E2 		add	r1, r1, #1
 241              	.LVL19:
 183:../src/tensorflow_lite/src/tensorflow/lite/micro/memory_planner/greedy_memory_planner.cpp ****       idx_from_head++;
 242              		.loc 1 183 0
 243 0068 04C084E4 		str	ip, [r4], #4
 174:../src/tensorflow_lite/src/tensorflow/lite/micro/memory_planner/greedy_memory_planner.cpp ****     if (requirements_[i].offline_offset == kOnlinePlannedBuffer) {
 244              		.loc 1 174 0
 245 006c 085090E5 		ldr	r5, [r0, #8]
 246 0070 030055E1 		cmp	r5, r3
 247 0074 F1FFFFCA 		bgt	.L15
 248              	.L17:
 249 0078 0181A0E1 		lsl	r8, r1, #2
 250              	.LVL20:
 251              	.L14:
 252              	.LBE85:
 190:../src/tensorflow_lite/src/tensorflow/lite/micro/memory_planner/greedy_memory_planner.cpp ****                      &buffer_ids_sorted_[idx_from_head],
 253              		.loc 1 190 0
 254 007c 015045E0 		sub	r5, r5, r1
 255 0080 087087E0 		add	r7, r7, r8
 256              	.LVL21:
 257 0084 074145E2 		sub	r4, r5, #-1073741823
 258 0088 044187E0 		add	r4, r7, r4, lsl #2
 259 008c 088089E0 		add	r8, r9, r8
 260              	.LVL22:
 261              	.L24:
 262              	.LBB86:
 263              	.LBB87:
 264              	.LBB88:
  47:../src/tensorflow_lite/src/tensorflow/lite/micro/memory_planner/greedy_memory_planner.cpp ****       if (values[i - 1] < values[i]) {
 265              		.loc 1 47 0
 266 0090 010055E3 		cmp	r5, #1
 267 0094 110000DA 		ble	.L25
 268 0098 0730A0E1 		mov	r3, r7
 269 009c 0820A0E1 		mov	r2, r8
 270 00a0 0060A0E3 		mov	r6, #0
 271              	.LVL23:
 272              	.L23:
 273              	.LBB89:
  48:../src/tensorflow_lite/src/tensorflow/lite/micro/memory_planner/greedy_memory_planner.cpp ****         const int value_temp = values[i - 1];
 274              		.loc 1 48 0
 275 00a4 021093E8 		ldm	r3, {r1, ip}
 276 00a8 0C0051E1 		cmp	r1, ip
 277 00ac 050000AA 		bge	.L22
 278              	.LBB90:
  50:../src/tensorflow_lite/src/tensorflow/lite/micro/memory_planner/greedy_memory_planner.cpp ****         values[i] = value_temp;
 279              		.loc 1 50 0
 280 00b0 00C083E5 		str	ip, [r3]
  55:../src/tensorflow_lite/src/tensorflow/lite/micro/memory_planner/greedy_memory_planner.cpp ****       }
 281              		.loc 1 55 0
 282 00b4 0160A0E3 		mov	r6, #1
  51:../src/tensorflow_lite/src/tensorflow/lite/micro/memory_planner/greedy_memory_planner.cpp ****         const int id_temp = ids[i - 1];
 283              		.loc 1 51 0
 284 00b8 041083E5 		str	r1, [r3, #4]
  52:../src/tensorflow_lite/src/tensorflow/lite/micro/memory_planner/greedy_memory_planner.cpp ****         ids[i - 1] = ids[i];
 285              		.loc 1 52 0
 286 00bc 00C092E5 		ldr	ip, [r2]
 287              	.LVL24:
  53:../src/tensorflow_lite/src/tensorflow/lite/micro/memory_planner/greedy_memory_planner.cpp ****         ids[i] = id_temp;
 288              		.loc 1 53 0
 289 00c0 041092E5 		ldr	r1, [r2, #4]
 290 00c4 021082E8 		stm	r2, {r1, ip}
 291              	.LVL25:
 292              	.L22:
 293 00c8 043083E2 		add	r3, r3, #4
 294 00cc 042082E2 		add	r2, r2, #4
 295              	.LBE90:
 296              	.LBE89:
  47:../src/tensorflow_lite/src/tensorflow/lite/micro/memory_planner/greedy_memory_planner.cpp ****       if (values[i - 1] < values[i]) {
 297              		.loc 1 47 0
 298 00d0 030054E1 		cmp	r4, r3
 299 00d4 F2FFFF1A 		bne	.L23
 300              	.LBE88:
  45:../src/tensorflow_lite/src/tensorflow/lite/micro/memory_planner/greedy_memory_planner.cpp ****     any_swapped = false;
 301              		.loc 1 45 0
 302 00d8 000056E3 		cmp	r6, #0
 303 00dc EBFFFF1A 		bne	.L24
 304              	.L25:
 305              	.LVL26:
 306              	.LBE87:
 307              	.LBE86:
 202:../src/tensorflow_lite/src/tensorflow/lite/micro/memory_planner/greedy_memory_planner.cpp ****   first_entry->next_entry_index = -1;  // to mark the entry as end of list
 308              		.loc 1 202 0
 309 00e0 18C090E5 		ldr	ip, [r0, #24]
 310              	.LVL27:
 201:../src/tensorflow_lite/src/tensorflow/lite/micro/memory_planner/greedy_memory_planner.cpp ****   ListEntry* first_entry = &buffers_sorted_by_offset_[first_entry_index_];
 311              		.loc 1 201 0
 312 00e4 0110A0E3 		mov	r1, #1
 203:../src/tensorflow_lite/src/tensorflow/lite/micro/memory_planner/greedy_memory_planner.cpp ****   int buffer_id = buffer_ids_sorted_[0];
 313              		.loc 1 203 0
 314 00e8 0030E0E3 		mvn	r3, #0
 200:../src/tensorflow_lite/src/tensorflow/lite/micro/memory_planner/greedy_memory_planner.cpp ****   next_free_entry_ = 1;
 315              		.loc 1 200 0
 316 00ec 0020A0E3 		mov	r2, #0
 201:../src/tensorflow_lite/src/tensorflow/lite/micro/memory_planner/greedy_memory_planner.cpp ****   ListEntry* first_entry = &buffers_sorted_by_offset_[first_entry_index_];
 317              		.loc 1 201 0
 318 00f0 1C1080E5 		str	r1, [r0, #28]
 200:../src/tensorflow_lite/src/tensorflow/lite/micro/memory_planner/greedy_memory_planner.cpp ****   next_free_entry_ = 1;
 319              		.loc 1 200 0
 320 00f4 202080E5 		str	r2, [r0, #32]
 203:../src/tensorflow_lite/src/tensorflow/lite/micro/memory_planner/greedy_memory_planner.cpp ****   int buffer_id = buffer_ids_sorted_[0];
 321              		.loc 1 203 0
 322 00f8 08308CE5 		str	r3, [ip, #8]
 204:../src/tensorflow_lite/src/tensorflow/lite/micro/memory_planner/greedy_memory_planner.cpp ****   first_entry->requirements_index = buffer_id;
 323              		.loc 1 204 0
 324 00fc 003099E5 		ldr	r3, [r9]
 325              	.LVL28:
 205:../src/tensorflow_lite/src/tensorflow/lite/micro/memory_planner/greedy_memory_planner.cpp ****   if (requirements_[buffer_id].offline_offset == kOnlinePlannedBuffer) {
 326              		.loc 1 205 0
 327 0100 04308CE5 		str	r3, [ip, #4]
 206:../src/tensorflow_lite/src/tensorflow/lite/micro/memory_planner/greedy_memory_planner.cpp ****     buffer_offsets_[buffer_id] = 0;
 328              		.loc 1 206 0
 329 0104 03128EE0 		add	r1, lr, r3, lsl #4
 330 0108 041091E5 		ldr	r1, [r1, #4]
 331 010c 010071E3 		cmn	r1, #1
 332 0110 7400000A 		beq	.L63
 333 0114 04209DE5 		ldr	r2, [sp, #4]
 334 0118 031192E7 		ldr	r1, [r2, r3, lsl #2]
 335              	.L26:
 336              	.LBB91:
 212:../src/tensorflow_lite/src/tensorflow/lite/micro/memory_planner/greedy_memory_planner.cpp ****     // The id is the order the buffer was originally added by the client.
 337              		.loc 1 212 0
 338 011c 083090E5 		ldr	r3, [r0, #8]
 339              	.LVL29:
 340              	.LBE91:
 209:../src/tensorflow_lite/src/tensorflow/lite/micro/memory_planner/greedy_memory_planner.cpp **** 
 341              		.loc 1 209 0
 342 0120 00108CE5 		str	r1, [ip]
 343              	.LVL30:
 344              	.LBB128:
 212:../src/tensorflow_lite/src/tensorflow/lite/micro/memory_planner/greedy_memory_planner.cpp ****     // The id is the order the buffer was originally added by the client.
 345              		.loc 1 212 0
 346 0124 010053E3 		cmp	r3, #1
 347 0128 2D0000DA 		ble	.L11
 348 012c 00C08DE5 		str	ip, [sp]
 349 0130 01B0A0E3 		mov	fp, #1
 350 0134 070000EA 		b	.L42
 351              	.LVL31:
 352              	.L65:
 353              	.LBB92:
 354              	.LBB93:
 281:../src/tensorflow_lite/src/tensorflow/lite/micro/memory_planner/greedy_memory_planner.cpp ****       first_entry_index_ = new_entry_index;
 355              		.loc 1 281 0
 356 0138 203090E5 		ldr	r3, [r0, #32]
 282:../src/tensorflow_lite/src/tensorflow/lite/micro/memory_planner/greedy_memory_planner.cpp ****     } else {
 357              		.loc 1 282 0
 358 013c 00408DE5 		str	r4, [sp]
 281:../src/tensorflow_lite/src/tensorflow/lite/micro/memory_planner/greedy_memory_planner.cpp ****       first_entry_index_ = new_entry_index;
 359              		.loc 1 281 0
 360 0140 083084E5 		str	r3, [r4, #8]
 282:../src/tensorflow_lite/src/tensorflow/lite/micro/memory_planner/greedy_memory_planner.cpp ****     } else {
 361              		.loc 1 282 0
 362 0144 206080E5 		str	r6, [r0, #32]
 363              	.LVL32:
 364              	.L39:
 365              	.LBE93:
 366              	.LBE92:
 212:../src/tensorflow_lite/src/tensorflow/lite/micro/memory_planner/greedy_memory_planner.cpp ****     // The id is the order the buffer was originally added by the client.
 367              		.loc 1 212 0
 368 0148 083090E5 		ldr	r3, [r0, #8]
 369 014c 01B08BE2 		add	fp, fp, #1
 370              	.LVL33:
 371 0150 0B0053E1 		cmp	r3, fp
 372 0154 220000DA 		ble	.L11
 373              	.LVL34:
 374              	.L42:
 375              	.LBB125:
 214:../src/tensorflow_lite/src/tensorflow/lite/micro/memory_planner/greedy_memory_planner.cpp ****     // Look at what size and time range the buffer needs to be active.
 376              		.loc 1 214 0
 377 0158 0470B9E5 		ldr	r7, [r9, #4]!
 378              	.LVL35:
 216:../src/tensorflow_lite/src/tensorflow/lite/micro/memory_planner/greedy_memory_planner.cpp ****     const int wanted_size = wanted_requirements->size;
 379              		.loc 1 216 0
 380 015c 07328EE0 		add	r3, lr, r7, lsl #4
 381              	.LVL36:
 382              	.LBB100:
 229:../src/tensorflow_lite/src/tensorflow/lite/micro/memory_planner/greedy_memory_planner.cpp ****       ListEntry* prior_entry = nullptr;
 383              		.loc 1 229 0
 384 0160 045093E5 		ldr	r5, [r3, #4]
 385 0164 010075E3 		cmn	r5, #1
 386 0168 2A00000A 		beq	.L64
 387              	.LVL37:
 388              	.L28:
 389              	.LBE100:
 268:../src/tensorflow_lite/src/tensorflow/lite/micro/memory_planner/greedy_memory_planner.cpp ****     // Add the newly-placed buffer to our offset-ordered list, so that
 390              		.loc 1 268 0
 391 016c 04309DE5 		ldr	r3, [sp, #4]
 392 0170 075183E7 		str	r5, [r3, r7, lsl #2]
 393              	.LVL38:
 271:../src/tensorflow_lite/src/tensorflow/lite/micro/memory_planner/greedy_memory_planner.cpp ****     new_entry->offset = candidate_offset;
 394              		.loc 1 271 0
 395 0174 1C6090E5 		ldr	r6, [r0, #28]
 396              	.LBB118:
 277:../src/tensorflow_lite/src/tensorflow/lite/micro/memory_planner/greedy_memory_planner.cpp ****       // The new entry offset is smaller than the first entry offset =>
 397              		.loc 1 277 0
 398 0178 00309DE5 		ldr	r3, [sp]
 399              	.LBE118:
 275:../src/tensorflow_lite/src/tensorflow/lite/micro/memory_planner/greedy_memory_planner.cpp **** 
 400              		.loc 1 275 0
 401 017c 012086E2 		add	r2, r6, #1
 271:../src/tensorflow_lite/src/tensorflow/lite/micro/memory_planner/greedy_memory_planner.cpp ****     new_entry->offset = candidate_offset;
 402              		.loc 1 271 0
 403 0180 864086E0 		add	r4, r6, r6, lsl #1
 272:../src/tensorflow_lite/src/tensorflow/lite/micro/memory_planner/greedy_memory_planner.cpp ****     new_entry->requirements_index = buffer_id;
 404              		.loc 1 272 0
 405 0184 04518CE7 		str	r5, [ip, r4, lsl #2]
 271:../src/tensorflow_lite/src/tensorflow/lite/micro/memory_planner/greedy_memory_planner.cpp ****     new_entry->offset = candidate_offset;
 406              		.loc 1 271 0
 407 0188 04418CE0 		add	r4, ip, r4, lsl #2
 408              	.LVL39:
 409              	.LBB119:
 277:../src/tensorflow_lite/src/tensorflow/lite/micro/memory_planner/greedy_memory_planner.cpp ****       // The new entry offset is smaller than the first entry offset =>
 410              		.loc 1 277 0
 411 018c 003093E5 		ldr	r3, [r3]
 412              	.LBE119:
 273:../src/tensorflow_lite/src/tensorflow/lite/micro/memory_planner/greedy_memory_planner.cpp ****     const int new_entry_index = next_free_entry_;
 413              		.loc 1 273 0
 414 0190 047084E5 		str	r7, [r4, #4]
 415              	.LVL40:
 275:../src/tensorflow_lite/src/tensorflow/lite/micro/memory_planner/greedy_memory_planner.cpp **** 
 416              		.loc 1 275 0
 417 0194 1C2080E5 		str	r2, [r0, #28]
 418              	.LBB120:
 277:../src/tensorflow_lite/src/tensorflow/lite/micro/memory_planner/greedy_memory_planner.cpp ****       // The new entry offset is smaller than the first entry offset =>
 419              		.loc 1 277 0
 420 0198 030055E1 		cmp	r5, r3
 421 019c E5FFFFBA 		blt	.L65
 422 01a0 00109DE5 		ldr	r1, [sp]
 423 01a4 040000EA 		b	.L41
 424              	.LVL41:
 425              	.L40:
 426              	.LBB94:
 427              	.LBB95:
 297:../src/tensorflow_lite/src/tensorflow/lite/micro/memory_planner/greedy_memory_planner.cpp ****           // We're at the right spot to do an insertion and retain the sorting
 428              		.loc 1 297 0
 429 01a8 03719CE7 		ldr	r7, [ip, r3, lsl #2]
 296:../src/tensorflow_lite/src/tensorflow/lite/micro/memory_planner/greedy_memory_planner.cpp ****         if (next_entry->offset > candidate_offset) {
 430              		.loc 1 296 0
 431 01ac 03318CE0 		add	r3, ip, r3, lsl #2
 432              	.LVL42:
 297:../src/tensorflow_lite/src/tensorflow/lite/micro/memory_planner/greedy_memory_planner.cpp ****           // We're at the right spot to do an insertion and retain the sorting
 433              		.loc 1 297 0
 434 01b0 070055E1 		cmp	r5, r7
 435 01b4 480000BA 		blt	.L66
 436 01b8 0310A0E1 		mov	r1, r3
 437              	.LVL43:
 438              	.L41:
 288:../src/tensorflow_lite/src/tensorflow/lite/micro/memory_planner/greedy_memory_planner.cpp ****         if (next_entry_index == -1) {
 439              		.loc 1 288 0
 440 01bc 082091E5 		ldr	r2, [r1, #8]
 441              	.LVL44:
 289:../src/tensorflow_lite/src/tensorflow/lite/micro/memory_planner/greedy_memory_planner.cpp ****           // We're at the end of the list, so just add the new entry here.
 442              		.loc 1 289 0
 443 01c0 010072E3 		cmn	r2, #1
 296:../src/tensorflow_lite/src/tensorflow/lite/micro/memory_planner/greedy_memory_planner.cpp ****         if (next_entry->offset > candidate_offset) {
 444              		.loc 1 296 0
 445 01c4 823082E0 		add	r3, r2, r2, lsl #1
 289:../src/tensorflow_lite/src/tensorflow/lite/micro/memory_planner/greedy_memory_planner.cpp ****           // We're at the end of the list, so just add the new entry here.
 446              		.loc 1 289 0
 447 01c8 F6FFFF1A 		bne	.L40
 448              	.LBE95:
 449              	.LBE94:
 450              	.LBE120:
 451              	.LBE125:
 212:../src/tensorflow_lite/src/tensorflow/lite/micro/memory_planner/greedy_memory_planner.cpp ****     // The id is the order the buffer was originally added by the client.
 452              		.loc 1 212 0
 453 01cc 083090E5 		ldr	r3, [r0, #8]
 454 01d0 01B08BE2 		add	fp, fp, #1
 455              	.LVL45:
 456              	.LBB126:
 457              	.LBB121:
 458              	.LBB98:
 459              	.LBB96:
 291:../src/tensorflow_lite/src/tensorflow/lite/micro/memory_planner/greedy_memory_planner.cpp ****           new_entry->next_entry_index = -1;
 460              		.loc 1 291 0
 461 01d4 086081E5 		str	r6, [r1, #8]
 292:../src/tensorflow_lite/src/tensorflow/lite/micro/memory_planner/greedy_memory_planner.cpp ****           break;
 462              		.loc 1 292 0
 463 01d8 082084E5 		str	r2, [r4, #8]
 464              	.LVL46:
 465              	.LBE96:
 466              	.LBE98:
 467              	.LBE121:
 468              	.LBE126:
 212:../src/tensorflow_lite/src/tensorflow/lite/micro/memory_planner/greedy_memory_planner.cpp ****     // The id is the order the buffer was originally added by the client.
 469              		.loc 1 212 0
 470 01dc 0B0053E1 		cmp	r3, fp
 471 01e0 DCFFFFCA 		bgt	.L42
 472              	.LVL47:
 473              	.L11:
 474              	.LBE128:
 308:../src/tensorflow_lite/src/tensorflow/lite/micro/memory_planner/greedy_memory_planner.cpp **** 
 475              		.loc 1 308 0
 476 01e4 0CD08DE2 		add	sp, sp, #12
 477              		.cfi_remember_state
 478              		.cfi_def_cfa_offset 36
 479              		@ sp needed
 480 01e8 F08FBDE8 		pop	{r4, r5, r6, r7, r8, r9, r10, fp, pc}
 481              	.LVL48:
 482              	.L62:
 483              		.cfi_restore_state
 484              	.LBB129:
 177:../src/tensorflow_lite/src/tensorflow/lite/micro/memory_planner/greedy_memory_planner.cpp ****       buffer_ids_sorted_[idx_from_tail] = i;
 485              		.loc 1 177 0
 486 01ec 03529EE7 		ldr	r5, [lr, r3, lsl #4]
 176:../src/tensorflow_lite/src/tensorflow/lite/micro/memory_planner/greedy_memory_planner.cpp ****       buffer_sizes_sorted_[idx_from_tail] = requirements_[i].size;
 487              		.loc 1 176 0
 488 01f0 016046E2 		sub	r6, r6, #1
 489              	.LVL49:
 490 01f4 102082E2 		add	r2, r2, #16
 177:../src/tensorflow_lite/src/tensorflow/lite/micro/memory_planner/greedy_memory_planner.cpp ****       buffer_ids_sorted_[idx_from_tail] = i;
 491              		.loc 1 177 0
 492 01f8 065187E7 		str	r5, [r7, r6, lsl #2]
 178:../src/tensorflow_lite/src/tensorflow/lite/micro/memory_planner/greedy_memory_planner.cpp ****       buffer_offsets_[i] = -1;
 493              		.loc 1 178 0
 494 01fc 063189E7 		str	r3, [r9, r6, lsl #2]
 174:../src/tensorflow_lite/src/tensorflow/lite/micro/memory_planner/greedy_memory_planner.cpp ****     if (requirements_[i].offline_offset == kOnlinePlannedBuffer) {
 495              		.loc 1 174 0
 496 0200 013083E2 		add	r3, r3, #1
 497              	.LVL50:
 179:../src/tensorflow_lite/src/tensorflow/lite/micro/memory_planner/greedy_memory_planner.cpp ****     } else {
 498              		.loc 1 179 0
 499 0204 04C084E4 		str	ip, [r4], #4
 500              	.LVL51:
 174:../src/tensorflow_lite/src/tensorflow/lite/micro/memory_planner/greedy_memory_planner.cpp ****     if (requirements_[i].offline_offset == kOnlinePlannedBuffer) {
 501              		.loc 1 174 0
 502 0208 085090E5 		ldr	r5, [r0, #8]
 503 020c 030055E1 		cmp	r5, r3
 504 0210 8AFFFFCA 		bgt	.L15
 505 0214 97FFFFEA 		b	.L17
 506              	.LVL52:
 507              	.L64:
 508              	.LBE129:
 509              	.LBB130:
 510              	.LBB127:
 219:../src/tensorflow_lite/src/tensorflow/lite/micro/memory_planner/greedy_memory_planner.cpp **** 
 511              		.loc 1 219 0
 512 0218 0060A0E3 		mov	r6, #0
 217:../src/tensorflow_lite/src/tensorflow/lite/micro/memory_planner/greedy_memory_planner.cpp ****     const int wanted_first_time_used = wanted_requirements->first_time_used;
 513              		.loc 1 217 0
 514 021c 07A29EE7 		ldr	r10, [lr, r7, lsl #4]
 515              	.LBB122:
 516              	.LBB101:
 517              	.LBB102:
 518              	.LBB103:
 519              	.LBB104:
 137:../src/tensorflow_lite/src/tensorflow/lite/micro/memory_planner/greedy_memory_planner.cpp ****     candidate_next_entry = &buffers_sorted_by_offset_[first_entry_index_];
 520              		.loc 1 137 0
 521 0220 000056E3 		cmp	r6, #0
 522              	.LBE104:
 523              	.LBE103:
 524              	.LBE102:
 525              	.LBE101:
 526              	.LBE122:
 218:../src/tensorflow_lite/src/tensorflow/lite/micro/memory_planner/greedy_memory_planner.cpp ****     const int wanted_last_time_used = wanted_requirements->last_time_used;
 527              		.loc 1 218 0
 528 0224 088093E5 		ldr	r8, [r3, #8]
 219:../src/tensorflow_lite/src/tensorflow/lite/micro/memory_planner/greedy_memory_planner.cpp **** 
 529              		.loc 1 219 0
 530 0228 0650A0E1 		mov	r5, r6
 531 022c 0C4093E5 		ldr	r4, [r3, #12]
 532              	.LVL53:
 533              	.LBB123:
 534              	.LBB117:
 535              	.LBB116:
 536              	.LBB110:
 537              	.LBB107:
 137:../src/tensorflow_lite/src/tensorflow/lite/micro/memory_planner/greedy_memory_planner.cpp ****     candidate_next_entry = &buffers_sorted_by_offset_[first_entry_index_];
 538              		.loc 1 137 0
 539 0230 2100000A 		beq	.L67
 540              	.LVL54:
 541              	.L29:
 140:../src/tensorflow_lite/src/tensorflow/lite/micro/memory_planner/greedy_memory_planner.cpp ****       return nullptr;
 542              		.loc 1 140 0
 543 0234 083096E5 		ldr	r3, [r6, #8]
 544 0238 010073E3 		cmn	r3, #1
 545 023c 2400000A 		beq	.L45
 143:../src/tensorflow_lite/src/tensorflow/lite/micro/memory_planner/greedy_memory_planner.cpp ****   }
 546              		.loc 1 143 0
 547 0240 833083E0 		add	r3, r3, r3, lsl #1
 548 0244 030000EA 		b	.L58
 549              	.LVL55:
 550              	.L32:
 151:../src/tensorflow_lite/src/tensorflow/lite/micro/memory_planner/greedy_memory_planner.cpp ****       break;
 551              		.loc 1 151 0
 552 0248 083093E5 		ldr	r3, [r3, #8]
 553              	.LVL56:
 554 024c 010073E3 		cmn	r3, #1
 155:../src/tensorflow_lite/src/tensorflow/lite/micro/memory_planner/greedy_memory_planner.cpp ****   } while (true);
 555              		.loc 1 155 0
 556 0250 833083E0 		add	r3, r3, r3, lsl #1
 151:../src/tensorflow_lite/src/tensorflow/lite/micro/memory_planner/greedy_memory_planner.cpp ****       break;
 557              		.loc 1 151 0
 558 0254 1C00000A 		beq	.L68
 559              	.L58:
 143:../src/tensorflow_lite/src/tensorflow/lite/micro/memory_planner/greedy_memory_planner.cpp ****   }
 560              		.loc 1 143 0
 561 0258 03318CE0 		add	r3, ip, r3, lsl #2
 562              	.LVL57:
 563              	.L35:
 564              	.LBB105:
 565              	.LBB106:
 121:../src/tensorflow_lite/src/tensorflow/lite/micro/memory_planner/greedy_memory_planner.cpp ****   if (entry_requirements->first_time_used > last_time_used) {
 566              		.loc 1 121 0
 567 025c 042093E5 		ldr	r2, [r3, #4]
 568 0260 02228EE0 		add	r2, lr, r2, lsl #4
 569              	.LVL58:
 122:../src/tensorflow_lite/src/tensorflow/lite/micro/memory_planner/greedy_memory_planner.cpp ****     return false;
 570              		.loc 1 122 0
 571 0264 081092E5 		ldr	r1, [r2, #8]
 572 0268 010054E1 		cmp	r4, r1
 573 026c F5FFFFBA 		blt	.L32
 125:../src/tensorflow_lite/src/tensorflow/lite/micro/memory_planner/greedy_memory_planner.cpp ****     return false;
 574              		.loc 1 125 0
 575 0270 0C2092E5 		ldr	r2, [r2, #12]
 576              	.LVL59:
 577 0274 020058E1 		cmp	r8, r2
 578 0278 F2FFFFCA 		bgt	.L32
 579              	.LVL60:
 580              	.LBE106:
 581              	.LBE105:
 582              	.LBE107:
 583              	.LBE110:
 584              	.LBB111:
 236:../src/tensorflow_lite/src/tensorflow/lite/micro/memory_planner/greedy_memory_planner.cpp ****           BufferRequirements* candidate_requirements =
 585              		.loc 1 236 0
 586 027c 000056E3 		cmp	r6, #0
 587 0280 0600000A 		beq	.L36
 588              	.L31:
 589              	.LVL61:
 590              	.LBB112:
 240:../src/tensorflow_lite/src/tensorflow/lite/micro/memory_planner/greedy_memory_planner.cpp ****           if (prior_entry_offset > candidate_offset) {
 591              		.loc 1 240 0
 592 0284 060096E8 		ldm	r6, {r1, r2}
 593 0288 02229EE7 		ldr	r2, [lr, r2, lsl #4]
 594 028c 012082E0 		add	r2, r2, r1
 595 0290 020055E1 		cmp	r5, r2
 596 0294 0250A0B1 		movlt	r5, r2
 597              	.LVL62:
 598              	.LBE112:
 599              	.LBE111:
 245:../src/tensorflow_lite/src/tensorflow/lite/micro/memory_planner/greedy_memory_planner.cpp ****           // We're at the end of the list, so we can always append the buffer
 600              		.loc 1 245 0
 601 0298 000053E3 		cmp	r3, #0
 602 029c B2FFFF0A 		beq	.L28
 603              	.LVL63:
 604              	.L36:
 251:../src/tensorflow_lite/src/tensorflow/lite/micro/memory_planner/greedy_memory_planner.cpp ****         if (gap >= wanted_size) {
 605              		.loc 1 251 0
 606 02a0 002093E5 		ldr	r2, [r3]
 607 02a4 0360A0E1 		mov	r6, r3
 608 02a8 053042E0 		sub	r3, r2, r5
 609              	.LVL64:
 252:../src/tensorflow_lite/src/tensorflow/lite/micro/memory_planner/greedy_memory_planner.cpp ****           // This entry has a big enough gap between it and the next, so
 610              		.loc 1 252 0
 611 02ac 03005AE1 		cmp	r10, r3
 612 02b0 ADFFFFDA 		ble	.L28
 613              	.LVL65:
 614              	.LBB113:
 615              	.LBB108:
 137:../src/tensorflow_lite/src/tensorflow/lite/micro/memory_planner/greedy_memory_planner.cpp ****     candidate_next_entry = &buffers_sorted_by_offset_[first_entry_index_];
 616              		.loc 1 137 0
 617 02b4 000056E3 		cmp	r6, #0
 618 02b8 DDFFFF1A 		bne	.L29
 619              	.LVL66:
 620              	.L67:
 138:../src/tensorflow_lite/src/tensorflow/lite/micro/memory_planner/greedy_memory_planner.cpp ****   } else {
 621              		.loc 1 138 0
 622 02bc 203090E5 		ldr	r3, [r0, #32]
 623 02c0 833083E0 		add	r3, r3, r3, lsl #1
 624 02c4 03318CE0 		add	r3, ip, r3, lsl #2
 625              	.LVL67:
 626 02c8 E3FFFFEA 		b	.L35
 627              	.LVL68:
 628              	.L68:
 629              	.LBE108:
 630              	.LBE113:
 631              	.LBB114:
 236:../src/tensorflow_lite/src/tensorflow/lite/micro/memory_planner/greedy_memory_planner.cpp ****           BufferRequirements* candidate_requirements =
 632              		.loc 1 236 0
 633 02cc 000056E3 		cmp	r6, #0
 634 02d0 A5FFFF0A 		beq	.L28
 635              	.L45:
 636              	.LBE114:
 637              	.LBB115:
 638              	.LBB109:
 141:../src/tensorflow_lite/src/tensorflow/lite/micro/memory_planner/greedy_memory_planner.cpp ****     }
 639              		.loc 1 141 0
 640 02d4 0030A0E3 		mov	r3, #0
 641 02d8 E9FFFFEA 		b	.L31
 642              	.LVL69:
 643              	.L66:
 644              	.LBE109:
 645              	.LBE115:
 646              	.LBE116:
 647              	.LBE117:
 648              	.LBE123:
 649              	.LBB124:
 650              	.LBB99:
 651              	.LBB97:
 300:../src/tensorflow_lite/src/tensorflow/lite/micro/memory_planner/greedy_memory_planner.cpp ****           current_entry->next_entry_index = new_entry_index;
 652              		.loc 1 300 0
 653 02dc 082084E5 		str	r2, [r4, #8]
 301:../src/tensorflow_lite/src/tensorflow/lite/micro/memory_planner/greedy_memory_planner.cpp ****           break;
 654              		.loc 1 301 0
 655 02e0 086081E5 		str	r6, [r1, #8]
 656 02e4 97FFFFEA 		b	.L39
 657              	.LVL70:
 658              	.L63:
 659              	.LBE97:
 660              	.LBE99:
 661              	.LBE124:
 662              	.LBE127:
 663              	.LBE130:
 207:../src/tensorflow_lite/src/tensorflow/lite/micro/memory_planner/greedy_memory_planner.cpp ****   }
 664              		.loc 1 207 0
 665 02e8 04409DE5 		ldr	r4, [sp, #4]
 666 02ec 0210A0E1 		mov	r1, r2
 667 02f0 032184E7 		str	r2, [r4, r3, lsl #2]
 668 02f4 88FFFFEA 		b	.L26
 669              	.LVL71:
 670              	.L61:
 671 02f8 243090E5 		ldr	r3, [r0, #36]
 672              	.LBB131:
 174:../src/tensorflow_lite/src/tensorflow/lite/micro/memory_planner/greedy_memory_planner.cpp ****     if (requirements_[i].offline_offset == kOnlinePlannedBuffer) {
 673              		.loc 1 174 0
 674 02fc 0180A0E1 		mov	r8, r1
 675 0300 0650A0E1 		mov	r5, r6
 676 0304 107090E5 		ldr	r7, [r0, #16]
 677 0308 149090E5 		ldr	r9, [r0, #20]
 678 030c 0CE090E5 		ldr	lr, [r0, #12]
 679 0310 04308DE5 		str	r3, [sp, #4]
 680 0314 58FFFFEA 		b	.L14
 681              	.LBE131:
 682              		.cfi_endproc
 683              	.LFE36:
 684              		.cantunwind
 685              		.fnend
 687              		.section	.text._ZN6tflite19GreedyMemoryPlanner20GetMaximumMemorySizeEv,"ax",%progbits
 688              		.align	2
 689              		.global	_ZN6tflite19GreedyMemoryPlanner20GetMaximumMemorySizeEv
 690              		.syntax unified
 691              		.arm
 692              		.fpu neon
 694              	_ZN6tflite19GreedyMemoryPlanner20GetMaximumMemorySizeEv:
 695              		.fnstart
 696              	.LFB30:
 310:../src/tensorflow_lite/src/tensorflow/lite/micro/memory_planner/greedy_memory_planner.cpp ****   CalculateOffsetsIfNeeded();
 697              		.loc 1 310 0
 698              		.cfi_startproc
 699              		@ args = 0, pretend = 0, frame = 0
 700              		@ frame_needed = 0, uses_anonymous_args = 0
 701              	.LVL72:
 702              	.LBB139:
 703              	.LBB140:
 161:../src/tensorflow_lite/src/tensorflow/lite/micro/memory_planner/greedy_memory_planner.cpp ****     return;
 704              		.loc 1 161 0
 705 0000 2830D0E5 		ldrb	r3, [r0, #40]	@ zero_extendqisi2
 706              	.LBE140:
 707              	.LBE139:
 310:../src/tensorflow_lite/src/tensorflow/lite/micro/memory_planner/greedy_memory_planner.cpp ****   CalculateOffsetsIfNeeded();
 708              		.loc 1 310 0
 709 0004 10402DE9 		push	{r4, lr}
 710              		.cfi_def_cfa_offset 8
 711              		.cfi_offset 4, -8
 712              		.cfi_offset 14, -4
 310:../src/tensorflow_lite/src/tensorflow/lite/micro/memory_planner/greedy_memory_planner.cpp ****   CalculateOffsetsIfNeeded();
 713              		.loc 1 310 0
 714 0008 0040A0E1 		mov	r4, r0
 715              	.LVL73:
 716              	.LBB143:
 717              	.LBB141:
 161:../src/tensorflow_lite/src/tensorflow/lite/micro/memory_planner/greedy_memory_planner.cpp ****     return;
 718              		.loc 1 161 0
 719 000c 000053E3 		cmp	r3, #0
 720 0010 1E00001A 		bne	.L87
 721              	.L70:
 722              	.LVL74:
 723              	.LBE141:
 724              	.LBE143:
 312:../src/tensorflow_lite/src/tensorflow/lite/micro/memory_planner/greedy_memory_planner.cpp ****     return 0;
 725              		.loc 1 312 0
 726 0014 080094E5 		ldr	r0, [r4, #8]
 727              	.LVL75:
 728 0018 000050E3 		cmp	r0, #0
 729 001c 1080BD08 		popeq	{r4, pc}
 730              	.LVL76:
 731              	.LBB144:
 732              	.LBB145:
 315:../src/tensorflow_lite/src/tensorflow/lite/micro/memory_planner/greedy_memory_planner.cpp ****   size_t max_size = 0;
 733              		.loc 1 315 0
 734 0020 202094E5 		ldr	r2, [r4, #32]
 735 0024 181094E5 		ldr	r1, [r4, #24]
 736 0028 822082E0 		add	r2, r2, r2, lsl #1
 737 002c 0221A0E1 		lsl	r2, r2, #2
 738              	.LVL77:
 317:../src/tensorflow_lite/src/tensorflow/lite/micro/memory_planner/greedy_memory_planner.cpp ****     BufferRequirements* requirements =
 739              		.loc 1 317 0
 740 0030 020091E0 		adds	r0, r1, r2
 741              	.LVL78:
 742 0034 1080BD08 		popeq	{r4, pc}
 743              	.LBB146:
 319:../src/tensorflow_lite/src/tensorflow/lite/micro/memory_planner/greedy_memory_planner.cpp ****     const size_t current_size = entry->offset + requirements->size;
 744              		.loc 1 319 0
 745 0038 0C4094E5 		ldr	r4, [r4, #12]
 746              	.LVL79:
 747 003c 04C090E5 		ldr	ip, [r0, #4]
 324:../src/tensorflow_lite/src/tensorflow/lite/micro/memory_planner/greedy_memory_planner.cpp ****       break;
 748              		.loc 1 324 0
 749 0040 083090E5 		ldr	r3, [r0, #8]
 320:../src/tensorflow_lite/src/tensorflow/lite/micro/memory_planner/greedy_memory_planner.cpp ****     if (current_size > max_size) {
 750              		.loc 1 320 0
 751 0044 022091E7 		ldr	r2, [r1, r2]
 752 0048 0C0294E7 		ldr	r0, [r4, ip, lsl #4]
 753              	.LVL80:
 324:../src/tensorflow_lite/src/tensorflow/lite/micro/memory_planner/greedy_memory_planner.cpp ****       break;
 754              		.loc 1 324 0
 755 004c 010073E3 		cmn	r3, #1
 320:../src/tensorflow_lite/src/tensorflow/lite/micro/memory_planner/greedy_memory_planner.cpp ****     if (current_size > max_size) {
 756              		.loc 1 320 0
 757 0050 020080E0 		add	r0, r0, r2
 758              	.LVL81:
 324:../src/tensorflow_lite/src/tensorflow/lite/micro/memory_planner/greedy_memory_planner.cpp ****       break;
 759              		.loc 1 324 0
 760 0054 0900001A 		bne	.L73
 761 0058 0E0000EA 		b	.L88
 762              	.LVL82:
 763              	.L74:
 319:../src/tensorflow_lite/src/tensorflow/lite/micro/memory_planner/greedy_memory_planner.cpp ****     const size_t current_size = entry->offset + requirements->size;
 764              		.loc 1 319 0
 765 005c 04209CE5 		ldr	r2, [ip, #4]
 320:../src/tensorflow_lite/src/tensorflow/lite/micro/memory_planner/greedy_memory_planner.cpp ****     if (current_size > max_size) {
 766              		.loc 1 320 0
 767 0060 03E191E7 		ldr	lr, [r1, r3, lsl #2]
 324:../src/tensorflow_lite/src/tensorflow/lite/micro/memory_planner/greedy_memory_planner.cpp ****       break;
 768              		.loc 1 324 0
 769 0064 08309CE5 		ldr	r3, [ip, #8]
 770              	.LVL83:
 320:../src/tensorflow_lite/src/tensorflow/lite/micro/memory_planner/greedy_memory_planner.cpp ****     if (current_size > max_size) {
 771              		.loc 1 320 0
 772 0068 022294E7 		ldr	r2, [r4, r2, lsl #4]
 773 006c 0E2082E0 		add	r2, r2, lr
 774 0070 020050E1 		cmp	r0, r2
 775 0074 0200A031 		movcc	r0, r2
 776              	.LVL84:
 324:../src/tensorflow_lite/src/tensorflow/lite/micro/memory_planner/greedy_memory_planner.cpp ****       break;
 777              		.loc 1 324 0
 778 0078 010073E3 		cmn	r3, #1
 779 007c 1080BD08 		popeq	{r4, pc}
 780              	.LVL85:
 781              	.L73:
 327:../src/tensorflow_lite/src/tensorflow/lite/micro/memory_planner/greedy_memory_planner.cpp ****   }
 782              		.loc 1 327 0
 783 0080 833083E0 		add	r3, r3, r3, lsl #1
 784              	.LVL86:
 785              	.LBE146:
 317:../src/tensorflow_lite/src/tensorflow/lite/micro/memory_planner/greedy_memory_planner.cpp ****     BufferRequirements* requirements =
 786              		.loc 1 317 0
 787 0084 03C191E0 		adds	ip, r1, r3, lsl #2
 788              	.LVL87:
 789 0088 F3FFFF1A 		bne	.L74
 790              	.LBE145:
 791              	.LBE144:
 330:../src/tensorflow_lite/src/tensorflow/lite/micro/memory_planner/greedy_memory_planner.cpp **** 
 792              		.loc 1 330 0
 793 008c 1080BDE8 		pop	{r4, pc}
 794              	.LVL88:
 795              	.L87:
 796              	.LBB147:
 797              	.LBB142:
 798 0090 FEFFFFEB 		bl	_ZN6tflite19GreedyMemoryPlanner24CalculateOffsetsIfNeededEv.part.1
 799              	.LVL89:
 800 0094 DEFFFFEA 		b	.L70
 801              	.LVL90:
 802              	.L88:
 803 0098 1080BDE8 		pop	{r4, pc}
 804              	.LBE142:
 805              	.LBE147:
 806              		.cfi_endproc
 807              	.LFE30:
 808              		.cantunwind
 809              		.fnend
 811              		.section	.text._ZN6tflite19GreedyMemoryPlanner18GetOffsetForBufferEPNS_13ErrorReporterEiPi,"ax",%p
 812              		.align	2
 813              		.global	_ZN6tflite19GreedyMemoryPlanner18GetOffsetForBufferEPNS_13ErrorReporterEiPi
 814              		.syntax unified
 815              		.arm
 816              		.fpu neon
 818              	_ZN6tflite19GreedyMemoryPlanner18GetOffsetForBufferEPNS_13ErrorReporterEiPi:
 819              		.fnstart
 820              	.LFB33:
 394:../src/tensorflow_lite/src/tensorflow/lite/micro/memory_planner/greedy_memory_planner.cpp **** 
 395:../src/tensorflow_lite/src/tensorflow/lite/micro/memory_planner/greedy_memory_planner.cpp **** TfLiteStatus GreedyMemoryPlanner::GetOffsetForBuffer(
 396:../src/tensorflow_lite/src/tensorflow/lite/micro/memory_planner/greedy_memory_planner.cpp ****     tflite::ErrorReporter* error_reporter, int buffer_index, int* offset) {
 821              		.loc 1 396 0
 822              		.cfi_startproc
 823              		@ args = 0, pretend = 0, frame = 0
 824              		@ frame_needed = 0, uses_anonymous_args = 0
 825              	.LVL91:
 826 0000 F0412DE9 		push	{r4, r5, r6, r7, r8, lr}
 827              		.save {r4, r5, r6, r7, r8, lr}
 828              		.cfi_def_cfa_offset 24
 829              		.cfi_offset 4, -24
 830              		.cfi_offset 5, -20
 831              		.cfi_offset 6, -16
 832              		.cfi_offset 7, -12
 833              		.cfi_offset 8, -8
 834              		.cfi_offset 14, -4
 835              		.loc 1 396 0
 836 0004 0170A0E1 		mov	r7, r1
 837              	.LBB154:
 838              	.LBB155:
 161:../src/tensorflow_lite/src/tensorflow/lite/micro/memory_planner/greedy_memory_planner.cpp ****     return;
 839              		.loc 1 161 0
 840 0008 2810D0E5 		ldrb	r1, [r0, #40]	@ zero_extendqisi2
 841              	.LVL92:
 842              	.LBE155:
 843              	.LBE154:
 844              		.loc 1 396 0
 845 000c 0050A0E1 		mov	r5, r0
 846 0010 0240A0E1 		mov	r4, r2
 847              	.LVL93:
 848 0014 0360A0E1 		mov	r6, r3
 849              	.LBB158:
 850              	.LBB156:
 161:../src/tensorflow_lite/src/tensorflow/lite/micro/memory_planner/greedy_memory_planner.cpp ****     return;
 851              		.loc 1 161 0
 852 0018 000051E3 		cmp	r1, #0
 853 001c 1000001A 		bne	.L99
 854              	.LVL94:
 855              	.L90:
 856              	.LBE156:
 857              	.LBE158:
 397:../src/tensorflow_lite/src/tensorflow/lite/micro/memory_planner/greedy_memory_planner.cpp ****   CalculateOffsetsIfNeeded();
 398:../src/tensorflow_lite/src/tensorflow/lite/micro/memory_planner/greedy_memory_planner.cpp ****   if ((buffer_index < 0) || (buffer_index >= buffer_count_)) {
 858              		.loc 1 398 0
 859 0020 000054E3 		cmp	r4, #0
 860 0024 083095E5 		ldr	r3, [r5, #8]
 861 0028 060000BA 		blt	.L92
 862              		.loc 1 398 0 is_stmt 0 discriminator 1
 863 002c 030054E1 		cmp	r4, r3
 864 0030 040000AA 		bge	.L92
 399:../src/tensorflow_lite/src/tensorflow/lite/micro/memory_planner/greedy_memory_planner.cpp ****     TF_LITE_REPORT_ERROR(error_reporter,
 400:../src/tensorflow_lite/src/tensorflow/lite/micro/memory_planner/greedy_memory_planner.cpp ****                          "buffer index %d is outside range 0 to %d",
 401:../src/tensorflow_lite/src/tensorflow/lite/micro/memory_planner/greedy_memory_planner.cpp ****                          buffer_index, buffer_count_);
 402:../src/tensorflow_lite/src/tensorflow/lite/micro/memory_planner/greedy_memory_planner.cpp ****     return kTfLiteError;
 403:../src/tensorflow_lite/src/tensorflow/lite/micro/memory_planner/greedy_memory_planner.cpp ****   }
 404:../src/tensorflow_lite/src/tensorflow/lite/micro/memory_planner/greedy_memory_planner.cpp ****   *offset = buffer_offsets_[buffer_index];
 865              		.loc 1 404 0 is_stmt 1
 866 0034 243095E5 		ldr	r3, [r5, #36]
 405:../src/tensorflow_lite/src/tensorflow/lite/micro/memory_planner/greedy_memory_planner.cpp ****   return kTfLiteOk;
 867              		.loc 1 405 0
 868 0038 0000A0E3 		mov	r0, #0
 869              	.LVL95:
 404:../src/tensorflow_lite/src/tensorflow/lite/micro/memory_planner/greedy_memory_planner.cpp ****   return kTfLiteOk;
 870              		.loc 1 404 0
 871 003c 043193E7 		ldr	r3, [r3, r4, lsl #2]
 872 0040 003086E5 		str	r3, [r6]
 406:../src/tensorflow_lite/src/tensorflow/lite/micro/memory_planner/greedy_memory_planner.cpp **** }
 873              		.loc 1 406 0
 874 0044 F081BDE8 		pop	{r4, r5, r6, r7, r8, pc}
 875              	.LVL96:
 876              	.L92:
 877              	.LBB159:
 878              	.LBB160:
 399:../src/tensorflow_lite/src/tensorflow/lite/micro/memory_planner/greedy_memory_planner.cpp ****                          "buffer index %d is outside range 0 to %d",
 879              		.loc 1 399 0
 880 0048 001000E3 		movw	r1, #:lower16:.LC1
 881 004c 0420A0E1 		mov	r2, r4
 882 0050 0700A0E1 		mov	r0, r7
 883              	.LVL97:
 884 0054 001040E3 		movt	r1, #:upper16:.LC1
 885 0058 FEFFFFEB 		bl	_ZN6tflite13ErrorReporter6ReportEPKcz
 886              	.LVL98:
 887 005c 0100A0E3 		mov	r0, #1
 888 0060 F081BDE8 		pop	{r4, r5, r6, r7, r8, pc}
 889              	.LVL99:
 890              	.L99:
 891              	.LBE160:
 892              	.LBE159:
 893              	.LBB161:
 894              	.LBB157:
 895 0064 FEFFFFEB 		bl	_ZN6tflite19GreedyMemoryPlanner24CalculateOffsetsIfNeededEv.part.1
 896              	.LVL100:
 897 0068 ECFFFFEA 		b	.L90
 898              	.LBE157:
 899              	.LBE161:
 900              		.cfi_endproc
 901              	.LFE33:
 902              		.fnend
 904              		.section	.text._ZN6tflite18ReverseSortInPlaceEPiS0_i,"ax",%progbits
 905              		.align	2
 906              		.global	_ZN6tflite18ReverseSortInPlaceEPiS0_i
 907              		.syntax unified
 908              		.arm
 909              		.fpu neon
 911              	_ZN6tflite18ReverseSortInPlaceEPiS0_i:
 912              		.fnstart
 913              	.LFB17:
  43:../src/tensorflow_lite/src/tensorflow/lite/micro/memory_planner/greedy_memory_planner.cpp ****   bool any_swapped;
 914              		.loc 1 43 0
 915              		.cfi_startproc
 916              		@ args = 0, pretend = 0, frame = 0
 917              		@ frame_needed = 0, uses_anonymous_args = 0
 918              	.LVL101:
 919 0000 70402DE9 		push	{r4, r5, r6, lr}
 920              		.cfi_def_cfa_offset 16
 921              		.cfi_offset 4, -16
 922              		.cfi_offset 5, -12
 923              		.cfi_offset 6, -8
 924              		.cfi_offset 14, -4
 925 0004 075142E2 		sub	r5, r2, #-1073741823
 926 0008 055180E0 		add	r5, r0, r5, lsl #2
 927              	.L104:
 928              	.LVL102:
 929              	.LBB162:
  47:../src/tensorflow_lite/src/tensorflow/lite/micro/memory_planner/greedy_memory_planner.cpp ****       if (values[i - 1] < values[i]) {
 930              		.loc 1 47 0
 931 000c 010052E3 		cmp	r2, #1
 932 0010 7080BDD8 		pople	{r4, r5, r6, pc}
 933 0014 0030A0E1 		mov	r3, r0
 934 0018 01C0A0E1 		mov	ip, r1
 935 001c 0060A0E3 		mov	r6, #0
 936              	.LVL103:
 937              	.L103:
 938              	.LBB163:
  48:../src/tensorflow_lite/src/tensorflow/lite/micro/memory_planner/greedy_memory_planner.cpp ****         const int value_temp = values[i - 1];
 939              		.loc 1 48 0
 940 0020 00E093E5 		ldr	lr, [r3]
 941              	.LVL104:
 942 0024 044093E5 		ldr	r4, [r3, #4]
 943 0028 04005EE1 		cmp	lr, r4
 944 002c 050000AA 		bge	.L102
 945              	.LBB164:
  50:../src/tensorflow_lite/src/tensorflow/lite/micro/memory_planner/greedy_memory_planner.cpp ****         values[i] = value_temp;
 946              		.loc 1 50 0
 947 0030 004083E5 		str	r4, [r3]
  55:../src/tensorflow_lite/src/tensorflow/lite/micro/memory_planner/greedy_memory_planner.cpp ****       }
 948              		.loc 1 55 0
 949 0034 0160A0E3 		mov	r6, #1
  51:../src/tensorflow_lite/src/tensorflow/lite/micro/memory_planner/greedy_memory_planner.cpp ****         const int id_temp = ids[i - 1];
 950              		.loc 1 51 0
 951 0038 04E083E5 		str	lr, [r3, #4]
  53:../src/tensorflow_lite/src/tensorflow/lite/micro/memory_planner/greedy_memory_planner.cpp ****         ids[i] = id_temp;
 952              		.loc 1 53 0
 953 003c 10409CE8 		ldm	ip, {r4, lr}
 954              	.LVL105:
  54:../src/tensorflow_lite/src/tensorflow/lite/micro/memory_planner/greedy_memory_planner.cpp ****         any_swapped = true;
 955              		.loc 1 54 0
 956 0040 04408CE5 		str	r4, [ip, #4]
 957              	.LVL106:
  53:../src/tensorflow_lite/src/tensorflow/lite/micro/memory_planner/greedy_memory_planner.cpp ****         ids[i] = id_temp;
 958              		.loc 1 53 0
 959 0044 00E08CE5 		str	lr, [ip]
 960              	.LVL107:
 961              	.L102:
 962 0048 043083E2 		add	r3, r3, #4
 963 004c 04C08CE2 		add	ip, ip, #4
 964              	.LBE164:
 965              	.LBE163:
  47:../src/tensorflow_lite/src/tensorflow/lite/micro/memory_planner/greedy_memory_planner.cpp ****       if (values[i - 1] < values[i]) {
 966              		.loc 1 47 0 discriminator 2
 967 0050 050053E1 		cmp	r3, r5
 968 0054 F1FFFF1A 		bne	.L103
 969              	.LBE162:
  45:../src/tensorflow_lite/src/tensorflow/lite/micro/memory_planner/greedy_memory_planner.cpp ****     any_swapped = false;
 970              		.loc 1 45 0
 971 0058 000056E3 		cmp	r6, #0
 972 005c EAFFFF1A 		bne	.L104
 973 0060 7080BDE8 		pop	{r4, r5, r6, pc}
 974              		.cfi_endproc
 975              	.LFE17:
 976              		.cantunwind
 977              		.fnend
 979              		.section	.text._ZN6tflite19GreedyMemoryPlannerC2EPhi,"ax",%progbits
 980              		.align	2
 981              		.global	_ZN6tflite19GreedyMemoryPlannerC2EPhi
 982              		.syntax unified
 983              		.arm
 984              		.fpu neon
 986              	_ZN6tflite19GreedyMemoryPlannerC2EPhi:
 987              		.fnstart
 988              	.LFB19:
  61:../src/tensorflow_lite/src/tensorflow/lite/micro/memory_planner/greedy_memory_planner.cpp ****                                          int scratch_buffer_size)
 989              		.loc 1 61 0
 990              		.cfi_startproc
 991              		@ args = 0, pretend = 0, frame = 0
 992              		@ frame_needed = 0, uses_anonymous_args = 0
 993              	.LVL108:
 994 0000 30402DE9 		push	{r4, r5, lr}
 995              		.cfi_def_cfa_offset 12
 996              		.cfi_offset 4, -12
 997              		.cfi_offset 5, -8
 998              		.cfi_offset 14, -4
 999              	.LBB165:
 1000              	.LBB166:
  65:../src/tensorflow_lite/src/tensorflow/lite/micro/memory_planner/greedy_memory_planner.cpp **** 
 1001              		.loc 1 65 0
 1002 0004 CD4C0CE3 		movw	r4, #52429
 1003 0008 CC4C4CE3 		movt	r4, 52428
 1004              	.LBE166:
  63:../src/tensorflow_lite/src/tensorflow/lite/micro/memory_planner/greedy_memory_planner.cpp ****   // Allocate the arrays we need within the scratch buffer arena.
 1005              		.loc 1 63 0
 1006 000c 00C0A0E3 		mov	ip, #0
 1007              	.LBB167:
  65:../src/tensorflow_lite/src/tensorflow/lite/micro/memory_planner/greedy_memory_planner.cpp **** 
 1008              		.loc 1 65 0
 1009 0010 924485E0 		umull	r4, r5, r2, r4
 1010              	.LBE167:
  63:../src/tensorflow_lite/src/tensorflow/lite/micro/memory_planner/greedy_memory_planner.cpp ****   // Allocate the arrays we need within the scratch buffer arena.
 1011              		.loc 1 63 0
 1012 0014 0120A0E3 		mov	r2, #1
 1013              	.LVL109:
 1014 0018 08C080E5 		str	ip, [r0, #8]
 1015 001c 3CE09FE5 		ldr	lr, .L111
 1016              	.LBB168:
  68:../src/tensorflow_lite/src/tensorflow/lite/micro/memory_planner/greedy_memory_planner.cpp ****   next_free += sizeof(BufferRequirements) * max_buffer_count_;
 1017              		.loc 1 68 0
 1018 0020 0C1080E5 		str	r1, [r0, #12]
 1019              	.LBE168:
  63:../src/tensorflow_lite/src/tensorflow/lite/micro/memory_planner/greedy_memory_planner.cpp ****   // Allocate the arrays we need within the scratch buffer arena.
 1020              		.loc 1 63 0
 1021 0024 2820C0E5 		strb	r2, [r0, #40]
 1022              	.LVL110:
 1023              	.LBB169:
  65:../src/tensorflow_lite/src/tensorflow/lite/micro/memory_planner/greedy_memory_planner.cpp **** 
 1024              		.loc 1 65 0
 1025 0028 A5C2A0E1 		lsr	ip, r5, #5
 1026              	.LBE169:
  63:../src/tensorflow_lite/src/tensorflow/lite/micro/memory_planner/greedy_memory_planner.cpp ****   // Allocate the arrays we need within the scratch buffer arena.
 1027              		.loc 1 63 0
 1028 002c 00E080E5 		str	lr, [r0]
 1029              	.LBB170:
  69:../src/tensorflow_lite/src/tensorflow/lite/micro/memory_planner/greedy_memory_planner.cpp **** 
 1030              		.loc 1 69 0
 1031 0030 0C1281E0 		add	r1, r1, ip, lsl #4
 1032              	.LVL111:
  72:../src/tensorflow_lite/src/tensorflow/lite/micro/memory_planner/greedy_memory_planner.cpp **** 
 1033              		.loc 1 72 0
 1034 0034 0C21A0E1 		lsl	r2, ip, #2
  78:../src/tensorflow_lite/src/tensorflow/lite/micro/memory_planner/greedy_memory_planner.cpp **** 
 1035              		.loc 1 78 0
 1036 0038 8CE08CE0 		add	lr, ip, ip, lsl #1
  65:../src/tensorflow_lite/src/tensorflow/lite/micro/memory_planner/greedy_memory_planner.cpp **** 
 1037              		.loc 1 65 0
 1038 003c 04C080E5 		str	ip, [r0, #4]
 1039              	.LVL112:
  72:../src/tensorflow_lite/src/tensorflow/lite/micro/memory_planner/greedy_memory_planner.cpp **** 
 1040              		.loc 1 72 0
 1041 0040 02C081E0 		add	ip, r1, r2
 1042              	.LVL113:
  71:../src/tensorflow_lite/src/tensorflow/lite/micro/memory_planner/greedy_memory_planner.cpp ****   next_free += sizeof(int) * max_buffer_count_;
 1043              		.loc 1 71 0
 1044 0044 101080E5 		str	r1, [r0, #16]
  75:../src/tensorflow_lite/src/tensorflow/lite/micro/memory_planner/greedy_memory_planner.cpp **** 
 1045              		.loc 1 75 0
 1046 0048 02208CE0 		add	r2, ip, r2
 1047              	.LVL114:
  74:../src/tensorflow_lite/src/tensorflow/lite/micro/memory_planner/greedy_memory_planner.cpp ****   next_free += sizeof(int) * max_buffer_count_;
 1048              		.loc 1 74 0
 1049 004c 14C080E5 		str	ip, [r0, #20]
  78:../src/tensorflow_lite/src/tensorflow/lite/micro/memory_planner/greedy_memory_planner.cpp **** 
 1050              		.loc 1 78 0
 1051 0050 0E1182E0 		add	r1, r2, lr, lsl #2
  77:../src/tensorflow_lite/src/tensorflow/lite/micro/memory_planner/greedy_memory_planner.cpp ****   next_free += sizeof(ListEntry) * max_buffer_count_;
 1052              		.loc 1 77 0
 1053 0054 182080E5 		str	r2, [r0, #24]
 1054              	.LVL115:
  80:../src/tensorflow_lite/src/tensorflow/lite/micro/memory_planner/greedy_memory_planner.cpp **** }
 1055              		.loc 1 80 0
 1056 0058 241080E5 		str	r1, [r0, #36]
 1057              	.LBE170:
 1058              	.LBE165:
  81:../src/tensorflow_lite/src/tensorflow/lite/micro/memory_planner/greedy_memory_planner.cpp **** 
 1059              		.loc 1 81 0
 1060 005c 3080BDE8 		pop	{r4, r5, pc}
 1061              	.L112:
 1062              		.align	2
 1063              	.L111:
 1064 0060 08000000 		.word	.LANCHOR0+8
 1065              		.cfi_endproc
 1066              	.LFE19:
 1067              		.cantunwind
 1068              		.fnend
 1070              		.global	_ZN6tflite19GreedyMemoryPlannerC1EPhi
 1071              		.set	_ZN6tflite19GreedyMemoryPlannerC1EPhi,_ZN6tflite19GreedyMemoryPlannerC2EPhi
 1072              		.section	.text._ZN6tflite19GreedyMemoryPlanner9AddBufferEPNS_13ErrorReporterEiiii,"ax",%progbits
 1073              		.align	2
 1074              		.global	_ZN6tflite19GreedyMemoryPlanner9AddBufferEPNS_13ErrorReporterEiiii
 1075              		.syntax unified
 1076              		.arm
 1077              		.fpu neon
 1079              	_ZN6tflite19GreedyMemoryPlanner9AddBufferEPNS_13ErrorReporterEiiii:
 1080              		.fnstart
 1081              	.LFB26:
 107:../src/tensorflow_lite/src/tensorflow/lite/micro/memory_planner/greedy_memory_planner.cpp ****   BufferRequirements* current = &requirements_[buffer_count_];
 1082              		.loc 1 107 0
 1083              		.cfi_startproc
 1084              		@ args = 8, pretend = 0, frame = 0
 1085              		@ frame_needed = 0, uses_anonymous_args = 0
 1086              	.LVL116:
 1087 0000 F0432DE9 		push	{r4, r5, r6, r7, r8, r9, lr}
 1088              		.save {r4, r5, r6, r7, r8, r9, lr}
 1089              		.cfi_def_cfa_offset 28
 1090              		.cfi_offset 4, -28
 1091              		.cfi_offset 5, -24
 1092              		.cfi_offset 6, -20
 1093              		.cfi_offset 7, -16
 1094              		.cfi_offset 8, -12
 1095              		.cfi_offset 9, -8
 1096              		.cfi_offset 14, -4
 1097 0004 004000E3 		movw	r4, #:lower16:_ZN6tflite19GreedyMemoryPlanner9AddBufferEPNS_13ErrorReporterEiii
 109:../src/tensorflow_lite/src/tensorflow/lite/micro/memory_planner/greedy_memory_planner.cpp ****       kTfLiteOk) {
 1098              		.loc 1 109 0
 1099 0008 006090E5 		ldr	r6, [r0]
 1100 000c 004040E3 		movt	r4, #:upper16:_ZN6tflite19GreedyMemoryPlanner9AddBufferEPNS_13ErrorReporterEiii
 107:../src/tensorflow_lite/src/tensorflow/lite/micro/memory_planner/greedy_memory_planner.cpp ****   BufferRequirements* current = &requirements_[buffer_count_];
 1101              		.loc 1 107 0
 1102              		.pad #12
 1103 0010 0CD04DE2 		sub	sp, sp, #12
 1104              		.cfi_def_cfa_offset 40
 108:../src/tensorflow_lite/src/tensorflow/lite/micro/memory_planner/greedy_memory_planner.cpp ****   if (AddBuffer(error_reporter, size, first_time_used, last_time_used) !=
 1105              		.loc 1 108 0
 1106 0014 08E090E5 		ldr	lr, [r0, #8]
 109:../src/tensorflow_lite/src/tensorflow/lite/micro/memory_planner/greedy_memory_planner.cpp ****       kTfLiteOk) {
 1107              		.loc 1 109 0
 1108 0018 086096E5 		ldr	r6, [r6, #8]
 108:../src/tensorflow_lite/src/tensorflow/lite/micro/memory_planner/greedy_memory_planner.cpp ****   if (AddBuffer(error_reporter, size, first_time_used, last_time_used) !=
 1109              		.loc 1 108 0
 1110 001c 0C5090E5 		ldr	r5, [r0, #12]
 1111 0020 040056E1 		cmp	r6, r4
 1112 0024 0E4285E0 		add	r4, r5, lr, lsl #4
 1113              	.LVL117:
 1114 0028 1100001A 		bne	.L114
 1115 002c 0270A0E1 		mov	r7, r2
 1116              	.LVL118:
 1117              	.LBB173:
 1118              	.LBB174:
  90:../src/tensorflow_lite/src/tensorflow/lite/micro/memory_planner/greedy_memory_planner.cpp ****     TF_LITE_REPORT_ERROR(error_reporter, "Too many buffers (max is %d)",
 1119              		.loc 1 90 0
 1120 0030 042090E5 		ldr	r2, [r0, #4]
 1121              	.LVL119:
 1122 0034 02005EE1 		cmp	lr, r2
 1123 0038 150000AA 		bge	.L121
  98:../src/tensorflow_lite/src/tensorflow/lite/micro/memory_planner/greedy_memory_planner.cpp ****   current->offline_offset = kOnlinePlannedBuffer;
 1124              		.loc 1 98 0
 1125 003c 28109DE5 		ldr	r1, [sp, #40]
 1126              	.LVL120:
 1127 0040 0390A0E1 		mov	r9, r3
 1128              	.LVL121:
 100:../src/tensorflow_lite/src/tensorflow/lite/micro/memory_planner/greedy_memory_planner.cpp ****   need_to_calculate_offsets_ = true;
 1129              		.loc 1 100 0
 1130 0044 01208EE2 		add	r2, lr, #1
 101:../src/tensorflow_lite/src/tensorflow/lite/micro/memory_planner/greedy_memory_planner.cpp ****   return kTfLiteOk;
 1131              		.loc 1 101 0
 1132 0048 0130A0E3 		mov	r3, #1
 1133              	.LVL122:
  96:../src/tensorflow_lite/src/tensorflow/lite/micro/memory_planner/greedy_memory_planner.cpp ****   current->first_time_used = first_time_used;
 1134              		.loc 1 96 0
 1135 004c 0E7285E7 		str	r7, [r5, lr, lsl #4]
  97:../src/tensorflow_lite/src/tensorflow/lite/micro/memory_planner/greedy_memory_planner.cpp ****   current->last_time_used = last_time_used;
 1136              		.loc 1 97 0
 1137 0050 089084E5 		str	r9, [r4, #8]
  98:../src/tensorflow_lite/src/tensorflow/lite/micro/memory_planner/greedy_memory_planner.cpp ****   current->offline_offset = kOnlinePlannedBuffer;
 1138              		.loc 1 98 0
 1139 0054 0C1084E5 		str	r1, [r4, #12]
 100:../src/tensorflow_lite/src/tensorflow/lite/micro/memory_planner/greedy_memory_planner.cpp ****   need_to_calculate_offsets_ = true;
 1140              		.loc 1 100 0
 1141 0058 082080E5 		str	r2, [r0, #8]
 101:../src/tensorflow_lite/src/tensorflow/lite/micro/memory_planner/greedy_memory_planner.cpp ****   return kTfLiteOk;
 1142              		.loc 1 101 0
 1143 005c 2830C0E5 		strb	r3, [r0, #40]
 1144              	.LVL123:
 1145              	.L117:
 1146              	.LBE174:
 1147              	.LBE173:
 113:../src/tensorflow_lite/src/tensorflow/lite/micro/memory_planner/greedy_memory_planner.cpp ****   return kTfLiteOk;
 1148              		.loc 1 113 0
 1149 0060 2C309DE5 		ldr	r3, [sp, #44]
 114:../src/tensorflow_lite/src/tensorflow/lite/micro/memory_planner/greedy_memory_planner.cpp **** }
 1150              		.loc 1 114 0
 1151 0064 0000A0E3 		mov	r0, #0
 113:../src/tensorflow_lite/src/tensorflow/lite/micro/memory_planner/greedy_memory_planner.cpp ****   return kTfLiteOk;
 1152              		.loc 1 113 0
 1153 0068 043084E5 		str	r3, [r4, #4]
 115:../src/tensorflow_lite/src/tensorflow/lite/micro/memory_planner/greedy_memory_planner.cpp **** 
 1154              		.loc 1 115 0
 1155 006c 0CD08DE2 		add	sp, sp, #12
 1156              		.cfi_remember_state
 1157              		.cfi_def_cfa_offset 28
 1158              		@ sp needed
 1159 0070 F083BDE8 		pop	{r4, r5, r6, r7, r8, r9, pc}
 1160              	.LVL124:
 1161              	.L114:
 1162              		.cfi_restore_state
 109:../src/tensorflow_lite/src/tensorflow/lite/micro/memory_planner/greedy_memory_planner.cpp ****       kTfLiteOk) {
 1163              		.loc 1 109 0
 1164 0074 28C09DE5 		ldr	ip, [sp, #40]
 1165 0078 00C08DE5 		str	ip, [sp]
 1166 007c 36FF2FE1 		blx	r6
 1167              	.LVL125:
 1168 0080 000050E3 		cmp	r0, #0
 111:../src/tensorflow_lite/src/tensorflow/lite/micro/memory_planner/greedy_memory_planner.cpp ****   }
 1169              		.loc 1 111 0
 1170 0084 0100A013 		movne	r0, #1
 109:../src/tensorflow_lite/src/tensorflow/lite/micro/memory_planner/greedy_memory_planner.cpp ****       kTfLiteOk) {
 1171              		.loc 1 109 0
 1172 0088 F4FFFF0A 		beq	.L117
 115:../src/tensorflow_lite/src/tensorflow/lite/micro/memory_planner/greedy_memory_planner.cpp **** 
 1173              		.loc 1 115 0
 1174 008c 0CD08DE2 		add	sp, sp, #12
 1175              		.cfi_remember_state
 1176              		.cfi_def_cfa_offset 28
 1177              		@ sp needed
 1178 0090 F083BDE8 		pop	{r4, r5, r6, r7, r8, r9, pc}
 1179              	.LVL126:
 1180              	.L121:
 1181              		.cfi_restore_state
 1182 0094 0180A0E1 		mov	r8, r1
 1183              	.LBB176:
 1184              	.LBB175:
  91:../src/tensorflow_lite/src/tensorflow/lite/micro/memory_planner/greedy_memory_planner.cpp ****                          max_buffer_count_);
 1185              		.loc 1 91 0
 1186 0098 001000E3 		movw	r1, #:lower16:.LC0
 1187              	.LVL127:
 1188 009c 0800A0E1 		mov	r0, r8
 1189              	.LVL128:
 1190 00a0 001040E3 		movt	r1, #:upper16:.LC0
 1191 00a4 FEFFFFEB 		bl	_ZN6tflite13ErrorReporter6ReportEPKcz
 1192              	.LVL129:
 1193              	.LBE175:
 1194              	.LBE176:
 111:../src/tensorflow_lite/src/tensorflow/lite/micro/memory_planner/greedy_memory_planner.cpp ****   }
 1195              		.loc 1 111 0
 1196 00a8 0100A0E3 		mov	r0, #1
 115:../src/tensorflow_lite/src/tensorflow/lite/micro/memory_planner/greedy_memory_planner.cpp **** 
 1197              		.loc 1 115 0
 1198 00ac 0CD08DE2 		add	sp, sp, #12
 1199              		.cfi_def_cfa_offset 28
 1200              		@ sp needed
 1201 00b0 F083BDE8 		pop	{r4, r5, r6, r7, r8, r9, pc}
 1202              		.cfi_endproc
 1203              	.LFE26:
 1204              		.fnend
 1206              		.section	.text._ZNK6tflite19GreedyMemoryPlanner22DoesEntryOverlapInTimeEPKNS0_9ListEntryEii,"ax",%
 1207              		.align	2
 1208              		.global	_ZNK6tflite19GreedyMemoryPlanner22DoesEntryOverlapInTimeEPKNS0_9ListEntryEii
 1209              		.syntax unified
 1210              		.arm
 1211              		.fpu neon
 1213              	_ZNK6tflite19GreedyMemoryPlanner22DoesEntryOverlapInTimeEPKNS0_9ListEntryEii:
 1214              		.fnstart
 1215              	.LFB27:
 119:../src/tensorflow_lite/src/tensorflow/lite/micro/memory_planner/greedy_memory_planner.cpp ****   const BufferRequirements* entry_requirements =
 1216              		.loc 1 119 0
 1217              		.cfi_startproc
 1218              		@ args = 0, pretend = 0, frame = 0
 1219              		@ frame_needed = 0, uses_anonymous_args = 0
 1220              		@ link register save eliminated.
 1221              	.LVL130:
 121:../src/tensorflow_lite/src/tensorflow/lite/micro/memory_planner/greedy_memory_planner.cpp ****   if (entry_requirements->first_time_used > last_time_used) {
 1222              		.loc 1 121 0
 1223 0000 04C091E5 		ldr	ip, [r1, #4]
 1224 0004 0C1090E5 		ldr	r1, [r0, #12]
 1225              	.LVL131:
 1226 0008 0C1281E0 		add	r1, r1, ip, lsl #4
 1227              	.LVL132:
 122:../src/tensorflow_lite/src/tensorflow/lite/micro/memory_planner/greedy_memory_planner.cpp ****     return false;
 1228              		.loc 1 122 0
 1229 000c 080091E5 		ldr	r0, [r1, #8]
 1230              	.LVL133:
 1231 0010 030050E1 		cmp	r0, r3
 1232 0014 040000CA 		bgt	.L124
 125:../src/tensorflow_lite/src/tensorflow/lite/micro/memory_planner/greedy_memory_planner.cpp ****     return false;
 1233              		.loc 1 125 0
 1234 0018 0C0091E5 		ldr	r0, [r1, #12]
 1235 001c 020050E1 		cmp	r0, r2
 1236 0020 0000A0B3 		movlt	r0, #0
 1237 0024 0100A0A3 		movge	r0, #1
 1238 0028 1EFF2FE1 		bx	lr
 1239              	.L124:
 123:../src/tensorflow_lite/src/tensorflow/lite/micro/memory_planner/greedy_memory_planner.cpp ****   }
 1240              		.loc 1 123 0
 1241 002c 0000A0E3 		mov	r0, #0
 129:../src/tensorflow_lite/src/tensorflow/lite/micro/memory_planner/greedy_memory_planner.cpp **** 
 1242              		.loc 1 129 0
 1243 0030 1EFF2FE1 		bx	lr
 1244              		.cfi_endproc
 1245              	.LFE27:
 1246              		.cantunwind
 1247              		.fnend
 1249              		.section	.text._ZN6tflite19GreedyMemoryPlanner30NextSimultaneouslyActiveBufferEPKNS0_9ListEntryEii
 1250              		.align	2
 1251              		.global	_ZN6tflite19GreedyMemoryPlanner30NextSimultaneouslyActiveBufferEPKNS0_9ListEntryEii
 1252              		.syntax unified
 1253              		.arm
 1254              		.fpu neon
 1256              	_ZN6tflite19GreedyMemoryPlanner30NextSimultaneouslyActiveBufferEPKNS0_9ListEntryEii:
 1257              		.fnstart
 1258              	.LFB28:
 134:../src/tensorflow_lite/src/tensorflow/lite/micro/memory_planner/greedy_memory_planner.cpp ****   ListEntry* result = nullptr;
 1259              		.loc 1 134 0
 1260              		.cfi_startproc
 1261              		@ args = 0, pretend = 0, frame = 0
 1262              		@ frame_needed = 0, uses_anonymous_args = 0
 1263              	.LVL134:
 137:../src/tensorflow_lite/src/tensorflow/lite/micro/memory_planner/greedy_memory_planner.cpp ****     candidate_next_entry = &buffers_sorted_by_offset_[first_entry_index_];
 1264              		.loc 1 137 0
 1265 0000 000051E3 		cmp	r1, #0
 134:../src/tensorflow_lite/src/tensorflow/lite/micro/memory_planner/greedy_memory_planner.cpp ****   ListEntry* result = nullptr;
 1266              		.loc 1 134 0
 1267 0004 10402DE9 		push	{r4, lr}
 1268              		.cfi_def_cfa_offset 8
 1269              		.cfi_offset 4, -8
 1270              		.cfi_offset 14, -4
 134:../src/tensorflow_lite/src/tensorflow/lite/micro/memory_planner/greedy_memory_planner.cpp ****   ListEntry* result = nullptr;
 1271              		.loc 1 134 0
 1272 0008 00C0A0E1 		mov	ip, r0
 137:../src/tensorflow_lite/src/tensorflow/lite/micro/memory_planner/greedy_memory_planner.cpp ****     candidate_next_entry = &buffers_sorted_by_offset_[first_entry_index_];
 1273              		.loc 1 137 0
 1274 000c 1A00000A 		beq	.L134
 140:../src/tensorflow_lite/src/tensorflow/lite/micro/memory_planner/greedy_memory_planner.cpp ****       return nullptr;
 1275              		.loc 1 140 0
 1276 0010 081091E5 		ldr	r1, [r1, #8]
 1277              	.LVL135:
 1278 0014 010071E3 		cmn	r1, #1
 1279 0018 1500000A 		beq	.L132
 143:../src/tensorflow_lite/src/tensorflow/lite/micro/memory_planner/greedy_memory_planner.cpp ****   }
 1280              		.loc 1 143 0
 1281 001c 184090E5 		ldr	r4, [r0, #24]
 1282 0020 811081E0 		add	r1, r1, r1, lsl #1
 1283 0024 010184E0 		add	r0, r4, r1, lsl #2
 1284              	.LVL136:
 1285              	.L127:
 1286 0028 0CE09CE5 		ldr	lr, [ip, #12]
 1287 002c 040000EA 		b	.L130
 1288              	.LVL137:
 1289              	.L129:
 151:../src/tensorflow_lite/src/tensorflow/lite/micro/memory_planner/greedy_memory_planner.cpp ****       break;
 1290              		.loc 1 151 0
 1291 0030 080090E5 		ldr	r0, [r0, #8]
 1292              	.LVL138:
 1293 0034 010070E3 		cmn	r0, #1
 155:../src/tensorflow_lite/src/tensorflow/lite/micro/memory_planner/greedy_memory_planner.cpp ****   } while (true);
 1294              		.loc 1 155 0
 1295 0038 800080E0 		add	r0, r0, r0, lsl #1
 151:../src/tensorflow_lite/src/tensorflow/lite/micro/memory_planner/greedy_memory_planner.cpp ****       break;
 1296              		.loc 1 151 0
 1297 003c 0C00000A 		beq	.L132
 1298              	.LVL139:
 1299              	.L135:
 154:../src/tensorflow_lite/src/tensorflow/lite/micro/memory_planner/greedy_memory_planner.cpp ****         &buffers_sorted_by_offset_[candidate_next_entry->next_entry_index];
 1300              		.loc 1 154 0
 1301 0040 000184E0 		add	r0, r4, r0, lsl #2
 1302              	.LVL140:
 1303              	.L130:
 1304              	.LBB177:
 1305              	.LBB178:
 121:../src/tensorflow_lite/src/tensorflow/lite/micro/memory_planner/greedy_memory_planner.cpp ****   if (entry_requirements->first_time_used > last_time_used) {
 1306              		.loc 1 121 0
 1307 0044 041090E5 		ldr	r1, [r0, #4]
 1308 0048 01128EE0 		add	r1, lr, r1, lsl #4
 1309              	.LVL141:
 122:../src/tensorflow_lite/src/tensorflow/lite/micro/memory_planner/greedy_memory_planner.cpp ****     return false;
 1310              		.loc 1 122 0
 1311 004c 08C091E5 		ldr	ip, [r1, #8]
 1312 0050 0C0053E1 		cmp	r3, ip
 1313 0054 F5FFFFBA 		blt	.L129
 125:../src/tensorflow_lite/src/tensorflow/lite/micro/memory_planner/greedy_memory_planner.cpp ****     return false;
 1314              		.loc 1 125 0
 1315 0058 0C1091E5 		ldr	r1, [r1, #12]
 1316              	.LVL142:
 1317 005c 010052E1 		cmp	r2, r1
 1318 0060 1080BDD8 		pople	{r4, pc}
 1319              	.LBE178:
 1320              	.LBE177:
 151:../src/tensorflow_lite/src/tensorflow/lite/micro/memory_planner/greedy_memory_planner.cpp ****       break;
 1321              		.loc 1 151 0
 1322 0064 080090E5 		ldr	r0, [r0, #8]
 1323              	.LVL143:
 1324 0068 010070E3 		cmn	r0, #1
 155:../src/tensorflow_lite/src/tensorflow/lite/micro/memory_planner/greedy_memory_planner.cpp ****   } while (true);
 1325              		.loc 1 155 0
 1326 006c 800080E0 		add	r0, r0, r0, lsl #1
 151:../src/tensorflow_lite/src/tensorflow/lite/micro/memory_planner/greedy_memory_planner.cpp ****       break;
 1327              		.loc 1 151 0
 1328 0070 F2FFFF1A 		bne	.L135
 1329              	.L132:
 141:../src/tensorflow_lite/src/tensorflow/lite/micro/memory_planner/greedy_memory_planner.cpp ****     }
 1330              		.loc 1 141 0
 1331 0074 0000A0E3 		mov	r0, #0
 158:../src/tensorflow_lite/src/tensorflow/lite/micro/memory_planner/greedy_memory_planner.cpp **** 
 1332              		.loc 1 158 0
 1333 0078 1080BDE8 		pop	{r4, pc}
 1334              	.LVL144:
 1335              	.L134:
 138:../src/tensorflow_lite/src/tensorflow/lite/micro/memory_planner/greedy_memory_planner.cpp ****   } else {
 1336              		.loc 1 138 0
 1337 007c 201090E5 		ldr	r1, [r0, #32]
 1338              	.LVL145:
 1339 0080 184090E5 		ldr	r4, [r0, #24]
 1340 0084 811081E0 		add	r1, r1, r1, lsl #1
 1341 0088 010184E0 		add	r0, r4, r1, lsl #2
 1342              	.LVL146:
 1343 008c E5FFFFEA 		b	.L127
 1344              		.cfi_endproc
 1345              	.LFE28:
 1346              		.cantunwind
 1347              		.fnend
 1349              		.section	.text._ZN6tflite19GreedyMemoryPlanner24CalculateOffsetsIfNeededEv,"ax",%progbits
 1350              		.align	2
 1351              		.global	_ZN6tflite19GreedyMemoryPlanner24CalculateOffsetsIfNeededEv
 1352              		.syntax unified
 1353              		.arm
 1354              		.fpu neon
 1356              	_ZN6tflite19GreedyMemoryPlanner24CalculateOffsetsIfNeededEv:
 1357              		.fnstart
 1358              	.LFB29:
 160:../src/tensorflow_lite/src/tensorflow/lite/micro/memory_planner/greedy_memory_planner.cpp ****   if (!need_to_calculate_offsets_ || (buffer_count_ == 0)) {
 1359              		.loc 1 160 0
 1360              		.cfi_startproc
 1361              		@ args = 0, pretend = 0, frame = 0
 1362              		@ frame_needed = 0, uses_anonymous_args = 0
 1363              		@ link register save eliminated.
 1364              	.LVL147:
 161:../src/tensorflow_lite/src/tensorflow/lite/micro/memory_planner/greedy_memory_planner.cpp ****     return;
 1365              		.loc 1 161 0
 1366 0000 2830D0E5 		ldrb	r3, [r0, #40]	@ zero_extendqisi2
 1367 0004 000053E3 		cmp	r3, #0
 1368 0008 1EFF2F01 		bxeq	lr
 1369 000c FEFFFFEA 		b	_ZN6tflite19GreedyMemoryPlanner24CalculateOffsetsIfNeededEv.part.1
 1370              	.LVL148:
 1371              		.cfi_endproc
 1372              	.LFE29:
 1373              		.cantunwind
 1374              		.fnend
 1376              		.global	__aeabi_idiv
 1377              		.section	.text._ZN6tflite19GreedyMemoryPlanner15PrintMemoryPlanEv,"ax",%progbits
 1378              		.align	2
 1379              		.global	_ZN6tflite19GreedyMemoryPlanner15PrintMemoryPlanEv
 1380              		.syntax unified
 1381              		.arm
 1382              		.fpu neon
 1384              	_ZN6tflite19GreedyMemoryPlanner15PrintMemoryPlanEv:
 1385              		.fnstart
 1386              	.LFB31:
 332:../src/tensorflow_lite/src/tensorflow/lite/micro/memory_planner/greedy_memory_planner.cpp ****   CalculateOffsetsIfNeeded();
 1387              		.loc 1 332 0
 1388              		.cfi_startproc
 1389              		@ args = 0, pretend = 0, frame = 112
 1390              		@ frame_needed = 0, uses_anonymous_args = 0
 1391              	.LVL149:
 1392              	.LBB198:
 1393              	.LBB199:
 161:../src/tensorflow_lite/src/tensorflow/lite/micro/memory_planner/greedy_memory_planner.cpp ****     return;
 1394              		.loc 1 161 0
 1395 0000 2830D0E5 		ldrb	r3, [r0, #40]	@ zero_extendqisi2
 1396              	.LBE199:
 1397              	.LBE198:
 332:../src/tensorflow_lite/src/tensorflow/lite/micro/memory_planner/greedy_memory_planner.cpp ****   CalculateOffsetsIfNeeded();
 1398              		.loc 1 332 0
 1399 0004 F04F2DE9 		push	{r4, r5, r6, r7, r8, r9, r10, fp, lr}
 1400              		.save {r4, r5, r6, r7, r8, r9, r10, fp, lr}
 1401              		.cfi_def_cfa_offset 36
 1402              		.cfi_offset 4, -36
 1403              		.cfi_offset 5, -32
 1404              		.cfi_offset 6, -28
 1405              		.cfi_offset 7, -24
 1406              		.cfi_offset 8, -20
 1407              		.cfi_offset 9, -16
 1408              		.cfi_offset 10, -12
 1409              		.cfi_offset 11, -8
 1410              		.cfi_offset 14, -4
 1411 0008 108B2DED 		vpush.64	{d8, d9, d10, d11, d12, d13, d14, d15}
 1412              		.vsave {d8, d9, d10, d11, d12, d13, d14, d15}
 1413              		.cfi_def_cfa_offset 100
 1414              		.cfi_offset 80, -100
 1415              		.cfi_offset 81, -96
 1416              		.cfi_offset 82, -92
 1417              		.cfi_offset 83, -88
 1418              		.cfi_offset 84, -84
 1419              		.cfi_offset 85, -80
 1420              		.cfi_offset 86, -76
 1421              		.cfi_offset 87, -72
 1422              		.cfi_offset 88, -68
 1423              		.cfi_offset 89, -64
 1424              		.cfi_offset 90, -60
 1425              		.cfi_offset 91, -56
 1426              		.cfi_offset 92, -52
 1427              		.cfi_offset 93, -48
 1428              		.cfi_offset 94, -44
 1429              		.cfi_offset 95, -40
 1430              		.pad #132
 1431 000c 84D04DE2 		sub	sp, sp, #132
 1432              		.cfi_def_cfa_offset 232
 1433              	.LBB203:
 1434              	.LBB200:
 161:../src/tensorflow_lite/src/tensorflow/lite/micro/memory_planner/greedy_memory_planner.cpp ****     return;
 1435              		.loc 1 161 0
 1436 0010 000053E3 		cmp	r3, #0
 1437              	.LBE200:
 1438              	.LBE203:
 332:../src/tensorflow_lite/src/tensorflow/lite/micro/memory_planner/greedy_memory_planner.cpp ****   CalculateOffsetsIfNeeded();
 1439              		.loc 1 332 0
 1440 0014 18008DE5 		str	r0, [sp, #24]
 1441              	.LVL150:
 1442              	.LBB204:
 1443              	.LBB201:
 161:../src/tensorflow_lite/src/tensorflow/lite/micro/memory_planner/greedy_memory_planner.cpp ****     return;
 1444              		.loc 1 161 0
 1445 0018 D606001A 		bne	.L727
 1446              	.LVL151:
 1447              	.LBE201:
 1448              	.LBE204:
 1449              	.LBB205:
 335:../src/tensorflow_lite/src/tensorflow/lite/micro/memory_planner/greedy_memory_planner.cpp ****     MicroPrintf("%c (id=%d): size=%d, offset=%d, first_used=%d last_used=%d",
 1450              		.loc 1 335 0 discriminator 1
 1451 001c 18609DE5 		ldr	r6, [sp, #24]
 1452 0020 083096E5 		ldr	r3, [r6, #8]
 1453 0024 000053E3 		cmp	r3, #0
 1454 0028 D70600DA 		ble	.L455
 1455              	.L731:
 339:../src/tensorflow_lite/src/tensorflow/lite/micro/memory_planner/greedy_memory_planner.cpp ****   }
 1456              		.loc 1 339 0
 1457 002c 005000E3 		movw	r5, #:lower16:.LC4
 335:../src/tensorflow_lite/src/tensorflow/lite/micro/memory_planner/greedy_memory_planner.cpp ****     MicroPrintf("%c (id=%d): size=%d, offset=%d, first_used=%d last_used=%d",
 1458              		.loc 1 335 0
 1459 0030 0040A0E3 		mov	r4, #0
 339:../src/tensorflow_lite/src/tensorflow/lite/micro/memory_planner/greedy_memory_planner.cpp ****   }
 1460              		.loc 1 339 0
 1461 0034 005040E3 		movt	r5, #:upper16:.LC4
 1462              	.LVL152:
 1463              	.L147:
 1464              	.LBB206:
 1465              	.LBB207:
  28:../src/tensorflow_lite/src/tensorflow/lite/micro/memory_planner/greedy_memory_planner.cpp ****     return '0' + i;
 1466              		.loc 1 28 0
 1467 0038 090054E3 		cmp	r4, #9
 1468 003c 301084E2 		add	r1, r4, #48
 1469 0040 7110EFE6 		uxtb	r1, r1
 1470 0044 070000DA 		ble	.L144
 1471              	.LBB208:
 1472              	.LBB209:
  30:../src/tensorflow_lite/src/tensorflow/lite/micro/memory_planner/greedy_memory_planner.cpp ****     return 'a' + (i - 10);
 1473              		.loc 1 30 0
 1474 0048 230054E3 		cmp	r4, #35
  32:../src/tensorflow_lite/src/tensorflow/lite/micro/memory_planner/greedy_memory_planner.cpp ****     return 'A' + (i - 36);
 1475              		.loc 1 32 0
 1476 004c 2A10A0E3 		mov	r1, #42
 1477 0050 571084D2 		addle	r1, r4, #87
 1478 0054 7110EFD6 		uxtble	r1, r1
  30:../src/tensorflow_lite/src/tensorflow/lite/micro/memory_planner/greedy_memory_planner.cpp ****     return 'a' + (i - 10);
 1479              		.loc 1 30 0
 1480 0058 020000DA 		ble	.L144
  32:../src/tensorflow_lite/src/tensorflow/lite/micro/memory_planner/greedy_memory_planner.cpp ****     return 'A' + (i - 36);
 1481              		.loc 1 32 0
 1482 005c 3D0054E3 		cmp	r4, #61
 1483 0060 1D1084D2 		addle	r1, r4, #29
 1484 0064 7110EFD6 		uxtble	r1, r1
 1485              	.L144:
 1486              	.LVL153:
 1487              	.LBE209:
 1488              	.LBE208:
 1489              	.LBE207:
 1490              	.LBE206:
 337:../src/tensorflow_lite/src/tensorflow/lite/micro/memory_planner/greedy_memory_planner.cpp ****                 buffer_offsets_[i], requirements_[i].first_time_used,
 1491              		.loc 1 337 0
 1492 0068 0CC096E5 		ldr	ip, [r6, #12]
 339:../src/tensorflow_lite/src/tensorflow/lite/micro/memory_planner/greedy_memory_planner.cpp ****   }
 1493              		.loc 1 339 0
 1494 006c 0420A0E1 		mov	r2, r4
 336:../src/tensorflow_lite/src/tensorflow/lite/micro/memory_planner/greedy_memory_planner.cpp ****                 GetOrdinalCharacter(i), i, requirements_[i].size,
 1495              		.loc 1 336 0
 1496 0070 24E096E5 		ldr	lr, [r6, #36]
 339:../src/tensorflow_lite/src/tensorflow/lite/micro/memory_planner/greedy_memory_planner.cpp ****   }
 1497              		.loc 1 339 0
 1498 0074 0500A0E1 		mov	r0, r5
 1499 0078 04329CE7 		ldr	r3, [ip, r4, lsl #4]
 337:../src/tensorflow_lite/src/tensorflow/lite/micro/memory_planner/greedy_memory_planner.cpp ****                 buffer_offsets_[i], requirements_[i].first_time_used,
 1500              		.loc 1 337 0
 1501 007c 04C28CE0 		add	ip, ip, r4, lsl #4
 339:../src/tensorflow_lite/src/tensorflow/lite/micro/memory_planner/greedy_memory_planner.cpp ****   }
 1502              		.loc 1 339 0
 1503 0080 0C709CE5 		ldr	r7, [ip, #12]
 1504 0084 08708DE5 		str	r7, [sp, #8]
 1505 0088 08C09CE5 		ldr	ip, [ip, #8]
 1506 008c 04C08DE5 		str	ip, [sp, #4]
 1507 0090 04C19EE7 		ldr	ip, [lr, r4, lsl #2]
 335:../src/tensorflow_lite/src/tensorflow/lite/micro/memory_planner/greedy_memory_planner.cpp ****     MicroPrintf("%c (id=%d): size=%d, offset=%d, first_used=%d last_used=%d",
 1508              		.loc 1 335 0
 1509 0094 014084E2 		add	r4, r4, #1
 1510              	.LVL154:
 339:../src/tensorflow_lite/src/tensorflow/lite/micro/memory_planner/greedy_memory_planner.cpp ****   }
 1511              		.loc 1 339 0
 1512 0098 00C08DE5 		str	ip, [sp]
 1513 009c FEFFFFEB 		bl	_Z11MicroPrintfPKcz
 1514              	.LVL155:
 335:../src/tensorflow_lite/src/tensorflow/lite/micro/memory_planner/greedy_memory_planner.cpp ****     MicroPrintf("%c (id=%d): size=%d, offset=%d, first_used=%d last_used=%d",
 1515              		.loc 1 335 0
 1516 00a0 083096E5 		ldr	r3, [r6, #8]
 1517 00a4 040053E1 		cmp	r3, r4
 1518 00a8 E2FFFFCA 		bgt	.L147
 1519              	.LVL156:
 1520              	.LBE205:
 1521              	.LBB210:
 345:../src/tensorflow_lite/src/tensorflow/lite/micro/memory_planner/greedy_memory_planner.cpp ****     BufferRequirements* requirements = &requirements_[i];
 1522              		.loc 1 345 0 discriminator 1
 1523 00ac 000053E3 		cmp	r3, #0
 1524 00b0 B50600DA 		ble	.L455
 1525 00b4 18209DE5 		ldr	r2, [sp, #24]
 1526 00b8 050053E3 		cmp	r3, #5
 1527 00bc 00E0A093 		movls	lr, #0
 1528 00c0 01E0A083 		movhi	lr, #1
 1529 00c4 0C4092E5 		ldr	r4, [r2, #12]
 1530              	.LVL157:
 1531 00c8 245092E5 		ldr	r5, [r2, #36]
 1532 00cc 042085E1 		orr	r2, r5, r4
 1533 00d0 5220E3E7 		ubfx	r2, r2, #0, #4
 1534 00d4 000052E3 		cmp	r2, #0
 1535 00d8 00E0A013 		movne	lr, #0
 1536 00dc 00005EE3 		cmp	lr, #0
 1537 00e0 B406000A 		beq	.L148
 1538 00e4 042043E2 		sub	r2, r3, #4
 345:../src/tensorflow_lite/src/tensorflow/lite/micro/memory_planner/greedy_memory_planner.cpp ****     BufferRequirements* requirements = &requirements_[i];
 1539              		.loc 1 345 0 is_stmt 0
 1540 00e8 5020C0F2 		vmov.i32	q9, #0  @ v4si
 1541 00ec 2221A0E1 		lsr	r2, r2, #2
 1542 00f0 5000C5F2 		vmov.i32	q8, #80  @ v4si
 1543 00f4 0410A0E1 		mov	r1, r4
 1544 00f8 012082E2 		add	r2, r2, #1
 1545 00fc 05C0A0E1 		mov	ip, r5
 1546 0100 0261A0E1 		lsl	r6, r2, #2
 1547 0104 0000A0E3 		mov	r0, #0
 1548              	.LVL158:
 1549              	.L150:
 1550              	.LBB211:
 348:../src/tensorflow_lite/src/tensorflow/lite/micro/memory_planner/greedy_memory_planner.cpp ****     const int size = offset + requirements->size;
 1551              		.loc 1 348 0 is_stmt 1
 1552 0108 8F8161F4 		vld4.32	{d24, d26, d28, d30}, [r1]
 1553 010c 20E081E2 		add	lr, r1, #32
 1554 0110 010080E2 		add	r0, r0, #1
 1555 0114 10C08CE2 		add	ip, ip, #16
 1556 0118 000052E1 		cmp	r2, r0
 1557 011c 401081E2 		add	r1, r1, #64
 347:../src/tensorflow_lite/src/tensorflow/lite/micro/memory_planner/greedy_memory_planner.cpp ****     const int last_time_used = requirements->last_time_used;
 1558              		.loc 1 347 0
 1559 0120 044B5CED 		vldr	d20, [ip, #-16]
 1560 0124 025B5CED 		vldr	d21, [ip, #-8]
 1561              	.LVL159:
 348:../src/tensorflow_lite/src/tensorflow/lite/micro/memory_planner/greedy_memory_planner.cpp ****     const int size = offset + requirements->size;
 1562              		.loc 1 348 0
 1563 0128 8F916EF4 		vld4.32	{d25, d27, d29, d31}, [lr]
 349:../src/tensorflow_lite/src/tensorflow/lite/micro/memory_planner/greedy_memory_planner.cpp ****     if (size > max_size) {
 1564              		.loc 1 349 0
 1565 012c E84864F2 		vadd.i32	q10, q10, q12
 1566 0130 EE2662F2 		vmax.s32	q9, q9, q15
 1567 0134 E40660F2 		vmax.s32	q8, q8, q10
 1568 0138 F2FFFF8A 		bhi	.L150
 1569 013c A32662F2 		vmax.s32	d18, d18, d19
 1570 0140 060053E1 		cmp	r3, r6
 1571 0144 A10660F2 		vmax.s32	d16, d16, d17
 1572 0148 A22A62F2 		vpmax.s32	d18, d18, d18
 1573 014c A00A60F2 		vpmax.s32	d16, d16, d16
 1574 0150 908B12EE 		vmov.32	r8, d18[0]
 1575 0154 90EB10EE 		vmov.32	lr, d16[0]
 1576 0158 24808DE5 		str	r8, [sp, #36]
 1577 015c 14E08DE5 		str	lr, [sp, #20]
 1578 0160 2C00000A 		beq	.L152
 1579              	.LVL160:
 346:../src/tensorflow_lite/src/tensorflow/lite/micro/memory_planner/greedy_memory_planner.cpp ****     const int offset = buffer_offsets_[i];
 1580              		.loc 1 346 0
 1581 0164 061284E0 		add	r1, r4, r6, lsl #4
 1582              	.LVL161:
 349:../src/tensorflow_lite/src/tensorflow/lite/micro/memory_planner/greedy_memory_planner.cpp ****     if (size > max_size) {
 1583              		.loc 1 349 0
 1584 0168 062195E7 		ldr	r2, [r5, r6, lsl #2]
 1585 016c 06C294E7 		ldr	ip, [r4, r6, lsl #4]
 1586 0170 0C0091E5 		ldr	r0, [r1, #12]
 1587              	.LBE211:
 345:../src/tensorflow_lite/src/tensorflow/lite/micro/memory_planner/greedy_memory_planner.cpp ****     BufferRequirements* requirements = &requirements_[i];
 1588              		.loc 1 345 0
 1589 0174 011086E2 		add	r1, r6, #1
 1590              	.LBB212:
 349:../src/tensorflow_lite/src/tensorflow/lite/micro/memory_planner/greedy_memory_planner.cpp ****     if (size > max_size) {
 1591              		.loc 1 349 0
 1592 0178 0C2082E0 		add	r2, r2, ip
 1593 017c 02005EE1 		cmp	lr, r2
 1594 0180 0E20A0A1 		movge	r2, lr
 1595 0184 000058E1 		cmp	r8, r0
 1596 0188 0270A0E1 		mov	r7, r2
 1597 018c 14208DE5 		str	r2, [sp, #20]
 1598              	.LVL162:
 1599 0190 0820A0E1 		mov	r2, r8
 1600              	.LVL163:
 1601 0194 0020A0B1 		movlt	r2, r0
 1602              	.LBE212:
 345:../src/tensorflow_lite/src/tensorflow/lite/micro/memory_planner/greedy_memory_planner.cpp ****     BufferRequirements* requirements = &requirements_[i];
 1603              		.loc 1 345 0
 1604 0198 010053E1 		cmp	r3, r1
 1605 019c 0280A0E1 		mov	r8, r2
 1606              	.LVL164:
 1607 01a0 24208DE5 		str	r2, [sp, #36]
 1608              	.LVL165:
 1609 01a4 1B0000DA 		ble	.L152
 1610              	.LBB213:
 349:../src/tensorflow_lite/src/tensorflow/lite/micro/memory_planner/greedy_memory_planner.cpp ****     if (size > max_size) {
 1611              		.loc 1 349 0
 1612 01a8 012195E7 		ldr	r2, [r5, r1, lsl #2]
 1613              	.LVL166:
 346:../src/tensorflow_lite/src/tensorflow/lite/micro/memory_planner/greedy_memory_planner.cpp ****     const int offset = buffer_offsets_[i];
 1614              		.loc 1 346 0
 1615 01ac 01C284E0 		add	ip, r4, r1, lsl #4
 1616              	.LVL167:
 349:../src/tensorflow_lite/src/tensorflow/lite/micro/memory_planner/greedy_memory_planner.cpp ****     if (size > max_size) {
 1617              		.loc 1 349 0
 1618 01b0 010294E7 		ldr	r0, [r4, r1, lsl #4]
 1619              	.LBE213:
 345:../src/tensorflow_lite/src/tensorflow/lite/micro/memory_planner/greedy_memory_planner.cpp ****     BufferRequirements* requirements = &requirements_[i];
 1620              		.loc 1 345 0
 1621 01b4 02E086E2 		add	lr, r6, #2
 1622 01b8 0C109CE5 		ldr	r1, [ip, #12]
 1623              	.LVL168:
 1624              	.LBB214:
 349:../src/tensorflow_lite/src/tensorflow/lite/micro/memory_planner/greedy_memory_planner.cpp ****     if (size > max_size) {
 1625              		.loc 1 349 0
 1626 01bc 002082E0 		add	r2, r2, r0
 1627 01c0 020057E1 		cmp	r7, r2
 1628 01c4 0720A0A1 		movge	r2, r7
 1629 01c8 010058E1 		cmp	r8, r1
 1630 01cc 14208DE5 		str	r2, [sp, #20]
 1631              	.LVL169:
 1632 01d0 0820A0E1 		mov	r2, r8
 1633              	.LVL170:
 1634 01d4 0120A0B1 		movlt	r2, r1
 1635              	.LBE214:
 345:../src/tensorflow_lite/src/tensorflow/lite/micro/memory_planner/greedy_memory_planner.cpp ****     BufferRequirements* requirements = &requirements_[i];
 1636              		.loc 1 345 0
 1637 01d8 0E0053E1 		cmp	r3, lr
 1638 01dc 24208DE5 		str	r2, [sp, #36]
 1639              	.LVL171:
 1640 01e0 0C0000DA 		ble	.L152
 1641              	.LBB215:
 349:../src/tensorflow_lite/src/tensorflow/lite/micro/memory_planner/greedy_memory_planner.cpp ****     if (size > max_size) {
 1642              		.loc 1 349 0
 1643 01e4 0E0294E7 		ldr	r0, [r4, lr, lsl #4]
 1644              	.LVL172:
 346:../src/tensorflow_lite/src/tensorflow/lite/micro/memory_planner/greedy_memory_planner.cpp ****     const int offset = buffer_offsets_[i];
 1645              		.loc 1 346 0
 1646 01e8 0E1284E0 		add	r1, r4, lr, lsl #4
 1647              	.LVL173:
 349:../src/tensorflow_lite/src/tensorflow/lite/micro/memory_planner/greedy_memory_planner.cpp ****     if (size > max_size) {
 1648              		.loc 1 349 0
 1649 01ec 0E2195E7 		ldr	r2, [r5, lr, lsl #2]
 1650              	.LVL174:
 1651 01f0 0C1091E5 		ldr	r1, [r1, #12]
 1652              	.LVL175:
 1653 01f4 002082E0 		add	r2, r2, r0
 1654 01f8 14009DE5 		ldr	r0, [sp, #20]
 1655              	.LVL176:
 1656 01fc 020050E1 		cmp	r0, r2
 1657 0200 0020A0A1 		movge	r2, r0
 1658 0204 14208DE5 		str	r2, [sp, #20]
 1659              	.LVL177:
 1660 0208 24209DE5 		ldr	r2, [sp, #36]
 1661              	.LVL178:
 1662 020c 010052E1 		cmp	r2, r1
 1663 0210 0120A0B1 		movlt	r2, r1
 1664 0214 24208DE5 		str	r2, [sp, #36]
 1665              	.LVL179:
 1666              	.L152:
 1667              	.LBE215:
 1668              	.LBE210:
 1669              	.LBB218:
 359:../src/tensorflow_lite/src/tensorflow/lite/micro/memory_planner/greedy_memory_planner.cpp ****     for (int c = 0; c < kLineWidth; ++c) {
 1670              		.loc 1 359 0
 1671 0218 24209DE5 		ldr	r2, [sp, #36]
 1672 021c 000052E3 		cmp	r2, #0
 1673 0220 490600BA 		blt	.L138
 1674              	.LVL180:
 1675              	.L140:
 1676              	.LBE218:
 1677              	.LBB264:
 335:../src/tensorflow_lite/src/tensorflow/lite/micro/memory_planner/greedy_memory_planner.cpp ****     MicroPrintf("%c (id=%d): size=%d, offset=%d, first_used=%d last_used=%d",
 1678              		.loc 1 335 0 discriminator 2
 1679 0224 00B0A0E3 		mov	fp, #0
 1680              	.LVL181:
 1681              	.L453:
 1682 0228 5020A0E3 		mov	r2, #80
 1683 022c 2E10A0E3 		mov	r1, #46
 1684 0230 2C008DE2 		add	r0, sp, #44
 1685 0234 10308DE5 		str	r3, [sp, #16]
 1686              	.LVL182:
 1687 0238 FEFFFFEB 		bl	memset
 1688              	.LVL183:
 1689              	.LBE264:
 1690              	.LBB265:
 1691              	.LBB219:
 1692              	.LBB220:
 364:../src/tensorflow_lite/src/tensorflow/lite/micro/memory_planner/greedy_memory_planner.cpp ****       BufferRequirements* requirements = &requirements_[i];
 1693              		.loc 1 364 0 discriminator 2
 1694 023c 10309DE5 		ldr	r3, [sp, #16]
 1695 0240 000053E3 		cmp	r3, #0
 1696 0244 430600DA 		ble	.L458
 1697 0248 18209DE5 		ldr	r2, [sp, #24]
 364:../src/tensorflow_lite/src/tensorflow/lite/micro/memory_planner/greedy_memory_planner.cpp ****       BufferRequirements* requirements = &requirements_[i];
 1698              		.loc 1 364 0 is_stmt 0
 1699 024c 3070A0E3 		mov	r7, #48
 1700              	.LBB221:
 1701              	.LBB222:
 1702              	.LBB223:
 1703              	.LBB224:
  29:../src/tensorflow_lite/src/tensorflow/lite/micro/memory_planner/greedy_memory_planner.cpp ****   } else if (i < 36) {
 1704              		.loc 1 29 0 is_stmt 1
 1705 0250 50EE83F2 		vmov.i8	q7, #48  @ v16qi
 1706              	.LBE224:
 1707              	.LBE223:
 1708              	.LBE222:
 1709              	.LBE221:
 364:../src/tensorflow_lite/src/tensorflow/lite/micro/memory_planner/greedy_memory_planner.cpp ****       BufferRequirements* requirements = &requirements_[i];
 1710              		.loc 1 364 0
 1711 0254 1D60A0E3 		mov	r6, #29
 1712              	.LBB251:
 1713              	.LBB245:
 382:../src/tensorflow_lite/src/tensorflow/lite/micro/memory_planner/greedy_memory_planner.cpp ****         }
 1714              		.loc 1 382 0
 1715 0258 5ECE82F2 		vmov.i8	q6, #46  @ v16qi
 1716              	.LBE245:
 1717              	.LBE251:
 364:../src/tensorflow_lite/src/tensorflow/lite/micro/memory_planner/greedy_memory_planner.cpp ****       BufferRequirements* requirements = &requirements_[i];
 1718              		.loc 1 364 0
 1719 025c 5750A0E3 		mov	r5, #87
 1720 0260 0C8092E5 		ldr	r8, [r2, #12]
 1721 0264 0090A0E3 		mov	r9, #0
 1722              	.LBB252:
 1723              	.LBB246:
 382:../src/tensorflow_lite/src/tensorflow/lite/micro/memory_planner/greedy_memory_planner.cpp ****         }
 1724              		.loc 1 382 0
 1725 0268 51AE82F2 		vmov.i8	q5, #33  @ v16qi
 1726 026c 5A8E82F2 		vmov.i8	q4, #42  @ v16qi
 1727              	.LBE246:
 1728              	.LBE252:
 364:../src/tensorflow_lite/src/tensorflow/lite/micro/memory_planner/greedy_memory_planner.cpp ****       BufferRequirements* requirements = &requirements_[i];
 1729              		.loc 1 364 0
 1730 0270 10908DE5 		str	r9, [sp, #16]
 1731              	.LVL184:
 1732              	.L451:
 1733              	.LBB253:
 366:../src/tensorflow_lite/src/tensorflow/lite/micro/memory_planner/greedy_memory_planner.cpp ****           (t > requirements->last_time_used)) {
 1734              		.loc 1 366 0
 1735 0274 082098E5 		ldr	r2, [r8, #8]
 1736 0278 0B0052E1 		cmp	r2, fp
 1737 027c 970100CA 		bgt	.L159
 366:../src/tensorflow_lite/src/tensorflow/lite/micro/memory_planner/greedy_memory_planner.cpp ****           (t > requirements->last_time_used)) {
 1738              		.loc 1 366 0 is_stmt 0 discriminator 1
 1739 0280 0C2098E5 		ldr	r2, [r8, #12]
 1740 0284 0B0052E1 		cmp	r2, fp
 1741 0288 940100BA 		blt	.L159
 370:../src/tensorflow_lite/src/tensorflow/lite/micro/memory_planner/greedy_memory_planner.cpp ****       if (offset == -1) {
 1742              		.loc 1 370 0 is_stmt 1
 1743 028c 18209DE5 		ldr	r2, [sp, #24]
 1744 0290 242092E5 		ldr	r2, [r2, #36]
 1745 0294 094192E7 		ldr	r4, [r2, r9, lsl #2]
 1746              	.LVL185:
 371:../src/tensorflow_lite/src/tensorflow/lite/micro/memory_planner/greedy_memory_planner.cpp ****         continue;
 1747              		.loc 1 371 0
 1748 0298 010074E3 		cmn	r4, #1
 1749 029c 8F01000A 		beq	.L159
 374:../src/tensorflow_lite/src/tensorflow/lite/micro/memory_planner/greedy_memory_planner.cpp ****       memory_use += size;
 1750              		.loc 1 374 0
 1751 02a0 002098E5 		ldr	r2, [r8]
 1752              	.LVL186:
 376:../src/tensorflow_lite/src/tensorflow/lite/micro/memory_planner/greedy_memory_planner.cpp ****       const int line_end = ((offset + size) * kLineWidth) / max_size;
 1753              		.loc 1 376 0
 1754 02a4 040184E0 		add	r0, r4, r4, lsl #2
 1755 02a8 20308DE5 		str	r3, [sp, #32]
 375:../src/tensorflow_lite/src/tensorflow/lite/micro/memory_planner/greedy_memory_planner.cpp ****       const int line_start = (offset * kLineWidth) / max_size;
 1756              		.loc 1 375 0
 1757 02ac 10309DE5 		ldr	r3, [sp, #16]
 376:../src/tensorflow_lite/src/tensorflow/lite/micro/memory_planner/greedy_memory_planner.cpp ****       const int line_end = ((offset + size) * kLineWidth) / max_size;
 1758              		.loc 1 376 0
 1759 02b0 0002A0E1 		lsl	r0, r0, #4
 1760 02b4 14109DE5 		ldr	r1, [sp, #20]
 375:../src/tensorflow_lite/src/tensorflow/lite/micro/memory_planner/greedy_memory_planner.cpp ****       const int line_start = (offset * kLineWidth) / max_size;
 1761              		.loc 1 375 0
 1762 02b8 1C208DE5 		str	r2, [sp, #28]
 1763 02bc 023083E0 		add	r3, r3, r2
 1764 02c0 10308DE5 		str	r3, [sp, #16]
 1765              	.LVL187:
 376:../src/tensorflow_lite/src/tensorflow/lite/micro/memory_planner/greedy_memory_planner.cpp ****       const int line_end = ((offset + size) * kLineWidth) / max_size;
 1766              		.loc 1 376 0
 1767 02c4 FEFFFFEB 		bl	__aeabi_idiv
 1768              	.LVL188:
 377:../src/tensorflow_lite/src/tensorflow/lite/micro/memory_planner/greedy_memory_planner.cpp ****       for (int n = line_start; n < line_end; ++n) {
 1769              		.loc 1 377 0
 1770 02c8 1C209DE5 		ldr	r2, [sp, #28]
 376:../src/tensorflow_lite/src/tensorflow/lite/micro/memory_planner/greedy_memory_planner.cpp ****       const int line_end = ((offset + size) * kLineWidth) / max_size;
 1771              		.loc 1 376 0
 1772 02cc 00A0A0E1 		mov	r10, r0
 1773              	.LVL189:
 377:../src/tensorflow_lite/src/tensorflow/lite/micro/memory_planner/greedy_memory_planner.cpp ****       for (int n = line_start; n < line_end; ++n) {
 1774              		.loc 1 377 0
 1775 02d0 14109DE5 		ldr	r1, [sp, #20]
 1776 02d4 022084E0 		add	r2, r4, r2
 1777 02d8 022182E0 		add	r2, r2, r2, lsl #2
 1778 02dc 0202A0E1 		lsl	r0, r2, #4
 1779              	.LVL190:
 1780 02e0 FEFFFFEB 		bl	__aeabi_idiv
 1781              	.LVL191:
 1782              	.LBB247:
 378:../src/tensorflow_lite/src/tensorflow/lite/micro/memory_planner/greedy_memory_planner.cpp ****         if (line[n] == '.') {
 1783              		.loc 1 378 0
 1784 02e4 00005AE1 		cmp	r10, r0
 1785 02e8 20309DE5 		ldr	r3, [sp, #32]
 1786 02ec 7B0100AA 		bge	.L159
 1787 02f0 3D0059E3 		cmp	r9, #61
 1788 02f4 2C208DE2 		add	r2, sp, #44
 1789 02f8 9E0100DA 		ble	.L160
 1790 02fc 0A2082E0 		add	r2, r2, r10
 1791 0300 0AC040E0 		sub	ip, r0, r10
 1792 0304 072002E2 		and	r2, r2, #7
 1793 0308 002062E2 		rsb	r2, r2, #0
 1794 030c 0F2002E2 		and	r2, r2, #15
 1795 0310 0C0052E1 		cmp	r2, ip
 1796 0314 0C20A021 		movcs	r2, ip
 1797 0318 10005CE3 		cmp	ip, #16
 1798 031c 0C20A091 		movls	r2, ip
 1799 0320 000052E3 		cmp	r2, #0
 1800 0324 0606000A 		beq	.L459
 379:../src/tensorflow_lite/src/tensorflow/lite/micro/memory_planner/greedy_memory_planner.cpp ****           line[n] = GetOrdinalCharacter(i);
 1801              		.loc 1 379 0
 1802 0328 80108DE2 		add	r1, sp, #128
 1803 032c 0A4081E0 		add	r4, r1, r10
 1804              	.LVL192:
 378:../src/tensorflow_lite/src/tensorflow/lite/micro/memory_planner/greedy_memory_planner.cpp ****         if (line[n] == '.') {
 1805              		.loc 1 378 0
 1806 0330 01108AE2 		add	r1, r10, #1
 1807              	.LVL193:
 379:../src/tensorflow_lite/src/tensorflow/lite/micro/memory_planner/greedy_memory_planner.cpp ****           line[n] = GetOrdinalCharacter(i);
 1808              		.loc 1 379 0
 1809 0334 54E054E5 		ldrb	lr, [r4, #-84]	@ zero_extendqisi2
 380:../src/tensorflow_lite/src/tensorflow/lite/micro/memory_planner/greedy_memory_planner.cpp ****         } else {
 1810              		.loc 1 380 0
 1811 0338 2E005EE3 		cmp	lr, #46
 1812 033c 21E0A013 		movne	lr, #33
 1813 0340 2AE0A003 		moveq	lr, #42
 1814 0344 010052E3 		cmp	r2, #1
 1815 0348 54E044E5 		strb	lr, [r4, #-84]
 1816 034c 9300000A 		beq	.L165
 379:../src/tensorflow_lite/src/tensorflow/lite/micro/memory_planner/greedy_memory_planner.cpp ****           line[n] = GetOrdinalCharacter(i);
 1817              		.loc 1 379 0
 1818 0350 80E08DE2 		add	lr, sp, #128
 1819 0354 01408EE0 		add	r4, lr, r1
 378:../src/tensorflow_lite/src/tensorflow/lite/micro/memory_planner/greedy_memory_planner.cpp ****         if (line[n] == '.') {
 1820              		.loc 1 378 0
 1821 0358 02108AE2 		add	r1, r10, #2
 1822              	.LVL194:
 379:../src/tensorflow_lite/src/tensorflow/lite/micro/memory_planner/greedy_memory_planner.cpp ****           line[n] = GetOrdinalCharacter(i);
 1823              		.loc 1 379 0
 1824 035c 54E054E5 		ldrb	lr, [r4, #-84]	@ zero_extendqisi2
 380:../src/tensorflow_lite/src/tensorflow/lite/micro/memory_planner/greedy_memory_planner.cpp ****         } else {
 1825              		.loc 1 380 0
 1826 0360 2E005EE3 		cmp	lr, #46
 1827 0364 21E0A013 		movne	lr, #33
 1828 0368 2AE0A003 		moveq	lr, #42
 1829 036c 020052E3 		cmp	r2, #2
 1830 0370 54E044E5 		strb	lr, [r4, #-84]
 1831 0374 8900000A 		beq	.L165
 379:../src/tensorflow_lite/src/tensorflow/lite/micro/memory_planner/greedy_memory_planner.cpp ****           line[n] = GetOrdinalCharacter(i);
 1832              		.loc 1 379 0
 1833 0378 80E08DE2 		add	lr, sp, #128
 1834 037c 01408EE0 		add	r4, lr, r1
 378:../src/tensorflow_lite/src/tensorflow/lite/micro/memory_planner/greedy_memory_planner.cpp ****         if (line[n] == '.') {
 1835              		.loc 1 378 0
 1836 0380 03108AE2 		add	r1, r10, #3
 1837              	.LVL195:
 379:../src/tensorflow_lite/src/tensorflow/lite/micro/memory_planner/greedy_memory_planner.cpp ****           line[n] = GetOrdinalCharacter(i);
 1838              		.loc 1 379 0
 1839 0384 54E054E5 		ldrb	lr, [r4, #-84]	@ zero_extendqisi2
 380:../src/tensorflow_lite/src/tensorflow/lite/micro/memory_planner/greedy_memory_planner.cpp ****         } else {
 1840              		.loc 1 380 0
 1841 0388 2E005EE3 		cmp	lr, #46
 1842 038c 21E0A013 		movne	lr, #33
 1843 0390 2AE0A003 		moveq	lr, #42
 1844 0394 030052E3 		cmp	r2, #3
 1845 0398 54E044E5 		strb	lr, [r4, #-84]
 1846 039c 7F00000A 		beq	.L165
 379:../src/tensorflow_lite/src/tensorflow/lite/micro/memory_planner/greedy_memory_planner.cpp ****           line[n] = GetOrdinalCharacter(i);
 1847              		.loc 1 379 0
 1848 03a0 80E08DE2 		add	lr, sp, #128
 1849 03a4 01408EE0 		add	r4, lr, r1
 378:../src/tensorflow_lite/src/tensorflow/lite/micro/memory_planner/greedy_memory_planner.cpp ****         if (line[n] == '.') {
 1850              		.loc 1 378 0
 1851 03a8 04108AE2 		add	r1, r10, #4
 1852              	.LVL196:
 379:../src/tensorflow_lite/src/tensorflow/lite/micro/memory_planner/greedy_memory_planner.cpp ****           line[n] = GetOrdinalCharacter(i);
 1853              		.loc 1 379 0
 1854 03ac 54E054E5 		ldrb	lr, [r4, #-84]	@ zero_extendqisi2
 380:../src/tensorflow_lite/src/tensorflow/lite/micro/memory_planner/greedy_memory_planner.cpp ****         } else {
 1855              		.loc 1 380 0
 1856 03b0 2E005EE3 		cmp	lr, #46
 1857 03b4 21E0A013 		movne	lr, #33
 1858 03b8 2AE0A003 		moveq	lr, #42
 1859 03bc 040052E3 		cmp	r2, #4
 1860 03c0 54E044E5 		strb	lr, [r4, #-84]
 1861 03c4 7500000A 		beq	.L165
 379:../src/tensorflow_lite/src/tensorflow/lite/micro/memory_planner/greedy_memory_planner.cpp ****           line[n] = GetOrdinalCharacter(i);
 1862              		.loc 1 379 0
 1863 03c8 80E08DE2 		add	lr, sp, #128
 1864 03cc 01408EE0 		add	r4, lr, r1
 378:../src/tensorflow_lite/src/tensorflow/lite/micro/memory_planner/greedy_memory_planner.cpp ****         if (line[n] == '.') {
 1865              		.loc 1 378 0
 1866 03d0 05108AE2 		add	r1, r10, #5
 1867              	.LVL197:
 379:../src/tensorflow_lite/src/tensorflow/lite/micro/memory_planner/greedy_memory_planner.cpp ****           line[n] = GetOrdinalCharacter(i);
 1868              		.loc 1 379 0
 1869 03d4 54E054E5 		ldrb	lr, [r4, #-84]	@ zero_extendqisi2
 380:../src/tensorflow_lite/src/tensorflow/lite/micro/memory_planner/greedy_memory_planner.cpp ****         } else {
 1870              		.loc 1 380 0
 1871 03d8 2E005EE3 		cmp	lr, #46
 1872 03dc 21E0A013 		movne	lr, #33
 1873 03e0 2AE0A003 		moveq	lr, #42
 1874 03e4 050052E3 		cmp	r2, #5
 1875 03e8 54E044E5 		strb	lr, [r4, #-84]
 1876 03ec 6B00000A 		beq	.L165
 379:../src/tensorflow_lite/src/tensorflow/lite/micro/memory_planner/greedy_memory_planner.cpp ****           line[n] = GetOrdinalCharacter(i);
 1877              		.loc 1 379 0
 1878 03f0 80E08DE2 		add	lr, sp, #128
 1879 03f4 01408EE0 		add	r4, lr, r1
 378:../src/tensorflow_lite/src/tensorflow/lite/micro/memory_planner/greedy_memory_planner.cpp ****         if (line[n] == '.') {
 1880              		.loc 1 378 0
 1881 03f8 06108AE2 		add	r1, r10, #6
 1882              	.LVL198:
 379:../src/tensorflow_lite/src/tensorflow/lite/micro/memory_planner/greedy_memory_planner.cpp ****           line[n] = GetOrdinalCharacter(i);
 1883              		.loc 1 379 0
 1884 03fc 54E054E5 		ldrb	lr, [r4, #-84]	@ zero_extendqisi2
 380:../src/tensorflow_lite/src/tensorflow/lite/micro/memory_planner/greedy_memory_planner.cpp ****         } else {
 1885              		.loc 1 380 0
 1886 0400 2E005EE3 		cmp	lr, #46
 1887 0404 21E0A013 		movne	lr, #33
 1888 0408 2AE0A003 		moveq	lr, #42
 1889 040c 060052E3 		cmp	r2, #6
 1890 0410 54E044E5 		strb	lr, [r4, #-84]
 1891 0414 6100000A 		beq	.L165
 379:../src/tensorflow_lite/src/tensorflow/lite/micro/memory_planner/greedy_memory_planner.cpp ****           line[n] = GetOrdinalCharacter(i);
 1892              		.loc 1 379 0
 1893 0418 80E08DE2 		add	lr, sp, #128
 1894 041c 01408EE0 		add	r4, lr, r1
 378:../src/tensorflow_lite/src/tensorflow/lite/micro/memory_planner/greedy_memory_planner.cpp ****         if (line[n] == '.') {
 1895              		.loc 1 378 0
 1896 0420 07108AE2 		add	r1, r10, #7
 1897              	.LVL199:
 379:../src/tensorflow_lite/src/tensorflow/lite/micro/memory_planner/greedy_memory_planner.cpp ****           line[n] = GetOrdinalCharacter(i);
 1898              		.loc 1 379 0
 1899 0424 54E054E5 		ldrb	lr, [r4, #-84]	@ zero_extendqisi2
 380:../src/tensorflow_lite/src/tensorflow/lite/micro/memory_planner/greedy_memory_planner.cpp ****         } else {
 1900              		.loc 1 380 0
 1901 0428 2E005EE3 		cmp	lr, #46
 1902 042c 21E0A013 		movne	lr, #33
 1903 0430 2AE0A003 		moveq	lr, #42
 1904 0434 070052E3 		cmp	r2, #7
 1905 0438 54E044E5 		strb	lr, [r4, #-84]
 1906 043c 5700000A 		beq	.L165
 379:../src/tensorflow_lite/src/tensorflow/lite/micro/memory_planner/greedy_memory_planner.cpp ****           line[n] = GetOrdinalCharacter(i);
 1907              		.loc 1 379 0
 1908 0440 80E08DE2 		add	lr, sp, #128
 1909 0444 01408EE0 		add	r4, lr, r1
 378:../src/tensorflow_lite/src/tensorflow/lite/micro/memory_planner/greedy_memory_planner.cpp ****         if (line[n] == '.') {
 1910              		.loc 1 378 0
 1911 0448 08108AE2 		add	r1, r10, #8
 1912              	.LVL200:
 379:../src/tensorflow_lite/src/tensorflow/lite/micro/memory_planner/greedy_memory_planner.cpp ****           line[n] = GetOrdinalCharacter(i);
 1913              		.loc 1 379 0
 1914 044c 54E054E5 		ldrb	lr, [r4, #-84]	@ zero_extendqisi2
 380:../src/tensorflow_lite/src/tensorflow/lite/micro/memory_planner/greedy_memory_planner.cpp ****         } else {
 1915              		.loc 1 380 0
 1916 0450 2E005EE3 		cmp	lr, #46
 1917 0454 21E0A013 		movne	lr, #33
 1918 0458 2AE0A003 		moveq	lr, #42
 1919 045c 080052E3 		cmp	r2, #8
 1920 0460 54E044E5 		strb	lr, [r4, #-84]
 1921 0464 4D00000A 		beq	.L165
 379:../src/tensorflow_lite/src/tensorflow/lite/micro/memory_planner/greedy_memory_planner.cpp ****           line[n] = GetOrdinalCharacter(i);
 1922              		.loc 1 379 0
 1923 0468 80E08DE2 		add	lr, sp, #128
 1924 046c 01408EE0 		add	r4, lr, r1
 378:../src/tensorflow_lite/src/tensorflow/lite/micro/memory_planner/greedy_memory_planner.cpp ****         if (line[n] == '.') {
 1925              		.loc 1 378 0
 1926 0470 09108AE2 		add	r1, r10, #9
 1927              	.LVL201:
 379:../src/tensorflow_lite/src/tensorflow/lite/micro/memory_planner/greedy_memory_planner.cpp ****           line[n] = GetOrdinalCharacter(i);
 1928              		.loc 1 379 0
 1929 0474 54E054E5 		ldrb	lr, [r4, #-84]	@ zero_extendqisi2
 380:../src/tensorflow_lite/src/tensorflow/lite/micro/memory_planner/greedy_memory_planner.cpp ****         } else {
 1930              		.loc 1 380 0
 1931 0478 2E005EE3 		cmp	lr, #46
 1932 047c 21E0A013 		movne	lr, #33
 1933 0480 2AE0A003 		moveq	lr, #42
 1934 0484 090052E3 		cmp	r2, #9
 1935 0488 54E044E5 		strb	lr, [r4, #-84]
 1936 048c 4300000A 		beq	.L165
 379:../src/tensorflow_lite/src/tensorflow/lite/micro/memory_planner/greedy_memory_planner.cpp ****           line[n] = GetOrdinalCharacter(i);
 1937              		.loc 1 379 0
 1938 0490 80E08DE2 		add	lr, sp, #128
 1939 0494 01408EE0 		add	r4, lr, r1
 378:../src/tensorflow_lite/src/tensorflow/lite/micro/memory_planner/greedy_memory_planner.cpp ****         if (line[n] == '.') {
 1940              		.loc 1 378 0
 1941 0498 0A108AE2 		add	r1, r10, #10
 1942              	.LVL202:
 379:../src/tensorflow_lite/src/tensorflow/lite/micro/memory_planner/greedy_memory_planner.cpp ****           line[n] = GetOrdinalCharacter(i);
 1943              		.loc 1 379 0
 1944 049c 54E054E5 		ldrb	lr, [r4, #-84]	@ zero_extendqisi2
 380:../src/tensorflow_lite/src/tensorflow/lite/micro/memory_planner/greedy_memory_planner.cpp ****         } else {
 1945              		.loc 1 380 0
 1946 04a0 2E005EE3 		cmp	lr, #46
 1947 04a4 21E0A013 		movne	lr, #33
 1948 04a8 2AE0A003 		moveq	lr, #42
 1949 04ac 0A0052E3 		cmp	r2, #10
 1950 04b0 54E044E5 		strb	lr, [r4, #-84]
 1951 04b4 3900000A 		beq	.L165
 379:../src/tensorflow_lite/src/tensorflow/lite/micro/memory_planner/greedy_memory_planner.cpp ****           line[n] = GetOrdinalCharacter(i);
 1952              		.loc 1 379 0
 1953 04b8 80E08DE2 		add	lr, sp, #128
 1954 04bc 01408EE0 		add	r4, lr, r1
 378:../src/tensorflow_lite/src/tensorflow/lite/micro/memory_planner/greedy_memory_planner.cpp ****         if (line[n] == '.') {
 1955              		.loc 1 378 0
 1956 04c0 0B108AE2 		add	r1, r10, #11
 1957              	.LVL203:
 379:../src/tensorflow_lite/src/tensorflow/lite/micro/memory_planner/greedy_memory_planner.cpp ****           line[n] = GetOrdinalCharacter(i);
 1958              		.loc 1 379 0
 1959 04c4 54E054E5 		ldrb	lr, [r4, #-84]	@ zero_extendqisi2
 380:../src/tensorflow_lite/src/tensorflow/lite/micro/memory_planner/greedy_memory_planner.cpp ****         } else {
 1960              		.loc 1 380 0
 1961 04c8 2E005EE3 		cmp	lr, #46
 1962 04cc 21E0A013 		movne	lr, #33
 1963 04d0 2AE0A003 		moveq	lr, #42
 1964 04d4 0B0052E3 		cmp	r2, #11
 1965 04d8 54E044E5 		strb	lr, [r4, #-84]
 1966 04dc 2F00000A 		beq	.L165
 379:../src/tensorflow_lite/src/tensorflow/lite/micro/memory_planner/greedy_memory_planner.cpp ****           line[n] = GetOrdinalCharacter(i);
 1967              		.loc 1 379 0
 1968 04e0 80E08DE2 		add	lr, sp, #128
 1969 04e4 01408EE0 		add	r4, lr, r1
 378:../src/tensorflow_lite/src/tensorflow/lite/micro/memory_planner/greedy_memory_planner.cpp ****         if (line[n] == '.') {
 1970              		.loc 1 378 0
 1971 04e8 0C108AE2 		add	r1, r10, #12
 1972              	.LVL204:
 379:../src/tensorflow_lite/src/tensorflow/lite/micro/memory_planner/greedy_memory_planner.cpp ****           line[n] = GetOrdinalCharacter(i);
 1973              		.loc 1 379 0
 1974 04ec 54E054E5 		ldrb	lr, [r4, #-84]	@ zero_extendqisi2
 380:../src/tensorflow_lite/src/tensorflow/lite/micro/memory_planner/greedy_memory_planner.cpp ****         } else {
 1975              		.loc 1 380 0
 1976 04f0 2E005EE3 		cmp	lr, #46
 1977 04f4 21E0A013 		movne	lr, #33
 1978 04f8 2AE0A003 		moveq	lr, #42
 1979 04fc 0C0052E3 		cmp	r2, #12
 1980 0500 54E044E5 		strb	lr, [r4, #-84]
 1981 0504 2500000A 		beq	.L165
 379:../src/tensorflow_lite/src/tensorflow/lite/micro/memory_planner/greedy_memory_planner.cpp ****           line[n] = GetOrdinalCharacter(i);
 1982              		.loc 1 379 0
 1983 0508 80E08DE2 		add	lr, sp, #128
 1984 050c 01408EE0 		add	r4, lr, r1
 378:../src/tensorflow_lite/src/tensorflow/lite/micro/memory_planner/greedy_memory_planner.cpp ****         if (line[n] == '.') {
 1985              		.loc 1 378 0
 1986 0510 0D108AE2 		add	r1, r10, #13
 1987              	.LVL205:
 379:../src/tensorflow_lite/src/tensorflow/lite/micro/memory_planner/greedy_memory_planner.cpp ****           line[n] = GetOrdinalCharacter(i);
 1988              		.loc 1 379 0
 1989 0514 54E054E5 		ldrb	lr, [r4, #-84]	@ zero_extendqisi2
 380:../src/tensorflow_lite/src/tensorflow/lite/micro/memory_planner/greedy_memory_planner.cpp ****         } else {
 1990              		.loc 1 380 0
 1991 0518 2E005EE3 		cmp	lr, #46
 1992 051c 21E0A013 		movne	lr, #33
 1993 0520 2AE0A003 		moveq	lr, #42
 1994 0524 0D0052E3 		cmp	r2, #13
 1995 0528 54E044E5 		strb	lr, [r4, #-84]
 1996 052c 1B00000A 		beq	.L165
 379:../src/tensorflow_lite/src/tensorflow/lite/micro/memory_planner/greedy_memory_planner.cpp ****           line[n] = GetOrdinalCharacter(i);
 1997              		.loc 1 379 0
 1998 0530 80E08DE2 		add	lr, sp, #128
 1999 0534 01408EE0 		add	r4, lr, r1
 378:../src/tensorflow_lite/src/tensorflow/lite/micro/memory_planner/greedy_memory_planner.cpp ****         if (line[n] == '.') {
 2000              		.loc 1 378 0
 2001 0538 0E108AE2 		add	r1, r10, #14
 2002              	.LVL206:
 379:../src/tensorflow_lite/src/tensorflow/lite/micro/memory_planner/greedy_memory_planner.cpp ****           line[n] = GetOrdinalCharacter(i);
 2003              		.loc 1 379 0
 2004 053c 54E054E5 		ldrb	lr, [r4, #-84]	@ zero_extendqisi2
 380:../src/tensorflow_lite/src/tensorflow/lite/micro/memory_planner/greedy_memory_planner.cpp ****         } else {
 2005              		.loc 1 380 0
 2006 0540 2E005EE3 		cmp	lr, #46
 2007 0544 21E0A013 		movne	lr, #33
 2008 0548 2AE0A003 		moveq	lr, #42
 2009 054c 0E0052E3 		cmp	r2, #14
 2010 0550 54E044E5 		strb	lr, [r4, #-84]
 2011 0554 1100000A 		beq	.L165
 379:../src/tensorflow_lite/src/tensorflow/lite/micro/memory_planner/greedy_memory_planner.cpp ****           line[n] = GetOrdinalCharacter(i);
 2012              		.loc 1 379 0
 2013 0558 80E08DE2 		add	lr, sp, #128
 2014 055c 01408EE0 		add	r4, lr, r1
 378:../src/tensorflow_lite/src/tensorflow/lite/micro/memory_planner/greedy_memory_planner.cpp ****         if (line[n] == '.') {
 2015              		.loc 1 378 0
 2016 0560 0F108AE2 		add	r1, r10, #15
 2017              	.LVL207:
 379:../src/tensorflow_lite/src/tensorflow/lite/micro/memory_planner/greedy_memory_planner.cpp ****           line[n] = GetOrdinalCharacter(i);
 2018              		.loc 1 379 0
 2019 0564 54E054E5 		ldrb	lr, [r4, #-84]	@ zero_extendqisi2
 380:../src/tensorflow_lite/src/tensorflow/lite/micro/memory_planner/greedy_memory_planner.cpp ****         } else {
 2020              		.loc 1 380 0
 2021 0568 2E005EE3 		cmp	lr, #46
 2022 056c 21E0A013 		movne	lr, #33
 2023 0570 2AE0A003 		moveq	lr, #42
 2024 0574 0F0052E3 		cmp	r2, #15
 2025 0578 54E044E5 		strb	lr, [r4, #-84]
 2026 057c 0700000A 		beq	.L165
 379:../src/tensorflow_lite/src/tensorflow/lite/micro/memory_planner/greedy_memory_planner.cpp ****           line[n] = GetOrdinalCharacter(i);
 2027              		.loc 1 379 0
 2028 0580 80E08DE2 		add	lr, sp, #128
 2029 0584 01408EE0 		add	r4, lr, r1
 378:../src/tensorflow_lite/src/tensorflow/lite/micro/memory_planner/greedy_memory_planner.cpp ****         if (line[n] == '.') {
 2030              		.loc 1 378 0
 2031 0588 10108AE2 		add	r1, r10, #16
 2032              	.LVL208:
 379:../src/tensorflow_lite/src/tensorflow/lite/micro/memory_planner/greedy_memory_planner.cpp ****           line[n] = GetOrdinalCharacter(i);
 2033              		.loc 1 379 0
 2034 058c 54E054E5 		ldrb	lr, [r4, #-84]	@ zero_extendqisi2
 382:../src/tensorflow_lite/src/tensorflow/lite/micro/memory_planner/greedy_memory_planner.cpp ****         }
 2035              		.loc 1 382 0
 2036 0590 2E005EE3 		cmp	lr, #46
 2037 0594 2AE0A003 		moveq	lr, #42
 2038 0598 21E0A013 		movne	lr, #33
 2039 059c 54E044E5 		strb	lr, [r4, #-84]
 2040              	.L165:
 2041 05a0 02005CE1 		cmp	ip, r2
 2042 05a4 CD00000A 		beq	.L159
 2043              	.L162:
 2044 05a8 02404CE0 		sub	r4, ip, r2
 2045 05ac 01C04CE2 		sub	ip, ip, #1
 2046 05b0 10E044E2 		sub	lr, r4, #16
 2047 05b4 02C04CE0 		sub	ip, ip, r2
 2048 05b8 2EE2A0E1 		lsr	lr, lr, #4
 2049 05bc 0E005CE3 		cmp	ip, #14
 2050 05c0 01E08EE2 		add	lr, lr, #1
 2051 05c4 0EC2A0E1 		lsl	ip, lr, #4
 2052 05c8 3100009A 		bls	.L198
 2053 05cc 02208AE0 		add	r2, r10, r2
 2054 05d0 2CA08DE2 		add	r10, sp, #44
 2055              	.LVL209:
 2056 05d4 01005EE3 		cmp	lr, #1
 2057 05d8 02208AE0 		add	r2, r10, r2
 2058              	.LVL210:
 2059 05dc DF4A62F4 		vld1.64	{d20-d21}, [r2:64]
 2060 05e0 DC4844F3 		vceq.i8	q10, q10, q6
 2061 05e4 5A4158F3 		vbsl	q10, q4, q5
 2062 05e8 DF4A42F4 		vst1.64	{d20-d21}, [r2:64]
 2063 05ec 2500000A 		beq	.L199
 2064 05f0 02005EE3 		cmp	lr, #2
 2065 05f4 044BD2ED 		vldr	d20, [r2, #16]
 2066 05f8 065BD2ED 		vldr	d21, [r2, #24]
 2067 05fc DC4844F3 		vceq.i8	q10, q10, q6
 2068 0600 5A4158F3 		vbsl	q10, q4, q5
 2069 0604 044BC2ED 		vstr	d20, [r2, #16]
 2070 0608 065BC2ED 		vstr	d21, [r2, #24]
 2071 060c 1D00000A 		beq	.L199
 2072 0610 03005EE3 		cmp	lr, #3
 2073 0614 084BD2ED 		vldr	d20, [r2, #32]
 2074 0618 0A5BD2ED 		vldr	d21, [r2, #40]
 2075 061c DC4844F3 		vceq.i8	q10, q10, q6
 2076 0620 5A4158F3 		vbsl	q10, q4, q5
 2077 0624 084BC2ED 		vstr	d20, [r2, #32]
 2078 0628 0A5BC2ED 		vstr	d21, [r2, #40]
 2079 062c 1500000A 		beq	.L199
 2080 0630 04005EE3 		cmp	lr, #4
 2081 0634 0C4BD2ED 		vldr	d20, [r2, #48]
 2082 0638 0E5BD2ED 		vldr	d21, [r2, #56]
 2083 063c DC4844F3 		vceq.i8	q10, q10, q6
 2084 0640 5A4158F3 		vbsl	q10, q4, q5
 2085 0644 0C4BC2ED 		vstr	d20, [r2, #48]
 2086 0648 0E5BC2ED 		vstr	d21, [r2, #56]
 2087 064c 0D00000A 		beq	.L199
 2088 0650 05005EE3 		cmp	lr, #5
 2089 0654 104BD2ED 		vldr	d20, [r2, #64]
 2090 0658 125BD2ED 		vldr	d21, [r2, #72]
 2091 065c DC4844F3 		vceq.i8	q10, q10, q6
 2092 0660 5A4158F3 		vbsl	q10, q4, q5
 2093 0664 104BC2ED 		vstr	d20, [r2, #64]
 2094 0668 125BC2ED 		vstr	d21, [r2, #72]
 2095 066c 0500000A 		beq	.L199
 2096 0670 144BD2ED 		vldr	d20, [r2, #80]
 2097 0674 165BD2ED 		vldr	d21, [r2, #88]
 2098 0678 DC4844F3 		vceq.i8	q10, q10, q6
 2099 067c 5A4158F3 		vbsl	q10, q4, q5
 2100 0680 144BC2ED 		vstr	d20, [r2, #80]
 2101 0684 165BC2ED 		vstr	d21, [r2, #88]
 2102              	.L199:
 2103 0688 0C0054E1 		cmp	r4, ip
 2104 068c 0C1081E0 		add	r1, r1, ip
 2105 0690 9200000A 		beq	.L159
 2106              	.L198:
 2107              	.LVL211:
 379:../src/tensorflow_lite/src/tensorflow/lite/micro/memory_planner/greedy_memory_planner.cpp ****           line[n] = GetOrdinalCharacter(i);
 2108              		.loc 1 379 0
 2109 0694 80208DE2 		add	r2, sp, #128
 2110 0698 01E082E0 		add	lr, r2, r1
 378:../src/tensorflow_lite/src/tensorflow/lite/micro/memory_planner/greedy_memory_planner.cpp ****         if (line[n] == '.') {
 2111              		.loc 1 378 0
 2112 069c 012081E2 		add	r2, r1, #1
 2113              	.LVL212:
 379:../src/tensorflow_lite/src/tensorflow/lite/micro/memory_planner/greedy_memory_planner.cpp ****           line[n] = GetOrdinalCharacter(i);
 2114              		.loc 1 379 0
 2115 06a0 54C05EE5 		ldrb	ip, [lr, #-84]	@ zero_extendqisi2
 382:../src/tensorflow_lite/src/tensorflow/lite/micro/memory_planner/greedy_memory_planner.cpp ****         }
 2116              		.loc 1 382 0
 2117 06a4 2E005CE3 		cmp	ip, #46
 2118 06a8 2AC0A003 		moveq	ip, #42
 2119 06ac 21C0A013 		movne	ip, #33
 378:../src/tensorflow_lite/src/tensorflow/lite/micro/memory_planner/greedy_memory_planner.cpp ****         if (line[n] == '.') {
 2120              		.loc 1 378 0
 2121 06b0 020050E1 		cmp	r0, r2
 382:../src/tensorflow_lite/src/tensorflow/lite/micro/memory_planner/greedy_memory_planner.cpp ****         }
 2122              		.loc 1 382 0
 2123 06b4 54C04EE5 		strb	ip, [lr, #-84]
 378:../src/tensorflow_lite/src/tensorflow/lite/micro/memory_planner/greedy_memory_planner.cpp ****         if (line[n] == '.') {
 2124              		.loc 1 378 0
 2125 06b8 880000DA 		ble	.L159
 379:../src/tensorflow_lite/src/tensorflow/lite/micro/memory_planner/greedy_memory_planner.cpp ****           line[n] = GetOrdinalCharacter(i);
 2126              		.loc 1 379 0
 2127 06bc 80C08DE2 		add	ip, sp, #128
 2128 06c0 02208CE0 		add	r2, ip, r2
 2129              	.LVL213:
 378:../src/tensorflow_lite/src/tensorflow/lite/micro/memory_planner/greedy_memory_planner.cpp ****         if (line[n] == '.') {
 2130              		.loc 1 378 0
 2131 06c4 02C081E2 		add	ip, r1, #2
 2132              	.LVL214:
 379:../src/tensorflow_lite/src/tensorflow/lite/micro/memory_planner/greedy_memory_planner.cpp ****           line[n] = GetOrdinalCharacter(i);
 2133              		.loc 1 379 0
 2134 06c8 54E052E5 		ldrb	lr, [r2, #-84]	@ zero_extendqisi2
 382:../src/tensorflow_lite/src/tensorflow/lite/micro/memory_planner/greedy_memory_planner.cpp ****         }
 2135              		.loc 1 382 0
 2136 06cc 2E005EE3 		cmp	lr, #46
 2137 06d0 2AE0A003 		moveq	lr, #42
 2138 06d4 21E0A013 		movne	lr, #33
 378:../src/tensorflow_lite/src/tensorflow/lite/micro/memory_planner/greedy_memory_planner.cpp ****         if (line[n] == '.') {
 2139              		.loc 1 378 0
 2140 06d8 0C0050E1 		cmp	r0, ip
 382:../src/tensorflow_lite/src/tensorflow/lite/micro/memory_planner/greedy_memory_planner.cpp ****         }
 2141              		.loc 1 382 0
 2142 06dc 54E042E5 		strb	lr, [r2, #-84]
 378:../src/tensorflow_lite/src/tensorflow/lite/micro/memory_planner/greedy_memory_planner.cpp ****         if (line[n] == '.') {
 2143              		.loc 1 378 0
 2144 06e0 7E0000DA 		ble	.L159
 379:../src/tensorflow_lite/src/tensorflow/lite/micro/memory_planner/greedy_memory_planner.cpp ****           line[n] = GetOrdinalCharacter(i);
 2145              		.loc 1 379 0
 2146 06e4 80208DE2 		add	r2, sp, #128
 2147 06e8 0CC082E0 		add	ip, r2, ip
 2148              	.LVL215:
 378:../src/tensorflow_lite/src/tensorflow/lite/micro/memory_planner/greedy_memory_planner.cpp ****         if (line[n] == '.') {
 2149              		.loc 1 378 0
 2150 06ec 032081E2 		add	r2, r1, #3
 2151              	.LVL216:
 379:../src/tensorflow_lite/src/tensorflow/lite/micro/memory_planner/greedy_memory_planner.cpp ****           line[n] = GetOrdinalCharacter(i);
 2152              		.loc 1 379 0
 2153 06f0 54E05CE5 		ldrb	lr, [ip, #-84]	@ zero_extendqisi2
 382:../src/tensorflow_lite/src/tensorflow/lite/micro/memory_planner/greedy_memory_planner.cpp ****         }
 2154              		.loc 1 382 0
 2155 06f4 2E005EE3 		cmp	lr, #46
 2156 06f8 2AE0A003 		moveq	lr, #42
 2157 06fc 21E0A013 		movne	lr, #33
 378:../src/tensorflow_lite/src/tensorflow/lite/micro/memory_planner/greedy_memory_planner.cpp ****         if (line[n] == '.') {
 2158              		.loc 1 378 0
 2159 0700 020050E1 		cmp	r0, r2
 382:../src/tensorflow_lite/src/tensorflow/lite/micro/memory_planner/greedy_memory_planner.cpp ****         }
 2160              		.loc 1 382 0
 2161 0704 54E04CE5 		strb	lr, [ip, #-84]
 378:../src/tensorflow_lite/src/tensorflow/lite/micro/memory_planner/greedy_memory_planner.cpp ****         if (line[n] == '.') {
 2162              		.loc 1 378 0
 2163 0708 740000DA 		ble	.L159
 379:../src/tensorflow_lite/src/tensorflow/lite/micro/memory_planner/greedy_memory_planner.cpp ****           line[n] = GetOrdinalCharacter(i);
 2164              		.loc 1 379 0
 2165 070c 80C08DE2 		add	ip, sp, #128
 2166 0710 02208CE0 		add	r2, ip, r2
 2167              	.LVL217:
 378:../src/tensorflow_lite/src/tensorflow/lite/micro/memory_planner/greedy_memory_planner.cpp ****         if (line[n] == '.') {
 2168              		.loc 1 378 0
 2169 0714 04C081E2 		add	ip, r1, #4
 2170              	.LVL218:
 379:../src/tensorflow_lite/src/tensorflow/lite/micro/memory_planner/greedy_memory_planner.cpp ****           line[n] = GetOrdinalCharacter(i);
 2171              		.loc 1 379 0
 2172 0718 54E052E5 		ldrb	lr, [r2, #-84]	@ zero_extendqisi2
 382:../src/tensorflow_lite/src/tensorflow/lite/micro/memory_planner/greedy_memory_planner.cpp ****         }
 2173              		.loc 1 382 0
 2174 071c 2E005EE3 		cmp	lr, #46
 2175 0720 2AE0A003 		moveq	lr, #42
 2176 0724 21E0A013 		movne	lr, #33
 378:../src/tensorflow_lite/src/tensorflow/lite/micro/memory_planner/greedy_memory_planner.cpp ****         if (line[n] == '.') {
 2177              		.loc 1 378 0
 2178 0728 0C0050E1 		cmp	r0, ip
 382:../src/tensorflow_lite/src/tensorflow/lite/micro/memory_planner/greedy_memory_planner.cpp ****         }
 2179              		.loc 1 382 0
 2180 072c 54E042E5 		strb	lr, [r2, #-84]
 378:../src/tensorflow_lite/src/tensorflow/lite/micro/memory_planner/greedy_memory_planner.cpp ****         if (line[n] == '.') {
 2181              		.loc 1 378 0
 2182 0730 6A0000DA 		ble	.L159
 379:../src/tensorflow_lite/src/tensorflow/lite/micro/memory_planner/greedy_memory_planner.cpp ****           line[n] = GetOrdinalCharacter(i);
 2183              		.loc 1 379 0
 2184 0734 80208DE2 		add	r2, sp, #128
 2185 0738 0CC082E0 		add	ip, r2, ip
 2186              	.LVL219:
 378:../src/tensorflow_lite/src/tensorflow/lite/micro/memory_planner/greedy_memory_planner.cpp ****         if (line[n] == '.') {
 2187              		.loc 1 378 0
 2188 073c 052081E2 		add	r2, r1, #5
 2189              	.LVL220:
 379:../src/tensorflow_lite/src/tensorflow/lite/micro/memory_planner/greedy_memory_planner.cpp ****           line[n] = GetOrdinalCharacter(i);
 2190              		.loc 1 379 0
 2191 0740 54E05CE5 		ldrb	lr, [ip, #-84]	@ zero_extendqisi2
 382:../src/tensorflow_lite/src/tensorflow/lite/micro/memory_planner/greedy_memory_planner.cpp ****         }
 2192              		.loc 1 382 0
 2193 0744 2E005EE3 		cmp	lr, #46
 2194 0748 2AE0A003 		moveq	lr, #42
 2195 074c 21E0A013 		movne	lr, #33
 378:../src/tensorflow_lite/src/tensorflow/lite/micro/memory_planner/greedy_memory_planner.cpp ****         if (line[n] == '.') {
 2196              		.loc 1 378 0
 2197 0750 000052E1 		cmp	r2, r0
 382:../src/tensorflow_lite/src/tensorflow/lite/micro/memory_planner/greedy_memory_planner.cpp ****         }
 2198              		.loc 1 382 0
 2199 0754 54E04CE5 		strb	lr, [ip, #-84]
 378:../src/tensorflow_lite/src/tensorflow/lite/micro/memory_planner/greedy_memory_planner.cpp ****         if (line[n] == '.') {
 2200              		.loc 1 378 0
 2201 0758 600000AA 		bge	.L159
 379:../src/tensorflow_lite/src/tensorflow/lite/micro/memory_planner/greedy_memory_planner.cpp ****           line[n] = GetOrdinalCharacter(i);
 2202              		.loc 1 379 0
 2203 075c 80C08DE2 		add	ip, sp, #128
 2204 0760 02208CE0 		add	r2, ip, r2
 2205              	.LVL221:
 378:../src/tensorflow_lite/src/tensorflow/lite/micro/memory_planner/greedy_memory_planner.cpp ****         if (line[n] == '.') {
 2206              		.loc 1 378 0
 2207 0764 06C081E2 		add	ip, r1, #6
 2208              	.LVL222:
 379:../src/tensorflow_lite/src/tensorflow/lite/micro/memory_planner/greedy_memory_planner.cpp ****           line[n] = GetOrdinalCharacter(i);
 2209              		.loc 1 379 0
 2210 0768 54E052E5 		ldrb	lr, [r2, #-84]	@ zero_extendqisi2
 382:../src/tensorflow_lite/src/tensorflow/lite/micro/memory_planner/greedy_memory_planner.cpp ****         }
 2211              		.loc 1 382 0
 2212 076c 2E005EE3 		cmp	lr, #46
 2213 0770 2AE0A003 		moveq	lr, #42
 2214 0774 21E0A013 		movne	lr, #33
 378:../src/tensorflow_lite/src/tensorflow/lite/micro/memory_planner/greedy_memory_planner.cpp ****         if (line[n] == '.') {
 2215              		.loc 1 378 0
 2216 0778 0C0050E1 		cmp	r0, ip
 382:../src/tensorflow_lite/src/tensorflow/lite/micro/memory_planner/greedy_memory_planner.cpp ****         }
 2217              		.loc 1 382 0
 2218 077c 54E042E5 		strb	lr, [r2, #-84]
 378:../src/tensorflow_lite/src/tensorflow/lite/micro/memory_planner/greedy_memory_planner.cpp ****         if (line[n] == '.') {
 2219              		.loc 1 378 0
 2220 0780 560000DA 		ble	.L159
 379:../src/tensorflow_lite/src/tensorflow/lite/micro/memory_planner/greedy_memory_planner.cpp ****           line[n] = GetOrdinalCharacter(i);
 2221              		.loc 1 379 0
 2222 0784 80208DE2 		add	r2, sp, #128
 2223 0788 0CC082E0 		add	ip, r2, ip
 2224              	.LVL223:
 378:../src/tensorflow_lite/src/tensorflow/lite/micro/memory_planner/greedy_memory_planner.cpp ****         if (line[n] == '.') {
 2225              		.loc 1 378 0
 2226 078c 072081E2 		add	r2, r1, #7
 2227              	.LVL224:
 379:../src/tensorflow_lite/src/tensorflow/lite/micro/memory_planner/greedy_memory_planner.cpp ****           line[n] = GetOrdinalCharacter(i);
 2228              		.loc 1 379 0
 2229 0790 54E05CE5 		ldrb	lr, [ip, #-84]	@ zero_extendqisi2
 382:../src/tensorflow_lite/src/tensorflow/lite/micro/memory_planner/greedy_memory_planner.cpp ****         }
 2230              		.loc 1 382 0
 2231 0794 2E005EE3 		cmp	lr, #46
 2232 0798 2AE0A003 		moveq	lr, #42
 2233 079c 21E0A013 		movne	lr, #33
 378:../src/tensorflow_lite/src/tensorflow/lite/micro/memory_planner/greedy_memory_planner.cpp ****         if (line[n] == '.') {
 2234              		.loc 1 378 0
 2235 07a0 020050E1 		cmp	r0, r2
 382:../src/tensorflow_lite/src/tensorflow/lite/micro/memory_planner/greedy_memory_planner.cpp ****         }
 2236              		.loc 1 382 0
 2237 07a4 54E04CE5 		strb	lr, [ip, #-84]
 378:../src/tensorflow_lite/src/tensorflow/lite/micro/memory_planner/greedy_memory_planner.cpp ****         if (line[n] == '.') {
 2238              		.loc 1 378 0
 2239 07a8 4C0000DA 		ble	.L159
 379:../src/tensorflow_lite/src/tensorflow/lite/micro/memory_planner/greedy_memory_planner.cpp ****           line[n] = GetOrdinalCharacter(i);
 2240              		.loc 1 379 0
 2241 07ac 80C08DE2 		add	ip, sp, #128
 2242 07b0 02208CE0 		add	r2, ip, r2
 2243              	.LVL225:
 378:../src/tensorflow_lite/src/tensorflow/lite/micro/memory_planner/greedy_memory_planner.cpp ****         if (line[n] == '.') {
 2244              		.loc 1 378 0
 2245 07b4 08C081E2 		add	ip, r1, #8
 2246              	.LVL226:
 379:../src/tensorflow_lite/src/tensorflow/lite/micro/memory_planner/greedy_memory_planner.cpp ****           line[n] = GetOrdinalCharacter(i);
 2247              		.loc 1 379 0
 2248 07b8 54E052E5 		ldrb	lr, [r2, #-84]	@ zero_extendqisi2
 382:../src/tensorflow_lite/src/tensorflow/lite/micro/memory_planner/greedy_memory_planner.cpp ****         }
 2249              		.loc 1 382 0
 2250 07bc 2E005EE3 		cmp	lr, #46
 2251 07c0 2AE0A003 		moveq	lr, #42
 2252 07c4 21E0A013 		movne	lr, #33
 378:../src/tensorflow_lite/src/tensorflow/lite/micro/memory_planner/greedy_memory_planner.cpp ****         if (line[n] == '.') {
 2253              		.loc 1 378 0
 2254 07c8 0C0050E1 		cmp	r0, ip
 382:../src/tensorflow_lite/src/tensorflow/lite/micro/memory_planner/greedy_memory_planner.cpp ****         }
 2255              		.loc 1 382 0
 2256 07cc 54E042E5 		strb	lr, [r2, #-84]
 378:../src/tensorflow_lite/src/tensorflow/lite/micro/memory_planner/greedy_memory_planner.cpp ****         if (line[n] == '.') {
 2257              		.loc 1 378 0
 2258 07d0 420000DA 		ble	.L159
 379:../src/tensorflow_lite/src/tensorflow/lite/micro/memory_planner/greedy_memory_planner.cpp ****           line[n] = GetOrdinalCharacter(i);
 2259              		.loc 1 379 0
 2260 07d4 80208DE2 		add	r2, sp, #128
 2261 07d8 0CC082E0 		add	ip, r2, ip
 2262              	.LVL227:
 378:../src/tensorflow_lite/src/tensorflow/lite/micro/memory_planner/greedy_memory_planner.cpp ****         if (line[n] == '.') {
 2263              		.loc 1 378 0
 2264 07dc 092081E2 		add	r2, r1, #9
 2265              	.LVL228:
 379:../src/tensorflow_lite/src/tensorflow/lite/micro/memory_planner/greedy_memory_planner.cpp ****           line[n] = GetOrdinalCharacter(i);
 2266              		.loc 1 379 0
 2267 07e0 54E05CE5 		ldrb	lr, [ip, #-84]	@ zero_extendqisi2
 382:../src/tensorflow_lite/src/tensorflow/lite/micro/memory_planner/greedy_memory_planner.cpp ****         }
 2268              		.loc 1 382 0
 2269 07e4 2E005EE3 		cmp	lr, #46
 2270 07e8 2AE0A003 		moveq	lr, #42
 2271 07ec 21E0A013 		movne	lr, #33
 378:../src/tensorflow_lite/src/tensorflow/lite/micro/memory_planner/greedy_memory_planner.cpp ****         if (line[n] == '.') {
 2272              		.loc 1 378 0
 2273 07f0 020050E1 		cmp	r0, r2
 382:../src/tensorflow_lite/src/tensorflow/lite/micro/memory_planner/greedy_memory_planner.cpp ****         }
 2274              		.loc 1 382 0
 2275 07f4 54E04CE5 		strb	lr, [ip, #-84]
 378:../src/tensorflow_lite/src/tensorflow/lite/micro/memory_planner/greedy_memory_planner.cpp ****         if (line[n] == '.') {
 2276              		.loc 1 378 0
 2277 07f8 380000DA 		ble	.L159
 379:../src/tensorflow_lite/src/tensorflow/lite/micro/memory_planner/greedy_memory_planner.cpp ****           line[n] = GetOrdinalCharacter(i);
 2278              		.loc 1 379 0
 2279 07fc 80C08DE2 		add	ip, sp, #128
 2280 0800 02208CE0 		add	r2, ip, r2
 2281              	.LVL229:
 378:../src/tensorflow_lite/src/tensorflow/lite/micro/memory_planner/greedy_memory_planner.cpp ****         if (line[n] == '.') {
 2282              		.loc 1 378 0
 2283 0804 0AC081E2 		add	ip, r1, #10
 2284              	.LVL230:
 379:../src/tensorflow_lite/src/tensorflow/lite/micro/memory_planner/greedy_memory_planner.cpp ****           line[n] = GetOrdinalCharacter(i);
 2285              		.loc 1 379 0
 2286 0808 54E052E5 		ldrb	lr, [r2, #-84]	@ zero_extendqisi2
 382:../src/tensorflow_lite/src/tensorflow/lite/micro/memory_planner/greedy_memory_planner.cpp ****         }
 2287              		.loc 1 382 0
 2288 080c 2E005EE3 		cmp	lr, #46
 2289 0810 2AE0A003 		moveq	lr, #42
 2290 0814 21E0A013 		movne	lr, #33
 378:../src/tensorflow_lite/src/tensorflow/lite/micro/memory_planner/greedy_memory_planner.cpp ****         if (line[n] == '.') {
 2291              		.loc 1 378 0
 2292 0818 0C0050E1 		cmp	r0, ip
 382:../src/tensorflow_lite/src/tensorflow/lite/micro/memory_planner/greedy_memory_planner.cpp ****         }
 2293              		.loc 1 382 0
 2294 081c 54E042E5 		strb	lr, [r2, #-84]
 378:../src/tensorflow_lite/src/tensorflow/lite/micro/memory_planner/greedy_memory_planner.cpp ****         if (line[n] == '.') {
 2295              		.loc 1 378 0
 2296 0820 2E0000DA 		ble	.L159
 379:../src/tensorflow_lite/src/tensorflow/lite/micro/memory_planner/greedy_memory_planner.cpp ****           line[n] = GetOrdinalCharacter(i);
 2297              		.loc 1 379 0
 2298 0824 80208DE2 		add	r2, sp, #128
 2299 0828 0CC082E0 		add	ip, r2, ip
 2300              	.LVL231:
 378:../src/tensorflow_lite/src/tensorflow/lite/micro/memory_planner/greedy_memory_planner.cpp ****         if (line[n] == '.') {
 2301              		.loc 1 378 0
 2302 082c 0B2081E2 		add	r2, r1, #11
 2303              	.LVL232:
 379:../src/tensorflow_lite/src/tensorflow/lite/micro/memory_planner/greedy_memory_planner.cpp ****           line[n] = GetOrdinalCharacter(i);
 2304              		.loc 1 379 0
 2305 0830 54E05CE5 		ldrb	lr, [ip, #-84]	@ zero_extendqisi2
 382:../src/tensorflow_lite/src/tensorflow/lite/micro/memory_planner/greedy_memory_planner.cpp ****         }
 2306              		.loc 1 382 0
 2307 0834 2E005EE3 		cmp	lr, #46
 2308 0838 2AE0A003 		moveq	lr, #42
 2309 083c 21E0A013 		movne	lr, #33
 378:../src/tensorflow_lite/src/tensorflow/lite/micro/memory_planner/greedy_memory_planner.cpp ****         if (line[n] == '.') {
 2310              		.loc 1 378 0
 2311 0840 020050E1 		cmp	r0, r2
 382:../src/tensorflow_lite/src/tensorflow/lite/micro/memory_planner/greedy_memory_planner.cpp ****         }
 2312              		.loc 1 382 0
 2313 0844 54E04CE5 		strb	lr, [ip, #-84]
 378:../src/tensorflow_lite/src/tensorflow/lite/micro/memory_planner/greedy_memory_planner.cpp ****         if (line[n] == '.') {
 2314              		.loc 1 378 0
 2315 0848 240000DA 		ble	.L159
 379:../src/tensorflow_lite/src/tensorflow/lite/micro/memory_planner/greedy_memory_planner.cpp ****           line[n] = GetOrdinalCharacter(i);
 2316              		.loc 1 379 0
 2317 084c 80C08DE2 		add	ip, sp, #128
 2318 0850 02208CE0 		add	r2, ip, r2
 2319              	.LVL233:
 378:../src/tensorflow_lite/src/tensorflow/lite/micro/memory_planner/greedy_memory_planner.cpp ****         if (line[n] == '.') {
 2320              		.loc 1 378 0
 2321 0854 0CC081E2 		add	ip, r1, #12
 2322              	.LVL234:
 379:../src/tensorflow_lite/src/tensorflow/lite/micro/memory_planner/greedy_memory_planner.cpp ****           line[n] = GetOrdinalCharacter(i);
 2323              		.loc 1 379 0
 2324 0858 54E052E5 		ldrb	lr, [r2, #-84]	@ zero_extendqisi2
 382:../src/tensorflow_lite/src/tensorflow/lite/micro/memory_planner/greedy_memory_planner.cpp ****         }
 2325              		.loc 1 382 0
 2326 085c 2E005EE3 		cmp	lr, #46
 2327 0860 2AE0A003 		moveq	lr, #42
 2328 0864 21E0A013 		movne	lr, #33
 378:../src/tensorflow_lite/src/tensorflow/lite/micro/memory_planner/greedy_memory_planner.cpp ****         if (line[n] == '.') {
 2329              		.loc 1 378 0
 2330 0868 00005CE1 		cmp	ip, r0
 382:../src/tensorflow_lite/src/tensorflow/lite/micro/memory_planner/greedy_memory_planner.cpp ****         }
 2331              		.loc 1 382 0
 2332 086c 54E042E5 		strb	lr, [r2, #-84]
 378:../src/tensorflow_lite/src/tensorflow/lite/micro/memory_planner/greedy_memory_planner.cpp ****         if (line[n] == '.') {
 2333              		.loc 1 378 0
 2334 0870 1A0000AA 		bge	.L159
 379:../src/tensorflow_lite/src/tensorflow/lite/micro/memory_planner/greedy_memory_planner.cpp ****           line[n] = GetOrdinalCharacter(i);
 2335              		.loc 1 379 0
 2336 0874 80208DE2 		add	r2, sp, #128
 2337 0878 0CC082E0 		add	ip, r2, ip
 2338              	.LVL235:
 378:../src/tensorflow_lite/src/tensorflow/lite/micro/memory_planner/greedy_memory_planner.cpp ****         if (line[n] == '.') {
 2339              		.loc 1 378 0
 2340 087c 0D2081E2 		add	r2, r1, #13
 2341              	.LVL236:
 379:../src/tensorflow_lite/src/tensorflow/lite/micro/memory_planner/greedy_memory_planner.cpp ****           line[n] = GetOrdinalCharacter(i);
 2342              		.loc 1 379 0
 2343 0880 54E05CE5 		ldrb	lr, [ip, #-84]	@ zero_extendqisi2
 382:../src/tensorflow_lite/src/tensorflow/lite/micro/memory_planner/greedy_memory_planner.cpp ****         }
 2344              		.loc 1 382 0
 2345 0884 2E005EE3 		cmp	lr, #46
 2346 0888 2AE0A003 		moveq	lr, #42
 2347 088c 21E0A013 		movne	lr, #33
 378:../src/tensorflow_lite/src/tensorflow/lite/micro/memory_planner/greedy_memory_planner.cpp ****         if (line[n] == '.') {
 2348              		.loc 1 378 0
 2349 0890 020050E1 		cmp	r0, r2
 382:../src/tensorflow_lite/src/tensorflow/lite/micro/memory_planner/greedy_memory_planner.cpp ****         }
 2350              		.loc 1 382 0
 2351 0894 54E04CE5 		strb	lr, [ip, #-84]
 378:../src/tensorflow_lite/src/tensorflow/lite/micro/memory_planner/greedy_memory_planner.cpp ****         if (line[n] == '.') {
 2352              		.loc 1 378 0
 2353 0898 100000DA 		ble	.L159
 379:../src/tensorflow_lite/src/tensorflow/lite/micro/memory_planner/greedy_memory_planner.cpp ****           line[n] = GetOrdinalCharacter(i);
 2354              		.loc 1 379 0
 2355 089c 80C08DE2 		add	ip, sp, #128
 378:../src/tensorflow_lite/src/tensorflow/lite/micro/memory_planner/greedy_memory_planner.cpp ****         if (line[n] == '.') {
 2356              		.loc 1 378 0
 2357 08a0 0E1081E2 		add	r1, r1, #14
 2358              	.LVL237:
 379:../src/tensorflow_lite/src/tensorflow/lite/micro/memory_planner/greedy_memory_planner.cpp ****           line[n] = GetOrdinalCharacter(i);
 2359              		.loc 1 379 0
 2360 08a4 02208CE0 		add	r2, ip, r2
 2361 08a8 54C052E5 		ldrb	ip, [r2, #-84]	@ zero_extendqisi2
 382:../src/tensorflow_lite/src/tensorflow/lite/micro/memory_planner/greedy_memory_planner.cpp ****         }
 2362              		.loc 1 382 0
 2363 08ac 2E005CE3 		cmp	ip, #46
 2364 08b0 2AC0A003 		moveq	ip, #42
 2365 08b4 21C0A013 		movne	ip, #33
 378:../src/tensorflow_lite/src/tensorflow/lite/micro/memory_planner/greedy_memory_planner.cpp ****         if (line[n] == '.') {
 2366              		.loc 1 378 0
 2367 08b8 010050E1 		cmp	r0, r1
 382:../src/tensorflow_lite/src/tensorflow/lite/micro/memory_planner/greedy_memory_planner.cpp ****         }
 2368              		.loc 1 382 0
 2369 08bc 54C042E5 		strb	ip, [r2, #-84]
 378:../src/tensorflow_lite/src/tensorflow/lite/micro/memory_planner/greedy_memory_planner.cpp ****         if (line[n] == '.') {
 2370              		.loc 1 378 0
 2371 08c0 060000DA 		ble	.L159
 379:../src/tensorflow_lite/src/tensorflow/lite/micro/memory_planner/greedy_memory_planner.cpp ****           line[n] = GetOrdinalCharacter(i);
 2372              		.loc 1 379 0
 2373 08c4 80208DE2 		add	r2, sp, #128
 2374 08c8 011082E0 		add	r1, r2, r1
 2375              	.LVL238:
 2376 08cc 542051E5 		ldrb	r2, [r1, #-84]	@ zero_extendqisi2
 382:../src/tensorflow_lite/src/tensorflow/lite/micro/memory_planner/greedy_memory_planner.cpp ****         }
 2377              		.loc 1 382 0
 2378 08d0 2E0052E3 		cmp	r2, #46
 2379 08d4 2A20A003 		moveq	r2, #42
 2380 08d8 2120A013 		movne	r2, #33
 2381 08dc 542041E5 		strb	r2, [r1, #-84]
 2382              	.LVL239:
 2383              	.L159:
 2384              	.LBE247:
 2385              	.LBE253:
 364:../src/tensorflow_lite/src/tensorflow/lite/micro/memory_planner/greedy_memory_planner.cpp ****       BufferRequirements* requirements = &requirements_[i];
 2386              		.loc 1 364 0 discriminator 2
 2387 08e0 019089E2 		add	r9, r9, #1
 2388              	.LVL240:
 2389 08e4 015085E2 		add	r5, r5, #1
 2390 08e8 030059E1 		cmp	r9, r3
 2391 08ec 016086E2 		add	r6, r6, #1
 2392 08f0 017087E2 		add	r7, r7, #1
 2393 08f4 7550EFE6 		uxtb	r5, r5
 2394 08f8 7660EFE6 		uxtb	r6, r6
 2395 08fc 7770EFE6 		uxtb	r7, r7
 2396 0900 108088E2 		add	r8, r8, #16
 2397              	.LVL241:
 2398 0904 5AFEFF1A 		bne	.L451
 2399 0908 10309DE5 		ldr	r3, [sp, #16]
 2400 090c FF2300E3 		movw	r2, #1023
 2401 0910 023083E0 		add	r3, r3, r2
 2402 0914 022083E0 		add	r2, r3, r2
 2403 0918 000053E3 		cmp	r3, #0
 2404 091c 0230A0B1 		movlt	r3, r2
 2405 0920 4335A0E1 		asr	r3, r3, #10
 2406              	.LVL242:
 2407              	.L158:
 2408              	.LBE220:
 388:../src/tensorflow_lite/src/tensorflow/lite/micro/memory_planner/greedy_memory_planner.cpp ****                 (memory_use + 1023) / 1024);
 2409              		.loc 1 388 0
 2410 0924 002000E3 		movw	r2, #:lower16:.LC2
 389:../src/tensorflow_lite/src/tensorflow/lite/micro/memory_planner/greedy_memory_planner.cpp ****   }
 2411              		.loc 1 389 0
 2412 0928 00308DE5 		str	r3, [sp]
 2413 092c 09005BE3 		cmp	fp, #9
 388:../src/tensorflow_lite/src/tensorflow/lite/micro/memory_planner/greedy_memory_planner.cpp ****                 (memory_use + 1023) / 1024);
 2414              		.loc 1 388 0
 2415 0930 002040E3 		movt	r2, #:upper16:.LC2
 2416 0934 001000E3 		movw	r1, #:lower16:.LC3
 389:../src/tensorflow_lite/src/tensorflow/lite/micro/memory_planner/greedy_memory_planner.cpp ****   }
 2417              		.loc 1 389 0
 2418 0938 000000E3 		movw	r0, #:lower16:.LC5
 388:../src/tensorflow_lite/src/tensorflow/lite/micro/memory_planner/greedy_memory_planner.cpp ****                 (memory_use + 1023) / 1024);
 2419              		.loc 1 388 0
 2420 093c 001040E3 		movt	r1, #:upper16:.LC3
 389:../src/tensorflow_lite/src/tensorflow/lite/micro/memory_planner/greedy_memory_planner.cpp ****   }
 2421              		.loc 1 389 0
 2422 0940 2C308DE2 		add	r3, sp, #44
 2423 0944 0210A0D1 		movle	r1, r2
 386:../src/tensorflow_lite/src/tensorflow/lite/micro/memory_planner/greedy_memory_planner.cpp **** 
 2424              		.loc 1 386 0
 2425 0948 00C0A0E3 		mov	ip, #0
 389:../src/tensorflow_lite/src/tensorflow/lite/micro/memory_planner/greedy_memory_planner.cpp ****   }
 2426              		.loc 1 389 0
 2427 094c 0B20A0E1 		mov	r2, fp
 2428 0950 000040E3 		movt	r0, #:upper16:.LC5
 386:../src/tensorflow_lite/src/tensorflow/lite/micro/memory_planner/greedy_memory_planner.cpp **** 
 2429              		.loc 1 386 0
 2430 0954 7CC0CDE5 		strb	ip, [sp, #124]
 2431              	.LBE219:
 359:../src/tensorflow_lite/src/tensorflow/lite/micro/memory_planner/greedy_memory_planner.cpp ****     for (int c = 0; c < kLineWidth; ++c) {
 2432              		.loc 1 359 0
 2433 0958 01B08BE2 		add	fp, fp, #1
 2434              	.LVL243:
 2435              	.LBB260:
 389:../src/tensorflow_lite/src/tensorflow/lite/micro/memory_planner/greedy_memory_planner.cpp ****   }
 2436              		.loc 1 389 0
 2437 095c FEFFFFEB 		bl	_Z11MicroPrintfPKcz
 2438              	.LVL244:
 2439              	.LBE260:
 359:../src/tensorflow_lite/src/tensorflow/lite/micro/memory_planner/greedy_memory_planner.cpp ****     for (int c = 0; c < kLineWidth; ++c) {
 2440              		.loc 1 359 0
 2441 0960 24309DE5 		ldr	r3, [sp, #36]
 2442 0964 03005BE1 		cmp	fp, r3
 2443 0968 770400CA 		bgt	.L138
 2444 096c 18309DE5 		ldr	r3, [sp, #24]
 2445 0970 083093E5 		ldr	r3, [r3, #8]
 2446 0974 2BFEFFEA 		b	.L453
 2447              	.LVL245:
 2448              	.L160:
 2449 0978 0A1082E0 		add	r1, r2, r10
 2450 097c 0AC040E0 		sub	ip, r0, r10
 2451 0980 071001E2 		and	r1, r1, #7
 2452 0984 001061E2 		rsb	r1, r1, #0
 2453 0988 0F1001E2 		and	r1, r1, #15
 2454 098c 0C0051E1 		cmp	r1, ip
 2455 0990 0C10A021 		movcs	r1, ip
 2456              	.LBB261:
 2457              	.LBB257:
 2458              	.LBB254:
 2459              	.LBB248:
 378:../src/tensorflow_lite/src/tensorflow/lite/micro/memory_planner/greedy_memory_planner.cpp ****         if (line[n] == '.') {
 2460              		.loc 1 378 0
 2461 0994 10005CE3 		cmp	ip, #16
 2462 0998 0C10A091 		movls	r1, ip
 2463 099c 230059E3 		cmp	r9, #35
 2464 09a0 780100DA 		ble	.L233
 2465 09a4 000051E3 		cmp	r1, #0
 2466 09a8 6C04000A 		beq	.L460
 379:../src/tensorflow_lite/src/tensorflow/lite/micro/memory_planner/greedy_memory_planner.cpp ****           line[n] = GetOrdinalCharacter(i);
 2467              		.loc 1 379 0
 2468 09ac 80208DE2 		add	r2, sp, #128
 2469 09b0 0A2082E0 		add	r2, r2, r10
 2470 09b4 54E052E5 		ldrb	lr, [r2, #-84]	@ zero_extendqisi2
 2471 09b8 2E005EE3 		cmp	lr, #46
 2472              	.LVL246:
 382:../src/tensorflow_lite/src/tensorflow/lite/micro/memory_planner/greedy_memory_planner.cpp ****         }
 2473              		.loc 1 382 0
 2474 09bc 21E0A013 		movne	lr, #33
 380:../src/tensorflow_lite/src/tensorflow/lite/micro/memory_planner/greedy_memory_planner.cpp ****         } else {
 2475              		.loc 1 380 0
 2476 09c0 54604205 		strbeq	r6, [r2, #-84]
 382:../src/tensorflow_lite/src/tensorflow/lite/micro/memory_planner/greedy_memory_planner.cpp ****         }
 2477              		.loc 1 382 0
 2478 09c4 54E04215 		strbne	lr, [r2, #-84]
 2479 09c8 010051E3 		cmp	r1, #1
 378:../src/tensorflow_lite/src/tensorflow/lite/micro/memory_planner/greedy_memory_planner.cpp ****         if (line[n] == '.') {
 2480              		.loc 1 378 0
 2481 09cc 01208AE2 		add	r2, r10, #1
 2482              	.LVL247:
 2483 09d0 9300000A 		beq	.L238
 379:../src/tensorflow_lite/src/tensorflow/lite/micro/memory_planner/greedy_memory_planner.cpp ****           line[n] = GetOrdinalCharacter(i);
 2484              		.loc 1 379 0
 2485 09d4 80E08DE2 		add	lr, sp, #128
 2486 09d8 02208EE0 		add	r2, lr, r2
 2487              	.LVL248:
 2488 09dc 54E052E5 		ldrb	lr, [r2, #-84]	@ zero_extendqisi2
 2489 09e0 2E005EE3 		cmp	lr, #46
 382:../src/tensorflow_lite/src/tensorflow/lite/micro/memory_planner/greedy_memory_planner.cpp ****         }
 2490              		.loc 1 382 0
 2491 09e4 21E0A013 		movne	lr, #33
 380:../src/tensorflow_lite/src/tensorflow/lite/micro/memory_planner/greedy_memory_planner.cpp ****         } else {
 2492              		.loc 1 380 0
 2493 09e8 54604205 		strbeq	r6, [r2, #-84]
 382:../src/tensorflow_lite/src/tensorflow/lite/micro/memory_planner/greedy_memory_planner.cpp ****         }
 2494              		.loc 1 382 0
 2495 09ec 54E04215 		strbne	lr, [r2, #-84]
 2496 09f0 020051E3 		cmp	r1, #2
 378:../src/tensorflow_lite/src/tensorflow/lite/micro/memory_planner/greedy_memory_planner.cpp ****         if (line[n] == '.') {
 2497              		.loc 1 378 0
 2498 09f4 02208AE2 		add	r2, r10, #2
 2499              	.LVL249:
 2500 09f8 8900000A 		beq	.L238
 379:../src/tensorflow_lite/src/tensorflow/lite/micro/memory_planner/greedy_memory_planner.cpp ****           line[n] = GetOrdinalCharacter(i);
 2501              		.loc 1 379 0
 2502 09fc 80E08DE2 		add	lr, sp, #128
 2503 0a00 02208EE0 		add	r2, lr, r2
 2504              	.LVL250:
 2505 0a04 54E052E5 		ldrb	lr, [r2, #-84]	@ zero_extendqisi2
 2506 0a08 2E005EE3 		cmp	lr, #46
 382:../src/tensorflow_lite/src/tensorflow/lite/micro/memory_planner/greedy_memory_planner.cpp ****         }
 2507              		.loc 1 382 0
 2508 0a0c 21E0A013 		movne	lr, #33
 380:../src/tensorflow_lite/src/tensorflow/lite/micro/memory_planner/greedy_memory_planner.cpp ****         } else {
 2509              		.loc 1 380 0
 2510 0a10 54604205 		strbeq	r6, [r2, #-84]
 382:../src/tensorflow_lite/src/tensorflow/lite/micro/memory_planner/greedy_memory_planner.cpp ****         }
 2511              		.loc 1 382 0
 2512 0a14 54E04215 		strbne	lr, [r2, #-84]
 2513 0a18 030051E3 		cmp	r1, #3
 378:../src/tensorflow_lite/src/tensorflow/lite/micro/memory_planner/greedy_memory_planner.cpp ****         if (line[n] == '.') {
 2514              		.loc 1 378 0
 2515 0a1c 03208AE2 		add	r2, r10, #3
 2516              	.LVL251:
 2517 0a20 7F00000A 		beq	.L238
 379:../src/tensorflow_lite/src/tensorflow/lite/micro/memory_planner/greedy_memory_planner.cpp ****           line[n] = GetOrdinalCharacter(i);
 2518              		.loc 1 379 0
 2519 0a24 80E08DE2 		add	lr, sp, #128
 2520 0a28 02208EE0 		add	r2, lr, r2
 2521              	.LVL252:
 2522 0a2c 54E052E5 		ldrb	lr, [r2, #-84]	@ zero_extendqisi2
 2523 0a30 2E005EE3 		cmp	lr, #46
 382:../src/tensorflow_lite/src/tensorflow/lite/micro/memory_planner/greedy_memory_planner.cpp ****         }
 2524              		.loc 1 382 0
 2525 0a34 21E0A013 		movne	lr, #33
 380:../src/tensorflow_lite/src/tensorflow/lite/micro/memory_planner/greedy_memory_planner.cpp ****         } else {
 2526              		.loc 1 380 0
 2527 0a38 54604205 		strbeq	r6, [r2, #-84]
 382:../src/tensorflow_lite/src/tensorflow/lite/micro/memory_planner/greedy_memory_planner.cpp ****         }
 2528              		.loc 1 382 0
 2529 0a3c 54E04215 		strbne	lr, [r2, #-84]
 2530 0a40 040051E3 		cmp	r1, #4
 378:../src/tensorflow_lite/src/tensorflow/lite/micro/memory_planner/greedy_memory_planner.cpp ****         if (line[n] == '.') {
 2531              		.loc 1 378 0
 2532 0a44 04208AE2 		add	r2, r10, #4
 2533              	.LVL253:
 2534 0a48 7500000A 		beq	.L238
 379:../src/tensorflow_lite/src/tensorflow/lite/micro/memory_planner/greedy_memory_planner.cpp ****           line[n] = GetOrdinalCharacter(i);
 2535              		.loc 1 379 0
 2536 0a4c 80E08DE2 		add	lr, sp, #128
 2537 0a50 02208EE0 		add	r2, lr, r2
 2538              	.LVL254:
 2539 0a54 54E052E5 		ldrb	lr, [r2, #-84]	@ zero_extendqisi2
 2540 0a58 2E005EE3 		cmp	lr, #46
 382:../src/tensorflow_lite/src/tensorflow/lite/micro/memory_planner/greedy_memory_planner.cpp ****         }
 2541              		.loc 1 382 0
 2542 0a5c 21E0A013 		movne	lr, #33
 380:../src/tensorflow_lite/src/tensorflow/lite/micro/memory_planner/greedy_memory_planner.cpp ****         } else {
 2543              		.loc 1 380 0
 2544 0a60 54604205 		strbeq	r6, [r2, #-84]
 382:../src/tensorflow_lite/src/tensorflow/lite/micro/memory_planner/greedy_memory_planner.cpp ****         }
 2545              		.loc 1 382 0
 2546 0a64 54E04215 		strbne	lr, [r2, #-84]
 2547 0a68 050051E3 		cmp	r1, #5
 378:../src/tensorflow_lite/src/tensorflow/lite/micro/memory_planner/greedy_memory_planner.cpp ****         if (line[n] == '.') {
 2548              		.loc 1 378 0
 2549 0a6c 05208AE2 		add	r2, r10, #5
 2550              	.LVL255:
 2551 0a70 6B00000A 		beq	.L238
 379:../src/tensorflow_lite/src/tensorflow/lite/micro/memory_planner/greedy_memory_planner.cpp ****           line[n] = GetOrdinalCharacter(i);
 2552              		.loc 1 379 0
 2553 0a74 80E08DE2 		add	lr, sp, #128
 2554 0a78 02208EE0 		add	r2, lr, r2
 2555              	.LVL256:
 2556 0a7c 54E052E5 		ldrb	lr, [r2, #-84]	@ zero_extendqisi2
 2557 0a80 2E005EE3 		cmp	lr, #46
 382:../src/tensorflow_lite/src/tensorflow/lite/micro/memory_planner/greedy_memory_planner.cpp ****         }
 2558              		.loc 1 382 0
 2559 0a84 21E0A013 		movne	lr, #33
 380:../src/tensorflow_lite/src/tensorflow/lite/micro/memory_planner/greedy_memory_planner.cpp ****         } else {
 2560              		.loc 1 380 0
 2561 0a88 54604205 		strbeq	r6, [r2, #-84]
 382:../src/tensorflow_lite/src/tensorflow/lite/micro/memory_planner/greedy_memory_planner.cpp ****         }
 2562              		.loc 1 382 0
 2563 0a8c 54E04215 		strbne	lr, [r2, #-84]
 2564 0a90 060051E3 		cmp	r1, #6
 378:../src/tensorflow_lite/src/tensorflow/lite/micro/memory_planner/greedy_memory_planner.cpp ****         if (line[n] == '.') {
 2565              		.loc 1 378 0
 2566 0a94 06208AE2 		add	r2, r10, #6
 2567              	.LVL257:
 2568 0a98 6100000A 		beq	.L238
 379:../src/tensorflow_lite/src/tensorflow/lite/micro/memory_planner/greedy_memory_planner.cpp ****           line[n] = GetOrdinalCharacter(i);
 2569              		.loc 1 379 0
 2570 0a9c 80E08DE2 		add	lr, sp, #128
 2571 0aa0 02208EE0 		add	r2, lr, r2
 2572              	.LVL258:
 2573 0aa4 54E052E5 		ldrb	lr, [r2, #-84]	@ zero_extendqisi2
 2574 0aa8 2E005EE3 		cmp	lr, #46
 382:../src/tensorflow_lite/src/tensorflow/lite/micro/memory_planner/greedy_memory_planner.cpp ****         }
 2575              		.loc 1 382 0
 2576 0aac 21E0A013 		movne	lr, #33
 380:../src/tensorflow_lite/src/tensorflow/lite/micro/memory_planner/greedy_memory_planner.cpp ****         } else {
 2577              		.loc 1 380 0
 2578 0ab0 54604205 		strbeq	r6, [r2, #-84]
 382:../src/tensorflow_lite/src/tensorflow/lite/micro/memory_planner/greedy_memory_planner.cpp ****         }
 2579              		.loc 1 382 0
 2580 0ab4 54E04215 		strbne	lr, [r2, #-84]
 2581 0ab8 070051E3 		cmp	r1, #7
 378:../src/tensorflow_lite/src/tensorflow/lite/micro/memory_planner/greedy_memory_planner.cpp ****         if (line[n] == '.') {
 2582              		.loc 1 378 0
 2583 0abc 07208AE2 		add	r2, r10, #7
 2584              	.LVL259:
 2585 0ac0 5700000A 		beq	.L238
 379:../src/tensorflow_lite/src/tensorflow/lite/micro/memory_planner/greedy_memory_planner.cpp ****           line[n] = GetOrdinalCharacter(i);
 2586              		.loc 1 379 0
 2587 0ac4 80E08DE2 		add	lr, sp, #128
 2588 0ac8 02208EE0 		add	r2, lr, r2
 2589              	.LVL260:
 2590 0acc 54E052E5 		ldrb	lr, [r2, #-84]	@ zero_extendqisi2
 2591 0ad0 2E005EE3 		cmp	lr, #46
 382:../src/tensorflow_lite/src/tensorflow/lite/micro/memory_planner/greedy_memory_planner.cpp ****         }
 2592              		.loc 1 382 0
 2593 0ad4 21E0A013 		movne	lr, #33
 380:../src/tensorflow_lite/src/tensorflow/lite/micro/memory_planner/greedy_memory_planner.cpp ****         } else {
 2594              		.loc 1 380 0
 2595 0ad8 54604205 		strbeq	r6, [r2, #-84]
 382:../src/tensorflow_lite/src/tensorflow/lite/micro/memory_planner/greedy_memory_planner.cpp ****         }
 2596              		.loc 1 382 0
 2597 0adc 54E04215 		strbne	lr, [r2, #-84]
 2598 0ae0 080051E3 		cmp	r1, #8
 378:../src/tensorflow_lite/src/tensorflow/lite/micro/memory_planner/greedy_memory_planner.cpp ****         if (line[n] == '.') {
 2599              		.loc 1 378 0
 2600 0ae4 08208AE2 		add	r2, r10, #8
 2601              	.LVL261:
 2602 0ae8 4D00000A 		beq	.L238
 379:../src/tensorflow_lite/src/tensorflow/lite/micro/memory_planner/greedy_memory_planner.cpp ****           line[n] = GetOrdinalCharacter(i);
 2603              		.loc 1 379 0
 2604 0aec 80E08DE2 		add	lr, sp, #128
 2605 0af0 02208EE0 		add	r2, lr, r2
 2606              	.LVL262:
 2607 0af4 54E052E5 		ldrb	lr, [r2, #-84]	@ zero_extendqisi2
 2608 0af8 2E005EE3 		cmp	lr, #46
 382:../src/tensorflow_lite/src/tensorflow/lite/micro/memory_planner/greedy_memory_planner.cpp ****         }
 2609              		.loc 1 382 0
 2610 0afc 21E0A013 		movne	lr, #33
 380:../src/tensorflow_lite/src/tensorflow/lite/micro/memory_planner/greedy_memory_planner.cpp ****         } else {
 2611              		.loc 1 380 0
 2612 0b00 54604205 		strbeq	r6, [r2, #-84]
 382:../src/tensorflow_lite/src/tensorflow/lite/micro/memory_planner/greedy_memory_planner.cpp ****         }
 2613              		.loc 1 382 0
 2614 0b04 54E04215 		strbne	lr, [r2, #-84]
 2615 0b08 090051E3 		cmp	r1, #9
 378:../src/tensorflow_lite/src/tensorflow/lite/micro/memory_planner/greedy_memory_planner.cpp ****         if (line[n] == '.') {
 2616              		.loc 1 378 0
 2617 0b0c 09208AE2 		add	r2, r10, #9
 2618              	.LVL263:
 2619 0b10 4300000A 		beq	.L238
 379:../src/tensorflow_lite/src/tensorflow/lite/micro/memory_planner/greedy_memory_planner.cpp ****           line[n] = GetOrdinalCharacter(i);
 2620              		.loc 1 379 0
 2621 0b14 80E08DE2 		add	lr, sp, #128
 2622 0b18 02208EE0 		add	r2, lr, r2
 2623              	.LVL264:
 2624 0b1c 54E052E5 		ldrb	lr, [r2, #-84]	@ zero_extendqisi2
 2625 0b20 2E005EE3 		cmp	lr, #46
 382:../src/tensorflow_lite/src/tensorflow/lite/micro/memory_planner/greedy_memory_planner.cpp ****         }
 2626              		.loc 1 382 0
 2627 0b24 21E0A013 		movne	lr, #33
 380:../src/tensorflow_lite/src/tensorflow/lite/micro/memory_planner/greedy_memory_planner.cpp ****         } else {
 2628              		.loc 1 380 0
 2629 0b28 54604205 		strbeq	r6, [r2, #-84]
 382:../src/tensorflow_lite/src/tensorflow/lite/micro/memory_planner/greedy_memory_planner.cpp ****         }
 2630              		.loc 1 382 0
 2631 0b2c 54E04215 		strbne	lr, [r2, #-84]
 2632 0b30 0A0051E3 		cmp	r1, #10
 378:../src/tensorflow_lite/src/tensorflow/lite/micro/memory_planner/greedy_memory_planner.cpp ****         if (line[n] == '.') {
 2633              		.loc 1 378 0
 2634 0b34 0A208AE2 		add	r2, r10, #10
 2635              	.LVL265:
 2636 0b38 3900000A 		beq	.L238
 379:../src/tensorflow_lite/src/tensorflow/lite/micro/memory_planner/greedy_memory_planner.cpp ****           line[n] = GetOrdinalCharacter(i);
 2637              		.loc 1 379 0
 2638 0b3c 80E08DE2 		add	lr, sp, #128
 2639 0b40 02208EE0 		add	r2, lr, r2
 2640              	.LVL266:
 2641 0b44 54E052E5 		ldrb	lr, [r2, #-84]	@ zero_extendqisi2
 2642 0b48 2E005EE3 		cmp	lr, #46
 382:../src/tensorflow_lite/src/tensorflow/lite/micro/memory_planner/greedy_memory_planner.cpp ****         }
 2643              		.loc 1 382 0
 2644 0b4c 21E0A013 		movne	lr, #33
 380:../src/tensorflow_lite/src/tensorflow/lite/micro/memory_planner/greedy_memory_planner.cpp ****         } else {
 2645              		.loc 1 380 0
 2646 0b50 54604205 		strbeq	r6, [r2, #-84]
 382:../src/tensorflow_lite/src/tensorflow/lite/micro/memory_planner/greedy_memory_planner.cpp ****         }
 2647              		.loc 1 382 0
 2648 0b54 54E04215 		strbne	lr, [r2, #-84]
 2649 0b58 0B0051E3 		cmp	r1, #11
 378:../src/tensorflow_lite/src/tensorflow/lite/micro/memory_planner/greedy_memory_planner.cpp ****         if (line[n] == '.') {
 2650              		.loc 1 378 0
 2651 0b5c 0B208AE2 		add	r2, r10, #11
 2652              	.LVL267:
 2653 0b60 2F00000A 		beq	.L238
 379:../src/tensorflow_lite/src/tensorflow/lite/micro/memory_planner/greedy_memory_planner.cpp ****           line[n] = GetOrdinalCharacter(i);
 2654              		.loc 1 379 0
 2655 0b64 80E08DE2 		add	lr, sp, #128
 2656 0b68 02208EE0 		add	r2, lr, r2
 2657              	.LVL268:
 2658 0b6c 54E052E5 		ldrb	lr, [r2, #-84]	@ zero_extendqisi2
 2659 0b70 2E005EE3 		cmp	lr, #46
 382:../src/tensorflow_lite/src/tensorflow/lite/micro/memory_planner/greedy_memory_planner.cpp ****         }
 2660              		.loc 1 382 0
 2661 0b74 21E0A013 		movne	lr, #33
 380:../src/tensorflow_lite/src/tensorflow/lite/micro/memory_planner/greedy_memory_planner.cpp ****         } else {
 2662              		.loc 1 380 0
 2663 0b78 54604205 		strbeq	r6, [r2, #-84]
 382:../src/tensorflow_lite/src/tensorflow/lite/micro/memory_planner/greedy_memory_planner.cpp ****         }
 2664              		.loc 1 382 0
 2665 0b7c 54E04215 		strbne	lr, [r2, #-84]
 2666 0b80 0C0051E3 		cmp	r1, #12
 378:../src/tensorflow_lite/src/tensorflow/lite/micro/memory_planner/greedy_memory_planner.cpp ****         if (line[n] == '.') {
 2667              		.loc 1 378 0
 2668 0b84 0C208AE2 		add	r2, r10, #12
 2669              	.LVL269:
 2670 0b88 2500000A 		beq	.L238
 379:../src/tensorflow_lite/src/tensorflow/lite/micro/memory_planner/greedy_memory_planner.cpp ****           line[n] = GetOrdinalCharacter(i);
 2671              		.loc 1 379 0
 2672 0b8c 80E08DE2 		add	lr, sp, #128
 2673 0b90 02208EE0 		add	r2, lr, r2
 2674              	.LVL270:
 2675 0b94 54E052E5 		ldrb	lr, [r2, #-84]	@ zero_extendqisi2
 2676 0b98 2E005EE3 		cmp	lr, #46
 382:../src/tensorflow_lite/src/tensorflow/lite/micro/memory_planner/greedy_memory_planner.cpp ****         }
 2677              		.loc 1 382 0
 2678 0b9c 21E0A013 		movne	lr, #33
 380:../src/tensorflow_lite/src/tensorflow/lite/micro/memory_planner/greedy_memory_planner.cpp ****         } else {
 2679              		.loc 1 380 0
 2680 0ba0 54604205 		strbeq	r6, [r2, #-84]
 382:../src/tensorflow_lite/src/tensorflow/lite/micro/memory_planner/greedy_memory_planner.cpp ****         }
 2681              		.loc 1 382 0
 2682 0ba4 54E04215 		strbne	lr, [r2, #-84]
 2683 0ba8 0D0051E3 		cmp	r1, #13
 378:../src/tensorflow_lite/src/tensorflow/lite/micro/memory_planner/greedy_memory_planner.cpp ****         if (line[n] == '.') {
 2684              		.loc 1 378 0
 2685 0bac 0D208AE2 		add	r2, r10, #13
 2686              	.LVL271:
 2687 0bb0 1B00000A 		beq	.L238
 379:../src/tensorflow_lite/src/tensorflow/lite/micro/memory_planner/greedy_memory_planner.cpp ****           line[n] = GetOrdinalCharacter(i);
 2688              		.loc 1 379 0
 2689 0bb4 80E08DE2 		add	lr, sp, #128
 2690 0bb8 02208EE0 		add	r2, lr, r2
 2691              	.LVL272:
 2692 0bbc 54E052E5 		ldrb	lr, [r2, #-84]	@ zero_extendqisi2
 2693 0bc0 2E005EE3 		cmp	lr, #46
 382:../src/tensorflow_lite/src/tensorflow/lite/micro/memory_planner/greedy_memory_planner.cpp ****         }
 2694              		.loc 1 382 0
 2695 0bc4 21E0A013 		movne	lr, #33
 380:../src/tensorflow_lite/src/tensorflow/lite/micro/memory_planner/greedy_memory_planner.cpp ****         } else {
 2696              		.loc 1 380 0
 2697 0bc8 54604205 		strbeq	r6, [r2, #-84]
 382:../src/tensorflow_lite/src/tensorflow/lite/micro/memory_planner/greedy_memory_planner.cpp ****         }
 2698              		.loc 1 382 0
 2699 0bcc 54E04215 		strbne	lr, [r2, #-84]
 2700 0bd0 0E0051E3 		cmp	r1, #14
 378:../src/tensorflow_lite/src/tensorflow/lite/micro/memory_planner/greedy_memory_planner.cpp ****         if (line[n] == '.') {
 2701              		.loc 1 378 0
 2702 0bd4 0E208AE2 		add	r2, r10, #14
 2703              	.LVL273:
 2704 0bd8 1100000A 		beq	.L238
 379:../src/tensorflow_lite/src/tensorflow/lite/micro/memory_planner/greedy_memory_planner.cpp ****           line[n] = GetOrdinalCharacter(i);
 2705              		.loc 1 379 0
 2706 0bdc 80E08DE2 		add	lr, sp, #128
 2707 0be0 02208EE0 		add	r2, lr, r2
 2708              	.LVL274:
 2709 0be4 54E052E5 		ldrb	lr, [r2, #-84]	@ zero_extendqisi2
 2710 0be8 2E005EE3 		cmp	lr, #46
 382:../src/tensorflow_lite/src/tensorflow/lite/micro/memory_planner/greedy_memory_planner.cpp ****         }
 2711              		.loc 1 382 0
 2712 0bec 21E0A013 		movne	lr, #33
 380:../src/tensorflow_lite/src/tensorflow/lite/micro/memory_planner/greedy_memory_planner.cpp ****         } else {
 2713              		.loc 1 380 0
 2714 0bf0 54604205 		strbeq	r6, [r2, #-84]
 382:../src/tensorflow_lite/src/tensorflow/lite/micro/memory_planner/greedy_memory_planner.cpp ****         }
 2715              		.loc 1 382 0
 2716 0bf4 54E04215 		strbne	lr, [r2, #-84]
 2717 0bf8 0F0051E3 		cmp	r1, #15
 378:../src/tensorflow_lite/src/tensorflow/lite/micro/memory_planner/greedy_memory_planner.cpp ****         if (line[n] == '.') {
 2718              		.loc 1 378 0
 2719 0bfc 0F208AE2 		add	r2, r10, #15
 2720              	.LVL275:
 2721 0c00 0700000A 		beq	.L238
 379:../src/tensorflow_lite/src/tensorflow/lite/micro/memory_planner/greedy_memory_planner.cpp ****           line[n] = GetOrdinalCharacter(i);
 2722              		.loc 1 379 0
 2723 0c04 80E08DE2 		add	lr, sp, #128
 2724 0c08 02208EE0 		add	r2, lr, r2
 2725              	.LVL276:
 2726 0c0c 54E052E5 		ldrb	lr, [r2, #-84]	@ zero_extendqisi2
 2727 0c10 2E005EE3 		cmp	lr, #46
 382:../src/tensorflow_lite/src/tensorflow/lite/micro/memory_planner/greedy_memory_planner.cpp ****         }
 2728              		.loc 1 382 0
 2729 0c14 21E0A013 		movne	lr, #33
 2730 0c18 54E04215 		strbne	lr, [r2, #-84]
 379:../src/tensorflow_lite/src/tensorflow/lite/micro/memory_planner/greedy_memory_planner.cpp ****           line[n] = GetOrdinalCharacter(i);
 2731              		.loc 1 379 0
 2732 0c1c DF03000A 		beq	.L728
 2733              	.L269:
 378:../src/tensorflow_lite/src/tensorflow/lite/micro/memory_planner/greedy_memory_planner.cpp ****         if (line[n] == '.') {
 2734              		.loc 1 378 0
 2735 0c20 10208AE2 		add	r2, r10, #16
 2736              	.LVL277:
 2737              	.L238:
 2738 0c24 01005CE1 		cmp	ip, r1
 2739 0c28 2CFFFF0A 		beq	.L159
 2740              	.LVL278:
 2741              	.L235:
 2742 0c2c 01404CE0 		sub	r4, ip, r1
 2743              	.LVL279:
 2744 0c30 01C04CE2 		sub	ip, ip, #1
 2745 0c34 10E044E2 		sub	lr, r4, #16
 2746 0c38 01C04CE0 		sub	ip, ip, r1
 2747 0c3c 2EE2A0E1 		lsr	lr, lr, #4
 2748 0c40 0E005CE3 		cmp	ip, #14
 2749 0c44 01E08EE2 		add	lr, lr, #1
 2750 0c48 0EC2A0E1 		lsl	ip, lr, #4
 2751 0c4c 3800009A 		bls	.L271
 2752 0c50 01108AE0 		add	r1, r10, r1
 2753 0c54 909BA4EE 		vdup.32	q10, r9
 2754              	.LVL280:
 2755 0c58 2CA08DE2 		add	r10, sp, #44
 2756              	.LVL281:
 2757              	.LBB239:
 2758              	.LBB233:
 2759              	.LBB225:
 2760              	.LBB226:
  33:../src/tensorflow_lite/src/tensorflow/lite/micro/memory_planner/greedy_memory_planner.cpp ****   }
 2761              		.loc 1 33 0
 2762 0c5c 5D0EC1F2 		vmov.i8	q8, #29  @ v16qi
 2763 0c60 01108AE0 		add	r1, r10, r1
 2764 0c64 2482F6F3 		vmovn.i32	d24, q10
 2765 0c68 2492F6F3 		vmovn.i32	d25, q10
 2766 0c6c 2862F2F3 		vmovn.i16	d22, q12
 2767 0c70 2872F2F3 		vmovn.i16	d23, q12
 2768 0c74 01005EE3 		cmp	lr, #1
 2769              	.LBE226:
 2770              	.LBE225:
 2771              	.LBE233:
 2772              	.LBE239:
 382:../src/tensorflow_lite/src/tensorflow/lite/micro/memory_planner/greedy_memory_planner.cpp ****         }
 2773              		.loc 1 382 0
 2774 0c78 DF4A61F4 		vld1.64	{d20-d21}, [r1:64]
 2775              	.LBB240:
 2776              	.LBB234:
 2777              	.LBB230:
 2778              	.LBB227:
  33:../src/tensorflow_lite/src/tensorflow/lite/micro/memory_planner/greedy_memory_planner.cpp ****   }
 2779              		.loc 1 33 0
 2780 0c7c E06846F2 		vadd.i8	q11, q11, q8
 2781              	.LBE227:
 2782              	.LBE230:
 2783              	.LBE234:
 2784              	.LBE240:
 382:../src/tensorflow_lite/src/tensorflow/lite/micro/memory_planner/greedy_memory_planner.cpp ****         }
 2785              		.loc 1 382 0
 2786 0c80 DC4844F3 		vceq.i8	q10, q10, q6
 2787 0c84 DA4156F3 		vbsl	q10, q11, q5
 2788 0c88 DF4A41F4 		vst1.64	{d20-d21}, [r1:64]
 2789 0c8c 2500000A 		beq	.L272
 2790 0c90 02005EE3 		cmp	lr, #2
 2791 0c94 044BD1ED 		vldr	d20, [r1, #16]
 2792 0c98 065BD1ED 		vldr	d21, [r1, #24]
 2793 0c9c DC4844F3 		vceq.i8	q10, q10, q6
 2794 0ca0 DA4156F3 		vbsl	q10, q11, q5
 2795 0ca4 044BC1ED 		vstr	d20, [r1, #16]
 2796 0ca8 065BC1ED 		vstr	d21, [r1, #24]
 2797 0cac 1D00000A 		beq	.L272
 2798 0cb0 03005EE3 		cmp	lr, #3
 2799 0cb4 084BD1ED 		vldr	d20, [r1, #32]
 2800 0cb8 0A5BD1ED 		vldr	d21, [r1, #40]
 2801 0cbc DC4844F3 		vceq.i8	q10, q10, q6
 2802 0cc0 DA4156F3 		vbsl	q10, q11, q5
 2803 0cc4 084BC1ED 		vstr	d20, [r1, #32]
 2804 0cc8 0A5BC1ED 		vstr	d21, [r1, #40]
 2805 0ccc 1500000A 		beq	.L272
 2806 0cd0 04005EE3 		cmp	lr, #4
 2807 0cd4 0C4BD1ED 		vldr	d20, [r1, #48]
 2808 0cd8 0E5BD1ED 		vldr	d21, [r1, #56]
 2809 0cdc DC4844F3 		vceq.i8	q10, q10, q6
 2810 0ce0 DA4156F3 		vbsl	q10, q11, q5
 2811 0ce4 0C4BC1ED 		vstr	d20, [r1, #48]
 2812 0ce8 0E5BC1ED 		vstr	d21, [r1, #56]
 2813 0cec 0D00000A 		beq	.L272
 2814 0cf0 05005EE3 		cmp	lr, #5
 2815 0cf4 104BD1ED 		vldr	d20, [r1, #64]
 2816 0cf8 125BD1ED 		vldr	d21, [r1, #72]
 2817 0cfc DC4844F3 		vceq.i8	q10, q10, q6
 2818 0d00 DA4156F3 		vbsl	q10, q11, q5
 2819 0d04 104BC1ED 		vstr	d20, [r1, #64]
 2820 0d08 125BC1ED 		vstr	d21, [r1, #72]
 2821 0d0c 0500000A 		beq	.L272
 2822 0d10 144BD1ED 		vldr	d20, [r1, #80]
 2823 0d14 165BD1ED 		vldr	d21, [r1, #88]
 2824 0d18 DC4844F3 		vceq.i8	q10, q10, q6
 2825 0d1c 74617AF3 		vbif	q11, q5, q10
 2826 0d20 146BC1ED 		vstr	d22, [r1, #80]
 2827 0d24 167BC1ED 		vstr	d23, [r1, #88]
 2828              	.L272:
 2829 0d28 0C0054E1 		cmp	r4, ip
 2830 0d2c 0C2082E0 		add	r2, r2, ip
 2831 0d30 EAFEFF0A 		beq	.L159
 2832              	.L271:
 2833              	.LVL282:
 379:../src/tensorflow_lite/src/tensorflow/lite/micro/memory_planner/greedy_memory_planner.cpp ****           line[n] = GetOrdinalCharacter(i);
 2834              		.loc 1 379 0
 2835 0d34 80108DE2 		add	r1, sp, #128
 2836 0d38 021081E0 		add	r1, r1, r2
 2837 0d3c 54C051E5 		ldrb	ip, [r1, #-84]	@ zero_extendqisi2
 2838 0d40 2E005CE3 		cmp	ip, #46
 382:../src/tensorflow_lite/src/tensorflow/lite/micro/memory_planner/greedy_memory_planner.cpp ****         }
 2839              		.loc 1 382 0
 2840 0d44 21C0A013 		movne	ip, #33
 380:../src/tensorflow_lite/src/tensorflow/lite/micro/memory_planner/greedy_memory_planner.cpp ****         } else {
 2841              		.loc 1 380 0
 2842 0d48 54604105 		strbeq	r6, [r1, #-84]
 382:../src/tensorflow_lite/src/tensorflow/lite/micro/memory_planner/greedy_memory_planner.cpp ****         }
 2843              		.loc 1 382 0
 2844 0d4c 54C04115 		strbne	ip, [r1, #-84]
 2845              	.LVL283:
 378:../src/tensorflow_lite/src/tensorflow/lite/micro/memory_planner/greedy_memory_planner.cpp ****         if (line[n] == '.') {
 2846              		.loc 1 378 0
 2847 0d50 011082E2 		add	r1, r2, #1
 2848              	.LVL284:
 2849 0d54 010050E1 		cmp	r0, r1
 2850 0d58 E0FEFFDA 		ble	.L159
 379:../src/tensorflow_lite/src/tensorflow/lite/micro/memory_planner/greedy_memory_planner.cpp ****           line[n] = GetOrdinalCharacter(i);
 2851              		.loc 1 379 0
 2852 0d5c 80C08DE2 		add	ip, sp, #128
 2853 0d60 01108CE0 		add	r1, ip, r1
 2854              	.LVL285:
 2855 0d64 54C051E5 		ldrb	ip, [r1, #-84]	@ zero_extendqisi2
 2856 0d68 2E005CE3 		cmp	ip, #46
 382:../src/tensorflow_lite/src/tensorflow/lite/micro/memory_planner/greedy_memory_planner.cpp ****         }
 2857              		.loc 1 382 0
 2858 0d6c 21C0A013 		movne	ip, #33
 380:../src/tensorflow_lite/src/tensorflow/lite/micro/memory_planner/greedy_memory_planner.cpp ****         } else {
 2859              		.loc 1 380 0
 2860 0d70 54604105 		strbeq	r6, [r1, #-84]
 382:../src/tensorflow_lite/src/tensorflow/lite/micro/memory_planner/greedy_memory_planner.cpp ****         }
 2861              		.loc 1 382 0
 2862 0d74 54C04115 		strbne	ip, [r1, #-84]
 378:../src/tensorflow_lite/src/tensorflow/lite/micro/memory_planner/greedy_memory_planner.cpp ****         if (line[n] == '.') {
 2863              		.loc 1 378 0
 2864 0d78 021082E2 		add	r1, r2, #2
 2865              	.LVL286:
 2866 0d7c 010050E1 		cmp	r0, r1
 2867 0d80 D6FEFFDA 		ble	.L159
 379:../src/tensorflow_lite/src/tensorflow/lite/micro/memory_planner/greedy_memory_planner.cpp ****           line[n] = GetOrdinalCharacter(i);
 2868              		.loc 1 379 0
 2869 0d84 80C08DE2 		add	ip, sp, #128
 2870 0d88 01108CE0 		add	r1, ip, r1
 2871              	.LVL287:
 2872 0d8c 54C051E5 		ldrb	ip, [r1, #-84]	@ zero_extendqisi2
 2873 0d90 2E005CE3 		cmp	ip, #46
 382:../src/tensorflow_lite/src/tensorflow/lite/micro/memory_planner/greedy_memory_planner.cpp ****         }
 2874              		.loc 1 382 0
 2875 0d94 21C0A013 		movne	ip, #33
 380:../src/tensorflow_lite/src/tensorflow/lite/micro/memory_planner/greedy_memory_planner.cpp ****         } else {
 2876              		.loc 1 380 0
 2877 0d98 54604105 		strbeq	r6, [r1, #-84]
 382:../src/tensorflow_lite/src/tensorflow/lite/micro/memory_planner/greedy_memory_planner.cpp ****         }
 2878              		.loc 1 382 0
 2879 0d9c 54C04115 		strbne	ip, [r1, #-84]
 378:../src/tensorflow_lite/src/tensorflow/lite/micro/memory_planner/greedy_memory_planner.cpp ****         if (line[n] == '.') {
 2880              		.loc 1 378 0
 2881 0da0 031082E2 		add	r1, r2, #3
 2882              	.LVL288:
 2883 0da4 010050E1 		cmp	r0, r1
 2884 0da8 CCFEFFDA 		ble	.L159
 379:../src/tensorflow_lite/src/tensorflow/lite/micro/memory_planner/greedy_memory_planner.cpp ****           line[n] = GetOrdinalCharacter(i);
 2885              		.loc 1 379 0
 2886 0dac 80C08DE2 		add	ip, sp, #128
 2887 0db0 01108CE0 		add	r1, ip, r1
 2888              	.LVL289:
 2889 0db4 54C051E5 		ldrb	ip, [r1, #-84]	@ zero_extendqisi2
 2890 0db8 2E005CE3 		cmp	ip, #46
 382:../src/tensorflow_lite/src/tensorflow/lite/micro/memory_planner/greedy_memory_planner.cpp ****         }
 2891              		.loc 1 382 0
 2892 0dbc 21C0A013 		movne	ip, #33
 380:../src/tensorflow_lite/src/tensorflow/lite/micro/memory_planner/greedy_memory_planner.cpp ****         } else {
 2893              		.loc 1 380 0
 2894 0dc0 54604105 		strbeq	r6, [r1, #-84]
 382:../src/tensorflow_lite/src/tensorflow/lite/micro/memory_planner/greedy_memory_planner.cpp ****         }
 2895              		.loc 1 382 0
 2896 0dc4 54C04115 		strbne	ip, [r1, #-84]
 378:../src/tensorflow_lite/src/tensorflow/lite/micro/memory_planner/greedy_memory_planner.cpp ****         if (line[n] == '.') {
 2897              		.loc 1 378 0
 2898 0dc8 041082E2 		add	r1, r2, #4
 2899              	.LVL290:
 2900 0dcc 010050E1 		cmp	r0, r1
 2901 0dd0 C2FEFFDA 		ble	.L159
 379:../src/tensorflow_lite/src/tensorflow/lite/micro/memory_planner/greedy_memory_planner.cpp ****           line[n] = GetOrdinalCharacter(i);
 2902              		.loc 1 379 0
 2903 0dd4 80C08DE2 		add	ip, sp, #128
 2904 0dd8 01108CE0 		add	r1, ip, r1
 2905              	.LVL291:
 2906 0ddc 54C051E5 		ldrb	ip, [r1, #-84]	@ zero_extendqisi2
 2907 0de0 2E005CE3 		cmp	ip, #46
 382:../src/tensorflow_lite/src/tensorflow/lite/micro/memory_planner/greedy_memory_planner.cpp ****         }
 2908              		.loc 1 382 0
 2909 0de4 21C0A013 		movne	ip, #33
 380:../src/tensorflow_lite/src/tensorflow/lite/micro/memory_planner/greedy_memory_planner.cpp ****         } else {
 2910              		.loc 1 380 0
 2911 0de8 54604105 		strbeq	r6, [r1, #-84]
 382:../src/tensorflow_lite/src/tensorflow/lite/micro/memory_planner/greedy_memory_planner.cpp ****         }
 2912              		.loc 1 382 0
 2913 0dec 54C04115 		strbne	ip, [r1, #-84]
 378:../src/tensorflow_lite/src/tensorflow/lite/micro/memory_planner/greedy_memory_planner.cpp ****         if (line[n] == '.') {
 2914              		.loc 1 378 0
 2915 0df0 051082E2 		add	r1, r2, #5
 2916              	.LVL292:
 2917 0df4 010050E1 		cmp	r0, r1
 2918 0df8 B8FEFFDA 		ble	.L159
 379:../src/tensorflow_lite/src/tensorflow/lite/micro/memory_planner/greedy_memory_planner.cpp ****           line[n] = GetOrdinalCharacter(i);
 2919              		.loc 1 379 0
 2920 0dfc 80C08DE2 		add	ip, sp, #128
 2921 0e00 01108CE0 		add	r1, ip, r1
 2922              	.LVL293:
 2923 0e04 54C051E5 		ldrb	ip, [r1, #-84]	@ zero_extendqisi2
 2924 0e08 2E005CE3 		cmp	ip, #46
 382:../src/tensorflow_lite/src/tensorflow/lite/micro/memory_planner/greedy_memory_planner.cpp ****         }
 2925              		.loc 1 382 0
 2926 0e0c 21C0A013 		movne	ip, #33
 380:../src/tensorflow_lite/src/tensorflow/lite/micro/memory_planner/greedy_memory_planner.cpp ****         } else {
 2927              		.loc 1 380 0
 2928 0e10 54604105 		strbeq	r6, [r1, #-84]
 382:../src/tensorflow_lite/src/tensorflow/lite/micro/memory_planner/greedy_memory_planner.cpp ****         }
 2929              		.loc 1 382 0
 2930 0e14 54C04115 		strbne	ip, [r1, #-84]
 378:../src/tensorflow_lite/src/tensorflow/lite/micro/memory_planner/greedy_memory_planner.cpp ****         if (line[n] == '.') {
 2931              		.loc 1 378 0
 2932 0e18 061082E2 		add	r1, r2, #6
 2933              	.LVL294:
 2934 0e1c 010050E1 		cmp	r0, r1
 2935 0e20 AEFEFFDA 		ble	.L159
 379:../src/tensorflow_lite/src/tensorflow/lite/micro/memory_planner/greedy_memory_planner.cpp ****           line[n] = GetOrdinalCharacter(i);
 2936              		.loc 1 379 0
 2937 0e24 80C08DE2 		add	ip, sp, #128
 2938 0e28 01108CE0 		add	r1, ip, r1
 2939              	.LVL295:
 2940 0e2c 54C051E5 		ldrb	ip, [r1, #-84]	@ zero_extendqisi2
 2941 0e30 2E005CE3 		cmp	ip, #46
 382:../src/tensorflow_lite/src/tensorflow/lite/micro/memory_planner/greedy_memory_planner.cpp ****         }
 2942              		.loc 1 382 0
 2943 0e34 21C0A013 		movne	ip, #33
 380:../src/tensorflow_lite/src/tensorflow/lite/micro/memory_planner/greedy_memory_planner.cpp ****         } else {
 2944              		.loc 1 380 0
 2945 0e38 54604105 		strbeq	r6, [r1, #-84]
 382:../src/tensorflow_lite/src/tensorflow/lite/micro/memory_planner/greedy_memory_planner.cpp ****         }
 2946              		.loc 1 382 0
 2947 0e3c 54C04115 		strbne	ip, [r1, #-84]
 378:../src/tensorflow_lite/src/tensorflow/lite/micro/memory_planner/greedy_memory_planner.cpp ****         if (line[n] == '.') {
 2948              		.loc 1 378 0
 2949 0e40 071082E2 		add	r1, r2, #7
 2950              	.LVL296:
 2951 0e44 010050E1 		cmp	r0, r1
 2952 0e48 A4FEFFDA 		ble	.L159
 379:../src/tensorflow_lite/src/tensorflow/lite/micro/memory_planner/greedy_memory_planner.cpp ****           line[n] = GetOrdinalCharacter(i);
 2953              		.loc 1 379 0
 2954 0e4c 80C08DE2 		add	ip, sp, #128
 2955 0e50 01108CE0 		add	r1, ip, r1
 2956              	.LVL297:
 2957 0e54 54C051E5 		ldrb	ip, [r1, #-84]	@ zero_extendqisi2
 2958 0e58 2E005CE3 		cmp	ip, #46
 382:../src/tensorflow_lite/src/tensorflow/lite/micro/memory_planner/greedy_memory_planner.cpp ****         }
 2959              		.loc 1 382 0
 2960 0e5c 21C0A013 		movne	ip, #33
 380:../src/tensorflow_lite/src/tensorflow/lite/micro/memory_planner/greedy_memory_planner.cpp ****         } else {
 2961              		.loc 1 380 0
 2962 0e60 54604105 		strbeq	r6, [r1, #-84]
 382:../src/tensorflow_lite/src/tensorflow/lite/micro/memory_planner/greedy_memory_planner.cpp ****         }
 2963              		.loc 1 382 0
 2964 0e64 54C04115 		strbne	ip, [r1, #-84]
 378:../src/tensorflow_lite/src/tensorflow/lite/micro/memory_planner/greedy_memory_planner.cpp ****         if (line[n] == '.') {
 2965              		.loc 1 378 0
 2966 0e68 081082E2 		add	r1, r2, #8
 2967              	.LVL298:
 2968 0e6c 010050E1 		cmp	r0, r1
 2969 0e70 9AFEFFDA 		ble	.L159
 379:../src/tensorflow_lite/src/tensorflow/lite/micro/memory_planner/greedy_memory_planner.cpp ****           line[n] = GetOrdinalCharacter(i);
 2970              		.loc 1 379 0
 2971 0e74 80C08DE2 		add	ip, sp, #128
 2972 0e78 01108CE0 		add	r1, ip, r1
 2973              	.LVL299:
 2974 0e7c 54C051E5 		ldrb	ip, [r1, #-84]	@ zero_extendqisi2
 2975 0e80 2E005CE3 		cmp	ip, #46
 382:../src/tensorflow_lite/src/tensorflow/lite/micro/memory_planner/greedy_memory_planner.cpp ****         }
 2976              		.loc 1 382 0
 2977 0e84 21C0A013 		movne	ip, #33
 380:../src/tensorflow_lite/src/tensorflow/lite/micro/memory_planner/greedy_memory_planner.cpp ****         } else {
 2978              		.loc 1 380 0
 2979 0e88 54604105 		strbeq	r6, [r1, #-84]
 382:../src/tensorflow_lite/src/tensorflow/lite/micro/memory_planner/greedy_memory_planner.cpp ****         }
 2980              		.loc 1 382 0
 2981 0e8c 54C04115 		strbne	ip, [r1, #-84]
 378:../src/tensorflow_lite/src/tensorflow/lite/micro/memory_planner/greedy_memory_planner.cpp ****         if (line[n] == '.') {
 2982              		.loc 1 378 0
 2983 0e90 091082E2 		add	r1, r2, #9
 2984              	.LVL300:
 2985 0e94 010050E1 		cmp	r0, r1
 2986 0e98 90FEFFDA 		ble	.L159
 379:../src/tensorflow_lite/src/tensorflow/lite/micro/memory_planner/greedy_memory_planner.cpp ****           line[n] = GetOrdinalCharacter(i);
 2987              		.loc 1 379 0
 2988 0e9c 80C08DE2 		add	ip, sp, #128
 2989 0ea0 01108CE0 		add	r1, ip, r1
 2990              	.LVL301:
 2991 0ea4 54C051E5 		ldrb	ip, [r1, #-84]	@ zero_extendqisi2
 2992 0ea8 2E005CE3 		cmp	ip, #46
 382:../src/tensorflow_lite/src/tensorflow/lite/micro/memory_planner/greedy_memory_planner.cpp ****         }
 2993              		.loc 1 382 0
 2994 0eac 21C0A013 		movne	ip, #33
 380:../src/tensorflow_lite/src/tensorflow/lite/micro/memory_planner/greedy_memory_planner.cpp ****         } else {
 2995              		.loc 1 380 0
 2996 0eb0 54604105 		strbeq	r6, [r1, #-84]
 382:../src/tensorflow_lite/src/tensorflow/lite/micro/memory_planner/greedy_memory_planner.cpp ****         }
 2997              		.loc 1 382 0
 2998 0eb4 54C04115 		strbne	ip, [r1, #-84]
 378:../src/tensorflow_lite/src/tensorflow/lite/micro/memory_planner/greedy_memory_planner.cpp ****         if (line[n] == '.') {
 2999              		.loc 1 378 0
 3000 0eb8 0A1082E2 		add	r1, r2, #10
 3001              	.LVL302:
 3002 0ebc 010050E1 		cmp	r0, r1
 3003 0ec0 86FEFFDA 		ble	.L159
 379:../src/tensorflow_lite/src/tensorflow/lite/micro/memory_planner/greedy_memory_planner.cpp ****           line[n] = GetOrdinalCharacter(i);
 3004              		.loc 1 379 0
 3005 0ec4 80C08DE2 		add	ip, sp, #128
 3006 0ec8 01108CE0 		add	r1, ip, r1
 3007              	.LVL303:
 3008 0ecc 54C051E5 		ldrb	ip, [r1, #-84]	@ zero_extendqisi2
 3009 0ed0 2E005CE3 		cmp	ip, #46
 382:../src/tensorflow_lite/src/tensorflow/lite/micro/memory_planner/greedy_memory_planner.cpp ****         }
 3010              		.loc 1 382 0
 3011 0ed4 21C0A013 		movne	ip, #33
 380:../src/tensorflow_lite/src/tensorflow/lite/micro/memory_planner/greedy_memory_planner.cpp ****         } else {
 3012              		.loc 1 380 0
 3013 0ed8 54604105 		strbeq	r6, [r1, #-84]
 382:../src/tensorflow_lite/src/tensorflow/lite/micro/memory_planner/greedy_memory_planner.cpp ****         }
 3014              		.loc 1 382 0
 3015 0edc 54C04115 		strbne	ip, [r1, #-84]
 378:../src/tensorflow_lite/src/tensorflow/lite/micro/memory_planner/greedy_memory_planner.cpp ****         if (line[n] == '.') {
 3016              		.loc 1 378 0
 3017 0ee0 0B1082E2 		add	r1, r2, #11
 3018              	.LVL304:
 3019 0ee4 010050E1 		cmp	r0, r1
 3020 0ee8 7CFEFFDA 		ble	.L159
 379:../src/tensorflow_lite/src/tensorflow/lite/micro/memory_planner/greedy_memory_planner.cpp ****           line[n] = GetOrdinalCharacter(i);
 3021              		.loc 1 379 0
 3022 0eec 80C08DE2 		add	ip, sp, #128
 3023 0ef0 01108CE0 		add	r1, ip, r1
 3024              	.LVL305:
 3025 0ef4 54C051E5 		ldrb	ip, [r1, #-84]	@ zero_extendqisi2
 3026 0ef8 2E005CE3 		cmp	ip, #46
 382:../src/tensorflow_lite/src/tensorflow/lite/micro/memory_planner/greedy_memory_planner.cpp ****         }
 3027              		.loc 1 382 0
 3028 0efc 21C0A013 		movne	ip, #33
 380:../src/tensorflow_lite/src/tensorflow/lite/micro/memory_planner/greedy_memory_planner.cpp ****         } else {
 3029              		.loc 1 380 0
 3030 0f00 54604105 		strbeq	r6, [r1, #-84]
 382:../src/tensorflow_lite/src/tensorflow/lite/micro/memory_planner/greedy_memory_planner.cpp ****         }
 3031              		.loc 1 382 0
 3032 0f04 54C04115 		strbne	ip, [r1, #-84]
 378:../src/tensorflow_lite/src/tensorflow/lite/micro/memory_planner/greedy_memory_planner.cpp ****         if (line[n] == '.') {
 3033              		.loc 1 378 0
 3034 0f08 0C1082E2 		add	r1, r2, #12
 3035              	.LVL306:
 3036 0f0c 010050E1 		cmp	r0, r1
 3037 0f10 72FEFFDA 		ble	.L159
 379:../src/tensorflow_lite/src/tensorflow/lite/micro/memory_planner/greedy_memory_planner.cpp ****           line[n] = GetOrdinalCharacter(i);
 3038              		.loc 1 379 0
 3039 0f14 80C08DE2 		add	ip, sp, #128
 3040 0f18 01108CE0 		add	r1, ip, r1
 3041              	.LVL307:
 3042 0f1c 54C051E5 		ldrb	ip, [r1, #-84]	@ zero_extendqisi2
 3043 0f20 2E005CE3 		cmp	ip, #46
 382:../src/tensorflow_lite/src/tensorflow/lite/micro/memory_planner/greedy_memory_planner.cpp ****         }
 3044              		.loc 1 382 0
 3045 0f24 21C0A013 		movne	ip, #33
 380:../src/tensorflow_lite/src/tensorflow/lite/micro/memory_planner/greedy_memory_planner.cpp ****         } else {
 3046              		.loc 1 380 0
 3047 0f28 54604105 		strbeq	r6, [r1, #-84]
 382:../src/tensorflow_lite/src/tensorflow/lite/micro/memory_planner/greedy_memory_planner.cpp ****         }
 3048              		.loc 1 382 0
 3049 0f2c 54C04115 		strbne	ip, [r1, #-84]
 378:../src/tensorflow_lite/src/tensorflow/lite/micro/memory_planner/greedy_memory_planner.cpp ****         if (line[n] == '.') {
 3050              		.loc 1 378 0
 3051 0f30 0D1082E2 		add	r1, r2, #13
 3052              	.LVL308:
 3053 0f34 010050E1 		cmp	r0, r1
 3054 0f38 68FEFFDA 		ble	.L159
 379:../src/tensorflow_lite/src/tensorflow/lite/micro/memory_planner/greedy_memory_planner.cpp ****           line[n] = GetOrdinalCharacter(i);
 3055              		.loc 1 379 0
 3056 0f3c 80C08DE2 		add	ip, sp, #128
 378:../src/tensorflow_lite/src/tensorflow/lite/micro/memory_planner/greedy_memory_planner.cpp ****         if (line[n] == '.') {
 3057              		.loc 1 378 0
 3058 0f40 0E2082E2 		add	r2, r2, #14
 379:../src/tensorflow_lite/src/tensorflow/lite/micro/memory_planner/greedy_memory_planner.cpp ****           line[n] = GetOrdinalCharacter(i);
 3059              		.loc 1 379 0
 3060 0f44 01108CE0 		add	r1, ip, r1
 3061              	.LVL309:
 3062 0f48 54C051E5 		ldrb	ip, [r1, #-84]	@ zero_extendqisi2
 3063 0f4c 2E005CE3 		cmp	ip, #46
 382:../src/tensorflow_lite/src/tensorflow/lite/micro/memory_planner/greedy_memory_planner.cpp ****         }
 3064              		.loc 1 382 0
 3065 0f50 21C0A013 		movne	ip, #33
 380:../src/tensorflow_lite/src/tensorflow/lite/micro/memory_planner/greedy_memory_planner.cpp ****         } else {
 3066              		.loc 1 380 0
 3067 0f54 54604105 		strbeq	r6, [r1, #-84]
 382:../src/tensorflow_lite/src/tensorflow/lite/micro/memory_planner/greedy_memory_planner.cpp ****         }
 3068              		.loc 1 382 0
 3069 0f58 54C04115 		strbne	ip, [r1, #-84]
 3070              	.LVL310:
 378:../src/tensorflow_lite/src/tensorflow/lite/micro/memory_planner/greedy_memory_planner.cpp ****         if (line[n] == '.') {
 3071              		.loc 1 378 0
 3072 0f5c 020050E1 		cmp	r0, r2
 3073 0f60 5EFEFFDA 		ble	.L159
 379:../src/tensorflow_lite/src/tensorflow/lite/micro/memory_planner/greedy_memory_planner.cpp ****           line[n] = GetOrdinalCharacter(i);
 3074              		.loc 1 379 0
 3075 0f64 80108DE2 		add	r1, sp, #128
 3076 0f68 022081E0 		add	r2, r1, r2
 3077              	.LVL311:
 3078 0f6c 541052E5 		ldrb	r1, [r2, #-84]	@ zero_extendqisi2
 3079 0f70 2E0051E3 		cmp	r1, #46
 380:../src/tensorflow_lite/src/tensorflow/lite/micro/memory_planner/greedy_memory_planner.cpp ****         } else {
 3080              		.loc 1 380 0
 3081 0f74 54604205 		strbeq	r6, [r2, #-84]
 379:../src/tensorflow_lite/src/tensorflow/lite/micro/memory_planner/greedy_memory_planner.cpp ****           line[n] = GetOrdinalCharacter(i);
 3082              		.loc 1 379 0
 3083 0f78 58FEFF0A 		beq	.L159
 3084              	.LVL312:
 3085              	.L721:
 382:../src/tensorflow_lite/src/tensorflow/lite/micro/memory_planner/greedy_memory_planner.cpp ****         }
 3086              		.loc 1 382 0
 3087 0f7c 2110A0E3 		mov	r1, #33
 3088 0f80 541042E5 		strb	r1, [r2, #-84]
 3089 0f84 55FEFFEA 		b	.L159
 3090              	.LVL313:
 3091              	.L233:
 3092 0f88 090059E3 		cmp	r9, #9
 3093 0f8c 760100DA 		ble	.L306
 3094 0f90 000051E3 		cmp	r1, #0
 3095 0f94 F502000A 		beq	.L461
 379:../src/tensorflow_lite/src/tensorflow/lite/micro/memory_planner/greedy_memory_planner.cpp ****           line[n] = GetOrdinalCharacter(i);
 3096              		.loc 1 379 0
 3097 0f98 80208DE2 		add	r2, sp, #128
 3098 0f9c 0A2082E0 		add	r2, r2, r10
 3099 0fa0 54E052E5 		ldrb	lr, [r2, #-84]	@ zero_extendqisi2
 3100 0fa4 2E005EE3 		cmp	lr, #46
 3101              	.LVL314:
 382:../src/tensorflow_lite/src/tensorflow/lite/micro/memory_planner/greedy_memory_planner.cpp ****         }
 3102              		.loc 1 382 0
 3103 0fa8 21E0A013 		movne	lr, #33
 380:../src/tensorflow_lite/src/tensorflow/lite/micro/memory_planner/greedy_memory_planner.cpp ****         } else {
 3104              		.loc 1 380 0
 3105 0fac 54504205 		strbeq	r5, [r2, #-84]
 382:../src/tensorflow_lite/src/tensorflow/lite/micro/memory_planner/greedy_memory_planner.cpp ****         }
 3106              		.loc 1 382 0
 3107 0fb0 54E04215 		strbne	lr, [r2, #-84]
 3108 0fb4 010051E3 		cmp	r1, #1
 378:../src/tensorflow_lite/src/tensorflow/lite/micro/memory_planner/greedy_memory_planner.cpp ****         if (line[n] == '.') {
 3109              		.loc 1 378 0
 3110 0fb8 01208AE2 		add	r2, r10, #1
 3111              	.LVL315:
 3112 0fbc 9300000A 		beq	.L311
 379:../src/tensorflow_lite/src/tensorflow/lite/micro/memory_planner/greedy_memory_planner.cpp ****           line[n] = GetOrdinalCharacter(i);
 3113              		.loc 1 379 0
 3114 0fc0 80E08DE2 		add	lr, sp, #128
 3115 0fc4 02208EE0 		add	r2, lr, r2
 3116              	.LVL316:
 3117 0fc8 54E052E5 		ldrb	lr, [r2, #-84]	@ zero_extendqisi2
 3118 0fcc 2E005EE3 		cmp	lr, #46
 382:../src/tensorflow_lite/src/tensorflow/lite/micro/memory_planner/greedy_memory_planner.cpp ****         }
 3119              		.loc 1 382 0
 3120 0fd0 21E0A013 		movne	lr, #33
 380:../src/tensorflow_lite/src/tensorflow/lite/micro/memory_planner/greedy_memory_planner.cpp ****         } else {
 3121              		.loc 1 380 0
 3122 0fd4 54504205 		strbeq	r5, [r2, #-84]
 382:../src/tensorflow_lite/src/tensorflow/lite/micro/memory_planner/greedy_memory_planner.cpp ****         }
 3123              		.loc 1 382 0
 3124 0fd8 54E04215 		strbne	lr, [r2, #-84]
 3125 0fdc 020051E3 		cmp	r1, #2
 378:../src/tensorflow_lite/src/tensorflow/lite/micro/memory_planner/greedy_memory_planner.cpp ****         if (line[n] == '.') {
 3126              		.loc 1 378 0
 3127 0fe0 02208AE2 		add	r2, r10, #2
 3128              	.LVL317:
 3129 0fe4 8900000A 		beq	.L311
 379:../src/tensorflow_lite/src/tensorflow/lite/micro/memory_planner/greedy_memory_planner.cpp ****           line[n] = GetOrdinalCharacter(i);
 3130              		.loc 1 379 0
 3131 0fe8 80E08DE2 		add	lr, sp, #128
 3132 0fec 02208EE0 		add	r2, lr, r2
 3133              	.LVL318:
 3134 0ff0 54E052E5 		ldrb	lr, [r2, #-84]	@ zero_extendqisi2
 3135 0ff4 2E005EE3 		cmp	lr, #46
 382:../src/tensorflow_lite/src/tensorflow/lite/micro/memory_planner/greedy_memory_planner.cpp ****         }
 3136              		.loc 1 382 0
 3137 0ff8 21E0A013 		movne	lr, #33
 380:../src/tensorflow_lite/src/tensorflow/lite/micro/memory_planner/greedy_memory_planner.cpp ****         } else {
 3138              		.loc 1 380 0
 3139 0ffc 54504205 		strbeq	r5, [r2, #-84]
 382:../src/tensorflow_lite/src/tensorflow/lite/micro/memory_planner/greedy_memory_planner.cpp ****         }
 3140              		.loc 1 382 0
 3141 1000 54E04215 		strbne	lr, [r2, #-84]
 3142 1004 030051E3 		cmp	r1, #3
 378:../src/tensorflow_lite/src/tensorflow/lite/micro/memory_planner/greedy_memory_planner.cpp ****         if (line[n] == '.') {
 3143              		.loc 1 378 0
 3144 1008 03208AE2 		add	r2, r10, #3
 3145              	.LVL319:
 3146 100c 7F00000A 		beq	.L311
 379:../src/tensorflow_lite/src/tensorflow/lite/micro/memory_planner/greedy_memory_planner.cpp ****           line[n] = GetOrdinalCharacter(i);
 3147              		.loc 1 379 0
 3148 1010 80E08DE2 		add	lr, sp, #128
 3149 1014 02208EE0 		add	r2, lr, r2
 3150              	.LVL320:
 3151 1018 54E052E5 		ldrb	lr, [r2, #-84]	@ zero_extendqisi2
 3152 101c 2E005EE3 		cmp	lr, #46
 382:../src/tensorflow_lite/src/tensorflow/lite/micro/memory_planner/greedy_memory_planner.cpp ****         }
 3153              		.loc 1 382 0
 3154 1020 21E0A013 		movne	lr, #33
 380:../src/tensorflow_lite/src/tensorflow/lite/micro/memory_planner/greedy_memory_planner.cpp ****         } else {
 3155              		.loc 1 380 0
 3156 1024 54504205 		strbeq	r5, [r2, #-84]
 382:../src/tensorflow_lite/src/tensorflow/lite/micro/memory_planner/greedy_memory_planner.cpp ****         }
 3157              		.loc 1 382 0
 3158 1028 54E04215 		strbne	lr, [r2, #-84]
 3159 102c 040051E3 		cmp	r1, #4
 378:../src/tensorflow_lite/src/tensorflow/lite/micro/memory_planner/greedy_memory_planner.cpp ****         if (line[n] == '.') {
 3160              		.loc 1 378 0
 3161 1030 04208AE2 		add	r2, r10, #4
 3162              	.LVL321:
 3163 1034 7500000A 		beq	.L311
 379:../src/tensorflow_lite/src/tensorflow/lite/micro/memory_planner/greedy_memory_planner.cpp ****           line[n] = GetOrdinalCharacter(i);
 3164              		.loc 1 379 0
 3165 1038 80E08DE2 		add	lr, sp, #128
 3166 103c 02208EE0 		add	r2, lr, r2
 3167              	.LVL322:
 3168 1040 54E052E5 		ldrb	lr, [r2, #-84]	@ zero_extendqisi2
 3169 1044 2E005EE3 		cmp	lr, #46
 382:../src/tensorflow_lite/src/tensorflow/lite/micro/memory_planner/greedy_memory_planner.cpp ****         }
 3170              		.loc 1 382 0
 3171 1048 21E0A013 		movne	lr, #33
 380:../src/tensorflow_lite/src/tensorflow/lite/micro/memory_planner/greedy_memory_planner.cpp ****         } else {
 3172              		.loc 1 380 0
 3173 104c 54504205 		strbeq	r5, [r2, #-84]
 382:../src/tensorflow_lite/src/tensorflow/lite/micro/memory_planner/greedy_memory_planner.cpp ****         }
 3174              		.loc 1 382 0
 3175 1050 54E04215 		strbne	lr, [r2, #-84]
 3176 1054 050051E3 		cmp	r1, #5
 378:../src/tensorflow_lite/src/tensorflow/lite/micro/memory_planner/greedy_memory_planner.cpp ****         if (line[n] == '.') {
 3177              		.loc 1 378 0
 3178 1058 05208AE2 		add	r2, r10, #5
 3179              	.LVL323:
 3180 105c 6B00000A 		beq	.L311
 379:../src/tensorflow_lite/src/tensorflow/lite/micro/memory_planner/greedy_memory_planner.cpp ****           line[n] = GetOrdinalCharacter(i);
 3181              		.loc 1 379 0
 3182 1060 80E08DE2 		add	lr, sp, #128
 3183 1064 02208EE0 		add	r2, lr, r2
 3184              	.LVL324:
 3185 1068 54E052E5 		ldrb	lr, [r2, #-84]	@ zero_extendqisi2
 3186 106c 2E005EE3 		cmp	lr, #46
 382:../src/tensorflow_lite/src/tensorflow/lite/micro/memory_planner/greedy_memory_planner.cpp ****         }
 3187              		.loc 1 382 0
 3188 1070 21E0A013 		movne	lr, #33
 380:../src/tensorflow_lite/src/tensorflow/lite/micro/memory_planner/greedy_memory_planner.cpp ****         } else {
 3189              		.loc 1 380 0
 3190 1074 54504205 		strbeq	r5, [r2, #-84]
 382:../src/tensorflow_lite/src/tensorflow/lite/micro/memory_planner/greedy_memory_planner.cpp ****         }
 3191              		.loc 1 382 0
 3192 1078 54E04215 		strbne	lr, [r2, #-84]
 3193 107c 060051E3 		cmp	r1, #6
 378:../src/tensorflow_lite/src/tensorflow/lite/micro/memory_planner/greedy_memory_planner.cpp ****         if (line[n] == '.') {
 3194              		.loc 1 378 0
 3195 1080 06208AE2 		add	r2, r10, #6
 3196              	.LVL325:
 3197 1084 6100000A 		beq	.L311
 379:../src/tensorflow_lite/src/tensorflow/lite/micro/memory_planner/greedy_memory_planner.cpp ****           line[n] = GetOrdinalCharacter(i);
 3198              		.loc 1 379 0
 3199 1088 80E08DE2 		add	lr, sp, #128
 3200 108c 02208EE0 		add	r2, lr, r2
 3201              	.LVL326:
 3202 1090 54E052E5 		ldrb	lr, [r2, #-84]	@ zero_extendqisi2
 3203 1094 2E005EE3 		cmp	lr, #46
 382:../src/tensorflow_lite/src/tensorflow/lite/micro/memory_planner/greedy_memory_planner.cpp ****         }
 3204              		.loc 1 382 0
 3205 1098 21E0A013 		movne	lr, #33
 380:../src/tensorflow_lite/src/tensorflow/lite/micro/memory_planner/greedy_memory_planner.cpp ****         } else {
 3206              		.loc 1 380 0
 3207 109c 54504205 		strbeq	r5, [r2, #-84]
 382:../src/tensorflow_lite/src/tensorflow/lite/micro/memory_planner/greedy_memory_planner.cpp ****         }
 3208              		.loc 1 382 0
 3209 10a0 54E04215 		strbne	lr, [r2, #-84]
 3210 10a4 070051E3 		cmp	r1, #7
 378:../src/tensorflow_lite/src/tensorflow/lite/micro/memory_planner/greedy_memory_planner.cpp ****         if (line[n] == '.') {
 3211              		.loc 1 378 0
 3212 10a8 07208AE2 		add	r2, r10, #7
 3213              	.LVL327:
 3214 10ac 5700000A 		beq	.L311
 379:../src/tensorflow_lite/src/tensorflow/lite/micro/memory_planner/greedy_memory_planner.cpp ****           line[n] = GetOrdinalCharacter(i);
 3215              		.loc 1 379 0
 3216 10b0 80E08DE2 		add	lr, sp, #128
 3217 10b4 02208EE0 		add	r2, lr, r2
 3218              	.LVL328:
 3219 10b8 54E052E5 		ldrb	lr, [r2, #-84]	@ zero_extendqisi2
 3220 10bc 2E005EE3 		cmp	lr, #46
 382:../src/tensorflow_lite/src/tensorflow/lite/micro/memory_planner/greedy_memory_planner.cpp ****         }
 3221              		.loc 1 382 0
 3222 10c0 21E0A013 		movne	lr, #33
 380:../src/tensorflow_lite/src/tensorflow/lite/micro/memory_planner/greedy_memory_planner.cpp ****         } else {
 3223              		.loc 1 380 0
 3224 10c4 54504205 		strbeq	r5, [r2, #-84]
 382:../src/tensorflow_lite/src/tensorflow/lite/micro/memory_planner/greedy_memory_planner.cpp ****         }
 3225              		.loc 1 382 0
 3226 10c8 54E04215 		strbne	lr, [r2, #-84]
 3227 10cc 080051E3 		cmp	r1, #8
 378:../src/tensorflow_lite/src/tensorflow/lite/micro/memory_planner/greedy_memory_planner.cpp ****         if (line[n] == '.') {
 3228              		.loc 1 378 0
 3229 10d0 08208AE2 		add	r2, r10, #8
 3230              	.LVL329:
 3231 10d4 4D00000A 		beq	.L311
 379:../src/tensorflow_lite/src/tensorflow/lite/micro/memory_planner/greedy_memory_planner.cpp ****           line[n] = GetOrdinalCharacter(i);
 3232              		.loc 1 379 0
 3233 10d8 80E08DE2 		add	lr, sp, #128
 3234 10dc 02208EE0 		add	r2, lr, r2
 3235              	.LVL330:
 3236 10e0 54E052E5 		ldrb	lr, [r2, #-84]	@ zero_extendqisi2
 3237 10e4 2E005EE3 		cmp	lr, #46
 382:../src/tensorflow_lite/src/tensorflow/lite/micro/memory_planner/greedy_memory_planner.cpp ****         }
 3238              		.loc 1 382 0
 3239 10e8 21E0A013 		movne	lr, #33
 380:../src/tensorflow_lite/src/tensorflow/lite/micro/memory_planner/greedy_memory_planner.cpp ****         } else {
 3240              		.loc 1 380 0
 3241 10ec 54504205 		strbeq	r5, [r2, #-84]
 382:../src/tensorflow_lite/src/tensorflow/lite/micro/memory_planner/greedy_memory_planner.cpp ****         }
 3242              		.loc 1 382 0
 3243 10f0 54E04215 		strbne	lr, [r2, #-84]
 3244 10f4 090051E3 		cmp	r1, #9
 378:../src/tensorflow_lite/src/tensorflow/lite/micro/memory_planner/greedy_memory_planner.cpp ****         if (line[n] == '.') {
 3245              		.loc 1 378 0
 3246 10f8 09208AE2 		add	r2, r10, #9
 3247              	.LVL331:
 3248 10fc 4300000A 		beq	.L311
 379:../src/tensorflow_lite/src/tensorflow/lite/micro/memory_planner/greedy_memory_planner.cpp ****           line[n] = GetOrdinalCharacter(i);
 3249              		.loc 1 379 0
 3250 1100 80E08DE2 		add	lr, sp, #128
 3251 1104 02208EE0 		add	r2, lr, r2
 3252              	.LVL332:
 3253 1108 54E052E5 		ldrb	lr, [r2, #-84]	@ zero_extendqisi2
 3254 110c 2E005EE3 		cmp	lr, #46
 382:../src/tensorflow_lite/src/tensorflow/lite/micro/memory_planner/greedy_memory_planner.cpp ****         }
 3255              		.loc 1 382 0
 3256 1110 21E0A013 		movne	lr, #33
 380:../src/tensorflow_lite/src/tensorflow/lite/micro/memory_planner/greedy_memory_planner.cpp ****         } else {
 3257              		.loc 1 380 0
 3258 1114 54504205 		strbeq	r5, [r2, #-84]
 382:../src/tensorflow_lite/src/tensorflow/lite/micro/memory_planner/greedy_memory_planner.cpp ****         }
 3259              		.loc 1 382 0
 3260 1118 54E04215 		strbne	lr, [r2, #-84]
 3261 111c 0A0051E3 		cmp	r1, #10
 378:../src/tensorflow_lite/src/tensorflow/lite/micro/memory_planner/greedy_memory_planner.cpp ****         if (line[n] == '.') {
 3262              		.loc 1 378 0
 3263 1120 0A208AE2 		add	r2, r10, #10
 3264              	.LVL333:
 3265 1124 3900000A 		beq	.L311
 379:../src/tensorflow_lite/src/tensorflow/lite/micro/memory_planner/greedy_memory_planner.cpp ****           line[n] = GetOrdinalCharacter(i);
 3266              		.loc 1 379 0
 3267 1128 80E08DE2 		add	lr, sp, #128
 3268 112c 02208EE0 		add	r2, lr, r2
 3269              	.LVL334:
 3270 1130 54E052E5 		ldrb	lr, [r2, #-84]	@ zero_extendqisi2
 3271 1134 2E005EE3 		cmp	lr, #46
 382:../src/tensorflow_lite/src/tensorflow/lite/micro/memory_planner/greedy_memory_planner.cpp ****         }
 3272              		.loc 1 382 0
 3273 1138 21E0A013 		movne	lr, #33
 380:../src/tensorflow_lite/src/tensorflow/lite/micro/memory_planner/greedy_memory_planner.cpp ****         } else {
 3274              		.loc 1 380 0
 3275 113c 54504205 		strbeq	r5, [r2, #-84]
 382:../src/tensorflow_lite/src/tensorflow/lite/micro/memory_planner/greedy_memory_planner.cpp ****         }
 3276              		.loc 1 382 0
 3277 1140 54E04215 		strbne	lr, [r2, #-84]
 3278 1144 0B0051E3 		cmp	r1, #11
 378:../src/tensorflow_lite/src/tensorflow/lite/micro/memory_planner/greedy_memory_planner.cpp ****         if (line[n] == '.') {
 3279              		.loc 1 378 0
 3280 1148 0B208AE2 		add	r2, r10, #11
 3281              	.LVL335:
 3282 114c 2F00000A 		beq	.L311
 379:../src/tensorflow_lite/src/tensorflow/lite/micro/memory_planner/greedy_memory_planner.cpp ****           line[n] = GetOrdinalCharacter(i);
 3283              		.loc 1 379 0
 3284 1150 80E08DE2 		add	lr, sp, #128
 3285 1154 02208EE0 		add	r2, lr, r2
 3286              	.LVL336:
 3287 1158 54E052E5 		ldrb	lr, [r2, #-84]	@ zero_extendqisi2
 3288 115c 2E005EE3 		cmp	lr, #46
 382:../src/tensorflow_lite/src/tensorflow/lite/micro/memory_planner/greedy_memory_planner.cpp ****         }
 3289              		.loc 1 382 0
 3290 1160 21E0A013 		movne	lr, #33
 380:../src/tensorflow_lite/src/tensorflow/lite/micro/memory_planner/greedy_memory_planner.cpp ****         } else {
 3291              		.loc 1 380 0
 3292 1164 54504205 		strbeq	r5, [r2, #-84]
 382:../src/tensorflow_lite/src/tensorflow/lite/micro/memory_planner/greedy_memory_planner.cpp ****         }
 3293              		.loc 1 382 0
 3294 1168 54E04215 		strbne	lr, [r2, #-84]
 3295 116c 0C0051E3 		cmp	r1, #12
 378:../src/tensorflow_lite/src/tensorflow/lite/micro/memory_planner/greedy_memory_planner.cpp ****         if (line[n] == '.') {
 3296              		.loc 1 378 0
 3297 1170 0C208AE2 		add	r2, r10, #12
 3298              	.LVL337:
 3299 1174 2500000A 		beq	.L311
 379:../src/tensorflow_lite/src/tensorflow/lite/micro/memory_planner/greedy_memory_planner.cpp ****           line[n] = GetOrdinalCharacter(i);
 3300              		.loc 1 379 0
 3301 1178 80E08DE2 		add	lr, sp, #128
 3302 117c 02208EE0 		add	r2, lr, r2
 3303              	.LVL338:
 3304 1180 54E052E5 		ldrb	lr, [r2, #-84]	@ zero_extendqisi2
 3305 1184 2E005EE3 		cmp	lr, #46
 382:../src/tensorflow_lite/src/tensorflow/lite/micro/memory_planner/greedy_memory_planner.cpp ****         }
 3306              		.loc 1 382 0
 3307 1188 21E0A013 		movne	lr, #33
 380:../src/tensorflow_lite/src/tensorflow/lite/micro/memory_planner/greedy_memory_planner.cpp ****         } else {
 3308              		.loc 1 380 0
 3309 118c 54504205 		strbeq	r5, [r2, #-84]
 382:../src/tensorflow_lite/src/tensorflow/lite/micro/memory_planner/greedy_memory_planner.cpp ****         }
 3310              		.loc 1 382 0
 3311 1190 54E04215 		strbne	lr, [r2, #-84]
 3312 1194 0D0051E3 		cmp	r1, #13
 378:../src/tensorflow_lite/src/tensorflow/lite/micro/memory_planner/greedy_memory_planner.cpp ****         if (line[n] == '.') {
 3313              		.loc 1 378 0
 3314 1198 0D208AE2 		add	r2, r10, #13
 3315              	.LVL339:
 3316 119c 1B00000A 		beq	.L311
 379:../src/tensorflow_lite/src/tensorflow/lite/micro/memory_planner/greedy_memory_planner.cpp ****           line[n] = GetOrdinalCharacter(i);
 3317              		.loc 1 379 0
 3318 11a0 80E08DE2 		add	lr, sp, #128
 3319 11a4 02208EE0 		add	r2, lr, r2
 3320              	.LVL340:
 3321 11a8 54E052E5 		ldrb	lr, [r2, #-84]	@ zero_extendqisi2
 3322 11ac 2E005EE3 		cmp	lr, #46
 382:../src/tensorflow_lite/src/tensorflow/lite/micro/memory_planner/greedy_memory_planner.cpp ****         }
 3323              		.loc 1 382 0
 3324 11b0 21E0A013 		movne	lr, #33
 380:../src/tensorflow_lite/src/tensorflow/lite/micro/memory_planner/greedy_memory_planner.cpp ****         } else {
 3325              		.loc 1 380 0
 3326 11b4 54504205 		strbeq	r5, [r2, #-84]
 382:../src/tensorflow_lite/src/tensorflow/lite/micro/memory_planner/greedy_memory_planner.cpp ****         }
 3327              		.loc 1 382 0
 3328 11b8 54E04215 		strbne	lr, [r2, #-84]
 3329 11bc 0E0051E3 		cmp	r1, #14
 378:../src/tensorflow_lite/src/tensorflow/lite/micro/memory_planner/greedy_memory_planner.cpp ****         if (line[n] == '.') {
 3330              		.loc 1 378 0
 3331 11c0 0E208AE2 		add	r2, r10, #14
 3332              	.LVL341:
 3333 11c4 1100000A 		beq	.L311
 379:../src/tensorflow_lite/src/tensorflow/lite/micro/memory_planner/greedy_memory_planner.cpp ****           line[n] = GetOrdinalCharacter(i);
 3334              		.loc 1 379 0
 3335 11c8 80E08DE2 		add	lr, sp, #128
 3336 11cc 02208EE0 		add	r2, lr, r2
 3337              	.LVL342:
 3338 11d0 54E052E5 		ldrb	lr, [r2, #-84]	@ zero_extendqisi2
 3339 11d4 2E005EE3 		cmp	lr, #46
 382:../src/tensorflow_lite/src/tensorflow/lite/micro/memory_planner/greedy_memory_planner.cpp ****         }
 3340              		.loc 1 382 0
 3341 11d8 21E0A013 		movne	lr, #33
 380:../src/tensorflow_lite/src/tensorflow/lite/micro/memory_planner/greedy_memory_planner.cpp ****         } else {
 3342              		.loc 1 380 0
 3343 11dc 54504205 		strbeq	r5, [r2, #-84]
 382:../src/tensorflow_lite/src/tensorflow/lite/micro/memory_planner/greedy_memory_planner.cpp ****         }
 3344              		.loc 1 382 0
 3345 11e0 54E04215 		strbne	lr, [r2, #-84]
 3346 11e4 0F0051E3 		cmp	r1, #15
 378:../src/tensorflow_lite/src/tensorflow/lite/micro/memory_planner/greedy_memory_planner.cpp ****         if (line[n] == '.') {
 3347              		.loc 1 378 0
 3348 11e8 0F208AE2 		add	r2, r10, #15
 3349              	.LVL343:
 3350 11ec 0700000A 		beq	.L311
 379:../src/tensorflow_lite/src/tensorflow/lite/micro/memory_planner/greedy_memory_planner.cpp ****           line[n] = GetOrdinalCharacter(i);
 3351              		.loc 1 379 0
 3352 11f0 80E08DE2 		add	lr, sp, #128
 3353 11f4 02208EE0 		add	r2, lr, r2
 3354              	.LVL344:
 3355 11f8 54E052E5 		ldrb	lr, [r2, #-84]	@ zero_extendqisi2
 3356 11fc 2E005EE3 		cmp	lr, #46
 382:../src/tensorflow_lite/src/tensorflow/lite/micro/memory_planner/greedy_memory_planner.cpp ****         }
 3357              		.loc 1 382 0
 3358 1200 21E0A013 		movne	lr, #33
 3359 1204 54E04215 		strbne	lr, [r2, #-84]
 379:../src/tensorflow_lite/src/tensorflow/lite/micro/memory_planner/greedy_memory_planner.cpp ****           line[n] = GetOrdinalCharacter(i);
 3360              		.loc 1 379 0
 3361 1208 6802000A 		beq	.L729
 3362              	.L342:
 378:../src/tensorflow_lite/src/tensorflow/lite/micro/memory_planner/greedy_memory_planner.cpp ****         if (line[n] == '.') {
 3363              		.loc 1 378 0
 3364 120c 10208AE2 		add	r2, r10, #16
 3365              	.LVL345:
 3366              	.L311:
 3367 1210 01005CE1 		cmp	ip, r1
 3368 1214 B1FDFF0A 		beq	.L159
 3369              	.LVL346:
 3370              	.L308:
 3371 1218 01404CE0 		sub	r4, ip, r1
 3372              	.LVL347:
 3373 121c 01C04CE2 		sub	ip, ip, #1
 3374 1220 10E044E2 		sub	lr, r4, #16
 3375 1224 01C04CE0 		sub	ip, ip, r1
 3376 1228 2EE2A0E1 		lsr	lr, lr, #4
 3377 122c 0E005CE3 		cmp	ip, #14
 3378 1230 01E08EE2 		add	lr, lr, #1
 3379 1234 0EC2A0E1 		lsl	ip, lr, #4
 3380 1238 3800009A 		bls	.L344
 3381 123c 01108AE0 		add	r1, r10, r1
 3382 1240 909BA4EE 		vdup.32	q10, r9
 3383              	.LVL348:
 3384 1244 2CA08DE2 		add	r10, sp, #44
 3385              	.LVL349:
 3386              	.LBB241:
 3387              	.LBB235:
 3388              	.LBB231:
 3389              	.LBB228:
  31:../src/tensorflow_lite/src/tensorflow/lite/micro/memory_planner/greedy_memory_planner.cpp ****   } else if (i < 62) {
 3390              		.loc 1 31 0
 3391 1248 570EC5F2 		vmov.i8	q8, #87  @ v16qi
 3392 124c 01108AE0 		add	r1, r10, r1
 3393 1250 2482F6F3 		vmovn.i32	d24, q10
 3394 1254 2492F6F3 		vmovn.i32	d25, q10
 3395 1258 2862F2F3 		vmovn.i16	d22, q12
 3396 125c 2872F2F3 		vmovn.i16	d23, q12
 3397 1260 01005EE3 		cmp	lr, #1
 3398              	.LBE228:
 3399              	.LBE231:
 3400              	.LBE235:
 3401              	.LBE241:
 382:../src/tensorflow_lite/src/tensorflow/lite/micro/memory_planner/greedy_memory_planner.cpp ****         }
 3402              		.loc 1 382 0
 3403 1264 DF4A61F4 		vld1.64	{d20-d21}, [r1:64]
 3404              	.LBB242:
 3405              	.LBB236:
 3406              	.LBB232:
 3407              	.LBB229:
  31:../src/tensorflow_lite/src/tensorflow/lite/micro/memory_planner/greedy_memory_planner.cpp ****   } else if (i < 62) {
 3408              		.loc 1 31 0
 3409 1268 E06846F2 		vadd.i8	q11, q11, q8
 3410              	.LBE229:
 3411              	.LBE232:
 3412              	.LBE236:
 3413              	.LBE242:
 382:../src/tensorflow_lite/src/tensorflow/lite/micro/memory_planner/greedy_memory_planner.cpp ****         }
 3414              		.loc 1 382 0
 3415 126c DC4844F3 		vceq.i8	q10, q10, q6
 3416 1270 DA4156F3 		vbsl	q10, q11, q5
 3417 1274 DF4A41F4 		vst1.64	{d20-d21}, [r1:64]
 3418 1278 2500000A 		beq	.L345
 3419 127c 02005EE3 		cmp	lr, #2
 3420 1280 044BD1ED 		vldr	d20, [r1, #16]
 3421 1284 065BD1ED 		vldr	d21, [r1, #24]
 3422 1288 DC4844F3 		vceq.i8	q10, q10, q6
 3423 128c DA4156F3 		vbsl	q10, q11, q5
 3424 1290 044BC1ED 		vstr	d20, [r1, #16]
 3425 1294 065BC1ED 		vstr	d21, [r1, #24]
 3426 1298 1D00000A 		beq	.L345
 3427 129c 03005EE3 		cmp	lr, #3
 3428 12a0 084BD1ED 		vldr	d20, [r1, #32]
 3429 12a4 0A5BD1ED 		vldr	d21, [r1, #40]
 3430 12a8 DC4844F3 		vceq.i8	q10, q10, q6
 3431 12ac DA4156F3 		vbsl	q10, q11, q5
 3432 12b0 084BC1ED 		vstr	d20, [r1, #32]
 3433 12b4 0A5BC1ED 		vstr	d21, [r1, #40]
 3434 12b8 1500000A 		beq	.L345
 3435 12bc 04005EE3 		cmp	lr, #4
 3436 12c0 0C4BD1ED 		vldr	d20, [r1, #48]
 3437 12c4 0E5BD1ED 		vldr	d21, [r1, #56]
 3438 12c8 DC4844F3 		vceq.i8	q10, q10, q6
 3439 12cc DA4156F3 		vbsl	q10, q11, q5
 3440 12d0 0C4BC1ED 		vstr	d20, [r1, #48]
 3441 12d4 0E5BC1ED 		vstr	d21, [r1, #56]
 3442 12d8 0D00000A 		beq	.L345
 3443 12dc 05005EE3 		cmp	lr, #5
 3444 12e0 104BD1ED 		vldr	d20, [r1, #64]
 3445 12e4 125BD1ED 		vldr	d21, [r1, #72]
 3446 12e8 DC4844F3 		vceq.i8	q10, q10, q6
 3447 12ec DA4156F3 		vbsl	q10, q11, q5
 3448 12f0 104BC1ED 		vstr	d20, [r1, #64]
 3449 12f4 125BC1ED 		vstr	d21, [r1, #72]
 3450 12f8 0500000A 		beq	.L345
 3451 12fc 144BD1ED 		vldr	d20, [r1, #80]
 3452 1300 165BD1ED 		vldr	d21, [r1, #88]
 3453 1304 DC4844F3 		vceq.i8	q10, q10, q6
 3454 1308 74617AF3 		vbif	q11, q5, q10
 3455 130c 146BC1ED 		vstr	d22, [r1, #80]
 3456 1310 167BC1ED 		vstr	d23, [r1, #88]
 3457              	.L345:
 3458 1314 0C0054E1 		cmp	r4, ip
 3459 1318 0C2082E0 		add	r2, r2, ip
 3460 131c 6FFDFF0A 		beq	.L159
 3461              	.L344:
 3462              	.LVL350:
 379:../src/tensorflow_lite/src/tensorflow/lite/micro/memory_planner/greedy_memory_planner.cpp ****           line[n] = GetOrdinalCharacter(i);
 3463              		.loc 1 379 0
 3464 1320 80108DE2 		add	r1, sp, #128
 3465 1324 021081E0 		add	r1, r1, r2
 3466 1328 54C051E5 		ldrb	ip, [r1, #-84]	@ zero_extendqisi2
 3467 132c 2E005CE3 		cmp	ip, #46
 382:../src/tensorflow_lite/src/tensorflow/lite/micro/memory_planner/greedy_memory_planner.cpp ****         }
 3468              		.loc 1 382 0
 3469 1330 21C0A013 		movne	ip, #33
 380:../src/tensorflow_lite/src/tensorflow/lite/micro/memory_planner/greedy_memory_planner.cpp ****         } else {
 3470              		.loc 1 380 0
 3471 1334 54504105 		strbeq	r5, [r1, #-84]
 382:../src/tensorflow_lite/src/tensorflow/lite/micro/memory_planner/greedy_memory_planner.cpp ****         }
 3472              		.loc 1 382 0
 3473 1338 54C04115 		strbne	ip, [r1, #-84]
 3474              	.LVL351:
 378:../src/tensorflow_lite/src/tensorflow/lite/micro/memory_planner/greedy_memory_planner.cpp ****         if (line[n] == '.') {
 3475              		.loc 1 378 0
 3476 133c 011082E2 		add	r1, r2, #1
 3477              	.LVL352:
 3478 1340 010050E1 		cmp	r0, r1
 3479 1344 65FDFFDA 		ble	.L159
 379:../src/tensorflow_lite/src/tensorflow/lite/micro/memory_planner/greedy_memory_planner.cpp ****           line[n] = GetOrdinalCharacter(i);
 3480              		.loc 1 379 0
 3481 1348 80C08DE2 		add	ip, sp, #128
 3482 134c 01108CE0 		add	r1, ip, r1
 3483              	.LVL353:
 3484 1350 54C051E5 		ldrb	ip, [r1, #-84]	@ zero_extendqisi2
 3485 1354 2E005CE3 		cmp	ip, #46
 382:../src/tensorflow_lite/src/tensorflow/lite/micro/memory_planner/greedy_memory_planner.cpp ****         }
 3486              		.loc 1 382 0
 3487 1358 21C0A013 		movne	ip, #33
 380:../src/tensorflow_lite/src/tensorflow/lite/micro/memory_planner/greedy_memory_planner.cpp ****         } else {
 3488              		.loc 1 380 0
 3489 135c 54504105 		strbeq	r5, [r1, #-84]
 382:../src/tensorflow_lite/src/tensorflow/lite/micro/memory_planner/greedy_memory_planner.cpp ****         }
 3490              		.loc 1 382 0
 3491 1360 54C04115 		strbne	ip, [r1, #-84]
 378:../src/tensorflow_lite/src/tensorflow/lite/micro/memory_planner/greedy_memory_planner.cpp ****         if (line[n] == '.') {
 3492              		.loc 1 378 0
 3493 1364 021082E2 		add	r1, r2, #2
 3494              	.LVL354:
 3495 1368 010050E1 		cmp	r0, r1
 3496 136c 5BFDFFDA 		ble	.L159
 379:../src/tensorflow_lite/src/tensorflow/lite/micro/memory_planner/greedy_memory_planner.cpp ****           line[n] = GetOrdinalCharacter(i);
 3497              		.loc 1 379 0
 3498 1370 80C08DE2 		add	ip, sp, #128
 3499 1374 01108CE0 		add	r1, ip, r1
 3500              	.LVL355:
 3501 1378 54C051E5 		ldrb	ip, [r1, #-84]	@ zero_extendqisi2
 3502 137c 2E005CE3 		cmp	ip, #46
 382:../src/tensorflow_lite/src/tensorflow/lite/micro/memory_planner/greedy_memory_planner.cpp ****         }
 3503              		.loc 1 382 0
 3504 1380 21C0A013 		movne	ip, #33
 380:../src/tensorflow_lite/src/tensorflow/lite/micro/memory_planner/greedy_memory_planner.cpp ****         } else {
 3505              		.loc 1 380 0
 3506 1384 54504105 		strbeq	r5, [r1, #-84]
 382:../src/tensorflow_lite/src/tensorflow/lite/micro/memory_planner/greedy_memory_planner.cpp ****         }
 3507              		.loc 1 382 0
 3508 1388 54C04115 		strbne	ip, [r1, #-84]
 378:../src/tensorflow_lite/src/tensorflow/lite/micro/memory_planner/greedy_memory_planner.cpp ****         if (line[n] == '.') {
 3509              		.loc 1 378 0
 3510 138c 031082E2 		add	r1, r2, #3
 3511              	.LVL356:
 3512 1390 010050E1 		cmp	r0, r1
 3513 1394 51FDFFDA 		ble	.L159
 379:../src/tensorflow_lite/src/tensorflow/lite/micro/memory_planner/greedy_memory_planner.cpp ****           line[n] = GetOrdinalCharacter(i);
 3514              		.loc 1 379 0
 3515 1398 80C08DE2 		add	ip, sp, #128
 3516 139c 01108CE0 		add	r1, ip, r1
 3517              	.LVL357:
 3518 13a0 54C051E5 		ldrb	ip, [r1, #-84]	@ zero_extendqisi2
 3519 13a4 2E005CE3 		cmp	ip, #46
 382:../src/tensorflow_lite/src/tensorflow/lite/micro/memory_planner/greedy_memory_planner.cpp ****         }
 3520              		.loc 1 382 0
 3521 13a8 21C0A013 		movne	ip, #33
 380:../src/tensorflow_lite/src/tensorflow/lite/micro/memory_planner/greedy_memory_planner.cpp ****         } else {
 3522              		.loc 1 380 0
 3523 13ac 54504105 		strbeq	r5, [r1, #-84]
 382:../src/tensorflow_lite/src/tensorflow/lite/micro/memory_planner/greedy_memory_planner.cpp ****         }
 3524              		.loc 1 382 0
 3525 13b0 54C04115 		strbne	ip, [r1, #-84]
 378:../src/tensorflow_lite/src/tensorflow/lite/micro/memory_planner/greedy_memory_planner.cpp ****         if (line[n] == '.') {
 3526              		.loc 1 378 0
 3527 13b4 041082E2 		add	r1, r2, #4
 3528              	.LVL358:
 3529 13b8 010050E1 		cmp	r0, r1
 3530 13bc 47FDFFDA 		ble	.L159
 379:../src/tensorflow_lite/src/tensorflow/lite/micro/memory_planner/greedy_memory_planner.cpp ****           line[n] = GetOrdinalCharacter(i);
 3531              		.loc 1 379 0
 3532 13c0 80C08DE2 		add	ip, sp, #128
 3533 13c4 01108CE0 		add	r1, ip, r1
 3534              	.LVL359:
 3535 13c8 54C051E5 		ldrb	ip, [r1, #-84]	@ zero_extendqisi2
 3536 13cc 2E005CE3 		cmp	ip, #46
 382:../src/tensorflow_lite/src/tensorflow/lite/micro/memory_planner/greedy_memory_planner.cpp ****         }
 3537              		.loc 1 382 0
 3538 13d0 21C0A013 		movne	ip, #33
 380:../src/tensorflow_lite/src/tensorflow/lite/micro/memory_planner/greedy_memory_planner.cpp ****         } else {
 3539              		.loc 1 380 0
 3540 13d4 54504105 		strbeq	r5, [r1, #-84]
 382:../src/tensorflow_lite/src/tensorflow/lite/micro/memory_planner/greedy_memory_planner.cpp ****         }
 3541              		.loc 1 382 0
 3542 13d8 54C04115 		strbne	ip, [r1, #-84]
 378:../src/tensorflow_lite/src/tensorflow/lite/micro/memory_planner/greedy_memory_planner.cpp ****         if (line[n] == '.') {
 3543              		.loc 1 378 0
 3544 13dc 051082E2 		add	r1, r2, #5
 3545              	.LVL360:
 3546 13e0 010050E1 		cmp	r0, r1
 3547 13e4 3DFDFFDA 		ble	.L159
 379:../src/tensorflow_lite/src/tensorflow/lite/micro/memory_planner/greedy_memory_planner.cpp ****           line[n] = GetOrdinalCharacter(i);
 3548              		.loc 1 379 0
 3549 13e8 80C08DE2 		add	ip, sp, #128
 3550 13ec 01108CE0 		add	r1, ip, r1
 3551              	.LVL361:
 3552 13f0 54C051E5 		ldrb	ip, [r1, #-84]	@ zero_extendqisi2
 3553 13f4 2E005CE3 		cmp	ip, #46
 382:../src/tensorflow_lite/src/tensorflow/lite/micro/memory_planner/greedy_memory_planner.cpp ****         }
 3554              		.loc 1 382 0
 3555 13f8 21C0A013 		movne	ip, #33
 380:../src/tensorflow_lite/src/tensorflow/lite/micro/memory_planner/greedy_memory_planner.cpp ****         } else {
 3556              		.loc 1 380 0
 3557 13fc 54504105 		strbeq	r5, [r1, #-84]
 382:../src/tensorflow_lite/src/tensorflow/lite/micro/memory_planner/greedy_memory_planner.cpp ****         }
 3558              		.loc 1 382 0
 3559 1400 54C04115 		strbne	ip, [r1, #-84]
 378:../src/tensorflow_lite/src/tensorflow/lite/micro/memory_planner/greedy_memory_planner.cpp ****         if (line[n] == '.') {
 3560              		.loc 1 378 0
 3561 1404 061082E2 		add	r1, r2, #6
 3562              	.LVL362:
 3563 1408 010050E1 		cmp	r0, r1
 3564 140c 33FDFFDA 		ble	.L159
 379:../src/tensorflow_lite/src/tensorflow/lite/micro/memory_planner/greedy_memory_planner.cpp ****           line[n] = GetOrdinalCharacter(i);
 3565              		.loc 1 379 0
 3566 1410 80C08DE2 		add	ip, sp, #128
 3567 1414 01108CE0 		add	r1, ip, r1
 3568              	.LVL363:
 3569 1418 54C051E5 		ldrb	ip, [r1, #-84]	@ zero_extendqisi2
 3570 141c 2E005CE3 		cmp	ip, #46
 382:../src/tensorflow_lite/src/tensorflow/lite/micro/memory_planner/greedy_memory_planner.cpp ****         }
 3571              		.loc 1 382 0
 3572 1420 21C0A013 		movne	ip, #33
 380:../src/tensorflow_lite/src/tensorflow/lite/micro/memory_planner/greedy_memory_planner.cpp ****         } else {
 3573              		.loc 1 380 0
 3574 1424 54504105 		strbeq	r5, [r1, #-84]
 382:../src/tensorflow_lite/src/tensorflow/lite/micro/memory_planner/greedy_memory_planner.cpp ****         }
 3575              		.loc 1 382 0
 3576 1428 54C04115 		strbne	ip, [r1, #-84]
 378:../src/tensorflow_lite/src/tensorflow/lite/micro/memory_planner/greedy_memory_planner.cpp ****         if (line[n] == '.') {
 3577              		.loc 1 378 0
 3578 142c 071082E2 		add	r1, r2, #7
 3579              	.LVL364:
 3580 1430 010050E1 		cmp	r0, r1
 3581 1434 29FDFFDA 		ble	.L159
 379:../src/tensorflow_lite/src/tensorflow/lite/micro/memory_planner/greedy_memory_planner.cpp ****           line[n] = GetOrdinalCharacter(i);
 3582              		.loc 1 379 0
 3583 1438 80C08DE2 		add	ip, sp, #128
 3584 143c 01108CE0 		add	r1, ip, r1
 3585              	.LVL365:
 3586 1440 54C051E5 		ldrb	ip, [r1, #-84]	@ zero_extendqisi2
 3587 1444 2E005CE3 		cmp	ip, #46
 382:../src/tensorflow_lite/src/tensorflow/lite/micro/memory_planner/greedy_memory_planner.cpp ****         }
 3588              		.loc 1 382 0
 3589 1448 21C0A013 		movne	ip, #33
 380:../src/tensorflow_lite/src/tensorflow/lite/micro/memory_planner/greedy_memory_planner.cpp ****         } else {
 3590              		.loc 1 380 0
 3591 144c 54504105 		strbeq	r5, [r1, #-84]
 382:../src/tensorflow_lite/src/tensorflow/lite/micro/memory_planner/greedy_memory_planner.cpp ****         }
 3592              		.loc 1 382 0
 3593 1450 54C04115 		strbne	ip, [r1, #-84]
 378:../src/tensorflow_lite/src/tensorflow/lite/micro/memory_planner/greedy_memory_planner.cpp ****         if (line[n] == '.') {
 3594              		.loc 1 378 0
 3595 1454 081082E2 		add	r1, r2, #8
 3596              	.LVL366:
 3597 1458 010050E1 		cmp	r0, r1
 3598 145c 1FFDFFDA 		ble	.L159
 379:../src/tensorflow_lite/src/tensorflow/lite/micro/memory_planner/greedy_memory_planner.cpp ****           line[n] = GetOrdinalCharacter(i);
 3599              		.loc 1 379 0
 3600 1460 80C08DE2 		add	ip, sp, #128
 3601 1464 01108CE0 		add	r1, ip, r1
 3602              	.LVL367:
 3603 1468 54C051E5 		ldrb	ip, [r1, #-84]	@ zero_extendqisi2
 3604 146c 2E005CE3 		cmp	ip, #46
 382:../src/tensorflow_lite/src/tensorflow/lite/micro/memory_planner/greedy_memory_planner.cpp ****         }
 3605              		.loc 1 382 0
 3606 1470 21C0A013 		movne	ip, #33
 380:../src/tensorflow_lite/src/tensorflow/lite/micro/memory_planner/greedy_memory_planner.cpp ****         } else {
 3607              		.loc 1 380 0
 3608 1474 54504105 		strbeq	r5, [r1, #-84]
 382:../src/tensorflow_lite/src/tensorflow/lite/micro/memory_planner/greedy_memory_planner.cpp ****         }
 3609              		.loc 1 382 0
 3610 1478 54C04115 		strbne	ip, [r1, #-84]
 378:../src/tensorflow_lite/src/tensorflow/lite/micro/memory_planner/greedy_memory_planner.cpp ****         if (line[n] == '.') {
 3611              		.loc 1 378 0
 3612 147c 091082E2 		add	r1, r2, #9
 3613              	.LVL368:
 3614 1480 010050E1 		cmp	r0, r1
 3615 1484 15FDFFDA 		ble	.L159
 379:../src/tensorflow_lite/src/tensorflow/lite/micro/memory_planner/greedy_memory_planner.cpp ****           line[n] = GetOrdinalCharacter(i);
 3616              		.loc 1 379 0
 3617 1488 80C08DE2 		add	ip, sp, #128
 3618 148c 01108CE0 		add	r1, ip, r1
 3619              	.LVL369:
 3620 1490 54C051E5 		ldrb	ip, [r1, #-84]	@ zero_extendqisi2
 3621 1494 2E005CE3 		cmp	ip, #46
 382:../src/tensorflow_lite/src/tensorflow/lite/micro/memory_planner/greedy_memory_planner.cpp ****         }
 3622              		.loc 1 382 0
 3623 1498 21C0A013 		movne	ip, #33
 380:../src/tensorflow_lite/src/tensorflow/lite/micro/memory_planner/greedy_memory_planner.cpp ****         } else {
 3624              		.loc 1 380 0
 3625 149c 54504105 		strbeq	r5, [r1, #-84]
 382:../src/tensorflow_lite/src/tensorflow/lite/micro/memory_planner/greedy_memory_planner.cpp ****         }
 3626              		.loc 1 382 0
 3627 14a0 54C04115 		strbne	ip, [r1, #-84]
 378:../src/tensorflow_lite/src/tensorflow/lite/micro/memory_planner/greedy_memory_planner.cpp ****         if (line[n] == '.') {
 3628              		.loc 1 378 0
 3629 14a4 0A1082E2 		add	r1, r2, #10
 3630              	.LVL370:
 3631 14a8 010050E1 		cmp	r0, r1
 3632 14ac 0BFDFFDA 		ble	.L159
 379:../src/tensorflow_lite/src/tensorflow/lite/micro/memory_planner/greedy_memory_planner.cpp ****           line[n] = GetOrdinalCharacter(i);
 3633              		.loc 1 379 0
 3634 14b0 80C08DE2 		add	ip, sp, #128
 3635 14b4 01108CE0 		add	r1, ip, r1
 3636              	.LVL371:
 3637 14b8 54C051E5 		ldrb	ip, [r1, #-84]	@ zero_extendqisi2
 3638 14bc 2E005CE3 		cmp	ip, #46
 382:../src/tensorflow_lite/src/tensorflow/lite/micro/memory_planner/greedy_memory_planner.cpp ****         }
 3639              		.loc 1 382 0
 3640 14c0 21C0A013 		movne	ip, #33
 380:../src/tensorflow_lite/src/tensorflow/lite/micro/memory_planner/greedy_memory_planner.cpp ****         } else {
 3641              		.loc 1 380 0
 3642 14c4 54504105 		strbeq	r5, [r1, #-84]
 382:../src/tensorflow_lite/src/tensorflow/lite/micro/memory_planner/greedy_memory_planner.cpp ****         }
 3643              		.loc 1 382 0
 3644 14c8 54C04115 		strbne	ip, [r1, #-84]
 378:../src/tensorflow_lite/src/tensorflow/lite/micro/memory_planner/greedy_memory_planner.cpp ****         if (line[n] == '.') {
 3645              		.loc 1 378 0
 3646 14cc 0B1082E2 		add	r1, r2, #11
 3647              	.LVL372:
 3648 14d0 010050E1 		cmp	r0, r1
 3649 14d4 01FDFFDA 		ble	.L159
 379:../src/tensorflow_lite/src/tensorflow/lite/micro/memory_planner/greedy_memory_planner.cpp ****           line[n] = GetOrdinalCharacter(i);
 3650              		.loc 1 379 0
 3651 14d8 80C08DE2 		add	ip, sp, #128
 3652 14dc 01108CE0 		add	r1, ip, r1
 3653              	.LVL373:
 3654 14e0 54C051E5 		ldrb	ip, [r1, #-84]	@ zero_extendqisi2
 3655 14e4 2E005CE3 		cmp	ip, #46
 382:../src/tensorflow_lite/src/tensorflow/lite/micro/memory_planner/greedy_memory_planner.cpp ****         }
 3656              		.loc 1 382 0
 3657 14e8 21C0A013 		movne	ip, #33
 380:../src/tensorflow_lite/src/tensorflow/lite/micro/memory_planner/greedy_memory_planner.cpp ****         } else {
 3658              		.loc 1 380 0
 3659 14ec 54504105 		strbeq	r5, [r1, #-84]
 382:../src/tensorflow_lite/src/tensorflow/lite/micro/memory_planner/greedy_memory_planner.cpp ****         }
 3660              		.loc 1 382 0
 3661 14f0 54C04115 		strbne	ip, [r1, #-84]
 378:../src/tensorflow_lite/src/tensorflow/lite/micro/memory_planner/greedy_memory_planner.cpp ****         if (line[n] == '.') {
 3662              		.loc 1 378 0
 3663 14f4 0C1082E2 		add	r1, r2, #12
 3664              	.LVL374:
 3665 14f8 010050E1 		cmp	r0, r1
 3666 14fc F7FCFFDA 		ble	.L159
 379:../src/tensorflow_lite/src/tensorflow/lite/micro/memory_planner/greedy_memory_planner.cpp ****           line[n] = GetOrdinalCharacter(i);
 3667              		.loc 1 379 0
 3668 1500 80C08DE2 		add	ip, sp, #128
 3669 1504 01108CE0 		add	r1, ip, r1
 3670              	.LVL375:
 3671 1508 54C051E5 		ldrb	ip, [r1, #-84]	@ zero_extendqisi2
 3672 150c 2E005CE3 		cmp	ip, #46
 382:../src/tensorflow_lite/src/tensorflow/lite/micro/memory_planner/greedy_memory_planner.cpp ****         }
 3673              		.loc 1 382 0
 3674 1510 21C0A013 		movne	ip, #33
 380:../src/tensorflow_lite/src/tensorflow/lite/micro/memory_planner/greedy_memory_planner.cpp ****         } else {
 3675              		.loc 1 380 0
 3676 1514 54504105 		strbeq	r5, [r1, #-84]
 382:../src/tensorflow_lite/src/tensorflow/lite/micro/memory_planner/greedy_memory_planner.cpp ****         }
 3677              		.loc 1 382 0
 3678 1518 54C04115 		strbne	ip, [r1, #-84]
 378:../src/tensorflow_lite/src/tensorflow/lite/micro/memory_planner/greedy_memory_planner.cpp ****         if (line[n] == '.') {
 3679              		.loc 1 378 0
 3680 151c 0D1082E2 		add	r1, r2, #13
 3681              	.LVL376:
 3682 1520 010050E1 		cmp	r0, r1
 3683 1524 EDFCFFDA 		ble	.L159
 379:../src/tensorflow_lite/src/tensorflow/lite/micro/memory_planner/greedy_memory_planner.cpp ****           line[n] = GetOrdinalCharacter(i);
 3684              		.loc 1 379 0
 3685 1528 80C08DE2 		add	ip, sp, #128
 378:../src/tensorflow_lite/src/tensorflow/lite/micro/memory_planner/greedy_memory_planner.cpp ****         if (line[n] == '.') {
 3686              		.loc 1 378 0
 3687 152c 0E2082E2 		add	r2, r2, #14
 379:../src/tensorflow_lite/src/tensorflow/lite/micro/memory_planner/greedy_memory_planner.cpp ****           line[n] = GetOrdinalCharacter(i);
 3688              		.loc 1 379 0
 3689 1530 01108CE0 		add	r1, ip, r1
 3690              	.LVL377:
 3691 1534 54C051E5 		ldrb	ip, [r1, #-84]	@ zero_extendqisi2
 3692 1538 2E005CE3 		cmp	ip, #46
 382:../src/tensorflow_lite/src/tensorflow/lite/micro/memory_planner/greedy_memory_planner.cpp ****         }
 3693              		.loc 1 382 0
 3694 153c 21C0A013 		movne	ip, #33
 380:../src/tensorflow_lite/src/tensorflow/lite/micro/memory_planner/greedy_memory_planner.cpp ****         } else {
 3695              		.loc 1 380 0
 3696 1540 54504105 		strbeq	r5, [r1, #-84]
 382:../src/tensorflow_lite/src/tensorflow/lite/micro/memory_planner/greedy_memory_planner.cpp ****         }
 3697              		.loc 1 382 0
 3698 1544 54C04115 		strbne	ip, [r1, #-84]
 3699              	.LVL378:
 378:../src/tensorflow_lite/src/tensorflow/lite/micro/memory_planner/greedy_memory_planner.cpp ****         if (line[n] == '.') {
 3700              		.loc 1 378 0
 3701 1548 020050E1 		cmp	r0, r2
 3702 154c E3FCFFDA 		ble	.L159
 379:../src/tensorflow_lite/src/tensorflow/lite/micro/memory_planner/greedy_memory_planner.cpp ****           line[n] = GetOrdinalCharacter(i);
 3703              		.loc 1 379 0
 3704 1550 80108DE2 		add	r1, sp, #128
 3705 1554 022081E0 		add	r2, r1, r2
 3706              	.LVL379:
 3707 1558 541052E5 		ldrb	r1, [r2, #-84]	@ zero_extendqisi2
 3708 155c 2E0051E3 		cmp	r1, #46
 380:../src/tensorflow_lite/src/tensorflow/lite/micro/memory_planner/greedy_memory_planner.cpp ****         } else {
 3709              		.loc 1 380 0
 3710 1560 54504205 		strbeq	r5, [r2, #-84]
 379:../src/tensorflow_lite/src/tensorflow/lite/micro/memory_planner/greedy_memory_planner.cpp ****           line[n] = GetOrdinalCharacter(i);
 3711              		.loc 1 379 0
 3712 1564 84FEFF1A 		bne	.L721
 3713 1568 DCFCFFEA 		b	.L159
 3714              	.LVL380:
 3715              	.L306:
 3716 156c 000051E3 		cmp	r1, #0
 3717 1570 7C01000A 		beq	.L462
 3718 1574 80208DE2 		add	r2, sp, #128
 3719 1578 0A2082E0 		add	r2, r2, r10
 3720 157c 54E052E5 		ldrb	lr, [r2, #-84]	@ zero_extendqisi2
 3721 1580 2E005EE3 		cmp	lr, #46
 382:../src/tensorflow_lite/src/tensorflow/lite/micro/memory_planner/greedy_memory_planner.cpp ****         }
 3722              		.loc 1 382 0
 3723 1584 21E0A013 		movne	lr, #33
 380:../src/tensorflow_lite/src/tensorflow/lite/micro/memory_planner/greedy_memory_planner.cpp ****         } else {
 3724              		.loc 1 380 0
 3725 1588 54704205 		strbeq	r7, [r2, #-84]
 382:../src/tensorflow_lite/src/tensorflow/lite/micro/memory_planner/greedy_memory_planner.cpp ****         }
 3726              		.loc 1 382 0
 3727 158c 54E04215 		strbne	lr, [r2, #-84]
 3728 1590 010051E3 		cmp	r1, #1
 378:../src/tensorflow_lite/src/tensorflow/lite/micro/memory_planner/greedy_memory_planner.cpp ****         if (line[n] == '.') {
 3729              		.loc 1 378 0
 3730 1594 01208AE2 		add	r2, r10, #1
 3731              	.LVL381:
 3732 1598 9300000A 		beq	.L383
 379:../src/tensorflow_lite/src/tensorflow/lite/micro/memory_planner/greedy_memory_planner.cpp ****           line[n] = GetOrdinalCharacter(i);
 3733              		.loc 1 379 0
 3734 159c 80E08DE2 		add	lr, sp, #128
 3735 15a0 02208EE0 		add	r2, lr, r2
 3736              	.LVL382:
 3737 15a4 54E052E5 		ldrb	lr, [r2, #-84]	@ zero_extendqisi2
 3738 15a8 2E005EE3 		cmp	lr, #46
 382:../src/tensorflow_lite/src/tensorflow/lite/micro/memory_planner/greedy_memory_planner.cpp ****         }
 3739              		.loc 1 382 0
 3740 15ac 21E0A013 		movne	lr, #33
 380:../src/tensorflow_lite/src/tensorflow/lite/micro/memory_planner/greedy_memory_planner.cpp ****         } else {
 3741              		.loc 1 380 0
 3742 15b0 54704205 		strbeq	r7, [r2, #-84]
 382:../src/tensorflow_lite/src/tensorflow/lite/micro/memory_planner/greedy_memory_planner.cpp ****         }
 3743              		.loc 1 382 0
 3744 15b4 54E04215 		strbne	lr, [r2, #-84]
 3745 15b8 020051E3 		cmp	r1, #2
 378:../src/tensorflow_lite/src/tensorflow/lite/micro/memory_planner/greedy_memory_planner.cpp ****         if (line[n] == '.') {
 3746              		.loc 1 378 0
 3747 15bc 02208AE2 		add	r2, r10, #2
 3748              	.LVL383:
 3749 15c0 8900000A 		beq	.L383
 379:../src/tensorflow_lite/src/tensorflow/lite/micro/memory_planner/greedy_memory_planner.cpp ****           line[n] = GetOrdinalCharacter(i);
 3750              		.loc 1 379 0
 3751 15c4 80E08DE2 		add	lr, sp, #128
 3752 15c8 02208EE0 		add	r2, lr, r2
 3753              	.LVL384:
 3754 15cc 54E052E5 		ldrb	lr, [r2, #-84]	@ zero_extendqisi2
 3755 15d0 2E005EE3 		cmp	lr, #46
 382:../src/tensorflow_lite/src/tensorflow/lite/micro/memory_planner/greedy_memory_planner.cpp ****         }
 3756              		.loc 1 382 0
 3757 15d4 21E0A013 		movne	lr, #33
 380:../src/tensorflow_lite/src/tensorflow/lite/micro/memory_planner/greedy_memory_planner.cpp ****         } else {
 3758              		.loc 1 380 0
 3759 15d8 54704205 		strbeq	r7, [r2, #-84]
 382:../src/tensorflow_lite/src/tensorflow/lite/micro/memory_planner/greedy_memory_planner.cpp ****         }
 3760              		.loc 1 382 0
 3761 15dc 54E04215 		strbne	lr, [r2, #-84]
 3762 15e0 030051E3 		cmp	r1, #3
 378:../src/tensorflow_lite/src/tensorflow/lite/micro/memory_planner/greedy_memory_planner.cpp ****         if (line[n] == '.') {
 3763              		.loc 1 378 0
 3764 15e4 03208AE2 		add	r2, r10, #3
 3765              	.LVL385:
 3766 15e8 7F00000A 		beq	.L383
 379:../src/tensorflow_lite/src/tensorflow/lite/micro/memory_planner/greedy_memory_planner.cpp ****           line[n] = GetOrdinalCharacter(i);
 3767              		.loc 1 379 0
 3768 15ec 80E08DE2 		add	lr, sp, #128
 3769 15f0 02208EE0 		add	r2, lr, r2
 3770              	.LVL386:
 3771 15f4 54E052E5 		ldrb	lr, [r2, #-84]	@ zero_extendqisi2
 3772 15f8 2E005EE3 		cmp	lr, #46
 382:../src/tensorflow_lite/src/tensorflow/lite/micro/memory_planner/greedy_memory_planner.cpp ****         }
 3773              		.loc 1 382 0
 3774 15fc 21E0A013 		movne	lr, #33
 380:../src/tensorflow_lite/src/tensorflow/lite/micro/memory_planner/greedy_memory_planner.cpp ****         } else {
 3775              		.loc 1 380 0
 3776 1600 54704205 		strbeq	r7, [r2, #-84]
 382:../src/tensorflow_lite/src/tensorflow/lite/micro/memory_planner/greedy_memory_planner.cpp ****         }
 3777              		.loc 1 382 0
 3778 1604 54E04215 		strbne	lr, [r2, #-84]
 3779 1608 040051E3 		cmp	r1, #4
 378:../src/tensorflow_lite/src/tensorflow/lite/micro/memory_planner/greedy_memory_planner.cpp ****         if (line[n] == '.') {
 3780              		.loc 1 378 0
 3781 160c 04208AE2 		add	r2, r10, #4
 3782              	.LVL387:
 3783 1610 7500000A 		beq	.L383
 379:../src/tensorflow_lite/src/tensorflow/lite/micro/memory_planner/greedy_memory_planner.cpp ****           line[n] = GetOrdinalCharacter(i);
 3784              		.loc 1 379 0
 3785 1614 80E08DE2 		add	lr, sp, #128
 3786 1618 02208EE0 		add	r2, lr, r2
 3787              	.LVL388:
 3788 161c 54E052E5 		ldrb	lr, [r2, #-84]	@ zero_extendqisi2
 3789 1620 2E005EE3 		cmp	lr, #46
 382:../src/tensorflow_lite/src/tensorflow/lite/micro/memory_planner/greedy_memory_planner.cpp ****         }
 3790              		.loc 1 382 0
 3791 1624 21E0A013 		movne	lr, #33
 380:../src/tensorflow_lite/src/tensorflow/lite/micro/memory_planner/greedy_memory_planner.cpp ****         } else {
 3792              		.loc 1 380 0
 3793 1628 54704205 		strbeq	r7, [r2, #-84]
 382:../src/tensorflow_lite/src/tensorflow/lite/micro/memory_planner/greedy_memory_planner.cpp ****         }
 3794              		.loc 1 382 0
 3795 162c 54E04215 		strbne	lr, [r2, #-84]
 3796 1630 050051E3 		cmp	r1, #5
 378:../src/tensorflow_lite/src/tensorflow/lite/micro/memory_planner/greedy_memory_planner.cpp ****         if (line[n] == '.') {
 3797              		.loc 1 378 0
 3798 1634 05208AE2 		add	r2, r10, #5
 3799              	.LVL389:
 3800 1638 6B00000A 		beq	.L383
 379:../src/tensorflow_lite/src/tensorflow/lite/micro/memory_planner/greedy_memory_planner.cpp ****           line[n] = GetOrdinalCharacter(i);
 3801              		.loc 1 379 0
 3802 163c 80E08DE2 		add	lr, sp, #128
 3803 1640 02208EE0 		add	r2, lr, r2
 3804              	.LVL390:
 3805 1644 54E052E5 		ldrb	lr, [r2, #-84]	@ zero_extendqisi2
 3806 1648 2E005EE3 		cmp	lr, #46
 382:../src/tensorflow_lite/src/tensorflow/lite/micro/memory_planner/greedy_memory_planner.cpp ****         }
 3807              		.loc 1 382 0
 3808 164c 21E0A013 		movne	lr, #33
 380:../src/tensorflow_lite/src/tensorflow/lite/micro/memory_planner/greedy_memory_planner.cpp ****         } else {
 3809              		.loc 1 380 0
 3810 1650 54704205 		strbeq	r7, [r2, #-84]
 382:../src/tensorflow_lite/src/tensorflow/lite/micro/memory_planner/greedy_memory_planner.cpp ****         }
 3811              		.loc 1 382 0
 3812 1654 54E04215 		strbne	lr, [r2, #-84]
 3813 1658 060051E3 		cmp	r1, #6
 378:../src/tensorflow_lite/src/tensorflow/lite/micro/memory_planner/greedy_memory_planner.cpp ****         if (line[n] == '.') {
 3814              		.loc 1 378 0
 3815 165c 06208AE2 		add	r2, r10, #6
 3816              	.LVL391:
 3817 1660 6100000A 		beq	.L383
 379:../src/tensorflow_lite/src/tensorflow/lite/micro/memory_planner/greedy_memory_planner.cpp ****           line[n] = GetOrdinalCharacter(i);
 3818              		.loc 1 379 0
 3819 1664 80E08DE2 		add	lr, sp, #128
 3820 1668 02208EE0 		add	r2, lr, r2
 3821              	.LVL392:
 3822 166c 54E052E5 		ldrb	lr, [r2, #-84]	@ zero_extendqisi2
 3823 1670 2E005EE3 		cmp	lr, #46
 382:../src/tensorflow_lite/src/tensorflow/lite/micro/memory_planner/greedy_memory_planner.cpp ****         }
 3824              		.loc 1 382 0
 3825 1674 21E0A013 		movne	lr, #33
 380:../src/tensorflow_lite/src/tensorflow/lite/micro/memory_planner/greedy_memory_planner.cpp ****         } else {
 3826              		.loc 1 380 0
 3827 1678 54704205 		strbeq	r7, [r2, #-84]
 382:../src/tensorflow_lite/src/tensorflow/lite/micro/memory_planner/greedy_memory_planner.cpp ****         }
 3828              		.loc 1 382 0
 3829 167c 54E04215 		strbne	lr, [r2, #-84]
 3830 1680 070051E3 		cmp	r1, #7
 378:../src/tensorflow_lite/src/tensorflow/lite/micro/memory_planner/greedy_memory_planner.cpp ****         if (line[n] == '.') {
 3831              		.loc 1 378 0
 3832 1684 07208AE2 		add	r2, r10, #7
 3833              	.LVL393:
 3834 1688 5700000A 		beq	.L383
 379:../src/tensorflow_lite/src/tensorflow/lite/micro/memory_planner/greedy_memory_planner.cpp ****           line[n] = GetOrdinalCharacter(i);
 3835              		.loc 1 379 0
 3836 168c 80E08DE2 		add	lr, sp, #128
 3837 1690 02208EE0 		add	r2, lr, r2
 3838              	.LVL394:
 3839 1694 54E052E5 		ldrb	lr, [r2, #-84]	@ zero_extendqisi2
 3840 1698 2E005EE3 		cmp	lr, #46
 382:../src/tensorflow_lite/src/tensorflow/lite/micro/memory_planner/greedy_memory_planner.cpp ****         }
 3841              		.loc 1 382 0
 3842 169c 21E0A013 		movne	lr, #33
 380:../src/tensorflow_lite/src/tensorflow/lite/micro/memory_planner/greedy_memory_planner.cpp ****         } else {
 3843              		.loc 1 380 0
 3844 16a0 54704205 		strbeq	r7, [r2, #-84]
 382:../src/tensorflow_lite/src/tensorflow/lite/micro/memory_planner/greedy_memory_planner.cpp ****         }
 3845              		.loc 1 382 0
 3846 16a4 54E04215 		strbne	lr, [r2, #-84]
 3847 16a8 080051E3 		cmp	r1, #8
 378:../src/tensorflow_lite/src/tensorflow/lite/micro/memory_planner/greedy_memory_planner.cpp ****         if (line[n] == '.') {
 3848              		.loc 1 378 0
 3849 16ac 08208AE2 		add	r2, r10, #8
 3850              	.LVL395:
 3851 16b0 4D00000A 		beq	.L383
 379:../src/tensorflow_lite/src/tensorflow/lite/micro/memory_planner/greedy_memory_planner.cpp ****           line[n] = GetOrdinalCharacter(i);
 3852              		.loc 1 379 0
 3853 16b4 80E08DE2 		add	lr, sp, #128
 3854 16b8 02208EE0 		add	r2, lr, r2
 3855              	.LVL396:
 3856 16bc 54E052E5 		ldrb	lr, [r2, #-84]	@ zero_extendqisi2
 3857 16c0 2E005EE3 		cmp	lr, #46
 382:../src/tensorflow_lite/src/tensorflow/lite/micro/memory_planner/greedy_memory_planner.cpp ****         }
 3858              		.loc 1 382 0
 3859 16c4 21E0A013 		movne	lr, #33
 380:../src/tensorflow_lite/src/tensorflow/lite/micro/memory_planner/greedy_memory_planner.cpp ****         } else {
 3860              		.loc 1 380 0
 3861 16c8 54704205 		strbeq	r7, [r2, #-84]
 382:../src/tensorflow_lite/src/tensorflow/lite/micro/memory_planner/greedy_memory_planner.cpp ****         }
 3862              		.loc 1 382 0
 3863 16cc 54E04215 		strbne	lr, [r2, #-84]
 3864 16d0 090051E3 		cmp	r1, #9
 378:../src/tensorflow_lite/src/tensorflow/lite/micro/memory_planner/greedy_memory_planner.cpp ****         if (line[n] == '.') {
 3865              		.loc 1 378 0
 3866 16d4 09208AE2 		add	r2, r10, #9
 3867              	.LVL397:
 3868 16d8 4300000A 		beq	.L383
 379:../src/tensorflow_lite/src/tensorflow/lite/micro/memory_planner/greedy_memory_planner.cpp ****           line[n] = GetOrdinalCharacter(i);
 3869              		.loc 1 379 0
 3870 16dc 80E08DE2 		add	lr, sp, #128
 3871 16e0 02208EE0 		add	r2, lr, r2
 3872              	.LVL398:
 3873 16e4 54E052E5 		ldrb	lr, [r2, #-84]	@ zero_extendqisi2
 3874 16e8 2E005EE3 		cmp	lr, #46
 382:../src/tensorflow_lite/src/tensorflow/lite/micro/memory_planner/greedy_memory_planner.cpp ****         }
 3875              		.loc 1 382 0
 3876 16ec 21E0A013 		movne	lr, #33
 380:../src/tensorflow_lite/src/tensorflow/lite/micro/memory_planner/greedy_memory_planner.cpp ****         } else {
 3877              		.loc 1 380 0
 3878 16f0 54704205 		strbeq	r7, [r2, #-84]
 382:../src/tensorflow_lite/src/tensorflow/lite/micro/memory_planner/greedy_memory_planner.cpp ****         }
 3879              		.loc 1 382 0
 3880 16f4 54E04215 		strbne	lr, [r2, #-84]
 3881 16f8 0A0051E3 		cmp	r1, #10
 378:../src/tensorflow_lite/src/tensorflow/lite/micro/memory_planner/greedy_memory_planner.cpp ****         if (line[n] == '.') {
 3882              		.loc 1 378 0
 3883 16fc 0A208AE2 		add	r2, r10, #10
 3884              	.LVL399:
 3885 1700 3900000A 		beq	.L383
 379:../src/tensorflow_lite/src/tensorflow/lite/micro/memory_planner/greedy_memory_planner.cpp ****           line[n] = GetOrdinalCharacter(i);
 3886              		.loc 1 379 0
 3887 1704 80E08DE2 		add	lr, sp, #128
 3888 1708 02208EE0 		add	r2, lr, r2
 3889              	.LVL400:
 3890 170c 54E052E5 		ldrb	lr, [r2, #-84]	@ zero_extendqisi2
 3891 1710 2E005EE3 		cmp	lr, #46
 382:../src/tensorflow_lite/src/tensorflow/lite/micro/memory_planner/greedy_memory_planner.cpp ****         }
 3892              		.loc 1 382 0
 3893 1714 21E0A013 		movne	lr, #33
 380:../src/tensorflow_lite/src/tensorflow/lite/micro/memory_planner/greedy_memory_planner.cpp ****         } else {
 3894              		.loc 1 380 0
 3895 1718 54704205 		strbeq	r7, [r2, #-84]
 382:../src/tensorflow_lite/src/tensorflow/lite/micro/memory_planner/greedy_memory_planner.cpp ****         }
 3896              		.loc 1 382 0
 3897 171c 54E04215 		strbne	lr, [r2, #-84]
 3898 1720 0B0051E3 		cmp	r1, #11
 378:../src/tensorflow_lite/src/tensorflow/lite/micro/memory_planner/greedy_memory_planner.cpp ****         if (line[n] == '.') {
 3899              		.loc 1 378 0
 3900 1724 0B208AE2 		add	r2, r10, #11
 3901              	.LVL401:
 3902 1728 2F00000A 		beq	.L383
 379:../src/tensorflow_lite/src/tensorflow/lite/micro/memory_planner/greedy_memory_planner.cpp ****           line[n] = GetOrdinalCharacter(i);
 3903              		.loc 1 379 0
 3904 172c 80E08DE2 		add	lr, sp, #128
 3905 1730 02208EE0 		add	r2, lr, r2
 3906              	.LVL402:
 3907 1734 54E052E5 		ldrb	lr, [r2, #-84]	@ zero_extendqisi2
 3908 1738 2E005EE3 		cmp	lr, #46
 382:../src/tensorflow_lite/src/tensorflow/lite/micro/memory_planner/greedy_memory_planner.cpp ****         }
 3909              		.loc 1 382 0
 3910 173c 21E0A013 		movne	lr, #33
 380:../src/tensorflow_lite/src/tensorflow/lite/micro/memory_planner/greedy_memory_planner.cpp ****         } else {
 3911              		.loc 1 380 0
 3912 1740 54704205 		strbeq	r7, [r2, #-84]
 382:../src/tensorflow_lite/src/tensorflow/lite/micro/memory_planner/greedy_memory_planner.cpp ****         }
 3913              		.loc 1 382 0
 3914 1744 54E04215 		strbne	lr, [r2, #-84]
 3915 1748 0C0051E3 		cmp	r1, #12
 378:../src/tensorflow_lite/src/tensorflow/lite/micro/memory_planner/greedy_memory_planner.cpp ****         if (line[n] == '.') {
 3916              		.loc 1 378 0
 3917 174c 0C208AE2 		add	r2, r10, #12
 3918              	.LVL403:
 3919 1750 2500000A 		beq	.L383
 379:../src/tensorflow_lite/src/tensorflow/lite/micro/memory_planner/greedy_memory_planner.cpp ****           line[n] = GetOrdinalCharacter(i);
 3920              		.loc 1 379 0
 3921 1754 80E08DE2 		add	lr, sp, #128
 3922 1758 02208EE0 		add	r2, lr, r2
 3923              	.LVL404:
 3924 175c 54E052E5 		ldrb	lr, [r2, #-84]	@ zero_extendqisi2
 3925 1760 2E005EE3 		cmp	lr, #46
 382:../src/tensorflow_lite/src/tensorflow/lite/micro/memory_planner/greedy_memory_planner.cpp ****         }
 3926              		.loc 1 382 0
 3927 1764 21E0A013 		movne	lr, #33
 380:../src/tensorflow_lite/src/tensorflow/lite/micro/memory_planner/greedy_memory_planner.cpp ****         } else {
 3928              		.loc 1 380 0
 3929 1768 54704205 		strbeq	r7, [r2, #-84]
 382:../src/tensorflow_lite/src/tensorflow/lite/micro/memory_planner/greedy_memory_planner.cpp ****         }
 3930              		.loc 1 382 0
 3931 176c 54E04215 		strbne	lr, [r2, #-84]
 3932 1770 0D0051E3 		cmp	r1, #13
 378:../src/tensorflow_lite/src/tensorflow/lite/micro/memory_planner/greedy_memory_planner.cpp ****         if (line[n] == '.') {
 3933              		.loc 1 378 0
 3934 1774 0D208AE2 		add	r2, r10, #13
 3935              	.LVL405:
 3936 1778 1B00000A 		beq	.L383
 379:../src/tensorflow_lite/src/tensorflow/lite/micro/memory_planner/greedy_memory_planner.cpp ****           line[n] = GetOrdinalCharacter(i);
 3937              		.loc 1 379 0
 3938 177c 80E08DE2 		add	lr, sp, #128
 3939 1780 02208EE0 		add	r2, lr, r2
 3940              	.LVL406:
 3941 1784 54E052E5 		ldrb	lr, [r2, #-84]	@ zero_extendqisi2
 3942 1788 2E005EE3 		cmp	lr, #46
 382:../src/tensorflow_lite/src/tensorflow/lite/micro/memory_planner/greedy_memory_planner.cpp ****         }
 3943              		.loc 1 382 0
 3944 178c 21E0A013 		movne	lr, #33
 380:../src/tensorflow_lite/src/tensorflow/lite/micro/memory_planner/greedy_memory_planner.cpp ****         } else {
 3945              		.loc 1 380 0
 3946 1790 54704205 		strbeq	r7, [r2, #-84]
 382:../src/tensorflow_lite/src/tensorflow/lite/micro/memory_planner/greedy_memory_planner.cpp ****         }
 3947              		.loc 1 382 0
 3948 1794 54E04215 		strbne	lr, [r2, #-84]
 3949 1798 0E0051E3 		cmp	r1, #14
 378:../src/tensorflow_lite/src/tensorflow/lite/micro/memory_planner/greedy_memory_planner.cpp ****         if (line[n] == '.') {
 3950              		.loc 1 378 0
 3951 179c 0E208AE2 		add	r2, r10, #14
 3952              	.LVL407:
 3953 17a0 1100000A 		beq	.L383
 379:../src/tensorflow_lite/src/tensorflow/lite/micro/memory_planner/greedy_memory_planner.cpp ****           line[n] = GetOrdinalCharacter(i);
 3954              		.loc 1 379 0
 3955 17a4 80E08DE2 		add	lr, sp, #128
 3956 17a8 02208EE0 		add	r2, lr, r2
 3957              	.LVL408:
 3958 17ac 54E052E5 		ldrb	lr, [r2, #-84]	@ zero_extendqisi2
 3959 17b0 2E005EE3 		cmp	lr, #46
 382:../src/tensorflow_lite/src/tensorflow/lite/micro/memory_planner/greedy_memory_planner.cpp ****         }
 3960              		.loc 1 382 0
 3961 17b4 21E0A013 		movne	lr, #33
 380:../src/tensorflow_lite/src/tensorflow/lite/micro/memory_planner/greedy_memory_planner.cpp ****         } else {
 3962              		.loc 1 380 0
 3963 17b8 54704205 		strbeq	r7, [r2, #-84]
 382:../src/tensorflow_lite/src/tensorflow/lite/micro/memory_planner/greedy_memory_planner.cpp ****         }
 3964              		.loc 1 382 0
 3965 17bc 54E04215 		strbne	lr, [r2, #-84]
 3966 17c0 0F0051E3 		cmp	r1, #15
 378:../src/tensorflow_lite/src/tensorflow/lite/micro/memory_planner/greedy_memory_planner.cpp ****         if (line[n] == '.') {
 3967              		.loc 1 378 0
 3968 17c4 0F208AE2 		add	r2, r10, #15
 3969              	.LVL409:
 3970 17c8 0700000A 		beq	.L383
 379:../src/tensorflow_lite/src/tensorflow/lite/micro/memory_planner/greedy_memory_planner.cpp ****           line[n] = GetOrdinalCharacter(i);
 3971              		.loc 1 379 0
 3972 17cc 80E08DE2 		add	lr, sp, #128
 3973 17d0 02208EE0 		add	r2, lr, r2
 3974              	.LVL410:
 3975 17d4 54E052E5 		ldrb	lr, [r2, #-84]	@ zero_extendqisi2
 3976 17d8 2E005EE3 		cmp	lr, #46
 382:../src/tensorflow_lite/src/tensorflow/lite/micro/memory_planner/greedy_memory_planner.cpp ****         }
 3977              		.loc 1 382 0
 3978 17dc 21E0A013 		movne	lr, #33
 3979 17e0 54E04215 		strbne	lr, [r2, #-84]
 379:../src/tensorflow_lite/src/tensorflow/lite/micro/memory_planner/greedy_memory_planner.cpp ****           line[n] = GetOrdinalCharacter(i);
 3980              		.loc 1 379 0
 3981 17e4 EF00000A 		beq	.L730
 3982              	.L414:
 378:../src/tensorflow_lite/src/tensorflow/lite/micro/memory_planner/greedy_memory_planner.cpp ****         if (line[n] == '.') {
 3983              		.loc 1 378 0
 3984 17e8 10208AE2 		add	r2, r10, #16
 3985              	.LVL411:
 3986              	.L383:
 3987 17ec 01005CE1 		cmp	ip, r1
 3988 17f0 3AFCFF0A 		beq	.L159
 3989              	.L380:
 3990 17f4 01404CE0 		sub	r4, ip, r1
 3991              	.LVL412:
 3992 17f8 01C04CE2 		sub	ip, ip, #1
 3993 17fc 10E044E2 		sub	lr, r4, #16
 3994 1800 01C04CE0 		sub	ip, ip, r1
 3995 1804 2EE2A0E1 		lsr	lr, lr, #4
 3996 1808 0E005CE3 		cmp	ip, #14
 3997 180c 01E08EE2 		add	lr, lr, #1
 3998 1810 0EC2A0E1 		lsl	ip, lr, #4
 3999 1814 3700009A 		bls	.L416
 4000 1818 01108AE0 		add	r1, r10, r1
 4001 181c 909BA4EE 		vdup.32	q10, r9
 4002              	.LVL413:
 4003 1820 2CA08DE2 		add	r10, sp, #44
 4004              	.LVL414:
 4005 1824 01005EE3 		cmp	lr, #1
 4006 1828 01108AE0 		add	r1, r10, r1
 4007              	.LBB243:
 4008              	.LBB237:
  29:../src/tensorflow_lite/src/tensorflow/lite/micro/memory_planner/greedy_memory_planner.cpp ****   } else if (i < 36) {
 4009              		.loc 1 29 0
 4010 182c 2482F6F3 		vmovn.i32	d24, q10
 4011 1830 2492F6F3 		vmovn.i32	d25, q10
 4012 1834 2862F2F3 		vmovn.i16	d22, q12
 4013 1838 2872F2F3 		vmovn.i16	d23, q12
 4014              	.LBE237:
 4015              	.LBE243:
 382:../src/tensorflow_lite/src/tensorflow/lite/micro/memory_planner/greedy_memory_planner.cpp ****         }
 4016              		.loc 1 382 0
 4017 183c DF4A61F4 		vld1.64	{d20-d21}, [r1:64]
 4018              	.LBB244:
 4019              	.LBB238:
  29:../src/tensorflow_lite/src/tensorflow/lite/micro/memory_planner/greedy_memory_planner.cpp ****   } else if (i < 36) {
 4020              		.loc 1 29 0
 4021 1840 CE6846F2 		vadd.i8	q11, q11, q7
 4022              	.LBE238:
 4023              	.LBE244:
 382:../src/tensorflow_lite/src/tensorflow/lite/micro/memory_planner/greedy_memory_planner.cpp ****         }
 4024              		.loc 1 382 0
 4025 1844 DC4844F3 		vceq.i8	q10, q10, q6
 4026 1848 DA4156F3 		vbsl	q10, q11, q5
 4027 184c DF4A41F4 		vst1.64	{d20-d21}, [r1:64]
 4028 1850 2500000A 		beq	.L417
 4029 1854 02005EE3 		cmp	lr, #2
 4030 1858 044BD1ED 		vldr	d20, [r1, #16]
 4031 185c 065BD1ED 		vldr	d21, [r1, #24]
 4032 1860 DC4844F3 		vceq.i8	q10, q10, q6
 4033 1864 DA4156F3 		vbsl	q10, q11, q5
 4034 1868 044BC1ED 		vstr	d20, [r1, #16]
 4035 186c 065BC1ED 		vstr	d21, [r1, #24]
 4036 1870 1D00000A 		beq	.L417
 4037 1874 03005EE3 		cmp	lr, #3
 4038 1878 084BD1ED 		vldr	d20, [r1, #32]
 4039 187c 0A5BD1ED 		vldr	d21, [r1, #40]
 4040 1880 DC4844F3 		vceq.i8	q10, q10, q6
 4041 1884 DA4156F3 		vbsl	q10, q11, q5
 4042 1888 084BC1ED 		vstr	d20, [r1, #32]
 4043 188c 0A5BC1ED 		vstr	d21, [r1, #40]
 4044 1890 1500000A 		beq	.L417
 4045 1894 04005EE3 		cmp	lr, #4
 4046 1898 0C4BD1ED 		vldr	d20, [r1, #48]
 4047 189c 0E5BD1ED 		vldr	d21, [r1, #56]
 4048 18a0 DC4844F3 		vceq.i8	q10, q10, q6
 4049 18a4 DA4156F3 		vbsl	q10, q11, q5
 4050 18a8 0C4BC1ED 		vstr	d20, [r1, #48]
 4051 18ac 0E5BC1ED 		vstr	d21, [r1, #56]
 4052 18b0 0D00000A 		beq	.L417
 4053 18b4 05005EE3 		cmp	lr, #5
 4054 18b8 104BD1ED 		vldr	d20, [r1, #64]
 4055 18bc 125BD1ED 		vldr	d21, [r1, #72]
 4056 18c0 DC4844F3 		vceq.i8	q10, q10, q6
 4057 18c4 DA4156F3 		vbsl	q10, q11, q5
 4058 18c8 104BC1ED 		vstr	d20, [r1, #64]
 4059 18cc 125BC1ED 		vstr	d21, [r1, #72]
 4060 18d0 0500000A 		beq	.L417
 4061 18d4 144BD1ED 		vldr	d20, [r1, #80]
 4062 18d8 165BD1ED 		vldr	d21, [r1, #88]
 4063 18dc DC4844F3 		vceq.i8	q10, q10, q6
 4064 18e0 74617AF3 		vbif	q11, q5, q10
 4065 18e4 146BC1ED 		vstr	d22, [r1, #80]
 4066 18e8 167BC1ED 		vstr	d23, [r1, #88]
 4067              	.L417:
 4068 18ec 0C0054E1 		cmp	r4, ip
 4069 18f0 0C2082E0 		add	r2, r2, ip
 4070 18f4 F9FBFF0A 		beq	.L159
 4071              	.L416:
 4072              	.LVL415:
 379:../src/tensorflow_lite/src/tensorflow/lite/micro/memory_planner/greedy_memory_planner.cpp ****           line[n] = GetOrdinalCharacter(i);
 4073              		.loc 1 379 0
 4074 18f8 80108DE2 		add	r1, sp, #128
 4075 18fc 021081E0 		add	r1, r1, r2
 4076 1900 54C051E5 		ldrb	ip, [r1, #-84]	@ zero_extendqisi2
 4077 1904 2E005CE3 		cmp	ip, #46
 382:../src/tensorflow_lite/src/tensorflow/lite/micro/memory_planner/greedy_memory_planner.cpp ****         }
 4078              		.loc 1 382 0
 4079 1908 21C0A013 		movne	ip, #33
 380:../src/tensorflow_lite/src/tensorflow/lite/micro/memory_planner/greedy_memory_planner.cpp ****         } else {
 4080              		.loc 1 380 0
 4081 190c 54704105 		strbeq	r7, [r1, #-84]
 382:../src/tensorflow_lite/src/tensorflow/lite/micro/memory_planner/greedy_memory_planner.cpp ****         }
 4082              		.loc 1 382 0
 4083 1910 54C04115 		strbne	ip, [r1, #-84]
 378:../src/tensorflow_lite/src/tensorflow/lite/micro/memory_planner/greedy_memory_planner.cpp ****         if (line[n] == '.') {
 4084              		.loc 1 378 0
 4085 1914 011082E2 		add	r1, r2, #1
 4086              	.LVL416:
 4087 1918 010050E1 		cmp	r0, r1
 4088 191c EFFBFFDA 		ble	.L159
 379:../src/tensorflow_lite/src/tensorflow/lite/micro/memory_planner/greedy_memory_planner.cpp ****           line[n] = GetOrdinalCharacter(i);
 4089              		.loc 1 379 0
 4090 1920 80C08DE2 		add	ip, sp, #128
 4091 1924 01108CE0 		add	r1, ip, r1
 4092              	.LVL417:
 4093 1928 54C051E5 		ldrb	ip, [r1, #-84]	@ zero_extendqisi2
 4094 192c 2E005CE3 		cmp	ip, #46
 382:../src/tensorflow_lite/src/tensorflow/lite/micro/memory_planner/greedy_memory_planner.cpp ****         }
 4095              		.loc 1 382 0
 4096 1930 21C0A013 		movne	ip, #33
 380:../src/tensorflow_lite/src/tensorflow/lite/micro/memory_planner/greedy_memory_planner.cpp ****         } else {
 4097              		.loc 1 380 0
 4098 1934 54704105 		strbeq	r7, [r1, #-84]
 382:../src/tensorflow_lite/src/tensorflow/lite/micro/memory_planner/greedy_memory_planner.cpp ****         }
 4099              		.loc 1 382 0
 4100 1938 54C04115 		strbne	ip, [r1, #-84]
 378:../src/tensorflow_lite/src/tensorflow/lite/micro/memory_planner/greedy_memory_planner.cpp ****         if (line[n] == '.') {
 4101              		.loc 1 378 0
 4102 193c 021082E2 		add	r1, r2, #2
 4103              	.LVL418:
 4104 1940 010050E1 		cmp	r0, r1
 4105 1944 E5FBFFDA 		ble	.L159
 379:../src/tensorflow_lite/src/tensorflow/lite/micro/memory_planner/greedy_memory_planner.cpp ****           line[n] = GetOrdinalCharacter(i);
 4106              		.loc 1 379 0
 4107 1948 80C08DE2 		add	ip, sp, #128
 4108 194c 01108CE0 		add	r1, ip, r1
 4109              	.LVL419:
 4110 1950 54C051E5 		ldrb	ip, [r1, #-84]	@ zero_extendqisi2
 4111 1954 2E005CE3 		cmp	ip, #46
 382:../src/tensorflow_lite/src/tensorflow/lite/micro/memory_planner/greedy_memory_planner.cpp ****         }
 4112              		.loc 1 382 0
 4113 1958 21C0A013 		movne	ip, #33
 380:../src/tensorflow_lite/src/tensorflow/lite/micro/memory_planner/greedy_memory_planner.cpp ****         } else {
 4114              		.loc 1 380 0
 4115 195c 54704105 		strbeq	r7, [r1, #-84]
 382:../src/tensorflow_lite/src/tensorflow/lite/micro/memory_planner/greedy_memory_planner.cpp ****         }
 4116              		.loc 1 382 0
 4117 1960 54C04115 		strbne	ip, [r1, #-84]
 378:../src/tensorflow_lite/src/tensorflow/lite/micro/memory_planner/greedy_memory_planner.cpp ****         if (line[n] == '.') {
 4118              		.loc 1 378 0
 4119 1964 031082E2 		add	r1, r2, #3
 4120              	.LVL420:
 4121 1968 010050E1 		cmp	r0, r1
 4122 196c DBFBFFDA 		ble	.L159
 379:../src/tensorflow_lite/src/tensorflow/lite/micro/memory_planner/greedy_memory_planner.cpp ****           line[n] = GetOrdinalCharacter(i);
 4123              		.loc 1 379 0
 4124 1970 80C08DE2 		add	ip, sp, #128
 4125 1974 01108CE0 		add	r1, ip, r1
 4126              	.LVL421:
 4127 1978 54C051E5 		ldrb	ip, [r1, #-84]	@ zero_extendqisi2
 4128 197c 2E005CE3 		cmp	ip, #46
 382:../src/tensorflow_lite/src/tensorflow/lite/micro/memory_planner/greedy_memory_planner.cpp ****         }
 4129              		.loc 1 382 0
 4130 1980 21C0A013 		movne	ip, #33
 380:../src/tensorflow_lite/src/tensorflow/lite/micro/memory_planner/greedy_memory_planner.cpp ****         } else {
 4131              		.loc 1 380 0
 4132 1984 54704105 		strbeq	r7, [r1, #-84]
 382:../src/tensorflow_lite/src/tensorflow/lite/micro/memory_planner/greedy_memory_planner.cpp ****         }
 4133              		.loc 1 382 0
 4134 1988 54C04115 		strbne	ip, [r1, #-84]
 378:../src/tensorflow_lite/src/tensorflow/lite/micro/memory_planner/greedy_memory_planner.cpp ****         if (line[n] == '.') {
 4135              		.loc 1 378 0
 4136 198c 041082E2 		add	r1, r2, #4
 4137              	.LVL422:
 4138 1990 010050E1 		cmp	r0, r1
 4139 1994 D1FBFFDA 		ble	.L159
 379:../src/tensorflow_lite/src/tensorflow/lite/micro/memory_planner/greedy_memory_planner.cpp ****           line[n] = GetOrdinalCharacter(i);
 4140              		.loc 1 379 0
 4141 1998 80C08DE2 		add	ip, sp, #128
 4142 199c 01108CE0 		add	r1, ip, r1
 4143              	.LVL423:
 4144 19a0 54C051E5 		ldrb	ip, [r1, #-84]	@ zero_extendqisi2
 4145 19a4 2E005CE3 		cmp	ip, #46
 382:../src/tensorflow_lite/src/tensorflow/lite/micro/memory_planner/greedy_memory_planner.cpp ****         }
 4146              		.loc 1 382 0
 4147 19a8 21C0A013 		movne	ip, #33
 380:../src/tensorflow_lite/src/tensorflow/lite/micro/memory_planner/greedy_memory_planner.cpp ****         } else {
 4148              		.loc 1 380 0
 4149 19ac 54704105 		strbeq	r7, [r1, #-84]
 382:../src/tensorflow_lite/src/tensorflow/lite/micro/memory_planner/greedy_memory_planner.cpp ****         }
 4150              		.loc 1 382 0
 4151 19b0 54C04115 		strbne	ip, [r1, #-84]
 378:../src/tensorflow_lite/src/tensorflow/lite/micro/memory_planner/greedy_memory_planner.cpp ****         if (line[n] == '.') {
 4152              		.loc 1 378 0
 4153 19b4 051082E2 		add	r1, r2, #5
 4154              	.LVL424:
 4155 19b8 010050E1 		cmp	r0, r1
 4156 19bc C7FBFFDA 		ble	.L159
 379:../src/tensorflow_lite/src/tensorflow/lite/micro/memory_planner/greedy_memory_planner.cpp ****           line[n] = GetOrdinalCharacter(i);
 4157              		.loc 1 379 0
 4158 19c0 80C08DE2 		add	ip, sp, #128
 4159 19c4 01108CE0 		add	r1, ip, r1
 4160              	.LVL425:
 4161 19c8 54C051E5 		ldrb	ip, [r1, #-84]	@ zero_extendqisi2
 4162 19cc 2E005CE3 		cmp	ip, #46
 382:../src/tensorflow_lite/src/tensorflow/lite/micro/memory_planner/greedy_memory_planner.cpp ****         }
 4163              		.loc 1 382 0
 4164 19d0 21C0A013 		movne	ip, #33
 380:../src/tensorflow_lite/src/tensorflow/lite/micro/memory_planner/greedy_memory_planner.cpp ****         } else {
 4165              		.loc 1 380 0
 4166 19d4 54704105 		strbeq	r7, [r1, #-84]
 382:../src/tensorflow_lite/src/tensorflow/lite/micro/memory_planner/greedy_memory_planner.cpp ****         }
 4167              		.loc 1 382 0
 4168 19d8 54C04115 		strbne	ip, [r1, #-84]
 378:../src/tensorflow_lite/src/tensorflow/lite/micro/memory_planner/greedy_memory_planner.cpp ****         if (line[n] == '.') {
 4169              		.loc 1 378 0
 4170 19dc 061082E2 		add	r1, r2, #6
 4171              	.LVL426:
 4172 19e0 010050E1 		cmp	r0, r1
 4173 19e4 BDFBFFDA 		ble	.L159
 379:../src/tensorflow_lite/src/tensorflow/lite/micro/memory_planner/greedy_memory_planner.cpp ****           line[n] = GetOrdinalCharacter(i);
 4174              		.loc 1 379 0
 4175 19e8 80C08DE2 		add	ip, sp, #128
 4176 19ec 01108CE0 		add	r1, ip, r1
 4177              	.LVL427:
 4178 19f0 54C051E5 		ldrb	ip, [r1, #-84]	@ zero_extendqisi2
 4179 19f4 2E005CE3 		cmp	ip, #46
 382:../src/tensorflow_lite/src/tensorflow/lite/micro/memory_planner/greedy_memory_planner.cpp ****         }
 4180              		.loc 1 382 0
 4181 19f8 21C0A013 		movne	ip, #33
 380:../src/tensorflow_lite/src/tensorflow/lite/micro/memory_planner/greedy_memory_planner.cpp ****         } else {
 4182              		.loc 1 380 0
 4183 19fc 54704105 		strbeq	r7, [r1, #-84]
 382:../src/tensorflow_lite/src/tensorflow/lite/micro/memory_planner/greedy_memory_planner.cpp ****         }
 4184              		.loc 1 382 0
 4185 1a00 54C04115 		strbne	ip, [r1, #-84]
 378:../src/tensorflow_lite/src/tensorflow/lite/micro/memory_planner/greedy_memory_planner.cpp ****         if (line[n] == '.') {
 4186              		.loc 1 378 0
 4187 1a04 071082E2 		add	r1, r2, #7
 4188              	.LVL428:
 4189 1a08 010050E1 		cmp	r0, r1
 4190 1a0c B3FBFFDA 		ble	.L159
 379:../src/tensorflow_lite/src/tensorflow/lite/micro/memory_planner/greedy_memory_planner.cpp ****           line[n] = GetOrdinalCharacter(i);
 4191              		.loc 1 379 0
 4192 1a10 80C08DE2 		add	ip, sp, #128
 4193 1a14 01108CE0 		add	r1, ip, r1
 4194              	.LVL429:
 4195 1a18 54C051E5 		ldrb	ip, [r1, #-84]	@ zero_extendqisi2
 4196 1a1c 2E005CE3 		cmp	ip, #46
 382:../src/tensorflow_lite/src/tensorflow/lite/micro/memory_planner/greedy_memory_planner.cpp ****         }
 4197              		.loc 1 382 0
 4198 1a20 21C0A013 		movne	ip, #33
 380:../src/tensorflow_lite/src/tensorflow/lite/micro/memory_planner/greedy_memory_planner.cpp ****         } else {
 4199              		.loc 1 380 0
 4200 1a24 54704105 		strbeq	r7, [r1, #-84]
 382:../src/tensorflow_lite/src/tensorflow/lite/micro/memory_planner/greedy_memory_planner.cpp ****         }
 4201              		.loc 1 382 0
 4202 1a28 54C04115 		strbne	ip, [r1, #-84]
 378:../src/tensorflow_lite/src/tensorflow/lite/micro/memory_planner/greedy_memory_planner.cpp ****         if (line[n] == '.') {
 4203              		.loc 1 378 0
 4204 1a2c 081082E2 		add	r1, r2, #8
 4205              	.LVL430:
 4206 1a30 010050E1 		cmp	r0, r1
 4207 1a34 A9FBFFDA 		ble	.L159
 379:../src/tensorflow_lite/src/tensorflow/lite/micro/memory_planner/greedy_memory_planner.cpp ****           line[n] = GetOrdinalCharacter(i);
 4208              		.loc 1 379 0
 4209 1a38 80C08DE2 		add	ip, sp, #128
 4210 1a3c 01108CE0 		add	r1, ip, r1
 4211              	.LVL431:
 4212 1a40 54C051E5 		ldrb	ip, [r1, #-84]	@ zero_extendqisi2
 4213 1a44 2E005CE3 		cmp	ip, #46
 382:../src/tensorflow_lite/src/tensorflow/lite/micro/memory_planner/greedy_memory_planner.cpp ****         }
 4214              		.loc 1 382 0
 4215 1a48 21C0A013 		movne	ip, #33
 380:../src/tensorflow_lite/src/tensorflow/lite/micro/memory_planner/greedy_memory_planner.cpp ****         } else {
 4216              		.loc 1 380 0
 4217 1a4c 54704105 		strbeq	r7, [r1, #-84]
 382:../src/tensorflow_lite/src/tensorflow/lite/micro/memory_planner/greedy_memory_planner.cpp ****         }
 4218              		.loc 1 382 0
 4219 1a50 54C04115 		strbne	ip, [r1, #-84]
 378:../src/tensorflow_lite/src/tensorflow/lite/micro/memory_planner/greedy_memory_planner.cpp ****         if (line[n] == '.') {
 4220              		.loc 1 378 0
 4221 1a54 091082E2 		add	r1, r2, #9
 4222              	.LVL432:
 4223 1a58 010050E1 		cmp	r0, r1
 4224 1a5c 9FFBFFDA 		ble	.L159
 379:../src/tensorflow_lite/src/tensorflow/lite/micro/memory_planner/greedy_memory_planner.cpp ****           line[n] = GetOrdinalCharacter(i);
 4225              		.loc 1 379 0
 4226 1a60 80C08DE2 		add	ip, sp, #128
 4227 1a64 01108CE0 		add	r1, ip, r1
 4228              	.LVL433:
 4229 1a68 54C051E5 		ldrb	ip, [r1, #-84]	@ zero_extendqisi2
 4230 1a6c 2E005CE3 		cmp	ip, #46
 382:../src/tensorflow_lite/src/tensorflow/lite/micro/memory_planner/greedy_memory_planner.cpp ****         }
 4231              		.loc 1 382 0
 4232 1a70 21C0A013 		movne	ip, #33
 380:../src/tensorflow_lite/src/tensorflow/lite/micro/memory_planner/greedy_memory_planner.cpp ****         } else {
 4233              		.loc 1 380 0
 4234 1a74 54704105 		strbeq	r7, [r1, #-84]
 382:../src/tensorflow_lite/src/tensorflow/lite/micro/memory_planner/greedy_memory_planner.cpp ****         }
 4235              		.loc 1 382 0
 4236 1a78 54C04115 		strbne	ip, [r1, #-84]
 378:../src/tensorflow_lite/src/tensorflow/lite/micro/memory_planner/greedy_memory_planner.cpp ****         if (line[n] == '.') {
 4237              		.loc 1 378 0
 4238 1a7c 0A1082E2 		add	r1, r2, #10
 4239              	.LVL434:
 4240 1a80 010050E1 		cmp	r0, r1
 4241 1a84 95FBFFDA 		ble	.L159
 379:../src/tensorflow_lite/src/tensorflow/lite/micro/memory_planner/greedy_memory_planner.cpp ****           line[n] = GetOrdinalCharacter(i);
 4242              		.loc 1 379 0
 4243 1a88 80C08DE2 		add	ip, sp, #128
 4244 1a8c 01108CE0 		add	r1, ip, r1
 4245              	.LVL435:
 4246 1a90 54C051E5 		ldrb	ip, [r1, #-84]	@ zero_extendqisi2
 4247 1a94 2E005CE3 		cmp	ip, #46
 382:../src/tensorflow_lite/src/tensorflow/lite/micro/memory_planner/greedy_memory_planner.cpp ****         }
 4248              		.loc 1 382 0
 4249 1a98 21C0A013 		movne	ip, #33
 380:../src/tensorflow_lite/src/tensorflow/lite/micro/memory_planner/greedy_memory_planner.cpp ****         } else {
 4250              		.loc 1 380 0
 4251 1a9c 54704105 		strbeq	r7, [r1, #-84]
 382:../src/tensorflow_lite/src/tensorflow/lite/micro/memory_planner/greedy_memory_planner.cpp ****         }
 4252              		.loc 1 382 0
 4253 1aa0 54C04115 		strbne	ip, [r1, #-84]
 378:../src/tensorflow_lite/src/tensorflow/lite/micro/memory_planner/greedy_memory_planner.cpp ****         if (line[n] == '.') {
 4254              		.loc 1 378 0
 4255 1aa4 0B1082E2 		add	r1, r2, #11
 4256              	.LVL436:
 4257 1aa8 010050E1 		cmp	r0, r1
 4258 1aac 8BFBFFDA 		ble	.L159
 379:../src/tensorflow_lite/src/tensorflow/lite/micro/memory_planner/greedy_memory_planner.cpp ****           line[n] = GetOrdinalCharacter(i);
 4259              		.loc 1 379 0
 4260 1ab0 80C08DE2 		add	ip, sp, #128
 4261 1ab4 01108CE0 		add	r1, ip, r1
 4262              	.LVL437:
 4263 1ab8 54C051E5 		ldrb	ip, [r1, #-84]	@ zero_extendqisi2
 4264 1abc 2E005CE3 		cmp	ip, #46
 382:../src/tensorflow_lite/src/tensorflow/lite/micro/memory_planner/greedy_memory_planner.cpp ****         }
 4265              		.loc 1 382 0
 4266 1ac0 21C0A013 		movne	ip, #33
 380:../src/tensorflow_lite/src/tensorflow/lite/micro/memory_planner/greedy_memory_planner.cpp ****         } else {
 4267              		.loc 1 380 0
 4268 1ac4 54704105 		strbeq	r7, [r1, #-84]
 382:../src/tensorflow_lite/src/tensorflow/lite/micro/memory_planner/greedy_memory_planner.cpp ****         }
 4269              		.loc 1 382 0
 4270 1ac8 54C04115 		strbne	ip, [r1, #-84]
 378:../src/tensorflow_lite/src/tensorflow/lite/micro/memory_planner/greedy_memory_planner.cpp ****         if (line[n] == '.') {
 4271              		.loc 1 378 0
 4272 1acc 0C1082E2 		add	r1, r2, #12
 4273              	.LVL438:
 4274 1ad0 010050E1 		cmp	r0, r1
 4275 1ad4 81FBFFDA 		ble	.L159
 379:../src/tensorflow_lite/src/tensorflow/lite/micro/memory_planner/greedy_memory_planner.cpp ****           line[n] = GetOrdinalCharacter(i);
 4276              		.loc 1 379 0
 4277 1ad8 80C08DE2 		add	ip, sp, #128
 4278 1adc 01108CE0 		add	r1, ip, r1
 4279              	.LVL439:
 4280 1ae0 54C051E5 		ldrb	ip, [r1, #-84]	@ zero_extendqisi2
 4281 1ae4 2E005CE3 		cmp	ip, #46
 382:../src/tensorflow_lite/src/tensorflow/lite/micro/memory_planner/greedy_memory_planner.cpp ****         }
 4282              		.loc 1 382 0
 4283 1ae8 21C0A013 		movne	ip, #33
 380:../src/tensorflow_lite/src/tensorflow/lite/micro/memory_planner/greedy_memory_planner.cpp ****         } else {
 4284              		.loc 1 380 0
 4285 1aec 54704105 		strbeq	r7, [r1, #-84]
 382:../src/tensorflow_lite/src/tensorflow/lite/micro/memory_planner/greedy_memory_planner.cpp ****         }
 4286              		.loc 1 382 0
 4287 1af0 54C04115 		strbne	ip, [r1, #-84]
 378:../src/tensorflow_lite/src/tensorflow/lite/micro/memory_planner/greedy_memory_planner.cpp ****         if (line[n] == '.') {
 4288              		.loc 1 378 0
 4289 1af4 0D1082E2 		add	r1, r2, #13
 4290              	.LVL440:
 4291 1af8 010050E1 		cmp	r0, r1
 4292 1afc 77FBFFDA 		ble	.L159
 379:../src/tensorflow_lite/src/tensorflow/lite/micro/memory_planner/greedy_memory_planner.cpp ****           line[n] = GetOrdinalCharacter(i);
 4293              		.loc 1 379 0
 4294 1b00 80C08DE2 		add	ip, sp, #128
 378:../src/tensorflow_lite/src/tensorflow/lite/micro/memory_planner/greedy_memory_planner.cpp ****         if (line[n] == '.') {
 4295              		.loc 1 378 0
 4296 1b04 0E2082E2 		add	r2, r2, #14
 379:../src/tensorflow_lite/src/tensorflow/lite/micro/memory_planner/greedy_memory_planner.cpp ****           line[n] = GetOrdinalCharacter(i);
 4297              		.loc 1 379 0
 4298 1b08 01108CE0 		add	r1, ip, r1
 4299              	.LVL441:
 4300 1b0c 54C051E5 		ldrb	ip, [r1, #-84]	@ zero_extendqisi2
 4301 1b10 2E005CE3 		cmp	ip, #46
 382:../src/tensorflow_lite/src/tensorflow/lite/micro/memory_planner/greedy_memory_planner.cpp ****         }
 4302              		.loc 1 382 0
 4303 1b14 21C0A013 		movne	ip, #33
 380:../src/tensorflow_lite/src/tensorflow/lite/micro/memory_planner/greedy_memory_planner.cpp ****         } else {
 4304              		.loc 1 380 0
 4305 1b18 54704105 		strbeq	r7, [r1, #-84]
 382:../src/tensorflow_lite/src/tensorflow/lite/micro/memory_planner/greedy_memory_planner.cpp ****         }
 4306              		.loc 1 382 0
 4307 1b1c 54C04115 		strbne	ip, [r1, #-84]
 4308              	.LVL442:
 378:../src/tensorflow_lite/src/tensorflow/lite/micro/memory_planner/greedy_memory_planner.cpp ****         if (line[n] == '.') {
 4309              		.loc 1 378 0
 4310 1b20 020050E1 		cmp	r0, r2
 4311 1b24 6DFBFFDA 		ble	.L159
 379:../src/tensorflow_lite/src/tensorflow/lite/micro/memory_planner/greedy_memory_planner.cpp ****           line[n] = GetOrdinalCharacter(i);
 4312              		.loc 1 379 0
 4313 1b28 80108DE2 		add	r1, sp, #128
 4314 1b2c 022081E0 		add	r2, r1, r2
 4315              	.LVL443:
 4316 1b30 541052E5 		ldrb	r1, [r2, #-84]	@ zero_extendqisi2
 4317 1b34 2E0051E3 		cmp	r1, #46
 380:../src/tensorflow_lite/src/tensorflow/lite/micro/memory_planner/greedy_memory_planner.cpp ****         } else {
 4318              		.loc 1 380 0
 4319 1b38 54704205 		strbeq	r7, [r2, #-84]
 379:../src/tensorflow_lite/src/tensorflow/lite/micro/memory_planner/greedy_memory_planner.cpp ****           line[n] = GetOrdinalCharacter(i);
 4320              		.loc 1 379 0
 4321 1b3c 0EFDFF1A 		bne	.L721
 4322 1b40 66FBFFEA 		b	.L159
 4323              	.LVL444:
 4324              	.L459:
 378:../src/tensorflow_lite/src/tensorflow/lite/micro/memory_planner/greedy_memory_planner.cpp ****         if (line[n] == '.') {
 4325              		.loc 1 378 0
 4326 1b44 0A10A0E1 		mov	r1, r10
 4327 1b48 96FAFFEA 		b	.L162
 4328              	.LVL445:
 4329              	.L138:
 4330              	.LBE248:
 4331              	.LBE254:
 4332              	.LBE257:
 4333              	.LBE261:
 4334              	.LBE265:
 391:../src/tensorflow_lite/src/tensorflow/lite/micro/memory_planner/greedy_memory_planner.cpp **** 
 4335              		.loc 1 391 0
 4336 1b4c 84D08DE2 		add	sp, sp, #132
 4337              		.cfi_remember_state
 4338              		.cfi_def_cfa_offset 100
 4339              		@ sp needed
 4340 1b50 108BBDEC 		vldm	sp!, {d8-d15}
 4341              		.cfi_restore 94
 4342              		.cfi_restore 95
 4343              		.cfi_restore 92
 4344              		.cfi_restore 93
 4345              		.cfi_restore 90
 4346              		.cfi_restore 91
 4347              		.cfi_restore 88
 4348              		.cfi_restore 89
 4349              		.cfi_restore 86
 4350              		.cfi_restore 87
 4351              		.cfi_restore 84
 4352              		.cfi_restore 85
 4353              		.cfi_restore 82
 4354              		.cfi_restore 83
 4355              		.cfi_restore 80
 4356              		.cfi_restore 81
 4357              		.cfi_def_cfa_offset 36
 4358 1b54 F08FBDE8 		pop	{r4, r5, r6, r7, r8, r9, r10, fp, pc}
 4359              	.LVL446:
 4360              	.L458:
 4361              		.cfi_restore_state
 4362              	.LBB266:
 4363              	.LBB262:
 4364              	.LBB258:
 364:../src/tensorflow_lite/src/tensorflow/lite/micro/memory_planner/greedy_memory_planner.cpp ****       BufferRequirements* requirements = &requirements_[i];
 4365              		.loc 1 364 0
 4366 1b58 0030A0E3 		mov	r3, #0
 4367 1b5c 70FBFFEA 		b	.L158
 4368              	.LVL447:
 4369              	.L460:
 4370              	.LBB255:
 4371              	.LBB249:
 378:../src/tensorflow_lite/src/tensorflow/lite/micro/memory_planner/greedy_memory_planner.cpp ****         if (line[n] == '.') {
 4372              		.loc 1 378 0
 4373 1b60 0A20A0E1 		mov	r2, r10
 4374 1b64 30FCFFEA 		b	.L235
 4375              	.L462:
 4376 1b68 0A20A0E1 		mov	r2, r10
 4377 1b6c 20FFFFEA 		b	.L380
 4378              	.L461:
 4379 1b70 0A20A0E1 		mov	r2, r10
 4380 1b74 A7FDFFEA 		b	.L308
 4381              	.LVL448:
 4382              	.L727:
 4383              	.LBE249:
 4384              	.LBE255:
 4385              	.LBE258:
 4386              	.LBE262:
 4387              	.LBE266:
 4388              	.LBB267:
 4389              	.LBB202:
 4390 1b78 FEFFFFEB 		bl	_ZN6tflite19GreedyMemoryPlanner24CalculateOffsetsIfNeededEv.part.1
 4391              	.LVL449:
 4392              	.LBE202:
 4393              	.LBE267:
 4394              	.LBB268:
 335:../src/tensorflow_lite/src/tensorflow/lite/micro/memory_planner/greedy_memory_planner.cpp ****     MicroPrintf("%c (id=%d): size=%d, offset=%d, first_used=%d last_used=%d",
 4395              		.loc 1 335 0
 4396 1b7c 18609DE5 		ldr	r6, [sp, #24]
 4397 1b80 083096E5 		ldr	r3, [r6, #8]
 4398 1b84 000053E3 		cmp	r3, #0
 4399 1b88 27F9FFCA 		bgt	.L731
 4400              	.LVL450:
 4401              	.L455:
 4402              	.LBE268:
 4403              	.LBB269:
 345:../src/tensorflow_lite/src/tensorflow/lite/micro/memory_planner/greedy_memory_planner.cpp ****     BufferRequirements* requirements = &requirements_[i];
 4404              		.loc 1 345 0
 4405 1b8c 5020A0E3 		mov	r2, #80
 4406 1b90 14208DE5 		str	r2, [sp, #20]
 4407 1b94 0020A0E3 		mov	r2, #0
 4408 1b98 24208DE5 		str	r2, [sp, #36]
 4409 1b9c A0F9FFEA 		b	.L140
 4410              	.LVL451:
 4411              	.L728:
 4412              	.LBE269:
 4413              	.LBB270:
 4414              	.LBB263:
 4415              	.LBB259:
 4416              	.LBB256:
 4417              	.LBB250:
 380:../src/tensorflow_lite/src/tensorflow/lite/micro/memory_planner/greedy_memory_planner.cpp ****         } else {
 4418              		.loc 1 380 0
 4419 1ba0 546042E5 		strb	r6, [r2, #-84]
 4420 1ba4 1DFCFFEA 		b	.L269
 4421              	.LVL452:
 4422              	.L730:
 4423 1ba8 547042E5 		strb	r7, [r2, #-84]
 4424 1bac 0DFFFFEA 		b	.L414
 4425              	.LVL453:
 4426              	.L729:
 4427 1bb0 545042E5 		strb	r5, [r2, #-84]
 4428 1bb4 94FDFFEA 		b	.L342
 4429              	.LVL454:
 4430              	.L148:
 4431 1bb8 080053E3 		cmp	r3, #8
 4432 1bbc 650000DA 		ble	.L457
 4433 1bc0 097043E2 		sub	r7, r3, #9
 4434              	.LBE250:
 4435              	.LBE256:
 4436              	.LBE259:
 4437              	.LBE263:
 4438              	.LBE270:
 4439              	.LBB271:
 345:../src/tensorflow_lite/src/tensorflow/lite/micro/memory_planner/greedy_memory_planner.cpp ****     BufferRequirements* requirements = &requirements_[i];
 4440              		.loc 1 345 0
 4441 1bc4 5020A0E3 		mov	r2, #80
 4442 1bc8 0770C7E3 		bic	r7, r7, #7
 4443 1bcc 0E10A0E1 		mov	r1, lr
 4444 1bd0 087087E2 		add	r7, r7, #8
 4445 1bd4 0560A0E1 		mov	r6, r5
 4446 1bd8 43CF84E2 		add	ip, r4, #268
 4447 1bdc 0200A0E1 		mov	r0, r2
 4448              	.LVL455:
 4449              	.L156:
 4450              	.LBB216:
 349:../src/tensorflow_lite/src/tensorflow/lite/micro/memory_planner/greedy_memory_planner.cpp ****     if (size > max_size) {
 4451              		.loc 1 349 0
 4452 1be0 00A096E5 		ldr	r10, [r6]
 4453 1be4 08E08EE2 		add	lr, lr, #8
 4454              	.LVL456:
 4455 1be8 FC901CE5 		ldr	r9, [ip, #-252]
 4456 1bec 206086E2 		add	r6, r6, #32
 4457              	.LVL457:
 4458 1bf0 0C811CE5 		ldr	r8, [ip, #-268]
 4459 1bf4 1C2016E5 		ldr	r2, [r6, #-28]
 4460 1bf8 CCB01CE5 		ldr	fp, [ip, #-204]
 4461 1bfc 08808AE0 		add	r8, r10, r8
 4462 1c00 ECA01CE5 		ldr	r10, [ip, #-236]
 4463              	.LVL458:
 4464 1c04 092082E0 		add	r2, r2, r9
 4465 1c08 189016E5 		ldr	r9, [r6, #-24]
 4466 1c0c 020058E1 		cmp	r8, r2
 4467 1c10 00F0DCF5 		pld	[ip]
 4468 1c14 0820A0A1 		movge	r2, r8
 4469 1c18 148016E5 		ldr	r8, [r6, #-20]
 4470 1c1c 09A08AE0 		add	r10, r10, r9
 4471 1c20 DC901CE5 		ldr	r9, [ip, #-220]
 4472 1c24 0A0052E1 		cmp	r2, r10
 4473 1c28 20F0DCF5 		pld	[ip, #32]
 4474 1c2c 0A20A0B1 		movlt	r2, r10
 4475 1c30 0CA016E5 		ldr	r10, [r6, #-12]
 4476 1c34 098088E0 		add	r8, r8, r9
 4477 1c38 109016E5 		ldr	r9, [r6, #-16]
 4478 1c3c 080052E1 		cmp	r2, r8
 4479 1c40 40F0DCF5 		pld	[ip, #64]
 4480 1c44 0820A0B1 		movlt	r2, r8
 4481 1c48 BC801CE5 		ldr	r8, [ip, #-188]
 4482 1c4c 09B08BE0 		add	fp, fp, r9
 4483 1c50 AC901CE5 		ldr	r9, [ip, #-172]
 4484 1c54 0B0052E1 		cmp	r2, fp
 4485 1c58 60F0DCF5 		pld	[ip, #96]
 4486              	.LVL459:
 4487 1c5c 0B20A0B1 		movlt	r2, fp
 4488 1c60 08B016E5 		ldr	fp, [r6, #-8]
 4489 1c64 0A8088E0 		add	r8, r8, r10
 4490 1c68 9CA01CE5 		ldr	r10, [ip, #-156]
 4491 1c6c 080052E1 		cmp	r2, r8
 4492 1c70 80C08CE2 		add	ip, ip, #128
 4493              	.LVL460:
 4494 1c74 0820A0B1 		movlt	r2, r8
 4495 1c78 0B8089E0 		add	r8, r9, fp
 4496 1c7c 04B016E5 		ldr	fp, [r6, #-4]
 4497 1c80 080052E1 		cmp	r2, r8
 4498 1c84 0280A0A1 		movge	r8, r2
 4499 1c88 70911CE5 		ldr	r9, [ip, #-368]
 4500 1c8c 80211CE5 		ldr	r2, [ip, #-384]
 4501 1c90 0BA08AE0 		add	r10, r10, fp
 4502 1c94 0A0058E1 		cmp	r8, r10
 4503 1c98 0A80A0B1 		movlt	r8, r10
 4504 1c9c 60A11CE5 		ldr	r10, [ip, #-352]
 4505 1ca0 080050E1 		cmp	r0, r8
 4506 1ca4 0800A0B1 		movlt	r0, r8
 4507              	.LVL461:
 4508 1ca8 090052E1 		cmp	r2, r9
 4509 1cac 0920A0B1 		movlt	r2, r9
 4510 1cb0 50911CE5 		ldr	r9, [ip, #-336]
 4511 1cb4 0A0052E1 		cmp	r2, r10
 4512 1cb8 40811CE5 		ldr	r8, [ip, #-320]
 4513 1cbc 0A20A0B1 		movlt	r2, r10
 4514 1cc0 30A11CE5 		ldr	r10, [ip, #-304]
 4515 1cc4 090052E1 		cmp	r2, r9
 4516 1cc8 0920A0B1 		movlt	r2, r9
 4517 1ccc 20911CE5 		ldr	r9, [ip, #-288]
 4518 1cd0 080052E1 		cmp	r2, r8
 4519 1cd4 0820A0B1 		movlt	r2, r8
 4520 1cd8 10811CE5 		ldr	r8, [ip, #-272]
 4521 1cdc 0A0052E1 		cmp	r2, r10
 4522 1ce0 0A20A0B1 		movlt	r2, r10
 4523 1ce4 090052E1 		cmp	r2, r9
 4524 1ce8 0920A0B1 		movlt	r2, r9
 4525 1cec 080052E1 		cmp	r2, r8
 4526 1cf0 0820A0B1 		movlt	r2, r8
 4527 1cf4 020051E1 		cmp	r1, r2
 4528 1cf8 0210A0B1 		movlt	r1, r2
 4529              	.LVL462:
 4530 1cfc 0E0057E1 		cmp	r7, lr
 4531 1d00 B6FFFF1A 		bne	.L156
 4532 1d04 14008DE5 		str	r0, [sp, #20]
 4533 1d08 0100A0E1 		mov	r0, r1
 4534              	.LVL463:
 4535 1d0c 14C09DE5 		ldr	ip, [sp, #20]
 4536              	.LVL464:
 4537 1d10 24108DE5 		str	r1, [sp, #36]
 4538              	.LVL465:
 4539              	.L155:
 4540 1d14 0E5185E0 		add	r5, r5, lr, lsl #2
 4541 1d18 0E1284E0 		add	r1, r4, lr, lsl #4
 4542              	.L157:
 4543              	.LVL466:
 4544 1d1c 0E7294E7 		ldr	r7, [r4, lr, lsl #4]
 347:../src/tensorflow_lite/src/tensorflow/lite/micro/memory_planner/greedy_memory_planner.cpp ****     const int last_time_used = requirements->last_time_used;
 4545              		.loc 1 347 0
 4546 1d20 042095E4 		ldr	r2, [r5], #4
 4547              	.LVL467:
 4548              	.LBE216:
 345:../src/tensorflow_lite/src/tensorflow/lite/micro/memory_planner/greedy_memory_planner.cpp ****     BufferRequirements* requirements = &requirements_[i];
 4549              		.loc 1 345 0
 4550 1d24 01E08EE2 		add	lr, lr, #1
 4551              	.LVL468:
 4552 1d28 0C6091E5 		ldr	r6, [r1, #12]
 4553 1d2c 101081E2 		add	r1, r1, #16
 4554              	.LVL469:
 4555              	.LBB217:
 349:../src/tensorflow_lite/src/tensorflow/lite/micro/memory_planner/greedy_memory_planner.cpp ****     if (size > max_size) {
 4556              		.loc 1 349 0
 4557 1d30 072082E0 		add	r2, r2, r7
 4558              	.LVL470:
 4559 1d34 02005CE1 		cmp	ip, r2
 4560 1d38 02C0A0B1 		movlt	ip, r2
 4561              	.LVL471:
 4562 1d3c 060050E1 		cmp	r0, r6
 4563 1d40 0600A0B1 		movlt	r0, r6
 4564              	.LVL472:
 4565              	.LBE217:
 345:../src/tensorflow_lite/src/tensorflow/lite/micro/memory_planner/greedy_memory_planner.cpp ****     BufferRequirements* requirements = &requirements_[i];
 4566              		.loc 1 345 0
 4567 1d44 0E0053E1 		cmp	r3, lr
 4568 1d48 F3FFFFCA 		bgt	.L157
 4569 1d4c 24008DE5 		str	r0, [sp, #36]
 4570 1d50 14C08DE5 		str	ip, [sp, #20]
 4571 1d54 32F9FFEA 		b	.L140
 4572              	.LVL473:
 4573              	.L457:
 4574 1d58 5020A0E3 		mov	r2, #80
 4575 1d5c 24E08DE5 		str	lr, [sp, #36]
 4576 1d60 14208DE5 		str	r2, [sp, #20]
 4577 1d64 0E00A0E1 		mov	r0, lr
 4578 1d68 02C0A0E1 		mov	ip, r2
 4579 1d6c E8FFFFEA 		b	.L155
 4580              	.LBE271:
 4581              		.cfi_endproc
 4582              	.LFE31:
 4583              		.fnend
 4585              		.section	.text._ZN6tflite19GreedyMemoryPlanner19DoAnyBuffersOverlapEPNS_13ErrorReporterE,"ax",%pro
 4586              		.align	2
 4587              		.global	_ZN6tflite19GreedyMemoryPlanner19DoAnyBuffersOverlapEPNS_13ErrorReporterE
 4588              		.syntax unified
 4589              		.arm
 4590              		.fpu neon
 4592              	_ZN6tflite19GreedyMemoryPlanner19DoAnyBuffersOverlapEPNS_13ErrorReporterE:
 4593              		.fnstart
 4594              	.LFB34:
 407:../src/tensorflow_lite/src/tensorflow/lite/micro/memory_planner/greedy_memory_planner.cpp **** 
 408:../src/tensorflow_lite/src/tensorflow/lite/micro/memory_planner/greedy_memory_planner.cpp **** bool GreedyMemoryPlanner::DoAnyBuffersOverlap(ErrorReporter* error_reporter) {
 4595              		.loc 1 408 0
 4596              		.cfi_startproc
 4597              		@ args = 0, pretend = 0, frame = 8
 4598              		@ frame_needed = 0, uses_anonymous_args = 0
 4599              	.LVL474:
 4600              	.LBB272:
 4601              	.LBB273:
 161:../src/tensorflow_lite/src/tensorflow/lite/micro/memory_planner/greedy_memory_planner.cpp ****     return;
 4602              		.loc 1 161 0
 4603 0000 2830D0E5 		ldrb	r3, [r0, #40]	@ zero_extendqisi2
 4604              	.LBE273:
 4605              	.LBE272:
 4606              		.loc 1 408 0
 4607 0004 F04F2DE9 		push	{r4, r5, r6, r7, r8, r9, r10, fp, lr}
 4608              		.save {r4, r5, r6, r7, r8, r9, r10, fp, lr}
 4609              		.cfi_def_cfa_offset 36
 4610              		.cfi_offset 4, -36
 4611              		.cfi_offset 5, -32
 4612              		.cfi_offset 6, -28
 4613              		.cfi_offset 7, -24
 4614              		.cfi_offset 8, -20
 4615              		.cfi_offset 9, -16
 4616              		.cfi_offset 10, -12
 4617              		.cfi_offset 11, -8
 4618              		.cfi_offset 14, -4
 4619              		.pad #44
 4620 0008 2CD04DE2 		sub	sp, sp, #44
 4621              		.cfi_def_cfa_offset 80
 4622              		.loc 1 408 0
 4623 000c 0060A0E1 		mov	r6, r0
 4624              	.LVL475:
 4625 0010 20108DE5 		str	r1, [sp, #32]
 4626              	.LBB276:
 4627              	.LBB274:
 161:../src/tensorflow_lite/src/tensorflow/lite/micro/memory_planner/greedy_memory_planner.cpp ****     return;
 4628              		.loc 1 161 0
 4629 0014 000053E3 		cmp	r3, #0
 4630 0018 4400001A 		bne	.L747
 4631              	.LVL476:
 4632              	.LBE274:
 4633              	.LBE276:
 4634              	.LBB277:
 409:../src/tensorflow_lite/src/tensorflow/lite/micro/memory_planner/greedy_memory_planner.cpp ****   CalculateOffsetsIfNeeded();
 410:../src/tensorflow_lite/src/tensorflow/lite/micro/memory_planner/greedy_memory_planner.cpp ****   bool were_overlaps_found = false;
 411:../src/tensorflow_lite/src/tensorflow/lite/micro/memory_planner/greedy_memory_planner.cpp ****   for (int i = 0; i < buffer_count_; ++i) {
 4635              		.loc 1 411 0 discriminator 1
 4636 001c 08E096E5 		ldr	lr, [r6, #8]
 4637 0020 00005EE3 		cmp	lr, #0
 4638 0024 450000DA 		ble	.L739
 4639              	.LVL477:
 4640              	.L749:
 4641              		.loc 1 411 0 is_stmt 0
 4642 0028 0050A0E3 		mov	r5, #0
 4643              	.LBB278:
 4644              	.LBB279:
 4645              	.LBB280:
 412:../src/tensorflow_lite/src/tensorflow/lite/micro/memory_planner/greedy_memory_planner.cpp ****     BufferRequirements* a_requirements = &requirements_[i];
 413:../src/tensorflow_lite/src/tensorflow/lite/micro/memory_planner/greedy_memory_planner.cpp ****     const int a_start_offset = buffer_offsets_[i];
 414:../src/tensorflow_lite/src/tensorflow/lite/micro/memory_planner/greedy_memory_planner.cpp ****     const int a_first_time_used = a_requirements->first_time_used;
 415:../src/tensorflow_lite/src/tensorflow/lite/micro/memory_planner/greedy_memory_planner.cpp ****     const int a_last_time_used = a_requirements->last_time_used;
 416:../src/tensorflow_lite/src/tensorflow/lite/micro/memory_planner/greedy_memory_planner.cpp ****     const int a_end_offset = a_start_offset + a_requirements->size;
 417:../src/tensorflow_lite/src/tensorflow/lite/micro/memory_planner/greedy_memory_planner.cpp ****     for (int j = 0; j < buffer_count_; ++j) {
 418:../src/tensorflow_lite/src/tensorflow/lite/micro/memory_planner/greedy_memory_planner.cpp ****       if (i == j) {
 419:../src/tensorflow_lite/src/tensorflow/lite/micro/memory_planner/greedy_memory_planner.cpp ****         continue;
 420:../src/tensorflow_lite/src/tensorflow/lite/micro/memory_planner/greedy_memory_planner.cpp ****       }
 421:../src/tensorflow_lite/src/tensorflow/lite/micro/memory_planner/greedy_memory_planner.cpp ****       BufferRequirements* b_requirements = &requirements_[j];
 422:../src/tensorflow_lite/src/tensorflow/lite/micro/memory_planner/greedy_memory_planner.cpp ****       const int b_start_offset = buffer_offsets_[j];
 423:../src/tensorflow_lite/src/tensorflow/lite/micro/memory_planner/greedy_memory_planner.cpp ****       const int b_first_time_used = b_requirements->first_time_used;
 424:../src/tensorflow_lite/src/tensorflow/lite/micro/memory_planner/greedy_memory_planner.cpp ****       const int b_last_time_used = b_requirements->last_time_used;
 425:../src/tensorflow_lite/src/tensorflow/lite/micro/memory_planner/greedy_memory_planner.cpp ****       const int b_end_offset = b_start_offset + b_requirements->size;
 426:../src/tensorflow_lite/src/tensorflow/lite/micro/memory_planner/greedy_memory_planner.cpp ****       if ((a_first_time_used > b_last_time_used) ||
 427:../src/tensorflow_lite/src/tensorflow/lite/micro/memory_planner/greedy_memory_planner.cpp ****           (b_first_time_used > a_last_time_used)) {
 428:../src/tensorflow_lite/src/tensorflow/lite/micro/memory_planner/greedy_memory_planner.cpp ****         // Buffers don't overlap in time.
 429:../src/tensorflow_lite/src/tensorflow/lite/micro/memory_planner/greedy_memory_planner.cpp ****         continue;
 430:../src/tensorflow_lite/src/tensorflow/lite/micro/memory_planner/greedy_memory_planner.cpp ****       }
 431:../src/tensorflow_lite/src/tensorflow/lite/micro/memory_planner/greedy_memory_planner.cpp ****       if ((a_start_offset >= b_end_offset) ||
 432:../src/tensorflow_lite/src/tensorflow/lite/micro/memory_planner/greedy_memory_planner.cpp ****           (b_start_offset >= a_end_offset)) {
 433:../src/tensorflow_lite/src/tensorflow/lite/micro/memory_planner/greedy_memory_planner.cpp ****         // No overlap in memory.
 434:../src/tensorflow_lite/src/tensorflow/lite/micro/memory_planner/greedy_memory_planner.cpp ****         continue;
 435:../src/tensorflow_lite/src/tensorflow/lite/micro/memory_planner/greedy_memory_planner.cpp ****       }
 436:../src/tensorflow_lite/src/tensorflow/lite/micro/memory_planner/greedy_memory_planner.cpp ****       were_overlaps_found = true;
 437:../src/tensorflow_lite/src/tensorflow/lite/micro/memory_planner/greedy_memory_planner.cpp ****       TF_LITE_REPORT_ERROR(
 4646              		.loc 1 437 0 is_stmt 1
 4647 002c 003000E3 		movw	r3, #:lower16:.LC6
 4648              	.LBE280:
 4649              	.LBE279:
 4650              	.LBE278:
 411:../src/tensorflow_lite/src/tensorflow/lite/micro/memory_planner/greedy_memory_planner.cpp ****     BufferRequirements* a_requirements = &requirements_[i];
 4651              		.loc 1 411 0
 4652 0030 0500A0E1 		mov	r0, r5
 4653              	.LVL478:
 4654              	.LBB287:
 4655              	.LBB284:
 4656              	.LBB281:
 4657              		.loc 1 437 0
 4658 0034 003040E3 		movt	r3, #:upper16:.LC6
 4659 0038 24308DE5 		str	r3, [sp, #36]
 4660              	.LVL479:
 4661              	.L738:
 4662              	.LBE281:
 4663              	.LBE284:
 412:../src/tensorflow_lite/src/tensorflow/lite/micro/memory_planner/greedy_memory_planner.cpp ****     BufferRequirements* a_requirements = &requirements_[i];
 4664              		.loc 1 412 0
 4665 003c 0C3096E5 		ldr	r3, [r6, #12]
 4666              	.LBB285:
 417:../src/tensorflow_lite/src/tensorflow/lite/micro/memory_planner/greedy_memory_planner.cpp ****       if (i == j) {
 4667              		.loc 1 417 0
 4668 0040 00005EE3 		cmp	lr, #0
 4669              	.LBE285:
 413:../src/tensorflow_lite/src/tensorflow/lite/micro/memory_planner/greedy_memory_planner.cpp ****     const int a_first_time_used = a_requirements->first_time_used;
 4670              		.loc 1 413 0
 4671 0044 242096E5 		ldr	r2, [r6, #36]
 416:../src/tensorflow_lite/src/tensorflow/lite/micro/memory_planner/greedy_memory_planner.cpp ****     for (int j = 0; j < buffer_count_; ++j) {
 4672              		.loc 1 416 0
 4673 0048 059293E7 		ldr	r9, [r3, r5, lsl #4]
 413:../src/tensorflow_lite/src/tensorflow/lite/micro/memory_planner/greedy_memory_planner.cpp ****     const int a_first_time_used = a_requirements->first_time_used;
 4674              		.loc 1 413 0
 4675 004c 05A192E7 		ldr	r10, [r2, r5, lsl #2]
 412:../src/tensorflow_lite/src/tensorflow/lite/micro/memory_planner/greedy_memory_planner.cpp ****     const int a_start_offset = buffer_offsets_[i];
 4676              		.loc 1 412 0
 4677 0050 053283E0 		add	r3, r3, r5, lsl #4
 4678              	.LVL480:
 414:../src/tensorflow_lite/src/tensorflow/lite/micro/memory_planner/greedy_memory_planner.cpp ****     const int a_last_time_used = a_requirements->last_time_used;
 4679              		.loc 1 414 0
 4680 0054 087093E5 		ldr	r7, [r3, #8]
 4681              	.LVL481:
 415:../src/tensorflow_lite/src/tensorflow/lite/micro/memory_planner/greedy_memory_planner.cpp ****     const int a_end_offset = a_start_offset + a_requirements->size;
 4682              		.loc 1 415 0
 4683 0058 0C8093E5 		ldr	r8, [r3, #12]
 4684              	.LVL482:
 416:../src/tensorflow_lite/src/tensorflow/lite/micro/memory_planner/greedy_memory_planner.cpp ****     for (int j = 0; j < buffer_count_; ++j) {
 4685              		.loc 1 416 0
 4686 005c 09908AE0 		add	r9, r10, r9
 4687              	.LVL483:
 4688              	.LBB286:
 417:../src/tensorflow_lite/src/tensorflow/lite/micro/memory_planner/greedy_memory_planner.cpp ****       if (i == j) {
 4689              		.loc 1 417 0
 4690 0060 300000DA 		ble	.L734
 4691 0064 0040A0E3 		mov	r4, #0
 4692 0068 020000EA 		b	.L737
 4693              	.LVL484:
 4694              	.L736:
 417:../src/tensorflow_lite/src/tensorflow/lite/micro/memory_planner/greedy_memory_planner.cpp ****       if (i == j) {
 4695              		.loc 1 417 0 is_stmt 0 discriminator 2
 4696 006c 014084E2 		add	r4, r4, #1
 4697              	.LVL485:
 4698 0070 0E0054E1 		cmp	r4, lr
 4699 0074 280000AA 		bge	.L748
 4700              	.LVL486:
 4701              	.L737:
 4702              	.LBB282:
 418:../src/tensorflow_lite/src/tensorflow/lite/micro/memory_planner/greedy_memory_planner.cpp ****         continue;
 4703              		.loc 1 418 0 is_stmt 1
 4704 0078 040055E1 		cmp	r5, r4
 4705 007c FAFFFF0A 		beq	.L736
 421:../src/tensorflow_lite/src/tensorflow/lite/micro/memory_planner/greedy_memory_planner.cpp ****       const int b_start_offset = buffer_offsets_[j];
 4706              		.loc 1 421 0
 4707 0080 0C2096E5 		ldr	r2, [r6, #12]
 4708 0084 043282E0 		add	r3, r2, r4, lsl #4
 4709              	.LVL487:
 423:../src/tensorflow_lite/src/tensorflow/lite/micro/memory_planner/greedy_memory_planner.cpp ****       const int b_last_time_used = b_requirements->last_time_used;
 4710              		.loc 1 423 0
 4711 0088 08C093E5 		ldr	ip, [r3, #8]
 4712              	.LVL488:
 424:../src/tensorflow_lite/src/tensorflow/lite/micro/memory_planner/greedy_memory_planner.cpp ****       const int b_end_offset = b_start_offset + b_requirements->size;
 4713              		.loc 1 424 0
 4714 008c 0C1093E5 		ldr	r1, [r3, #12]
 4715              	.LVL489:
 427:../src/tensorflow_lite/src/tensorflow/lite/micro/memory_planner/greedy_memory_planner.cpp ****         // Buffers don't overlap in time.
 4716              		.loc 1 427 0
 4717 0090 0C0058E1 		cmp	r8, ip
 4718 0094 0030A0A3 		movge	r3, #0
 4719              	.LVL490:
 4720 0098 0130A0B3 		movlt	r3, #1
 426:../src/tensorflow_lite/src/tensorflow/lite/micro/memory_planner/greedy_memory_planner.cpp ****           (b_first_time_used > a_last_time_used)) {
 4721              		.loc 1 426 0
 4722 009c 010057E1 		cmp	r7, r1
 4723 00a0 013083C3 		orrgt	r3, r3, #1
 4724 00a4 000053E3 		cmp	r3, #0
 4725 00a8 EFFFFF1A 		bne	.L736
 422:../src/tensorflow_lite/src/tensorflow/lite/micro/memory_planner/greedy_memory_planner.cpp ****       const int b_first_time_used = b_requirements->first_time_used;
 4726              		.loc 1 422 0
 4727 00ac 24B096E5 		ldr	fp, [r6, #36]
 425:../src/tensorflow_lite/src/tensorflow/lite/micro/memory_planner/greedy_memory_planner.cpp ****       if ((a_first_time_used > b_last_time_used) ||
 4728              		.loc 1 425 0
 4729 00b0 043292E7 		ldr	r3, [r2, r4, lsl #4]
 422:../src/tensorflow_lite/src/tensorflow/lite/micro/memory_planner/greedy_memory_planner.cpp ****       const int b_first_time_used = b_requirements->first_time_used;
 4730              		.loc 1 422 0
 4731 00b4 04219BE7 		ldr	r2, [fp, r4, lsl #2]
 4732              	.LVL491:
 432:../src/tensorflow_lite/src/tensorflow/lite/micro/memory_planner/greedy_memory_planner.cpp ****         // No overlap in memory.
 4733              		.loc 1 432 0
 4734 00b8 020059E1 		cmp	r9, r2
 425:../src/tensorflow_lite/src/tensorflow/lite/micro/memory_planner/greedy_memory_planner.cpp ****       if ((a_first_time_used > b_last_time_used) ||
 4735              		.loc 1 425 0
 4736 00bc 033082E0 		add	r3, r2, r3
 4737              	.LVL492:
 432:../src/tensorflow_lite/src/tensorflow/lite/micro/memory_planner/greedy_memory_planner.cpp ****         // No overlap in memory.
 4738              		.loc 1 432 0
 4739 00c0 00B0A0C3 		movgt	fp, #0
 4740 00c4 01B0A0D3 		movle	fp, #1
 431:../src/tensorflow_lite/src/tensorflow/lite/micro/memory_planner/greedy_memory_planner.cpp ****           (b_start_offset >= a_end_offset)) {
 4741              		.loc 1 431 0
 4742 00c8 03005AE1 		cmp	r10, r3
 4743 00cc 01B08BA3 		orrge	fp, fp, #1
 4744 00d0 00005BE3 		cmp	fp, #0
 4745 00d4 E4FFFF1A 		bne	.L736
 4746              	.LVL493:
 4747              		.loc 1 437 0
 4748 00d8 1C308DE5 		str	r3, [sp, #28]
 4749              	.LVL494:
 4750 00dc 0730A0E1 		mov	r3, r7
 4751 00e0 18208DE5 		str	r2, [sp, #24]
 4752 00e4 0520A0E1 		mov	r2, r5
 4753 00e8 14108DE5 		str	r1, [sp, #20]
 4754 00ec 0C408DE5 		str	r4, [sp, #12]
 4755              	.LBE282:
 417:../src/tensorflow_lite/src/tensorflow/lite/micro/memory_planner/greedy_memory_planner.cpp ****       if (i == j) {
 4756              		.loc 1 417 0
 4757 00f0 014084E2 		add	r4, r4, #1
 4758              	.LVL495:
 4759              	.LBB283:
 4760              		.loc 1 437 0
 4761 00f4 24109DE5 		ldr	r1, [sp, #36]
 4762              	.LVL496:
 4763 00f8 10C08DE5 		str	ip, [sp, #16]
 4764 00fc 20009DE5 		ldr	r0, [sp, #32]
 4765 0100 08908DE5 		str	r9, [sp, #8]
 4766 0104 00058DE8 		stm	sp, {r8, r10}
 4767 0108 FEFFFFEB 		bl	_ZN6tflite13ErrorReporter6ReportEPKcz
 4768              	.LVL497:
 4769 010c 08E096E5 		ldr	lr, [r6, #8]
 436:../src/tensorflow_lite/src/tensorflow/lite/micro/memory_planner/greedy_memory_planner.cpp ****       TF_LITE_REPORT_ERROR(
 4770              		.loc 1 436 0
 4771 0110 0100A0E3 		mov	r0, #1
 4772              	.LVL498:
 4773              	.LBE283:
 417:../src/tensorflow_lite/src/tensorflow/lite/micro/memory_planner/greedy_memory_planner.cpp ****       if (i == j) {
 4774              		.loc 1 417 0
 4775 0114 0E0054E1 		cmp	r4, lr
 4776 0118 D6FFFFBA 		blt	.L737
 4777              	.L748:
 4778              	.LBE286:
 4779              	.LBE287:
 411:../src/tensorflow_lite/src/tensorflow/lite/micro/memory_planner/greedy_memory_planner.cpp ****     BufferRequirements* a_requirements = &requirements_[i];
 4780              		.loc 1 411 0 discriminator 2
 4781 011c 015085E2 		add	r5, r5, #1
 4782              	.LVL499:
 4783 0120 0E0055E1 		cmp	r5, lr
 4784 0124 C4FFFFBA 		blt	.L738
 4785              	.LVL500:
 4786              	.L734:
 4787              	.LBE277:
 438:../src/tensorflow_lite/src/tensorflow/lite/micro/memory_planner/greedy_memory_planner.cpp ****           error_reporter, "Overlap: %d (%d=>%d, %d->%d) vs %d (%d=>%d, %d->%d)",
 439:../src/tensorflow_lite/src/tensorflow/lite/micro/memory_planner/greedy_memory_planner.cpp ****           i, a_first_time_used, a_last_time_used, a_start_offset, a_end_offset,
 440:../src/tensorflow_lite/src/tensorflow/lite/micro/memory_planner/greedy_memory_planner.cpp ****           j, b_first_time_used, b_last_time_used, b_start_offset, b_end_offset);
 441:../src/tensorflow_lite/src/tensorflow/lite/micro/memory_planner/greedy_memory_planner.cpp ****     }
 442:../src/tensorflow_lite/src/tensorflow/lite/micro/memory_planner/greedy_memory_planner.cpp ****   }
 443:../src/tensorflow_lite/src/tensorflow/lite/micro/memory_planner/greedy_memory_planner.cpp ****   return were_overlaps_found;
 444:../src/tensorflow_lite/src/tensorflow/lite/micro/memory_planner/greedy_memory_planner.cpp **** }
 4788              		.loc 1 444 0
 4789 0128 2CD08DE2 		add	sp, sp, #44
 4790              		.cfi_remember_state
 4791              		.cfi_def_cfa_offset 36
 4792              		@ sp needed
 4793 012c F08FBDE8 		pop	{r4, r5, r6, r7, r8, r9, r10, fp, pc}
 4794              	.LVL501:
 4795              	.L747:
 4796              		.cfi_restore_state
 4797              	.LBB288:
 4798              	.LBB275:
 4799 0130 FEFFFFEB 		bl	_ZN6tflite19GreedyMemoryPlanner24CalculateOffsetsIfNeededEv.part.1
 4800              	.LVL502:
 4801              	.LBE275:
 4802              	.LBE288:
 4803              	.LBB289:
 411:../src/tensorflow_lite/src/tensorflow/lite/micro/memory_planner/greedy_memory_planner.cpp ****     BufferRequirements* a_requirements = &requirements_[i];
 4804              		.loc 1 411 0
 4805 0134 08E096E5 		ldr	lr, [r6, #8]
 4806 0138 00005EE3 		cmp	lr, #0
 4807 013c B9FFFFCA 		bgt	.L749
 4808              	.L739:
 4809 0140 0000A0E3 		mov	r0, #0
 4810              	.LVL503:
 4811              	.LBE289:
 4812              		.loc 1 444 0
 4813 0144 2CD08DE2 		add	sp, sp, #44
 4814              		.cfi_def_cfa_offset 36
 4815              		@ sp needed
 4816 0148 F08FBDE8 		pop	{r4, r5, r6, r7, r8, r9, r10, fp, pc}
 4817              		.cfi_endproc
 4818              	.LFE34:
 4819              		.fnend
 4821              		.weak	_ZTSN6tflite13MemoryPlannerE
 4822              		.section	.rodata._ZTSN6tflite13MemoryPlannerE,"aG",%progbits,_ZTSN6tflite13MemoryPlannerE,comdat
 4823              		.align	2
 4826              	_ZTSN6tflite13MemoryPlannerE:
 4827 0000 4E367466 		.ascii	"N6tflite13MemoryPlannerE\000"
 4827      6C697465 
 4827      31334D65 
 4827      6D6F7279 
 4827      506C616E 
 4828              		.weak	_ZTIN6tflite13MemoryPlannerE
 4829              		.section	.rodata._ZTIN6tflite13MemoryPlannerE,"aG",%progbits,_ZTIN6tflite13MemoryPlannerE,comdat
 4830              		.align	2
 4833              	_ZTIN6tflite13MemoryPlannerE:
 4834 0000 08000000 		.word	_ZTVN10__cxxabiv117__class_type_infoE+8
 4835 0004 00000000 		.word	_ZTSN6tflite13MemoryPlannerE
 4836              		.global	_ZTSN6tflite19GreedyMemoryPlannerE
 4837              		.global	_ZTIN6tflite19GreedyMemoryPlannerE
 4838              		.global	_ZTVN6tflite19GreedyMemoryPlannerE
 4839              		.section	.rodata._ZN6tflite19GreedyMemoryPlanner15PrintMemoryPlanEv.str1.4,"aMS",%progbits,1
 4840              		.align	2
 4841              	.LC2:
 4842 0000 2000     		.ascii	" \000"
 4843 0002 0000     		.space	2
 4844              	.LC3:
 4845 0004 00       		.ascii	"\000"
 4846 0005 000000   		.space	3
 4847              	.LC4:
 4848 0008 25632028 		.ascii	"%c (id=%d): size=%d, offset=%d, first_used=%d last_"
 4848      69643D25 
 4848      64293A20 
 4848      73697A65 
 4848      3D25642C 
 4849 003b 75736564 		.ascii	"used=%d\000"
 4849      3D256400 
 4850 0043 00       		.space	1
 4851              	.LC5:
 4852 0044 25732564 		.ascii	"%s%d: %s (%dk)\000"
 4852      3A202573 
 4852      20282564 
 4852      6B2900
 4853              		.section	.rodata._ZN6tflite19GreedyMemoryPlanner18GetOffsetForBufferEPNS_13ErrorReporterEiPi.str1.
 4854              		.align	2
 4855              	.LC1:
 4856 0000 62756666 		.ascii	"buffer index %d is outside range 0 to %d\000"
 4856      65722069 
 4856      6E646578 
 4856      20256420 
 4856      6973206F 
 4857              		.section	.rodata._ZN6tflite19GreedyMemoryPlanner19DoAnyBuffersOverlapEPNS_13ErrorReporterE.str1.4,
 4858              		.align	2
 4859              	.LC6:
 4860 0000 4F766572 		.ascii	"Overlap: %d (%d=>%d, %d->%d) vs %d (%d=>%d, %d->%d)"
 4860      6C61703A 
 4860      20256420 
 4860      2825643D 
 4860      3E25642C 
 4861 0033 00       		.ascii	"\000"
 4862              		.section	.rodata._ZN6tflite19GreedyMemoryPlanner9AddBufferEPNS_13ErrorReporterEiii.str1.4,"aMS",%p
 4863              		.align	2
 4864              	.LC0:
 4865 0000 546F6F20 		.ascii	"Too many buffers (max is %d)\000"
 4865      6D616E79 
 4865      20627566 
 4865      66657273 
 4865      20286D61 
 4866              		.section	.rodata._ZTIN6tflite19GreedyMemoryPlannerE,"a",%progbits
 4867              		.align	2
 4870              	_ZTIN6tflite19GreedyMemoryPlannerE:
 4871 0000 08000000 		.word	_ZTVN10__cxxabiv120__si_class_type_infoE+8
 4872 0004 00000000 		.word	_ZTSN6tflite19GreedyMemoryPlannerE
 4873 0008 00000000 		.word	_ZTIN6tflite13MemoryPlannerE
 4874              		.section	.rodata._ZTSN6tflite19GreedyMemoryPlannerE,"a",%progbits
 4875              		.align	3
 4878              	_ZTSN6tflite19GreedyMemoryPlannerE:
 4879 0000 4E367466 		.ascii	"N6tflite19GreedyMemoryPlannerE\000"
 4879      6C697465 
 4879      31394772 
 4879      65656479 
 4879      4D656D6F 
 4880              		.section	.rodata._ZTVN6tflite19GreedyMemoryPlannerE,"a",%progbits
 4881              		.align	3
 4882              		.set	.LANCHOR0,. + 0
 4885              	_ZTVN6tflite19GreedyMemoryPlannerE:
 4886 0000 00000000 		.word	0
 4887 0004 00000000 		.word	_ZTIN6tflite19GreedyMemoryPlannerE
 4888 0008 00000000 		.word	_ZN6tflite19GreedyMemoryPlannerD1Ev
 4889 000c 00000000 		.word	_ZN6tflite19GreedyMemoryPlannerD0Ev
 4890 0010 00000000 		.word	_ZN6tflite19GreedyMemoryPlanner9AddBufferEPNS_13ErrorReporterEiii
 4891 0014 00000000 		.word	_ZN6tflite19GreedyMemoryPlanner20GetMaximumMemorySizeEv
 4892 0018 00000000 		.word	_ZN6tflite19GreedyMemoryPlanner14GetBufferCountEv
 4893 001c 00000000 		.word	_ZN6tflite19GreedyMemoryPlanner18GetOffsetForBufferEPNS_13ErrorReporterEiPi
 4894              		.text
 4895              	.Letext0:
 4896              		.file 2 "c:\\program files (x86)\\gnu tools arm embedded\\6 2017-q2-update\\lib\\gcc\\arm-none-eab
 4897              		.file 3 "C:/Renesas/e2studio_2021_01_workspace_RZA2M_ANPR/ANPR_RZA2M_RDK/src/tensorflow_lite/src/t
 4898              		.file 4 "c:\\program files (x86)\\gnu tools arm embedded\\6 2017-q2-update\\arm-none-eabi\\include
 4899              		.file 5 "c:\\program files (x86)\\gnu tools arm embedded\\6 2017-q2-update\\lib\\gcc\\arm-none-eab
 4900              		.file 6 "C:/Renesas/e2studio_2021_01_workspace_RZA2M_ANPR/ANPR_RZA2M_RDK/src/tensorflow_lite/src/t
 4901              		.file 7 "C:/Renesas/e2studio_2021_01_workspace_RZA2M_ANPR/ANPR_RZA2M_RDK/src/tensorflow_lite/src/t
 4902              		.file 8 "<built-in>"
 4903              		.file 9 "C:/Renesas/e2studio_2021_01_workspace_RZA2M_ANPR/ANPR_RZA2M_RDK/src/tensorflow_lite/src/t
 4904              		.file 10 "c:\\program files (x86)\\gnu tools arm embedded\\6 2017-q2-update\\arm-none-eabi\\includ
 4905              		.file 11 "C:/Renesas/e2studio_2021_01_workspace_RZA2M_ANPR/ANPR_RZA2M_RDK/src/tensorflow_lite/src/
DEFINED SYMBOLS
                            *ABS*:00000000 greedy_memory_planner.cpp
C:\Users\a5050395\AppData\Local\Temp\cc5jBMHj.s:17     .text._ZN6tflite19GreedyMemoryPlannerD2Ev:00000000 $a
C:\Users\a5050395\AppData\Local\Temp\cc5jBMHj.s:23     .text._ZN6tflite19GreedyMemoryPlannerD2Ev:00000000 _ZN6tflite19GreedyMemoryPlannerD2Ev
.ARM.exidx.text._ZN6tflite19GreedyMemoryPlannerD2Ev:00000000 $d
C:\Users\a5050395\AppData\Local\Temp\cc5jBMHj.s:23     .text._ZN6tflite19GreedyMemoryPlannerD2Ev:00000000 _ZN6tflite19GreedyMemoryPlannerD1Ev
C:\Users\a5050395\AppData\Local\Temp\cc5jBMHj.s:43     .text._ZN6tflite19GreedyMemoryPlanner14GetBufferCountEv:00000000 $a
C:\Users\a5050395\AppData\Local\Temp\cc5jBMHj.s:49     .text._ZN6tflite19GreedyMemoryPlanner14GetBufferCountEv:00000000 _ZN6tflite19GreedyMemoryPlanner14GetBufferCountEv
.ARM.exidx.text._ZN6tflite19GreedyMemoryPlanner14GetBufferCountEv:00000000 $d
C:\Users\a5050395\AppData\Local\Temp\cc5jBMHj.s:68     .text._ZN6tflite19GreedyMemoryPlannerD0Ev:00000000 $a
C:\Users\a5050395\AppData\Local\Temp\cc5jBMHj.s:74     .text._ZN6tflite19GreedyMemoryPlannerD0Ev:00000000 _ZN6tflite19GreedyMemoryPlannerD0Ev
.ARM.exidx.text._ZN6tflite19GreedyMemoryPlannerD0Ev:00000000 $d
C:\Users\a5050395\AppData\Local\Temp\cc5jBMHj.s:99     .text._ZN6tflite19GreedyMemoryPlanner9AddBufferEPNS_13ErrorReporterEiii:00000000 $a
C:\Users\a5050395\AppData\Local\Temp\cc5jBMHj.s:105    .text._ZN6tflite19GreedyMemoryPlanner9AddBufferEPNS_13ErrorReporterEiii:00000000 _ZN6tflite19GreedyMemoryPlanner9AddBufferEPNS_13ErrorReporterEiii
C:\Users\a5050395\AppData\Local\Temp\cc5jBMHj.s:4864   .rodata._ZN6tflite19GreedyMemoryPlanner9AddBufferEPNS_13ErrorReporterEiii.str1.4:00000000 .LC0
.ARM.exidx.text._ZN6tflite19GreedyMemoryPlanner9AddBufferEPNS_13ErrorReporterEiii:00000000 $d
C:\Users\a5050395\AppData\Local\Temp\cc5jBMHj.s:177    .text._ZN6tflite19GreedyMemoryPlanner24CalculateOffsetsIfNeededEv.part.1:00000000 $a
C:\Users\a5050395\AppData\Local\Temp\cc5jBMHj.s:182    .text._ZN6tflite19GreedyMemoryPlanner24CalculateOffsetsIfNeededEv.part.1:00000000 _ZN6tflite19GreedyMemoryPlanner24CalculateOffsetsIfNeededEv.part.1
.ARM.exidx.text._ZN6tflite19GreedyMemoryPlanner24CalculateOffsetsIfNeededEv.part.1:00000000 $d
C:\Users\a5050395\AppData\Local\Temp\cc5jBMHj.s:688    .text._ZN6tflite19GreedyMemoryPlanner20GetMaximumMemorySizeEv:00000000 $a
C:\Users\a5050395\AppData\Local\Temp\cc5jBMHj.s:694    .text._ZN6tflite19GreedyMemoryPlanner20GetMaximumMemorySizeEv:00000000 _ZN6tflite19GreedyMemoryPlanner20GetMaximumMemorySizeEv
.ARM.exidx.text._ZN6tflite19GreedyMemoryPlanner20GetMaximumMemorySizeEv:00000000 $d
C:\Users\a5050395\AppData\Local\Temp\cc5jBMHj.s:812    .text._ZN6tflite19GreedyMemoryPlanner18GetOffsetForBufferEPNS_13ErrorReporterEiPi:00000000 $a
C:\Users\a5050395\AppData\Local\Temp\cc5jBMHj.s:818    .text._ZN6tflite19GreedyMemoryPlanner18GetOffsetForBufferEPNS_13ErrorReporterEiPi:00000000 _ZN6tflite19GreedyMemoryPlanner18GetOffsetForBufferEPNS_13ErrorReporterEiPi
C:\Users\a5050395\AppData\Local\Temp\cc5jBMHj.s:4855   .rodata._ZN6tflite19GreedyMemoryPlanner18GetOffsetForBufferEPNS_13ErrorReporterEiPi.str1.4:00000000 .LC1
.ARM.exidx.text._ZN6tflite19GreedyMemoryPlanner18GetOffsetForBufferEPNS_13ErrorReporterEiPi:00000000 $d
C:\Users\a5050395\AppData\Local\Temp\cc5jBMHj.s:905    .text._ZN6tflite18ReverseSortInPlaceEPiS0_i:00000000 $a
C:\Users\a5050395\AppData\Local\Temp\cc5jBMHj.s:911    .text._ZN6tflite18ReverseSortInPlaceEPiS0_i:00000000 _ZN6tflite18ReverseSortInPlaceEPiS0_i
.ARM.exidx.text._ZN6tflite18ReverseSortInPlaceEPiS0_i:00000000 $d
C:\Users\a5050395\AppData\Local\Temp\cc5jBMHj.s:980    .text._ZN6tflite19GreedyMemoryPlannerC2EPhi:00000000 $a
C:\Users\a5050395\AppData\Local\Temp\cc5jBMHj.s:986    .text._ZN6tflite19GreedyMemoryPlannerC2EPhi:00000000 _ZN6tflite19GreedyMemoryPlannerC2EPhi
C:\Users\a5050395\AppData\Local\Temp\cc5jBMHj.s:1064   .text._ZN6tflite19GreedyMemoryPlannerC2EPhi:00000060 $d
.ARM.exidx.text._ZN6tflite19GreedyMemoryPlannerC2EPhi:00000000 $d
C:\Users\a5050395\AppData\Local\Temp\cc5jBMHj.s:986    .text._ZN6tflite19GreedyMemoryPlannerC2EPhi:00000000 _ZN6tflite19GreedyMemoryPlannerC1EPhi
C:\Users\a5050395\AppData\Local\Temp\cc5jBMHj.s:1073   .text._ZN6tflite19GreedyMemoryPlanner9AddBufferEPNS_13ErrorReporterEiiii:00000000 $a
C:\Users\a5050395\AppData\Local\Temp\cc5jBMHj.s:1079   .text._ZN6tflite19GreedyMemoryPlanner9AddBufferEPNS_13ErrorReporterEiiii:00000000 _ZN6tflite19GreedyMemoryPlanner9AddBufferEPNS_13ErrorReporterEiiii
.ARM.exidx.text._ZN6tflite19GreedyMemoryPlanner9AddBufferEPNS_13ErrorReporterEiiii:00000000 $d
C:\Users\a5050395\AppData\Local\Temp\cc5jBMHj.s:1207   .text._ZNK6tflite19GreedyMemoryPlanner22DoesEntryOverlapInTimeEPKNS0_9ListEntryEii:00000000 $a
C:\Users\a5050395\AppData\Local\Temp\cc5jBMHj.s:1213   .text._ZNK6tflite19GreedyMemoryPlanner22DoesEntryOverlapInTimeEPKNS0_9ListEntryEii:00000000 _ZNK6tflite19GreedyMemoryPlanner22DoesEntryOverlapInTimeEPKNS0_9ListEntryEii
.ARM.exidx.text._ZNK6tflite19GreedyMemoryPlanner22DoesEntryOverlapInTimeEPKNS0_9ListEntryEii:00000000 $d
C:\Users\a5050395\AppData\Local\Temp\cc5jBMHj.s:1250   .text._ZN6tflite19GreedyMemoryPlanner30NextSimultaneouslyActiveBufferEPKNS0_9ListEntryEii:00000000 $a
C:\Users\a5050395\AppData\Local\Temp\cc5jBMHj.s:1256   .text._ZN6tflite19GreedyMemoryPlanner30NextSimultaneouslyActiveBufferEPKNS0_9ListEntryEii:00000000 _ZN6tflite19GreedyMemoryPlanner30NextSimultaneouslyActiveBufferEPKNS0_9ListEntryEii
.ARM.exidx.text._ZN6tflite19GreedyMemoryPlanner30NextSimultaneouslyActiveBufferEPKNS0_9ListEntryEii:00000000 $d
C:\Users\a5050395\AppData\Local\Temp\cc5jBMHj.s:1350   .text._ZN6tflite19GreedyMemoryPlanner24CalculateOffsetsIfNeededEv:00000000 $a
C:\Users\a5050395\AppData\Local\Temp\cc5jBMHj.s:1356   .text._ZN6tflite19GreedyMemoryPlanner24CalculateOffsetsIfNeededEv:00000000 _ZN6tflite19GreedyMemoryPlanner24CalculateOffsetsIfNeededEv
.ARM.exidx.text._ZN6tflite19GreedyMemoryPlanner24CalculateOffsetsIfNeededEv:00000000 $d
C:\Users\a5050395\AppData\Local\Temp\cc5jBMHj.s:1378   .text._ZN6tflite19GreedyMemoryPlanner15PrintMemoryPlanEv:00000000 $a
C:\Users\a5050395\AppData\Local\Temp\cc5jBMHj.s:1384   .text._ZN6tflite19GreedyMemoryPlanner15PrintMemoryPlanEv:00000000 _ZN6tflite19GreedyMemoryPlanner15PrintMemoryPlanEv
C:\Users\a5050395\AppData\Local\Temp\cc5jBMHj.s:4847   .rodata._ZN6tflite19GreedyMemoryPlanner15PrintMemoryPlanEv.str1.4:00000008 .LC4
C:\Users\a5050395\AppData\Local\Temp\cc5jBMHj.s:4841   .rodata._ZN6tflite19GreedyMemoryPlanner15PrintMemoryPlanEv.str1.4:00000000 .LC2
C:\Users\a5050395\AppData\Local\Temp\cc5jBMHj.s:4844   .rodata._ZN6tflite19GreedyMemoryPlanner15PrintMemoryPlanEv.str1.4:00000004 .LC3
C:\Users\a5050395\AppData\Local\Temp\cc5jBMHj.s:4851   .rodata._ZN6tflite19GreedyMemoryPlanner15PrintMemoryPlanEv.str1.4:00000044 .LC5
.ARM.extab.text._ZN6tflite19GreedyMemoryPlanner15PrintMemoryPlanEv:00000000 $d
.ARM.exidx.text._ZN6tflite19GreedyMemoryPlanner15PrintMemoryPlanEv:00000000 $d
C:\Users\a5050395\AppData\Local\Temp\cc5jBMHj.s:4586   .text._ZN6tflite19GreedyMemoryPlanner19DoAnyBuffersOverlapEPNS_13ErrorReporterE:00000000 $a
C:\Users\a5050395\AppData\Local\Temp\cc5jBMHj.s:4592   .text._ZN6tflite19GreedyMemoryPlanner19DoAnyBuffersOverlapEPNS_13ErrorReporterE:00000000 _ZN6tflite19GreedyMemoryPlanner19DoAnyBuffersOverlapEPNS_13ErrorReporterE
C:\Users\a5050395\AppData\Local\Temp\cc5jBMHj.s:4859   .rodata._ZN6tflite19GreedyMemoryPlanner19DoAnyBuffersOverlapEPNS_13ErrorReporterE.str1.4:00000000 .LC6
.ARM.exidx.text._ZN6tflite19GreedyMemoryPlanner19DoAnyBuffersOverlapEPNS_13ErrorReporterE:00000000 $d
C:\Users\a5050395\AppData\Local\Temp\cc5jBMHj.s:4826   .rodata._ZTSN6tflite13MemoryPlannerE:00000000 _ZTSN6tflite13MemoryPlannerE
C:\Users\a5050395\AppData\Local\Temp\cc5jBMHj.s:4823   .rodata._ZTSN6tflite13MemoryPlannerE:00000000 $d
C:\Users\a5050395\AppData\Local\Temp\cc5jBMHj.s:4833   .rodata._ZTIN6tflite13MemoryPlannerE:00000000 _ZTIN6tflite13MemoryPlannerE
C:\Users\a5050395\AppData\Local\Temp\cc5jBMHj.s:4830   .rodata._ZTIN6tflite13MemoryPlannerE:00000000 $d
C:\Users\a5050395\AppData\Local\Temp\cc5jBMHj.s:4878   .rodata._ZTSN6tflite19GreedyMemoryPlannerE:00000000 _ZTSN6tflite19GreedyMemoryPlannerE
C:\Users\a5050395\AppData\Local\Temp\cc5jBMHj.s:4870   .rodata._ZTIN6tflite19GreedyMemoryPlannerE:00000000 _ZTIN6tflite19GreedyMemoryPlannerE
C:\Users\a5050395\AppData\Local\Temp\cc5jBMHj.s:4885   .rodata._ZTVN6tflite19GreedyMemoryPlannerE:00000000 _ZTVN6tflite19GreedyMemoryPlannerE
C:\Users\a5050395\AppData\Local\Temp\cc5jBMHj.s:4840   .rodata._ZN6tflite19GreedyMemoryPlanner15PrintMemoryPlanEv.str1.4:00000000 $d
C:\Users\a5050395\AppData\Local\Temp\cc5jBMHj.s:4854   .rodata._ZN6tflite19GreedyMemoryPlanner18GetOffsetForBufferEPNS_13ErrorReporterEiPi.str1.4:00000000 $d
C:\Users\a5050395\AppData\Local\Temp\cc5jBMHj.s:4858   .rodata._ZN6tflite19GreedyMemoryPlanner19DoAnyBuffersOverlapEPNS_13ErrorReporterE.str1.4:00000000 $d
C:\Users\a5050395\AppData\Local\Temp\cc5jBMHj.s:4863   .rodata._ZN6tflite19GreedyMemoryPlanner9AddBufferEPNS_13ErrorReporterEiii.str1.4:00000000 $d
C:\Users\a5050395\AppData\Local\Temp\cc5jBMHj.s:4867   .rodata._ZTIN6tflite19GreedyMemoryPlannerE:00000000 $d
C:\Users\a5050395\AppData\Local\Temp\cc5jBMHj.s:4875   .rodata._ZTSN6tflite19GreedyMemoryPlannerE:00000000 $d
C:\Users\a5050395\AppData\Local\Temp\cc5jBMHj.s:4881   .rodata._ZTVN6tflite19GreedyMemoryPlannerE:00000000 $d
                     .debug_frame:00000010 $d
                           .group:00000000 wm4.0.3e1481985cce1e923928453d8be0a65b
                           .group:00000000 wm4.compatibility.h.16.1ceb35d63d4a0463dcdc2ac3bcdc6b08
                           .group:00000000 wm4.stdbool.h.29.01580e438512fc255c0619569742ffd3
                           .group:00000000 wm4.stddef.h.39.fa2e86d241f4df50b9327c72832885e1
                           .group:00000000 wm4.stdint.h.4.659be5aa44c4ab4eb7c7cc2b24d8ceee
                           .group:00000000 wm4._newlib_version.h.4.3572908597b70d672d181fc7fc501c19
                           .group:00000000 wm4.features.h.33.7b36b8b41abe4293fbb29540b719705c
                           .group:00000000 wm4._default_types.h.15.247e5cd201eca3442cbf5404108c4935
                           .group:00000000 wm4._intsup.h.10.cce27fed8484c08a33f522034c30d2b5
                           .group:00000000 wm4._stdint.h.10.c24fa3af3bc1706662bb5593a907e841
                           .group:00000000 wm4.stdint.h.23.d53047a68f4a85177f80b422d52785ed
                           .group:00000000 wm4.c_api_types.h.20.9b09175981ed746180e205cc0b4b2bfd
                           .group:00000000 wm4.common.h.77.124de099ec0ac4f95ebf1618a5f42cf6
                           .group:00000000 wm4.cconfig.h.31.1472b8c7bd4952a63a52f3f4f718f872
                           .group:00000000 wm4.cpu_defines.h.31.54d44f9d3e7c42875c5a7fd49795eb93
                           .group:00000000 wm4.cconfig.h.515.5e729db314ae74226e291b4ae081e353
                           .group:00000000 wm4.stdarg.h.31.b55da1089056868966f25de5dbfc7d3c

UNDEFINED SYMBOLS
_ZdlPv
_ZN6tflite13ErrorReporter6ReportEPKcz
__aeabi_unwind_cpp_pr0
__aeabi_idiv
_Z11MicroPrintfPKcz
memset
__aeabi_unwind_cpp_pr1
_ZTVN10__cxxabiv117__class_type_infoE
_ZTVN10__cxxabiv120__si_class_type_infoE
