   1              		.cpu cortex-a9
   2              		.eabi_attribute 28, 1
   3              		.eabi_attribute 20, 1
   4              		.eabi_attribute 21, 1
   5              		.eabi_attribute 23, 3
   6              		.eabi_attribute 24, 1
   7              		.eabi_attribute 25, 1
   8              		.eabi_attribute 26, 1
   9              		.eabi_attribute 30, 2
  10              		.eabi_attribute 34, 0
  11              		.eabi_attribute 18, 4
  12              		.file	"add.cc"
  13              		.section	.text._ZN6tflite3ops5micro3add4InitEP13TfLiteContextPKcj,"ax",%progbits
  14              		.align	2
  15              		.global	_ZN6tflite3ops5micro3add4InitEP13TfLiteContextPKcj
  16              		.syntax unified
  17              		.arm
  18              		.fpu neon
  20              	_ZN6tflite3ops5micro3add4InitEP13TfLiteContextPKcj:
  21              		.fnstart
  22              	.LFB9033:
  23              		@ args = 0, pretend = 0, frame = 0
  24              		@ frame_needed = 0, uses_anonymous_args = 0
  25 0000 383090E5 		ldr	r3, [r0, #56]
  26 0004 000053E3 		cmp	r3, #0
  27 0008 0100000A 		beq	.L7
  28 000c 3C10A0E3 		mov	r1, #60
  29 0010 13FF2FE1 		bx	r3
  30              	.L7:
  31 0014 10402DE9 		push	{r4, lr}
  32              		.save {r4, lr}
  33 0018 FEFFFFEB 		bl	abort
  34              		.fnend
  36              		.section	.text._ZN6tflite3ops5micro3add7PrepareEP13TfLiteContextP10TfLiteNode,"ax",%progbits
  37              		.align	2
  38              		.global	_ZN6tflite3ops5micro3add7PrepareEP13TfLiteContextP10TfLiteNode
  39              		.syntax unified
  40              		.arm
  41              		.fpu neon
  43              	_ZN6tflite3ops5micro3add7PrepareEP13TfLiteContextP10TfLiteNode:
  44              		.fnstart
  45              	.LFB9034:
  46              		@ args = 0, pretend = 0, frame = 0
  47              		@ frame_needed = 0, uses_anonymous_args = 0
  48 0000 103091E5 		ldr	r3, [r1, #16]
  49 0004 F0432DE9 		push	{r4, r5, r6, r7, r8, r9, lr}
  50              		.save {r4, r5, r6, r7, r8, r9, lr}
  51 0008 048B2DED 		vpush.64	{d8, d9}
  52              		.vsave {d8, d9}
  53              		.pad #12
  54 000c 0CD04DE2 		sub	sp, sp, #12
  55 0010 000053E3 		cmp	r3, #0
  56 0014 7300000A 		beq	.L10
  57 0018 143091E5 		ldr	r3, [r1, #20]
  58 001c 0140A0E1 		mov	r4, r1
  59 0020 000053E3 		cmp	r3, #0
  60 0024 6F00000A 		beq	.L10
  61 0028 0020A0E3 		mov	r2, #0
  62 002c 0060A0E1 		mov	r6, r0
  63 0030 FEFFFFEB 		bl	_ZN6tflite8GetInputEPK13TfLiteContextPK10TfLiteNodei
  64 0034 007050E2 		subs	r7, r0, #0
  65 0038 4700000A 		beq	.L13
  66 003c 0120A0E3 		mov	r2, #1
  67 0040 0410A0E1 		mov	r1, r4
  68 0044 0600A0E1 		mov	r0, r6
  69 0048 FEFFFFEB 		bl	_ZN6tflite8GetInputEPK13TfLiteContextPK10TfLiteNodei
  70 004c 009050E2 		subs	r9, r0, #0
  71 0050 4100000A 		beq	.L13
  72 0054 0020A0E3 		mov	r2, #0
  73 0058 0410A0E1 		mov	r1, r4
  74 005c 0600A0E1 		mov	r0, r6
  75 0060 FEFFFFEB 		bl	_ZN6tflite9GetOutputEP13TfLiteContextPK10TfLiteNodei
  76 0064 008050E2 		subs	r8, r0, #0
  77 0068 3B00000A 		beq	.L13
  78 006c 0910A0E1 		mov	r1, r9
  79 0070 0700A0E1 		mov	r0, r7
  80 0074 105094E5 		ldr	r5, [r4, #16]
  81 0078 144094E5 		ldr	r4, [r4, #20]
  82 007c FEFFFFEB 		bl	_ZN6tflite14HaveSameShapesEPK12TfLiteTensorS2_
  83 0080 0030D8E5 		ldrb	r3, [r8]	@ zero_extendqisi2
  84 0084 010020E2 		eor	r0, r0, #1
  85 0088 0000C5E5 		strb	r0, [r5]
  86 008c 090053E3 		cmp	r3, #9
  87 0090 03005313 		cmpne	r3, #3
  88 0094 0100A003 		moveq	r0, #1
  89 0098 0000A013 		movne	r0, #0
  90 009c 3200001A 		bne	.L14
  91 00a0 036AD9ED 		vldr.32	s13, [r9, #12]
  92 00a4 14C0A0E3 		mov	ip, #20
  93 00a8 037AD7ED 		vldr.32	s15, [r7, #12]
  94 00ac 0C0085E0 		add	r0, r5, ip
  95 00b0 037A98ED 		vldr.32	s14, [r8, #12]
  96 00b4 041085E2 		add	r1, r5, #4
  97 00b8 4C3BDFED 		vldr.64	d19, .L35
  98 00bc E62AF7EE 		vcvt.f64.f32	d18, s13
  99 00c0 E67AF4EE 		vcmpe.f32	s15, s13
 100 00c4 10FAF1EE 		vmrs	APSR_nzcv, FPSCR
 101 00c8 E70AB7EE 		vcvt.f64.f32	d0, s15
 102 00cc 667AF04E 		vmovmi.f32	s15, s13
 103 00d0 E70AF7EE 		vcvt.f64.f32	d16, s15
 104 00d4 C71AF7EE 		vcvt.f64.f32	d17, s14
 105 00d8 102097E5 		ldr	r2, [r7, #16]
 106 00dc 103099E5 		ldr	r3, [r9, #16]
 107 00e0 A00B70EE 		vadd.f64	d16, d16, d16
 108 00e4 A31B61EE 		vmul.f64	d17, d17, d19
 109 00e8 002062E2 		rsb	r2, r2, #0
 110 00ec 282085E5 		str	r2, [r5, #40]
 111 00f0 003063E2 		rsb	r3, r3, #0
 112 00f4 102098E5 		ldr	r2, [r8, #16]
 113 00f8 200B80EE 		vdiv.f64	d0, d0, d16
 114 00fc A09B82EE 		vdiv.f64	d9, d18, d16
 115 0100 A18B80EE 		vdiv.f64	d8, d16, d17
 116 0104 2C3085E5 		str	r3, [r5, #44]
 117 0108 24C085E5 		str	ip, [r5, #36]
 118 010c 302085E5 		str	r2, [r5, #48]
 119 0110 FEFFFFEB 		bl	_ZN6tflite35QuantizeMultiplierSmallerThanOneExpEdPlPi
 120 0114 081085E2 		add	r1, r5, #8
 121 0118 180085E2 		add	r0, r5, #24
 122 011c 490BB0EE 		vmov.f64	d0, d9
 123 0120 FEFFFFEB 		bl	_ZN6tflite35QuantizeMultiplierSmallerThanOneExpEdPlPi
 124 0124 201085E2 		add	r1, r5, #32
 125 0128 1C0085E2 		add	r0, r5, #28
 126 012c 480BB0EE 		vmov.f64	d0, d8
 127 0130 FEFFFFEB 		bl	_ZN6tflite35QuantizeMultiplierSmallerThanOneExpEdPlPi
 128 0134 103085E2 		add	r3, r5, #16
 129 0138 0010D4E5 		ldrb	r1, [r4]	@ zero_extendqisi2
 130 013c 0820A0E1 		mov	r2, r8
 131 0140 00308DE5 		str	r3, [sp]
 132 0144 0600A0E1 		mov	r0, r6
 133 0148 0C3085E2 		add	r3, r5, #12
 134 014c FEFFFFEB 		bl	_ZN6tflite33CalculateActivationRangeQuantizedEP13TfLiteContext21TfLiteFusedActivationP12TfLiteT
 135 0150 0CD08DE2 		add	sp, sp, #12
 136              		@ sp needed
 137 0154 048BBDEC 		vldm	sp!, {d8-d9}
 138 0158 F083BDE8 		pop	{r4, r5, r6, r7, r8, r9, pc}
 139              	.L13:
 140 015c 0100A0E3 		mov	r0, #1
 141              	.L12:
 142 0160 0CD08DE2 		add	sp, sp, #12
 143              		@ sp needed
 144 0164 048BBDEC 		vldm	sp!, {d8-d9}
 145 0168 F083BDE8 		pop	{r4, r5, r6, r7, r8, r9, pc}
 146              	.L14:
 147 016c 010053E3 		cmp	r3, #1
 148 0170 FAFFFF1A 		bne	.L12
 149 0174 0030D4E5 		ldrb	r3, [r4]	@ zero_extendqisi2
 150 0178 010053E3 		cmp	r3, #1
 151 017c 0D00000A 		beq	.L33
 152 0180 030053E3 		cmp	r3, #3
 153 0184 1100000A 		beq	.L34
 154 0188 020053E3 		cmp	r3, #2
 155 018c 0020A003 		moveq	r2, #0
 156 0190 FF3F0F13 		movwne	r3, #65535
 157 0194 802F4B03 		movteq	r2, 49024
 158 0198 FE35A003 		moveq	r3, #1065353216
 159 019c 0225E013 		mvnne	r2, #8388608
 160 01a0 7F3F4713 		movtne	r3, 32639
 161 01a4 0000A003 		moveq	r0, #0
 162 01a8 0000A013 		movne	r0, #0
 163 01ac 342085E5 		str	r2, [r5, #52]	@ float
 164 01b0 383085E5 		str	r3, [r5, #56]	@ float
 165 01b4 E9FFFFEA 		b	.L12
 166              	.L33:
 167 01b8 FF3F0FE3 		movw	r3, #65535
 168 01bc 0020A0E3 		mov	r2, #0
 169 01c0 7F3F47E3 		movt	r3, 32639
 170 01c4 342085E5 		str	r2, [r5, #52]	@ float
 171 01c8 383085E5 		str	r3, [r5, #56]	@ float
 172 01cc E3FFFFEA 		b	.L12
 173              	.L34:
 174 01d0 0030A0E3 		mov	r3, #0
 175 01d4 0020A0E3 		mov	r2, #0
 176 01d8 C03044E3 		movt	r3, 16576
 177 01dc 342085E5 		str	r2, [r5, #52]	@ float
 178 01e0 383085E5 		str	r3, [r5, #56]	@ float
 179 01e4 DDFFFFEA 		b	.L12
 180              	.L10:
 181 01e8 FEFFFFEB 		bl	abort
 182              	.L36:
 183 01ec 00F020E3 		.align	3
 184              	.L35:
 185 01f0 00000000 		.word	0
 186 01f4 00003041 		.word	1093664768
 187              		.fnend
 189              		.section	.text._ZN6tflite13reference_ops22ProcessBroadcastShapesERKNS_12RuntimeShapeES3_PNS_16Arit
 190              		.align	2
 191              		.weak	_ZN6tflite13reference_ops22ProcessBroadcastShapesERKNS_12RuntimeShapeES3_PNS_16ArithmeticPar
 192              		.syntax unified
 193              		.arm
 194              		.fpu neon
 196              	_ZN6tflite13reference_ops22ProcessBroadcastShapesERKNS_12RuntimeShapeES3_PNS_16ArithmeticParamsE:
 197              		.fnstart
 198              	.LFB4162:
 199              		@ args = 0, pretend = 0, frame = 80
 200              		@ frame_needed = 0, uses_anonymous_args = 0
 201 0000 F04F2DE9 		push	{r4, r5, r6, r7, r8, r9, r10, fp, lr}
 202              		.save {r4, r5, r6, r7, r8, r9, r10, fp, lr}
 203 0004 0240A0E1 		mov	r4, r2
 204 0008 005091E5 		ldr	r5, [r1]
 205 000c 0420A0E3 		mov	r2, #4
 206              		.pad #84
 207 0010 54D04DE2 		sub	sp, sp, #84
 208 0014 0070A0E1 		mov	r7, r0
 209 0018 003090E5 		ldr	r3, [r0]
 210 001c 0160A0E1 		mov	r6, r1
 211 0020 0020C4E5 		strb	r2, [r4]
 212 0024 050053E1 		cmp	r3, r5
 213 0028 0350A0A1 		movge	r5, r3
 214 002c 050055E3 		cmp	r5, #5
 215 0030 CD0000DA 		ble	.L38
 216 0034 2E0275E3 		cmn	r5, #-536870910
 217 0038 C50300CA 		bgt	.L39
 218 003c 0501A0E1 		lsl	r0, r5, #2
 219              	.LEHB0:
 220 0040 FEFFFFEB 		bl	_Znaj
 221              	.LEHE0:
 222 0044 080055E3 		cmp	r5, #8
 223 0048 0C008DE5 		str	r0, [sp, #12]
 224 004c 0020A0D3 		movle	r2, #0
 225 0050 120000DA 		ble	.L41
 226 0054 091045E2 		sub	r1, r5, #9
 227 0058 883080E2 		add	r3, r0, #136
 228 005c 0710C1E3 		bic	r1, r1, #7
 229 0060 0020A0E3 		mov	r2, #0
 230 0064 081081E2 		add	r1, r1, #8
 231 0068 01C0A0E3 		mov	ip, #1
 232              	.L45:
 233 006c 082082E2 		add	r2, r2, #8
 234 0070 00F0D3F5 		pld	[r3]
 235 0074 010052E1 		cmp	r2, r1
 236 0078 88C003E5 		str	ip, [r3, #-136]
 237 007c 84C003E5 		str	ip, [r3, #-132]
 238 0080 203083E2 		add	r3, r3, #32
 239 0084 A0C003E5 		str	ip, [r3, #-160]
 240 0088 9CC003E5 		str	ip, [r3, #-156]
 241 008c 98C003E5 		str	ip, [r3, #-152]
 242 0090 94C003E5 		str	ip, [r3, #-148]
 243 0094 90C003E5 		str	ip, [r3, #-144]
 244 0098 8CC003E5 		str	ip, [r3, #-140]
 245 009c F2FFFF1A 		bne	.L45
 246              	.L41:
 247 00a0 020180E0 		add	r0, r0, r2, lsl #2
 248 00a4 0130A0E3 		mov	r3, #1
 249              	.L47:
 250 00a8 012082E2 		add	r2, r2, #1
 251 00ac 043080E4 		str	r3, [r0], #4
 252 00b0 020055E1 		cmp	r5, r2
 253 00b4 FBFFFFCA 		bgt	.L47
 254 00b8 003097E5 		ldr	r3, [r7]
 255 00bc 0020A0E3 		mov	r2, #0
 256 00c0 20208DE5 		str	r2, [sp, #32]
 257 00c4 050053E1 		cmp	r3, r5
 258 00c8 20508DD5 		strle	r5, [sp, #32]
 259 00cc AF0000CA 		bgt	.L43
 260              	.L201:
 261 00d0 2E0275E3 		cmn	r5, #-536870910
 262 00d4 8E0300CA 		bgt	.L49
 263 00d8 0501A0E1 		lsl	r0, r5, #2
 264              	.LEHB1:
 265 00dc FEFFFFEB 		bl	_Znaj
 266              	.LEHE1:
 267 00e0 002097E5 		ldr	r2, [r7]
 268 00e4 24008DE5 		str	r0, [sp, #36]
 269 00e8 023045E0 		sub	r3, r5, r2
 270 00ec 000053E3 		cmp	r3, #0
 271 00f0 0D0000DA 		ble	.L195
 272 00f4 000055E3 		cmp	r5, #0
 273 00f8 040040C2 		subgt	r0, r0, #4
 274 00fc 0020A0C3 		movgt	r2, #0
 275 0100 0110A0C3 		movgt	r1, #1
 276 0104 020000CA 		bgt	.L52
 277 0108 BF0000EA 		b	.L53
 278              	.L430:
 279 010c 050052E1 		cmp	r2, r5
 280 0110 BD00000A 		beq	.L53
 281              	.L52:
 282 0114 012082E2 		add	r2, r2, #1
 283 0118 0410A0E5 		str	r1, [r0, #4]!
 284 011c 030052E1 		cmp	r2, r3
 285 0120 F9FFFFBA 		blt	.L430
 286 0124 24009DE5 		ldr	r0, [sp, #36]
 287 0128 002097E5 		ldr	r2, [r7]
 288              	.L195:
 289 012c 050052E3 		cmp	r2, #5
 290 0130 030180E0 		add	r0, r0, r3, lsl #2
 291 0134 041097C5 		ldrgt	r1, [r7, #4]
 292 0138 041087D2 		addle	r1, r7, #4
 293 013c 0221A0E1 		lsl	r2, r2, #2
 294 0140 FEFFFFEB 		bl	memcpy
 295 0144 002096E5 		ldr	r2, [r6]
 296 0148 0030A0E3 		mov	r3, #0
 297 014c 38308DE5 		str	r3, [sp, #56]
 298 0150 050052E1 		cmp	r2, r5
 299 0154 710300CA 		bgt	.L504
 300 0158 050055E3 		cmp	r5, #5
 301 015c 38508DE5 		str	r5, [sp, #56]
 302 0160 AD0000DA 		ble	.L60
 303 0164 2E0275E3 		cmn	r5, #-536870910
 304 0168 760300CA 		bgt	.L61
 305 016c 0501A0E1 		lsl	r0, r5, #2
 306              	.LEHB2:
 307 0170 FEFFFFEB 		bl	_Znaj
 308              	.LEHE2:
 309 0174 002096E5 		ldr	r2, [r6]
 310 0178 3C008DE5 		str	r0, [sp, #60]
 311 017c 021045E0 		sub	r1, r5, r2
 312 0180 000051E3 		cmp	r1, #0
 313 0184 042040C2 		subgt	r2, r0, #4
 314 0188 0030A0C3 		movgt	r3, #0
 315 018c 0100A0C3 		movgt	r0, #1
 316 0190 020000CA 		bgt	.L64
 317 0194 070000EA 		b	.L197
 318              	.L432:
 319 0198 050053E1 		cmp	r3, r5
 320 019c BB00000A 		beq	.L65
 321              	.L64:
 322 01a0 013083E2 		add	r3, r3, #1
 323 01a4 0400A2E5 		str	r0, [r2, #4]!
 324 01a8 010053E1 		cmp	r3, r1
 325 01ac F9FFFFBA 		blt	.L432
 326 01b0 3C009DE5 		ldr	r0, [sp, #60]
 327 01b4 002096E5 		ldr	r2, [r6]
 328              	.L197:
 329 01b8 050052E3 		cmp	r2, #5
 330 01bc 010180E0 		add	r0, r0, r1, lsl #2
 331 01c0 0221A0E1 		lsl	r2, r2, #2
 332 01c4 041096C5 		ldrgt	r1, [r6, #4]
 333 01c8 041086D2 		addle	r1, r6, #4
 334 01cc FEFFFFEB 		bl	memcpy
 335 01d0 20709DE5 		ldr	r7, [sp, #32]
 336 01d4 38609DE5 		ldr	r6, [sp, #56]
 337 01d8 060057E1 		cmp	r7, r6
 338 01dc AC00000A 		beq	.L505
 339              	.L71:
 340 01e0 013055E2 		subs	r3, r5, #1
 341 01e4 3900004A 		bmi	.L83
 342 01e8 070053E1 		cmp	r3, r7
 343 01ec 7E0100AA 		bge	.L77
 344 01f0 050057E3 		cmp	r7, #5
 345 01f4 24809DE5 		ldr	r8, [sp, #36]
 346 01f8 3C009DE5 		ldr	r0, [sp, #60]
 347 01fc B60000CA 		bgt	.L79
 348 0200 050056E3 		cmp	r6, #5
 349 0204 430100CA 		bgt	.L80
 350 0208 50208DE2 		add	r2, sp, #80
 351 020c 060053E1 		cmp	r3, r6
 352 0210 032182E0 		add	r2, r2, r3, lsl #2
 353 0214 2CC012E5 		ldr	ip, [r2, #-44]
 354 0218 370300AA 		bge	.L81
 355 021c 14E012E5 		ldr	lr, [r2, #-20]
 356 0220 0C005EE1 		cmp	lr, ip
 357 0224 DD00001A 		bne	.L82
 358 0228 022055E2 		subs	r2, r5, #2
 359 022c 2700004A 		bmi	.L83
 360 0230 070052E1 		cmp	r2, r7
 361 0234 6C0100AA 		bge	.L77
 362 0238 50108DE2 		add	r1, sp, #80
 363 023c 060052E1 		cmp	r2, r6
 364 0240 022181E0 		add	r2, r1, r2, lsl #2
 365 0244 2CC012E5 		ldr	ip, [r2, #-44]
 366 0248 2B0300AA 		bge	.L81
 367 024c 14E012E5 		ldr	lr, [r2, #-20]
 368 0250 0E005CE1 		cmp	ip, lr
 369 0254 D100001A 		bne	.L82
 370 0258 032045E2 		sub	r2, r5, #3
 371 025c 010072E3 		cmn	r2, #1
 372 0260 1A00000A 		beq	.L83
 373 0264 020057E1 		cmp	r7, r2
 374 0268 5F0100DA 		ble	.L77
 375 026c 020056E1 		cmp	r6, r2
 376 0270 022181E0 		add	r2, r1, r2, lsl #2
 377 0274 2CC012E5 		ldr	ip, [r2, #-44]
 378 0278 1F0300DA 		ble	.L81
 379 027c 14E012E5 		ldr	lr, [r2, #-20]
 380 0280 0C005EE1 		cmp	lr, ip
 381 0284 C500001A 		bne	.L82
 382 0288 042045E2 		sub	r2, r5, #4
 383 028c 010072E3 		cmn	r2, #1
 384 0290 0E00000A 		beq	.L83
 385 0294 020057E1 		cmp	r7, r2
 386 0298 530100DA 		ble	.L77
 387 029c 020056E1 		cmp	r6, r2
 388 02a0 022181E0 		add	r2, r1, r2, lsl #2
 389 02a4 2CC012E5 		ldr	ip, [r2, #-44]
 390 02a8 130300DA 		ble	.L81
 391 02ac 14E012E5 		ldr	lr, [r2, #-20]
 392 02b0 0E005CE1 		cmp	ip, lr
 393 02b4 B900001A 		bne	.L82
 394 02b8 040055E3 		cmp	r5, #4
 395 02bc 0300000A 		beq	.L83
 396 02c0 000058E1 		cmp	r8, r0
 397 02c4 08C0A0E1 		mov	ip, r8
 398 02c8 00E0A0E1 		mov	lr, r0
 399 02cc B300001A 		bne	.L82
 400              	.L83:
 401 02d0 0020D4E5 		ldrb	r2, [r4]	@ zero_extendqisi2
 402 02d4 021042E2 		sub	r1, r2, #2
 403 02d8 010051E3 		cmp	r1, #1
 404 02dc 0E03008A 		bhi	.L506
 405 02e0 030052E3 		cmp	r2, #3
 406 02e4 01E0A0E3 		mov	lr, #1
 407 02e8 0620A001 		moveq	r2, r6
 408 02ec 0710A001 		moveq	r1, r7
 409 02f0 38008D02 		addeq	r0, sp, #56
 410 02f4 20C08D02 		addeq	ip, sp, #32
 411 02f8 0720A011 		movne	r2, r7
 412 02fc 0610A011 		movne	r1, r6
 413 0300 20008D12 		addne	r0, sp, #32
 414 0304 38C08D12 		addne	ip, sp, #56
 415 0308 000053E3 		cmp	r3, #0
 416 030c 50E084E5 		str	lr, [r4, #80]
 417 0310 54E084E5 		str	lr, [r4, #84]
 418 0314 58E084E5 		str	lr, [r4, #88]
 419 0318 5CE084E5 		str	lr, [r4, #92]
 420 031c 60E084E5 		str	lr, [r4, #96]
 421 0320 570100AA 		bge	.L90
 422              	.L97:
 423 0324 050056E3 		cmp	r6, #5
 424 0328 0180A0E3 		mov	r8, #1
 425 032c 650000CA 		bgt	.L507
 426              	.L180:
 427 0330 050057E3 		cmp	r7, #5
 428 0334 030000DA 		ble	.L181
 429 0338 24009DE5 		ldr	r0, [sp, #36]
 430 033c 000050E3 		cmp	r0, #0
 431 0340 0000000A 		beq	.L181
 432 0344 FEFFFFEB 		bl	_ZdaPv
 433              	.L181:
 434 0348 050055E3 		cmp	r5, #5
 435 034c 030000DA 		ble	.L238
 436 0350 0C009DE5 		ldr	r0, [sp, #12]
 437 0354 000050E3 		cmp	r0, #0
 438 0358 0000000A 		beq	.L238
 439 035c FEFFFFEB 		bl	_ZdaPv
 440              	.L238:
 441 0360 0800A0E1 		mov	r0, r8
 442 0364 54D08DE2 		add	sp, sp, #84
 443              		@ sp needed
 444 0368 F08FBDE8 		pop	{r4, r5, r6, r7, r8, r9, r10, fp, pc}
 445              	.L38:
 446 036c 000055E3 		cmp	r5, #0
 447 0370 EB0200DA 		ble	.L508
 448 0374 030055E1 		cmp	r5, r3
 449 0378 0020A0E3 		mov	r2, #0
 450 037c 0110A0E3 		mov	r1, #1
 451 0380 20208DE5 		str	r2, [sp, #32]
 452 0384 0C108DE5 		str	r1, [sp, #12]
 453 0388 0320A0E1 		mov	r2, r3
 454 038c 000000AA 		bge	.L509
 455              	.L43:
 456              	.LEHB3:
 457 0390 FEFFFFEB 		bl	abort
 458              	.L509:
 459 0394 20508DE5 		str	r5, [sp, #32]
 460              	.L48:
 461 0398 033045E0 		sub	r3, r5, r3
 462 039c 000053E3 		cmp	r3, #0
 463 03a0 E90200DA 		ble	.L510
 464 03a4 000055E3 		cmp	r5, #0
 465 03a8 170000DA 		ble	.L53
 466 03ac 010053E3 		cmp	r3, #1
 467 03b0 0120A0E3 		mov	r2, #1
 468 03b4 24208DE5 		str	r2, [sp, #36]
 469 03b8 1400000A 		beq	.L54
 470 03bc 020055E1 		cmp	r5, r2
 471 03c0 1100000A 		beq	.L53
 472 03c4 020053E3 		cmp	r3, #2
 473 03c8 28208DE5 		str	r2, [sp, #40]
 474 03cc 0F00000A 		beq	.L54
 475 03d0 020055E3 		cmp	r5, #2
 476 03d4 0C00000A 		beq	.L53
 477 03d8 030053E3 		cmp	r3, #3
 478 03dc 2C208DE5 		str	r2, [sp, #44]
 479 03e0 0A00000A 		beq	.L54
 480 03e4 030055E3 		cmp	r5, #3
 481 03e8 0700000A 		beq	.L53
 482 03ec 040053E3 		cmp	r3, #4
 483 03f0 30208DE5 		str	r2, [sp, #48]
 484 03f4 0500000A 		beq	.L54
 485 03f8 040055E3 		cmp	r5, #4
 486 03fc 0200000A 		beq	.L53
 487 0400 050053E3 		cmp	r3, #5
 488 0404 34208DE5 		str	r2, [sp, #52]
 489 0408 0000000A 		beq	.L54
 490              	.L53:
 491 040c FEFFFFEB 		bl	abort
 492              	.LEHE3:
 493              	.L54:
 494 0410 002097E5 		ldr	r2, [r7]
 495 0414 24008DE2 		add	r0, sp, #36
 496 0418 43FFFFEA 		b	.L195
 497              	.L60:
 498 041c 021045E0 		sub	r1, r5, r2
 499 0420 000051E3 		cmp	r1, #0
 500 0424 010100DA 		ble	.L511
 501 0428 000055E3 		cmp	r5, #0
 502 042c 170000DA 		ble	.L65
 503 0430 010051E3 		cmp	r1, #1
 504 0434 0130A0E3 		mov	r3, #1
 505 0438 3C308DE5 		str	r3, [sp, #60]
 506 043c FD00000A 		beq	.L66
 507 0440 030055E1 		cmp	r5, r3
 508 0444 1100000A 		beq	.L65
 509 0448 020051E3 		cmp	r1, #2
 510 044c 40308DE5 		str	r3, [sp, #64]
 511 0450 F800000A 		beq	.L66
 512 0454 020055E3 		cmp	r5, #2
 513 0458 0C00000A 		beq	.L65
 514 045c 030051E3 		cmp	r1, #3
 515 0460 44308DE5 		str	r3, [sp, #68]
 516 0464 F300000A 		beq	.L66
 517 0468 030055E3 		cmp	r5, #3
 518 046c 0700000A 		beq	.L65
 519 0470 040051E3 		cmp	r1, #4
 520 0474 48308DE5 		str	r3, [sp, #72]
 521 0478 EE00000A 		beq	.L66
 522 047c 050055E3 		cmp	r5, #5
 523 0480 0200001A 		bne	.L65
 524 0484 050051E3 		cmp	r1, #5
 525 0488 4C308DE5 		str	r3, [sp, #76]
 526 048c E900000A 		beq	.L66
 527              	.L65:
 528              	.LEHB4:
 529 0490 FEFFFFEB 		bl	abort
 530              	.LEHE4:
 531              	.L505:
 532 0494 050057E3 		cmp	r7, #5
 533 0498 0721A0E1 		lsl	r2, r7, #2
 534 049c 24009DC5 		ldrgt	r0, [sp, #36]
 535 04a0 24008DD2 		addle	r0, sp, #36
 536 04a4 3C109DC5 		ldrgt	r1, [sp, #60]
 537 04a8 3C108DD2 		addle	r1, sp, #60
 538 04ac FEFFFFEB 		bl	memcmp
 539 04b0 008050E2 		subs	r8, r0, #0
 540 04b4 49FFFF1A 		bne	.L71
 541 04b8 0130A0E3 		mov	r3, #1
 542 04bc 0030C4E5 		strb	r3, [r4]
 543              	.L91:
 544 04c0 050056E3 		cmp	r6, #5
 545 04c4 99FFFFDA 		ble	.L180
 546              	.L507:
 547 04c8 3C009DE5 		ldr	r0, [sp, #60]
 548 04cc 000050E3 		cmp	r0, #0
 549 04d0 96FFFF0A 		beq	.L180
 550 04d4 FEFFFFEB 		bl	_ZdaPv
 551 04d8 94FFFFEA 		b	.L180
 552              	.L79:
 553 04dc 050056E3 		cmp	r6, #5
 554 04e0 C20000CA 		bgt	.L84
 555 04e4 060053E1 		cmp	r3, r6
 556 04e8 0321A0E1 		lsl	r2, r3, #2
 557 04ec 03C198E7 		ldr	ip, [r8, r3, lsl #2]
 558 04f0 810200AA 		bge	.L81
 559 04f4 50108DE2 		add	r1, sp, #80
 560 04f8 021081E0 		add	r1, r1, r2
 561 04fc 14E011E5 		ldr	lr, [r1, #-20]
 562 0500 0E005CE1 		cmp	ip, lr
 563 0504 2500001A 		bne	.L82
 564 0508 021055E2 		subs	r1, r5, #2
 565 050c 6FFFFF4A 		bmi	.L83
 566 0510 010056E1 		cmp	r6, r1
 567 0514 028088E0 		add	r8, r8, r2
 568 0518 04C018E5 		ldr	ip, [r8, #-4]
 569 051c 760200DA 		ble	.L81
 570 0520 50208DE2 		add	r2, sp, #80
 571 0524 011182E0 		add	r1, r2, r1, lsl #2
 572 0528 14E011E5 		ldr	lr, [r1, #-20]
 573 052c 0C005EE1 		cmp	lr, ip
 574 0530 1A00001A 		bne	.L82
 575 0534 032045E2 		sub	r2, r5, #3
 576 0538 010072E3 		cmn	r2, #1
 577 053c 63FFFF0A 		beq	.L83
 578 0540 020056E1 		cmp	r6, r2
 579 0544 08C018E5 		ldr	ip, [r8, #-8]
 580 0548 6B0200DA 		ble	.L81
 581 054c 50108DE2 		add	r1, sp, #80
 582 0550 022181E0 		add	r2, r1, r2, lsl #2
 583 0554 14E012E5 		ldr	lr, [r2, #-20]
 584 0558 0E005CE1 		cmp	ip, lr
 585 055c 0F00001A 		bne	.L82
 586 0560 042045E2 		sub	r2, r5, #4
 587 0564 010072E3 		cmn	r2, #1
 588 0568 58FFFF0A 		beq	.L83
 589 056c 020056E1 		cmp	r6, r2
 590 0570 0CC018E5 		ldr	ip, [r8, #-12]
 591 0574 600200DA 		ble	.L81
 592 0578 022181E0 		add	r2, r1, r2, lsl #2
 593 057c 14E012E5 		ldr	lr, [r2, #-20]
 594 0580 0C005EE1 		cmp	lr, ip
 595 0584 0500001A 		bne	.L82
 596 0588 040055E3 		cmp	r5, #4
 597 058c 4FFFFF0A 		beq	.L83
 598 0590 10C018E5 		ldr	ip, [r8, #-16]
 599 0594 3CE09DE5 		ldr	lr, [sp, #60]
 600 0598 0E005CE1 		cmp	ip, lr
 601 059c 4BFFFF0A 		beq	.L83
 602              	.L82:
 603 05a0 01005CE3 		cmp	ip, #1
 604 05a4 A600001A 		bne	.L87
 605 05a8 50C084E5 		str	ip, [r4, #80]
 606 05ac 0610A0E1 		mov	r1, r6
 607 05b0 54C084E5 		str	ip, [r4, #84]
 608 05b4 0720A0E1 		mov	r2, r7
 609 05b8 58C084E5 		str	ip, [r4, #88]
 610 05bc 20008DE2 		add	r0, sp, #32
 611 05c0 5CC084E5 		str	ip, [r4, #92]
 612 05c4 02E0A0E3 		mov	lr, #2
 613 05c8 60C084E5 		str	ip, [r4, #96]
 614 05cc 38C08DE2 		add	ip, sp, #56
 615 05d0 00E0C4E5 		strb	lr, [r4]
 616              	.L88:
 617 05d4 050052E3 		cmp	r2, #5
 618 05d8 AC0000CA 		bgt	.L100
 619 05dc 050051E3 		cmp	r1, #5
 620 05e0 C00000CA 		bgt	.L101
 621 05e4 0591A0E1 		lsl	r9, r5, #2
 622 05e8 01E0A0E3 		mov	lr, #1
 623 05ec 09A080E0 		add	r10, r0, r9
 624 05f0 09908CE0 		add	r9, ip, r9
 625              	.L106:
 626 05f4 010053E1 		cmp	r3, r1
 627 05f8 04801AE4 		ldr	r8, [r10], #-4
 628 05fc 430200AA 		bge	.L102
 629 0600 04B019E4 		ldr	fp, [r9], #-4
 630 0604 0B0058E1 		cmp	r8, fp
 631 0608 EF00000A 		beq	.L512
 632              	.L103:
 633 060c 000053E3 		cmp	r3, #0
 634 0610 43FFFFBA 		blt	.L97
 635 0614 020053E1 		cmp	r3, r2
 636 0618 160100AA 		bge	.L117
 637 061c 050052E3 		cmp	r2, #5
 638 0620 2B0100CA 		bgt	.L118
 639 0624 050051E3 		cmp	r1, #5
 640 0628 820100CA 		bgt	.L119
 641 062c 03E1A0E1 		lsl	lr, r3, #2
 642 0630 0180A0E3 		mov	r8, #1
 643 0634 08E08EE2 		add	lr, lr, #8
 644 0638 0EA080E0 		add	r10, r0, lr
 645 063c 0EE08CE0 		add	lr, ip, lr
 646              	.L124:
 647 0640 04903AE5 		ldr	r9, [r10, #-4]!
 648 0644 010059E3 		cmp	r9, #1
 649 0648 FE00000A 		beq	.L513
 650              	.L120:
 651 064c 000053E3 		cmp	r3, #0
 652 0650 33FFFFBA 		blt	.L97
 653 0654 020053E1 		cmp	r3, r2
 654 0658 EE0000AA 		bge	.L133
 655 065c 050052E3 		cmp	r2, #5
 656 0660 320100CA 		bgt	.L134
 657 0664 050051E3 		cmp	r1, #5
 658 0668 870100CA 		bgt	.L135
 659 066c 0391A0E1 		lsl	r9, r3, #2
 660 0670 01E0A0E3 		mov	lr, #1
 661 0674 089089E2 		add	r9, r9, #8
 662 0678 09A080E0 		add	r10, r0, r9
 663 067c 09908CE0 		add	r9, ip, r9
 664              	.L140:
 665 0680 010053E1 		cmp	r3, r1
 666 0684 04B03AE5 		ldr	fp, [r10, #-4]!
 667 0688 1C0200AA 		bge	.L136
 668 068c 048039E5 		ldr	r8, [r9, #-4]!
 669 0690 0B0058E1 		cmp	r8, fp
 670 0694 D600000A 		beq	.L514
 671 0698 000053E3 		cmp	r3, #0
 672 069c 0391A0A1 		lslge	r9, r3, #2
 673 06a0 089089A2 		addge	r9, r9, #8
 674 06a4 09A08CA0 		addge	r10, ip, r9
 675 06a8 099080A0 		addge	r9, r0, r9
 676 06ac 1CFFFFBA 		blt	.L97
 677              	.L156:
 678 06b0 04E03AE5 		ldr	lr, [r10, #-4]!
 679 06b4 01005EE3 		cmp	lr, #1
 680 06b8 EF00000A 		beq	.L515
 681              	.L153:
 682 06bc 030052E1 		cmp	r2, r3
 683 06c0 DF0000DA 		ble	.L164
 684 06c4 050052E3 		cmp	r2, #5
 685 06c8 00809CE5 		ldr	r8, [ip]
 686 06cc 400100CA 		bgt	.L165
 687 06d0 050058E3 		cmp	r8, #5
 688 06d4 960100CA 		bgt	.L166
 689 06d8 0311A0E1 		lsl	r1, r3, #2
 690 06dc 081081E2 		add	r1, r1, #8
 691 06e0 010080E0 		add	r0, r0, r1
 692 06e4 01C08CE0 		add	ip, ip, r1
 693              	.L171:
 694 06e8 080053E1 		cmp	r3, r8
 695 06ec 04E030E5 		ldr	lr, [r0, #-4]!
 696 06f0 040200AA 		bge	.L167
 697 06f4 04103CE5 		ldr	r1, [ip, #-4]!
 698 06f8 0E0051E1 		cmp	r1, lr
 699 06fc C600000A 		beq	.L516
 700              	.L168:
 701 0700 000053E3 		cmp	r3, #0
 702 0704 0430A0A3 		movge	r3, #4
 703 0708 0180A0A3 		movge	r8, #1
 704 070c 0030C4A5 		strbge	r3, [r4]
 705 0710 6AFFFFAA 		bge	.L91
 706 0714 02FFFFEA 		b	.L97
 707              	.L80:
 708 0718 0311A0E1 		lsl	r1, r3, #2
 709 071c 50208DE2 		add	r2, sp, #80
 710 0720 060053E1 		cmp	r3, r6
 711 0724 012082E0 		add	r2, r2, r1
 712 0728 2CC012E5 		ldr	ip, [r2, #-44]
 713 072c F20100AA 		bge	.L81
 714 0730 03E190E7 		ldr	lr, [r0, r3, lsl #2]
 715 0734 0C005EE1 		cmp	lr, ip
 716 0738 98FFFF1A 		bne	.L82
 717 073c 022055E2 		subs	r2, r5, #2
 718 0740 E2FEFF4A 		bmi	.L83
 719 0744 020057E1 		cmp	r7, r2
 720 0748 270000DA 		ble	.L77
 721 074c 50C08DE2 		add	ip, sp, #80
 722 0750 011080E0 		add	r1, r0, r1
 723 0754 02218CE0 		add	r2, ip, r2, lsl #2
 724 0758 04E011E5 		ldr	lr, [r1, #-4]
 725 075c 2CC012E5 		ldr	ip, [r2, #-44]
 726 0760 0C005EE1 		cmp	lr, ip
 727 0764 8DFFFF1A 		bne	.L82
 728 0768 032045E2 		sub	r2, r5, #3
 729 076c 010072E3 		cmn	r2, #1
 730 0770 D6FEFF0A 		beq	.L83
 731 0774 020057E1 		cmp	r7, r2
 732 0778 1B0000DA 		ble	.L77
 733 077c 50008DE2 		add	r0, sp, #80
 734 0780 08E011E5 		ldr	lr, [r1, #-8]
 735 0784 022180E0 		add	r2, r0, r2, lsl #2
 736 0788 2CC012E5 		ldr	ip, [r2, #-44]
 737 078c 0E005CE1 		cmp	ip, lr
 738 0790 82FFFF1A 		bne	.L82
 739 0794 042045E2 		sub	r2, r5, #4
 740 0798 010072E3 		cmn	r2, #1
 741 079c CBFEFF0A 		beq	.L83
 742 07a0 020057E1 		cmp	r7, r2
 743 07a4 100000DA 		ble	.L77
 744 07a8 022180E0 		add	r2, r0, r2, lsl #2
 745 07ac 0CE011E5 		ldr	lr, [r1, #-12]
 746 07b0 2CC012E5 		ldr	ip, [r2, #-44]
 747 07b4 0E005CE1 		cmp	ip, lr
 748 07b8 78FFFF1A 		bne	.L82
 749 07bc 052045E2 		sub	r2, r5, #5
 750 07c0 010072E3 		cmn	r2, #1
 751 07c4 C1FEFF0A 		beq	.L83
 752 07c8 020057E1 		cmp	r7, r2
 753 07cc 060000DA 		ble	.L77
 754 07d0 022180E0 		add	r2, r0, r2, lsl #2
 755 07d4 10E011E5 		ldr	lr, [r1, #-16]
 756 07d8 2CC012E5 		ldr	ip, [r2, #-44]
 757 07dc 0E005CE1 		cmp	ip, lr
 758 07e0 6EFFFF1A 		bne	.L82
 759 07e4 050055E3 		cmp	r5, #5
 760 07e8 B8FEFF0A 		beq	.L83
 761              	.L77:
 762              	.LEHB5:
 763 07ec FEFFFFEB 		bl	abort
 764              	.L84:
 765 07f0 0511A0E1 		lsl	r1, r5, #2
 766 07f4 0320A0E1 		mov	r2, r3
 767 07f8 018088E0 		add	r8, r8, r1
 768 07fc 011080E0 		add	r1, r0, r1
 769 0800 030000EA 		b	.L78
 770              	.L86:
 771 0804 012052E2 		subs	r2, r2, #1
 772 0808 B0FEFF3A 		bcc	.L83
 773 080c 070052E1 		cmp	r2, r7
 774 0810 F5FFFFAA 		bge	.L77
 775              	.L78:
 776 0814 020056E1 		cmp	r6, r2
 777 0818 04C038E5 		ldr	ip, [r8, #-4]!
 778 081c B60100DA 		ble	.L81
 779 0820 04E031E5 		ldr	lr, [r1, #-4]!
 780 0824 0E005CE1 		cmp	ip, lr
 781 0828 F5FFFF0A 		beq	.L86
 782 082c 5BFFFFEA 		b	.L82
 783              	.L511:
 784 0830 3C008DE2 		add	r0, sp, #60
 785 0834 5FFEFFEA 		b	.L197
 786              	.L66:
 787 0838 002096E5 		ldr	r2, [r6]
 788 083c 3C008DE2 		add	r0, sp, #60
 789 0840 5CFEFFEA 		b	.L197
 790              	.L87:
 791 0844 01005EE3 		cmp	lr, #1
 792 0848 0430A013 		movne	r3, #4
 793 084c 0180A013 		movne	r8, #1
 794 0850 0030C415 		strbne	r3, [r4]
 795 0854 19FFFF1A 		bne	.L91
 796 0858 0710A0E1 		mov	r1, r7
 797 085c 0620A0E1 		mov	r2, r6
 798 0860 38008DE2 		add	r0, sp, #56
 799 0864 20C08DE2 		add	ip, sp, #32
 800 0868 0380A0E3 		mov	r8, #3
 801 086c 50E084E5 		str	lr, [r4, #80]
 802 0870 54E084E5 		str	lr, [r4, #84]
 803 0874 58E084E5 		str	lr, [r4, #88]
 804 0878 5CE084E5 		str	lr, [r4, #92]
 805 087c 60E084E5 		str	lr, [r4, #96]
 806 0880 0080C4E5 		strb	r8, [r4]
 807              	.L90:
 808 0884 020053E1 		cmp	r3, r2
 809 0888 51FFFFBA 		blt	.L88
 810 088c 570000EA 		b	.L99
 811              	.L100:
 812 0890 050051E3 		cmp	r1, #5
 813 0894 280000CA 		bgt	.L108
 814 0898 049090E5 		ldr	r9, [r0, #4]
 815 089c 0581A0E1 		lsl	r8, r5, #2
 816 08a0 01E0A0E3 		mov	lr, #1
 817 08a4 08A08CE0 		add	r10, ip, r8
 818 08a8 089089E0 		add	r9, r9, r8
 819 08ac 040000EA 		b	.L109
 820              	.L517:
 821 08b0 980E0EE0 		mul	lr, r8, lr
 822 08b4 013043E2 		sub	r3, r3, #1
 823 08b8 010073E3 		cmn	r3, #1
 824 08bc 60E084E5 		str	lr, [r4, #96]
 825 08c0 97FEFF0A 		beq	.L97
 826              	.L109:
 827 08c4 010053E1 		cmp	r3, r1
 828 08c8 048039E5 		ldr	r8, [r9, #-4]!
 829 08cc 8F0100AA 		bge	.L102
 830 08d0 04B01AE4 		ldr	fp, [r10], #-4
 831 08d4 0B0058E1 		cmp	r8, fp
 832 08d8 4BFFFF1A 		bne	.L103
 833 08dc 010073E3 		cmn	r3, #1
 834 08e0 F2FFFF1A 		bne	.L517
 835              	.L104:
 836 08e4 FEFFFFEB 		bl	abort
 837              	.LEHE5:
 838              	.L101:
 839 08e8 059180E0 		add	r9, r0, r5, lsl #2
 840 08ec 01E0A0E3 		mov	lr, #1
 841 08f0 060000EA 		b	.L107
 842              	.L518:
 843 08f4 980E0EE0 		mul	lr, r8, lr
 844 08f8 013043E2 		sub	r3, r3, #1
 845 08fc 010073E3 		cmn	r3, #1
 846 0900 60E084E5 		str	lr, [r4, #96]
 847 0904 86FEFF0A 		beq	.L97
 848 0908 020053E1 		cmp	r3, r2
 849 090c 370000AA 		bge	.L99
 850              	.L107:
 851 0910 010053E1 		cmp	r3, r1
 852 0914 048019E4 		ldr	r8, [r9], #-4
 853 0918 7C0100AA 		bge	.L102
 854 091c 04B09CE5 		ldr	fp, [ip, #4]
 855 0920 00A049E0 		sub	r10, r9, r0
 856 0924 0AA09BE7 		ldr	r10, [fp, r10]
 857 0928 0A0058E1 		cmp	r8, r10
 858 092c 36FFFF1A 		bne	.L103
 859 0930 010073E3 		cmn	r3, #1
 860 0934 EEFFFF1A 		bne	.L518
 861 0938 E9FFFFEA 		b	.L104
 862              	.L108:
 863 093c 04B090E5 		ldr	fp, [r0, #4]
 864 0940 0180A0E3 		mov	r8, #1
 865 0944 00008DE5 		str	r0, [sp]
 866 0948 05918BE0 		add	r9, fp, r5, lsl #2
 867              	.L98:
 868 094c 010053E1 		cmp	r3, r1
 869 0950 04E039E5 		ldr	lr, [r9, #-4]!
 870 0954 6D0100AA 		bge	.L102
 871 0958 04009CE5 		ldr	r0, [ip, #4]
 872 095c 0BA049E0 		sub	r10, r9, fp
 873 0960 0AA090E7 		ldr	r10, [r0, r10]
 874 0964 0A005EE1 		cmp	lr, r10
 875 0968 4F00000A 		beq	.L519
 876 096c 00009DE5 		ldr	r0, [sp]
 877 0970 25FFFFEA 		b	.L103
 878              	.L234:
 879              	.L148:
 880 0974 050056E3 		cmp	r6, #5
 881 0978 030000DA 		ble	.L184
 882 097c 3C009DE5 		ldr	r0, [sp, #60]
 883 0980 000050E3 		cmp	r0, #0
 884 0984 0000000A 		beq	.L184
 885 0988 FEFFFFEB 		bl	_ZdaPv
 886              	.L184:
 887 098c 20309DE5 		ldr	r3, [sp, #32]
 888 0990 050053E3 		cmp	r3, #5
 889 0994 030000DA 		ble	.L186
 890 0998 24009DE5 		ldr	r0, [sp, #36]
 891 099c 000050E3 		cmp	r0, #0
 892 09a0 0000000A 		beq	.L186
 893 09a4 FEFFFFEB 		bl	_ZdaPv
 894              	.L186:
 895 09a8 050055E3 		cmp	r5, #5
 896 09ac 030000DA 		ble	.L187
 897              	.L188:
 898 09b0 0C009DE5 		ldr	r0, [sp, #12]
 899 09b4 000050E3 		cmp	r0, #0
 900 09b8 0000000A 		beq	.L187
 901 09bc FEFFFFEB 		bl	_ZdaPv
 902              	.L187:
 903              	.LEHB6:
 904 09c0 FEFFFFEB 		bl	__cxa_end_cleanup
 905              	.LEHE6:
 906              	.L230:
 907 09c4 F7FFFFEA 		b	.L186
 908              	.L231:
 909 09c8 EFFFFFEA 		b	.L184
 910              	.L512:
 911 09cc 010073E3 		cmn	r3, #1
 912 09d0 C3FFFF0A 		beq	.L104
 913 09d4 980E0EE0 		mul	lr, r8, lr
 914 09d8 013043E2 		sub	r3, r3, #1
 915 09dc 010073E3 		cmn	r3, #1
 916 09e0 60E084E5 		str	lr, [r4, #96]
 917 09e4 4EFEFF0A 		beq	.L97
 918 09e8 020053E1 		cmp	r3, r2
 919 09ec 00FFFFBA 		blt	.L106
 920              	.L99:
 921              	.LEHB7:
 922 09f0 FEFFFFEB 		bl	abort
 923              	.L514:
 924 09f4 010073E3 		cmn	r3, #1
 925 09f8 3D01000A 		beq	.L138
 926 09fc 980E0EE0 		mul	lr, r8, lr
 927 0a00 013043E2 		sub	r3, r3, #1
 928 0a04 010073E3 		cmn	r3, #1
 929 0a08 58E084E5 		str	lr, [r4, #88]
 930 0a0c 44FEFF0A 		beq	.L97
 931 0a10 020053E1 		cmp	r3, r2
 932 0a14 19FFFFBA 		blt	.L140
 933              	.L133:
 934 0a18 FEFFFFEB 		bl	abort
 935              	.L516:
 936 0a1c 010073E3 		cmn	r3, #1
 937 0a20 8100000A 		beq	.L169
 938 0a24 50E094E5 		ldr	lr, [r4, #80]
 939 0a28 013043E2 		sub	r3, r3, #1
 940 0a2c 010073E3 		cmn	r3, #1
 941 0a30 910E01E0 		mul	r1, r1, lr
 942 0a34 501084E5 		str	r1, [r4, #80]
 943 0a38 39FEFF0A 		beq	.L97
 944 0a3c 020053E1 		cmp	r3, r2
 945 0a40 28FFFFBA 		blt	.L171
 946              	.L164:
 947 0a44 FEFFFFEB 		bl	abort
 948              	.L513:
 949 0a48 010073E3 		cmn	r3, #1
 950 0a4c 3600000A 		beq	.L121
 951 0a50 010053E1 		cmp	r3, r1
 952 0a54 270100AA 		bge	.L122
 953 0a58 04903EE5 		ldr	r9, [lr, #-4]!
 954 0a5c 013043E2 		sub	r3, r3, #1
 955 0a60 010073E3 		cmn	r3, #1
 956 0a64 990808E0 		mul	r8, r9, r8
 957 0a68 5C8084E5 		str	r8, [r4, #92]
 958 0a6c 2CFEFF0A 		beq	.L97
 959 0a70 020053E1 		cmp	r3, r2
 960 0a74 F1FEFFBA 		blt	.L124
 961              	.L117:
 962 0a78 FEFFFFEB 		bl	abort
 963              	.L515:
 964 0a7c 020053E1 		cmp	r3, r2
 965 0a80 9F0000AA 		bge	.L154
 966 0a84 548094E5 		ldr	r8, [r4, #84]
 967 0a88 013043E2 		sub	r3, r3, #1
 968 0a8c 04E039E5 		ldr	lr, [r9, #-4]!
 969 0a90 010073E3 		cmn	r3, #1
 970 0a94 9E080EE0 		mul	lr, lr, r8
 971 0a98 54E084E5 		str	lr, [r4, #84]
 972 0a9c 20FEFF0A 		beq	.L97
 973 0aa0 010053E1 		cmp	r3, r1
 974 0aa4 01FFFFBA 		blt	.L156
 975              	.L157:
 976 0aa8 FEFFFFEB 		bl	abort
 977              	.L519:
 978 0aac 010073E3 		cmn	r3, #1
 979 0ab0 8BFFFF0A 		beq	.L104
 980 0ab4 980E08E0 		mul	r8, r8, lr
 981 0ab8 013043E2 		sub	r3, r3, #1
 982 0abc 010073E3 		cmn	r3, #1
 983 0ac0 608084E5 		str	r8, [r4, #96]
 984 0ac4 16FEFF0A 		beq	.L97
 985 0ac8 020053E1 		cmp	r3, r2
 986 0acc 9EFFFFBA 		blt	.L98
 987 0ad0 C6FFFFEA 		b	.L99
 988              	.L118:
 989 0ad4 050051E3 		cmp	r1, #5
 990 0ad8 AA0000CA 		bgt	.L126
 991 0adc 0381A0E1 		lsl	r8, r3, #2
 992 0ae0 04A090E5 		ldr	r10, [r0, #4]
 993 0ae4 01E0A0E3 		mov	lr, #1
 994 0ae8 089088E2 		add	r9, r8, #8
 995 0aec 09908CE0 		add	r9, ip, r9
 996 0af0 08A08AE0 		add	r10, r10, r8
 997 0af4 070000EA 		b	.L127
 998              	.L520:
 999 0af8 010053E1 		cmp	r3, r1
 1000 0afc FD0000AA 		bge	.L122
 1001 0b00 048039E5 		ldr	r8, [r9, #-4]!
 1002 0b04 013043E2 		sub	r3, r3, #1
 1003 0b08 010073E3 		cmn	r3, #1
 1004 0b0c 980E0EE0 		mul	lr, r8, lr
 1005 0b10 5CE084E5 		str	lr, [r4, #92]
 1006 0b14 02FEFF0A 		beq	.L97
 1007              	.L127:
 1008 0b18 04801AE4 		ldr	r8, [r10], #-4
 1009 0b1c 010058E3 		cmp	r8, #1
 1010 0b20 C9FEFF1A 		bne	.L120
 1011 0b24 010073E3 		cmn	r3, #1
 1012 0b28 F2FFFF1A 		bne	.L520
 1013              	.L121:
 1014 0b2c FEFFFFEB 		bl	abort
 1015              	.LEHE7:
 1016              	.L134:
 1017 0b30 050051E3 		cmp	r1, #5
 1018 0b34 A90000CA 		bgt	.L143
 1019 0b38 0381A0E1 		lsl	r8, r3, #2
 1020 0b3c 04A090E5 		ldr	r10, [r0, #4]
 1021 0b40 01E0A0E3 		mov	lr, #1
 1022 0b44 089088E2 		add	r9, r8, #8
 1023 0b48 09908CE0 		add	r9, ip, r9
 1024 0b4c 08A08AE0 		add	r10, r10, r8
 1025              	.L145:
 1026 0b50 010053E1 		cmp	r3, r1
 1027 0b54 04801AE4 		ldr	r8, [r10], #-4
 1028 0b58 E80000AA 		bge	.L136
 1029 0b5c 04B039E5 		ldr	fp, [r9, #-4]!
 1030 0b60 0B0058E1 		cmp	r8, fp
 1031 0b64 1200000A 		beq	.L521
 1032 0b68 000053E3 		cmp	r3, #0
 1033 0b6c 019083A2 		addge	r9, r3, #1
 1034 0b70 09918CA0 		addge	r9, ip, r9, lsl #2
 1035 0b74 EAFDFFBA 		blt	.L97
 1036              	.L158:
 1037 0b78 04E019E4 		ldr	lr, [r9], #-4
 1038 0b7c 01005EE3 		cmp	lr, #1
 1039 0b80 CDFEFF1A 		bne	.L153
 1040 0b84 04E090E5 		ldr	lr, [r0, #4]
 1041 0b88 0C8049E0 		sub	r8, r9, ip
 1042 0b8c 54A094E5 		ldr	r10, [r4, #84]
 1043 0b90 013043E2 		sub	r3, r3, #1
 1044 0b94 010073E3 		cmn	r3, #1
 1045 0b98 08E09EE7 		ldr	lr, [lr, r8]
 1046 0b9c 9E0A0EE0 		mul	lr, lr, r10
 1047 0ba0 54E084E5 		str	lr, [r4, #84]
 1048 0ba4 DEFDFF0A 		beq	.L97
 1049 0ba8 010053E1 		cmp	r3, r1
 1050 0bac F1FFFFBA 		blt	.L158
 1051 0bb0 BCFFFFEA 		b	.L157
 1052              	.L521:
 1053 0bb4 010073E3 		cmn	r3, #1
 1054 0bb8 CD00000A 		beq	.L138
 1055 0bbc 9E080EE0 		mul	lr, lr, r8
 1056 0bc0 013043E2 		sub	r3, r3, #1
 1057 0bc4 010073E3 		cmn	r3, #1
 1058 0bc8 58E084E5 		str	lr, [r4, #88]
 1059 0bcc DFFFFF1A 		bne	.L145
 1060 0bd0 D3FDFFEA 		b	.L97
 1061              	.L165:
 1062 0bd4 050058E3 		cmp	r8, #5
 1063 0bd8 AF0000CA 		bgt	.L173
 1064 0bdc 0311A0E1 		lsl	r1, r3, #2
 1065 0be0 040090E5 		ldr	r0, [r0, #4]
 1066 0be4 082081E2 		add	r2, r1, #8
 1067 0be8 010080E0 		add	r0, r0, r1
 1068 0bec 02C08CE0 		add	ip, ip, r2
 1069 0bf0 050000EA 		b	.L174
 1070              	.L522:
 1071 0bf4 501094E5 		ldr	r1, [r4, #80]
 1072 0bf8 013043E2 		sub	r3, r3, #1
 1073 0bfc 010073E3 		cmn	r3, #1
 1074 0c00 920102E0 		mul	r2, r2, r1
 1075 0c04 502084E5 		str	r2, [r4, #80]
 1076 0c08 C5FDFF0A 		beq	.L97
 1077              	.L174:
 1078 0c0c 080053E1 		cmp	r3, r8
 1079 0c10 041010E4 		ldr	r1, [r0], #-4
 1080 0c14 BB0000AA 		bge	.L167
 1081 0c18 04203CE5 		ldr	r2, [ip, #-4]!
 1082 0c1c 010052E1 		cmp	r2, r1
 1083 0c20 B6FEFF1A 		bne	.L168
 1084 0c24 010073E3 		cmn	r3, #1
 1085 0c28 F1FFFF1A 		bne	.L522
 1086              	.L169:
 1087              	.LEHB8:
 1088 0c2c FEFFFFEB 		bl	abort
 1089              	.LEHE8:
 1090              	.L232:
 1091              	.L491:
 1092 0c30 38609DE5 		ldr	r6, [sp, #56]
 1093 0c34 4EFFFFEA 		b	.L148
 1094              	.L119:
 1095 0c38 019083E2 		add	r9, r3, #1
 1096 0c3c 01E0A0E3 		mov	lr, #1
 1097 0c40 099180E0 		add	r9, r0, r9, lsl #2
 1098              	.L125:
 1099 0c44 048019E4 		ldr	r8, [r9], #-4
 1100 0c48 010058E3 		cmp	r8, #1
 1101 0c4c 7EFEFF1A 		bne	.L120
 1102 0c50 010073E3 		cmn	r3, #1
 1103 0c54 B4FFFF0A 		beq	.L121
 1104 0c58 010053E1 		cmp	r3, r1
 1105 0c5c A50000AA 		bge	.L122
 1106 0c60 04A09CE5 		ldr	r10, [ip, #4]
 1107 0c64 008049E0 		sub	r8, r9, r0
 1108 0c68 013043E2 		sub	r3, r3, #1
 1109 0c6c 010073E3 		cmn	r3, #1
 1110 0c70 08809AE7 		ldr	r8, [r10, r8]
 1111 0c74 980E0EE0 		mul	lr, r8, lr
 1112 0c78 5CE084E5 		str	lr, [r4, #92]
 1113 0c7c A8FDFF0A 		beq	.L97
 1114 0c80 020053E1 		cmp	r3, r2
 1115 0c84 EEFFFFBA 		blt	.L125
 1116 0c88 7AFFFFEA 		b	.L117
 1117              	.L135:
 1118 0c8c 019083E2 		add	r9, r3, #1
 1119 0c90 01E0A0E3 		mov	lr, #1
 1120 0c94 099180E0 		add	r9, r0, r9, lsl #2
 1121              	.L142:
 1122 0c98 010053E1 		cmp	r3, r1
 1123 0c9c 04B019E4 		ldr	fp, [r9], #-4
 1124 0ca0 960000AA 		bge	.L136
 1125 0ca4 04A09CE5 		ldr	r10, [ip, #4]
 1126 0ca8 008049E0 		sub	r8, r9, r0
 1127 0cac 08809AE7 		ldr	r8, [r10, r8]
 1128 0cb0 0B0058E1 		cmp	r8, fp
 1129 0cb4 1400000A 		beq	.L523
 1130 0cb8 000053E3 		cmp	r3, #0
 1131 0cbc 0391A0A1 		lslge	r9, r3, #2
 1132 0cc0 088089A2 		addge	r8, r9, #8
 1133 0cc4 09908AA0 		addge	r9, r10, r9
 1134 0cc8 088080A0 		addge	r8, r0, r8
 1135 0ccc 070000AA 		bge	.L159
 1136 0cd0 93FDFFEA 		b	.L97
 1137              	.L524:
 1138 0cd4 54E094E5 		ldr	lr, [r4, #84]
 1139 0cd8 013043E2 		sub	r3, r3, #1
 1140 0cdc 041038E5 		ldr	r1, [r8, #-4]!
 1141 0ce0 010073E3 		cmn	r3, #1
 1142 0ce4 910E01E0 		mul	r1, r1, lr
 1143 0ce8 541084E5 		str	r1, [r4, #84]
 1144 0cec 8CFDFF0A 		beq	.L97
 1145              	.L159:
 1146 0cf0 041019E4 		ldr	r1, [r9], #-4
 1147 0cf4 010051E3 		cmp	r1, #1
 1148 0cf8 6FFEFF1A 		bne	.L153
 1149 0cfc 020053E1 		cmp	r3, r2
 1150 0d00 F3FFFFBA 		blt	.L524
 1151              	.L154:
 1152              	.LEHB9:
 1153 0d04 FEFFFFEB 		bl	abort
 1154              	.LEHE9:
 1155              	.L236:
 1156 0d08 C8FFFFEA 		b	.L491
 1157              	.L523:
 1158 0d0c 010073E3 		cmn	r3, #1
 1159 0d10 7700000A 		beq	.L138
 1160 0d14 9E080EE0 		mul	lr, lr, r8
 1161 0d18 013043E2 		sub	r3, r3, #1
 1162 0d1c 010073E3 		cmn	r3, #1
 1163 0d20 58E084E5 		str	lr, [r4, #88]
 1164 0d24 7EFDFF0A 		beq	.L97
 1165 0d28 020053E1 		cmp	r3, r2
 1166 0d2c D9FFFFBA 		blt	.L142
 1167 0d30 38FFFFEA 		b	.L133
 1168              	.L166:
 1169 0d34 019083E2 		add	r9, r3, #1
 1170 0d38 099180E0 		add	r9, r0, r9, lsl #2
 1171              	.L172:
 1172 0d3c 080053E1 		cmp	r3, r8
 1173 0d40 04E019E4 		ldr	lr, [r9], #-4
 1174 0d44 6F0000AA 		bge	.L167
 1175 0d48 04A09CE5 		ldr	r10, [ip, #4]
 1176 0d4c 001049E0 		sub	r1, r9, r0
 1177 0d50 01109AE7 		ldr	r1, [r10, r1]
 1178 0d54 0E0051E1 		cmp	r1, lr
 1179 0d58 68FEFF1A 		bne	.L168
 1180 0d5c 010073E3 		cmn	r3, #1
 1181 0d60 B1FFFF0A 		beq	.L169
 1182 0d64 50E094E5 		ldr	lr, [r4, #80]
 1183 0d68 013043E2 		sub	r3, r3, #1
 1184 0d6c 010073E3 		cmn	r3, #1
 1185 0d70 910E01E0 		mul	r1, r1, lr
 1186 0d74 501084E5 		str	r1, [r4, #80]
 1187 0d78 69FDFF0A 		beq	.L97
 1188 0d7c 020053E1 		cmp	r3, r2
 1189 0d80 EDFFFFBA 		blt	.L172
 1190 0d84 2EFFFFEA 		b	.L164
 1191              	.L126:
 1192 0d88 049090E5 		ldr	r9, [r0, #4]
 1193 0d8c 01E0A0E3 		mov	lr, #1
 1194 0d90 04A069E2 		rsb	r10, r9, #4
 1195 0d94 039189E0 		add	r9, r9, r3, lsl #2
 1196              	.L116:
 1197 0d98 048019E4 		ldr	r8, [r9], #-4
 1198 0d9c 010058E3 		cmp	r8, #1
 1199 0da0 29FEFF1A 		bne	.L120
 1200 0da4 010073E3 		cmn	r3, #1
 1201 0da8 5FFFFF0A 		beq	.L121
 1202 0dac 010053E1 		cmp	r3, r1
 1203 0db0 500000AA 		bge	.L122
 1204 0db4 04809CE5 		ldr	r8, [ip, #4]
 1205 0db8 013043E2 		sub	r3, r3, #1
 1206 0dbc 010073E3 		cmn	r3, #1
 1207 0dc0 098088E0 		add	r8, r8, r9
 1208 0dc4 0A8098E7 		ldr	r8, [r8, r10]
 1209 0dc8 980E0EE0 		mul	lr, r8, lr
 1210 0dcc 5CE084E5 		str	lr, [r4, #92]
 1211 0dd0 53FDFF0A 		beq	.L97
 1212 0dd4 020053E1 		cmp	r3, r2
 1213 0dd8 EEFFFFBA 		blt	.L116
 1214 0ddc 25FFFFEA 		b	.L117
 1215              	.L143:
 1216 0de0 049090E5 		ldr	r9, [r0, #4]
 1217 0de4 0180A0E3 		mov	r8, #1
 1218 0de8 04008DE5 		str	r0, [sp, #4]
 1219 0dec 04E069E2 		rsb	lr, r9, #4
 1220 0df0 039189E0 		add	r9, r9, r3, lsl #2
 1221 0df4 00E08DE5 		str	lr, [sp]
 1222              	.L132:
 1223 0df8 010053E1 		cmp	r3, r1
 1224 0dfc 04E019E4 		ldr	lr, [r9], #-4
 1225 0e00 3E0000AA 		bge	.L136
 1226 0e04 04A09CE5 		ldr	r10, [ip, #4]
 1227 0e08 00009DE5 		ldr	r0, [sp]
 1228 0e0c 09B08AE0 		add	fp, r10, r9
 1229 0e10 00B09BE7 		ldr	fp, [fp, r0]
 1230 0e14 0B005EE1 		cmp	lr, fp
 1231 0e18 1500000A 		beq	.L525
 1232 0e1c 000053E3 		cmp	r3, #0
 1233 0e20 04009DE5 		ldr	r0, [sp, #4]
 1234 0e24 03918AA0 		addge	r9, r10, r3, lsl #2
 1235 0e28 04A06AA2 		rsbge	r10, r10, #4
 1236 0e2c 3CFDFFBA 		blt	.L97
 1237              	.L152:
 1238 0e30 04E019E4 		ldr	lr, [r9], #-4
 1239 0e34 01005EE3 		cmp	lr, #1
 1240 0e38 1FFEFF1A 		bne	.L153
 1241 0e3c 020053E1 		cmp	r3, r2
 1242 0e40 AFFFFFAA 		bge	.L154
 1243 0e44 048090E5 		ldr	r8, [r0, #4]
 1244 0e48 013043E2 		sub	r3, r3, #1
 1245 0e4c 54B094E5 		ldr	fp, [r4, #84]
 1246 0e50 010073E3 		cmn	r3, #1
 1247 0e54 098088E0 		add	r8, r8, r9
 1248 0e58 0AE098E7 		ldr	lr, [r8, r10]
 1249 0e5c 9E0B0EE0 		mul	lr, lr, fp
 1250 0e60 54E084E5 		str	lr, [r4, #84]
 1251 0e64 2EFDFF0A 		beq	.L97
 1252 0e68 010053E1 		cmp	r3, r1
 1253 0e6c EFFFFFBA 		blt	.L152
 1254 0e70 0CFFFFEA 		b	.L157
 1255              	.L525:
 1256 0e74 010073E3 		cmn	r3, #1
 1257 0e78 1D00000A 		beq	.L138
 1258 0e7c 980E08E0 		mul	r8, r8, lr
 1259 0e80 013043E2 		sub	r3, r3, #1
 1260 0e84 010073E3 		cmn	r3, #1
 1261 0e88 588084E5 		str	r8, [r4, #88]
 1262 0e8c 24FDFF0A 		beq	.L97
 1263 0e90 020053E1 		cmp	r3, r2
 1264 0e94 D7FFFFBA 		blt	.L132
 1265 0e98 DEFEFFEA 		b	.L133
 1266              	.L173:
 1267 0e9c 04E090E5 		ldr	lr, [r0, #4]
 1268 0ea0 04906EE2 		rsb	r9, lr, #4
 1269 0ea4 03E18EE0 		add	lr, lr, r3, lsl #2
 1270              	.L163:
 1271 0ea8 080053E1 		cmp	r3, r8
 1272 0eac 04A01EE4 		ldr	r10, [lr], #-4
 1273 0eb0 140000AA 		bge	.L167
 1274 0eb4 04009CE5 		ldr	r0, [ip, #4]
 1275 0eb8 0E0080E0 		add	r0, r0, lr
 1276 0ebc 091090E7 		ldr	r1, [r0, r9]
 1277 0ec0 01005AE1 		cmp	r10, r1
 1278 0ec4 0DFEFF1A 		bne	.L168
 1279 0ec8 010073E3 		cmn	r3, #1
 1280 0ecc 56FFFF0A 		beq	.L169
 1281 0ed0 501094E5 		ldr	r1, [r4, #80]
 1282 0ed4 013043E2 		sub	r3, r3, #1
 1283 0ed8 010073E3 		cmn	r3, #1
 1284 0edc 9A0101E0 		mul	r1, r10, r1
 1285 0ee0 501084E5 		str	r1, [r4, #80]
 1286 0ee4 0EFDFF0A 		beq	.L97
 1287 0ee8 020053E1 		cmp	r3, r2
 1288 0eec EDFFFFBA 		blt	.L163
 1289 0ef0 D3FEFFEA 		b	.L164
 1290              	.L138:
 1291              	.LEHB10:
 1292 0ef4 FEFFFFEB 		bl	abort
 1293              	.L122:
 1294 0ef8 FEFFFFEB 		bl	abort
 1295              	.L81:
 1296 0efc FEFFFFEB 		bl	abort
 1297              	.LEHE10:
 1298              	.L136:
 1299              	.LEHB11:
 1300 0f00 FEFFFFEB 		bl	abort
 1301              	.LEHE11:
 1302              	.L235:
 1303 0f04 49FFFFEA 		b	.L491
 1304              	.L167:
 1305              	.LEHB12:
 1306 0f08 FEFFFFEB 		bl	abort
 1307              	.LEHE12:
 1308              	.L237:
 1309 0f0c 47FFFFEA 		b	.L491
 1310              	.L102:
 1311              	.LEHB13:
 1312 0f10 FEFFFFEB 		bl	abort
 1313              	.LEHE13:
 1314              	.L49:
 1315              	.LEHB14:
 1316 0f14 FEFFFFEB 		bl	__cxa_throw_bad_array_new_length
 1317              	.LEHE14:
 1318              	.L233:
 1319 0f18 A4FEFFEA 		b	.L188
 1320              	.L506:
 1321              	.LEHB15:
 1322 0f1c FEFFFFEB 		bl	abort
 1323              	.LEHE15:
 1324              	.L504:
 1325              	.LEHB16:
 1326 0f20 FEFFFFEB 		bl	abort
 1327              	.L508:
 1328 0f24 050053E1 		cmp	r3, r5
 1329 0f28 0020A0E3 		mov	r2, #0
 1330 0f2c 20208DE5 		str	r2, [sp, #32]
 1331 0f30 0320A0E1 		mov	r2, r3
 1332 0f34 15FDFFCA 		bgt	.L43
 1333 0f38 050055E3 		cmp	r5, #5
 1334 0f3c 20508DE5 		str	r5, [sp, #32]
 1335 0f40 62FCFFCA 		bgt	.L201
 1336 0f44 13FDFFEA 		b	.L48
 1337              	.L61:
 1338 0f48 FEFFFFEB 		bl	__cxa_throw_bad_array_new_length
 1339              	.LEHE16:
 1340              	.L510:
 1341 0f4c 24008DE2 		add	r0, sp, #36
 1342 0f50 75FCFFEA 		b	.L195
 1343              	.L39:
 1344              	.LEHB17:
 1345 0f54 FEFFFFEB 		bl	__cxa_throw_bad_array_new_length
 1346              	.LEHE17:
 1347              		.global	__gxx_personality_v0
 1348              		.personality	__gxx_personality_v0
 1349              		.handlerdata
 1350              	.LLSDA4162:
 1351 0008 FF       		.byte	0xff
 1352 0009 FF       		.byte	0xff
 1353 000a 01       		.byte	0x1
 1354 000b 6B       		.uleb128 .LLSDACSE4162-.LLSDACSB4162
 1355              	.LLSDACSB4162:
 1356 000c 40       		.uleb128 .LEHB0-.LFB4162
 1357 000d 04       		.uleb128 .LEHE0-.LEHB0
 1358 000e 00       		.uleb128 0
 1359 000f 00       		.uleb128 0
 1360 0010 DC01     		.uleb128 .LEHB1-.LFB4162
 1361 0012 04       		.uleb128 .LEHE1-.LEHB1
 1362 0013 981E     		.uleb128 .L233-.LFB4162
 1363 0015 00       		.uleb128 0
 1364 0016 F002     		.uleb128 .LEHB2-.LFB4162
 1365 0018 04       		.uleb128 .LEHE2-.LEHB2
 1366 0019 C813     		.uleb128 .L231-.LFB4162
 1367 001b 00       		.uleb128 0
 1368 001c 9007     		.uleb128 .LEHB3-.LFB4162
 1369 001e 8001     		.uleb128 .LEHE3-.LEHB3
 1370 0020 C413     		.uleb128 .L230-.LFB4162
 1371 0022 00       		.uleb128 0
 1372 0023 9009     		.uleb128 .LEHB4-.LFB4162
 1373 0025 04       		.uleb128 .LEHE4-.LEHB4
 1374 0026 C813     		.uleb128 .L231-.LFB4162
 1375 0028 00       		.uleb128 0
 1376 0029 EC0F     		.uleb128 .LEHB5-.LFB4162
 1377 002b FC01     		.uleb128 .LEHE5-.LEHB5
 1378 002d F412     		.uleb128 .L234-.LFB4162
 1379 002f 00       		.uleb128 0
 1380 0030 C013     		.uleb128 .LEHB6-.LFB4162
 1381 0032 04       		.uleb128 .LEHE6-.LEHB6
 1382 0033 00       		.uleb128 0
 1383 0034 00       		.uleb128 0
 1384 0035 F013     		.uleb128 .LEHB7-.LFB4162
 1385 0037 C002     		.uleb128 .LEHE7-.LEHB7
 1386 0039 F412     		.uleb128 .L234-.LFB4162
 1387 003b 00       		.uleb128 0
 1388 003c AC18     		.uleb128 .LEHB8-.LFB4162
 1389 003e 04       		.uleb128 .LEHE8-.LEHB8
 1390 003f B018     		.uleb128 .L232-.LFB4162
 1391 0041 00       		.uleb128 0
 1392 0042 841A     		.uleb128 .LEHB9-.LFB4162
 1393 0044 04       		.uleb128 .LEHE9-.LEHB9
 1394 0045 881A     		.uleb128 .L236-.LFB4162
 1395 0047 00       		.uleb128 0
 1396 0048 F41D     		.uleb128 .LEHB10-.LFB4162
 1397 004a 0C       		.uleb128 .LEHE10-.LEHB10
 1398 004b F412     		.uleb128 .L234-.LFB4162
 1399 004d 00       		.uleb128 0
 1400 004e 801E     		.uleb128 .LEHB11-.LFB4162
 1401 0050 04       		.uleb128 .LEHE11-.LEHB11
 1402 0051 841E     		.uleb128 .L235-.LFB4162
 1403 0053 00       		.uleb128 0
 1404 0054 881E     		.uleb128 .LEHB12-.LFB4162
 1405 0056 04       		.uleb128 .LEHE12-.LEHB12
 1406 0057 8C1E     		.uleb128 .L237-.LFB4162
 1407 0059 00       		.uleb128 0
 1408 005a 901E     		.uleb128 .LEHB13-.LFB4162
 1409 005c 04       		.uleb128 .LEHE13-.LEHB13
 1410 005d F412     		.uleb128 .L234-.LFB4162
 1411 005f 00       		.uleb128 0
 1412 0060 941E     		.uleb128 .LEHB14-.LFB4162
 1413 0062 04       		.uleb128 .LEHE14-.LEHB14
 1414 0063 981E     		.uleb128 .L233-.LFB4162
 1415 0065 00       		.uleb128 0
 1416 0066 9C1E     		.uleb128 .LEHB15-.LFB4162
 1417 0068 04       		.uleb128 .LEHE15-.LEHB15
 1418 0069 F412     		.uleb128 .L234-.LFB4162
 1419 006b 00       		.uleb128 0
 1420 006c A01E     		.uleb128 .LEHB16-.LFB4162
 1421 006e 2C       		.uleb128 .LEHE16-.LEHB16
 1422 006f C813     		.uleb128 .L231-.LFB4162
 1423 0071 00       		.uleb128 0
 1424 0072 D41E     		.uleb128 .LEHB17-.LFB4162
 1425 0074 04       		.uleb128 .LEHE17-.LEHB17
 1426 0075 00       		.uleb128 0
 1427 0076 00       		.uleb128 0
 1428              	.LLSDACSE4162:
 1429              		.section	.text._ZN6tflite13reference_ops22ProcessBroadcastShapesERKNS_12RuntimeShapeES3_PNS_16Arit
 1430              		.fnend
 1432              		.section	.text._ZN6tflite3ops5micro3add15CalculateOpDataEP13TfLiteContextP15TfLiteAddParamsPK12TfL
 1433              		.align	2
 1434              		.global	_ZN6tflite3ops5micro3add15CalculateOpDataEP13TfLiteContextP15TfLiteAddParamsPK12TfLiteTens
 1435              		.syntax unified
 1436              		.arm
 1437              		.fpu neon
 1439              	_ZN6tflite3ops5micro3add15CalculateOpDataEP13TfLiteContextP15TfLiteAddParamsPK12TfLiteTensorS9_PS7_
 1440              		.fnstart
 1441              	.LFB9030:
 1442              		@ args = 8, pretend = 0, frame = 0
 1443              		@ frame_needed = 0, uses_anonymous_args = 0
 1444 0000 F0472DE9 		push	{r4, r5, r6, r7, r8, r9, r10, lr}
 1445              		.save {r4, r5, r6, r7, r8, r9, r10, lr}
 1446 0004 0090A0E1 		mov	r9, r0
 1447 0008 048B2DED 		vpush.64	{d8, d9}
 1448              		.vsave {d8, d9}
 1449 000c 0180A0E1 		mov	r8, r1
 1450 0010 0200A0E1 		mov	r0, r2
 1451 0014 0310A0E1 		mov	r1, r3
 1452 0018 30509DE5 		ldr	r5, [sp, #48]
 1453 001c 0270A0E1 		mov	r7, r2
 1454 0020 34409DE5 		ldr	r4, [sp, #52]
 1455 0024 0360A0E1 		mov	r6, r3
 1456 0028 FEFFFFEB 		bl	_ZN6tflite14HaveSameShapesEPK12TfLiteTensorS2_
 1457 002c 0010D5E5 		ldrb	r1, [r5]	@ zero_extendqisi2
 1458 0030 010020E2 		eor	r0, r0, #1
 1459 0034 0000C4E5 		strb	r0, [r4]
 1460 0038 090051E3 		cmp	r1, #9
 1461 003c 03005113 		cmpne	r1, #3
 1462 0040 2D00001A 		bne	.L527
 1463 0044 036AD6ED 		vldr.32	s13, [r6, #12]
 1464 0048 14C0A0E3 		mov	ip, #20
 1465 004c 037AD7ED 		vldr.32	s15, [r7, #12]
 1466 0050 0C0084E0 		add	r0, r4, ip
 1467 0054 037A95ED 		vldr.32	s14, [r5, #12]
 1468 0058 041084E2 		add	r1, r4, #4
 1469 005c 493BDFED 		vldr.64	d19, .L541
 1470 0060 E62AF7EE 		vcvt.f64.f32	d18, s13
 1471 0064 E67AF4EE 		vcmpe.f32	s15, s13
 1472 0068 10FAF1EE 		vmrs	APSR_nzcv, FPSCR
 1473 006c E70AB7EE 		vcvt.f64.f32	d0, s15
 1474 0070 667AF04E 		vmovmi.f32	s15, s13
 1475 0074 E70AF7EE 		vcvt.f64.f32	d16, s15
 1476 0078 C71AF7EE 		vcvt.f64.f32	d17, s14
 1477 007c 102097E5 		ldr	r2, [r7, #16]
 1478 0080 103096E5 		ldr	r3, [r6, #16]
 1479 0084 A00B70EE 		vadd.f64	d16, d16, d16
 1480 0088 A31B61EE 		vmul.f64	d17, d17, d19
 1481 008c 002062E2 		rsb	r2, r2, #0
 1482 0090 282084E5 		str	r2, [r4, #40]
 1483 0094 003063E2 		rsb	r3, r3, #0
 1484 0098 102095E5 		ldr	r2, [r5, #16]
 1485 009c 200B80EE 		vdiv.f64	d0, d0, d16
 1486 00a0 A09B82EE 		vdiv.f64	d9, d18, d16
 1487 00a4 A18B80EE 		vdiv.f64	d8, d16, d17
 1488 00a8 2C3084E5 		str	r3, [r4, #44]
 1489 00ac 302084E5 		str	r2, [r4, #48]
 1490 00b0 24C084E5 		str	ip, [r4, #36]
 1491 00b4 FEFFFFEB 		bl	_ZN6tflite35QuantizeMultiplierSmallerThanOneExpEdPlPi
 1492 00b8 081084E2 		add	r1, r4, #8
 1493 00bc 180084E2 		add	r0, r4, #24
 1494 00c0 490BB0EE 		vmov.f64	d0, d9
 1495 00c4 FEFFFFEB 		bl	_ZN6tflite35QuantizeMultiplierSmallerThanOneExpEdPlPi
 1496 00c8 201084E2 		add	r1, r4, #32
 1497 00cc 1C0084E2 		add	r0, r4, #28
 1498 00d0 480BB0EE 		vmov.f64	d0, d8
 1499 00d4 FEFFFFEB 		bl	_ZN6tflite35QuantizeMultiplierSmallerThanOneExpEdPlPi
 1500 00d8 103084E2 		add	r3, r4, #16
 1501 00dc 0010D8E5 		ldrb	r1, [r8]	@ zero_extendqisi2
 1502 00e0 30308DE5 		str	r3, [sp, #48]
 1503 00e4 0520A0E1 		mov	r2, r5
 1504 00e8 048BBDEC 		vldm	sp!, {d8-d9}
 1505 00ec 0900A0E1 		mov	r0, r9
 1506 00f0 0C3084E2 		add	r3, r4, #12
 1507 00f4 F047BDE8 		pop	{r4, r5, r6, r7, r8, r9, r10, lr}
 1508 00f8 FEFFFFEA 		b	_ZN6tflite33CalculateActivationRangeQuantizedEP13TfLiteContext21TfLiteFusedActivationP12TfLiteTe
 1509              	.L527:
 1510 00fc 010051E3 		cmp	r1, #1
 1511 0100 0200000A 		beq	.L538
 1512              	.L530:
 1513 0104 048BBDEC 		vldm	sp!, {d8-d9}
 1514 0108 0000A0E3 		mov	r0, #0
 1515 010c F087BDE8 		pop	{r4, r5, r6, r7, r8, r9, r10, pc}
 1516              	.L538:
 1517 0110 0030D8E5 		ldrb	r3, [r8]	@ zero_extendqisi2
 1518 0114 010053E3 		cmp	r3, #1
 1519 0118 0D00000A 		beq	.L539
 1520 011c 030053E3 		cmp	r3, #3
 1521 0120 1100000A 		beq	.L540
 1522 0124 048BBDEC 		vldm	sp!, {d8-d9}
 1523 0128 020053E3 		cmp	r3, #2
 1524 012c 0020A003 		moveq	r2, #0
 1525 0130 FF3F0F13 		movwne	r3, #65535
 1526 0134 802F4B03 		movteq	r2, 49024
 1527 0138 FE35A003 		moveq	r3, #1065353216
 1528 013c 0225E013 		mvnne	r2, #8388608
 1529 0140 7F3F4713 		movtne	r3, 32639
 1530 0144 0000A0E3 		mov	r0, #0
 1531 0148 342084E5 		str	r2, [r4, #52]	@ float
 1532 014c 383084E5 		str	r3, [r4, #56]	@ float
 1533 0150 F087BDE8 		pop	{r4, r5, r6, r7, r8, r9, r10, pc}
 1534              	.L539:
 1535 0154 FF3F0FE3 		movw	r3, #65535
 1536 0158 0020A0E3 		mov	r2, #0
 1537 015c 7F3F47E3 		movt	r3, 32639
 1538 0160 342084E5 		str	r2, [r4, #52]	@ float
 1539 0164 383084E5 		str	r3, [r4, #56]	@ float
 1540 0168 E5FFFFEA 		b	.L530
 1541              	.L540:
 1542 016c 0030A0E3 		mov	r3, #0
 1543 0170 0020A0E3 		mov	r2, #0
 1544 0174 C03044E3 		movt	r3, 16576
 1545 0178 342084E5 		str	r2, [r4, #52]	@ float
 1546 017c 383084E5 		str	r3, [r4, #56]	@ float
 1547 0180 DFFFFFEA 		b	.L530
 1548              	.L542:
 1549 0184 00F020E3 		.align	3
 1550              	.L541:
 1551 0188 00000000 		.word	0
 1552 018c 00003041 		.word	1093664768
 1553              		.fnend
 1555              		.section	.text._ZN6tflite3ops5micro3add7EvalAddEP13TfLiteContextP10TfLiteNodeP15TfLiteAddParamsPKN
 1556              		.align	2
 1557              		.global	_ZN6tflite3ops5micro3add7EvalAddEP13TfLiteContextP10TfLiteNodeP15TfLiteAddParamsPKNS2_6OpD
 1558              		.syntax unified
 1559              		.arm
 1560              		.fpu neon
 1562              	_ZN6tflite3ops5micro3add7EvalAddEP13TfLiteContextP10TfLiteNodeP15TfLiteAddParamsPKNS2_6OpDataEPK16T
 1563              		.fnstart
 1564              	.LFB9031:
 1565              		@ args = 12, pretend = 0, frame = 320
 1566              		@ frame_needed = 0, uses_anonymous_args = 0
 1567 0000 0020D3E5 		ldrb	r2, [r3]	@ zero_extendqisi2
 1568 0004 F04F2DE9 		push	{r4, r5, r6, r7, r8, r9, r10, fp, lr}
 1569              		.save {r4, r5, r6, r7, r8, r9, r10, fp, lr}
 1570 0008 028B2DED 		vpush.64	{d8}
 1571              		.vsave {d8}
 1572              		.pad #324
 1573 000c 51DF4DE2 		sub	sp, sp, #324
 1574 0010 000052E3 		cmp	r2, #0
 1575 0014 70419DE5 		ldr	r4, [sp, #368]
 1576 0018 0D8A93ED 		vldr.32	s16, [r3, #52]
 1577 001c 0E8AD3ED 		vldr.32	s17, [r3, #56]
 1578 0020 0410A0E1 		mov	r1, r4
 1579 0024 74719DE5 		ldr	r7, [sp, #372]
 1580 0028 78619DE5 		ldr	r6, [sp, #376]
 1581 002c 4200000A 		beq	.L544
 1582 0030 70008DE2 		add	r0, sp, #112
 1583              	.LEHB18:
 1584 0034 FEFFFFEB 		bl	_ZN6tflite5micro14GetTensorShapeEPK16TfLiteEvalTensor
 1585              	.LEHE18:
 1586 0038 000054E3 		cmp	r4, #0
 1587 003c 9D04000A 		beq	.L906
 1588 0040 0710A0E1 		mov	r1, r7
 1589 0044 88008DE2 		add	r0, sp, #136
 1590 0048 004094E5 		ldr	r4, [r4]
 1591              	.LEHB19:
 1592 004c FEFFFFEB 		bl	_ZN6tflite5micro14GetTensorShapeEPK16TfLiteEvalTensor
 1593              	.LEHE19:
 1594 0050 000057E3 		cmp	r7, #0
 1595 0054 7F04000A 		beq	.L907
 1596 0058 0610A0E1 		mov	r1, r6
 1597 005c A0008DE2 		add	r0, sp, #160
 1598 0060 005097E5 		ldr	r5, [r7]
 1599              	.LEHB20:
 1600 0064 FEFFFFEB 		bl	_ZN6tflite5micro14GetTensorShapeEPK16TfLiteEvalTensor
 1601              	.LEHE20:
 1602 0068 70209DE5 		ldr	r2, [sp, #112]
 1603 006c 000056E3 		cmp	r6, #0
 1604 0070 00609615 		ldrne	r6, [r6]
 1605 0074 0030A0E3 		mov	r3, #0
 1606 0078 D0308DE5 		str	r3, [sp, #208]
 1607 007c 040052E3 		cmp	r2, #4
 1608 0080 720400CA 		bgt	.L908
 1609 0084 040072E2 		rsbs	r0, r2, #4
 1610 0088 0430A0E3 		mov	r3, #4
 1611 008c D0308DE5 		str	r3, [sp, #208]
 1612 0090 0D00000A 		beq	.L552
 1613 0094 010050E3 		cmp	r0, #1
 1614 0098 0130A0E3 		mov	r3, #1
 1615 009c D4308DE5 		str	r3, [sp, #212]
 1616 00a0 0900000A 		beq	.L552
 1617 00a4 020050E3 		cmp	r0, #2
 1618 00a8 D8308DE5 		str	r3, [sp, #216]
 1619 00ac 0600000A 		beq	.L552
 1620 00b0 030050E3 		cmp	r0, #3
 1621 00b4 DC308DE5 		str	r3, [sp, #220]
 1622 00b8 0300000A 		beq	.L552
 1623 00bc 040050E3 		cmp	r0, #4
 1624 00c0 E0308DE5 		str	r3, [sp, #224]
 1625 00c4 0000000A 		beq	.L552
 1626              	.LEHB21:
 1627 00c8 FEFFFFEB 		bl	abort
 1628              	.LEHE21:
 1629              	.L552:
 1630 00cc D4308DE2 		add	r3, sp, #212
 1631 00d0 0221A0E1 		lsl	r2, r2, #2
 1632 00d4 000183E0 		add	r0, r3, r0, lsl #2
 1633 00d8 74108DE2 		add	r1, sp, #116
 1634 00dc FEFFFFEB 		bl	memcpy
 1635 00e0 88209DE5 		ldr	r2, [sp, #136]
 1636 00e4 0030A0E3 		mov	r3, #0
 1637 00e8 E8308DE5 		str	r3, [sp, #232]
 1638 00ec 040052E3 		cmp	r2, #4
 1639 00f0 460400CA 		bgt	.L909
 1640 00f4 040072E2 		rsbs	r0, r2, #4
 1641 00f8 0430A0E3 		mov	r3, #4
 1642 00fc E8308DE5 		str	r3, [sp, #232]
 1643 0100 B101000A 		beq	.L559
 1644 0104 010050E3 		cmp	r0, #1
 1645 0108 0130A0E3 		mov	r3, #1
 1646 010c EC308DE5 		str	r3, [sp, #236]
 1647 0110 AD01000A 		beq	.L559
 1648 0114 020050E3 		cmp	r0, #2
 1649 0118 F0308DE5 		str	r3, [sp, #240]
 1650 011c AA01000A 		beq	.L559
 1651 0120 030050E3 		cmp	r0, #3
 1652 0124 F4308DE5 		str	r3, [sp, #244]
 1653 0128 A701000A 		beq	.L559
 1654 012c 040050E3 		cmp	r0, #4
 1655 0130 F8308DE5 		str	r3, [sp, #248]
 1656 0134 A401000A 		beq	.L559
 1657              	.LEHB22:
 1658 0138 FEFFFFEB 		bl	abort
 1659              	.LEHE22:
 1660              	.L544:
 1661 013c E8008DE2 		add	r0, sp, #232
 1662              	.LEHB23:
 1663 0140 FEFFFFEB 		bl	_ZN6tflite5micro14GetTensorShapeEPK16TfLiteEvalTensor
 1664              	.LEHE23:
 1665 0144 000054E3 		cmp	r4, #0
 1666 0148 5904000A 		beq	.L910
 1667 014c 0710A0E1 		mov	r1, r7
 1668 0150 010C8DE2 		add	r0, sp, #256
 1669 0154 005094E5 		ldr	r5, [r4]
 1670              	.LEHB24:
 1671 0158 FEFFFFEB 		bl	_ZN6tflite5micro14GetTensorShapeEPK16TfLiteEvalTensor
 1672              	.LEHE24:
 1673 015c 000057E3 		cmp	r7, #0
 1674 0160 5104000A 		beq	.L911
 1675 0164 0610A0E1 		mov	r1, r6
 1676 0168 120E8DE2 		add	r0, sp, #288
 1677 016c 004097E5 		ldr	r4, [r7]
 1678              	.LEHB25:
 1679 0170 FEFFFFEB 		bl	_ZN6tflite5micro14GetTensorShapeEPK16TfLiteEvalTensor
 1680              	.LEHE25:
 1681 0174 E8E09DE5 		ldr	lr, [sp, #232]
 1682 0178 000056E3 		cmp	r6, #0
 1683 017c 00309615 		ldrne	r3, [r6]
 1684 0180 0630A001 		moveq	r3, r6
 1685 0184 05005EE3 		cmp	lr, #5
 1686 0188 8D0100CA 		bgt	.L912
 1687 018c 00005EE3 		cmp	lr, #0
 1688 0190 0100A0D3 		movle	r0, #1
 1689 0194 500000DA 		ble	.L662
 1690 0198 EC608DE2 		add	r6, sp, #236
 1691              	.L661:
 1692 019c 5621A0E7 		sbfx	r2, r6, #2, #1
 1693 01a0 032002E2 		and	r2, r2, #3
 1694 01a4 0E0052E1 		cmp	r2, lr
 1695 01a8 0E20A021 		movcs	r2, lr
 1696 01ac 08005EE3 		cmp	lr, #8
 1697 01b0 0E20A0D1 		movle	r2, lr
 1698 01b4 5F0300CA 		bgt	.L913
 1699              	.L663:
 1700 01b8 010052E3 		cmp	r2, #1
 1701 01bc 000096E5 		ldr	r0, [r6]
 1702 01c0 FC01000A 		beq	.L755
 1703 01c4 041096E5 		ldr	r1, [r6, #4]
 1704 01c8 020052E3 		cmp	r2, #2
 1705 01cc 910000E0 		mul	r0, r1, r0
 1706 01d0 F801000A 		beq	.L755
 1707 01d4 081096E5 		ldr	r1, [r6, #8]
 1708 01d8 030052E3 		cmp	r2, #3
 1709 01dc 910000E0 		mul	r0, r1, r0
 1710 01e0 F401000A 		beq	.L755
 1711 01e4 0C1096E5 		ldr	r1, [r6, #12]
 1712 01e8 040052E3 		cmp	r2, #4
 1713 01ec 910000E0 		mul	r0, r1, r0
 1714 01f0 F001000A 		beq	.L755
 1715 01f4 101096E5 		ldr	r1, [r6, #16]
 1716 01f8 050052E3 		cmp	r2, #5
 1717 01fc 910000E0 		mul	r0, r1, r0
 1718 0200 EC01000A 		beq	.L755
 1719 0204 141096E5 		ldr	r1, [r6, #20]
 1720 0208 060052E3 		cmp	r2, #6
 1721 020c 910000E0 		mul	r0, r1, r0
 1722 0210 E801000A 		beq	.L755
 1723 0214 181096E5 		ldr	r1, [r6, #24]
 1724 0218 070052E3 		cmp	r2, #7
 1725 021c 910000E0 		mul	r0, r1, r0
 1726 0220 E401000A 		beq	.L755
 1727 0224 1C1096E5 		ldr	r1, [r6, #28]
 1728 0228 0870A0E3 		mov	r7, #8
 1729 022c 910000E0 		mul	r0, r1, r0
 1730              	.L665:
 1731 0230 02005EE1 		cmp	lr, r2
 1732 0234 2800000A 		beq	.L662
 1733              	.L664:
 1734 0238 02804EE0 		sub	r8, lr, r2
 1735 023c 01104EE2 		sub	r1, lr, #1
 1736 0240 04C048E2 		sub	ip, r8, #4
 1737 0244 021041E0 		sub	r1, r1, r2
 1738 0248 2CC1A0E1 		lsr	ip, ip, #2
 1739 024c 020051E3 		cmp	r1, #2
 1740 0250 01C08CE2 		add	ip, ip, #1
 1741 0254 0C91A0E1 		lsl	r9, ip, #2
 1742 0258 1200009A 		bls	.L667
 1743 025c 022186E0 		add	r2, r6, r2, lsl #2
 1744 0260 5100C0F2 		vmov.i32	q8, #1  @ v4si
 1745 0264 0010A0E3 		mov	r1, #0
 1746              	.L669:
 1747 0268 011081E2 		add	r1, r1, #1
 1748 026c DF2A62F4 		vld1.64	{d18-d19}, [r2:64]
 1749 0270 01005CE1 		cmp	ip, r1
 1750 0274 102082E2 		add	r2, r2, #16
 1751 0278 F20960F2 		vmul.i32	q8, q8, q9
 1752 027c F9FFFF8A 		bhi	.L669
 1753 0280 090058E1 		cmp	r8, r9
 1754 0284 097087E0 		add	r7, r7, r9
 1755 0288 5020C0F2 		vmov.i32	q9, #0  @ v4si
 1756 028c E248F0F2 		vext.32	q10, q8, q9, #2
 1757 0290 F40960F2 		vmul.i32	q8, q8, q10
 1758 0294 E224F0F2 		vext.32	q9, q8, q9, #1
 1759 0298 F20960F2 		vmul.i32	q8, q8, q9
 1760 029c 901B10EE 		vmov.32	r1, d16[0]
 1761 02a0 910000E0 		mul	r0, r1, r0
 1762 02a4 0C00000A 		beq	.L662
 1763              	.L667:
 1764 02a8 071196E7 		ldr	r1, [r6, r7, lsl #2]
 1765 02ac 012087E2 		add	r2, r7, #1
 1766 02b0 02005EE1 		cmp	lr, r2
 1767 02b4 0721A0E1 		lsl	r2, r7, #2
 1768 02b8 910000E0 		mul	r0, r1, r0
 1769 02bc 060000DA 		ble	.L662
 1770 02c0 022086E0 		add	r2, r6, r2
 1771 02c4 021087E2 		add	r1, r7, #2
 1772 02c8 04C092E5 		ldr	ip, [r2, #4]
 1773 02cc 01005EE1 		cmp	lr, r1
 1774 02d0 9C0000E0 		mul	r0, ip, r0
 1775 02d4 082092C5 		ldrgt	r2, [r2, #8]
 1776 02d8 920000C0 		mulgt	r0, r2, r0
 1777              	.L662:
 1778 02dc 00E19DE5 		ldr	lr, [sp, #256]
 1779 02e0 05005EE3 		cmp	lr, #5
 1780 02e4 BE0100DA 		ble	.L673
 1781 02e8 04819DE5 		ldr	r8, [sp, #260]
 1782              	.L674:
 1783 02ec 5821A0E7 		sbfx	r2, r8, #2, #1
 1784 02f0 032002E2 		and	r2, r2, #3
 1785 02f4 0E0052E1 		cmp	r2, lr
 1786 02f8 0E20A021 		movcs	r2, lr
 1787 02fc 08005EE3 		cmp	lr, #8
 1788 0300 0E20A0D1 		movle	r2, lr
 1789 0304 060300CA 		bgt	.L914
 1790              	.L676:
 1791 0308 010052E3 		cmp	r2, #1
 1792 030c 00C098E5 		ldr	ip, [r8]
 1793 0310 AC01000A 		beq	.L765
 1794 0314 041098E5 		ldr	r1, [r8, #4]
 1795 0318 020052E3 		cmp	r2, #2
 1796 031c 910C0CE0 		mul	ip, r1, ip
 1797 0320 A801000A 		beq	.L765
 1798 0324 081098E5 		ldr	r1, [r8, #8]
 1799 0328 030052E3 		cmp	r2, #3
 1800 032c 910C0CE0 		mul	ip, r1, ip
 1801 0330 A401000A 		beq	.L765
 1802 0334 0C1098E5 		ldr	r1, [r8, #12]
 1803 0338 040052E3 		cmp	r2, #4
 1804 033c 910C0CE0 		mul	ip, r1, ip
 1805 0340 A001000A 		beq	.L765
 1806 0344 101098E5 		ldr	r1, [r8, #16]
 1807 0348 050052E3 		cmp	r2, #5
 1808 034c 910C0CE0 		mul	ip, r1, ip
 1809 0350 9C01000A 		beq	.L765
 1810 0354 141098E5 		ldr	r1, [r8, #20]
 1811 0358 060052E3 		cmp	r2, #6
 1812 035c 910C0CE0 		mul	ip, r1, ip
 1813 0360 9801000A 		beq	.L765
 1814 0364 181098E5 		ldr	r1, [r8, #24]
 1815 0368 070052E3 		cmp	r2, #7
 1816 036c 910C0CE0 		mul	ip, r1, ip
 1817 0370 9401000A 		beq	.L765
 1818 0374 1C1098E5 		ldr	r1, [r8, #28]
 1819 0378 0870A0E3 		mov	r7, #8
 1820 037c 910C0CE0 		mul	ip, r1, ip
 1821              	.L678:
 1822 0380 02005EE1 		cmp	lr, r2
 1823 0384 2800000A 		beq	.L675
 1824              	.L677:
 1825 0388 02104EE0 		sub	r1, lr, r2
 1826 038c 01904EE2 		sub	r9, lr, #1
 1827 0390 046041E2 		sub	r6, r1, #4
 1828 0394 029049E0 		sub	r9, r9, r2
 1829 0398 2661A0E1 		lsr	r6, r6, #2
 1830 039c 020059E3 		cmp	r9, #2
 1831 03a0 016086E2 		add	r6, r6, #1
 1832 03a4 06A1A0E1 		lsl	r10, r6, #2
 1833 03a8 1200009A 		bls	.L680
 1834 03ac 022188E0 		add	r2, r8, r2, lsl #2
 1835 03b0 5100C0F2 		vmov.i32	q8, #1  @ v4si
 1836 03b4 0090A0E3 		mov	r9, #0
 1837              	.L682:
 1838 03b8 019089E2 		add	r9, r9, #1
 1839 03bc DF2A62F4 		vld1.64	{d18-d19}, [r2:64]
 1840 03c0 090056E1 		cmp	r6, r9
 1841 03c4 102082E2 		add	r2, r2, #16
 1842 03c8 F20960F2 		vmul.i32	q8, q8, q9
 1843 03cc F9FFFF8A 		bhi	.L682
 1844 03d0 0A0051E1 		cmp	r1, r10
 1845 03d4 0A7087E0 		add	r7, r7, r10
 1846 03d8 5020C0F2 		vmov.i32	q9, #0  @ v4si
 1847 03dc E248F0F2 		vext.32	q10, q8, q9, #2
 1848 03e0 F40960F2 		vmul.i32	q8, q8, q10
 1849 03e4 E224F0F2 		vext.32	q9, q8, q9, #1
 1850 03e8 F20960F2 		vmul.i32	q8, q8, q9
 1851 03ec 901B10EE 		vmov.32	r1, d16[0]
 1852 03f0 910C0CE0 		mul	ip, r1, ip
 1853 03f4 0C00000A 		beq	.L675
 1854              	.L680:
 1855 03f8 071198E7 		ldr	r1, [r8, r7, lsl #2]
 1856 03fc 012087E2 		add	r2, r7, #1
 1857 0400 02005EE1 		cmp	lr, r2
 1858 0404 0721A0E1 		lsl	r2, r7, #2
 1859 0408 910C0CE0 		mul	ip, r1, ip
 1860 040c 060000DA 		ble	.L675
 1861 0410 022088E0 		add	r2, r8, r2
 1862 0414 021087E2 		add	r1, r7, #2
 1863 0418 046092E5 		ldr	r6, [r2, #4]
 1864 041c 01005EE1 		cmp	lr, r1
 1865 0420 960C0CE0 		mul	ip, r6, ip
 1866 0424 082092C5 		ldrgt	r2, [r2, #8]
 1867 0428 920C0CC0 		mulgt	ip, r2, ip
 1868              	.L675:
 1869 042c 20719DE5 		ldr	r7, [sp, #288]
 1870 0430 050057E3 		cmp	r7, #5
 1871 0434 650100DA 		ble	.L686
 1872 0438 24619DE5 		ldr	r6, [sp, #292]
 1873              	.L687:
 1874 043c 5621A0E7 		sbfx	r2, r6, #2, #1
 1875 0440 032002E2 		and	r2, r2, #3
 1876 0444 070052E1 		cmp	r2, r7
 1877 0448 0210A031 		movcc	r1, r2
 1878 044c 0710A021 		movcs	r1, r7
 1879 0450 080057E3 		cmp	r7, #8
 1880 0454 0710A0D1 		movle	r1, r7
 1881 0458 AC0200CA 		bgt	.L915
 1882              	.L689:
 1883 045c 010051E3 		cmp	r1, #1
 1884 0460 002096E5 		ldr	r2, [r6]
 1885 0464 5501000A 		beq	.L775
 1886 0468 048096E5 		ldr	r8, [r6, #4]
 1887 046c 020051E3 		cmp	r1, #2
 1888 0470 980202E0 		mul	r2, r8, r2
 1889 0474 5101000A 		beq	.L775
 1890 0478 088096E5 		ldr	r8, [r6, #8]
 1891 047c 030051E3 		cmp	r1, #3
 1892 0480 980202E0 		mul	r2, r8, r2
 1893 0484 4D01000A 		beq	.L775
 1894 0488 0C8096E5 		ldr	r8, [r6, #12]
 1895 048c 040051E3 		cmp	r1, #4
 1896 0490 980202E0 		mul	r2, r8, r2
 1897 0494 4901000A 		beq	.L775
 1898 0498 108096E5 		ldr	r8, [r6, #16]
 1899 049c 050051E3 		cmp	r1, #5
 1900 04a0 980202E0 		mul	r2, r8, r2
 1901 04a4 4501000A 		beq	.L775
 1902 04a8 148096E5 		ldr	r8, [r6, #20]
 1903 04ac 060051E3 		cmp	r1, #6
 1904 04b0 980202E0 		mul	r2, r8, r2
 1905 04b4 4101000A 		beq	.L775
 1906 04b8 188096E5 		ldr	r8, [r6, #24]
 1907 04bc 070051E3 		cmp	r1, #7
 1908 04c0 980202E0 		mul	r2, r8, r2
 1909 04c4 3D01000A 		beq	.L775
 1910 04c8 1C9096E5 		ldr	r9, [r6, #28]
 1911 04cc 0880A0E3 		mov	r8, #8
 1912 04d0 990202E0 		mul	r2, r9, r2
 1913              	.L691:
 1914 04d4 010057E1 		cmp	r7, r1
 1915 04d8 2A00000A 		beq	.L688
 1916              	.L690:
 1917 04dc 01B047E0 		sub	fp, r7, r1
 1918 04e0 01A047E2 		sub	r10, r7, #1
 1919 04e4 04904BE2 		sub	r9, fp, #4
 1920 04e8 01A04AE0 		sub	r10, r10, r1
 1921 04ec 2991A0E1 		lsr	r9, r9, #2
 1922 04f0 02005AE3 		cmp	r10, #2
 1923 04f4 019089E2 		add	r9, r9, #1
 1924 04f8 09A1A0E1 		lsl	r10, r9, #2
 1925 04fc 00A08DE5 		str	r10, [sp]
 1926 0500 1300009A 		bls	.L693
 1927 0504 011186E0 		add	r1, r6, r1, lsl #2
 1928 0508 5120C0F2 		vmov.i32	q9, #1  @ v4si
 1929 050c 00A0A0E3 		mov	r10, #0
 1930              	.L695:
 1931 0510 01A08AE2 		add	r10, r10, #1
 1932 0514 DF0A61F4 		vld1.64	{d16-d17}, [r1:64]
 1933 0518 0A0059E1 		cmp	r9, r10
 1934 051c 101081E2 		add	r1, r1, #16
 1935 0520 F02962F2 		vmul.i32	q9, q9, q8
 1936 0524 F9FFFF8A 		bhi	.L695
 1937 0528 00109DE5 		ldr	r1, [sp]
 1938 052c 5040C0F2 		vmov.i32	q10, #0  @ v4si
 1939 0530 0B0051E1 		cmp	r1, fp
 1940 0534 018088E0 		add	r8, r8, r1
 1941 0538 E408F2F2 		vext.32	q8, q9, q10, #2
 1942 053c F20960F2 		vmul.i32	q8, q8, q9
 1943 0540 E444F0F2 		vext.32	q10, q8, q10, #1
 1944 0544 F40960F2 		vmul.i32	q8, q8, q10
 1945 0548 901B10EE 		vmov.32	r1, d16[0]
 1946 054c 910202E0 		mul	r2, r1, r2
 1947 0550 0C00000A 		beq	.L688
 1948              	.L693:
 1949 0554 089196E7 		ldr	r9, [r6, r8, lsl #2]
 1950 0558 011088E2 		add	r1, r8, #1
 1951 055c 010057E1 		cmp	r7, r1
 1952 0560 0811A0E1 		lsl	r1, r8, #2
 1953 0564 990202E0 		mul	r2, r9, r2
 1954 0568 060000DA 		ble	.L688
 1955 056c 016086E0 		add	r6, r6, r1
 1956 0570 028088E2 		add	r8, r8, #2
 1957 0574 041096E5 		ldr	r1, [r6, #4]
 1958 0578 080057E1 		cmp	r7, r8
 1959 057c 910202E0 		mul	r2, r1, r2
 1960 0580 081096C5 		ldrgt	r1, [r6, #8]
 1961 0584 910202C0 		mulgt	r2, r1, r2
 1962              	.L688:
 1963 0588 0C0050E1 		cmp	r0, ip
 1964 058c 3203001A 		bne	.L916
 1965 0590 000052E1 		cmp	r2, r0
 1966 0594 3103001A 		bne	.L700
 1967 0598 000052E3 		cmp	r2, #0
 1968 059c 710000DA 		ble	.L706
 1969 05a0 080052E3 		cmp	r2, #8
 1970 05a4 920200DA 		ble	.L776
 1971 05a8 098042E2 		sub	r8, r2, #9
 1972 05ac 400085E2 		add	r0, r5, #64
 1973 05b0 0780C8E3 		bic	r8, r8, #7
 1974 05b4 401084E2 		add	r1, r4, #64
 1975 05b8 088088E2 		add	r8, r8, #8
 1976 05bc 03C0A0E1 		mov	ip, r3
 1977 05c0 0060A0E3 		mov	r6, #0
 1978              	.L705:
 1979 05c4 107A10ED 		vldr.32	s14, [r0, #-64]
 1980 05c8 086086E2 		add	r6, r6, #8
 1981 05cc 107A51ED 		vldr.32	s15, [r1, #-64]
 1982 05d0 20C08CE2 		add	ip, ip, #32
 1983 05d4 00F0D0F5 		pld	[r0]
 1984 05d8 200080E2 		add	r0, r0, #32
 1985 05dc 00F0D1F5 		pld	[r1]
 1986 05e0 201081E2 		add	r1, r1, #32
 1987 05e4 277A77EE 		vadd.f32	s15, s14, s15
 1988 05e8 E78AB4EE 		vcmpe.f32	s16, s15
 1989 05ec 10FAF1EE 		vmrs	APSR_nzcv, FPSCR
 1990 05f0 487AF0CE 		vmovgt.f32	s15, s16
 1991 05f4 E78AF4EE 		vcmpe.f32	s17, s15
 1992 05f8 10FAF1EE 		vmrs	APSR_nzcv, FPSCR
 1993 05fc 687AF04E 		vmovmi.f32	s15, s17
 1994 0600 087A4CED 		vstr.32	s15, [ip, #-32]
 1995 0604 177A11ED 		vldr.32	s14, [r1, #-92]
 1996 0608 177A50ED 		vldr.32	s15, [r0, #-92]
 1997 060c 277A77EE 		vadd.f32	s15, s14, s15
 1998 0610 E78AB4EE 		vcmpe.f32	s16, s15
 1999 0614 10FAF1EE 		vmrs	APSR_nzcv, FPSCR
 2000 0618 487AF0CE 		vmovgt.f32	s15, s16
 2001 061c E78AF4EE 		vcmpe.f32	s17, s15
 2002 0620 10FAF1EE 		vmrs	APSR_nzcv, FPSCR
 2003 0624 687AF04E 		vmovmi.f32	s15, s17
 2004 0628 077A4CED 		vstr.32	s15, [ip, #-28]
 2005 062c 167A11ED 		vldr.32	s14, [r1, #-88]
 2006 0630 167A50ED 		vldr.32	s15, [r0, #-88]
 2007 0634 277A77EE 		vadd.f32	s15, s14, s15
 2008 0638 E78AB4EE 		vcmpe.f32	s16, s15
 2009 063c 10FAF1EE 		vmrs	APSR_nzcv, FPSCR
 2010 0640 487AF0CE 		vmovgt.f32	s15, s16
 2011 0644 E78AF4EE 		vcmpe.f32	s17, s15
 2012 0648 10FAF1EE 		vmrs	APSR_nzcv, FPSCR
 2013 064c 687AF04E 		vmovmi.f32	s15, s17
 2014 0650 067A4CED 		vstr.32	s15, [ip, #-24]
 2015 0654 157A11ED 		vldr.32	s14, [r1, #-84]
 2016 0658 157A50ED 		vldr.32	s15, [r0, #-84]
 2017 065c 277A77EE 		vadd.f32	s15, s14, s15
 2018 0660 E78AB4EE 		vcmpe.f32	s16, s15
 2019 0664 10FAF1EE 		vmrs	APSR_nzcv, FPSCR
 2020 0668 487AF0CE 		vmovgt.f32	s15, s16
 2021 066c E78AF4EE 		vcmpe.f32	s17, s15
 2022 0670 10FAF1EE 		vmrs	APSR_nzcv, FPSCR
 2023 0674 687AF04E 		vmovmi.f32	s15, s17
 2024 0678 057A4CED 		vstr.32	s15, [ip, #-20]
 2025 067c 147A10ED 		vldr.32	s14, [r0, #-80]
 2026 0680 147A51ED 		vldr.32	s15, [r1, #-80]
 2027 0684 277A77EE 		vadd.f32	s15, s14, s15
 2028 0688 E78AB4EE 		vcmpe.f32	s16, s15
 2029 068c 10FAF1EE 		vmrs	APSR_nzcv, FPSCR
 2030 0690 487AF0CE 		vmovgt.f32	s15, s16
 2031 0694 E78AF4EE 		vcmpe.f32	s17, s15
 2032 0698 10FAF1EE 		vmrs	APSR_nzcv, FPSCR
 2033 069c 687AF04E 		vmovmi.f32	s15, s17
 2034 06a0 047A4CED 		vstr.32	s15, [ip, #-16]
 2035 06a4 137A11ED 		vldr.32	s14, [r1, #-76]
 2036 06a8 137A50ED 		vldr.32	s15, [r0, #-76]
 2037 06ac 277A77EE 		vadd.f32	s15, s14, s15
 2038 06b0 E78AB4EE 		vcmpe.f32	s16, s15
 2039 06b4 10FAF1EE 		vmrs	APSR_nzcv, FPSCR
 2040 06b8 487AF0CE 		vmovgt.f32	s15, s16
 2041 06bc E78AF4EE 		vcmpe.f32	s17, s15
 2042 06c0 10FAF1EE 		vmrs	APSR_nzcv, FPSCR
 2043 06c4 687AF04E 		vmovmi.f32	s15, s17
 2044 06c8 037A4CED 		vstr.32	s15, [ip, #-12]
 2045 06cc 127A11ED 		vldr.32	s14, [r1, #-72]
 2046 06d0 127A50ED 		vldr.32	s15, [r0, #-72]
 2047 06d4 277A77EE 		vadd.f32	s15, s14, s15
 2048 06d8 E78AB4EE 		vcmpe.f32	s16, s15
 2049 06dc 10FAF1EE 		vmrs	APSR_nzcv, FPSCR
 2050 06e0 487AF0CE 		vmovgt.f32	s15, s16
 2051 06e4 E78AF4EE 		vcmpe.f32	s17, s15
 2052 06e8 10FAF1EE 		vmrs	APSR_nzcv, FPSCR
 2053 06ec 687AF04E 		vmovmi.f32	s15, s17
 2054 06f0 027A4CED 		vstr.32	s15, [ip, #-8]
 2055 06f4 117A10ED 		vldr.32	s14, [r0, #-68]
 2056 06f8 117A51ED 		vldr.32	s15, [r1, #-68]
 2057 06fc 277A77EE 		vadd.f32	s15, s14, s15
 2058 0700 E78AB4EE 		vcmpe.f32	s16, s15
 2059 0704 10FAF1EE 		vmrs	APSR_nzcv, FPSCR
 2060 0708 487AF0CE 		vmovgt.f32	s15, s16
 2061 070c E78AF4EE 		vcmpe.f32	s17, s15
 2062 0710 10FAF1EE 		vmrs	APSR_nzcv, FPSCR
 2063 0714 687AF04E 		vmovmi.f32	s15, s17
 2064 0718 080056E1 		cmp	r6, r8
 2065 071c 017A4CED 		vstr.32	s15, [ip, #-4]
 2066 0720 A7FFFF1A 		bne	.L705
 2067              	.L704:
 2068 0724 0611A0E1 		lsl	r1, r6, #2
 2069 0728 015085E0 		add	r5, r5, r1
 2070 072c 014084E0 		add	r4, r4, r1
 2071 0730 013083E0 		add	r3, r3, r1
 2072              	.L707:
 2073 0734 017AB5EC 		vldmia.32	r5!, {s14}
 2074 0738 016086E2 		add	r6, r6, #1
 2075 073c 017AF4EC 		vldmia.32	r4!, {s15}
 2076 0740 277A77EE 		vadd.f32	s15, s14, s15
 2077 0744 E78AB4EE 		vcmpe.f32	s16, s15
 2078 0748 10FAF1EE 		vmrs	APSR_nzcv, FPSCR
 2079 074c 487AF0CE 		vmovgt.f32	s15, s16
 2080 0750 E78AF4EE 		vcmpe.f32	s17, s15
 2081 0754 10FAF1EE 		vmrs	APSR_nzcv, FPSCR
 2082 0758 687AF04E 		vmovmi.f32	s15, s17
 2083 075c 060052E1 		cmp	r2, r6
 2084 0760 017AE3EC 		vstmia.32	r3!, {s15}
 2085 0764 F2FFFFCA 		bgt	.L707
 2086              	.L706:
 2087 0768 050057E3 		cmp	r7, #5
 2088 076c 040000DA 		ble	.L703
 2089 0770 24019DE5 		ldr	r0, [sp, #292]
 2090 0774 000050E3 		cmp	r0, #0
 2091 0778 0100000A 		beq	.L703
 2092 077c FEFFFFEB 		bl	_ZdaPv
 2093 0780 00E19DE5 		ldr	lr, [sp, #256]
 2094              	.L703:
 2095 0784 05005EE3 		cmp	lr, #5
 2096 0788 030000DA 		ble	.L708
 2097 078c 04019DE5 		ldr	r0, [sp, #260]
 2098 0790 000050E3 		cmp	r0, #0
 2099 0794 0000000A 		beq	.L708
 2100 0798 FEFFFFEB 		bl	_ZdaPv
 2101              	.L708:
 2102 079c E8309DE5 		ldr	r3, [sp, #232]
 2103 07a0 050053E3 		cmp	r3, #5
 2104 07a4 030000DA 		ble	.L543
 2105 07a8 EC009DE5 		ldr	r0, [sp, #236]
 2106 07ac 000050E3 		cmp	r0, #0
 2107 07b0 0000000A 		beq	.L543
 2108              	.L894:
 2109 07b4 FEFFFFEB 		bl	_ZdaPv
 2110              	.L543:
 2111 07b8 51DF8DE2 		add	sp, sp, #324
 2112              		@ sp needed
 2113 07bc 028BBDEC 		vldm	sp!, {d8}
 2114 07c0 F08FBDE8 		pop	{r4, r5, r6, r7, r8, r9, r10, fp, pc}
 2115              	.L912:
 2116 07c4 EC609DE5 		ldr	r6, [sp, #236]
 2117 07c8 73FEFFEA 		b	.L661
 2118              	.L559:
 2119 07cc EC308DE2 		add	r3, sp, #236
 2120 07d0 0221A0E1 		lsl	r2, r2, #2
 2121 07d4 000183E0 		add	r0, r3, r0, lsl #2
 2122 07d8 8C108DE2 		add	r1, sp, #140
 2123 07dc FEFFFFEB 		bl	memcpy
 2124 07e0 D0709DE5 		ldr	r7, [sp, #208]
 2125 07e4 D4309DE5 		ldr	r3, [sp, #212]
 2126 07e8 050057E3 		cmp	r7, #5
 2127 07ec 600100CA 		bgt	.L917
 2128 07f0 030057E3 		cmp	r7, #3
 2129 07f4 A20200DA 		ble	.L561
 2130 07f8 E0109DE5 		ldr	r1, [sp, #224]
 2131 07fc 01E0A0E3 		mov	lr, #1
 2132 0800 DCC09DE5 		ldr	ip, [sp, #220]
 2133 0804 D8209DE5 		ldr	r2, [sp, #216]
 2134 0808 E8809DE5 		ldr	r8, [sp, #232]
 2135 080c 00318DE5 		str	r3, [sp, #256]
 2136 0810 9C0100E0 		mul	r0, ip, r1
 2137 0814 04218DE5 		str	r2, [sp, #260]
 2138 0818 050058E3 		cmp	r8, #5
 2139 081c 0C118DE5 		str	r1, [sp, #268]
 2140 0820 18118DE5 		str	r1, [sp, #280]
 2141 0824 08C18DE5 		str	ip, [sp, #264]
 2142 0828 920002E0 		mul	r2, r2, r0
 2143 082c 14018DE5 		str	r0, [sp, #276]
 2144 0830 1CE18DE5 		str	lr, [sp, #284]
 2145 0834 EC009DE5 		ldr	r0, [sp, #236]
 2146 0838 10218DE5 		str	r2, [sp, #272]
 2147 083c 5F0100CA 		bgt	.L563
 2148              	.L939:
 2149 0840 030058E3 		cmp	r8, #3
 2150 0844 820200DA 		ble	.L564
 2151 0848 F8209DE5 		ldr	r2, [sp, #248]
 2152 084c 0190A0E3 		mov	r9, #1
 2153 0850 F4109DE5 		ldr	r1, [sp, #244]
 2154 0854 050057E3 		cmp	r7, #5
 2155 0858 F0C09DE5 		ldr	ip, [sp, #240]
 2156 085c 3C918DE5 		str	r9, [sp, #316]
 2157 0860 20018DE5 		str	r0, [sp, #288]
 2158 0864 91020EE0 		mul	lr, r1, r2
 2159 0868 2C218DE5 		str	r2, [sp, #300]
 2160 086c 38218DE5 		str	r2, [sp, #312]
 2161 0870 28118DE5 		str	r1, [sp, #296]
 2162 0874 24C18DE5 		str	ip, [sp, #292]
 2163 0878 9C0E09E0 		mul	r9, ip, lr
 2164 087c 34E18DE5 		str	lr, [sp, #308]
 2165 0880 30918DE5 		str	r9, [sp, #304]
 2166 0884 5B0000CA 		bgt	.L918
 2167 0888 000057E3 		cmp	r7, #0
 2168 088c 8D0200DA 		ble	.L569
 2169 0890 000053E1 		cmp	r3, r0
 2170 0894 0600000A 		beq	.L570
 2171 0898 010053E3 		cmp	r3, #1
 2172 089c 0B02000A 		beq	.L571
 2173 08a0 010050E3 		cmp	r0, #1
 2174 08a4 8502001A 		bne	.L572
 2175 08a8 0000A0E3 		mov	r0, #0
 2176 08ac 20318DE5 		str	r3, [sp, #288]
 2177 08b0 30018DE5 		str	r0, [sp, #304]
 2178              	.L570:
 2179 08b4 010057E3 		cmp	r7, #1
 2180 08b8 8202000A 		beq	.L569
 2181 08bc D8309DE5 		ldr	r3, [sp, #216]
 2182 08c0 03005CE1 		cmp	ip, r3
 2183 08c4 0600000A 		beq	.L574
 2184 08c8 010053E3 		cmp	r3, #1
 2185 08cc 0702000A 		beq	.L573
 2186 08d0 01005CE3 		cmp	ip, #1
 2187 08d4 7902001A 		bne	.L572
 2188 08d8 0000A0E3 		mov	r0, #0
 2189 08dc 24318DE5 		str	r3, [sp, #292]
 2190 08e0 34018DE5 		str	r0, [sp, #308]
 2191              	.L574:
 2192 08e4 020057E3 		cmp	r7, #2
 2193 08e8 7602000A 		beq	.L569
 2194 08ec DC309DE5 		ldr	r3, [sp, #220]
 2195 08f0 030051E1 		cmp	r1, r3
 2196 08f4 0600000A 		beq	.L576
 2197 08f8 010053E3 		cmp	r3, #1
 2198 08fc F701000A 		beq	.L575
 2199 0900 010051E3 		cmp	r1, #1
 2200 0904 6D02001A 		bne	.L572
 2201 0908 0010A0E3 		mov	r1, #0
 2202 090c 28318DE5 		str	r3, [sp, #296]
 2203 0910 38118DE5 		str	r1, [sp, #312]
 2204              	.L576:
 2205 0914 030057E3 		cmp	r7, #3
 2206 0918 6A02000A 		beq	.L569
 2207 091c E0309DE5 		ldr	r3, [sp, #224]
 2208 0920 030052E1 		cmp	r2, r3
 2209 0924 0600000A 		beq	.L722
 2210              	.L899:
 2211 0928 010053E3 		cmp	r3, #1
 2212 092c AC01000A 		beq	.L587
 2213 0930 010052E3 		cmp	r2, #1
 2214 0934 6102001A 		bne	.L572
 2215 0938 0020A0E3 		mov	r2, #0
 2216 093c 2C318DE5 		str	r3, [sp, #300]
 2217 0940 3C218DE5 		str	r2, [sp, #316]
 2218              	.L722:
 2219 0944 050057E3 		cmp	r7, #5
 2220 0948 030000DA 		ble	.L607
 2221 094c D4009DE5 		ldr	r0, [sp, #212]
 2222 0950 000050E3 		cmp	r0, #0
 2223 0954 0000000A 		beq	.L607
 2224 0958 FEFFFFEB 		bl	_ZdaPv
 2225              	.L607:
 2226 095c A0209DE5 		ldr	r2, [sp, #160]
 2227 0960 0030A0E3 		mov	r3, #0
 2228 0964 B8308DE5 		str	r3, [sp, #184]
 2229 0968 040052E3 		cmp	r2, #4
 2230 096c 260200CA 		bgt	.L919
 2231 0970 040072E2 		rsbs	r0, r2, #4
 2232 0974 0430A0E3 		mov	r3, #4
 2233 0978 B8308DE5 		str	r3, [sp, #184]
 2234 097c 4800000A 		beq	.L619
 2235 0980 010050E3 		cmp	r0, #1
 2236 0984 0130A0E3 		mov	r3, #1
 2237 0988 BC308DE5 		str	r3, [sp, #188]
 2238 098c 4400000A 		beq	.L619
 2239 0990 020050E3 		cmp	r0, #2
 2240 0994 C0308DE5 		str	r3, [sp, #192]
 2241 0998 4100000A 		beq	.L619
 2242 099c 030050E3 		cmp	r0, #3
 2243 09a0 C4308DE5 		str	r3, [sp, #196]
 2244 09a4 3E00000A 		beq	.L619
 2245 09a8 040050E3 		cmp	r0, #4
 2246 09ac C8308DE5 		str	r3, [sp, #200]
 2247 09b0 3B00000A 		beq	.L619
 2248              	.LEHB26:
 2249 09b4 FEFFFFEB 		bl	abort
 2250              	.LEHE26:
 2251              	.L755:
 2252 09b8 0270A0E1 		mov	r7, r2
 2253 09bc 1BFEFFEA 		b	.L665
 2254              	.L775:
 2255 09c0 0180A0E1 		mov	r8, r1
 2256 09c4 C2FEFFEA 		b	.L691
 2257              	.L765:
 2258 09c8 0270A0E1 		mov	r7, r2
 2259 09cc 6BFEFFEA 		b	.L678
 2260              	.L686:
 2261 09d0 000057E3 		cmp	r7, #0
 2262 09d4 0120A0D3 		movle	r2, #1
 2263 09d8 EAFEFFDA 		ble	.L688
 2264 09dc 496F8DE2 		add	r6, sp, #292
 2265 09e0 95FEFFEA 		b	.L687
 2266              	.L673:
 2267 09e4 00005EE3 		cmp	lr, #0
 2268 09e8 01C0A0D3 		movle	ip, #1
 2269 09ec 8EFEFFDA 		ble	.L675
 2270 09f0 418F8DE2 		add	r8, sp, #260
 2271 09f4 3CFEFFEA 		b	.L674
 2272              	.L918:
 2273 09f8 00E093E5 		ldr	lr, [r3]
 2274 09fc 00005EE1 		cmp	lr, r0
 2275 0a00 0900000A 		beq	.L580
 2276 0a04 01005EE3 		cmp	lr, #1
 2277 0a08 00E0A003 		moveq	lr, #0
 2278 0a0c 00018D05 		streq	r0, [sp, #256]
 2279 0a10 10E18D05 		streq	lr, [sp, #272]
 2280 0a14 0400000A 		beq	.L580
 2281 0a18 010050E3 		cmp	r0, #1
 2282 0a1c 2702001A 		bne	.L572
 2283 0a20 0000A0E3 		mov	r0, #0
 2284 0a24 20E18DE5 		str	lr, [sp, #288]
 2285 0a28 30018DE5 		str	r0, [sp, #304]
 2286              	.L580:
 2287 0a2c 040093E5 		ldr	r0, [r3, #4]
 2288 0a30 0C0050E1 		cmp	r0, ip
 2289 0a34 0900000A 		beq	.L582
 2290 0a38 010050E3 		cmp	r0, #1
 2291 0a3c 0000A003 		moveq	r0, #0
 2292 0a40 04C18D05 		streq	ip, [sp, #260]
 2293 0a44 14018D05 		streq	r0, [sp, #276]
 2294 0a48 0400000A 		beq	.L582
 2295 0a4c 01005CE3 		cmp	ip, #1
 2296 0a50 1A02001A 		bne	.L572
 2297 0a54 00C0A0E3 		mov	ip, #0
 2298 0a58 24018DE5 		str	r0, [sp, #292]
 2299 0a5c 34C18DE5 		str	ip, [sp, #308]
 2300              	.L582:
 2301 0a60 080093E5 		ldr	r0, [r3, #8]
 2302 0a64 010050E1 		cmp	r0, r1
 2303 0a68 0900000A 		beq	.L584
 2304 0a6c 010050E3 		cmp	r0, #1
 2305 0a70 0000A003 		moveq	r0, #0
 2306 0a74 08118D05 		streq	r1, [sp, #264]
 2307 0a78 18018D05 		streq	r0, [sp, #280]
 2308 0a7c 0400000A 		beq	.L584
 2309 0a80 010051E3 		cmp	r1, #1
 2310 0a84 0D02001A 		bne	.L572
 2311 0a88 0010A0E3 		mov	r1, #0
 2312 0a8c 28018DE5 		str	r0, [sp, #296]
 2313 0a90 38118DE5 		str	r1, [sp, #312]
 2314              	.L584:
 2315 0a94 0C3093E5 		ldr	r3, [r3, #12]
 2316 0a98 030052E1 		cmp	r2, r3
 2317 0a9c A1FFFF1A 		bne	.L899
 2318 0aa0 A7FFFFEA 		b	.L722
 2319              	.L619:
 2320 0aa4 BC308DE2 		add	r3, sp, #188
 2321 0aa8 0221A0E1 		lsl	r2, r2, #2
 2322 0aac 000183E0 		add	r0, r3, r0, lsl #2
 2323 0ab0 A4108DE2 		add	r1, sp, #164
 2324 0ab4 FEFFFFEB 		bl	memcpy
 2325 0ab8 B8A09DE5 		ldr	r10, [sp, #184]
 2326 0abc 00005AE3 		cmp	r10, #0
 2327 0ac0 D00100DA 		ble	.L920
 2328 0ac4 C8B09DE5 		ldr	fp, [sp, #200]
 2329 0ac8 0000A0E3 		mov	r0, #0
 2330 0acc 4C608DE5 		str	r6, [sp, #76]
 2331 0ad0 C4609DE5 		ldr	r6, [sp, #196]
 2332 0ad4 34E19DE5 		ldr	lr, [sp, #308]
 2333 0ad8 0B21A0E1 		lsl	r2, fp, #2
 2334 0adc 54408DE5 		str	r4, [sp, #84]
 2335 0ae0 14419DE5 		ldr	r4, [sp, #276]
 2336 0ae4 34208DE5 		str	r2, [sp, #52]
 2337 0ae8 9B0602E0 		mul	r2, fp, r6
 2338 0aec 50508DE5 		str	r5, [sp, #80]
 2339 0af0 38519DE5 		ldr	r5, [sp, #312]
 2340 0af4 30319DE5 		ldr	r3, [sp, #304]
 2341 0af8 0221A0E1 		lsl	r2, r2, #2
 2342 0afc C0709DE5 		ldr	r7, [sp, #192]
 2343 0b00 3C819DE5 		ldr	r8, [sp, #316]
 2344 0b04 58208DE5 		str	r2, [sp, #88]
 2345 0b08 0E21A0E1 		lsl	r2, lr, #2
 2346 0b0c 0331A0E1 		lsl	r3, r3, #2
 2347 0b10 10C19DE5 		ldr	ip, [sp, #272]
 2348 0b14 5C208DE5 		str	r2, [sp, #92]
 2349 0b18 0421A0E1 		lsl	r2, r4, #2
 2350 0b1c 68308DE5 		str	r3, [sp, #104]
 2351 0b20 960701E0 		mul	r1, r6, r7
 2352 0b24 60208DE5 		str	r2, [sp, #96]
 2353 0b28 0521A0E1 		lsl	r2, r5, #2
 2354 0b2c 1C319DE5 		ldr	r3, [sp, #284]
 2355 0b30 0CC1A0E1 		lsl	ip, ip, #2
 2356 0b34 38208DE5 		str	r2, [sp, #56]
 2357 0b38 18219DE5 		ldr	r2, [sp, #280]
 2358 0b3c 0111A0E1 		lsl	r1, r1, #2
 2359 0b40 6CC08DE5 		str	ip, [sp, #108]
 2360 0b44 9B0101E0 		mul	r1, fp, r1
 2361 0b48 BC909DE5 		ldr	r9, [sp, #188]
 2362 0b4c 0221A0E1 		lsl	r2, r2, #2
 2363 0b50 3C208DE5 		str	r2, [sp, #60]
 2364 0b54 0821A0E1 		lsl	r2, r8, #2
 2365 0b58 64108DE5 		str	r1, [sp, #100]
 2366 0b5c 20208DE5 		str	r2, [sp, #32]
 2367 0b60 0321A0E1 		lsl	r2, r3, #2
 2368 0b64 0332A0E1 		lsl	r3, r3, #4
 2369 0b68 00819DE5 		ldr	r8, [sp, #256]
 2370 0b6c 24208DE5 		str	r2, [sp, #36]
 2371 0b70 10308DE5 		str	r3, [sp, #16]
 2372 0b74 04319DE5 		ldr	r3, [sp, #260]
 2373 0b78 00308DE5 		str	r3, [sp]
 2374 0b7c 08319DE5 		ldr	r3, [sp, #264]
 2375 0b80 04308DE5 		str	r3, [sp, #4]
 2376 0b84 0C319DE5 		ldr	r3, [sp, #268]
 2377 0b88 08308DE5 		str	r3, [sp, #8]
 2378 0b8c 20319DE5 		ldr	r3, [sp, #288]
 2379 0b90 0C308DE5 		str	r3, [sp, #12]
 2380 0b94 24319DE5 		ldr	r3, [sp, #292]
 2381 0b98 14308DE5 		str	r3, [sp, #20]
 2382 0b9c 28319DE5 		ldr	r3, [sp, #296]
 2383 0ba0 18308DE5 		str	r3, [sp, #24]
 2384 0ba4 2C319DE5 		ldr	r3, [sp, #300]
 2385 0ba8 1C308DE5 		str	r3, [sp, #28]
 2386 0bac 0630A0E1 		mov	r3, r6
 2387 0bb0 0760A0E1 		mov	r6, r7
 2388 0bb4 0370A0E1 		mov	r7, r3
 2389              	.L621:
 2390 0bb8 05005AE3 		cmp	r10, #5
 2391 0bbc 003099C5 		ldrgt	r3, [r9]
 2392 0bc0 0930A0D1 		movle	r3, r9
 2393 0bc4 000053E1 		cmp	r3, r0
 2394 0bc8 710100DA 		ble	.L623
 2395 0bcc 01005AE3 		cmp	r10, #1
 2396 0bd0 8B01000A 		beq	.L921
 2397 0bd4 54309DE5 		ldr	r3, [sp, #84]
 2398 0bd8 00C0A0E3 		mov	ip, #0
 2399 0bdc 48308DE5 		str	r3, [sp, #72]
 2400 0be0 50309DE5 		ldr	r3, [sp, #80]
 2401 0be4 44308DE5 		str	r3, [sp, #68]
 2402 0be8 4C309DE5 		ldr	r3, [sp, #76]
 2403 0bec 40308DE5 		str	r3, [sp, #64]
 2404              	.L624:
 2405 0bf0 05005AE3 		cmp	r10, #5
 2406 0bf4 043099C5 		ldrgt	r3, [r9, #4]
 2407 0bf8 0630A0D1 		movle	r3, r6
 2408 0bfc 0C0053E1 		cmp	r3, ip
 2409 0c00 550100DA 		ble	.L626
 2410 0c04 02005AE3 		cmp	r10, #2
 2411 0c08 7C01000A 		beq	.L922
 2412 0c0c 48309DE5 		ldr	r3, [sp, #72]
 2413 0c10 0010A0E3 		mov	r1, #0
 2414 0c14 30308DE5 		str	r3, [sp, #48]
 2415 0c18 44309DE5 		ldr	r3, [sp, #68]
 2416 0c1c 2C308DE5 		str	r3, [sp, #44]
 2417 0c20 40309DE5 		ldr	r3, [sp, #64]
 2418 0c24 28308DE5 		str	r3, [sp, #40]
 2419              	.L627:
 2420 0c28 05005AE3 		cmp	r10, #5
 2421 0c2c 083099C5 		ldrgt	r3, [r9, #8]
 2422 0c30 0730A0D1 		movle	r3, r7
 2423 0c34 010053E1 		cmp	r3, r1
 2424 0c38 310100DA 		ble	.L629
 2425 0c3c 03005AE3 		cmp	r10, #3
 2426 0c40 4401000A 		beq	.L923
 2427 0c44 05005AE3 		cmp	r10, #5
 2428 0c48 30209DE5 		ldr	r2, [sp, #48]
 2429 0c4c 2CE09DE5 		ldr	lr, [sp, #44]
 2430 0c50 0030A0E3 		mov	r3, #0
 2431 0c54 28509DE5 		ldr	r5, [sp, #40]
 2432 0c58 320000DA 		ble	.L742
 2433 0c5c 420000EA 		b	.L924
 2434              	.L938:
 2435 0c60 04005AE3 		cmp	r10, #4
 2436 0c64 3401001A 		bne	.L925
 2437 0c68 000059E1 		cmp	r9, r0
 2438 0c6c 230100DA 		ble	.L926
 2439 0c70 0C0056E1 		cmp	r6, ip
 2440 0c74 140100DA 		ble	.L927
 2441 0c78 010057E1 		cmp	r7, r1
 2442 0c7c 110100DA 		ble	.L928
 2443 0c80 03005BE1 		cmp	fp, r3
 2444 0c84 0E0100DA 		ble	.L929
 2445 0c88 000058E1 		cmp	r8, r0
 2446 0c8c 0B0100DA 		ble	.L930
 2447 0c90 00409DE5 		ldr	r4, [sp]
 2448 0c94 0C0054E1 		cmp	r4, ip
 2449 0c98 070100DA 		ble	.L931
 2450 0c9c 04409DE5 		ldr	r4, [sp, #4]
 2451 0ca0 010054E1 		cmp	r4, r1
 2452 0ca4 030100DA 		ble	.L932
 2453 0ca8 08409DE5 		ldr	r4, [sp, #8]
 2454 0cac 030054E1 		cmp	r4, r3
 2455 0cb0 FF0000DA 		ble	.L933
 2456 0cb4 0C409DE5 		ldr	r4, [sp, #12]
 2457 0cb8 007AD2ED 		vldr.32	s15, [r2]
 2458 0cbc 000054E1 		cmp	r4, r0
 2459 0cc0 10409DE5 		ldr	r4, [sp, #16]
 2460 0cc4 02F0D4F7 		pld	[r4, r2]
 2461 0cc8 F80000DA 		ble	.L934
 2462 0ccc 14409DE5 		ldr	r4, [sp, #20]
 2463 0cd0 0C0054E1 		cmp	r4, ip
 2464 0cd4 F40000DA 		ble	.L935
 2465 0cd8 18409DE5 		ldr	r4, [sp, #24]
 2466 0cdc 010054E1 		cmp	r4, r1
 2467 0ce0 F00000DA 		ble	.L936
 2468 0ce4 1C409DE5 		ldr	r4, [sp, #28]
 2469 0ce8 030054E1 		cmp	r4, r3
 2470 0cec EC0000DA 		ble	.L937
 2471 0cf0 007A9EED 		vldr.32	s14, [lr]
 2472 0cf4 013083E2 		add	r3, r3, #1
 2473 0cf8 24409DE5 		ldr	r4, [sp, #36]
 2474 0cfc 877A77EE 		vadd.f32	s15, s15, s14
 2475 0d00 042082E0 		add	r2, r2, r4
 2476 0d04 20409DE5 		ldr	r4, [sp, #32]
 2477 0d08 678AB4EE 		vcmp.f32	s16, s15
 2478 0d0c 04E08EE0 		add	lr, lr, r4
 2479 0d10 10FAF1EE 		vmrs	APSR_nzcv, FPSCR
 2480 0d14 487AF0CE 		vmovgt.f32	s15, s16
 2481 0d18 678AF4EE 		vcmp.f32	s17, s15
 2482 0d1c 10FAF1EE 		vmrs	APSR_nzcv, FPSCR
 2483 0d20 687AF04E 		vmovmi.f32	s15, s17
 2484 0d24 017AE5EC 		vstmia.32	r5!, {s15}
 2485              	.L742:
 2486 0d28 0B40A0E1 		mov	r4, fp
 2487              	.L631:
 2488 0d2c 030054E1 		cmp	r4, r3
 2489 0d30 CAFFFFCA 		bgt	.L938
 2490 0d34 28309DE5 		ldr	r3, [sp, #40]
 2491 0d38 011081E2 		add	r1, r1, #1
 2492 0d3c 34209DE5 		ldr	r2, [sp, #52]
 2493 0d40 023083E0 		add	r3, r3, r2
 2494 0d44 38209DE5 		ldr	r2, [sp, #56]
 2495 0d48 28308DE5 		str	r3, [sp, #40]
 2496 0d4c 2C309DE5 		ldr	r3, [sp, #44]
 2497 0d50 023083E0 		add	r3, r3, r2
 2498 0d54 3C209DE5 		ldr	r2, [sp, #60]
 2499 0d58 2C308DE5 		str	r3, [sp, #44]
 2500 0d5c 30309DE5 		ldr	r3, [sp, #48]
 2501 0d60 023083E0 		add	r3, r3, r2
 2502 0d64 30308DE5 		str	r3, [sp, #48]
 2503 0d68 AEFFFFEA 		b	.L627
 2504              	.L924:
 2505 0d6c 0C4099E5 		ldr	r4, [r9, #12]
 2506 0d70 EDFFFFEA 		b	.L631
 2507              	.L917:
 2508 0d74 080093E5 		ldr	r0, [r3, #8]
 2509 0d78 01C0A0E3 		mov	ip, #1
 2510 0d7c 0C2093E5 		ldr	r2, [r3, #12]
 2511 0d80 041093E5 		ldr	r1, [r3, #4]
 2512 0d84 E8809DE5 		ldr	r8, [sp, #232]
 2513 0d88 0C218DE5 		str	r2, [sp, #268]
 2514 0d8c 18218DE5 		str	r2, [sp, #280]
 2515 0d90 900202E0 		mul	r2, r0, r2
 2516 0d94 08018DE5 		str	r0, [sp, #264]
 2517 0d98 050058E3 		cmp	r8, #5
 2518 0d9c 000093E5 		ldr	r0, [r3]
 2519 0da0 04118DE5 		str	r1, [sp, #260]
 2520 0da4 910201E0 		mul	r1, r1, r2
 2521 0da8 1CC18DE5 		str	ip, [sp, #284]
 2522 0dac 00018DE5 		str	r0, [sp, #256]
 2523 0db0 14218DE5 		str	r2, [sp, #276]
 2524 0db4 EC009DE5 		ldr	r0, [sp, #236]
 2525 0db8 10118DE5 		str	r1, [sp, #272]
 2526 0dbc 9FFEFFDA 		ble	.L939
 2527              	.L563:
 2528 0dc0 08C090E5 		ldr	ip, [r0, #8]
 2529 0dc4 050057E3 		cmp	r7, #5
 2530 0dc8 0C2090E5 		ldr	r2, [r0, #12]
 2531 0dcc 01E0A0E3 		mov	lr, #1
 2532 0dd0 041090E5 		ldr	r1, [r0, #4]
 2533 0dd4 28C18DE5 		str	ip, [sp, #296]
 2534 0dd8 2C218DE5 		str	r2, [sp, #300]
 2535 0ddc 38218DE5 		str	r2, [sp, #312]
 2536 0de0 9C0202E0 		mul	r2, ip, r2
 2537 0de4 00C090E5 		ldr	ip, [r0]
 2538 0de8 24118DE5 		str	r1, [sp, #292]
 2539 0dec 3CE18DE5 		str	lr, [sp, #316]
 2540 0df0 910201E0 		mul	r1, r1, r2
 2541 0df4 34218DE5 		str	r2, [sp, #308]
 2542 0df8 20C18DE5 		str	ip, [sp, #288]
 2543 0dfc 30118DE5 		str	r1, [sp, #304]
 2544 0e00 510000CA 		bgt	.L940
 2545 0e04 000057E3 		cmp	r7, #0
 2546 0e08 2E0100DA 		ble	.L569
 2547 0e0c 002090E5 		ldr	r2, [r0]
 2548 0e10 020053E1 		cmp	r3, r2
 2549 0e14 0900000A 		beq	.L588
 2550 0e18 010053E3 		cmp	r3, #1
 2551 0e1c 0030A003 		moveq	r3, #0
 2552 0e20 00218D05 		streq	r2, [sp, #256]
 2553 0e24 10318D05 		streq	r3, [sp, #272]
 2554 0e28 0400000A 		beq	.L588
 2555 0e2c 010052E3 		cmp	r2, #1
 2556 0e30 2201001A 		bne	.L572
 2557 0e34 0020A0E3 		mov	r2, #0
 2558 0e38 20318DE5 		str	r3, [sp, #288]
 2559 0e3c 30218DE5 		str	r2, [sp, #304]
 2560              	.L588:
 2561 0e40 010057E3 		cmp	r7, #1
 2562 0e44 1F01000A 		beq	.L569
 2563 0e48 D8309DE5 		ldr	r3, [sp, #216]
 2564 0e4c 042090E5 		ldr	r2, [r0, #4]
 2565 0e50 030052E1 		cmp	r2, r3
 2566 0e54 0900000A 		beq	.L591
 2567 0e58 010053E3 		cmp	r3, #1
 2568 0e5c 0030A003 		moveq	r3, #0
 2569 0e60 04218D05 		streq	r2, [sp, #260]
 2570 0e64 14318D05 		streq	r3, [sp, #276]
 2571 0e68 0400000A 		beq	.L591
 2572 0e6c 010052E3 		cmp	r2, #1
 2573 0e70 1201001A 		bne	.L572
 2574 0e74 0020A0E3 		mov	r2, #0
 2575 0e78 24318DE5 		str	r3, [sp, #292]
 2576 0e7c 34218DE5 		str	r2, [sp, #308]
 2577              	.L591:
 2578 0e80 020057E3 		cmp	r7, #2
 2579 0e84 0F01000A 		beq	.L569
 2580 0e88 DC309DE5 		ldr	r3, [sp, #220]
 2581 0e8c 082090E5 		ldr	r2, [r0, #8]
 2582 0e90 030052E1 		cmp	r2, r3
 2583 0e94 0900000A 		beq	.L593
 2584 0e98 010053E3 		cmp	r3, #1
 2585 0e9c 0030A003 		moveq	r3, #0
 2586 0ea0 08218D05 		streq	r2, [sp, #264]
 2587 0ea4 18318D05 		streq	r3, [sp, #280]
 2588 0ea8 0400000A 		beq	.L593
 2589 0eac 010052E3 		cmp	r2, #1
 2590 0eb0 0201001A 		bne	.L572
 2591 0eb4 0020A0E3 		mov	r2, #0
 2592 0eb8 28318DE5 		str	r3, [sp, #296]
 2593 0ebc 38218DE5 		str	r2, [sp, #312]
 2594              	.L593:
 2595 0ec0 030057E3 		cmp	r7, #3
 2596 0ec4 FF00000A 		beq	.L569
 2597 0ec8 E0309DE5 		ldr	r3, [sp, #224]
 2598 0ecc 0C2090E5 		ldr	r2, [r0, #12]
 2599 0ed0 030052E1 		cmp	r2, r3
 2600 0ed4 0900000A 		beq	.L596
 2601              	.L603:
 2602 0ed8 010053E3 		cmp	r3, #1
 2603 0edc 0030A003 		moveq	r3, #0
 2604 0ee0 0C218D05 		streq	r2, [sp, #268]
 2605 0ee4 1C318D05 		streq	r3, [sp, #284]
 2606 0ee8 0400000A 		beq	.L596
 2607 0eec 010052E3 		cmp	r2, #1
 2608 0ef0 0020A003 		moveq	r2, #0
 2609 0ef4 2C318D05 		streq	r3, [sp, #300]
 2610 0ef8 3C218D05 		streq	r2, [sp, #316]
 2611 0efc EF00001A 		bne	.L572
 2612              	.L596:
 2613 0f00 000050E3 		cmp	r0, #0
 2614 0f04 8EFEFF0A 		beq	.L722
 2615 0f08 FEFFFFEB 		bl	_ZdaPv
 2616 0f0c 8CFEFFEA 		b	.L722
 2617              	.L915:
 2618 0f10 000051E3 		cmp	r1, #0
 2619 0f14 0120A003 		moveq	r2, #1
 2620 0f18 0180A001 		moveq	r8, r1
 2621 0f1c 6EFDFF0A 		beq	.L690
 2622 0f20 4DFDFFEA 		b	.L689
 2623              	.L914:
 2624 0f24 000052E3 		cmp	r2, #0
 2625 0f28 01C0A003 		moveq	ip, #1
 2626 0f2c 0270A001 		moveq	r7, r2
 2627 0f30 14FDFF0A 		beq	.L677
 2628 0f34 F3FCFFEA 		b	.L676
 2629              	.L913:
 2630 0f38 000052E3 		cmp	r2, #0
 2631 0f3c 0100A003 		moveq	r0, #1
 2632 0f40 0270A001 		moveq	r7, r2
 2633 0f44 BBFCFF0A 		beq	.L664
 2634 0f48 9AFCFFEA 		b	.L663
 2635              	.L940:
 2636 0f4c 001093E5 		ldr	r1, [r3]
 2637 0f50 002090E5 		ldr	r2, [r0]
 2638 0f54 020051E1 		cmp	r1, r2
 2639 0f58 0600000A 		beq	.L597
 2640 0f5c 010051E3 		cmp	r1, #1
 2641 0f60 4B00000A 		beq	.L598
 2642 0f64 010052E3 		cmp	r2, #1
 2643 0f68 D400001A 		bne	.L572
 2644 0f6c 0020A0E3 		mov	r2, #0
 2645 0f70 20118DE5 		str	r1, [sp, #288]
 2646 0f74 30218DE5 		str	r2, [sp, #304]
 2647              	.L597:
 2648 0f78 041093E5 		ldr	r1, [r3, #4]
 2649 0f7c 042090E5 		ldr	r2, [r0, #4]
 2650 0f80 020051E1 		cmp	r1, r2
 2651 0f84 0600000A 		beq	.L599
 2652 0f88 010051E3 		cmp	r1, #1
 2653 0f8c 3800000A 		beq	.L600
 2654 0f90 010052E3 		cmp	r2, #1
 2655 0f94 C900001A 		bne	.L572
 2656 0f98 0020A0E3 		mov	r2, #0
 2657 0f9c 24118DE5 		str	r1, [sp, #292]
 2658 0fa0 34218DE5 		str	r2, [sp, #308]
 2659              	.L599:
 2660 0fa4 081093E5 		ldr	r1, [r3, #8]
 2661 0fa8 082090E5 		ldr	r2, [r0, #8]
 2662 0fac 020051E1 		cmp	r1, r2
 2663 0fb0 0600000A 		beq	.L601
 2664 0fb4 010051E3 		cmp	r1, #1
 2665 0fb8 3100000A 		beq	.L602
 2666 0fbc 010052E3 		cmp	r2, #1
 2667 0fc0 BE00001A 		bne	.L572
 2668 0fc4 0020A0E3 		mov	r2, #0
 2669 0fc8 28118DE5 		str	r1, [sp, #296]
 2670 0fcc 38218DE5 		str	r2, [sp, #312]
 2671              	.L601:
 2672 0fd0 0C3093E5 		ldr	r3, [r3, #12]
 2673 0fd4 0C2090E5 		ldr	r2, [r0, #12]
 2674 0fd8 020053E1 		cmp	r3, r2
 2675 0fdc BDFFFF1A 		bne	.L603
 2676 0fe0 C6FFFFEA 		b	.L596
 2677              	.L587:
 2678 0fe4 0030A0E3 		mov	r3, #0
 2679 0fe8 0C218DE5 		str	r2, [sp, #268]
 2680 0fec 1C318DE5 		str	r3, [sp, #284]
 2681 0ff0 53FEFFEA 		b	.L722
 2682              	.L776:
 2683 0ff4 0060A0E3 		mov	r6, #0
 2684 0ff8 C9FDFFEA 		b	.L704
 2685              	.L785:
 2686              	.L891:
 2687 0ffc D0709DE5 		ldr	r7, [sp, #208]
 2688              	.L558:
 2689 1000 050057E3 		cmp	r7, #5
 2690 1004 030000DA 		ble	.L615
 2691 1008 D4009DE5 		ldr	r0, [sp, #212]
 2692 100c 000050E3 		cmp	r0, #0
 2693 1010 0000000A 		beq	.L615
 2694              	.L892:
 2695 1014 FEFFFFEB 		bl	_ZdaPv
 2696              	.L615:
 2697 1018 A0309DE5 		ldr	r3, [sp, #160]
 2698 101c 050053E3 		cmp	r3, #5
 2699 1020 030000DA 		ble	.L711
 2700 1024 A4009DE5 		ldr	r0, [sp, #164]
 2701 1028 000050E3 		cmp	r0, #0
 2702 102c 0000000A 		beq	.L711
 2703 1030 FEFFFFEB 		bl	_ZdaPv
 2704              	.L711:
 2705 1034 88309DE5 		ldr	r3, [sp, #136]
 2706 1038 050053E3 		cmp	r3, #5
 2707 103c 030000DA 		ble	.L713
 2708 1040 8C009DE5 		ldr	r0, [sp, #140]
 2709 1044 000050E3 		cmp	r0, #0
 2710 1048 0000000A 		beq	.L713
 2711 104c FEFFFFEB 		bl	_ZdaPv
 2712              	.L713:
 2713 1050 70309DE5 		ldr	r3, [sp, #112]
 2714 1054 050053E3 		cmp	r3, #5
 2715 1058 030000DA 		ble	.L720
 2716 105c 74009DE5 		ldr	r0, [sp, #116]
 2717 1060 000050E3 		cmp	r0, #0
 2718 1064 0000000A 		beq	.L720
 2719              	.L898:
 2720 1068 FEFFFFEB 		bl	_ZdaPv
 2721              	.L720:
 2722              	.LEHB27:
 2723 106c FEFFFFEB 		bl	__cxa_end_cleanup
 2724              	.LEHE27:
 2725              	.L779:
 2726 1070 E8FFFFEA 		b	.L615
 2727              	.L600:
 2728 1074 0010A0E3 		mov	r1, #0
 2729 1078 04218DE5 		str	r2, [sp, #260]
 2730 107c 14118DE5 		str	r1, [sp, #276]
 2731 1080 C7FFFFEA 		b	.L599
 2732              	.L602:
 2733 1084 0010A0E3 		mov	r1, #0
 2734 1088 08218DE5 		str	r2, [sp, #264]
 2735 108c 18118DE5 		str	r1, [sp, #280]
 2736 1090 CEFFFFEA 		b	.L601
 2737              	.L598:
 2738 1094 0010A0E3 		mov	r1, #0
 2739 1098 00218DE5 		str	r2, [sp, #256]
 2740 109c 10118DE5 		str	r1, [sp, #272]
 2741 10a0 B4FFFFEA 		b	.L597
 2742              	.L937:
 2743              	.LEHB28:
 2744 10a4 FEFFFFEB 		bl	abort
 2745              	.L936:
 2746 10a8 FEFFFFEB 		bl	abort
 2747              	.L935:
 2748 10ac FEFFFFEB 		bl	abort
 2749              	.L934:
 2750 10b0 FEFFFFEB 		bl	abort
 2751              	.L933:
 2752 10b4 FEFFFFEB 		bl	abort
 2753              	.L932:
 2754 10b8 FEFFFFEB 		bl	abort
 2755              	.L931:
 2756 10bc FEFFFFEB 		bl	abort
 2757              	.L930:
 2758 10c0 FEFFFFEB 		bl	abort
 2759              	.L929:
 2760 10c4 FEFFFFEB 		bl	abort
 2761              	.L928:
 2762 10c8 FEFFFFEB 		bl	abort
 2763              	.L927:
 2764 10cc FEFFFFEB 		bl	abort
 2765              	.L571:
 2766 10d0 0030A0E3 		mov	r3, #0
 2767 10d4 00018DE5 		str	r0, [sp, #256]
 2768 10d8 10318DE5 		str	r3, [sp, #272]
 2769 10dc F4FDFFEA 		b	.L570
 2770              	.L575:
 2771 10e0 0030A0E3 		mov	r3, #0
 2772 10e4 08118DE5 		str	r1, [sp, #264]
 2773 10e8 18318DE5 		str	r3, [sp, #280]
 2774 10ec 08FEFFEA 		b	.L576
 2775              	.L573:
 2776 10f0 0030A0E3 		mov	r3, #0
 2777 10f4 04C18DE5 		str	ip, [sp, #260]
 2778 10f8 14318DE5 		str	r3, [sp, #276]
 2779 10fc F8FDFFEA 		b	.L574
 2780              	.L926:
 2781 1100 FEFFFFEB 		bl	abort
 2782              	.LEHE28:
 2783              	.L629:
 2784 1104 40309DE5 		ldr	r3, [sp, #64]
 2785 1108 01C08CE2 		add	ip, ip, #1
 2786 110c 58209DE5 		ldr	r2, [sp, #88]
 2787 1110 023083E0 		add	r3, r3, r2
 2788 1114 5C209DE5 		ldr	r2, [sp, #92]
 2789 1118 40308DE5 		str	r3, [sp, #64]
 2790 111c 44309DE5 		ldr	r3, [sp, #68]
 2791 1120 023083E0 		add	r3, r3, r2
 2792 1124 60209DE5 		ldr	r2, [sp, #96]
 2793 1128 44308DE5 		str	r3, [sp, #68]
 2794 112c 48309DE5 		ldr	r3, [sp, #72]
 2795 1130 023083E0 		add	r3, r3, r2
 2796 1134 48308DE5 		str	r3, [sp, #72]
 2797 1138 ACFEFFEA 		b	.L624
 2798              	.L925:
 2799              	.LEHB29:
 2800 113c FEFFFFEB 		bl	abort
 2801              	.LEHE29:
 2802              	.L787:
 2803 1140 05005AE3 		cmp	r10, #5
 2804 1144 B3FFFFDA 		ble	.L615
 2805 1148 BC009DE5 		ldr	r0, [sp, #188]
 2806 114c 000050E3 		cmp	r0, #0
 2807 1150 AFFFFF1A 		bne	.L892
 2808 1154 AFFFFFEA 		b	.L615
 2809              	.L923:
 2810              	.LEHB30:
 2811 1158 FEFFFFEB 		bl	abort
 2812              	.L626:
 2813 115c 4C309DE5 		ldr	r3, [sp, #76]
 2814 1160 010080E2 		add	r0, r0, #1
 2815 1164 64209DE5 		ldr	r2, [sp, #100]
 2816 1168 023083E0 		add	r3, r3, r2
 2817 116c 68209DE5 		ldr	r2, [sp, #104]
 2818 1170 4C308DE5 		str	r3, [sp, #76]
 2819 1174 50309DE5 		ldr	r3, [sp, #80]
 2820 1178 023083E0 		add	r3, r3, r2
 2821 117c 6C209DE5 		ldr	r2, [sp, #108]
 2822 1180 50308DE5 		str	r3, [sp, #80]
 2823 1184 54309DE5 		ldr	r3, [sp, #84]
 2824 1188 023083E0 		add	r3, r3, r2
 2825 118c 54308DE5 		str	r3, [sp, #84]
 2826 1190 88FEFFEA 		b	.L621
 2827              	.L623:
 2828 1194 05005AE3 		cmp	r10, #5
 2829 1198 0A0000DA 		ble	.L653
 2830 119c 000059E3 		cmp	r9, #0
 2831 11a0 0800000A 		beq	.L653
 2832 11a4 0900A0E1 		mov	r0, r9
 2833 11a8 FEFFFFEB 		bl	_ZdaPv
 2834 11ac A0309DE5 		ldr	r3, [sp, #160]
 2835 11b0 050053E3 		cmp	r3, #5
 2836 11b4 030000DA 		ble	.L653
 2837 11b8 A4009DE5 		ldr	r0, [sp, #164]
 2838 11bc 000050E3 		cmp	r0, #0
 2839 11c0 0000000A 		beq	.L653
 2840 11c4 FEFFFFEB 		bl	_ZdaPv
 2841              	.L653:
 2842 11c8 88309DE5 		ldr	r3, [sp, #136]
 2843 11cc 050053E3 		cmp	r3, #5
 2844 11d0 030000DA 		ble	.L654
 2845 11d4 8C009DE5 		ldr	r0, [sp, #140]
 2846 11d8 000050E3 		cmp	r0, #0
 2847 11dc 0000000A 		beq	.L654
 2848 11e0 FEFFFFEB 		bl	_ZdaPv
 2849              	.L654:
 2850 11e4 70309DE5 		ldr	r3, [sp, #112]
 2851 11e8 050053E3 		cmp	r3, #5
 2852 11ec 71FDFFDA 		ble	.L543
 2853 11f0 74009DE5 		ldr	r0, [sp, #116]
 2854 11f4 000050E3 		cmp	r0, #0
 2855 11f8 6DFDFF1A 		bne	.L894
 2856 11fc 6DFDFFEA 		b	.L543
 2857              	.L922:
 2858 1200 FEFFFFEB 		bl	abort
 2859              	.L921:
 2860 1204 FEFFFFEB 		bl	abort
 2861              	.L920:
 2862 1208 FEFFFFEB 		bl	abort
 2863              	.L919:
 2864 120c FEFFFFEB 		bl	abort
 2865              	.LEHE30:
 2866              	.L909:
 2867              	.LEHB31:
 2868 1210 FEFFFFEB 		bl	abort
 2869              	.LEHE31:
 2870              	.L781:
 2871              	.L717:
 2872 1214 00319DE5 		ldr	r3, [sp, #256]
 2873 1218 050053E3 		cmp	r3, #5
 2874 121c 030000DA 		ble	.L719
 2875 1220 04019DE5 		ldr	r0, [sp, #260]
 2876 1224 000050E3 		cmp	r0, #0
 2877 1228 0000000A 		beq	.L719
 2878 122c FEFFFFEB 		bl	_ZdaPv
 2879              	.L719:
 2880 1230 E8309DE5 		ldr	r3, [sp, #232]
 2881 1234 050053E3 		cmp	r3, #5
 2882 1238 8BFFFFDA 		ble	.L720
 2883 123c EC009DE5 		ldr	r0, [sp, #236]
 2884 1240 000050E3 		cmp	r0, #0
 2885 1244 87FFFF1A 		bne	.L898
 2886 1248 87FFFFEA 		b	.L720
 2887              	.L784:
 2888 124c 6AFFFFEA 		b	.L891
 2889              	.L908:
 2890              	.LEHB32:
 2891 1250 FEFFFFEB 		bl	abort
 2892              	.LEHE32:
 2893              	.L564:
 2894              	.LEHB33:
 2895 1254 FEFFFFEB 		bl	abort
 2896              	.LEHE33:
 2897              	.L907:
 2898              	.LEHB34:
 2899 1258 FEFFFFEB 		bl	abort
 2900              	.LEHE34:
 2901              	.L916:
 2902              	.LEHB35:
 2903 125c FEFFFFEB 		bl	abort
 2904              	.L700:
 2905 1260 FEFFFFEB 		bl	abort
 2906              	.LEHE35:
 2907              	.L782:
 2908 1264 20319DE5 		ldr	r3, [sp, #288]
 2909 1268 050053E3 		cmp	r3, #5
 2910 126c E8FFFFDA 		ble	.L717
 2911 1270 24019DE5 		ldr	r0, [sp, #292]
 2912 1274 000050E3 		cmp	r0, #0
 2913 1278 E5FFFF0A 		beq	.L717
 2914 127c FEFFFFEB 		bl	_ZdaPv
 2915 1280 E3FFFFEA 		b	.L717
 2916              	.L561:
 2917              	.LEHB36:
 2918 1284 FEFFFFEB 		bl	abort
 2919              	.LEHE36:
 2920              	.L783:
 2921              	.L611:
 2922 1288 050058E3 		cmp	r8, #5
 2923 128c 5BFFFFDA 		ble	.L558
 2924 1290 EC009DE5 		ldr	r0, [sp, #236]
 2925 1294 000050E3 		cmp	r0, #0
 2926 1298 58FFFF0A 		beq	.L558
 2927 129c FEFFFFEB 		bl	_ZdaPv
 2928 12a0 56FFFFEA 		b	.L558
 2929              	.L786:
 2930 12a4 E8809DE5 		ldr	r8, [sp, #232]
 2931 12a8 F6FFFFEA 		b	.L611
 2932              	.L911:
 2933              	.LEHB37:
 2934 12ac FEFFFFEB 		bl	abort
 2935              	.LEHE37:
 2936              	.L780:
 2937 12b0 DEFFFFEA 		b	.L719
 2938              	.L910:
 2939              	.LEHB38:
 2940 12b4 FEFFFFEB 		bl	abort
 2941              	.LEHE38:
 2942              	.L906:
 2943              	.LEHB39:
 2944 12b8 FEFFFFEB 		bl	abort
 2945              	.LEHE39:
 2946              	.L777:
 2947 12bc 63FFFFEA 		b	.L713
 2948              	.L572:
 2949              	.LEHB40:
 2950 12c0 FEFFFFEB 		bl	abort
 2951              	.L778:
 2952 12c4 5AFFFFEA 		b	.L711
 2953              	.L569:
 2954 12c8 FEFFFFEB 		bl	abort
 2955              	.LEHE40:
 2956              		.personality	__gxx_personality_v0
 2957              		.handlerdata
 2958              	.LLSDA9031:
 2959 000c FF       		.byte	0xff
 2960 000d FF       		.byte	0xff
 2961 000e 01       		.byte	0x1
 2962 000f 8501     		.uleb128 .LLSDACSE9031-.LLSDACSB9031
 2963              	.LLSDACSB9031:
 2964 0011 34       		.uleb128 .LEHB18-.LFB9031
 2965 0012 04       		.uleb128 .LEHE18-.LEHB18
 2966 0013 00       		.uleb128 0
 2967 0014 00       		.uleb128 0
 2968 0015 4C       		.uleb128 .LEHB19-.LFB9031
 2969 0016 04       		.uleb128 .LEHE19-.LEHB19
 2970 0017 BC25     		.uleb128 .L777-.LFB9031
 2971 0019 00       		.uleb128 0
 2972 001a 64       		.uleb128 .LEHB20-.LFB9031
 2973 001b 04       		.uleb128 .LEHE20-.LEHB20
 2974 001c C425     		.uleb128 .L778-.LFB9031
 2975 001e 00       		.uleb128 0
 2976 001f C801     		.uleb128 .LEHB21-.LFB9031
 2977 0021 04       		.uleb128 .LEHE21-.LEHB21
 2978 0022 F020     		.uleb128 .L779-.LFB9031
 2979 0024 00       		.uleb128 0
 2980 0025 B802     		.uleb128 .LEHB22-.LFB9031
 2981 0027 04       		.uleb128 .LEHE22-.LEHB22
 2982 0028 FC1F     		.uleb128 .L785-.LFB9031
 2983 002a 00       		.uleb128 0
 2984 002b C002     		.uleb128 .LEHB23-.LFB9031
 2985 002d 04       		.uleb128 .LEHE23-.LEHB23
 2986 002e 00       		.uleb128 0
 2987 002f 00       		.uleb128 0
 2988 0030 D802     		.uleb128 .LEHB24-.LFB9031
 2989 0032 04       		.uleb128 .LEHE24-.LEHB24
 2990 0033 B025     		.uleb128 .L780-.LFB9031
 2991 0035 00       		.uleb128 0
 2992 0036 F002     		.uleb128 .LEHB25-.LFB9031
 2993 0038 04       		.uleb128 .LEHE25-.LEHB25
 2994 0039 9424     		.uleb128 .L781-.LFB9031
 2995 003b 00       		.uleb128 0
 2996 003c B413     		.uleb128 .LEHB26-.LFB9031
 2997 003e 04       		.uleb128 .LEHE26-.LEHB26
 2998 003f F020     		.uleb128 .L779-.LFB9031
 2999 0041 00       		.uleb128 0
 3000 0042 EC20     		.uleb128 .LEHB27-.LFB9031
 3001 0044 04       		.uleb128 .LEHE27-.LEHB27
 3002 0045 00       		.uleb128 0
 3003 0046 00       		.uleb128 0
 3004 0047 A421     		.uleb128 .LEHB28-.LFB9031
 3005 0049 60       		.uleb128 .LEHE28-.LEHB28
 3006 004a F020     		.uleb128 .L779-.LFB9031
 3007 004c 00       		.uleb128 0
 3008 004d BC22     		.uleb128 .LEHB29-.LFB9031
 3009 004f 04       		.uleb128 .LEHE29-.LEHB29
 3010 0050 C022     		.uleb128 .L787-.LFB9031
 3011 0052 00       		.uleb128 0
 3012 0053 D822     		.uleb128 .LEHB30-.LFB9031
 3013 0055 B801     		.uleb128 .LEHE30-.LEHB30
 3014 0057 F020     		.uleb128 .L779-.LFB9031
 3015 0059 00       		.uleb128 0
 3016 005a 9024     		.uleb128 .LEHB31-.LFB9031
 3017 005c 04       		.uleb128 .LEHE31-.LEHB31
 3018 005d CC24     		.uleb128 .L784-.LFB9031
 3019 005f 00       		.uleb128 0
 3020 0060 D024     		.uleb128 .LEHB32-.LFB9031
 3021 0062 04       		.uleb128 .LEHE32-.LEHB32
 3022 0063 F020     		.uleb128 .L779-.LFB9031
 3023 0065 00       		.uleb128 0
 3024 0066 D424     		.uleb128 .LEHB33-.LFB9031
 3025 0068 04       		.uleb128 .LEHE33-.LEHB33
 3026 0069 8825     		.uleb128 .L783-.LFB9031
 3027 006b 00       		.uleb128 0
 3028 006c D824     		.uleb128 .LEHB34-.LFB9031
 3029 006e 04       		.uleb128 .LEHE34-.LEHB34
 3030 006f C425     		.uleb128 .L778-.LFB9031
 3031 0071 00       		.uleb128 0
 3032 0072 DC24     		.uleb128 .LEHB35-.LFB9031
 3033 0074 08       		.uleb128 .LEHE35-.LEHB35
 3034 0075 E424     		.uleb128 .L782-.LFB9031
 3035 0077 00       		.uleb128 0
 3036 0078 8425     		.uleb128 .LEHB36-.LFB9031
 3037 007a 04       		.uleb128 .LEHE36-.LEHB36
 3038 007b A425     		.uleb128 .L786-.LFB9031
 3039 007d 00       		.uleb128 0
 3040 007e AC25     		.uleb128 .LEHB37-.LFB9031
 3041 0080 04       		.uleb128 .LEHE37-.LEHB37
 3042 0081 9424     		.uleb128 .L781-.LFB9031
 3043 0083 00       		.uleb128 0
 3044 0084 B425     		.uleb128 .LEHB38-.LFB9031
 3045 0086 04       		.uleb128 .LEHE38-.LEHB38
 3046 0087 B025     		.uleb128 .L780-.LFB9031
 3047 0089 00       		.uleb128 0
 3048 008a B825     		.uleb128 .LEHB39-.LFB9031
 3049 008c 04       		.uleb128 .LEHE39-.LEHB39
 3050 008d BC25     		.uleb128 .L777-.LFB9031
 3051 008f 00       		.uleb128 0
 3052 0090 C025     		.uleb128 .LEHB40-.LFB9031
 3053 0092 0C       		.uleb128 .LEHE40-.LEHB40
 3054 0093 8825     		.uleb128 .L783-.LFB9031
 3055 0095 00       		.uleb128 0
 3056              	.LLSDACSE9031:
 3057              		.section	.text._ZN6tflite3ops5micro3add7EvalAddEP13TfLiteContextP10TfLiteNodeP15TfLiteAddParamsPKN
 3058              		.fnend
 3060              		.section	.text._ZN6tflite3ops5micro3add16EvalAddQuantizedEP13TfLiteContextP10TfLiteNodeP15TfLiteAd
 3061              		.align	2
 3062              		.global	_ZN6tflite3ops5micro3add16EvalAddQuantizedEP13TfLiteContextP10TfLiteNodeP15TfLiteAddParams
 3063              		.syntax unified
 3064              		.arm
 3065              		.fpu neon
 3067              	_ZN6tflite3ops5micro3add16EvalAddQuantizedEP13TfLiteContextP10TfLiteNodeP15TfLiteAddParamsPKNS2_6Op
 3068              		.fnstart
 3069              	.LFB9032:
 3070              		@ args = 12, pretend = 0, frame = 448
 3071              		@ frame_needed = 0, uses_anonymous_args = 0
 3072 0000 F04F2DE9 		push	{r4, r5, r6, r7, r8, r9, r10, fp, lr}
 3073              		.save {r4, r5, r6, r7, r8, r9, r10, fp, lr}
 3074              		.pad #452
 3075 0004 71DF4DE2 		sub	sp, sp, #452
 3076 0008 F0619DE5 		ldr	r6, [sp, #496]
 3077 000c 0820D6E5 		ldrb	r2, [r6, #8]	@ zero_extendqisi2
 3078 0010 090052E3 		cmp	r2, #9
 3079 0014 03005213 		cmpne	r2, #3
 3080 0018 0200000A 		beq	.L1810
 3081              	.L1628:
 3082 001c 0000A0E3 		mov	r0, #0
 3083 0020 71DF8DE2 		add	sp, sp, #452
 3084              		@ sp needed
 3085 0024 F08FBDE8 		pop	{r4, r5, r6, r7, r8, r9, r10, fp, pc}
 3086              	.L1810:
 3087 0028 282093E5 		ldr	r2, [r3, #40]
 3088 002c 460F8DE2 		add	r0, sp, #280
 3089 0030 14E093E5 		ldr	lr, [r3, #20]
 3090 0034 04C093E5 		ldr	ip, [r3, #4]
 3091 0038 5C218DE5 		str	r2, [sp, #348]
 3092 003c 2C2093E5 		ldr	r2, [r3, #44]
 3093 0040 74E18DE5 		str	lr, [sp, #372]
 3094 0044 78C18DE5 		str	ip, [sp, #376]
 3095 0048 18E093E5 		ldr	lr, [r3, #24]
 3096 004c 08C093E5 		ldr	ip, [r3, #8]
 3097 0050 60218DE5 		str	r2, [sp, #352]
 3098 0054 302093E5 		ldr	r2, [r3, #48]
 3099 0058 244093E5 		ldr	r4, [r3, #36]
 3100 005c 7CE18DE5 		str	lr, [sp, #380]
 3101 0060 80C18DE5 		str	ip, [sp, #384]
 3102 0064 1CE093E5 		ldr	lr, [r3, #28]
 3103 0068 20C093E5 		ldr	ip, [r3, #32]
 3104 006c 64218DE5 		str	r2, [sp, #356]
 3105 0070 102093E5 		ldr	r2, [r3, #16]
 3106 0074 0C3093E5 		ldr	r3, [r3, #12]
 3107 0078 E8119DE5 		ldr	r1, [sp, #488]
 3108 007c 70418DE5 		str	r4, [sp, #368]
 3109 0080 68E18DE5 		str	lr, [sp, #360]
 3110 0084 6CC18DE5 		str	ip, [sp, #364]
 3111 0088 88218DE5 		str	r2, [sp, #392]
 3112 008c 84318DE5 		str	r3, [sp, #388]
 3113              	.LEHB41:
 3114 0090 FEFFFFEB 		bl	_ZN6tflite5micro14GetTensorShapeEPK16TfLiteEvalTensor
 3115              	.LEHE41:
 3116 0094 4E0F8DE2 		add	r0, sp, #312
 3117 0098 EC119DE5 		ldr	r1, [sp, #492]
 3118              	.LEHB42:
 3119 009c FEFFFFEB 		bl	_ZN6tflite5micro14GetTensorShapeEPK16TfLiteEvalTensor
 3120              	.LEHE42:
 3121 00a0 562F8DE2 		add	r2, sp, #344
 3122 00a4 4E1F8DE2 		add	r1, sp, #312
 3123 00a8 460F8DE2 		add	r0, sp, #280
 3124              	.LEHB43:
 3125 00ac FEFFFFEB 		bl	_ZN6tflite13reference_ops22ProcessBroadcastShapesERKNS_12RuntimeShapeES3_PNS_16ArithmeticParams
 3126              	.LEHE43:
 3127 00b0 38319DE5 		ldr	r3, [sp, #312]
 3128 00b4 0040A0E1 		mov	r4, r0
 3129 00b8 050053E3 		cmp	r3, #5
 3130 00bc 030000DA 		ble	.L943
 3131 00c0 3C019DE5 		ldr	r0, [sp, #316]
 3132 00c4 000050E3 		cmp	r0, #0
 3133 00c8 0000000A 		beq	.L943
 3134 00cc FEFFFFEB 		bl	_ZdaPv
 3135              	.L943:
 3136 00d0 18319DE5 		ldr	r3, [sp, #280]
 3137 00d4 050053E3 		cmp	r3, #5
 3138 00d8 030000DA 		ble	.L944
 3139 00dc 1C019DE5 		ldr	r0, [sp, #284]
 3140 00e0 000050E3 		cmp	r0, #0
 3141 00e4 0000000A 		beq	.L944
 3142 00e8 FEFFFFEB 		bl	_ZdaPv
 3143              	.L944:
 3144 00ec 0830D6E5 		ldrb	r3, [r6, #8]	@ zero_extendqisi2
 3145 00f0 E8119DE5 		ldr	r1, [sp, #488]
 3146 00f4 090053E3 		cmp	r3, #9
 3147 00f8 9702000A 		beq	.L1811
 3148 00fc 000054E3 		cmp	r4, #0
 3149 0100 D301001A 		bne	.L1812
 3150 0104 010C8DE2 		add	r0, sp, #256
 3151              	.LEHB44:
 3152 0108 FEFFFFEB 		bl	_ZN6tflite5micro14GetTensorShapeEPK16TfLiteEvalTensor
 3153              	.LEHE44:
 3154 010c E8319DE5 		ldr	r3, [sp, #488]
 3155 0110 000053E3 		cmp	r3, #0
 3156 0114 F20A000A 		beq	.L1813
 3157 0118 460F8DE2 		add	r0, sp, #280
 3158 011c EC119DE5 		ldr	r1, [sp, #492]
 3159 0120 005093E5 		ldr	r5, [r3]
 3160              	.LEHB45:
 3161 0124 FEFFFFEB 		bl	_ZN6tflite5micro14GetTensorShapeEPK16TfLiteEvalTensor
 3162              	.LEHE45:
 3163 0128 EC319DE5 		ldr	r3, [sp, #492]
 3164 012c 000053E3 		cmp	r3, #0
 3165 0130 E90A000A 		beq	.L1814
 3166 0134 4E0F8DE2 		add	r0, sp, #312
 3167 0138 0610A0E1 		mov	r1, r6
 3168 013c 004093E5 		ldr	r4, [r3]
 3169              	.LEHB46:
 3170 0140 FEFFFFEB 		bl	_ZN6tflite5micro14GetTensorShapeEPK16TfLiteEvalTensor
 3171              	.LEHE46:
 3172 0144 84219DE5 		ldr	r2, [sp, #388]
 3173 0148 88319DE5 		ldr	r3, [sp, #392]
 3174 014c 006096E5 		ldr	r6, [r6]
 3175 0150 030052E1 		cmp	r2, r3
 3176 0154 010B00CA 		bgt	.L1815
 3177 0158 00C19DE5 		ldr	ip, [sp, #256]
 3178 015c 05005CE3 		cmp	ip, #5
 3179 0160 440300DA 		ble	.L1259
 3180 0164 04E19DE5 		ldr	lr, [sp, #260]
 3181              	.L1260:
 3182 0168 5E31A0E7 		sbfx	r3, lr, #2, #1
 3183 016c 033003E2 		and	r3, r3, #3
 3184 0170 0C0053E1 		cmp	r3, ip
 3185 0174 0C30A021 		movcs	r3, ip
 3186 0178 08005CE3 		cmp	ip, #8
 3187 017c 0C30A0D1 		movle	r3, ip
 3188 0180 6E0800CA 		bgt	.L1816
 3189              	.L1262:
 3190 0184 010053E3 		cmp	r3, #1
 3191 0188 00209EE5 		ldr	r2, [lr]
 3192 018c 3503000A 		beq	.L1451
 3193 0190 04109EE5 		ldr	r1, [lr, #4]
 3194 0194 020053E3 		cmp	r3, #2
 3195 0198 910202E0 		mul	r2, r1, r2
 3196 019c 3103000A 		beq	.L1451
 3197 01a0 08109EE5 		ldr	r1, [lr, #8]
 3198 01a4 030053E3 		cmp	r3, #3
 3199 01a8 910202E0 		mul	r2, r1, r2
 3200 01ac 2D03000A 		beq	.L1451
 3201 01b0 0C109EE5 		ldr	r1, [lr, #12]
 3202 01b4 040053E3 		cmp	r3, #4
 3203 01b8 910202E0 		mul	r2, r1, r2
 3204 01bc 2903000A 		beq	.L1451
 3205 01c0 10109EE5 		ldr	r1, [lr, #16]
 3206 01c4 050053E3 		cmp	r3, #5
 3207 01c8 910202E0 		mul	r2, r1, r2
 3208 01cc 2503000A 		beq	.L1451
 3209 01d0 14109EE5 		ldr	r1, [lr, #20]
 3210 01d4 060053E3 		cmp	r3, #6
 3211 01d8 910202E0 		mul	r2, r1, r2
 3212 01dc 2103000A 		beq	.L1451
 3213 01e0 18109EE5 		ldr	r1, [lr, #24]
 3214 01e4 070053E3 		cmp	r3, #7
 3215 01e8 910202E0 		mul	r2, r1, r2
 3216 01ec 1D03000A 		beq	.L1451
 3217 01f0 1C109EE5 		ldr	r1, [lr, #28]
 3218 01f4 0870A0E3 		mov	r7, #8
 3219 01f8 910202E0 		mul	r2, r1, r2
 3220              	.L1264:
 3221 01fc 03005CE1 		cmp	ip, r3
 3222 0200 2800000A 		beq	.L1261
 3223              	.L1263:
 3224 0204 03804CE0 		sub	r8, ip, r3
 3225 0208 01104CE2 		sub	r1, ip, #1
 3226 020c 040048E2 		sub	r0, r8, #4
 3227 0210 031041E0 		sub	r1, r1, r3
 3228 0214 2001A0E1 		lsr	r0, r0, #2
 3229 0218 020051E3 		cmp	r1, #2
 3230 021c 010080E2 		add	r0, r0, #1
 3231 0220 0091A0E1 		lsl	r9, r0, #2
 3232 0224 1200009A 		bls	.L1266
 3233 0228 03318EE0 		add	r3, lr, r3, lsl #2
 3234 022c 5100C0F2 		vmov.i32	q8, #1  @ v4si
 3235 0230 0010A0E3 		mov	r1, #0
 3236              	.L1268:
 3237 0234 011081E2 		add	r1, r1, #1
 3238 0238 DF2A63F4 		vld1.64	{d18-d19}, [r3:64]
 3239 023c 010050E1 		cmp	r0, r1
 3240 0240 103083E2 		add	r3, r3, #16
 3241 0244 F20960F2 		vmul.i32	q8, q8, q9
 3242 0248 F9FFFF8A 		bhi	.L1268
 3243 024c 080059E1 		cmp	r9, r8
 3244 0250 097087E0 		add	r7, r7, r9
 3245 0254 5020C0F2 		vmov.i32	q9, #0  @ v4si
 3246 0258 E248F0F2 		vext.32	q10, q8, q9, #2
 3247 025c F40960F2 		vmul.i32	q8, q8, q10
 3248 0260 E224F0F2 		vext.32	q9, q8, q9, #1
 3249 0264 F20960F2 		vmul.i32	q8, q8, q9
 3250 0268 901B10EE 		vmov.32	r1, d16[0]
 3251 026c 910202E0 		mul	r2, r1, r2
 3252 0270 0C00000A 		beq	.L1261
 3253              	.L1266:
 3254 0274 07119EE7 		ldr	r1, [lr, r7, lsl #2]
 3255 0278 013087E2 		add	r3, r7, #1
 3256 027c 03005CE1 		cmp	ip, r3
 3257 0280 0731A0E1 		lsl	r3, r7, #2
 3258 0284 910202E0 		mul	r2, r1, r2
 3259 0288 060000DA 		ble	.L1261
 3260 028c 03308EE0 		add	r3, lr, r3
 3261 0290 021087E2 		add	r1, r7, #2
 3262 0294 040093E5 		ldr	r0, [r3, #4]
 3263 0298 01005CE1 		cmp	ip, r1
 3264 029c 900202E0 		mul	r2, r0, r2
 3265 02a0 083093C5 		ldrgt	r3, [r3, #8]
 3266 02a4 930202C0 		mulgt	r2, r3, r2
 3267              	.L1261:
 3268 02a8 18C19DE5 		ldr	ip, [sp, #280]
 3269 02ac 05005CE3 		cmp	ip, #5
 3270 02b0 F50200DA 		ble	.L1272
 3271 02b4 1CE19DE5 		ldr	lr, [sp, #284]
 3272              	.L1273:
 3273 02b8 5E31A0E7 		sbfx	r3, lr, #2, #1
 3274 02bc 033003E2 		and	r3, r3, #3
 3275 02c0 0C0053E1 		cmp	r3, ip
 3276 02c4 0C30A021 		movcs	r3, ip
 3277 02c8 08005CE3 		cmp	ip, #8
 3278 02cc 0C30A0D1 		movle	r3, ip
 3279 02d0 100800CA 		bgt	.L1817
 3280              	.L1275:
 3281 02d4 010053E3 		cmp	r3, #1
 3282 02d8 00A09EE5 		ldr	r10, [lr]
 3283 02dc E302000A 		beq	.L1461
 3284 02e0 04109EE5 		ldr	r1, [lr, #4]
 3285 02e4 020053E3 		cmp	r3, #2
 3286 02e8 910A0AE0 		mul	r10, r1, r10
 3287 02ec DF02000A 		beq	.L1461
 3288 02f0 08109EE5 		ldr	r1, [lr, #8]
 3289 02f4 030053E3 		cmp	r3, #3
 3290 02f8 910A0AE0 		mul	r10, r1, r10
 3291 02fc DB02000A 		beq	.L1461
 3292 0300 0C109EE5 		ldr	r1, [lr, #12]
 3293 0304 040053E3 		cmp	r3, #4
 3294 0308 910A0AE0 		mul	r10, r1, r10
 3295 030c D702000A 		beq	.L1461
 3296 0310 10109EE5 		ldr	r1, [lr, #16]
 3297 0314 050053E3 		cmp	r3, #5
 3298 0318 910A0AE0 		mul	r10, r1, r10
 3299 031c D302000A 		beq	.L1461
 3300 0320 14109EE5 		ldr	r1, [lr, #20]
 3301 0324 060053E3 		cmp	r3, #6
 3302 0328 910A0AE0 		mul	r10, r1, r10
 3303 032c CF02000A 		beq	.L1461
 3304 0330 18109EE5 		ldr	r1, [lr, #24]
 3305 0334 070053E3 		cmp	r3, #7
 3306 0338 910A0AE0 		mul	r10, r1, r10
 3307 033c CB02000A 		beq	.L1461
 3308 0340 1C009EE5 		ldr	r0, [lr, #28]
 3309 0344 0810A0E3 		mov	r1, #8
 3310 0348 900A0AE0 		mul	r10, r0, r10
 3311              	.L1277:
 3312 034c 03005CE1 		cmp	ip, r3
 3313 0350 2800000A 		beq	.L1274
 3314              	.L1276:
 3315 0354 03704CE0 		sub	r7, ip, r3
 3316 0358 01804CE2 		sub	r8, ip, #1
 3317 035c 040047E2 		sub	r0, r7, #4
 3318 0360 038048E0 		sub	r8, r8, r3
 3319 0364 2001A0E1 		lsr	r0, r0, #2
 3320 0368 020058E3 		cmp	r8, #2
 3321 036c 010080E2 		add	r0, r0, #1
 3322 0370 0091A0E1 		lsl	r9, r0, #2
 3323 0374 1200009A 		bls	.L1279
 3324 0378 03318EE0 		add	r3, lr, r3, lsl #2
 3325 037c 5120C0F2 		vmov.i32	q9, #1  @ v4si
 3326 0380 0080A0E3 		mov	r8, #0
 3327              	.L1281:
 3328 0384 018088E2 		add	r8, r8, #1
 3329 0388 DF0A63F4 		vld1.64	{d16-d17}, [r3:64]
 3330 038c 080050E1 		cmp	r0, r8
 3331 0390 103083E2 		add	r3, r3, #16
 3332 0394 F02962F2 		vmul.i32	q9, q9, q8
 3333 0398 F9FFFF8A 		bhi	.L1281
 3334 039c 070059E1 		cmp	r9, r7
 3335 03a0 091081E0 		add	r1, r1, r9
 3336 03a4 5000C0F2 		vmov.i32	q8, #0  @ v4si
 3337 03a8 E048F2F2 		vext.32	q10, q9, q8, #2
 3338 03ac F22964F2 		vmul.i32	q9, q10, q9
 3339 03b0 E004F2F2 		vext.32	q8, q9, q8, #1
 3340 03b4 F20960F2 		vmul.i32	q8, q8, q9
 3341 03b8 903B10EE 		vmov.32	r3, d16[0]
 3342 03bc 930A0AE0 		mul	r10, r3, r10
 3343 03c0 0C00000A 		beq	.L1274
 3344              	.L1279:
 3345 03c4 01019EE7 		ldr	r0, [lr, r1, lsl #2]
 3346 03c8 013081E2 		add	r3, r1, #1
 3347 03cc 03005CE1 		cmp	ip, r3
 3348 03d0 0131A0E1 		lsl	r3, r1, #2
 3349 03d4 900A0AE0 		mul	r10, r0, r10
 3350 03d8 060000DA 		ble	.L1274
 3351 03dc 03308EE0 		add	r3, lr, r3
 3352 03e0 021081E2 		add	r1, r1, #2
 3353 03e4 040093E5 		ldr	r0, [r3, #4]
 3354 03e8 01005CE1 		cmp	ip, r1
 3355 03ec 900A0AE0 		mul	r10, r0, r10
 3356 03f0 083093C5 		ldrgt	r3, [r3, #8]
 3357 03f4 930A0AC0 		mulgt	r10, r3, r10
 3358              	.L1274:
 3359 03f8 38C19DE5 		ldr	ip, [sp, #312]
 3360 03fc 05005CE3 		cmp	ip, #5
 3361 0400 A60200DA 		ble	.L1285
 3362 0404 3C719DE5 		ldr	r7, [sp, #316]
 3363              	.L1286:
 3364 0408 5731A0E7 		sbfx	r3, r7, #2, #1
 3365 040c 033003E2 		and	r3, r3, #3
 3366 0410 0C0053E1 		cmp	r3, ip
 3367 0414 0C30A021 		movcs	r3, ip
 3368 0418 08005CE3 		cmp	ip, #8
 3369 041c 0C30A0D1 		movle	r3, ip
 3370 0420 C10700CA 		bgt	.L1818
 3371              	.L1288:
 3372 0424 010053E3 		cmp	r3, #1
 3373 0428 00E097E5 		ldr	lr, [r7]
 3374 042c 8B02000A 		beq	.L1471
 3375 0430 041097E5 		ldr	r1, [r7, #4]
 3376 0434 020053E3 		cmp	r3, #2
 3377 0438 910E0EE0 		mul	lr, r1, lr
 3378 043c 8702000A 		beq	.L1471
 3379 0440 081097E5 		ldr	r1, [r7, #8]
 3380 0444 030053E3 		cmp	r3, #3
 3381 0448 910E0EE0 		mul	lr, r1, lr
 3382 044c 8302000A 		beq	.L1471
 3383 0450 0C1097E5 		ldr	r1, [r7, #12]
 3384 0454 040053E3 		cmp	r3, #4
 3385 0458 910E0EE0 		mul	lr, r1, lr
 3386 045c 7F02000A 		beq	.L1471
 3387 0460 101097E5 		ldr	r1, [r7, #16]
 3388 0464 050053E3 		cmp	r3, #5
 3389 0468 910E0EE0 		mul	lr, r1, lr
 3390 046c 7B02000A 		beq	.L1471
 3391 0470 141097E5 		ldr	r1, [r7, #20]
 3392 0474 060053E3 		cmp	r3, #6
 3393 0478 910E0EE0 		mul	lr, r1, lr
 3394 047c 7702000A 		beq	.L1471
 3395 0480 181097E5 		ldr	r1, [r7, #24]
 3396 0484 070053E3 		cmp	r3, #7
 3397 0488 910E0EE0 		mul	lr, r1, lr
 3398 048c 7302000A 		beq	.L1471
 3399 0490 1C0097E5 		ldr	r0, [r7, #28]
 3400 0494 0810A0E3 		mov	r1, #8
 3401 0498 900E0EE0 		mul	lr, r0, lr
 3402              	.L1290:
 3403 049c 03005CE1 		cmp	ip, r3
 3404 04a0 2800000A 		beq	.L1287
 3405              	.L1289:
 3406 04a4 03804CE0 		sub	r8, ip, r3
 3407 04a8 01904CE2 		sub	r9, ip, #1
 3408 04ac 040048E2 		sub	r0, r8, #4
 3409 04b0 039049E0 		sub	r9, r9, r3
 3410 04b4 2001A0E1 		lsr	r0, r0, #2
 3411 04b8 020059E3 		cmp	r9, #2
 3412 04bc 010080E2 		add	r0, r0, #1
 3413 04c0 0091A0E1 		lsl	r9, r0, #2
 3414 04c4 1200009A 		bls	.L1292
 3415 04c8 033187E0 		add	r3, r7, r3, lsl #2
 3416 04cc 5120C0F2 		vmov.i32	q9, #1  @ v4si
 3417 04d0 00B0A0E3 		mov	fp, #0
 3418              	.L1294:
 3419 04d4 01B08BE2 		add	fp, fp, #1
 3420 04d8 DF0A63F4 		vld1.64	{d16-d17}, [r3:64]
 3421 04dc 0B0050E1 		cmp	r0, fp
 3422 04e0 103083E2 		add	r3, r3, #16
 3423 04e4 F02962F2 		vmul.i32	q9, q9, q8
 3424 04e8 F9FFFF8A 		bhi	.L1294
 3425 04ec 080059E1 		cmp	r9, r8
 3426 04f0 091081E0 		add	r1, r1, r9
 3427 04f4 5000C0F2 		vmov.i32	q8, #0  @ v4si
 3428 04f8 E048F2F2 		vext.32	q10, q9, q8, #2
 3429 04fc F22964F2 		vmul.i32	q9, q10, q9
 3430 0500 E004F2F2 		vext.32	q8, q9, q8, #1
 3431 0504 F20960F2 		vmul.i32	q8, q8, q9
 3432 0508 903B10EE 		vmov.32	r3, d16[0]
 3433 050c 930E0EE0 		mul	lr, r3, lr
 3434 0510 0C00000A 		beq	.L1287
 3435              	.L1292:
 3436 0514 010197E7 		ldr	r0, [r7, r1, lsl #2]
 3437 0518 013081E2 		add	r3, r1, #1
 3438 051c 03005CE1 		cmp	ip, r3
 3439 0520 0131A0E1 		lsl	r3, r1, #2
 3440 0524 900E0EE0 		mul	lr, r0, lr
 3441 0528 060000DA 		ble	.L1287
 3442 052c 033087E0 		add	r3, r7, r3
 3443 0530 021081E2 		add	r1, r1, #2
 3444 0534 040093E5 		ldr	r0, [r3, #4]
 3445 0538 01005CE1 		cmp	ip, r1
 3446 053c 900E0EE0 		mul	lr, r0, lr
 3447 0540 083093C5 		ldrgt	r3, [r3, #8]
 3448 0544 930E0EC0 		mulgt	lr, r3, lr
 3449              	.L1287:
 3450 0548 02005AE1 		cmp	r10, r2
 3451 054c 060A001A 		bne	.L1819
 3452 0550 0A005EE1 		cmp	lr, r10
 3453 0554 D009001A 		bne	.L1820
 3454 0558 5C319DE5 		ldr	r3, [sp, #348]
 3455 055c FF0073E3 		cmn	r3, #255
 3456 0560 CC0900BA 		blt	.L1821
 3457 0564 60219DE5 		ldr	r2, [sp, #352]
 3458 0568 FF0072E3 		cmn	r2, #255
 3459 056c C80900BA 		blt	.L1822
 3460 0570 FF0053E3 		cmp	r3, #255
 3461 0574 C50900CA 		bgt	.L1823
 3462 0578 FF0052E3 		cmp	r2, #255
 3463 057c C20900CA 		bgt	.L1824
 3464 0580 FF0073E3 		cmn	r3, #255
 3465 0584 BF09000A 		beq	.L1825
 3466 0588 FF0072E3 		cmn	r2, #255
 3467 058c BC09000A 		beq	.L1826
 3468 0590 FF0053E3 		cmp	r3, #255
 3469 0594 B909000A 		beq	.L1827
 3470 0598 FF0052E3 		cmp	r2, #255
 3471 059c B109000A 		beq	.L1307
 3472 05a0 00005AE3 		cmp	r10, #0
 3473 05a4 950000DA 		ble	.L1308
 3474 05a8 05C0A0E1 		mov	ip, r5
 3475 05ac 01E044E2 		sub	lr, r4, #1
 3476 05b0 0AA085E0 		add	r10, r5, r10
 3477 05b4 016046E2 		sub	r6, r6, #1
 3478 05b8 EA0BDFED 		vldr.64	d16, .L1915	@ int
 3479 05bc 010000EA 		b	.L1309
 3480              	.L1834:
 3481 05c0 5C319DE5 		ldr	r3, [sp, #348]
 3482 05c4 60219DE5 		ldr	r2, [sp, #352]
 3483              	.L1309:
 3484 05c8 70519DE5 		ldr	r5, [sp, #368]
 3485 05cc 0140DCE4 		ldrb	r4, [ip], #1	@ zero_extendqisi2
 3486 05d0 74719DE5 		ldr	r7, [sp, #372]
 3487 05d4 0110FEE5 		ldrb	r1, [lr, #1]!	@ zero_extendqisi2
 3488 05d8 034084E0 		add	r4, r4, r3
 3489 05dc 78019DE5 		ldr	r0, [sp, #376]
 3490 05e0 1445A0E1 		lsl	r4, r4, r5
 3491 05e4 021081E0 		add	r1, r1, r2
 3492 05e8 9427C3E0 		smull	r2, r3, r4, r7
 3493 05ec 070054E1 		cmp	r4, r7
 3494 05f0 02015403 		cmpeq	r4, #-2147483648
 3495 05f4 0170A003 		moveq	r7, #1
 3496 05f8 0070A013 		movne	r7, #0
 3497 05fc 1115A0E1 		lsl	r1, r1, r5
 3498 0600 000052E3 		cmp	r2, #0
 3499 0604 0040D3E2 		sbcs	r4, r3, #0
 3500 0608 0141A0A3 		movge	r4, #1073741824
 3501 060c 0741A0B3 		movlt	r4, #-1073741823
 3502 0610 0050A0A3 		movge	r5, #0
 3503 0614 0050E0B3 		mvnlt	r5, #0
 3504 0618 000057E3 		cmp	r7, #0
 3505 061c 0241E013 		mvnne	r4, #-2147483648
 3506 0620 0800001A 		bne	.L1311
 3507 0624 024094E0 		adds	r4, r4, r2
 3508 0628 0350A5E0 		adc	r5, r5, r3
 3509 062c 0030A0E3 		mov	r3, #0
 3510 0630 C52FA0E1 		asr	r2, r5, #31
 3511 0634 0221C2E3 		bic	r2, r2, #-2147483648
 3512 0638 024094E0 		adds	r4, r4, r2
 3513 063c A44FA0E1 		lsr	r4, r4, #31
 3514 0640 0350A5E0 		adc	r5, r5, r3
 3515 0644 854084E1 		orr	r4, r4, r5, lsl #1
 3516              	.L1311:
 3517 0648 000050E3 		cmp	r0, #0
 3518 064c 003060E2 		rsb	r3, r0, #0
 3519 0650 7B0900CA 		bgt	.L1828
 3520 0654 1F0070E3 		cmn	r0, #31
 3521 0658 710900BA 		blt	.L1829
 3522 065c 903B02EE 		vmov.32	d18[0], r3
 3523 0660 5403A0E1 		asr	r0, r4, r3
 3524 0664 7C519DE5 		ldr	r5, [sp, #380]
 3525 0668 A01472F3 		vshl.u64	d17, d16, d18
 3526 066c 80719DE5 		ldr	r7, [sp, #384]
 3527 0670 050051E1 		cmp	r1, r5
 3528 0674 02015103 		cmpeq	r1, #-2147483648
 3529 0678 318B59EC 		vmov	r8, r9, d17	@ int
 3530 067c 018048E2 		sub	r8, r8, #1
 3531 0680 C830A0E1 		asr	r3, r8, #1
 3532 0684 048008E0 		and	r8, r8, r4
 3533 0688 A44F83E0 		add	r4, r3, r4, lsr #31
 3534 068c 9125C3E0 		smull	r2, r3, r1, r5
 3535 0690 0110A003 		moveq	r1, #1
 3536 0694 0010A013 		movne	r1, #0
 3537 0698 040058E1 		cmp	r8, r4
 3538 069c 010080C2 		addgt	r0, r0, #1
 3539 06a0 000052E3 		cmp	r2, #0
 3540 06a4 0040D3E2 		sbcs	r4, r3, #0
 3541 06a8 0141A0A3 		movge	r4, #1073741824
 3542 06ac 0741A0B3 		movlt	r4, #-1073741823
 3543 06b0 0050A0A3 		movge	r5, #0
 3544 06b4 0050E0B3 		mvnlt	r5, #0
 3545 06b8 000051E3 		cmp	r1, #0
 3546 06bc 0241E013 		mvnne	r4, #-2147483648
 3547 06c0 0800001A 		bne	.L1315
 3548 06c4 024094E0 		adds	r4, r4, r2
 3549 06c8 0350A5E0 		adc	r5, r5, r3
 3550 06cc 0030A0E3 		mov	r3, #0
 3551 06d0 C52FA0E1 		asr	r2, r5, #31
 3552 06d4 0221C2E3 		bic	r2, r2, #-2147483648
 3553 06d8 024094E0 		adds	r4, r4, r2
 3554 06dc A44FA0E1 		lsr	r4, r4, #31
 3555 06e0 0350A5E0 		adc	r5, r5, r3
 3556 06e4 854084E1 		orr	r4, r4, r5, lsl #1
 3557              	.L1315:
 3558 06e8 000057E3 		cmp	r7, #0
 3559 06ec 003067E2 		rsb	r3, r7, #0
 3560 06f0 430900CA 		bgt	.L1830
 3561 06f4 1F0077E3 		cmn	r7, #31
 3562 06f8 390900BA 		blt	.L1831
 3563 06fc 903B02EE 		vmov.32	d18[0], r3
 3564 0700 5413A0E1 		asr	r1, r4, r3
 3565 0704 68719DE5 		ldr	r7, [sp, #360]
 3566 0708 A01472F3 		vshl.u64	d17, d16, d18
 3567 070c 6C519DE5 		ldr	r5, [sp, #364]
 3568 0710 318B59EC 		vmov	r8, r9, d17	@ int
 3569 0714 018048E2 		sub	r8, r8, #1
 3570 0718 C830A0E1 		asr	r3, r8, #1
 3571 071c 048008E0 		and	r8, r8, r4
 3572 0720 A43F83E0 		add	r3, r3, r4, lsr #31
 3573 0724 030058E1 		cmp	r8, r3
 3574 0728 0130A0D1 		movle	r3, r1
 3575 072c 013081C2 		addgt	r3, r1, #1
 3576 0730 000083E0 		add	r0, r3, r0
 3577 0734 9027C3E0 		smull	r2, r3, r0, r7
 3578 0738 070050E1 		cmp	r0, r7
 3579 073c 02015003 		cmpeq	r0, #-2147483648
 3580 0740 0140A003 		moveq	r4, #1
 3581 0744 0040A013 		movne	r4, #0
 3582 0748 000052E3 		cmp	r2, #0
 3583 074c 0010D3E2 		sbcs	r1, r3, #0
 3584 0750 0101A0A3 		movge	r0, #1073741824
 3585 0754 0010A0A3 		movge	r1, #0
 3586 0758 0701A0B3 		movlt	r0, #-1073741823
 3587 075c 0010E0B3 		mvnlt	r1, #0
 3588 0760 000054E3 		cmp	r4, #0
 3589 0764 0221E013 		mvnne	r2, #-2147483648
 3590 0768 0800001A 		bne	.L1319
 3591 076c 020090E0 		adds	r0, r0, r2
 3592 0770 0310A1E0 		adc	r1, r1, r3
 3593 0774 0030A0E3 		mov	r3, #0
 3594 0778 C12FA0E1 		asr	r2, r1, #31
 3595 077c 0221C2E3 		bic	r2, r2, #-2147483648
 3596 0780 002092E0 		adds	r2, r2, r0
 3597 0784 A22FA0E1 		lsr	r2, r2, #31
 3598 0788 0130A3E0 		adc	r3, r3, r1
 3599 078c 832082E1 		orr	r2, r2, r3, lsl #1
 3600              	.L1319:
 3601 0790 000055E3 		cmp	r5, #0
 3602 0794 003065E2 		rsb	r3, r5, #0
 3603 0798 090900CA 		bgt	.L1832
 3604 079c 1F0075E3 		cmn	r5, #31
 3605 07a0 EA0800BA 		blt	.L1833
 3606 07a4 903B02EE 		vmov.32	d18[0], r3
 3607 07a8 5213A0E1 		asr	r1, r2, r3
 3608 07ac 84019DE5 		ldr	r0, [sp, #388]
 3609 07b0 A01472F3 		vshl.u64	d17, d16, d18
 3610 07b4 314B55EC 		vmov	r4, r5, d17	@ int
 3611 07b8 014044E2 		sub	r4, r4, #1
 3612 07bc 64519DE5 		ldr	r5, [sp, #356]
 3613 07c0 C430A0E1 		asr	r3, r4, #1
 3614 07c4 024004E0 		and	r4, r4, r2
 3615 07c8 A23F83E0 		add	r3, r3, r2, lsr #31
 3616 07cc 88219DE5 		ldr	r2, [sp, #392]
 3617 07d0 030054E1 		cmp	r4, r3
 3618 07d4 0130A0D1 		movle	r3, r1
 3619 07d8 013081C2 		addgt	r3, r1, #1
 3620 07dc 053083E0 		add	r3, r3, r5
 3621 07e0 000053E1 		cmp	r3, r0
 3622 07e4 0030A0B1 		movlt	r3, r0
 3623 07e8 020053E1 		cmp	r3, r2
 3624 07ec 0230A0A1 		movge	r3, r2
 3625 07f0 0C005AE1 		cmp	r10, ip
 3626 07f4 0130E6E5 		strb	r3, [r6, #1]!
 3627 07f8 70FFFF1A 		bne	.L1834
 3628 07fc 38C19DE5 		ldr	ip, [sp, #312]
 3629              	.L1308:
 3630 0800 05005CE3 		cmp	ip, #5
 3631 0804 030000DA 		ble	.L1323
 3632              	.L1771:
 3633 0808 3C019DE5 		ldr	r0, [sp, #316]
 3634 080c 000050E3 		cmp	r0, #0
 3635 0810 0000000A 		beq	.L1323
 3636 0814 FEFFFFEB 		bl	_ZdaPv
 3637              	.L1323:
 3638 0818 18319DE5 		ldr	r3, [sp, #280]
 3639 081c 050053E3 		cmp	r3, #5
 3640 0820 030000DA 		ble	.L1324
 3641 0824 1C019DE5 		ldr	r0, [sp, #284]
 3642 0828 000050E3 		cmp	r0, #0
 3643 082c 0000000A 		beq	.L1324
 3644 0830 FEFFFFEB 		bl	_ZdaPv
 3645              	.L1324:
 3646 0834 00319DE5 		ldr	r3, [sp, #256]
 3647 0838 050053E3 		cmp	r3, #5
 3648 083c F6FDFFDA 		ble	.L1628
 3649 0840 04019DE5 		ldr	r0, [sp, #260]
 3650 0844 000050E3 		cmp	r0, #0
 3651 0848 F3FDFF0A 		beq	.L1628
 3652              	.L1729:
 3653 084c FEFFFFEB 		bl	_ZdaPv
 3654 0850 F1FDFFEA 		b	.L1628
 3655              	.L1812:
 3656 0854 88008DE2 		add	r0, sp, #136
 3657              	.LEHB47:
 3658 0858 FEFFFFEB 		bl	_ZN6tflite5micro14GetTensorShapeEPK16TfLiteEvalTensor
 3659              	.LEHE47:
 3660 085c E8319DE5 		ldr	r3, [sp, #488]
 3661 0860 000053E3 		cmp	r3, #0
 3662 0864 2609000A 		beq	.L1835
 3663 0868 EC119DE5 		ldr	r1, [sp, #492]
 3664 086c A0008DE2 		add	r0, sp, #160
 3665 0870 004093E5 		ldr	r4, [r3]
 3666              	.LEHB48:
 3667 0874 FEFFFFEB 		bl	_ZN6tflite5micro14GetTensorShapeEPK16TfLiteEvalTensor
 3668              	.LEHE48:
 3669 0878 EC319DE5 		ldr	r3, [sp, #492]
 3670 087c 000053E3 		cmp	r3, #0
 3671 0880 3D09000A 		beq	.L1836
 3672 0884 0610A0E1 		mov	r1, r6
 3673 0888 B8008DE2 		add	r0, sp, #184
 3674 088c 005093E5 		ldr	r5, [r3]
 3675              	.LEHB49:
 3676 0890 FEFFFFEB 		bl	_ZN6tflite5micro14GetTensorShapeEPK16TfLiteEvalTensor
 3677              	.LEHE49:
 3678 0894 88209DE5 		ldr	r2, [sp, #136]
 3679 0898 0030A0E3 		mov	r3, #0
 3680 089c 007096E5 		ldr	r7, [r6]
 3681 08a0 E8308DE5 		str	r3, [sp, #232]
 3682 08a4 040052E3 		cmp	r2, #4
 3683 08a8 310900CA 		bgt	.L1837
 3684 08ac 040072E2 		rsbs	r0, r2, #4
 3685 08b0 0430A0E3 		mov	r3, #4
 3686 08b4 E8308DE5 		str	r3, [sp, #232]
 3687 08b8 0D00000A 		beq	.L1143
 3688 08bc 010050E3 		cmp	r0, #1
 3689 08c0 0130A0E3 		mov	r3, #1
 3690 08c4 EC308DE5 		str	r3, [sp, #236]
 3691 08c8 0900000A 		beq	.L1143
 3692 08cc 020050E3 		cmp	r0, #2
 3693 08d0 F0308DE5 		str	r3, [sp, #240]
 3694 08d4 0600000A 		beq	.L1143
 3695 08d8 030050E3 		cmp	r0, #3
 3696 08dc F4308DE5 		str	r3, [sp, #244]
 3697 08e0 0300000A 		beq	.L1143
 3698 08e4 040050E3 		cmp	r0, #4
 3699 08e8 F8308DE5 		str	r3, [sp, #248]
 3700 08ec 0000000A 		beq	.L1143
 3701              	.LEHB50:
 3702 08f0 FEFFFFEB 		bl	abort
 3703              	.LEHE50:
 3704              	.L1143:
 3705 08f4 EC308DE2 		add	r3, sp, #236
 3706 08f8 0221A0E1 		lsl	r2, r2, #2
 3707 08fc 000183E0 		add	r0, r3, r0, lsl #2
 3708 0900 8C108DE2 		add	r1, sp, #140
 3709 0904 FEFFFFEB 		bl	memcpy
 3710 0908 A0209DE5 		ldr	r2, [sp, #160]
 3711 090c 0030A0E3 		mov	r3, #0
 3712 0910 00318DE5 		str	r3, [sp, #256]
 3713 0914 040052E3 		cmp	r2, #4
 3714 0918 D10800CA 		bgt	.L1838
 3715 091c 040072E2 		rsbs	r0, r2, #4
 3716 0920 0430A0E3 		mov	r3, #4
 3717 0924 00318DE5 		str	r3, [sp, #256]
 3718 0928 1000000A 		beq	.L1150
 3719 092c 010050E3 		cmp	r0, #1
 3720 0930 0130A0E3 		mov	r3, #1
 3721 0934 04318DE5 		str	r3, [sp, #260]
 3722 0938 0C00000A 		beq	.L1150
 3723 093c 020050E3 		cmp	r0, #2
 3724 0940 08318DE5 		str	r3, [sp, #264]
 3725 0944 0900000A 		beq	.L1150
 3726 0948 030050E3 		cmp	r0, #3
 3727 094c 0C318DE5 		str	r3, [sp, #268]
 3728 0950 0600000A 		beq	.L1150
 3729 0954 040050E3 		cmp	r0, #4
 3730 0958 10318DE5 		str	r3, [sp, #272]
 3731 095c 0300000A 		beq	.L1150
 3732              	.LEHB51:
 3733 0960 FEFFFFEB 		bl	abort
 3734              	.LEHE51:
 3735              	.L1916:
 3736 0964 00F020E3 		.align	3
 3737              	.L1915:
 3738 0968 01000000 		.word	1
 3739 096c 00000000 		.word	0
 3740              	.L1150:
 3741 0970 413F8DE2 		add	r3, sp, #260
 3742 0974 0221A0E1 		lsl	r2, r2, #2
 3743 0978 000183E0 		add	r0, r3, r0, lsl #2
 3744 097c A4108DE2 		add	r1, sp, #164
 3745 0980 FEFFFFEB 		bl	memcpy
 3746 0984 E8609DE5 		ldr	r6, [sp, #232]
 3747 0988 EC309DE5 		ldr	r3, [sp, #236]
 3748 098c 050056E3 		cmp	r6, #5
 3749 0990 5A0300CA 		bgt	.L1839
 3750 0994 030056E3 		cmp	r6, #3
 3751 0998 DC0800DA 		ble	.L1152
 3752 099c F8109DE5 		ldr	r1, [sp, #248]
 3753 09a0 01E0A0E3 		mov	lr, #1
 3754 09a4 F4C09DE5 		ldr	ip, [sp, #244]
 3755 09a8 F0209DE5 		ldr	r2, [sp, #240]
 3756 09ac 18318DE5 		str	r3, [sp, #280]
 3757 09b0 24118DE5 		str	r1, [sp, #292]
 3758 09b4 9C0100E0 		mul	r0, ip, r1
 3759 09b8 1C218DE5 		str	r2, [sp, #284]
 3760 09bc 30118DE5 		str	r1, [sp, #304]
 3761 09c0 20C18DE5 		str	ip, [sp, #288]
 3762 09c4 34E18DE5 		str	lr, [sp, #308]
 3763 09c8 920002E0 		mul	r2, r2, r0
 3764 09cc 2C018DE5 		str	r0, [sp, #300]
 3765 09d0 28218DE5 		str	r2, [sp, #296]
 3766              	.L1153:
 3767 09d4 00819DE5 		ldr	r8, [sp, #256]
 3768 09d8 04019DE5 		ldr	r0, [sp, #260]
 3769 09dc 050058E3 		cmp	r8, #5
 3770 09e0 F20200CA 		bgt	.L1154
 3771 09e4 030058E3 		cmp	r8, #3
 3772 09e8 C70800DA 		ble	.L1155
 3773 09ec 10219DE5 		ldr	r2, [sp, #272]
 3774 09f0 0190A0E3 		mov	r9, #1
 3775 09f4 0C119DE5 		ldr	r1, [sp, #268]
 3776 09f8 050056E3 		cmp	r6, #5
 3777 09fc 08C19DE5 		ldr	ip, [sp, #264]
 3778 0a00 54918DE5 		str	r9, [sp, #340]
 3779 0a04 38018DE5 		str	r0, [sp, #312]
 3780 0a08 91020EE0 		mul	lr, r1, r2
 3781 0a0c 44218DE5 		str	r2, [sp, #324]
 3782 0a10 50218DE5 		str	r2, [sp, #336]
 3783 0a14 40118DE5 		str	r1, [sp, #320]
 3784 0a18 3CC18DE5 		str	ip, [sp, #316]
 3785 0a1c 9C0E09E0 		mul	r9, ip, lr
 3786 0a20 4CE18DE5 		str	lr, [sp, #332]
 3787 0a24 48918DE5 		str	r9, [sp, #328]
 3788 0a28 490600CA 		bgt	.L1840
 3789 0a2c 000056E3 		cmp	r6, #0
 3790 0a30 B40800DA 		ble	.L1160
 3791 0a34 000053E1 		cmp	r3, r0
 3792 0a38 0600000A 		beq	.L1161
 3793 0a3c 010053E3 		cmp	r3, #1
 3794 0a40 1007000A 		beq	.L1162
 3795 0a44 010050E3 		cmp	r0, #1
 3796 0a48 0509001A 		bne	.L1163
 3797 0a4c 0000A0E3 		mov	r0, #0
 3798 0a50 38318DE5 		str	r3, [sp, #312]
 3799 0a54 48018DE5 		str	r0, [sp, #328]
 3800              	.L1161:
 3801 0a58 010056E3 		cmp	r6, #1
 3802 0a5c A908000A 		beq	.L1160
 3803 0a60 F0309DE5 		ldr	r3, [sp, #240]
 3804 0a64 03005CE1 		cmp	ip, r3
 3805 0a68 0600000A 		beq	.L1165
 3806 0a6c 010053E3 		cmp	r3, #1
 3807 0a70 0807000A 		beq	.L1164
 3808 0a74 01005CE3 		cmp	ip, #1
 3809 0a78 F908001A 		bne	.L1163
 3810 0a7c 0000A0E3 		mov	r0, #0
 3811 0a80 3C318DE5 		str	r3, [sp, #316]
 3812 0a84 4C018DE5 		str	r0, [sp, #332]
 3813              	.L1165:
 3814 0a88 020056E3 		cmp	r6, #2
 3815 0a8c 9D08000A 		beq	.L1160
 3816 0a90 F4309DE5 		ldr	r3, [sp, #244]
 3817 0a94 030051E1 		cmp	r1, r3
 3818 0a98 0600000A 		beq	.L1167
 3819 0a9c 010053E3 		cmp	r3, #1
 3820 0aa0 0007000A 		beq	.L1166
 3821 0aa4 010051E3 		cmp	r1, #1
 3822 0aa8 ED08001A 		bne	.L1163
 3823 0aac 0010A0E3 		mov	r1, #0
 3824 0ab0 40318DE5 		str	r3, [sp, #320]
 3825 0ab4 50118DE5 		str	r1, [sp, #336]
 3826              	.L1167:
 3827 0ab8 030056E3 		cmp	r6, #3
 3828 0abc 9108000A 		beq	.L1160
 3829 0ac0 F8309DE5 		ldr	r3, [sp, #248]
 3830 0ac4 030052E1 		cmp	r2, r3
 3831 0ac8 0600000A 		beq	.L1359
 3832              	.L1742:
 3833 0acc 010053E3 		cmp	r3, #1
 3834 0ad0 BD06000A 		beq	.L1178
 3835 0ad4 010052E3 		cmp	r2, #1
 3836 0ad8 E108001A 		bne	.L1163
 3837 0adc 0020A0E3 		mov	r2, #0
 3838 0ae0 44318DE5 		str	r3, [sp, #324]
 3839 0ae4 54218DE5 		str	r2, [sp, #340]
 3840              	.L1359:
 3841 0ae8 050056E3 		cmp	r6, #5
 3842 0aec 030000DA 		ble	.L1198
 3843 0af0 EC009DE5 		ldr	r0, [sp, #236]
 3844 0af4 000050E3 		cmp	r0, #0
 3845 0af8 0000000A 		beq	.L1198
 3846 0afc FEFFFFEB 		bl	_ZdaPv
 3847              	.L1198:
 3848 0b00 B8209DE5 		ldr	r2, [sp, #184]
 3849 0b04 0030A0E3 		mov	r3, #0
 3850 0b08 D0308DE5 		str	r3, [sp, #208]
 3851 0b0c 040052E3 		cmp	r2, #4
 3852 0b10 6E0800CA 		bgt	.L1841
 3853 0b14 040072E2 		rsbs	r0, r2, #4
 3854 0b18 0430A0E3 		mov	r3, #4
 3855 0b1c D0308DE5 		str	r3, [sp, #208]
 3856 0b20 6003000A 		beq	.L1210
 3857 0b24 010050E3 		cmp	r0, #1
 3858 0b28 0130A0E3 		mov	r3, #1
 3859 0b2c D4308DE5 		str	r3, [sp, #212]
 3860 0b30 5C03000A 		beq	.L1210
 3861 0b34 020050E3 		cmp	r0, #2
 3862 0b38 D8308DE5 		str	r3, [sp, #216]
 3863 0b3c 5903000A 		beq	.L1210
 3864 0b40 030050E3 		cmp	r0, #3
 3865 0b44 DC308DE5 		str	r3, [sp, #220]
 3866 0b48 5603000A 		beq	.L1210
 3867 0b4c 040050E3 		cmp	r0, #4
 3868 0b50 E0308DE5 		str	r3, [sp, #224]
 3869 0b54 5303000A 		beq	.L1210
 3870              	.LEHB52:
 3871 0b58 FEFFFFEB 		bl	abort
 3872              	.LEHE52:
 3873              	.L1811:
 3874 0b5c 000054E3 		cmp	r4, #0
 3875 0b60 D300000A 		beq	.L946
 3876 0b64 88008DE2 		add	r0, sp, #136
 3877              	.LEHB53:
 3878 0b68 FEFFFFEB 		bl	_ZN6tflite5micro14GetTensorShapeEPK16TfLiteEvalTensor
 3879              	.LEHE53:
 3880 0b6c E8319DE5 		ldr	r3, [sp, #488]
 3881 0b70 000053E3 		cmp	r3, #0
 3882 0b74 4008000A 		beq	.L1842
 3883 0b78 EC119DE5 		ldr	r1, [sp, #492]
 3884 0b7c A0008DE2 		add	r0, sp, #160
 3885 0b80 004093E5 		ldr	r4, [r3]
 3886              	.LEHB54:
 3887 0b84 FEFFFFEB 		bl	_ZN6tflite5micro14GetTensorShapeEPK16TfLiteEvalTensor
 3888              	.LEHE54:
 3889 0b88 EC319DE5 		ldr	r3, [sp, #492]
 3890 0b8c 000053E3 		cmp	r3, #0
 3891 0b90 3708000A 		beq	.L1843
 3892 0b94 0610A0E1 		mov	r1, r6
 3893 0b98 B8008DE2 		add	r0, sp, #184
 3894 0b9c 005093E5 		ldr	r5, [r3]
 3895              	.LEHB55:
 3896 0ba0 FEFFFFEB 		bl	_ZN6tflite5micro14GetTensorShapeEPK16TfLiteEvalTensor
 3897              	.LEHE55:
 3898 0ba4 88209DE5 		ldr	r2, [sp, #136]
 3899 0ba8 0030A0E3 		mov	r3, #0
 3900 0bac 007096E5 		ldr	r7, [r6]
 3901 0bb0 E8308DE5 		str	r3, [sp, #232]
 3902 0bb4 040052E3 		cmp	r2, #4
 3903 0bb8 AA0800CA 		bgt	.L1844
 3904 0bbc 040072E2 		rsbs	r0, r2, #4
 3905 0bc0 0430A0E3 		mov	r3, #4
 3906 0bc4 E8308DE5 		str	r3, [sp, #232]
 3907 0bc8 0D00000A 		beq	.L953
 3908 0bcc 010050E3 		cmp	r0, #1
 3909 0bd0 0130A0E3 		mov	r3, #1
 3910 0bd4 EC308DE5 		str	r3, [sp, #236]
 3911 0bd8 0900000A 		beq	.L953
 3912 0bdc 020050E3 		cmp	r0, #2
 3913 0be0 F0308DE5 		str	r3, [sp, #240]
 3914 0be4 0600000A 		beq	.L953
 3915 0be8 030050E3 		cmp	r0, #3
 3916 0bec F4308DE5 		str	r3, [sp, #244]
 3917 0bf0 0300000A 		beq	.L953
 3918 0bf4 040050E3 		cmp	r0, #4
 3919 0bf8 F8308DE5 		str	r3, [sp, #248]
 3920 0bfc 0000000A 		beq	.L953
 3921              	.LEHB56:
 3922 0c00 FEFFFFEB 		bl	abort
 3923              	.LEHE56:
 3924              	.L953:
 3925 0c04 EC308DE2 		add	r3, sp, #236
 3926 0c08 0221A0E1 		lsl	r2, r2, #2
 3927 0c0c 000183E0 		add	r0, r3, r0, lsl #2
 3928 0c10 8C108DE2 		add	r1, sp, #140
 3929 0c14 FEFFFFEB 		bl	memcpy
 3930 0c18 A0209DE5 		ldr	r2, [sp, #160]
 3931 0c1c 0030A0E3 		mov	r3, #0
 3932 0c20 00318DE5 		str	r3, [sp, #256]
 3933 0c24 040052E3 		cmp	r2, #4
 3934 0c28 4E0800CA 		bgt	.L1845
 3935 0c2c 040072E2 		rsbs	r0, r2, #4
 3936 0c30 0430A0E3 		mov	r3, #4
 3937 0c34 00318DE5 		str	r3, [sp, #256]
 3938 0c38 0D00000A 		beq	.L960
 3939 0c3c 010050E3 		cmp	r0, #1
 3940 0c40 0130A0E3 		mov	r3, #1
 3941 0c44 04318DE5 		str	r3, [sp, #260]
 3942 0c48 0900000A 		beq	.L960
 3943 0c4c 020050E3 		cmp	r0, #2
 3944 0c50 08318DE5 		str	r3, [sp, #264]
 3945 0c54 0600000A 		beq	.L960
 3946 0c58 030050E3 		cmp	r0, #3
 3947 0c5c 0C318DE5 		str	r3, [sp, #268]
 3948 0c60 0300000A 		beq	.L960
 3949 0c64 040050E3 		cmp	r0, #4
 3950 0c68 10318DE5 		str	r3, [sp, #272]
 3951 0c6c 0000000A 		beq	.L960
 3952              	.LEHB57:
 3953 0c70 FEFFFFEB 		bl	abort
 3954              	.LEHE57:
 3955              	.L960:
 3956 0c74 413F8DE2 		add	r3, sp, #260
 3957 0c78 0221A0E1 		lsl	r2, r2, #2
 3958 0c7c 000183E0 		add	r0, r3, r0, lsl #2
 3959 0c80 A4108DE2 		add	r1, sp, #164
 3960 0c84 FEFFFFEB 		bl	memcpy
 3961 0c88 E8609DE5 		ldr	r6, [sp, #232]
 3962 0c8c EC309DE5 		ldr	r3, [sp, #236]
 3963 0c90 050056E3 		cmp	r6, #5
 3964 0c94 F30200CA 		bgt	.L1846
 3965 0c98 030056E3 		cmp	r6, #3
 3966 0c9c 6F0800DA 		ble	.L962
 3967 0ca0 F8109DE5 		ldr	r1, [sp, #248]
 3968 0ca4 01E0A0E3 		mov	lr, #1
 3969 0ca8 F4C09DE5 		ldr	ip, [sp, #244]
 3970 0cac F0209DE5 		ldr	r2, [sp, #240]
 3971 0cb0 18318DE5 		str	r3, [sp, #280]
 3972 0cb4 24118DE5 		str	r1, [sp, #292]
 3973 0cb8 9C0100E0 		mul	r0, ip, r1
 3974 0cbc 1C218DE5 		str	r2, [sp, #284]
 3975 0cc0 30118DE5 		str	r1, [sp, #304]
 3976 0cc4 20C18DE5 		str	ip, [sp, #288]
 3977 0cc8 34E18DE5 		str	lr, [sp, #308]
 3978 0ccc 920002E0 		mul	r2, r2, r0
 3979 0cd0 2C018DE5 		str	r0, [sp, #300]
 3980 0cd4 28218DE5 		str	r2, [sp, #296]
 3981              	.L963:
 3982 0cd8 00819DE5 		ldr	r8, [sp, #256]
 3983 0cdc 04019DE5 		ldr	r0, [sp, #260]
 3984 0ce0 050058E3 		cmp	r8, #5
 3985 0ce4 D50500CA 		bgt	.L964
 3986 0ce8 030058E3 		cmp	r8, #3
 3987 0cec 5A0800DA 		ble	.L965
 3988 0cf0 10219DE5 		ldr	r2, [sp, #272]
 3989 0cf4 0190A0E3 		mov	r9, #1
 3990 0cf8 0C119DE5 		ldr	r1, [sp, #268]
 3991 0cfc 050056E3 		cmp	r6, #5
 3992 0d00 08C19DE5 		ldr	ip, [sp, #264]
 3993 0d04 54918DE5 		str	r9, [sp, #340]
 3994 0d08 38018DE5 		str	r0, [sp, #312]
 3995 0d0c 91020EE0 		mul	lr, r1, r2
 3996 0d10 44218DE5 		str	r2, [sp, #324]
 3997 0d14 50218DE5 		str	r2, [sp, #336]
 3998 0d18 40118DE5 		str	r1, [sp, #320]
 3999 0d1c 3CC18DE5 		str	ip, [sp, #316]
 4000 0d20 9C0E09E0 		mul	r9, ip, lr
 4001 0d24 4CE18DE5 		str	lr, [sp, #332]
 4002 0d28 48918DE5 		str	r9, [sp, #328]
 4003 0d2c 2A0600CA 		bgt	.L1847
 4004 0d30 000056E3 		cmp	r6, #0
 4005 0d34 D90700DA 		ble	.L970
 4006 0d38 000053E1 		cmp	r3, r0
 4007 0d3c 0600000A 		beq	.L971
 4008 0d40 010053E3 		cmp	r3, #1
 4009 0d44 FC06000A 		beq	.L972
 4010 0d48 010050E3 		cmp	r0, #1
 4011 0d4c DE07001A 		bne	.L973
 4012 0d50 0000A0E3 		mov	r0, #0
 4013 0d54 38318DE5 		str	r3, [sp, #312]
 4014 0d58 48018DE5 		str	r0, [sp, #328]
 4015              	.L971:
 4016 0d5c 010056E3 		cmp	r6, #1
 4017 0d60 CE07000A 		beq	.L970
 4018 0d64 F0309DE5 		ldr	r3, [sp, #240]
 4019 0d68 03005CE1 		cmp	ip, r3
 4020 0d6c 0600000A 		beq	.L975
 4021 0d70 010053E3 		cmp	r3, #1
 4022 0d74 9E06000A 		beq	.L974
 4023 0d78 01005CE3 		cmp	ip, #1
 4024 0d7c D207001A 		bne	.L973
 4025 0d80 0000A0E3 		mov	r0, #0
 4026 0d84 3C318DE5 		str	r3, [sp, #316]
 4027 0d88 4C018DE5 		str	r0, [sp, #332]
 4028              	.L975:
 4029 0d8c 020056E3 		cmp	r6, #2
 4030 0d90 C207000A 		beq	.L970
 4031 0d94 F4309DE5 		ldr	r3, [sp, #244]
 4032 0d98 030051E1 		cmp	r1, r3
 4033 0d9c 0600000A 		beq	.L977
 4034 0da0 010053E3 		cmp	r3, #1
 4035 0da4 8E06000A 		beq	.L976
 4036 0da8 010051E3 		cmp	r1, #1
 4037 0dac C607001A 		bne	.L973
 4038 0db0 0010A0E3 		mov	r1, #0
 4039 0db4 40318DE5 		str	r3, [sp, #320]
 4040 0db8 50118DE5 		str	r1, [sp, #336]
 4041              	.L977:
 4042 0dbc 030056E3 		cmp	r6, #3
 4043 0dc0 B607000A 		beq	.L970
 4044 0dc4 F8309DE5 		ldr	r3, [sp, #248]
 4045 0dc8 030052E1 		cmp	r2, r3
 4046 0dcc 0600000A 		beq	.L1356
 4047              	.L1741:
 4048 0dd0 010053E3 		cmp	r3, #1
 4049 0dd4 7E06000A 		beq	.L988
 4050 0dd8 010052E3 		cmp	r2, #1
 4051 0ddc BA07001A 		bne	.L973
 4052 0de0 0020A0E3 		mov	r2, #0
 4053 0de4 44318DE5 		str	r3, [sp, #324]
 4054 0de8 54218DE5 		str	r2, [sp, #340]
 4055              	.L1356:
 4056 0dec 050056E3 		cmp	r6, #5
 4057 0df0 030000DA 		ble	.L1008
 4058 0df4 EC009DE5 		ldr	r0, [sp, #236]
 4059 0df8 000050E3 		cmp	r0, #0
 4060 0dfc 0000000A 		beq	.L1008
 4061 0e00 FEFFFFEB 		bl	_ZdaPv
 4062              	.L1008:
 4063 0e04 B8209DE5 		ldr	r2, [sp, #184]
 4064 0e08 0030A0E3 		mov	r3, #0
 4065 0e0c D0308DE5 		str	r3, [sp, #208]
 4066 0e10 040052E3 		cmp	r2, #4
 4067 0e14 AB0700CA 		bgt	.L1848
 4068 0e18 040072E2 		rsbs	r0, r2, #4
 4069 0e1c 0430A0E3 		mov	r3, #4
 4070 0e20 D0308DE5 		str	r3, [sp, #208]
 4071 0e24 EC03000A 		beq	.L1020
 4072 0e28 010050E3 		cmp	r0, #1
 4073 0e2c 0130A0E3 		mov	r3, #1
 4074 0e30 D4308DE5 		str	r3, [sp, #212]
 4075 0e34 E803000A 		beq	.L1020
 4076 0e38 020050E3 		cmp	r0, #2
 4077 0e3c D8308DE5 		str	r3, [sp, #216]
 4078 0e40 E503000A 		beq	.L1020
 4079 0e44 030050E3 		cmp	r0, #3
 4080 0e48 DC308DE5 		str	r3, [sp, #220]
 4081 0e4c E203000A 		beq	.L1020
 4082 0e50 040050E3 		cmp	r0, #4
 4083 0e54 E0308DE5 		str	r3, [sp, #224]
 4084 0e58 DF03000A 		beq	.L1020
 4085              	.LEHB58:
 4086 0e5c FEFFFFEB 		bl	abort
 4087              	.LEHE58:
 4088              	.L1471:
 4089 0e60 0310A0E1 		mov	r1, r3
 4090 0e64 8CFDFFEA 		b	.L1290
 4091              	.L1451:
 4092 0e68 0370A0E1 		mov	r7, r3
 4093 0e6c E2FCFFEA 		b	.L1264
 4094              	.L1461:
 4095 0e70 0310A0E1 		mov	r1, r3
 4096 0e74 34FDFFEA 		b	.L1277
 4097              	.L1259:
 4098 0e78 00005CE3 		cmp	ip, #0
 4099 0e7c 0120A0D3 		movle	r2, #1
 4100 0e80 08FDFFDA 		ble	.L1261
 4101 0e84 41EF8DE2 		add	lr, sp, #260
 4102 0e88 B6FCFFEA 		b	.L1260
 4103              	.L1272:
 4104 0e8c 00005CE3 		cmp	ip, #0
 4105 0e90 01A0A0D3 		movle	r10, #1
 4106 0e94 57FDFFDA 		ble	.L1274
 4107 0e98 47EF8DE2 		add	lr, sp, #284
 4108 0e9c 05FDFFEA 		b	.L1273
 4109              	.L1285:
 4110 0ea0 00005CE3 		cmp	ip, #0
 4111 0ea4 01E0A0D3 		movle	lr, #1
 4112 0ea8 A6FDFFDA 		ble	.L1287
 4113 0eac 4F7F8DE2 		add	r7, sp, #316
 4114 0eb0 54FDFFEA 		b	.L1286
 4115              	.L946:
 4116 0eb4 010C8DE2 		add	r0, sp, #256
 4117              	.LEHB59:
 4118 0eb8 FEFFFFEB 		bl	_ZN6tflite5micro14GetTensorShapeEPK16TfLiteEvalTensor
 4119              	.LEHE59:
 4120 0ebc E8319DE5 		ldr	r3, [sp, #488]
 4121 0ec0 000053E3 		cmp	r3, #0
 4122 0ec4 A007000A 		beq	.L1849
 4123 0ec8 460F8DE2 		add	r0, sp, #280
 4124 0ecc EC119DE5 		ldr	r1, [sp, #492]
 4125 0ed0 004093E5 		ldr	r4, [r3]
 4126              	.LEHB60:
 4127 0ed4 FEFFFFEB 		bl	_ZN6tflite5micro14GetTensorShapeEPK16TfLiteEvalTensor
 4128              	.LEHE60:
 4129 0ed8 EC319DE5 		ldr	r3, [sp, #492]
 4130 0edc 000053E3 		cmp	r3, #0
 4131 0ee0 DC07000A 		beq	.L1850
 4132 0ee4 003093E5 		ldr	r3, [r3]
 4133 0ee8 4E0F8DE2 		add	r0, sp, #312
 4134 0eec 0610A0E1 		mov	r1, r6
 4135 0ef0 00308DE5 		str	r3, [sp]
 4136              	.LEHB61:
 4137 0ef4 FEFFFFEB 		bl	_ZN6tflite5micro14GetTensorShapeEPK16TfLiteEvalTensor
 4138              	.LEHE61:
 4139 0ef8 84219DE5 		ldr	r2, [sp, #388]
 4140 0efc 88319DE5 		ldr	r3, [sp, #392]
 4141 0f00 00B096E5 		ldr	fp, [r6]
 4142 0f04 030052E1 		cmp	r2, r3
 4143 0f08 D00700CA 		bgt	.L1851
 4144 0f0c 5C319DE5 		ldr	r3, [sp, #348]
 4145 0f10 800053E3 		cmp	r3, #128
 4146 0f14 CC0700CA 		bgt	.L1852
 4147 0f18 60219DE5 		ldr	r2, [sp, #352]
 4148 0f1c 800052E3 		cmp	r2, #128
 4149 0f20 8B0700CA 		bgt	.L1853
 4150 0f24 7F0073E3 		cmn	r3, #127
 4151 0f28 880700BA 		blt	.L1854
 4152 0f2c 7F0072E3 		cmn	r2, #127
 4153 0f30 7A0700BA 		blt	.L1855
 4154 0f34 00E19DE5 		ldr	lr, [sp, #256]
 4155 0f38 05005EE3 		cmp	lr, #5
 4156 0f3c 210200CA 		bgt	.L1856
 4157 0f40 00005EE3 		cmp	lr, #0
 4158 0f44 01A0A0D3 		movle	r10, #1
 4159 0f48 500000DA 		ble	.L1079
 4160 0f4c 415F8DE2 		add	r5, sp, #260
 4161              	.L1078:
 4162 0f50 5511A0E7 		sbfx	r1, r5, #2, #1
 4163 0f54 031001E2 		and	r1, r1, #3
 4164 0f58 0E0051E1 		cmp	r1, lr
 4165 0f5c 0E10A021 		movcs	r1, lr
 4166 0f60 08005EE3 		cmp	lr, #8
 4167 0f64 0E10A0D1 		movle	r1, lr
 4168 0f68 8D0500CA 		bgt	.L1857
 4169              	.L1080:
 4170 0f6c 010051E3 		cmp	r1, #1
 4171 0f70 00A095E5 		ldr	r10, [r5]
 4172 0f74 2505000A 		beq	.L1404
 4173 0f78 040095E5 		ldr	r0, [r5, #4]
 4174 0f7c 020051E3 		cmp	r1, #2
 4175 0f80 900A0AE0 		mul	r10, r0, r10
 4176 0f84 2105000A 		beq	.L1404
 4177 0f88 080095E5 		ldr	r0, [r5, #8]
 4178 0f8c 030051E3 		cmp	r1, #3
 4179 0f90 900A0AE0 		mul	r10, r0, r10
 4180 0f94 1D05000A 		beq	.L1404
 4181 0f98 0C0095E5 		ldr	r0, [r5, #12]
 4182 0f9c 040051E3 		cmp	r1, #4
 4183 0fa0 900A0AE0 		mul	r10, r0, r10
 4184 0fa4 1905000A 		beq	.L1404
 4185 0fa8 100095E5 		ldr	r0, [r5, #16]
 4186 0fac 050051E3 		cmp	r1, #5
 4187 0fb0 900A0AE0 		mul	r10, r0, r10
 4188 0fb4 1505000A 		beq	.L1404
 4189 0fb8 140095E5 		ldr	r0, [r5, #20]
 4190 0fbc 060051E3 		cmp	r1, #6
 4191 0fc0 900A0AE0 		mul	r10, r0, r10
 4192 0fc4 1105000A 		beq	.L1404
 4193 0fc8 180095E5 		ldr	r0, [r5, #24]
 4194 0fcc 070051E3 		cmp	r1, #7
 4195 0fd0 900A0AE0 		mul	r10, r0, r10
 4196 0fd4 0D05000A 		beq	.L1404
 4197 0fd8 1CC095E5 		ldr	ip, [r5, #28]
 4198 0fdc 0800A0E3 		mov	r0, #8
 4199 0fe0 9C0A0AE0 		mul	r10, ip, r10
 4200              	.L1082:
 4201 0fe4 01005EE1 		cmp	lr, r1
 4202 0fe8 2800000A 		beq	.L1079
 4203              	.L1081:
 4204 0fec 01604EE0 		sub	r6, lr, r1
 4205 0ff0 01704EE2 		sub	r7, lr, #1
 4206 0ff4 04C046E2 		sub	ip, r6, #4
 4207 0ff8 017047E0 		sub	r7, r7, r1
 4208 0ffc 2CC1A0E1 		lsr	ip, ip, #2
 4209 1000 020057E3 		cmp	r7, #2
 4210 1004 01C08CE2 		add	ip, ip, #1
 4211 1008 0C71A0E1 		lsl	r7, ip, #2
 4212 100c 1200009A 		bls	.L1084
 4213 1010 011185E0 		add	r1, r5, r1, lsl #2
 4214 1014 5120C0F2 		vmov.i32	q9, #1  @ v4si
 4215 1018 0080A0E3 		mov	r8, #0
 4216              	.L1086:
 4217 101c 018088E2 		add	r8, r8, #1
 4218 1020 DF0A61F4 		vld1.64	{d16-d17}, [r1:64]
 4219 1024 08005CE1 		cmp	ip, r8
 4220 1028 101081E2 		add	r1, r1, #16
 4221 102c F02962F2 		vmul.i32	q9, q9, q8
 4222 1030 F9FFFF8A 		bhi	.L1086
 4223 1034 060057E1 		cmp	r7, r6
 4224 1038 070080E0 		add	r0, r0, r7
 4225 103c 5000C0F2 		vmov.i32	q8, #0  @ v4si
 4226 1040 E048F2F2 		vext.32	q10, q9, q8, #2
 4227 1044 F22964F2 		vmul.i32	q9, q10, q9
 4228 1048 E004F2F2 		vext.32	q8, q9, q8, #1
 4229 104c F20960F2 		vmul.i32	q8, q8, q9
 4230 1050 901B10EE 		vmov.32	r1, d16[0]
 4231 1054 910A0AE0 		mul	r10, r1, r10
 4232 1058 0C00000A 		beq	.L1079
 4233              	.L1084:
 4234 105c 00C195E7 		ldr	ip, [r5, r0, lsl #2]
 4235 1060 011080E2 		add	r1, r0, #1
 4236 1064 01005EE1 		cmp	lr, r1
 4237 1068 0011A0E1 		lsl	r1, r0, #2
 4238 106c 9C0A0AE0 		mul	r10, ip, r10
 4239 1070 060000DA 		ble	.L1079
 4240 1074 011085E0 		add	r1, r5, r1
 4241 1078 020080E2 		add	r0, r0, #2
 4242 107c 04C091E5 		ldr	ip, [r1, #4]
 4243 1080 00005EE1 		cmp	lr, r0
 4244 1084 9C0A0AE0 		mul	r10, ip, r10
 4245 1088 081091C5 		ldrgt	r1, [r1, #8]
 4246 108c 910A0AC0 		mulgt	r10, r1, r10
 4247              	.L1079:
 4248 1090 18E19DE5 		ldr	lr, [sp, #280]
 4249 1094 05005EE3 		cmp	lr, #5
 4250 1098 DE0400DA 		ble	.L1090
 4251 109c 1C019DE5 		ldr	r0, [sp, #284]
 4252              	.L1091:
 4253 10a0 5011A0E7 		sbfx	r1, r0, #2, #1
 4254 10a4 031001E2 		and	r1, r1, #3
 4255 10a8 0E0051E1 		cmp	r1, lr
 4256 10ac 0E10A021 		movcs	r1, lr
 4257 10b0 08005EE3 		cmp	lr, #8
 4258 10b4 0E10A0D1 		movle	r1, lr
 4259 10b8 3E0500CA 		bgt	.L1858
 4260              	.L1093:
 4261 10bc 010051E3 		cmp	r1, #1
 4262 10c0 00C090E5 		ldr	ip, [r0]
 4263 10c4 CF04000A 		beq	.L1414
 4264 10c8 045090E5 		ldr	r5, [r0, #4]
 4265 10cc 020051E3 		cmp	r1, #2
 4266 10d0 950C0CE0 		mul	ip, r5, ip
 4267 10d4 CB04000A 		beq	.L1414
 4268 10d8 085090E5 		ldr	r5, [r0, #8]
 4269 10dc 030051E3 		cmp	r1, #3
 4270 10e0 950C0CE0 		mul	ip, r5, ip
 4271 10e4 C704000A 		beq	.L1414
 4272 10e8 0C5090E5 		ldr	r5, [r0, #12]
 4273 10ec 040051E3 		cmp	r1, #4
 4274 10f0 950C0CE0 		mul	ip, r5, ip
 4275 10f4 C304000A 		beq	.L1414
 4276 10f8 105090E5 		ldr	r5, [r0, #16]
 4277 10fc 050051E3 		cmp	r1, #5
 4278 1100 950C0CE0 		mul	ip, r5, ip
 4279 1104 BF04000A 		beq	.L1414
 4280 1108 145090E5 		ldr	r5, [r0, #20]
 4281 110c 060051E3 		cmp	r1, #6
 4282 1110 950C0CE0 		mul	ip, r5, ip
 4283 1114 BB04000A 		beq	.L1414
 4284 1118 185090E5 		ldr	r5, [r0, #24]
 4285 111c 070051E3 		cmp	r1, #7
 4286 1120 950C0CE0 		mul	ip, r5, ip
 4287 1124 B704000A 		beq	.L1414
 4288 1128 1C6090E5 		ldr	r6, [r0, #28]
 4289 112c 0850A0E3 		mov	r5, #8
 4290 1130 960C0CE0 		mul	ip, r6, ip
 4291              	.L1095:
 4292 1134 01005EE1 		cmp	lr, r1
 4293 1138 2800000A 		beq	.L1092
 4294              	.L1094:
 4295 113c 01804EE0 		sub	r8, lr, r1
 4296 1140 01704EE2 		sub	r7, lr, #1
 4297 1144 046048E2 		sub	r6, r8, #4
 4298 1148 017047E0 		sub	r7, r7, r1
 4299 114c 2661A0E1 		lsr	r6, r6, #2
 4300 1150 020057E3 		cmp	r7, #2
 4301 1154 016086E2 		add	r6, r6, #1
 4302 1158 0691A0E1 		lsl	r9, r6, #2
 4303 115c 1200009A 		bls	.L1097
 4304 1160 011180E0 		add	r1, r0, r1, lsl #2
 4305 1164 5120C0F2 		vmov.i32	q9, #1  @ v4si
 4306 1168 0070A0E3 		mov	r7, #0
 4307              	.L1099:
 4308 116c 017087E2 		add	r7, r7, #1
 4309 1170 DF0A61F4 		vld1.64	{d16-d17}, [r1:64]
 4310 1174 070056E1 		cmp	r6, r7
 4311 1178 101081E2 		add	r1, r1, #16
 4312 117c F02962F2 		vmul.i32	q9, q9, q8
 4313 1180 F9FFFF8A 		bhi	.L1099
 4314 1184 080059E1 		cmp	r9, r8
 4315 1188 095085E0 		add	r5, r5, r9
 4316 118c 5000C0F2 		vmov.i32	q8, #0  @ v4si
 4317 1190 E048F2F2 		vext.32	q10, q9, q8, #2
 4318 1194 F22964F2 		vmul.i32	q9, q10, q9
 4319 1198 E004F2F2 		vext.32	q8, q9, q8, #1
 4320 119c F20960F2 		vmul.i32	q8, q8, q9
 4321 11a0 901B10EE 		vmov.32	r1, d16[0]
 4322 11a4 910C0CE0 		mul	ip, r1, ip
 4323 11a8 0C00000A 		beq	.L1092
 4324              	.L1097:
 4325 11ac 056190E7 		ldr	r6, [r0, r5, lsl #2]
 4326 11b0 011085E2 		add	r1, r5, #1
 4327 11b4 01005EE1 		cmp	lr, r1
 4328 11b8 0511A0E1 		lsl	r1, r5, #2
 4329 11bc 960C0CE0 		mul	ip, r6, ip
 4330 11c0 060000DA 		ble	.L1092
 4331 11c4 010080E0 		add	r0, r0, r1
 4332 11c8 025085E2 		add	r5, r5, #2
 4333 11cc 041090E5 		ldr	r1, [r0, #4]
 4334 11d0 05005EE1 		cmp	lr, r5
 4335 11d4 910C0CE0 		mul	ip, r1, ip
 4336 11d8 081090C5 		ldrgt	r1, [r0, #8]
 4337 11dc 910C0CC0 		mulgt	ip, r1, ip
 4338              	.L1092:
 4339 11e0 38E19DE5 		ldr	lr, [sp, #312]
 4340 11e4 05005EE3 		cmp	lr, #5
 4341 11e8 8F0400DA 		ble	.L1103
 4342 11ec 3C519DE5 		ldr	r5, [sp, #316]
 4343              	.L1104:
 4344 11f0 5511A0E7 		sbfx	r1, r5, #2, #1
 4345 11f4 031001E2 		and	r1, r1, #3
 4346 11f8 0E0051E1 		cmp	r1, lr
 4347 11fc 0E10A021 		movcs	r1, lr
 4348 1200 08005EE3 		cmp	lr, #8
 4349 1204 0E10A0D1 		movle	r1, lr
 4350 1208 E00400CA 		bgt	.L1859
 4351              	.L1106:
 4352 120c 010051E3 		cmp	r1, #1
 4353 1210 000095E5 		ldr	r0, [r5]
 4354 1214 7904000A 		beq	.L1424
 4355 1218 046095E5 		ldr	r6, [r5, #4]
 4356 121c 020051E3 		cmp	r1, #2
 4357 1220 960000E0 		mul	r0, r6, r0
 4358 1224 7504000A 		beq	.L1424
 4359 1228 086095E5 		ldr	r6, [r5, #8]
 4360 122c 030051E3 		cmp	r1, #3
 4361 1230 960000E0 		mul	r0, r6, r0
 4362 1234 7104000A 		beq	.L1424
 4363 1238 0C6095E5 		ldr	r6, [r5, #12]
 4364 123c 040051E3 		cmp	r1, #4
 4365 1240 960000E0 		mul	r0, r6, r0
 4366 1244 6D04000A 		beq	.L1424
 4367 1248 106095E5 		ldr	r6, [r5, #16]
 4368 124c 050051E3 		cmp	r1, #5
 4369 1250 960000E0 		mul	r0, r6, r0
 4370 1254 6904000A 		beq	.L1424
 4371 1258 146095E5 		ldr	r6, [r5, #20]
 4372 125c 060051E3 		cmp	r1, #6
 4373 1260 960000E0 		mul	r0, r6, r0
 4374 1264 6504000A 		beq	.L1424
 4375 1268 186095E5 		ldr	r6, [r5, #24]
 4376 126c 070051E3 		cmp	r1, #7
 4377 1270 960000E0 		mul	r0, r6, r0
 4378 1274 6104000A 		beq	.L1424
 4379 1278 1C7095E5 		ldr	r7, [r5, #28]
 4380 127c 0860A0E3 		mov	r6, #8
 4381 1280 970000E0 		mul	r0, r7, r0
 4382              	.L1108:
 4383 1284 01005EE1 		cmp	lr, r1
 4384 1288 2A00000A 		beq	.L1105
 4385              	.L1107:
 4386 128c 01904EE0 		sub	r9, lr, r1
 4387 1290 01804EE2 		sub	r8, lr, #1
 4388 1294 047049E2 		sub	r7, r9, #4
 4389 1298 018048E0 		sub	r8, r8, r1
 4390 129c 2771A0E1 		lsr	r7, r7, #2
 4391 12a0 020058E3 		cmp	r8, #2
 4392 12a4 017087E2 		add	r7, r7, #1
 4393 12a8 0781A0E1 		lsl	r8, r7, #2
 4394 12ac 04808DE5 		str	r8, [sp, #4]
 4395 12b0 1300009A 		bls	.L1110
 4396 12b4 011185E0 		add	r1, r5, r1, lsl #2
 4397 12b8 5120C0F2 		vmov.i32	q9, #1  @ v4si
 4398 12bc 0080A0E3 		mov	r8, #0
 4399              	.L1112:
 4400 12c0 018088E2 		add	r8, r8, #1
 4401 12c4 DF0A61F4 		vld1.64	{d16-d17}, [r1:64]
 4402 12c8 070058E1 		cmp	r8, r7
 4403 12cc 101081E2 		add	r1, r1, #16
 4404 12d0 F02962F2 		vmul.i32	q9, q9, q8
 4405 12d4 F9FFFF3A 		bcc	.L1112
 4406 12d8 04109DE5 		ldr	r1, [sp, #4]
 4407 12dc 5000C0F2 		vmov.i32	q8, #0  @ v4si
 4408 12e0 090051E1 		cmp	r1, r9
 4409 12e4 016086E0 		add	r6, r6, r1
 4410 12e8 E048F2F2 		vext.32	q10, q9, q8, #2
 4411 12ec F22964F2 		vmul.i32	q9, q10, q9
 4412 12f0 E004F2F2 		vext.32	q8, q9, q8, #1
 4413 12f4 F20960F2 		vmul.i32	q8, q8, q9
 4414 12f8 901B10EE 		vmov.32	r1, d16[0]
 4415 12fc 910000E0 		mul	r0, r1, r0
 4416 1300 0C00000A 		beq	.L1105
 4417              	.L1110:
 4418 1304 067195E7 		ldr	r7, [r5, r6, lsl #2]
 4419 1308 011086E2 		add	r1, r6, #1
 4420 130c 01005EE1 		cmp	lr, r1
 4421 1310 0611A0E1 		lsl	r1, r6, #2
 4422 1314 970000E0 		mul	r0, r7, r0
 4423 1318 060000DA 		ble	.L1105
 4424 131c 015085E0 		add	r5, r5, r1
 4425 1320 026086E2 		add	r6, r6, #2
 4426 1324 041095E5 		ldr	r1, [r5, #4]
 4427 1328 06005EE1 		cmp	lr, r6
 4428 132c 910000E0 		mul	r0, r1, r0
 4429 1330 081095C5 		ldrgt	r1, [r5, #8]
 4430 1334 910000C0 		mulgt	r0, r1, r0
 4431              	.L1105:
 4432 1338 0C005AE1 		cmp	r10, ip
 4433 133c A106001A 		bne	.L1860
 4434 1340 00005AE1 		cmp	r10, r0
 4435 1344 9E06001A 		bne	.L1117
 4436 1348 00005AE3 		cmp	r10, #0
 4437 134c 940000DA 		ble	.L1118
 4438 1350 00109DE5 		ldr	r1, [sp]
 4439 1354 04C0A0E1 		mov	ip, r4
 4440 1358 0AA084E0 		add	r10, r4, r10
 4441 135c 01604BE2 		sub	r6, fp, #1
 4442 1360 F60BDFED 		vldr.64	d16, .L1917	@ int
 4443 1364 01E041E2 		sub	lr, r1, #1
 4444 1368 010000EA 		b	.L1119
 4445              	.L1867:
 4446 136c 5C319DE5 		ldr	r3, [sp, #348]
 4447 1370 60219DE5 		ldr	r2, [sp, #352]
 4448              	.L1119:
 4449 1374 70519DE5 		ldr	r5, [sp, #368]
 4450 1378 D140DCE0 		ldrsb	r4, [ip], #1
 4451 137c 74719DE5 		ldr	r7, [sp, #372]
 4452 1380 D110FEE1 		ldrsb	r1, [lr, #1]!
 4453 1384 034084E0 		add	r4, r4, r3
 4454 1388 78019DE5 		ldr	r0, [sp, #376]
 4455 138c 1445A0E1 		lsl	r4, r4, r5
 4456 1390 021081E0 		add	r1, r1, r2
 4457 1394 9427C3E0 		smull	r2, r3, r4, r7
 4458 1398 070054E1 		cmp	r4, r7
 4459 139c 02015403 		cmpeq	r4, #-2147483648
 4460 13a0 0170A003 		moveq	r7, #1
 4461 13a4 0070A013 		movne	r7, #0
 4462 13a8 1115A0E1 		lsl	r1, r1, r5
 4463 13ac 000052E3 		cmp	r2, #0
 4464 13b0 0040D3E2 		sbcs	r4, r3, #0
 4465 13b4 0141A0A3 		movge	r4, #1073741824
 4466 13b8 0741A0B3 		movlt	r4, #-1073741823
 4467 13bc 0050A0A3 		movge	r5, #0
 4468 13c0 0050E0B3 		mvnlt	r5, #0
 4469 13c4 000057E3 		cmp	r7, #0
 4470 13c8 0241E013 		mvnne	r4, #-2147483648
 4471 13cc 0800001A 		bne	.L1121
 4472 13d0 024094E0 		adds	r4, r4, r2
 4473 13d4 0350A5E0 		adc	r5, r5, r3
 4474 13d8 0030A0E3 		mov	r3, #0
 4475 13dc C52FA0E1 		asr	r2, r5, #31
 4476 13e0 0221C2E3 		bic	r2, r2, #-2147483648
 4477 13e4 024094E0 		adds	r4, r4, r2
 4478 13e8 A44FA0E1 		lsr	r4, r4, #31
 4479 13ec 0350A5E0 		adc	r5, r5, r3
 4480 13f0 854084E1 		orr	r4, r4, r5, lsl #1
 4481              	.L1121:
 4482 13f4 000050E3 		cmp	r0, #0
 4483 13f8 003060E2 		rsb	r3, r0, #0
 4484 13fc 680600CA 		bgt	.L1861
 4485 1400 1F0070E3 		cmn	r0, #31
 4486 1404 880600BA 		blt	.L1862
 4487 1408 903B02EE 		vmov.32	d18[0], r3
 4488 140c 5403A0E1 		asr	r0, r4, r3
 4489 1410 7C519DE5 		ldr	r5, [sp, #380]
 4490 1414 A01472F3 		vshl.u64	d17, d16, d18
 4491 1418 80719DE5 		ldr	r7, [sp, #384]
 4492 141c 050051E1 		cmp	r1, r5
 4493 1420 02015103 		cmpeq	r1, #-2147483648
 4494 1424 318B59EC 		vmov	r8, r9, d17	@ int
 4495 1428 018048E2 		sub	r8, r8, #1
 4496 142c C830A0E1 		asr	r3, r8, #1
 4497 1430 048008E0 		and	r8, r8, r4
 4498 1434 A44F83E0 		add	r4, r3, r4, lsr #31
 4499 1438 9125C3E0 		smull	r2, r3, r1, r5
 4500 143c 0110A003 		moveq	r1, #1
 4501 1440 0010A013 		movne	r1, #0
 4502 1444 040058E1 		cmp	r8, r4
 4503 1448 010080C2 		addgt	r0, r0, #1
 4504 144c 000052E3 		cmp	r2, #0
 4505 1450 0040D3E2 		sbcs	r4, r3, #0
 4506 1454 0141A0A3 		movge	r4, #1073741824
 4507 1458 0741A0B3 		movlt	r4, #-1073741823
 4508 145c 0050A0A3 		movge	r5, #0
 4509 1460 0050E0B3 		mvnlt	r5, #0
 4510 1464 000051E3 		cmp	r1, #0
 4511 1468 0241E013 		mvnne	r4, #-2147483648
 4512 146c 0800001A 		bne	.L1125
 4513 1470 024094E0 		adds	r4, r4, r2
 4514 1474 0350A5E0 		adc	r5, r5, r3
 4515 1478 0030A0E3 		mov	r3, #0
 4516 147c C52FA0E1 		asr	r2, r5, #31
 4517 1480 0221C2E3 		bic	r2, r2, #-2147483648
 4518 1484 024094E0 		adds	r4, r4, r2
 4519 1488 A44FA0E1 		lsr	r4, r4, #31
 4520 148c 0350A5E0 		adc	r5, r5, r3
 4521 1490 854084E1 		orr	r4, r4, r5, lsl #1
 4522              	.L1125:
 4523 1494 000057E3 		cmp	r7, #0
 4524 1498 003067E2 		rsb	r3, r7, #0
 4525 149c 5A0600CA 		bgt	.L1863
 4526 14a0 1F0077E3 		cmn	r7, #31
 4527 14a4 500600BA 		blt	.L1864
 4528 14a8 903B02EE 		vmov.32	d18[0], r3
 4529 14ac 5433A0E1 		asr	r3, r4, r3
 4530 14b0 68519DE5 		ldr	r5, [sp, #360]
 4531 14b4 A01472F3 		vshl.u64	d17, d16, d18
 4532 14b8 318B59EC 		vmov	r8, r9, d17	@ int
 4533 14bc 018048E2 		sub	r8, r8, #1
 4534 14c0 C820A0E1 		asr	r2, r8, #1
 4535 14c4 048008E0 		and	r8, r8, r4
 4536 14c8 A42F82E0 		add	r2, r2, r4, lsr #31
 4537 14cc 6C419DE5 		ldr	r4, [sp, #364]
 4538 14d0 020058E1 		cmp	r8, r2
 4539 14d4 013083C2 		addgt	r3, r3, #1
 4540 14d8 000083E0 		add	r0, r3, r0
 4541 14dc 9025C3E0 		smull	r2, r3, r0, r5
 4542 14e0 050050E1 		cmp	r0, r5
 4543 14e4 02015003 		cmpeq	r0, #-2147483648
 4544 14e8 0150A003 		moveq	r5, #1
 4545 14ec 0050A013 		movne	r5, #0
 4546 14f0 000052E3 		cmp	r2, #0
 4547 14f4 0010D3E2 		sbcs	r1, r3, #0
 4548 14f8 0101A0A3 		movge	r0, #1073741824
 4549 14fc 0010A0A3 		movge	r1, #0
 4550 1500 0701A0B3 		movlt	r0, #-1073741823
 4551 1504 0010E0B3 		mvnlt	r1, #0
 4552 1508 000055E3 		cmp	r5, #0
 4553 150c 0221E013 		mvnne	r2, #-2147483648
 4554 1510 0800001A 		bne	.L1129
 4555 1514 020090E0 		adds	r0, r0, r2
 4556 1518 0310A1E0 		adc	r1, r1, r3
 4557 151c 0030A0E3 		mov	r3, #0
 4558 1520 C12FA0E1 		asr	r2, r1, #31
 4559 1524 0221C2E3 		bic	r2, r2, #-2147483648
 4560 1528 002092E0 		adds	r2, r2, r0
 4561 152c A22FA0E1 		lsr	r2, r2, #31
 4562 1530 0130A3E0 		adc	r3, r3, r1
 4563 1534 832082E1 		orr	r2, r2, r3, lsl #1
 4564              	.L1129:
 4565 1538 000054E3 		cmp	r4, #0
 4566 153c 003064E2 		rsb	r3, r4, #0
 4567 1540 210600CA 		bgt	.L1865
 4568 1544 1F0074E3 		cmn	r4, #31
 4569 1548 0D0600BA 		blt	.L1866
 4570 154c 903B02EE 		vmov.32	d18[0], r3
 4571 1550 5233A0E1 		asr	r3, r2, r3
 4572 1554 64419DE5 		ldr	r4, [sp, #356]
 4573 1558 A01472F3 		vshl.u64	d17, d16, d18
 4574 155c 310B51EC 		vmov	r0, r1, d17	@ int
 4575 1560 010040E2 		sub	r0, r0, #1
 4576 1564 C010A0E1 		asr	r1, r0, #1
 4577 1568 020000E0 		and	r0, r0, r2
 4578 156c A22F81E0 		add	r2, r1, r2, lsr #31
 4579 1570 84119DE5 		ldr	r1, [sp, #388]
 4580 1574 020050E1 		cmp	r0, r2
 4581 1578 013083C2 		addgt	r3, r3, #1
 4582 157c 88219DE5 		ldr	r2, [sp, #392]
 4583 1580 043083E0 		add	r3, r3, r4
 4584 1584 010053E1 		cmp	r3, r1
 4585 1588 0130A0B1 		movlt	r3, r1
 4586 158c 020053E1 		cmp	r3, r2
 4587 1590 0230A0A1 		movge	r3, r2
 4588 1594 0A005CE1 		cmp	ip, r10
 4589 1598 0130E6E5 		strb	r3, [r6, #1]!
 4590 159c 72FFFF1A 		bne	.L1867
 4591 15a0 38E19DE5 		ldr	lr, [sp, #312]
 4592              	.L1118:
 4593 15a4 05005EE3 		cmp	lr, #5
 4594 15a8 9AFCFFDA 		ble	.L1323
 4595 15ac 95FCFFEA 		b	.L1771
 4596              	.L1154:
 4597 15b0 08C090E5 		ldr	ip, [r0, #8]
 4598 15b4 050056E3 		cmp	r6, #5
 4599 15b8 0C2090E5 		ldr	r2, [r0, #12]
 4600 15bc 01E0A0E3 		mov	lr, #1
 4601 15c0 041090E5 		ldr	r1, [r0, #4]
 4602 15c4 40C18DE5 		str	ip, [sp, #320]
 4603 15c8 44218DE5 		str	r2, [sp, #324]
 4604 15cc 50218DE5 		str	r2, [sp, #336]
 4605 15d0 9C0202E0 		mul	r2, ip, r2
 4606 15d4 00C090E5 		ldr	ip, [r0]
 4607 15d8 3C118DE5 		str	r1, [sp, #316]
 4608 15dc 54E18DE5 		str	lr, [sp, #340]
 4609 15e0 910201E0 		mul	r1, r1, r2
 4610 15e4 4C218DE5 		str	r2, [sp, #332]
 4611 15e8 38C18DE5 		str	ip, [sp, #312]
 4612 15ec 48118DE5 		str	r1, [sp, #328]
 4613 15f0 760000CA 		bgt	.L1868
 4614 15f4 000056E3 		cmp	r6, #0
 4615 15f8 C20500DA 		ble	.L1160
 4616 15fc 002090E5 		ldr	r2, [r0]
 4617 1600 020053E1 		cmp	r3, r2
 4618 1604 0900000A 		beq	.L1179
 4619 1608 010053E3 		cmp	r3, #1
 4620 160c 0030A003 		moveq	r3, #0
 4621 1610 18218D05 		streq	r2, [sp, #280]
 4622 1614 28318D05 		streq	r3, [sp, #296]
 4623 1618 0400000A 		beq	.L1179
 4624 161c 010052E3 		cmp	r2, #1
 4625 1620 0F06001A 		bne	.L1163
 4626 1624 0020A0E3 		mov	r2, #0
 4627 1628 38318DE5 		str	r3, [sp, #312]
 4628 162c 48218DE5 		str	r2, [sp, #328]
 4629              	.L1179:
 4630 1630 010056E3 		cmp	r6, #1
 4631 1634 B305000A 		beq	.L1160
 4632 1638 F0309DE5 		ldr	r3, [sp, #240]
 4633 163c 042090E5 		ldr	r2, [r0, #4]
 4634 1640 030052E1 		cmp	r2, r3
 4635 1644 0900000A 		beq	.L1182
 4636 1648 010053E3 		cmp	r3, #1
 4637 164c 0030A003 		moveq	r3, #0
 4638 1650 1C218D05 		streq	r2, [sp, #284]
 4639 1654 2C318D05 		streq	r3, [sp, #300]
 4640 1658 0400000A 		beq	.L1182
 4641 165c 010052E3 		cmp	r2, #1
 4642 1660 FF05001A 		bne	.L1163
 4643 1664 0020A0E3 		mov	r2, #0
 4644 1668 3C318DE5 		str	r3, [sp, #316]
 4645 166c 4C218DE5 		str	r2, [sp, #332]
 4646              	.L1182:
 4647 1670 020056E3 		cmp	r6, #2
 4648 1674 A305000A 		beq	.L1160
 4649 1678 F4309DE5 		ldr	r3, [sp, #244]
 4650 167c 082090E5 		ldr	r2, [r0, #8]
 4651 1680 030052E1 		cmp	r2, r3
 4652 1684 0900000A 		beq	.L1184
 4653 1688 010053E3 		cmp	r3, #1
 4654 168c 0030A003 		moveq	r3, #0
 4655 1690 20218D05 		streq	r2, [sp, #288]
 4656 1694 30318D05 		streq	r3, [sp, #304]
 4657 1698 0400000A 		beq	.L1184
 4658 169c 010052E3 		cmp	r2, #1
 4659 16a0 EF05001A 		bne	.L1163
 4660 16a4 0020A0E3 		mov	r2, #0
 4661 16a8 40318DE5 		str	r3, [sp, #320]
 4662 16ac 50218DE5 		str	r2, [sp, #336]
 4663              	.L1184:
 4664 16b0 030056E3 		cmp	r6, #3
 4665 16b4 9305000A 		beq	.L1160
 4666 16b8 F8309DE5 		ldr	r3, [sp, #248]
 4667 16bc 0C2090E5 		ldr	r2, [r0, #12]
 4668 16c0 030052E1 		cmp	r2, r3
 4669 16c4 0900000A 		beq	.L1187
 4670              	.L1194:
 4671 16c8 010053E3 		cmp	r3, #1
 4672 16cc 0030A003 		moveq	r3, #0
 4673 16d0 24218D05 		streq	r2, [sp, #292]
 4674 16d4 34318D05 		streq	r3, [sp, #308]
 4675 16d8 0400000A 		beq	.L1187
 4676 16dc 010052E3 		cmp	r2, #1
 4677 16e0 0020A003 		moveq	r2, #0
 4678 16e4 44318D05 		streq	r3, [sp, #324]
 4679 16e8 54218D05 		streq	r2, [sp, #340]
 4680 16ec DC05001A 		bne	.L1163
 4681              	.L1187:
 4682 16f0 000050E3 		cmp	r0, #0
 4683 16f4 FBFCFF0A 		beq	.L1359
 4684 16f8 FEFFFFEB 		bl	_ZdaPv
 4685 16fc F9FCFFEA 		b	.L1359
 4686              	.L1839:
 4687 1700 080093E5 		ldr	r0, [r3, #8]
 4688 1704 01C0A0E3 		mov	ip, #1
 4689 1708 0C2093E5 		ldr	r2, [r3, #12]
 4690 170c 041093E5 		ldr	r1, [r3, #4]
 4691 1710 20018DE5 		str	r0, [sp, #288]
 4692 1714 24218DE5 		str	r2, [sp, #292]
 4693 1718 30218DE5 		str	r2, [sp, #304]
 4694 171c 900202E0 		mul	r2, r0, r2
 4695 1720 000093E5 		ldr	r0, [r3]
 4696 1724 1C118DE5 		str	r1, [sp, #284]
 4697 1728 34C18DE5 		str	ip, [sp, #308]
 4698 172c 910201E0 		mul	r1, r1, r2
 4699 1730 2C218DE5 		str	r2, [sp, #300]
 4700 1734 18018DE5 		str	r0, [sp, #280]
 4701 1738 28118DE5 		str	r1, [sp, #296]
 4702 173c A4FCFFEA 		b	.L1153
 4703              	.L1918:
 4704              		.align	3
 4705              	.L1917:
 4706 1740 01000000 		.word	1
 4707 1744 00000000 		.word	0
 4708              	.L1499:
 4709              	.L1724:
 4710 1748 E8609DE5 		ldr	r6, [sp, #232]
 4711              	.L1149:
 4712 174c 050056E3 		cmp	r6, #5
 4713 1750 030000DA 		ble	.L1206
 4714 1754 EC009DE5 		ldr	r0, [sp, #236]
 4715 1758 000050E3 		cmp	r0, #0
 4716 175c 0000000A 		beq	.L1206
 4717              	.L1726:
 4718 1760 FEFFFFEB 		bl	_ZdaPv
 4719              	.L1206:
 4720 1764 B8309DE5 		ldr	r3, [sp, #184]
 4721 1768 050053E3 		cmp	r3, #5
 4722 176c 030000DA 		ble	.L1342
 4723 1770 BC009DE5 		ldr	r0, [sp, #188]
 4724 1774 000050E3 		cmp	r0, #0
 4725 1778 0000000A 		beq	.L1342
 4726 177c FEFFFFEB 		bl	_ZdaPv
 4727              	.L1342:
 4728 1780 A0309DE5 		ldr	r3, [sp, #160]
 4729 1784 050053E3 		cmp	r3, #5
 4730 1788 030000DA 		ble	.L1344
 4731 178c A4009DE5 		ldr	r0, [sp, #164]
 4732 1790 000050E3 		cmp	r0, #0
 4733 1794 0000000A 		beq	.L1344
 4734 1798 FEFFFFEB 		bl	_ZdaPv
 4735              	.L1344:
 4736 179c 88309DE5 		ldr	r3, [sp, #136]
 4737 17a0 050053E3 		cmp	r3, #5
 4738 17a4 030000DA 		ble	.L1351
 4739 17a8 8C009DE5 		ldr	r0, [sp, #140]
 4740 17ac 000050E3 		cmp	r0, #0
 4741 17b0 0000000A 		beq	.L1351
 4742              	.L1740:
 4743 17b4 FEFFFFEB 		bl	_ZdaPv
 4744              	.L1351:
 4745              	.LEHB62:
 4746 17b8 FEFFFFEB 		bl	__cxa_end_cleanup
 4747              	.LEHE62:
 4748              	.L1488:
 4749 17bc E8FFFFEA 		b	.L1206
 4750              	.L1495:
 4751 17c0 E0FFFFEA 		b	.L1724
 4752              	.L1482:
 4753 17c4 E6FFFFEA 		b	.L1206
 4754              	.L1856:
 4755 17c8 04519DE5 		ldr	r5, [sp, #260]
 4756 17cc DFFDFFEA 		b	.L1078
 4757              	.L1868:
 4758 17d0 001093E5 		ldr	r1, [r3]
 4759 17d4 002090E5 		ldr	r2, [r0]
 4760 17d8 020051E1 		cmp	r1, r2
 4761 17dc 0600000A 		beq	.L1188
 4762 17e0 010051E3 		cmp	r1, #1
 4763 17e4 5804000A 		beq	.L1189
 4764 17e8 010052E3 		cmp	r2, #1
 4765 17ec 9C05001A 		bne	.L1163
 4766 17f0 0020A0E3 		mov	r2, #0
 4767 17f4 38118DE5 		str	r1, [sp, #312]
 4768 17f8 48218DE5 		str	r2, [sp, #328]
 4769              	.L1188:
 4770 17fc 041093E5 		ldr	r1, [r3, #4]
 4771 1800 042090E5 		ldr	r2, [r0, #4]
 4772 1804 020051E1 		cmp	r1, r2
 4773 1808 0600000A 		beq	.L1190
 4774 180c 010051E3 		cmp	r1, #1
 4775 1810 5104000A 		beq	.L1191
 4776 1814 010052E3 		cmp	r2, #1
 4777 1818 9105001A 		bne	.L1163
 4778 181c 0020A0E3 		mov	r2, #0
 4779 1820 3C118DE5 		str	r1, [sp, #316]
 4780 1824 4C218DE5 		str	r2, [sp, #332]
 4781              	.L1190:
 4782 1828 081093E5 		ldr	r1, [r3, #8]
 4783 182c 082090E5 		ldr	r2, [r0, #8]
 4784 1830 020051E1 		cmp	r1, r2
 4785 1834 0600000A 		beq	.L1192
 4786 1838 010051E3 		cmp	r1, #1
 4787 183c 4A04000A 		beq	.L1193
 4788 1840 010052E3 		cmp	r2, #1
 4789 1844 8605001A 		bne	.L1163
 4790 1848 0020A0E3 		mov	r2, #0
 4791 184c 40118DE5 		str	r1, [sp, #320]
 4792 1850 50218DE5 		str	r2, [sp, #336]
 4793              	.L1192:
 4794 1854 0C3093E5 		ldr	r3, [r3, #12]
 4795 1858 0C2090E5 		ldr	r2, [r0, #12]
 4796 185c 020053E1 		cmp	r3, r2
 4797 1860 98FFFF1A 		bne	.L1194
 4798 1864 A1FFFFEA 		b	.L1187
 4799              	.L1846:
 4800 1868 080093E5 		ldr	r0, [r3, #8]
 4801 186c 01C0A0E3 		mov	ip, #1
 4802 1870 0C2093E5 		ldr	r2, [r3, #12]
 4803 1874 041093E5 		ldr	r1, [r3, #4]
 4804 1878 20018DE5 		str	r0, [sp, #288]
 4805 187c 24218DE5 		str	r2, [sp, #292]
 4806 1880 30218DE5 		str	r2, [sp, #304]
 4807 1884 900202E0 		mul	r2, r0, r2
 4808 1888 000093E5 		ldr	r0, [r3]
 4809 188c 1C118DE5 		str	r1, [sp, #284]
 4810 1890 34C18DE5 		str	ip, [sp, #308]
 4811 1894 910201E0 		mul	r1, r1, r2
 4812 1898 2C218DE5 		str	r2, [sp, #300]
 4813 189c 18018DE5 		str	r0, [sp, #280]
 4814 18a0 28118DE5 		str	r1, [sp, #296]
 4815 18a4 0BFDFFEA 		b	.L963
 4816              	.L1210:
 4817 18a8 D4308DE2 		add	r3, sp, #212
 4818 18ac 0221A0E1 		lsl	r2, r2, #2
 4819 18b0 000183E0 		add	r0, r3, r0, lsl #2
 4820 18b4 BC108DE2 		add	r1, sp, #188
 4821 18b8 FEFFFFEB 		bl	memcpy
 4822 18bc D0309DE5 		ldr	r3, [sp, #208]
 4823 18c0 000053E3 		cmp	r3, #0
 4824 18c4 08308DE5 		str	r3, [sp, #8]
 4825 18c8 230500DA 		ble	.L1869
 4826 18cc 54219DE5 		ldr	r2, [sp, #340]
 4827 18d0 00B0A0E3 		mov	fp, #0
 4828 18d4 D8309DE5 		ldr	r3, [sp, #216]
 4829 18d8 0BA0A0E1 		mov	r10, fp
 4830 18dc 64708DE5 		str	r7, [sp, #100]
 4831 18e0 02E0A0E1 		mov	lr, r2
 4832 18e4 3C208DE5 		str	r2, [sp, #60]
 4833 18e8 34219DE5 		ldr	r2, [sp, #308]
 4834 18ec 0310A0E1 		mov	r1, r3
 4835 18f0 18308DE5 		str	r3, [sp, #24]
 4836 18f4 DC309DE5 		ldr	r3, [sp, #220]
 4837 18f8 0260A0E1 		mov	r6, r2
 4838 18fc 40208DE5 		str	r2, [sp, #64]
 4839 1900 E0209DE5 		ldr	r2, [sp, #224]
 4840 1904 0300A0E1 		mov	r0, r3
 4841 1908 0C308DE5 		str	r3, [sp, #12]
 4842 190c 750B5FED 		vldr.64	d16, .L1917	@ int
 4843 1910 02C0A0E1 		mov	ip, r2
 4844 1914 00208DE5 		str	r2, [sp]
 4845 1918 930102E0 		mul	r2, r3, r1
 4846 191c D4309DE5 		ldr	r3, [sp, #212]
 4847 1920 8E10A0E1 		lsl	r1, lr, #1
 4848 1924 1CE19DE5 		ldr	lr, [sp, #284]
 4849 1928 9C0000E0 		mul	r0, ip, r0
 4850 192c 04308DE5 		str	r3, [sp, #4]
 4851 1930 18319DE5 		ldr	r3, [sp, #280]
 4852 1934 9C0202E0 		mul	r2, ip, r2
 4853 1938 14E08DE5 		str	lr, [sp, #20]
 4854 193c 01E085E0 		add	lr, r5, r1
 4855 1940 001061E2 		rsb	r1, r1, #0
 4856 1944 68E08DE5 		str	lr, [sp, #104]
 4857 1948 10308DE5 		str	r3, [sp, #16]
 4858 194c 8630A0E1 		lsl	r3, r6, #1
 4859 1950 38108DE5 		str	r1, [sp, #56]
 4860 1954 031084E0 		add	r1, r4, r3
 4861 1958 003063E2 		rsb	r3, r3, #0
 4862 195c 28308DE5 		str	r3, [sp, #40]
 4863 1960 20319DE5 		ldr	r3, [sp, #288]
 4864 1964 78008DE5 		str	r0, [sp, #120]
 4865 1968 6C108DE5 		str	r1, [sp, #108]
 4866 196c 1C308DE5 		str	r3, [sp, #28]
 4867 1970 24319DE5 		ldr	r3, [sp, #292]
 4868 1974 7C208DE5 		str	r2, [sp, #124]
 4869 1978 20308DE5 		str	r3, [sp, #32]
 4870 197c 2C319DE5 		ldr	r3, [sp, #300]
 4871 1980 70308DE5 		str	r3, [sp, #112]
 4872 1984 30319DE5 		ldr	r3, [sp, #304]
 4873 1988 50308DE5 		str	r3, [sp, #80]
 4874 198c 38319DE5 		ldr	r3, [sp, #312]
 4875 1990 24308DE5 		str	r3, [sp, #36]
 4876 1994 3C319DE5 		ldr	r3, [sp, #316]
 4877 1998 2C308DE5 		str	r3, [sp, #44]
 4878 199c 40319DE5 		ldr	r3, [sp, #320]
 4879 19a0 30308DE5 		str	r3, [sp, #48]
 4880 19a4 44319DE5 		ldr	r3, [sp, #324]
 4881 19a8 34308DE5 		str	r3, [sp, #52]
 4882 19ac 4C319DE5 		ldr	r3, [sp, #332]
 4883 19b0 74308DE5 		str	r3, [sp, #116]
 4884 19b4 50319DE5 		ldr	r3, [sp, #336]
 4885 19b8 54308DE5 		str	r3, [sp, #84]
 4886 19bc 48319DE5 		ldr	r3, [sp, #328]
 4887 19c0 80308DE5 		str	r3, [sp, #128]
 4888 19c4 28319DE5 		ldr	r3, [sp, #296]
 4889 19c8 84308DE5 		str	r3, [sp, #132]
 4890              	.L1212:
 4891 19cc 08309DE5 		ldr	r3, [sp, #8]
 4892 19d0 050053E3 		cmp	r3, #5
 4893 19d4 04309DE5 		ldr	r3, [sp, #4]
 4894 19d8 003093C5 		ldrgt	r3, [r3]
 4895 19dc 0A0053E1 		cmp	r3, r10
 4896 19e0 08309DE5 		ldr	r3, [sp, #8]
 4897 19e4 B80300DA 		ble	.L1214
 4898 19e8 010053E3 		cmp	r3, #1
 4899 19ec B804000A 		beq	.L1215
 4900 19f0 6C309DE5 		ldr	r3, [sp, #108]
 4901 19f4 00B0A0E3 		mov	fp, #0
 4902 19f8 5C308DE5 		str	r3, [sp, #92]
 4903 19fc 68309DE5 		ldr	r3, [sp, #104]
 4904 1a00 58308DE5 		str	r3, [sp, #88]
 4905 1a04 64309DE5 		ldr	r3, [sp, #100]
 4906 1a08 60308DE5 		str	r3, [sp, #96]
 4907              	.L1216:
 4908 1a0c 08309DE5 		ldr	r3, [sp, #8]
 4909 1a10 050053E3 		cmp	r3, #5
 4910 1a14 04309DC5 		ldrgt	r3, [sp, #4]
 4911 1a18 18309DD5 		ldrle	r3, [sp, #24]
 4912 1a1c 043093C5 		ldrgt	r3, [r3, #4]
 4913 1a20 0B0053E1 		cmp	r3, fp
 4914 1a24 D40300DA 		ble	.L1218
 4915 1a28 08309DE5 		ldr	r3, [sp, #8]
 4916 1a2c 020053E3 		cmp	r3, #2
 4917 1a30 C804000A 		beq	.L1219
 4918 1a34 5C309DE5 		ldr	r3, [sp, #92]
 4919 1a38 0090A0E3 		mov	r9, #0
 4920 1a3c 48308DE5 		str	r3, [sp, #72]
 4921 1a40 58309DE5 		ldr	r3, [sp, #88]
 4922 1a44 44308DE5 		str	r3, [sp, #68]
 4923 1a48 60309DE5 		ldr	r3, [sp, #96]
 4924 1a4c 4C308DE5 		str	r3, [sp, #76]
 4925              	.L1220:
 4926 1a50 08309DE5 		ldr	r3, [sp, #8]
 4927 1a54 050053E3 		cmp	r3, #5
 4928 1a58 04309DC5 		ldrgt	r3, [sp, #4]
 4929 1a5c 0C309DD5 		ldrle	r3, [sp, #12]
 4930 1a60 083093C5 		ldrgt	r3, [r3, #8]
 4931 1a64 090053E1 		cmp	r3, r9
 4932 1a68 4B0300DA 		ble	.L1222
 4933 1a6c 08309DE5 		ldr	r3, [sp, #8]
 4934 1a70 030053E3 		cmp	r3, #3
 4935 1a74 9303000A 		beq	.L1870
 4936 1a78 050053E3 		cmp	r3, #5
 4937 1a7c 48C09DE5 		ldr	ip, [sp, #72]
 4938 1a80 44709DE5 		ldr	r7, [sp, #68]
 4939 1a84 0000A0E3 		mov	r0, #0
 4940 1a88 4C809DE5 		ldr	r8, [sp, #76]
 4941 1a8c BE0000DA 		ble	.L1435
 4942 1a90 CE0000EA 		b	.L1871
 4943              	.L1354:
 4944 1a94 10309DE5 		ldr	r3, [sp, #16]
 4945 1a98 0A0053E1 		cmp	r3, r10
 4946 1a9c 5C319DE5 		ldr	r3, [sp, #348]
 4947 1aa0 360300DA 		ble	.L1872
 4948 1aa4 14209DE5 		ldr	r2, [sp, #20]
 4949 1aa8 0B0052E1 		cmp	r2, fp
 4950 1aac 390300DA 		ble	.L1873
 4951 1ab0 1C209DE5 		ldr	r2, [sp, #28]
 4952 1ab4 090052E1 		cmp	r2, r9
 4953 1ab8 350300DA 		ble	.L1874
 4954 1abc 20209DE5 		ldr	r2, [sp, #32]
 4955 1ac0 000052E1 		cmp	r2, r0
 4956 1ac4 2C0300DA 		ble	.L1875
 4957 1ac8 28209DE5 		ldr	r2, [sp, #40]
 4958 1acc 24109DE5 		ldr	r1, [sp, #36]
 4959 1ad0 00F0DCF5 		pld	[ip]
 4960 1ad4 0220DCE7 		ldrb	r2, [ip, r2]	@ zero_extendqisi2
 4961 1ad8 0A0051E1 		cmp	r1, r10
 4962 1adc 60119DE5 		ldr	r1, [sp, #352]
 4963 1ae0 033082E0 		add	r3, r2, r3
 4964 1ae4 230300DA 		ble	.L1876
 4965 1ae8 2C209DE5 		ldr	r2, [sp, #44]
 4966 1aec 0B0052E1 		cmp	r2, fp
 4967 1af0 1F0300DA 		ble	.L1877
 4968 1af4 30209DE5 		ldr	r2, [sp, #48]
 4969 1af8 090052E1 		cmp	r2, r9
 4970 1afc 1B0300DA 		ble	.L1878
 4971 1b00 34209DE5 		ldr	r2, [sp, #52]
 4972 1b04 000052E1 		cmp	r2, r0
 4973 1b08 100300DA 		ble	.L1879
 4974 1b0c 70219DE5 		ldr	r2, [sp, #368]
 4975 1b10 38409DE5 		ldr	r4, [sp, #56]
 4976 1b14 74E19DE5 		ldr	lr, [sp, #372]
 4977 1b18 00F0D7F5 		pld	[r7]
 4978 1b1c 0440D7E7 		ldrb	r4, [r7, r4]	@ zero_extendqisi2
 4979 1b20 1332A0E1 		lsl	r3, r3, r2
 4980 1b24 78619DE5 		ldr	r6, [sp, #376]
 4981 1b28 0E0053E1 		cmp	r3, lr
 4982 1b2c 02015303 		cmpeq	r3, #-2147483648
 4983 1b30 011084E0 		add	r1, r4, r1
 4984 1b34 934EC5E0 		smull	r4, r5, r3, lr
 4985 1b38 01E0A003 		moveq	lr, #1
 4986 1b3c 00E0A013 		movne	lr, #0
 4987 1b40 1112A0E1 		lsl	r1, r1, r2
 4988 1b44 000054E3 		cmp	r4, #0
 4989 1b48 0030D5E2 		sbcs	r3, r5, #0
 4990 1b4c 0121A0A3 		movge	r2, #1073741824
 4991 1b50 0030A0A3 		movge	r3, #0
 4992 1b54 0721A0B3 		movlt	r2, #-1073741823
 4993 1b58 0030E0B3 		mvnlt	r3, #0
 4994 1b5c 00005EE3 		cmp	lr, #0
 4995 1b60 0241E013 		mvnne	r4, #-2147483648
 4996 1b64 0800001A 		bne	.L1233
 4997 1b68 024094E0 		adds	r4, r4, r2
 4998 1b6c 0350A5E0 		adc	r5, r5, r3
 4999 1b70 0030A0E3 		mov	r3, #0
 5000 1b74 C52FA0E1 		asr	r2, r5, #31
 5001 1b78 0221C2E3 		bic	r2, r2, #-2147483648
 5002 1b7c 024094E0 		adds	r4, r4, r2
 5003 1b80 A44FA0E1 		lsr	r4, r4, #31
 5004 1b84 0350A5E0 		adc	r5, r5, r3
 5005 1b88 854084E1 		orr	r4, r4, r5, lsl #1
 5006              	.L1233:
 5007 1b8c 000056E3 		cmp	r6, #0
 5008 1b90 00E066E2 		rsb	lr, r6, #0
 5009 1b94 2A0300CA 		bgt	.L1880
 5010 1b98 1F0076E3 		cmn	r6, #31
 5011 1b9c 380300BA 		blt	.L1881
 5012 1ba0 90EB01EE 		vmov.32	d17[0], lr
 5013 1ba4 546EA0E1 		asr	r6, r4, lr
 5014 1ba8 7C219DE5 		ldr	r2, [sp, #380]
 5015 1bac A07431F3 		vshl.u64	d7, d16, d17
 5016 1bb0 020051E1 		cmp	r1, r2
 5017 1bb4 02015103 		cmpeq	r1, #-2147483648
 5018 1bb8 103A17EE 		vmov	r3, s14	@ int
 5019 1bbc 013043E2 		sub	r3, r3, #1
 5020 1bc0 C3E0A0E1 		asr	lr, r3, #1
 5021 1bc4 043003E0 		and	r3, r3, r4
 5022 1bc8 A4EF8EE0 		add	lr, lr, r4, lsr #31
 5023 1bcc 9142C5E0 		smull	r4, r5, r1, r2
 5024 1bd0 0110A003 		moveq	r1, #1
 5025 1bd4 0010A013 		movne	r1, #0
 5026 1bd8 0E0053E1 		cmp	r3, lr
 5027 1bdc 06E0A0D1 		movle	lr, r6
 5028 1be0 01E086C2 		addgt	lr, r6, #1
 5029 1be4 80619DE5 		ldr	r6, [sp, #384]
 5030 1be8 000054E3 		cmp	r4, #0
 5031 1bec 0030D5E2 		sbcs	r3, r5, #0
 5032 1bf0 0121A0A3 		movge	r2, #1073741824
 5033 1bf4 0721A0B3 		movlt	r2, #-1073741823
 5034 1bf8 0030A0A3 		movge	r3, #0
 5035 1bfc 0030E0B3 		mvnlt	r3, #0
 5036 1c00 000051E3 		cmp	r1, #0
 5037 1c04 0221E013 		mvnne	r2, #-2147483648
 5038 1c08 0800001A 		bne	.L1237
 5039 1c0c 024094E0 		adds	r4, r4, r2
 5040 1c10 0350A5E0 		adc	r5, r5, r3
 5041 1c14 0030A0E3 		mov	r3, #0
 5042 1c18 C52FA0E1 		asr	r2, r5, #31
 5043 1c1c 0221C2E3 		bic	r2, r2, #-2147483648
 5044 1c20 042092E0 		adds	r2, r2, r4
 5045 1c24 A22FA0E1 		lsr	r2, r2, #31
 5046 1c28 0530A3E0 		adc	r3, r3, r5
 5047 1c2c 832082E1 		orr	r2, r2, r3, lsl #1
 5048              	.L1237:
 5049 1c30 000056E3 		cmp	r6, #0
 5050 1c34 001066E2 		rsb	r1, r6, #0
 5051 1c38 090300CA 		bgt	.L1882
 5052 1c3c 1F0076E3 		cmn	r6, #31
 5053 1c40 180300BA 		blt	.L1883
 5054 1c44 901B02EE 		vmov.32	d18[0], r1
 5055 1c48 5231A0E1 		asr	r3, r2, r1
 5056 1c4c 68619DE5 		ldr	r6, [sp, #360]
 5057 1c50 A01472F3 		vshl.u64	d17, d16, d18
 5058 1c54 314B55EC 		vmov	r4, r5, d17	@ int
 5059 1c58 015044E2 		sub	r5, r4, #1
 5060 1c5c C510A0E1 		asr	r1, r5, #1
 5061 1c60 025005E0 		and	r5, r5, r2
 5062 1c64 A22F81E0 		add	r2, r1, r2, lsr #31
 5063 1c68 6C119DE5 		ldr	r1, [sp, #364]
 5064 1c6c 020055E1 		cmp	r5, r2
 5065 1c70 0320A0D1 		movle	r2, r3
 5066 1c74 012083C2 		addgt	r2, r3, #1
 5067 1c78 0EE082E0 		add	lr, r2, lr
 5068 1c7c 9E46C5E0 		smull	r4, r5, lr, r6
 5069 1c80 06005EE1 		cmp	lr, r6
 5070 1c84 02015E03 		cmpeq	lr, #-2147483648
 5071 1c88 01E0A003 		moveq	lr, #1
 5072 1c8c 00E0A013 		movne	lr, #0
 5073 1c90 000054E3 		cmp	r4, #0
 5074 1c94 0030D5E2 		sbcs	r3, r5, #0
 5075 1c98 0121A0A3 		movge	r2, #1073741824
 5076 1c9c 0721A0B3 		movlt	r2, #-1073741823
 5077 1ca0 0030A0A3 		movge	r3, #0
 5078 1ca4 0030E0B3 		mvnlt	r3, #0
 5079 1ca8 00005EE3 		cmp	lr, #0
 5080 1cac 0221E013 		mvnne	r2, #-2147483648
 5081 1cb0 0800001A 		bne	.L1241
 5082 1cb4 024094E0 		adds	r4, r4, r2
 5083 1cb8 0350A5E0 		adc	r5, r5, r3
 5084 1cbc 0030A0E3 		mov	r3, #0
 5085 1cc0 C52FA0E1 		asr	r2, r5, #31
 5086 1cc4 0221C2E3 		bic	r2, r2, #-2147483648
 5087 1cc8 042092E0 		adds	r2, r2, r4
 5088 1ccc A22FA0E1 		lsr	r2, r2, #31
 5089 1cd0 0530A3E0 		adc	r3, r3, r5
 5090 1cd4 832082E1 		orr	r2, r2, r3, lsl #1
 5091              	.L1241:
 5092 1cd8 000051E3 		cmp	r1, #0
 5093 1cdc 00E061E2 		rsb	lr, r1, #0
 5094 1ce0 CF0200CA 		bgt	.L1884
 5095 1ce4 1F0071E3 		cmn	r1, #31
 5096 1ce8 C50200BA 		blt	.L1885
 5097 1cec 90EB02EE 		vmov.32	d18[0], lr
 5098 1cf0 523EA0E1 		asr	r3, r2, lr
 5099 1cf4 64619DE5 		ldr	r6, [sp, #356]
 5100 1cf8 A01472F3 		vshl.u64	d17, d16, d18
 5101 1cfc 84E19DE5 		ldr	lr, [sp, #388]
 5102 1d00 314B55EC 		vmov	r4, r5, d17	@ int
 5103 1d04 011044E2 		sub	r1, r4, #1
 5104 1d08 88519DE5 		ldr	r5, [sp, #392]
 5105 1d0c C140A0E1 		asr	r4, r1, #1
 5106 1d10 021001E0 		and	r1, r1, r2
 5107 1d14 A22F84E0 		add	r2, r4, r2, lsr #31
 5108 1d18 020051E1 		cmp	r1, r2
 5109 1d1c 0310A0D1 		movle	r1, r3
 5110 1d20 011083C2 		addgt	r1, r3, #1
 5111 1d24 08309DE5 		ldr	r3, [sp, #8]
 5112 1d28 061081E0 		add	r1, r1, r6
 5113 1d2c 0E0051E1 		cmp	r1, lr
 5114 1d30 0E10A0B1 		movlt	r1, lr
 5115 1d34 050051E1 		cmp	r1, r5
 5116 1d38 0510A0A1 		movge	r1, r5
 5117 1d3c 040053E3 		cmp	r3, #4
 5118 1d40 D702001A 		bne	.L1886
 5119 1d44 04309DE5 		ldr	r3, [sp, #4]
 5120 1d48 0A0053E1 		cmp	r3, r10
 5121 1d4c 8F0200DA 		ble	.L1887
 5122 1d50 18309DE5 		ldr	r3, [sp, #24]
 5123 1d54 0B0053E1 		cmp	r3, fp
 5124 1d58 8B0200DA 		ble	.L1888
 5125 1d5c 0C309DE5 		ldr	r3, [sp, #12]
 5126 1d60 090053E1 		cmp	r3, r9
 5127 1d64 870200DA 		ble	.L1889
 5128 1d68 00309DE5 		ldr	r3, [sp]
 5129 1d6c 000053E1 		cmp	r3, r0
 5130 1d70 3C309DE5 		ldr	r3, [sp, #60]
 5131 1d74 037087E0 		add	r7, r7, r3
 5132 1d78 40309DE5 		ldr	r3, [sp, #64]
 5133 1d7c 03C08CE0 		add	ip, ip, r3
 5134 1d80 7F0200DA 		ble	.L1890
 5135 1d84 010080E2 		add	r0, r0, #1
 5136 1d88 0110C8E4 		strb	r1, [r8], #1
 5137              	.L1435:
 5138 1d8c 00309DE5 		ldr	r3, [sp]
 5139              	.L1224:
 5140 1d90 030050E1 		cmp	r0, r3
 5141 1d94 3EFFFFBA 		blt	.L1354
 5142 1d98 4C309DE5 		ldr	r3, [sp, #76]
 5143 1d9c 019089E2 		add	r9, r9, #1
 5144 1da0 00209DE5 		ldr	r2, [sp]
 5145 1da4 023083E0 		add	r3, r3, r2
 5146 1da8 54209DE5 		ldr	r2, [sp, #84]
 5147 1dac 4C308DE5 		str	r3, [sp, #76]
 5148 1db0 44309DE5 		ldr	r3, [sp, #68]
 5149 1db4 023083E0 		add	r3, r3, r2
 5150 1db8 50209DE5 		ldr	r2, [sp, #80]
 5151 1dbc 44308DE5 		str	r3, [sp, #68]
 5152 1dc0 48309DE5 		ldr	r3, [sp, #72]
 5153 1dc4 023083E0 		add	r3, r3, r2
 5154 1dc8 48308DE5 		str	r3, [sp, #72]
 5155 1dcc 1FFFFFEA 		b	.L1220
 5156              	.L1871:
 5157 1dd0 04309DE5 		ldr	r3, [sp, #4]
 5158 1dd4 0C3093E5 		ldr	r3, [r3, #12]
 5159 1dd8 ECFFFFEA 		b	.L1224
 5160              	.L1020:
 5161 1ddc D4308DE2 		add	r3, sp, #212
 5162 1de0 0221A0E1 		lsl	r2, r2, #2
 5163 1de4 000183E0 		add	r0, r3, r0, lsl #2
 5164 1de8 BC108DE2 		add	r1, sp, #188
 5165 1dec FEFFFFEB 		bl	memcpy
 5166 1df0 D0309DE5 		ldr	r3, [sp, #208]
 5167 1df4 000053E3 		cmp	r3, #0
 5168 1df8 08308DE5 		str	r3, [sp, #8]
 5169 1dfc B00300DA 		ble	.L1891
 5170 1e00 D8309DE5 		ldr	r3, [sp, #216]
 5171 1e04 00B0A0E3 		mov	fp, #0
 5172 1e08 54219DE5 		ldr	r2, [sp, #340]
 5173 1e0c 0BA0A0E1 		mov	r10, fp
 5174 1e10 60708DE5 		str	r7, [sp, #96]
 5175 1e14 0310A0E1 		mov	r1, r3
 5176 1e18 10308DE5 		str	r3, [sp, #16]
 5177 1e1c DC309DE5 		ldr	r3, [sp, #220]
 5178 1e20 02E0A0E1 		mov	lr, r2
 5179 1e24 40208DE5 		str	r2, [sp, #64]
 5180 1e28 34219DE5 		ldr	r2, [sp, #308]
 5181 1e2c 0300A0E1 		mov	r0, r3
 5182 1e30 0C308DE5 		str	r3, [sp, #12]
 5183 1e34 930101E0 		mul	r1, r3, r1
 5184 1e38 D4309DE5 		ldr	r3, [sp, #212]
 5185 1e3c 0260A0E1 		mov	r6, r2
 5186 1e40 3C208DE5 		str	r2, [sp, #60]
 5187 1e44 E0209DE5 		ldr	r2, [sp, #224]
 5188 1e48 04308DE5 		str	r3, [sp, #4]
 5189 1e4c 18319DE5 		ldr	r3, [sp, #280]
 5190 1e50 02C0A0E1 		mov	ip, r2
 5191 1e54 00208DE5 		str	r2, [sp]
 5192 1e58 8E20A0E1 		lsl	r2, lr, #1
 5193 1e5c 1CE19DE5 		ldr	lr, [sp, #284]
 5194 1e60 14308DE5 		str	r3, [sp, #20]
 5195 1e64 8630A0E1 		lsl	r3, r6, #1
 5196 1e68 900C00E0 		mul	r0, r0, ip
 5197 1e6c 550BDFED 		vldr.64	d16, .L1919	@ int
 5198 1e70 18E08DE5 		str	lr, [sp, #24]
 5199 1e74 02E085E0 		add	lr, r5, r2
 5200 1e78 002062E2 		rsb	r2, r2, #0
 5201 1e7c 5CE08DE5 		str	lr, [sp, #92]
 5202 1e80 38208DE5 		str	r2, [sp, #56]
 5203 1e84 032084E0 		add	r2, r4, r3
 5204 1e88 003063E2 		rsb	r3, r3, #0
 5205 1e8c 58208DE5 		str	r2, [sp, #88]
 5206 1e90 28308DE5 		str	r3, [sp, #40]
 5207 1e94 9C0102E0 		mul	r2, ip, r1
 5208 1e98 20319DE5 		ldr	r3, [sp, #288]
 5209 1e9c 78008DE5 		str	r0, [sp, #120]
 5210 1ea0 1C308DE5 		str	r3, [sp, #28]
 5211 1ea4 24319DE5 		ldr	r3, [sp, #292]
 5212 1ea8 7C208DE5 		str	r2, [sp, #124]
 5213 1eac 20308DE5 		str	r3, [sp, #32]
 5214 1eb0 2C319DE5 		ldr	r3, [sp, #300]
 5215 1eb4 70308DE5 		str	r3, [sp, #112]
 5216 1eb8 30319DE5 		ldr	r3, [sp, #304]
 5217 1ebc 50308DE5 		str	r3, [sp, #80]
 5218 1ec0 38319DE5 		ldr	r3, [sp, #312]
 5219 1ec4 24308DE5 		str	r3, [sp, #36]
 5220 1ec8 3C319DE5 		ldr	r3, [sp, #316]
 5221 1ecc 2C308DE5 		str	r3, [sp, #44]
 5222 1ed0 40319DE5 		ldr	r3, [sp, #320]
 5223 1ed4 30308DE5 		str	r3, [sp, #48]
 5224 1ed8 44319DE5 		ldr	r3, [sp, #324]
 5225 1edc 34308DE5 		str	r3, [sp, #52]
 5226 1ee0 4C319DE5 		ldr	r3, [sp, #332]
 5227 1ee4 74308DE5 		str	r3, [sp, #116]
 5228 1ee8 50319DE5 		ldr	r3, [sp, #336]
 5229 1eec 54308DE5 		str	r3, [sp, #84]
 5230 1ef0 48319DE5 		ldr	r3, [sp, #328]
 5231 1ef4 84308DE5 		str	r3, [sp, #132]
 5232 1ef8 28319DE5 		ldr	r3, [sp, #296]
 5233 1efc 80308DE5 		str	r3, [sp, #128]
 5234              	.L1022:
 5235 1f00 08309DE5 		ldr	r3, [sp, #8]
 5236 1f04 050053E3 		cmp	r3, #5
 5237 1f08 04309DE5 		ldr	r3, [sp, #4]
 5238 1f0c 003093C5 		ldrgt	r3, [r3]
 5239 1f10 03005AE1 		cmp	r10, r3
 5240 1f14 08309DE5 		ldr	r3, [sp, #8]
 5241 1f18 6B0200AA 		bge	.L1214
 5242 1f1c 010053E3 		cmp	r3, #1
 5243 1f20 5F03000A 		beq	.L1025
 5244 1f24 58309DE5 		ldr	r3, [sp, #88]
 5245 1f28 00B0A0E3 		mov	fp, #0
 5246 1f2c 64308DE5 		str	r3, [sp, #100]
 5247 1f30 5C309DE5 		ldr	r3, [sp, #92]
 5248 1f34 68308DE5 		str	r3, [sp, #104]
 5249 1f38 60309DE5 		ldr	r3, [sp, #96]
 5250 1f3c 6C308DE5 		str	r3, [sp, #108]
 5251              	.L1026:
 5252 1f40 08309DE5 		ldr	r3, [sp, #8]
 5253 1f44 050053E3 		cmp	r3, #5
 5254 1f48 04309DC5 		ldrgt	r3, [sp, #4]
 5255 1f4c 10309DD5 		ldrle	r3, [sp, #16]
 5256 1f50 043093C5 		ldrgt	r3, [r3, #4]
 5257 1f54 03005BE1 		cmp	fp, r3
 5258 1f58 EE0200AA 		bge	.L1028
 5259 1f5c 08309DE5 		ldr	r3, [sp, #8]
 5260 1f60 020053E3 		cmp	r3, #2
 5261 1f64 5B03000A 		beq	.L1029
 5262 1f68 64309DE5 		ldr	r3, [sp, #100]
 5263 1f6c 0090A0E3 		mov	r9, #0
 5264 1f70 44308DE5 		str	r3, [sp, #68]
 5265 1f74 68309DE5 		ldr	r3, [sp, #104]
 5266 1f78 48308DE5 		str	r3, [sp, #72]
 5267 1f7c 6C309DE5 		ldr	r3, [sp, #108]
 5268 1f80 4C308DE5 		str	r3, [sp, #76]
 5269              	.L1030:
 5270 1f84 08309DE5 		ldr	r3, [sp, #8]
 5271 1f88 050053E3 		cmp	r3, #5
 5272 1f8c 04309DC5 		ldrgt	r3, [sp, #4]
 5273 1f90 0C309DD5 		ldrle	r3, [sp, #12]
 5274 1f94 083093C5 		ldrgt	r3, [r3, #8]
 5275 1f98 030059E1 		cmp	r9, r3
 5276 1f9c 900200AA 		bge	.L1032
 5277 1fa0 08309DE5 		ldr	r3, [sp, #8]
 5278 1fa4 030053E3 		cmp	r3, #3
 5279 1fa8 AD02000A 		beq	.L1892
 5280 1fac 050053E3 		cmp	r3, #5
 5281 1fb0 44C09DE5 		ldr	ip, [sp, #68]
 5282 1fb4 48709DE5 		ldr	r7, [sp, #72]
 5283 1fb8 0000A0E3 		mov	r0, #0
 5284 1fbc 4C809DE5 		ldr	r8, [sp, #76]
 5285 1fc0 C00000DA 		ble	.L1388
 5286 1fc4 D00000EA 		b	.L1893
 5287              	.L1920:
 5288              		.align	3
 5289              	.L1919:
 5290 1fc8 01000000 		.word	1
 5291 1fcc 00000000 		.word	0
 5292              	.L1913:
 5293 1fd0 08309DE5 		ldr	r3, [sp, #8]
 5294 1fd4 040053E3 		cmp	r3, #4
 5295 1fd8 9702001A 		bne	.L1894
 5296 1fdc 04309DE5 		ldr	r3, [sp, #4]
 5297 1fe0 03005AE1 		cmp	r10, r3
 5298 1fe4 790200AA 		bge	.L1895
 5299 1fe8 10309DE5 		ldr	r3, [sp, #16]
 5300 1fec 03005BE1 		cmp	fp, r3
 5301 1ff0 750200AA 		bge	.L1896
 5302 1ff4 0C309DE5 		ldr	r3, [sp, #12]
 5303 1ff8 030059E1 		cmp	r9, r3
 5304 1ffc 770200AA 		bge	.L1897
 5305 2000 00309DE5 		ldr	r3, [sp]
 5306 2004 030050E1 		cmp	r0, r3
 5307 2008 730200AA 		bge	.L1898
 5308 200c 14309DE5 		ldr	r3, [sp, #20]
 5309 2010 03005AE1 		cmp	r10, r3
 5310 2014 6F0200AA 		bge	.L1899
 5311 2018 18309DE5 		ldr	r3, [sp, #24]
 5312 201c 03005BE1 		cmp	fp, r3
 5313 2020 6B0200AA 		bge	.L1900
 5314 2024 1C309DE5 		ldr	r3, [sp, #28]
 5315 2028 030059E1 		cmp	r9, r3
 5316 202c 650200AA 		bge	.L1901
 5317 2030 20309DE5 		ldr	r3, [sp, #32]
 5318 2034 030050E1 		cmp	r0, r3
 5319 2038 610200AA 		bge	.L1902
 5320 203c 24309DE5 		ldr	r3, [sp, #36]
 5321 2040 00F0DCF5 		pld	[ip]
 5322 2044 03005AE1 		cmp	r10, r3
 5323 2048 28309DE5 		ldr	r3, [sp, #40]
 5324 204c D3109CE1 		ldrsb	r1, [ip, r3]
 5325 2050 5A0200AA 		bge	.L1903
 5326 2054 2C309DE5 		ldr	r3, [sp, #44]
 5327 2058 03005BE1 		cmp	fp, r3
 5328 205c 560200AA 		bge	.L1904
 5329 2060 30309DE5 		ldr	r3, [sp, #48]
 5330 2064 030059E1 		cmp	r9, r3
 5331 2068 520200AA 		bge	.L1905
 5332 206c 34309DE5 		ldr	r3, [sp, #52]
 5333 2070 030050E1 		cmp	r0, r3
 5334 2074 4E0200AA 		bge	.L1906
 5335 2078 70219DE5 		ldr	r2, [sp, #368]
 5336 207c 5C319DE5 		ldr	r3, [sp, #348]
 5337 2080 74E19DE5 		ldr	lr, [sp, #372]
 5338 2084 00F0D7F5 		pld	[r7]
 5339 2088 033081E0 		add	r3, r1, r3
 5340 208c 38109DE5 		ldr	r1, [sp, #56]
 5341 2090 1332A0E1 		lsl	r3, r3, r2
 5342 2094 78619DE5 		ldr	r6, [sp, #376]
 5343 2098 934EC5E0 		smull	r4, r5, r3, lr
 5344 209c 0E0053E1 		cmp	r3, lr
 5345 20a0 02015303 		cmpeq	r3, #-2147483648
 5346 20a4 D11097E1 		ldrsb	r1, [r7, r1]
 5347 20a8 01E0A003 		moveq	lr, #1
 5348 20ac 60319DE5 		ldr	r3, [sp, #352]
 5349 20b0 00E0A013 		movne	lr, #0
 5350 20b4 000054E3 		cmp	r4, #0
 5351 20b8 031081E0 		add	r1, r1, r3
 5352 20bc 0030D5E2 		sbcs	r3, r5, #0
 5353 20c0 1112A0E1 		lsl	r1, r1, r2
 5354 20c4 0030A0A3 		movge	r3, #0
 5355 20c8 0121A0A3 		movge	r2, #1073741824
 5356 20cc 0721A0B3 		movlt	r2, #-1073741823
 5357 20d0 0030E0B3 		mvnlt	r3, #0
 5358 20d4 00005EE3 		cmp	lr, #0
 5359 20d8 0241E013 		mvnne	r4, #-2147483648
 5360 20dc 0800001A 		bne	.L1053
 5361 20e0 024094E0 		adds	r4, r4, r2
 5362 20e4 0350A5E0 		adc	r5, r5, r3
 5363 20e8 0030A0E3 		mov	r3, #0
 5364 20ec C52FA0E1 		asr	r2, r5, #31
 5365 20f0 0221C2E3 		bic	r2, r2, #-2147483648
 5366 20f4 024094E0 		adds	r4, r4, r2
 5367 20f8 A44FA0E1 		lsr	r4, r4, #31
 5368 20fc 0350A5E0 		adc	r5, r5, r3
 5369 2100 854084E1 		orr	r4, r4, r5, lsl #1
 5370              	.L1053:
 5371 2104 000056E3 		cmp	r6, #0
 5372 2108 00E066E2 		rsb	lr, r6, #0
 5373 210c 610200CA 		bgt	.L1907
 5374 2110 1F0076E3 		cmn	r6, #31
 5375 2114 570200BA 		blt	.L1908
 5376 2118 90EB01EE 		vmov.32	d17[0], lr
 5377 211c 546EA0E1 		asr	r6, r4, lr
 5378 2120 7C219DE5 		ldr	r2, [sp, #380]
 5379 2124 A07431F3 		vshl.u64	d7, d16, d17
 5380 2128 020051E1 		cmp	r1, r2
 5381 212c 02015103 		cmpeq	r1, #-2147483648
 5382 2130 103A17EE 		vmov	r3, s14	@ int
 5383 2134 013043E2 		sub	r3, r3, #1
 5384 2138 C3E0A0E1 		asr	lr, r3, #1
 5385 213c 043003E0 		and	r3, r3, r4
 5386 2140 A4EF8EE0 		add	lr, lr, r4, lsr #31
 5387 2144 9142C5E0 		smull	r4, r5, r1, r2
 5388 2148 0110A003 		moveq	r1, #1
 5389 214c 0010A013 		movne	r1, #0
 5390 2150 0E0053E1 		cmp	r3, lr
 5391 2154 06E0A0D1 		movle	lr, r6
 5392 2158 01E086C2 		addgt	lr, r6, #1
 5393 215c 80619DE5 		ldr	r6, [sp, #384]
 5394 2160 000054E3 		cmp	r4, #0
 5395 2164 0030D5E2 		sbcs	r3, r5, #0
 5396 2168 0121A0A3 		movge	r2, #1073741824
 5397 216c 0721A0B3 		movlt	r2, #-1073741823
 5398 2170 0030A0A3 		movge	r3, #0
 5399 2174 0030E0B3 		mvnlt	r3, #0
 5400 2178 000051E3 		cmp	r1, #0
 5401 217c 0221E013 		mvnne	r2, #-2147483648
 5402 2180 0800001A 		bne	.L1057
 5403 2184 024094E0 		adds	r4, r4, r2
 5404 2188 0350A5E0 		adc	r5, r5, r3
 5405 218c 0030A0E3 		mov	r3, #0
 5406 2190 C52FA0E1 		asr	r2, r5, #31
 5407 2194 0221C2E3 		bic	r2, r2, #-2147483648
 5408 2198 042092E0 		adds	r2, r2, r4
 5409 219c A22FA0E1 		lsr	r2, r2, #31
 5410 21a0 0530A3E0 		adc	r3, r3, r5
 5411 21a4 832082E1 		orr	r2, r2, r3, lsl #1
 5412              	.L1057:
 5413 21a8 000056E3 		cmp	r6, #0
 5414 21ac 001066E2 		rsb	r1, r6, #0
 5415 21b0 480200CA 		bgt	.L1909
 5416 21b4 1F0076E3 		cmn	r6, #31
 5417 21b8 3E0200BA 		blt	.L1910
 5418 21bc 901B02EE 		vmov.32	d18[0], r1
 5419 21c0 5231A0E1 		asr	r3, r2, r1
 5420 21c4 68619DE5 		ldr	r6, [sp, #360]
 5421 21c8 A01472F3 		vshl.u64	d17, d16, d18
 5422 21cc 314B55EC 		vmov	r4, r5, d17	@ int
 5423 21d0 015044E2 		sub	r5, r4, #1
 5424 21d4 C510A0E1 		asr	r1, r5, #1
 5425 21d8 025005E0 		and	r5, r5, r2
 5426 21dc A22F81E0 		add	r2, r1, r2, lsr #31
 5427 21e0 6C119DE5 		ldr	r1, [sp, #364]
 5428 21e4 020055E1 		cmp	r5, r2
 5429 21e8 0320A0D1 		movle	r2, r3
 5430 21ec 012083C2 		addgt	r2, r3, #1
 5431 21f0 0EE082E0 		add	lr, r2, lr
 5432 21f4 9E46C5E0 		smull	r4, r5, lr, r6
 5433 21f8 06005EE1 		cmp	lr, r6
 5434 21fc 02015E03 		cmpeq	lr, #-2147483648
 5435 2200 01E0A003 		moveq	lr, #1
 5436 2204 00E0A013 		movne	lr, #0
 5437 2208 000054E3 		cmp	r4, #0
 5438 220c 0030D5E2 		sbcs	r3, r5, #0
 5439 2210 0121A0A3 		movge	r2, #1073741824
 5440 2214 0721A0B3 		movlt	r2, #-1073741823
 5441 2218 0030A0A3 		movge	r3, #0
 5442 221c 0030E0B3 		mvnlt	r3, #0
 5443 2220 00005EE3 		cmp	lr, #0
 5444 2224 0221E013 		mvnne	r2, #-2147483648
 5445 2228 0800001A 		bne	.L1061
 5446 222c 024094E0 		adds	r4, r4, r2
 5447 2230 0350A5E0 		adc	r5, r5, r3
 5448 2234 0030A0E3 		mov	r3, #0
 5449 2238 C52FA0E1 		asr	r2, r5, #31
 5450 223c 0221C2E3 		bic	r2, r2, #-2147483648
 5451 2240 042092E0 		adds	r2, r2, r4
 5452 2244 A22FA0E1 		lsr	r2, r2, #31
 5453 2248 0530A3E0 		adc	r3, r3, r5
 5454 224c 832082E1 		orr	r2, r2, r3, lsl #1
 5455              	.L1061:
 5456 2250 000051E3 		cmp	r1, #0
 5457 2254 00E061E2 		rsb	lr, r1, #0
 5458 2258 EF0100CA 		bgt	.L1911
 5459 225c 40309DE5 		ldr	r3, [sp, #64]
 5460 2260 1F0071E3 		cmn	r1, #31
 5461 2264 037087E0 		add	r7, r7, r3
 5462 2268 3C309DE5 		ldr	r3, [sp, #60]
 5463 226c 03C08CE0 		add	ip, ip, r3
 5464 2270 F30100BA 		blt	.L1912
 5465 2274 90EB02EE 		vmov.32	d18[0], lr
 5466 2278 523EA0E1 		asr	r3, r2, lr
 5467 227c 64619DE5 		ldr	r6, [sp, #356]
 5468 2280 010080E2 		add	r0, r0, #1
 5469 2284 A01472F3 		vshl.u64	d17, d16, d18
 5470 2288 84E19DE5 		ldr	lr, [sp, #388]
 5471 228c 314B55EC 		vmov	r4, r5, d17	@ int
 5472 2290 011044E2 		sub	r1, r4, #1
 5473 2294 88519DE5 		ldr	r5, [sp, #392]
 5474 2298 C140A0E1 		asr	r4, r1, #1
 5475 229c 021001E0 		and	r1, r1, r2
 5476 22a0 A22F84E0 		add	r2, r4, r2, lsr #31
 5477 22a4 020051E1 		cmp	r1, r2
 5478 22a8 0310A0D1 		movle	r1, r3
 5479 22ac 011083C2 		addgt	r1, r3, #1
 5480 22b0 061081E0 		add	r1, r1, r6
 5481 22b4 0E0051E1 		cmp	r1, lr
 5482 22b8 0E10A0B1 		movlt	r1, lr
 5483 22bc 050051E1 		cmp	r1, r5
 5484 22c0 0510A0A1 		movge	r1, r5
 5485 22c4 0110C8E4 		strb	r1, [r8], #1
 5486              	.L1388:
 5487 22c8 00309DE5 		ldr	r3, [sp]
 5488              	.L1034:
 5489 22cc 030050E1 		cmp	r0, r3
 5490 22d0 3EFFFFBA 		blt	.L1913
 5491 22d4 4C309DE5 		ldr	r3, [sp, #76]
 5492 22d8 019089E2 		add	r9, r9, #1
 5493 22dc 00209DE5 		ldr	r2, [sp]
 5494 22e0 023083E0 		add	r3, r3, r2
 5495 22e4 54209DE5 		ldr	r2, [sp, #84]
 5496 22e8 4C308DE5 		str	r3, [sp, #76]
 5497 22ec 48309DE5 		ldr	r3, [sp, #72]
 5498 22f0 023083E0 		add	r3, r3, r2
 5499 22f4 50209DE5 		ldr	r2, [sp, #80]
 5500 22f8 48308DE5 		str	r3, [sp, #72]
 5501 22fc 44309DE5 		ldr	r3, [sp, #68]
 5502 2300 023083E0 		add	r3, r3, r2
 5503 2304 44308DE5 		str	r3, [sp, #68]
 5504 2308 1DFFFFEA 		b	.L1030
 5505              	.L1893:
 5506 230c 04309DE5 		ldr	r3, [sp, #4]
 5507 2310 0C3093E5 		ldr	r3, [r3, #12]
 5508 2314 ECFFFFEA 		b	.L1034
 5509              	.L1817:
 5510 2318 000053E3 		cmp	r3, #0
 5511 231c 01A0A003 		moveq	r10, #1
 5512 2320 0310A001 		moveq	r1, r3
 5513 2324 0AF8FF0A 		beq	.L1276
 5514 2328 E9F7FFEA 		b	.L1275
 5515              	.L1818:
 5516 232c 000053E3 		cmp	r3, #0
 5517 2330 01E0A003 		moveq	lr, #1
 5518 2334 0310A001 		moveq	r1, r3
 5519 2338 59F8FF0A 		beq	.L1289
 5520 233c 38F8FFEA 		b	.L1288
 5521              	.L1816:
 5522 2340 000053E3 		cmp	r3, #0
 5523 2344 0120A003 		moveq	r2, #1
 5524 2348 0370A001 		moveq	r7, r3
 5525 234c ACF7FF0A 		beq	.L1263
 5526 2350 8BF7FFEA 		b	.L1262
 5527              	.L1840:
 5528 2354 00E093E5 		ldr	lr, [r3]
 5529 2358 00005EE1 		cmp	lr, r0
 5530 235c 0900000A 		beq	.L1171
 5531 2360 01005EE3 		cmp	lr, #1
 5532 2364 00E0A003 		moveq	lr, #0
 5533 2368 18018D05 		streq	r0, [sp, #280]
 5534 236c 28E18D05 		streq	lr, [sp, #296]
 5535 2370 0400000A 		beq	.L1171
 5536 2374 010050E3 		cmp	r0, #1
 5537 2378 B902001A 		bne	.L1163
 5538 237c 0000A0E3 		mov	r0, #0
 5539 2380 38E18DE5 		str	lr, [sp, #312]
 5540 2384 48018DE5 		str	r0, [sp, #328]
 5541              	.L1171:
 5542 2388 040093E5 		ldr	r0, [r3, #4]
 5543 238c 0C0050E1 		cmp	r0, ip
 5544 2390 0900000A 		beq	.L1173
 5545 2394 010050E3 		cmp	r0, #1
 5546 2398 0000A003 		moveq	r0, #0
 5547 239c 1CC18D05 		streq	ip, [sp, #284]
 5548 23a0 2C018D05 		streq	r0, [sp, #300]
 5549 23a4 0400000A 		beq	.L1173
 5550 23a8 01005CE3 		cmp	ip, #1
 5551 23ac AC02001A 		bne	.L1163
 5552 23b0 00C0A0E3 		mov	ip, #0
 5553 23b4 3C018DE5 		str	r0, [sp, #316]
 5554 23b8 4CC18DE5 		str	ip, [sp, #332]
 5555              	.L1173:
 5556 23bc 080093E5 		ldr	r0, [r3, #8]
 5557 23c0 010050E1 		cmp	r0, r1
 5558 23c4 0900000A 		beq	.L1175
 5559 23c8 010050E3 		cmp	r0, #1
 5560 23cc 0000A003 		moveq	r0, #0
 5561 23d0 20118D05 		streq	r1, [sp, #288]
 5562 23d4 30018D05 		streq	r0, [sp, #304]
 5563 23d8 0400000A 		beq	.L1175
 5564 23dc 010051E3 		cmp	r1, #1
 5565 23e0 9F02001A 		bne	.L1163
 5566 23e4 0010A0E3 		mov	r1, #0
 5567 23e8 40018DE5 		str	r0, [sp, #320]
 5568 23ec 50118DE5 		str	r1, [sp, #336]
 5569              	.L1175:
 5570 23f0 0C3093E5 		ldr	r3, [r3, #12]
 5571 23f4 020053E1 		cmp	r3, r2
 5572 23f8 B3F9FF1A 		bne	.L1742
 5573 23fc B9F9FFEA 		b	.L1359
 5574              	.L1424:
 5575 2400 0160A0E1 		mov	r6, r1
 5576 2404 9EFBFFEA 		b	.L1108
 5577              	.L1414:
 5578 2408 0150A0E1 		mov	r5, r1
 5579 240c 48FBFFEA 		b	.L1095
 5580              	.L1404:
 5581 2410 0100A0E1 		mov	r0, r1
 5582 2414 F2FAFFEA 		b	.L1082
 5583              	.L1090:
 5584 2418 00005EE3 		cmp	lr, #0
 5585 241c 01C0A0D3 		movle	ip, #1
 5586 2420 6EFBFFDA 		ble	.L1092
 5587 2424 470F8DE2 		add	r0, sp, #284
 5588 2428 1CFBFFEA 		b	.L1091
 5589              	.L1103:
 5590 242c 00005EE3 		cmp	lr, #0
 5591 2430 0100A0D3 		movle	r0, #1
 5592 2434 BFFBFFDA 		ble	.L1105
 5593 2438 4F5F8DE2 		add	r5, sp, #316
 5594 243c 6BFBFFEA 		b	.L1104
 5595              	.L964:
 5596 2440 08C090E5 		ldr	ip, [r0, #8]
 5597 2444 050056E3 		cmp	r6, #5
 5598 2448 0C2090E5 		ldr	r2, [r0, #12]
 5599 244c 01E0A0E3 		mov	lr, #1
 5600 2450 041090E5 		ldr	r1, [r0, #4]
 5601 2454 40C18DE5 		str	ip, [sp, #320]
 5602 2458 44218DE5 		str	r2, [sp, #324]
 5603 245c 50218DE5 		str	r2, [sp, #336]
 5604 2460 9C0202E0 		mul	r2, ip, r2
 5605 2464 00C090E5 		ldr	ip, [r0]
 5606 2468 3C118DE5 		str	r1, [sp, #316]
 5607 246c 54E18DE5 		str	lr, [sp, #340]
 5608 2470 910201E0 		mul	r1, r1, r2
 5609 2474 4C218DE5 		str	r2, [sp, #332]
 5610 2478 38C18DE5 		str	ip, [sp, #312]
 5611 247c 48118DE5 		str	r1, [sp, #328]
 5612 2480 8C0000CA 		bgt	.L1914
 5613 2484 000056E3 		cmp	r6, #0
 5614 2488 040200DA 		ble	.L970
 5615 248c 002090E5 		ldr	r2, [r0]
 5616 2490 020053E1 		cmp	r3, r2
 5617 2494 0900000A 		beq	.L989
 5618 2498 010053E3 		cmp	r3, #1
 5619 249c 0030A003 		moveq	r3, #0
 5620 24a0 18218D05 		streq	r2, [sp, #280]
 5621 24a4 28318D05 		streq	r3, [sp, #296]
 5622 24a8 0400000A 		beq	.L989
 5623 24ac 010052E3 		cmp	r2, #1
 5624 24b0 0502001A 		bne	.L973
 5625 24b4 0020A0E3 		mov	r2, #0
 5626 24b8 38318DE5 		str	r3, [sp, #312]
 5627 24bc 48218DE5 		str	r2, [sp, #328]
 5628              	.L989:
 5629 24c0 010056E3 		cmp	r6, #1
 5630 24c4 F501000A 		beq	.L970
 5631 24c8 F0309DE5 		ldr	r3, [sp, #240]
 5632 24cc 042090E5 		ldr	r2, [r0, #4]
 5633 24d0 030052E1 		cmp	r2, r3
 5634 24d4 0900000A 		beq	.L992
 5635 24d8 010053E3 		cmp	r3, #1
 5636 24dc 0030A003 		moveq	r3, #0
 5637 24e0 1C218D05 		streq	r2, [sp, #284]
 5638 24e4 2C318D05 		streq	r3, [sp, #300]
 5639 24e8 0400000A 		beq	.L992
 5640 24ec 010052E3 		cmp	r2, #1
 5641 24f0 F501001A 		bne	.L973
 5642 24f4 0020A0E3 		mov	r2, #0
 5643 24f8 3C318DE5 		str	r3, [sp, #316]
 5644 24fc 4C218DE5 		str	r2, [sp, #332]
 5645              	.L992:
 5646 2500 020056E3 		cmp	r6, #2
 5647 2504 E501000A 		beq	.L970
 5648 2508 F4309DE5 		ldr	r3, [sp, #244]
 5649 250c 082090E5 		ldr	r2, [r0, #8]
 5650 2510 030052E1 		cmp	r2, r3
 5651 2514 0900000A 		beq	.L994
 5652 2518 010053E3 		cmp	r3, #1
 5653 251c 0030A003 		moveq	r3, #0
 5654 2520 20218D05 		streq	r2, [sp, #288]
 5655 2524 30318D05 		streq	r3, [sp, #304]
 5656 2528 0400000A 		beq	.L994
 5657 252c 010052E3 		cmp	r2, #1
 5658 2530 E501001A 		bne	.L973
 5659 2534 0020A0E3 		mov	r2, #0
 5660 2538 40318DE5 		str	r3, [sp, #320]
 5661 253c 50218DE5 		str	r2, [sp, #336]
 5662              	.L994:
 5663 2540 030056E3 		cmp	r6, #3
 5664 2544 D501000A 		beq	.L970
 5665 2548 F8309DE5 		ldr	r3, [sp, #248]
 5666 254c 0C2090E5 		ldr	r2, [r0, #12]
 5667 2550 030052E1 		cmp	r2, r3
 5668 2554 0900000A 		beq	.L997
 5669              	.L1004:
 5670 2558 010053E3 		cmp	r3, #1
 5671 255c 0030A003 		moveq	r3, #0
 5672 2560 24218D05 		streq	r2, [sp, #292]
 5673 2564 34318D05 		streq	r3, [sp, #308]
 5674 2568 0400000A 		beq	.L997
 5675 256c 010052E3 		cmp	r2, #1
 5676 2570 0020A003 		moveq	r2, #0
 5677 2574 44318D05 		streq	r3, [sp, #324]
 5678 2578 54218D05 		streq	r2, [sp, #340]
 5679 257c D201001A 		bne	.L973
 5680              	.L997:
 5681 2580 000050E3 		cmp	r0, #0
 5682 2584 18FAFF0A 		beq	.L1356
 5683 2588 FEFFFFEB 		bl	_ZdaPv
 5684 258c 16FAFFEA 		b	.L1356
 5685              	.L1859:
 5686 2590 000051E3 		cmp	r1, #0
 5687 2594 0100A003 		moveq	r0, #1
 5688 2598 0160A001 		moveq	r6, r1
 5689 259c 3AFBFF0A 		beq	.L1107
 5690 25a0 19FBFFEA 		b	.L1106
 5691              	.L1857:
 5692 25a4 000051E3 		cmp	r1, #0
 5693 25a8 01A0A003 		moveq	r10, #1
 5694 25ac 0100A001 		moveq	r0, r1
 5695 25b0 8DFAFF0A 		beq	.L1081
 5696 25b4 6CFAFFEA 		b	.L1080
 5697              	.L1858:
 5698 25b8 000051E3 		cmp	r1, #0
 5699 25bc 01C0A003 		moveq	ip, #1
 5700 25c0 0150A001 		moveq	r5, r1
 5701 25c4 DCFAFF0A 		beq	.L1094
 5702 25c8 BBFAFFEA 		b	.L1093
 5703              	.L1178:
 5704 25cc 0030A0E3 		mov	r3, #0
 5705 25d0 24218DE5 		str	r2, [sp, #292]
 5706 25d4 34318DE5 		str	r3, [sp, #308]
 5707 25d8 42F9FFEA 		b	.L1359
 5708              	.L1847:
 5709 25dc 00E093E5 		ldr	lr, [r3]
 5710 25e0 00005EE1 		cmp	lr, r0
 5711 25e4 0900000A 		beq	.L981
 5712 25e8 01005EE3 		cmp	lr, #1
 5713 25ec 00E0A003 		moveq	lr, #0
 5714 25f0 18018D05 		streq	r0, [sp, #280]
 5715 25f4 28E18D05 		streq	lr, [sp, #296]
 5716 25f8 0400000A 		beq	.L981
 5717 25fc 010050E3 		cmp	r0, #1
 5718 2600 B101001A 		bne	.L973
 5719 2604 0000A0E3 		mov	r0, #0
 5720 2608 38E18DE5 		str	lr, [sp, #312]
 5721 260c 48018DE5 		str	r0, [sp, #328]
 5722              	.L981:
 5723 2610 040093E5 		ldr	r0, [r3, #4]
 5724 2614 0C0050E1 		cmp	r0, ip
 5725 2618 0900000A 		beq	.L983
 5726 261c 010050E3 		cmp	r0, #1
 5727 2620 0000A003 		moveq	r0, #0
 5728 2624 1CC18D05 		streq	ip, [sp, #284]
 5729 2628 2C018D05 		streq	r0, [sp, #300]
 5730 262c 0400000A 		beq	.L983
 5731 2630 01005CE3 		cmp	ip, #1
 5732 2634 A401001A 		bne	.L973
 5733 2638 00C0A0E3 		mov	ip, #0
 5734 263c 3C018DE5 		str	r0, [sp, #316]
 5735 2640 4CC18DE5 		str	ip, [sp, #332]
 5736              	.L983:
 5737 2644 080093E5 		ldr	r0, [r3, #8]
 5738 2648 010050E1 		cmp	r0, r1
 5739 264c 0900000A 		beq	.L985
 5740 2650 010050E3 		cmp	r0, #1
 5741 2654 0000A003 		moveq	r0, #0
 5742 2658 20118D05 		streq	r1, [sp, #288]
 5743 265c 30018D05 		streq	r0, [sp, #304]
 5744 2660 0400000A 		beq	.L985
 5745 2664 010051E3 		cmp	r1, #1
 5746 2668 9701001A 		bne	.L973
 5747 266c 0010A0E3 		mov	r1, #0
 5748 2670 40018DE5 		str	r0, [sp, #320]
 5749 2674 50118DE5 		str	r1, [sp, #336]
 5750              	.L985:
 5751 2678 0C3093E5 		ldr	r3, [r3, #12]
 5752 267c 030052E1 		cmp	r2, r3
 5753 2680 D2F9FF1A 		bne	.L1741
 5754 2684 D8F9FFEA 		b	.L1356
 5755              	.L1162:
 5756 2688 0030A0E3 		mov	r3, #0
 5757 268c 18018DE5 		str	r0, [sp, #280]
 5758 2690 28318DE5 		str	r3, [sp, #296]
 5759 2694 EFF8FFEA 		b	.L1161
 5760              	.L1164:
 5761 2698 0030A0E3 		mov	r3, #0
 5762 269c 1CC18DE5 		str	ip, [sp, #284]
 5763 26a0 2C318DE5 		str	r3, [sp, #300]
 5764 26a4 F7F8FFEA 		b	.L1165
 5765              	.L1166:
 5766 26a8 0030A0E3 		mov	r3, #0
 5767 26ac 20118DE5 		str	r1, [sp, #288]
 5768 26b0 30318DE5 		str	r3, [sp, #304]
 5769 26b4 FFF8FFEA 		b	.L1167
 5770              	.L1914:
 5771 26b8 001093E5 		ldr	r1, [r3]
 5772 26bc 002090E5 		ldr	r2, [r0]
 5773 26c0 020051E1 		cmp	r1, r2
 5774 26c4 0600000A 		beq	.L998
 5775 26c8 010051E3 		cmp	r1, #1
 5776 26cc 0901000A 		beq	.L999
 5777 26d0 010052E3 		cmp	r2, #1
 5778 26d4 7C01001A 		bne	.L973
 5779 26d8 0020A0E3 		mov	r2, #0
 5780 26dc 38118DE5 		str	r1, [sp, #312]
 5781 26e0 48218DE5 		str	r2, [sp, #328]
 5782              	.L998:
 5783 26e4 041093E5 		ldr	r1, [r3, #4]
 5784 26e8 042090E5 		ldr	r2, [r0, #4]
 5785 26ec 020051E1 		cmp	r1, r2
 5786 26f0 0600000A 		beq	.L1000
 5787 26f4 010051E3 		cmp	r1, #1
 5788 26f8 0201000A 		beq	.L1001
 5789 26fc 010052E3 		cmp	r2, #1
 5790 2700 7101001A 		bne	.L973
 5791 2704 0020A0E3 		mov	r2, #0
 5792 2708 3C118DE5 		str	r1, [sp, #316]
 5793 270c 4C218DE5 		str	r2, [sp, #332]
 5794              	.L1000:
 5795 2710 081093E5 		ldr	r1, [r3, #8]
 5796 2714 082090E5 		ldr	r2, [r0, #8]
 5797 2718 020051E1 		cmp	r1, r2
 5798 271c 0600000A 		beq	.L1002
 5799 2720 010051E3 		cmp	r1, #1
 5800 2724 CF00000A 		beq	.L1003
 5801 2728 010052E3 		cmp	r2, #1
 5802 272c 6601001A 		bne	.L973
 5803 2730 0020A0E3 		mov	r2, #0
 5804 2734 40118DE5 		str	r1, [sp, #320]
 5805 2738 50218DE5 		str	r2, [sp, #336]
 5806              	.L1002:
 5807 273c 0C3093E5 		ldr	r3, [r3, #12]
 5808 2740 0C2090E5 		ldr	r2, [r0, #12]
 5809 2744 020053E1 		cmp	r3, r2
 5810 2748 82FFFF1A 		bne	.L1004
 5811 274c 8BFFFFEA 		b	.L997
 5812              	.L1879:
 5813              	.LEHB63:
 5814 2750 FEFFFFEB 		bl	abort
 5815              	.L1501:
 5816              	.L1790:
 5817 2754 08309DE5 		ldr	r3, [sp, #8]
 5818 2758 050053E3 		cmp	r3, #5
 5819 275c 00FCFFDA 		ble	.L1206
 5820 2760 D4009DE5 		ldr	r0, [sp, #212]
 5821 2764 000050E3 		cmp	r0, #0
 5822 2768 FCFBFF1A 		bne	.L1726
 5823 276c FCFBFFEA 		b	.L1206
 5824              	.L1878:
 5825 2770 FEFFFFEB 		bl	abort
 5826              	.L1877:
 5827 2774 FEFFFFEB 		bl	abort
 5828              	.L1876:
 5829 2778 FEFFFFEB 		bl	abort
 5830              	.L1875:
 5831 277c FEFFFFEB 		bl	abort
 5832              	.L1872:
 5833 2780 FEFFFFEB 		bl	abort
 5834              	.LEHE63:
 5835              	.L1890:
 5836              	.LEHB64:
 5837 2784 FEFFFFEB 		bl	abort
 5838              	.L1889:
 5839 2788 FEFFFFEB 		bl	abort
 5840              	.L1888:
 5841 278c FEFFFFEB 		bl	abort
 5842              	.L1887:
 5843 2790 FEFFFFEB 		bl	abort
 5844              	.LEHE64:
 5845              	.L1874:
 5846              	.LEHB65:
 5847 2794 FEFFFFEB 		bl	abort
 5848              	.L1873:
 5849 2798 FEFFFFEB 		bl	abort
 5850              	.L1222:
 5851 279c 60309DE5 		ldr	r3, [sp, #96]
 5852 27a0 01B08BE2 		add	fp, fp, #1
 5853 27a4 78209DE5 		ldr	r2, [sp, #120]
 5854 27a8 023083E0 		add	r3, r3, r2
 5855 27ac 74209DE5 		ldr	r2, [sp, #116]
 5856 27b0 60308DE5 		str	r3, [sp, #96]
 5857 27b4 58309DE5 		ldr	r3, [sp, #88]
 5858 27b8 023083E0 		add	r3, r3, r2
 5859 27bc 70209DE5 		ldr	r2, [sp, #112]
 5860 27c0 58308DE5 		str	r3, [sp, #88]
 5861 27c4 5C309DE5 		ldr	r3, [sp, #92]
 5862 27c8 023083E0 		add	r3, r3, r2
 5863 27cc 5C308DE5 		str	r3, [sp, #92]
 5864 27d0 8DFCFFEA 		b	.L1216
 5865              	.L988:
 5866 27d4 0030A0E3 		mov	r3, #0
 5867 27d8 24218DE5 		str	r2, [sp, #292]
 5868 27dc 34318DE5 		str	r3, [sp, #308]
 5869 27e0 81F9FFEA 		b	.L1356
 5870              	.L976:
 5871 27e4 0030A0E3 		mov	r3, #0
 5872 27e8 20118DE5 		str	r1, [sp, #288]
 5873 27ec 30318DE5 		str	r3, [sp, #304]
 5874 27f0 71F9FFEA 		b	.L977
 5875              	.L974:
 5876 27f4 0030A0E3 		mov	r3, #0
 5877 27f8 1CC18DE5 		str	ip, [sp, #284]
 5878 27fc 2C318DE5 		str	r3, [sp, #300]
 5879 2800 61F9FFEA 		b	.L975
 5880              	.L1885:
 5881 2804 003000E3 		movw	r3, #:lower16:.LC3
 5882 2808 002000E3 		movw	r2, #:lower16:.LANCHOR0
 5883 280c 000000E3 		movw	r0, #:lower16:.LC2
 5884 2810 003040E3 		movt	r3, #:upper16:.LC3
 5885 2814 002040E3 		movt	r2, #:upper16:.LANCHOR0
 5886 2818 000040E3 		movt	r0, #:upper16:.LC2
 5887 281c 671100E3 		movw	r1, #359
 5888 2820 FEFFFFEB 		bl	__assert_func
 5889              	.L1884:
 5890 2824 003000E3 		movw	r3, #:lower16:.LC1
 5891 2828 002000E3 		movw	r2, #:lower16:.LANCHOR0
 5892 282c 000000E3 		movw	r0, #:lower16:.LC2
 5893 2830 003040E3 		movt	r3, #:upper16:.LC1
 5894 2834 002040E3 		movt	r2, #:upper16:.LANCHOR0
 5895 2838 000040E3 		movt	r0, #:upper16:.LC2
 5896 283c 661100E3 		movw	r1, #358
 5897 2840 FEFFFFEB 		bl	__assert_func
 5898              	.L1880:
 5899 2844 003000E3 		movw	r3, #:lower16:.LC1
 5900 2848 002000E3 		movw	r2, #:lower16:.LANCHOR0
 5901 284c 000000E3 		movw	r0, #:lower16:.LC2
 5902 2850 003040E3 		movt	r3, #:upper16:.LC1
 5903 2854 002040E3 		movt	r2, #:upper16:.LANCHOR0
 5904 2858 000040E3 		movt	r0, #:upper16:.LC2
 5905 285c 661100E3 		movw	r1, #358
 5906 2860 FEFFFFEB 		bl	__assert_func
 5907              	.L1882:
 5908 2864 003000E3 		movw	r3, #:lower16:.LC1
 5909 2868 002000E3 		movw	r2, #:lower16:.LANCHOR0
 5910 286c 000000E3 		movw	r0, #:lower16:.LC2
 5911 2870 003040E3 		movt	r3, #:upper16:.LC1
 5912 2874 002040E3 		movt	r2, #:upper16:.LANCHOR0
 5913 2878 000040E3 		movt	r0, #:upper16:.LC2
 5914 287c 661100E3 		movw	r1, #358
 5915 2880 FEFFFFEB 		bl	__assert_func
 5916              	.L1881:
 5917 2884 003000E3 		movw	r3, #:lower16:.LC3
 5918 2888 002000E3 		movw	r2, #:lower16:.LANCHOR0
 5919 288c 000000E3 		movw	r0, #:lower16:.LC2
 5920 2890 003040E3 		movt	r3, #:upper16:.LC3
 5921 2894 002040E3 		movt	r2, #:upper16:.LANCHOR0
 5922 2898 000040E3 		movt	r0, #:upper16:.LC2
 5923 289c 671100E3 		movw	r1, #359
 5924 28a0 FEFFFFEB 		bl	__assert_func
 5925              	.L1886:
 5926 28a4 FEFFFFEB 		bl	abort
 5927              	.L1883:
 5928 28a8 003000E3 		movw	r3, #:lower16:.LC3
 5929 28ac 002000E3 		movw	r2, #:lower16:.LANCHOR0
 5930 28b0 000000E3 		movw	r0, #:lower16:.LC2
 5931 28b4 003040E3 		movt	r3, #:upper16:.LC3
 5932 28b8 002040E3 		movt	r2, #:upper16:.LANCHOR0
 5933 28bc 000040E3 		movt	r0, #:upper16:.LC2
 5934 28c0 671100E3 		movw	r1, #359
 5935 28c4 FEFFFFEB 		bl	__assert_func
 5936              	.LEHE65:
 5937              	.L1870:
 5938              	.LEHB66:
 5939 28c8 FEFFFFEB 		bl	abort
 5940              	.LEHE66:
 5941              	.L1214:
 5942 28cc 050053E3 		cmp	r3, #5
 5943 28d0 040000DA 		ble	.L1249
 5944 28d4 04309DE5 		ldr	r3, [sp, #4]
 5945 28d8 000053E3 		cmp	r3, #0
 5946 28dc 0100000A 		beq	.L1249
 5947 28e0 0300A0E1 		mov	r0, r3
 5948 28e4 FEFFFFEB 		bl	_ZdaPv
 5949              	.L1249:
 5950 28e8 B8309DE5 		ldr	r3, [sp, #184]
 5951 28ec 050053E3 		cmp	r3, #5
 5952 28f0 030000DA 		ble	.L1251
 5953 28f4 BC009DE5 		ldr	r0, [sp, #188]
 5954 28f8 000050E3 		cmp	r0, #0
 5955 28fc 0000000A 		beq	.L1251
 5956 2900 FEFFFFEB 		bl	_ZdaPv
 5957              	.L1251:
 5958 2904 A0309DE5 		ldr	r3, [sp, #160]
 5959 2908 050053E3 		cmp	r3, #5
 5960 290c 030000DA 		ble	.L1254
 5961 2910 A4009DE5 		ldr	r0, [sp, #164]
 5962 2914 000050E3 		cmp	r0, #0
 5963 2918 0000000A 		beq	.L1254
 5964 291c FEFFFFEB 		bl	_ZdaPv
 5965              	.L1254:
 5966 2920 88309DE5 		ldr	r3, [sp, #136]
 5967 2924 050053E3 		cmp	r3, #5
 5968 2928 BBF5FFDA 		ble	.L1628
 5969 292c 8C009DE5 		ldr	r0, [sp, #140]
 5970 2930 000050E3 		cmp	r0, #0
 5971 2934 C4F7FF1A 		bne	.L1729
 5972 2938 B7F5FFEA 		b	.L1628
 5973              	.L972:
 5974 293c 0030A0E3 		mov	r3, #0
 5975 2940 18018DE5 		str	r0, [sp, #280]
 5976 2944 28318DE5 		str	r3, [sp, #296]
 5977 2948 03F9FFEA 		b	.L971
 5978              	.L1189:
 5979 294c 0010A0E3 		mov	r1, #0
 5980 2950 18218DE5 		str	r2, [sp, #280]
 5981 2954 28118DE5 		str	r1, [sp, #296]
 5982 2958 A7FBFFEA 		b	.L1188
 5983              	.L1191:
 5984 295c 0010A0E3 		mov	r1, #0
 5985 2960 1C218DE5 		str	r2, [sp, #284]
 5986 2964 2C118DE5 		str	r1, [sp, #300]
 5987 2968 AEFBFFEA 		b	.L1190
 5988              	.L1193:
 5989 296c 0010A0E3 		mov	r1, #0
 5990 2970 20218DE5 		str	r2, [sp, #288]
 5991 2974 30118DE5 		str	r1, [sp, #304]
 5992 2978 B5FBFFEA 		b	.L1192
 5993              	.L1218:
 5994 297c 64309DE5 		ldr	r3, [sp, #100]
 5995 2980 01A08AE2 		add	r10, r10, #1
 5996 2984 7C209DE5 		ldr	r2, [sp, #124]
 5997 2988 023083E0 		add	r3, r3, r2
 5998 298c 80209DE5 		ldr	r2, [sp, #128]
 5999 2990 64308DE5 		str	r3, [sp, #100]
 6000 2994 68309DE5 		ldr	r3, [sp, #104]
 6001 2998 023083E0 		add	r3, r3, r2
 6002 299c 84209DE5 		ldr	r2, [sp, #132]
 6003 29a0 68308DE5 		str	r3, [sp, #104]
 6004 29a4 6C309DE5 		ldr	r3, [sp, #108]
 6005 29a8 023083E0 		add	r3, r3, r2
 6006 29ac 6C308DE5 		str	r3, [sp, #108]
 6007 29b0 05FCFFEA 		b	.L1212
 6008              	.L1906:
 6009              	.LEHB67:
 6010 29b4 FEFFFFEB 		bl	abort
 6011              	.L1905:
 6012 29b8 FEFFFFEB 		bl	abort
 6013              	.L1904:
 6014 29bc FEFFFFEB 		bl	abort
 6015              	.L1903:
 6016 29c0 FEFFFFEB 		bl	abort
 6017              	.L1902:
 6018 29c4 FEFFFFEB 		bl	abort
 6019              	.L1901:
 6020 29c8 FEFFFFEB 		bl	abort
 6021              	.L1896:
 6022 29cc FEFFFFEB 		bl	abort
 6023              	.L1895:
 6024 29d0 FEFFFFEB 		bl	abort
 6025              	.L1900:
 6026 29d4 FEFFFFEB 		bl	abort
 6027              	.L1899:
 6028 29d8 FEFFFFEB 		bl	abort
 6029              	.L1898:
 6030 29dc FEFFFFEB 		bl	abort
 6031              	.L1897:
 6032 29e0 FEFFFFEB 		bl	abort
 6033              	.L1032:
 6034 29e4 6C309DE5 		ldr	r3, [sp, #108]
 6035 29e8 01B08BE2 		add	fp, fp, #1
 6036 29ec 78209DE5 		ldr	r2, [sp, #120]
 6037 29f0 023083E0 		add	r3, r3, r2
 6038 29f4 74209DE5 		ldr	r2, [sp, #116]
 6039 29f8 6C308DE5 		str	r3, [sp, #108]
 6040 29fc 68309DE5 		ldr	r3, [sp, #104]
 6041 2a00 023083E0 		add	r3, r3, r2
 6042 2a04 70209DE5 		ldr	r2, [sp, #112]
 6043 2a08 68308DE5 		str	r3, [sp, #104]
 6044 2a0c 64309DE5 		ldr	r3, [sp, #100]
 6045 2a10 023083E0 		add	r3, r3, r2
 6046 2a14 64308DE5 		str	r3, [sp, #100]
 6047 2a18 48FDFFEA 		b	.L1026
 6048              	.L1911:
 6049 2a1c 003000E3 		movw	r3, #:lower16:.LC1
 6050 2a20 002000E3 		movw	r2, #:lower16:.LANCHOR0
 6051 2a24 000000E3 		movw	r0, #:lower16:.LC2
 6052 2a28 003040E3 		movt	r3, #:upper16:.LC1
 6053 2a2c 002040E3 		movt	r2, #:upper16:.LANCHOR0
 6054 2a30 000040E3 		movt	r0, #:upper16:.LC2
 6055 2a34 661100E3 		movw	r1, #358
 6056 2a38 FEFFFFEB 		bl	__assert_func
 6057              	.LEHE67:
 6058              	.L1894:
 6059              	.LEHB68:
 6060 2a3c FEFFFFEB 		bl	abort
 6061              	.LEHE68:
 6062              	.L1497:
 6063 2a40 43FFFFEA 		b	.L1790
 6064              	.L1912:
 6065 2a44 003000E3 		movw	r3, #:lower16:.LC3
 6066 2a48 002000E3 		movw	r2, #:lower16:.LANCHOR0
 6067 2a4c 000000E3 		movw	r0, #:lower16:.LC2
 6068 2a50 003040E3 		movt	r3, #:upper16:.LC3
 6069 2a54 002040E3 		movt	r2, #:upper16:.LANCHOR0
 6070 2a58 000040E3 		movt	r0, #:upper16:.LC2
 6071 2a5c 671100E3 		movw	r1, #359
 6072              	.LEHB69:
 6073 2a60 FEFFFFEB 		bl	__assert_func
 6074              	.L1892:
 6075 2a64 FEFFFFEB 		bl	abort
 6076              	.L1003:
 6077 2a68 0010A0E3 		mov	r1, #0
 6078 2a6c 20218DE5 		str	r2, [sp, #288]
 6079 2a70 30118DE5 		str	r1, [sp, #304]
 6080 2a74 30FFFFEA 		b	.L1002
 6081              	.L1908:
 6082 2a78 003000E3 		movw	r3, #:lower16:.LC3
 6083 2a7c 002000E3 		movw	r2, #:lower16:.LANCHOR0
 6084 2a80 000000E3 		movw	r0, #:lower16:.LC2
 6085 2a84 003040E3 		movt	r3, #:upper16:.LC3
 6086 2a88 002040E3 		movt	r2, #:upper16:.LANCHOR0
 6087 2a8c 000040E3 		movt	r0, #:upper16:.LC2
 6088 2a90 671100E3 		movw	r1, #359
 6089 2a94 FEFFFFEB 		bl	__assert_func
 6090              	.L1907:
 6091 2a98 003000E3 		movw	r3, #:lower16:.LC1
 6092 2a9c 002000E3 		movw	r2, #:lower16:.LANCHOR0
 6093 2aa0 000000E3 		movw	r0, #:lower16:.LC2
 6094 2aa4 003040E3 		movt	r3, #:upper16:.LC1
 6095 2aa8 002040E3 		movt	r2, #:upper16:.LANCHOR0
 6096 2aac 000040E3 		movt	r0, #:upper16:.LC2
 6097 2ab0 661100E3 		movw	r1, #358
 6098 2ab4 FEFFFFEB 		bl	__assert_func
 6099              	.L1910:
 6100 2ab8 003000E3 		movw	r3, #:lower16:.LC3
 6101 2abc 002000E3 		movw	r2, #:lower16:.LANCHOR0
 6102 2ac0 000000E3 		movw	r0, #:lower16:.LC2
 6103 2ac4 003040E3 		movt	r3, #:upper16:.LC3
 6104 2ac8 002040E3 		movt	r2, #:upper16:.LANCHOR0
 6105 2acc 000040E3 		movt	r0, #:upper16:.LC2
 6106 2ad0 671100E3 		movw	r1, #359
 6107 2ad4 FEFFFFEB 		bl	__assert_func
 6108              	.L1909:
 6109 2ad8 003000E3 		movw	r3, #:lower16:.LC1
 6110 2adc 002000E3 		movw	r2, #:lower16:.LANCHOR0
 6111 2ae0 000000E3 		movw	r0, #:lower16:.LC2
 6112 2ae4 003040E3 		movt	r3, #:upper16:.LC1
 6113 2ae8 002040E3 		movt	r2, #:upper16:.LANCHOR0
 6114 2aec 000040E3 		movt	r0, #:upper16:.LC2
 6115 2af0 661100E3 		movw	r1, #358
 6116 2af4 FEFFFFEB 		bl	__assert_func
 6117              	.LEHE69:
 6118              	.L999:
 6119 2af8 0010A0E3 		mov	r1, #0
 6120 2afc 18218DE5 		str	r2, [sp, #280]
 6121 2b00 28118DE5 		str	r1, [sp, #296]
 6122 2b04 F6FEFFEA 		b	.L998
 6123              	.L1001:
 6124 2b08 0010A0E3 		mov	r1, #0
 6125 2b0c 1C218DE5 		str	r2, [sp, #284]
 6126 2b10 2C118DE5 		str	r1, [sp, #300]
 6127 2b14 FDFEFFEA 		b	.L1000
 6128              	.L1028:
 6129 2b18 60309DE5 		ldr	r3, [sp, #96]
 6130 2b1c 01A08AE2 		add	r10, r10, #1
 6131 2b20 7C209DE5 		ldr	r2, [sp, #124]
 6132 2b24 023083E0 		add	r3, r3, r2
 6133 2b28 84209DE5 		ldr	r2, [sp, #132]
 6134 2b2c 60308DE5 		str	r3, [sp, #96]
 6135 2b30 5C309DE5 		ldr	r3, [sp, #92]
 6136 2b34 023083E0 		add	r3, r3, r2
 6137 2b38 80209DE5 		ldr	r2, [sp, #128]
 6138 2b3c 5C308DE5 		str	r3, [sp, #92]
 6139 2b40 58309DE5 		ldr	r3, [sp, #88]
 6140 2b44 023083E0 		add	r3, r3, r2
 6141 2b48 58308DE5 		str	r3, [sp, #88]
 6142 2b4c EBFCFFEA 		b	.L1022
 6143              	.L1833:
 6144 2b50 003000E3 		movw	r3, #:lower16:.LC3
 6145 2b54 002000E3 		movw	r2, #:lower16:.LANCHOR0
 6146 2b58 000000E3 		movw	r0, #:lower16:.LC2
 6147 2b5c 003040E3 		movt	r3, #:upper16:.LC3
 6148 2b60 002040E3 		movt	r2, #:upper16:.LANCHOR0
 6149 2b64 000040E3 		movt	r0, #:upper16:.LC2
 6150 2b68 671100E3 		movw	r1, #359
 6151              	.LEHB70:
 6152 2b6c FEFFFFEB 		bl	__assert_func
 6153              	.L1491:
 6154              	.L1781:
 6155 2b70 38319DE5 		ldr	r3, [sp, #312]
 6156 2b74 050053E3 		cmp	r3, #5
 6157 2b78 030000DA 		ble	.L1348
 6158 2b7c 3C019DE5 		ldr	r0, [sp, #316]
 6159 2b80 000050E3 		cmp	r0, #0
 6160 2b84 0000000A 		beq	.L1348
 6161 2b88 FEFFFFEB 		bl	_ZdaPv
 6162              	.L1348:
 6163 2b8c 18319DE5 		ldr	r3, [sp, #280]
 6164 2b90 050053E3 		cmp	r3, #5
 6165 2b94 030000DA 		ble	.L1350
 6166 2b98 1C019DE5 		ldr	r0, [sp, #284]
 6167 2b9c 000050E3 		cmp	r0, #0
 6168 2ba0 0000000A 		beq	.L1350
 6169 2ba4 FEFFFFEB 		bl	_ZdaPv
 6170              	.L1350:
 6171 2ba8 00319DE5 		ldr	r3, [sp, #256]
 6172 2bac 050053E3 		cmp	r3, #5
 6173 2bb0 00FBFFDA 		ble	.L1351
 6174 2bb4 04019DE5 		ldr	r0, [sp, #260]
 6175 2bb8 000050E3 		cmp	r0, #0
 6176 2bbc FCFAFF1A 		bne	.L1740
 6177 2bc0 FCFAFFEA 		b	.L1351
 6178              	.L1832:
 6179 2bc4 003000E3 		movw	r3, #:lower16:.LC1
 6180 2bc8 002000E3 		movw	r2, #:lower16:.LANCHOR0
 6181 2bcc 000000E3 		movw	r0, #:lower16:.LC2
 6182 2bd0 003040E3 		movt	r3, #:upper16:.LC1
 6183 2bd4 002040E3 		movt	r2, #:upper16:.LANCHOR0
 6184 2bd8 000040E3 		movt	r0, #:upper16:.LC2
 6185 2bdc 661100E3 		movw	r1, #358
 6186 2be0 FEFFFFEB 		bl	__assert_func
 6187              	.L1831:
 6188 2be4 003000E3 		movw	r3, #:lower16:.LC3
 6189 2be8 002000E3 		movw	r2, #:lower16:.LANCHOR0
 6190 2bec 000000E3 		movw	r0, #:lower16:.LC2
 6191 2bf0 003040E3 		movt	r3, #:upper16:.LC3
 6192 2bf4 002040E3 		movt	r2, #:upper16:.LANCHOR0
 6193 2bf8 000040E3 		movt	r0, #:upper16:.LC2
 6194 2bfc 671100E3 		movw	r1, #359
 6195 2c00 FEFFFFEB 		bl	__assert_func
 6196              	.L1830:
 6197 2c04 003000E3 		movw	r3, #:lower16:.LC1
 6198 2c08 002000E3 		movw	r2, #:lower16:.LANCHOR0
 6199 2c0c 000000E3 		movw	r0, #:lower16:.LC2
 6200 2c10 003040E3 		movt	r3, #:upper16:.LC1
 6201 2c14 002040E3 		movt	r2, #:upper16:.LANCHOR0
 6202 2c18 000040E3 		movt	r0, #:upper16:.LC2
 6203 2c1c 661100E3 		movw	r1, #358
 6204 2c20 FEFFFFEB 		bl	__assert_func
 6205              	.L1829:
 6206 2c24 003000E3 		movw	r3, #:lower16:.LC3
 6207 2c28 002000E3 		movw	r2, #:lower16:.LANCHOR0
 6208 2c2c 000000E3 		movw	r0, #:lower16:.LC2
 6209 2c30 003040E3 		movt	r3, #:upper16:.LC3
 6210 2c34 002040E3 		movt	r2, #:upper16:.LANCHOR0
 6211 2c38 000040E3 		movt	r0, #:upper16:.LC2
 6212 2c3c 671100E3 		movw	r1, #359
 6213 2c40 FEFFFFEB 		bl	__assert_func
 6214              	.L1828:
 6215 2c44 003000E3 		movw	r3, #:lower16:.LC1
 6216 2c48 002000E3 		movw	r2, #:lower16:.LANCHOR0
 6217 2c4c 000000E3 		movw	r0, #:lower16:.LC2
 6218 2c50 003040E3 		movt	r3, #:upper16:.LC1
 6219 2c54 002040E3 		movt	r2, #:upper16:.LANCHOR0
 6220 2c58 000040E3 		movt	r0, #:upper16:.LC2
 6221 2c5c 661100E3 		movw	r1, #358
 6222 2c60 FEFFFFEB 		bl	__assert_func
 6223              	.LEHE70:
 6224              	.L1838:
 6225              	.LEHB71:
 6226 2c64 FEFFFFEB 		bl	abort
 6227              	.LEHE71:
 6228              	.L1307:
 6229              	.LEHB72:
 6230 2c68 FEFFFFEB 		bl	abort
 6231              	.LEHE72:
 6232              	.L1498:
 6233 2c6c B5FAFFEA 		b	.L1724
 6234              	.L1481:
 6235 2c70 C2FAFFEA 		b	.L1342
 6236              	.L1843:
 6237              	.LEHB73:
 6238 2c74 FEFFFFEB 		bl	abort
 6239              	.LEHE73:
 6240              	.L1480:
 6241 2c78 C7FAFFEA 		b	.L1344
 6242              	.L1842:
 6243              	.LEHB74:
 6244 2c7c FEFFFFEB 		bl	abort
 6245              	.LEHE74:
 6246              	.L1827:
 6247              	.LEHB75:
 6248 2c80 FEFFFFEB 		bl	abort
 6249              	.L1826:
 6250 2c84 FEFFFFEB 		bl	abort
 6251              	.L1825:
 6252 2c88 FEFFFFEB 		bl	abort
 6253              	.L1824:
 6254 2c8c FEFFFFEB 		bl	abort
 6255              	.L1823:
 6256 2c90 FEFFFFEB 		bl	abort
 6257              	.L1822:
 6258 2c94 FEFFFFEB 		bl	abort
 6259              	.L1821:
 6260 2c98 FEFFFFEB 		bl	abort
 6261              	.L1820:
 6262 2c9c FEFFFFEB 		bl	abort
 6263              	.LEHE75:
 6264              	.L970:
 6265              	.LEHB76:
 6266 2ca0 FEFFFFEB 		bl	abort
 6267              	.LEHE76:
 6268              	.L1025:
 6269              	.LEHB77:
 6270 2ca4 FEFFFFEB 		bl	abort
 6271              	.L1492:
 6272              	.L1202:
 6273 2ca8 050058E3 		cmp	r8, #5
 6274 2cac A6FAFFDA 		ble	.L1149
 6275 2cb0 04019DE5 		ldr	r0, [sp, #260]
 6276 2cb4 000050E3 		cmp	r0, #0
 6277 2cb8 A3FAFF0A 		beq	.L1149
 6278 2cbc FEFFFFEB 		bl	_ZdaPv
 6279 2cc0 A1FAFFEA 		b	.L1149
 6280              	.L1891:
 6281 2cc4 FEFFFFEB 		bl	abort
 6282              	.L1848:
 6283 2cc8 FEFFFFEB 		bl	abort
 6284              	.LEHE77:
 6285              	.L973:
 6286              	.LEHB78:
 6287 2ccc FEFFFFEB 		bl	abort
 6288              	.LEHE78:
 6289              	.L1841:
 6290              	.LEHB79:
 6291 2cd0 FEFFFFEB 		bl	abort
 6292              	.L1215:
 6293 2cd4 FEFFFFEB 		bl	abort
 6294              	.LEHE79:
 6295              	.L1029:
 6296              	.LEHB80:
 6297 2cd8 FEFFFFEB 		bl	abort
 6298              	.LEHE80:
 6299              	.L1814:
 6300              	.LEHB81:
 6301 2cdc FEFFFFEB 		bl	abort
 6302              	.LEHE81:
 6303              	.L1489:
 6304 2ce0 B0FFFFEA 		b	.L1350
 6305              	.L1813:
 6306              	.LEHB82:
 6307 2ce4 FEFFFFEB 		bl	abort
 6308              	.LEHE82:
 6309              	.L1478:
 6310              	.L1328:
 6311 2ce8 18319DE5 		ldr	r3, [sp, #280]
 6312 2cec 050053E3 		cmp	r3, #5
 6313 2cf0 B0FAFFDA 		ble	.L1351
 6314 2cf4 1C019DE5 		ldr	r0, [sp, #284]
 6315 2cf8 000050E3 		cmp	r0, #0
 6316 2cfc ACFAFF1A 		bne	.L1740
 6317 2d00 ACFAFFEA 		b	.L1351
 6318              	.L1835:
 6319              	.LEHB83:
 6320 2d04 FEFFFFEB 		bl	abort
 6321              	.LEHE83:
 6322              	.L1160:
 6323              	.LEHB84:
 6324 2d08 FEFFFFEB 		bl	abort
 6325              	.L1155:
 6326 2d0c FEFFFFEB 		bl	abort
 6327              	.LEHE84:
 6328              	.L1152:
 6329              	.LEHB85:
 6330 2d10 FEFFFFEB 		bl	abort
 6331              	.LEHE85:
 6332              	.L1493:
 6333 2d14 E3FFFFEA 		b	.L1202
 6334              	.L1500:
 6335              	.L1795:
 6336 2d18 00819DE5 		ldr	r8, [sp, #256]
 6337 2d1c E1FFFFEA 		b	.L1202
 6338              	.L1855:
 6339              	.LEHB86:
 6340 2d20 FEFFFFEB 		bl	abort
 6341              	.LEHE86:
 6342              	.L1479:
 6343 2d24 38319DE5 		ldr	r3, [sp, #312]
 6344 2d28 050053E3 		cmp	r3, #5
 6345 2d2c EDFFFFDA 		ble	.L1328
 6346 2d30 3C019DE5 		ldr	r0, [sp, #316]
 6347 2d34 000050E3 		cmp	r0, #0
 6348 2d38 EAFFFF0A 		beq	.L1328
 6349 2d3c FEFFFFEB 		bl	_ZdaPv
 6350 2d40 E8FFFFEA 		b	.L1328
 6351              	.L1485:
 6352 2d44 89FFFFEA 		b	.L1781
 6353              	.L1483:
 6354 2d48 96FFFFEA 		b	.L1350
 6355              	.L1849:
 6356              	.LEHB87:
 6357 2d4c FEFFFFEB 		bl	abort
 6358              	.LEHE87:
 6359              	.L1854:
 6360              	.LEHB88:
 6361 2d50 FEFFFFEB 		bl	abort
 6362              	.L1853:
 6363 2d54 FEFFFFEB 		bl	abort
 6364              	.LEHE88:
 6365              	.L1219:
 6366              	.LEHB89:
 6367 2d58 FEFFFFEB 		bl	abort
 6368              	.L1869:
 6369 2d5c FEFFFFEB 		bl	abort
 6370              	.LEHE89:
 6371              	.L1815:
 6372              	.LEHB90:
 6373 2d60 FEFFFFEB 		bl	abort
 6374              	.LEHE90:
 6375              	.L1490:
 6376 2d64 88FFFFEA 		b	.L1348
 6377              	.L1845:
 6378              	.LEHB91:
 6379 2d68 FEFFFFEB 		bl	abort
 6380              	.LEHE91:
 6381              	.L1819:
 6382              	.LEHB92:
 6383 2d6c FEFFFFEB 		bl	abort
 6384              	.LEHE92:
 6385              	.L1494:
 6386 2d70 74FAFFEA 		b	.L1724
 6387              	.L1837:
 6388              	.LEHB93:
 6389 2d74 FEFFFFEB 		bl	abort
 6390              	.LEHE93:
 6391              	.L1487:
 6392 2d78 80FAFFEA 		b	.L1342
 6393              	.L1836:
 6394              	.LEHB94:
 6395 2d7c FEFFFFEB 		bl	abort
 6396              	.LEHE94:
 6397              	.L1486:
 6398 2d80 85FAFFEA 		b	.L1344
 6399              	.L1866:
 6400 2d84 003000E3 		movw	r3, #:lower16:.LC3
 6401 2d88 002000E3 		movw	r2, #:lower16:.LANCHOR0
 6402 2d8c 000000E3 		movw	r0, #:lower16:.LC2
 6403 2d90 003040E3 		movt	r3, #:upper16:.LC3
 6404 2d94 002040E3 		movt	r2, #:upper16:.LANCHOR0
 6405 2d98 000040E3 		movt	r0, #:upper16:.LC2
 6406 2d9c 671100E3 		movw	r1, #359
 6407              	.LEHB95:
 6408 2da0 FEFFFFEB 		bl	__assert_func
 6409              	.L1861:
 6410 2da4 003000E3 		movw	r3, #:lower16:.LC1
 6411 2da8 002000E3 		movw	r2, #:lower16:.LANCHOR0
 6412 2dac 000000E3 		movw	r0, #:lower16:.LC2
 6413 2db0 003040E3 		movt	r3, #:upper16:.LC1
 6414 2db4 002040E3 		movt	r2, #:upper16:.LANCHOR0
 6415 2db8 000040E3 		movt	r0, #:upper16:.LC2
 6416 2dbc 661100E3 		movw	r1, #358
 6417 2dc0 FEFFFFEB 		bl	__assert_func
 6418              	.L1117:
 6419 2dc4 FEFFFFEB 		bl	abort
 6420              	.L1860:
 6421 2dc8 FEFFFFEB 		bl	abort
 6422              	.L1865:
 6423 2dcc 003000E3 		movw	r3, #:lower16:.LC1
 6424 2dd0 002000E3 		movw	r2, #:lower16:.LANCHOR0
 6425 2dd4 000000E3 		movw	r0, #:lower16:.LC2
 6426 2dd8 003040E3 		movt	r3, #:upper16:.LC1
 6427 2ddc 002040E3 		movt	r2, #:upper16:.LANCHOR0
 6428 2de0 000040E3 		movt	r0, #:upper16:.LC2
 6429 2de4 661100E3 		movw	r1, #358
 6430 2de8 FEFFFFEB 		bl	__assert_func
 6431              	.L1864:
 6432 2dec 003000E3 		movw	r3, #:lower16:.LC3
 6433 2df0 002000E3 		movw	r2, #:lower16:.LANCHOR0
 6434 2df4 000000E3 		movw	r0, #:lower16:.LC2
 6435 2df8 003040E3 		movt	r3, #:upper16:.LC3
 6436 2dfc 002040E3 		movt	r2, #:upper16:.LANCHOR0
 6437 2e00 000040E3 		movt	r0, #:upper16:.LC2
 6438 2e04 671100E3 		movw	r1, #359
 6439 2e08 FEFFFFEB 		bl	__assert_func
 6440              	.L1863:
 6441 2e0c 003000E3 		movw	r3, #:lower16:.LC1
 6442 2e10 002000E3 		movw	r2, #:lower16:.LANCHOR0
 6443 2e14 000000E3 		movw	r0, #:lower16:.LC2
 6444 2e18 003040E3 		movt	r3, #:upper16:.LC1
 6445 2e1c 002040E3 		movt	r2, #:upper16:.LANCHOR0
 6446 2e20 000040E3 		movt	r0, #:upper16:.LC2
 6447 2e24 661100E3 		movw	r1, #358
 6448 2e28 FEFFFFEB 		bl	__assert_func
 6449              	.L1862:
 6450 2e2c 003000E3 		movw	r3, #:lower16:.LC3
 6451 2e30 002000E3 		movw	r2, #:lower16:.LANCHOR0
 6452 2e34 000000E3 		movw	r0, #:lower16:.LC2
 6453 2e38 003040E3 		movt	r3, #:upper16:.LC3
 6454 2e3c 002040E3 		movt	r2, #:upper16:.LANCHOR0
 6455 2e40 000040E3 		movt	r0, #:upper16:.LC2
 6456 2e44 671100E3 		movw	r1, #359
 6457 2e48 FEFFFFEB 		bl	__assert_func
 6458              	.L1852:
 6459 2e4c FEFFFFEB 		bl	abort
 6460              	.L1851:
 6461 2e50 FEFFFFEB 		bl	abort
 6462              	.LEHE95:
 6463              	.L1484:
 6464 2e54 4CFFFFEA 		b	.L1348
 6465              	.L1850:
 6466              	.LEHB96:
 6467 2e58 FEFFFFEB 		bl	abort
 6468              	.LEHE96:
 6469              	.L965:
 6470              	.LEHB97:
 6471 2e5c FEFFFFEB 		bl	abort
 6472              	.LEHE97:
 6473              	.L962:
 6474              	.LEHB98:
 6475 2e60 FEFFFFEB 		bl	abort
 6476              	.LEHE98:
 6477              	.L1163:
 6478              	.LEHB99:
 6479 2e64 FEFFFFEB 		bl	abort
 6480              	.LEHE99:
 6481              	.L1844:
 6482              	.LEHB100:
 6483 2e68 FEFFFFEB 		bl	abort
 6484              	.LEHE100:
 6485              	.L1496:
 6486 2e6c A9FFFFEA 		b	.L1795
 6487              		.personality	__gxx_personality_v0
 6488              		.handlerdata
 6489              	.LLSDA9032:
 6490 0008 FF       		.byte	0xff
 6491 0009 FF       		.byte	0xff
 6492 000a 01       		.byte	0x1
 6493 000b E702     		.uleb128 .LLSDACSE9032-.LLSDACSB9032
 6494              	.LLSDACSB9032:
 6495 000d 9001     		.uleb128 .LEHB41-.LFB9032
 6496 000f 04       		.uleb128 .LEHE41-.LEHB41
 6497 0010 00       		.uleb128 0
 6498 0011 00       		.uleb128 0
 6499 0012 9C01     		.uleb128 .LEHB42-.LFB9032
 6500 0014 04       		.uleb128 .LEHE42-.LEHB42
 6501 0015 E859     		.uleb128 .L1478-.LFB9032
 6502 0017 00       		.uleb128 0
 6503 0018 AC01     		.uleb128 .LEHB43-.LFB9032
 6504 001a 04       		.uleb128 .LEHE43-.LEHB43
 6505 001b A45A     		.uleb128 .L1479-.LFB9032
 6506 001d 00       		.uleb128 0
 6507 001e 8802     		.uleb128 .LEHB44-.LFB9032
 6508 0020 04       		.uleb128 .LEHE44-.LEHB44
 6509 0021 00       		.uleb128 0
 6510 0022 00       		.uleb128 0
 6511 0023 A402     		.uleb128 .LEHB45-.LFB9032
 6512 0025 04       		.uleb128 .LEHE45-.LEHB45
 6513 0026 E059     		.uleb128 .L1489-.LFB9032
 6514 0028 00       		.uleb128 0
 6515 0029 C002     		.uleb128 .LEHB46-.LFB9032
 6516 002b 04       		.uleb128 .LEHE46-.LEHB46
 6517 002c E45A     		.uleb128 .L1490-.LFB9032
 6518 002e 00       		.uleb128 0
 6519 002f D810     		.uleb128 .LEHB47-.LFB9032
 6520 0031 04       		.uleb128 .LEHE47-.LEHB47
 6521 0032 00       		.uleb128 0
 6522 0033 00       		.uleb128 0
 6523 0034 F410     		.uleb128 .LEHB48-.LFB9032
 6524 0036 04       		.uleb128 .LEHE48-.LEHB48
 6525 0037 805B     		.uleb128 .L1486-.LFB9032
 6526 0039 00       		.uleb128 0
 6527 003a 9011     		.uleb128 .LEHB49-.LFB9032
 6528 003c 04       		.uleb128 .LEHE49-.LEHB49
 6529 003d F85A     		.uleb128 .L1487-.LFB9032
 6530 003f 00       		.uleb128 0
 6531 0040 F011     		.uleb128 .LEHB50-.LFB9032
 6532 0042 04       		.uleb128 .LEHE50-.LEHB50
 6533 0043 BC2F     		.uleb128 .L1488-.LFB9032
 6534 0045 00       		.uleb128 0
 6535 0046 E012     		.uleb128 .LEHB51-.LFB9032
 6536 0048 04       		.uleb128 .LEHE51-.LEHB51
 6537 0049 C82E     		.uleb128 .L1499-.LFB9032
 6538 004b 00       		.uleb128 0
 6539 004c D816     		.uleb128 .LEHB52-.LFB9032
 6540 004e 04       		.uleb128 .LEHE52-.LEHB52
 6541 004f BC2F     		.uleb128 .L1488-.LFB9032
 6542 0051 00       		.uleb128 0
 6543 0052 E816     		.uleb128 .LEHB53-.LFB9032
 6544 0054 04       		.uleb128 .LEHE53-.LEHB53
 6545 0055 00       		.uleb128 0
 6546 0056 00       		.uleb128 0
 6547 0057 8417     		.uleb128 .LEHB54-.LFB9032
 6548 0059 04       		.uleb128 .LEHE54-.LEHB54
 6549 005a F858     		.uleb128 .L1480-.LFB9032
 6550 005c 00       		.uleb128 0
 6551 005d A017     		.uleb128 .LEHB55-.LFB9032
 6552 005f 04       		.uleb128 .LEHE55-.LEHB55
 6553 0060 F058     		.uleb128 .L1481-.LFB9032
 6554 0062 00       		.uleb128 0
 6555 0063 8018     		.uleb128 .LEHB56-.LFB9032
 6556 0065 04       		.uleb128 .LEHE56-.LEHB56
 6557 0066 C42F     		.uleb128 .L1482-.LFB9032
 6558 0068 00       		.uleb128 0
 6559 0069 F018     		.uleb128 .LEHB57-.LFB9032
 6560 006b 04       		.uleb128 .LEHE57-.LEHB57
 6561 006c C02F     		.uleb128 .L1495-.LFB9032
 6562 006e 00       		.uleb128 0
 6563 006f DC1C     		.uleb128 .LEHB58-.LFB9032
 6564 0071 04       		.uleb128 .LEHE58-.LEHB58
 6565 0072 C42F     		.uleb128 .L1482-.LFB9032
 6566 0074 00       		.uleb128 0
 6567 0075 B81D     		.uleb128 .LEHB59-.LFB9032
 6568 0077 04       		.uleb128 .LEHE59-.LEHB59
 6569 0078 00       		.uleb128 0
 6570 0079 00       		.uleb128 0
 6571 007a D41D     		.uleb128 .LEHB60-.LFB9032
 6572 007c 04       		.uleb128 .LEHE60-.LEHB60
 6573 007d C85A     		.uleb128 .L1483-.LFB9032
 6574 007f 00       		.uleb128 0
 6575 0080 F41D     		.uleb128 .LEHB61-.LFB9032
 6576 0082 04       		.uleb128 .LEHE61-.LEHB61
 6577 0083 D45C     		.uleb128 .L1484-.LFB9032
 6578 0085 00       		.uleb128 0
 6579 0086 B82F     		.uleb128 .LEHB62-.LFB9032
 6580 0088 04       		.uleb128 .LEHE62-.LEHB62
 6581 0089 00       		.uleb128 0
 6582 008a 00       		.uleb128 0
 6583 008b D04E     		.uleb128 .LEHB63-.LFB9032
 6584 008d 34       		.uleb128 .LEHE63-.LEHB63
 6585 008e D44E     		.uleb128 .L1501-.LFB9032
 6586 0090 00       		.uleb128 0
 6587 0091 844F     		.uleb128 .LEHB64-.LFB9032
 6588 0093 10       		.uleb128 .LEHE64-.LEHB64
 6589 0094 BC2F     		.uleb128 .L1488-.LFB9032
 6590 0096 00       		.uleb128 0
 6591 0097 944F     		.uleb128 .LEHB65-.LFB9032
 6592 0099 B402     		.uleb128 .LEHE65-.LEHB65
 6593 009b D44E     		.uleb128 .L1501-.LFB9032
 6594 009d 00       		.uleb128 0
 6595 009e C851     		.uleb128 .LEHB66-.LFB9032
 6596 00a0 04       		.uleb128 .LEHE66-.LEHB66
 6597 00a1 BC2F     		.uleb128 .L1488-.LFB9032
 6598 00a3 00       		.uleb128 0
 6599 00a4 B453     		.uleb128 .LEHB67-.LFB9032
 6600 00a6 8801     		.uleb128 .LEHE67-.LEHB67
 6601 00a8 C42F     		.uleb128 .L1482-.LFB9032
 6602 00aa 00       		.uleb128 0
 6603 00ab BC54     		.uleb128 .LEHB68-.LFB9032
 6604 00ad 04       		.uleb128 .LEHE68-.LEHB68
 6605 00ae C054     		.uleb128 .L1497-.LFB9032
 6606 00b0 00       		.uleb128 0
 6607 00b1 E054     		.uleb128 .LEHB69-.LFB9032
 6608 00b3 9801     		.uleb128 .LEHE69-.LEHB69
 6609 00b5 C42F     		.uleb128 .L1482-.LFB9032
 6610 00b7 00       		.uleb128 0
 6611 00b8 EC56     		.uleb128 .LEHB70-.LFB9032
 6612 00ba F801     		.uleb128 .LEHE70-.LEHB70
 6613 00bc F056     		.uleb128 .L1491-.LFB9032
 6614 00be 00       		.uleb128 0
 6615 00bf E458     		.uleb128 .LEHB71-.LFB9032
 6616 00c1 04       		.uleb128 .LEHE71-.LEHB71
 6617 00c2 EC58     		.uleb128 .L1498-.LFB9032
 6618 00c4 00       		.uleb128 0
 6619 00c5 E858     		.uleb128 .LEHB72-.LFB9032
 6620 00c7 04       		.uleb128 .LEHE72-.LEHB72
 6621 00c8 F056     		.uleb128 .L1491-.LFB9032
 6622 00ca 00       		.uleb128 0
 6623 00cb F458     		.uleb128 .LEHB73-.LFB9032
 6624 00cd 04       		.uleb128 .LEHE73-.LEHB73
 6625 00ce F058     		.uleb128 .L1481-.LFB9032
 6626 00d0 00       		.uleb128 0
 6627 00d1 FC58     		.uleb128 .LEHB74-.LFB9032
 6628 00d3 04       		.uleb128 .LEHE74-.LEHB74
 6629 00d4 F858     		.uleb128 .L1480-.LFB9032
 6630 00d6 00       		.uleb128 0
 6631 00d7 8059     		.uleb128 .LEHB75-.LFB9032
 6632 00d9 20       		.uleb128 .LEHE75-.LEHB75
 6633 00da F056     		.uleb128 .L1491-.LFB9032
 6634 00dc 00       		.uleb128 0
 6635 00dd A059     		.uleb128 .LEHB76-.LFB9032
 6636 00df 04       		.uleb128 .LEHE76-.LEHB76
 6637 00e0 A859     		.uleb128 .L1492-.LFB9032
 6638 00e2 00       		.uleb128 0
 6639 00e3 A459     		.uleb128 .LEHB77-.LFB9032
 6640 00e5 28       		.uleb128 .LEHE77-.LEHB77
 6641 00e6 C42F     		.uleb128 .L1482-.LFB9032
 6642 00e8 00       		.uleb128 0
 6643 00e9 CC59     		.uleb128 .LEHB78-.LFB9032
 6644 00eb 04       		.uleb128 .LEHE78-.LEHB78
 6645 00ec A859     		.uleb128 .L1492-.LFB9032
 6646 00ee 00       		.uleb128 0
 6647 00ef D059     		.uleb128 .LEHB79-.LFB9032
 6648 00f1 08       		.uleb128 .LEHE79-.LEHB79
 6649 00f2 BC2F     		.uleb128 .L1488-.LFB9032
 6650 00f4 00       		.uleb128 0
 6651 00f5 D859     		.uleb128 .LEHB80-.LFB9032
 6652 00f7 04       		.uleb128 .LEHE80-.LEHB80
 6653 00f8 C42F     		.uleb128 .L1482-.LFB9032
 6654 00fa 00       		.uleb128 0
 6655 00fb DC59     		.uleb128 .LEHB81-.LFB9032
 6656 00fd 04       		.uleb128 .LEHE81-.LEHB81
 6657 00fe E45A     		.uleb128 .L1490-.LFB9032
 6658 0100 00       		.uleb128 0
 6659 0101 E459     		.uleb128 .LEHB82-.LFB9032
 6660 0103 04       		.uleb128 .LEHE82-.LEHB82
 6661 0104 E059     		.uleb128 .L1489-.LFB9032
 6662 0106 00       		.uleb128 0
 6663 0107 845A     		.uleb128 .LEHB83-.LFB9032
 6664 0109 04       		.uleb128 .LEHE83-.LEHB83
 6665 010a 805B     		.uleb128 .L1486-.LFB9032
 6666 010c 00       		.uleb128 0
 6667 010d 885A     		.uleb128 .LEHB84-.LFB9032
 6668 010f 08       		.uleb128 .LEHE84-.LEHB84
 6669 0110 945A     		.uleb128 .L1493-.LFB9032
 6670 0112 00       		.uleb128 0
 6671 0113 905A     		.uleb128 .LEHB85-.LFB9032
 6672 0115 04       		.uleb128 .LEHE85-.LEHB85
 6673 0116 985A     		.uleb128 .L1500-.LFB9032
 6674 0118 00       		.uleb128 0
 6675 0119 A05A     		.uleb128 .LEHB86-.LFB9032
 6676 011b 04       		.uleb128 .LEHE86-.LEHB86
 6677 011c C45A     		.uleb128 .L1485-.LFB9032
 6678 011e 00       		.uleb128 0
 6679 011f CC5A     		.uleb128 .LEHB87-.LFB9032
 6680 0121 04       		.uleb128 .LEHE87-.LEHB87
 6681 0122 C85A     		.uleb128 .L1483-.LFB9032
 6682 0124 00       		.uleb128 0
 6683 0125 D05A     		.uleb128 .LEHB88-.LFB9032
 6684 0127 08       		.uleb128 .LEHE88-.LEHB88
 6685 0128 C45A     		.uleb128 .L1485-.LFB9032
 6686 012a 00       		.uleb128 0
 6687 012b D85A     		.uleb128 .LEHB89-.LFB9032
 6688 012d 08       		.uleb128 .LEHE89-.LEHB89
 6689 012e BC2F     		.uleb128 .L1488-.LFB9032
 6690 0130 00       		.uleb128 0
