   1              		.cpu cortex-a9
   2              		.eabi_attribute 28, 1
   3              		.eabi_attribute 20, 1
   4              		.eabi_attribute 21, 1
   5              		.eabi_attribute 23, 3
   6              		.eabi_attribute 24, 1
   7              		.eabi_attribute 25, 1
   8              		.eabi_attribute 26, 1
   9              		.eabi_attribute 30, 2
  10              		.eabi_attribute 34, 0
  11              		.eabi_attribute 18, 4
  12              		.file	"arg_min_max.cc"
  13              		.section	.text._ZN6tflite3ops5micro16Register_ARG_MAXEv,"ax",%progbits
  14              		.align	2
  15              		.global	_ZN6tflite3ops5micro16Register_ARG_MAXEv
  16              		.syntax unified
  17              		.arm
  18              		.fpu neon
  20              	_ZN6tflite3ops5micro16Register_ARG_MAXEv:
  21              		.fnstart
  22              	.LFB1769:
  23              		@ args = 0, pretend = 0, frame = 0
  24              		@ frame_needed = 0, uses_anonymous_args = 0
  25 0000 10402DE9 		push	{r4, lr}
  26 0004 2020A0E3 		mov	r2, #32
  27 0008 0010A0E3 		mov	r1, #0
  28 000c 0040A0E1 		mov	r4, r0
  29 0010 FEFFFFEB 		bl	memset
  30 0014 003000E3 		movw	r3, #:lower16:_ZN6tflite3ops5micro11arg_min_max10ArgMaxEvalEP13TfLiteContextP10TfLiteNode
  31 0018 0400A0E1 		mov	r0, r4
  32 001c 003040E3 		movt	r3, #:upper16:_ZN6tflite3ops5micro11arg_min_max10ArgMaxEvalEP13TfLiteContextP10TfLiteNode
  33 0020 0C3084E5 		str	r3, [r4, #12]
  34 0024 1080BDE8 		pop	{r4, pc}
  35              		.cantunwind
  36              		.fnend
  38              		.section	.text._ZN6tflite3ops5micro16Register_ARG_MINEv,"ax",%progbits
  39              		.align	2
  40              		.global	_ZN6tflite3ops5micro16Register_ARG_MINEv
  41              		.syntax unified
  42              		.arm
  43              		.fpu neon
  45              	_ZN6tflite3ops5micro16Register_ARG_MINEv:
  46              		.fnstart
  47              	.LFB1770:
  48              		@ args = 0, pretend = 0, frame = 0
  49              		@ frame_needed = 0, uses_anonymous_args = 0
  50 0000 10402DE9 		push	{r4, lr}
  51 0004 2020A0E3 		mov	r2, #32
  52 0008 0010A0E3 		mov	r1, #0
  53 000c 0040A0E1 		mov	r4, r0
  54 0010 FEFFFFEB 		bl	memset
  55 0014 003000E3 		movw	r3, #:lower16:_ZN6tflite3ops5micro11arg_min_max10ArgMinEvalEP13TfLiteContextP10TfLiteNode
  56 0018 0400A0E1 		mov	r0, r4
  57 001c 003040E3 		movt	r3, #:upper16:_ZN6tflite3ops5micro11arg_min_max10ArgMinEvalEP13TfLiteContextP10TfLiteNode
  58 0020 0C3084E5 		str	r3, [r4, #12]
  59 0024 1080BDE8 		pop	{r4, pc}
  60              		.cantunwind
  61              		.fnend
  63              		.section	.text._ZN6tflite13reference_ops9ArgMinMaxIfllNS_3ops5micro7GreaterEEEvRKNS_12RuntimeShape
  64              		.align	2
  65              		.weak	_ZN6tflite13reference_ops9ArgMinMaxIfllNS_3ops5micro7GreaterEEEvRKNS_12RuntimeShapeEPKT_PKT1
  66              		.syntax unified
  67              		.arm
  68              		.fpu neon
  70              	_ZN6tflite13reference_ops9ArgMinMaxIfllNS_3ops5micro7GreaterEEEvRKNS_12RuntimeShapeEPKT_PKT1_S7_PT0
  71              		.fnstart
  72              	.LFB1976:
  73              		@ args = 8, pretend = 0, frame = 0
  74              		@ frame_needed = 0, uses_anonymous_args = 0
  75 0000 F84F2DE9 		push	{r3, r4, r5, r6, r7, r8, r9, r10, fp, lr}
  76              		.save {r3, r4, r5, r6, r7, r8, r9, r10, fp, lr}
  77 0004 004090E5 		ldr	r4, [r0]
  78 0008 000054E3 		cmp	r4, #0
  79 000c 3A0000DA 		ble	.L7
  80 0010 0060A0E1 		mov	r6, r0
  81 0014 000093E5 		ldr	r0, [r3]
  82 0018 015044E2 		sub	r5, r4, #1
  83 001c 000055E1 		cmp	r5, r0
  84 0020 3500001A 		bne	.L7
  85 0024 002092E5 		ldr	r2, [r2]
  86 0028 000052E3 		cmp	r2, #0
  87 002c 190100BA 		blt	.L145
  88              	.L8:
  89 0030 020054E1 		cmp	r4, r2
  90 0034 300000DA 		ble	.L7
  91 0038 050054E3 		cmp	r4, #5
  92 003c A60000CA 		bgt	.L146
  93 0040 020186E0 		add	r0, r6, r2, lsl #2
  94 0044 000052E3 		cmp	r2, #0
  95 0048 04C090E5 		ldr	ip, [r0, #4]
  96 004c 7801000A 		beq	.L10
  97 0050 050055E3 		cmp	r5, #5
  98 0054 290000CA 		bgt	.L14
  99 0058 000055E3 		cmp	r5, #0
 100 005c 047096E5 		ldr	r7, [r6, #4]
 101 0060 2500000A 		beq	.L7
 102 0064 040093E5 		ldr	r0, [r3, #4]
 103 0068 000057E1 		cmp	r7, r0
 104 006c 2200001A 		bne	.L7
 105 0070 010052E3 		cmp	r2, #1
 106 0074 3B01000A 		beq	.L15
 107 0078 010054E3 		cmp	r4, #1
 108 007c 1E00000A 		beq	.L7
 109 0080 010055E3 		cmp	r5, #1
 110 0084 080096E5 		ldr	r0, [r6, #8]
 111 0088 1B00000A 		beq	.L7
 112 008c 08E093E5 		ldr	lr, [r3, #8]
 113 0090 0E0050E1 		cmp	r0, lr
 114 0094 1800001A 		bne	.L7
 115 0098 020052E3 		cmp	r2, #2
 116 009c 900707E0 		mul	r7, r0, r7
 117 00a0 3001000A 		beq	.L15
 118 00a4 020054E3 		cmp	r4, #2
 119 00a8 1300000A 		beq	.L7
 120 00ac 020055E3 		cmp	r5, #2
 121 00b0 0C0096E5 		ldr	r0, [r6, #12]
 122 00b4 1000000A 		beq	.L7
 123 00b8 0CE093E5 		ldr	lr, [r3, #12]
 124 00bc 0E0050E1 		cmp	r0, lr
 125 00c0 0D00001A 		bne	.L7
 126 00c4 030052E3 		cmp	r2, #3
 127 00c8 900707E0 		mul	r7, r0, r7
 128 00cc 2501000A 		beq	.L15
 129 00d0 030054E3 		cmp	r4, #3
 130 00d4 0800000A 		beq	.L7
 131 00d8 030055E3 		cmp	r5, #3
 132 00dc 100096E5 		ldr	r0, [r6, #16]
 133 00e0 0500000A 		beq	.L7
 134 00e4 10E093E5 		ldr	lr, [r3, #16]
 135 00e8 0E0050E1 		cmp	r0, lr
 136 00ec 0200001A 		bne	.L7
 137 00f0 040052E3 		cmp	r2, #4
 138 00f4 900707E0 		mul	r7, r0, r7
 139 00f8 1A01000A 		beq	.L15
 140              	.L7:
 141 00fc FEFFFFEB 		bl	abort
 142              	.L14:
 143 0100 040093E5 		ldr	r0, [r3, #4]
 144 0104 047096E5 		ldr	r7, [r6, #4]
 145 0108 00E090E5 		ldr	lr, [r0]
 146 010c 0E0057E1 		cmp	r7, lr
 147 0110 F9FFFF1A 		bne	.L7
 148 0114 010052E3 		cmp	r2, #1
 149 0118 1A00000A 		beq	.L16
 150 011c 010054E3 		cmp	r4, #1
 151 0120 F5FFFF0A 		beq	.L7
 152 0124 048090E5 		ldr	r8, [r0, #4]
 153 0128 08E096E5 		ldr	lr, [r6, #8]
 154 012c 08005EE1 		cmp	lr, r8
 155 0130 F1FFFF1A 		bne	.L7
 156 0134 020052E3 		cmp	r2, #2
 157 0138 9E0707E0 		mul	r7, lr, r7
 158 013c 1100000A 		beq	.L16
 159 0140 020054E3 		cmp	r4, #2
 160 0144 ECFFFF0A 		beq	.L7
 161 0148 088090E5 		ldr	r8, [r0, #8]
 162 014c 0CE096E5 		ldr	lr, [r6, #12]
 163 0150 08005EE1 		cmp	lr, r8
 164 0154 E8FFFF1A 		bne	.L7
 165 0158 030052E3 		cmp	r2, #3
 166 015c 9E0707E0 		mul	r7, lr, r7
 167 0160 0800000A 		beq	.L16
 168 0164 030054E3 		cmp	r4, #3
 169 0168 E3FFFF0A 		beq	.L7
 170 016c 0CE090E5 		ldr	lr, [r0, #12]
 171 0170 100096E5 		ldr	r0, [r6, #16]
 172 0174 0E0050E1 		cmp	r0, lr
 173 0178 DFFFFF1A 		bne	.L7
 174 017c 040052E3 		cmp	r2, #4
 175 0180 900707E0 		mul	r7, r0, r7
 176 0184 DCFFFF1A 		bne	.L7
 177              	.L16:
 178 0188 012082E2 		add	r2, r2, #1
 179 018c 040052E1 		cmp	r2, r4
 180 0190 F00000AA 		bge	.L51
 181              	.L23:
 182 0194 010042E2 		sub	r0, r2, #1
 183 0198 02E186E0 		add	lr, r6, r2, lsl #2
 184 019c 000055E1 		cmp	r5, r0
 185 01a0 04809EE5 		ldr	r8, [lr, #4]
 186 01a4 D4FFFFDA 		ble	.L7
 187 01a8 043093E5 		ldr	r3, [r3, #4]
 188 01ac 00E1A0E1 		lsl	lr, r0, #2
 189 01b0 000193E7 		ldr	r0, [r3, r0, lsl #2]
 190 01b4 080050E1 		cmp	r0, r8
 191 01b8 CFFFFF1A 		bne	.L7
 192 01bc 019082E2 		add	r9, r2, #1
 193 01c0 090054E1 		cmp	r4, r9
 194 01c4 E50000DA 		ble	.L45
 195 01c8 098186E0 		add	r8, r6, r9, lsl #2
 196 01cc 020055E1 		cmp	r5, r2
 197 01d0 048098E5 		ldr	r8, [r8, #4]
 198 01d4 C8FFFFDA 		ble	.L7
 199 01d8 0E3083E0 		add	r3, r3, lr
 200 01dc 04E093E5 		ldr	lr, [r3, #4]
 201 01e0 08005EE1 		cmp	lr, r8
 202 01e4 C4FFFF1A 		bne	.L7
 203 01e8 028082E2 		add	r8, r2, #2
 204 01ec 900E0EE0 		mul	lr, r0, lr
 205 01f0 080054E1 		cmp	r4, r8
 206 01f4 120000DA 		ble	.L27
 207 01f8 090055E1 		cmp	r5, r9
 208 01fc 080186E0 		add	r0, r6, r8, lsl #2
 209 0200 049090E5 		ldr	r9, [r0, #4]
 210 0204 BCFFFFDA 		ble	.L7
 211 0208 080093E5 		ldr	r0, [r3, #8]
 212 020c 090050E1 		cmp	r0, r9
 213 0210 B9FFFF1A 		bne	.L7
 214 0214 032082E2 		add	r2, r2, #3
 215 0218 900E0EE0 		mul	lr, r0, lr
 216 021c 020054E1 		cmp	r4, r2
 217 0220 070000DA 		ble	.L27
 218 0224 022186E0 		add	r2, r6, r2, lsl #2
 219 0228 080055E1 		cmp	r5, r8
 220 022c 042092E5 		ldr	r2, [r2, #4]
 221 0230 B1FFFFDA 		ble	.L7
 222 0234 0C3093E5 		ldr	r3, [r3, #12]
 223 0238 020053E1 		cmp	r3, r2
 224 023c AEFFFF1A 		bne	.L7
 225              	.L140:
 226 0240 920E0EE0 		mul	lr, r2, lr
 227              	.L27:
 228 0244 000057E3 		cmp	r7, #0
 229 0248 910000DA 		ble	.L147
 230              	.L21:
 231 024c 00005EE3 		cmp	lr, #0
 232 0250 BF0000DA 		ble	.L148
 233              	.L34:
 234 0254 9C0E0BE0 		mul	fp, ip, lr
 235 0258 0E01A0E1 		lsl	r0, lr, #2
 236 025c 28909DE5 		ldr	r9, [sp, #40]
 237 0260 0180A0E1 		mov	r8, r1
 238 0264 046040E2 		sub	r6, r0, #4
 239 0268 00A0A0E3 		mov	r10, #0
 240 026c 0BB1A0E1 		lsl	fp, fp, #2
 241              	.L30:
 242 0270 005088E0 		add	r5, r8, r0
 243 0274 0940A0E1 		mov	r4, r9
 244 0278 08E0A0E1 		mov	lr, r8
 245              	.L29:
 246 027c 01005CE3 		cmp	ip, #1
 247 0280 017AFEEC 		vldmia.32	lr!, {s15}
 248 0284 AD0000DA 		ble	.L46
 249 0288 0E2086E0 		add	r2, r6, lr
 250 028c 0130A0E3 		mov	r3, #1
 251 0290 0010A0E3 		mov	r1, #0
 252              	.L32:
 253 0294 007A92ED 		vldr.32	s14, [r2]
 254 0298 002082E0 		add	r2, r2, r0
 255 029c C77AF4EE 		vcmpe.f32	s15, s14
 256 02a0 10FAF1EE 		vmrs	APSR_nzcv, FPSCR
 257 02a4 0310A041 		movmi	r1, r3
 258 02a8 013083E2 		add	r3, r3, #1
 259 02ac 477AF04E 		vmovmi.f32	s15, s14
 260 02b0 0C0053E1 		cmp	r3, ip
 261 02b4 F6FFFF1A 		bne	.L32
 262 02b8 05005EE1 		cmp	lr, r5
 263 02bc 041084E4 		str	r1, [r4], #4
 264 02c0 EDFFFF1A 		bne	.L29
 265              	.L149:
 266 02c4 01A08AE2 		add	r10, r10, #1
 267 02c8 0B8088E0 		add	r8, r8, fp
 268 02cc 07005AE1 		cmp	r10, r7
 269 02d0 009089E0 		add	r9, r9, r0
 270 02d4 E5FFFFBA 		blt	.L30
 271 02d8 F88FBDE8 		pop	{r3, r4, r5, r6, r7, r8, r9, r10, fp, pc}
 272              	.L146:
 273 02dc 040096E5 		ldr	r0, [r6, #4]
 274 02e0 000052E3 		cmp	r2, #0
 275 02e4 02C190E7 		ldr	ip, [r0, r2, lsl #2]
 276 02e8 D100000A 		beq	.L10
 277 02ec 050055E3 		cmp	r5, #5
 278 02f0 6B0000CA 		bgt	.L17
 279 02f4 000055E3 		cmp	r5, #0
 280 02f8 007090E5 		ldr	r7, [r0]
 281 02fc 7EFFFF0A 		beq	.L7
 282 0300 04E093E5 		ldr	lr, [r3, #4]
 283 0304 0E0057E1 		cmp	r7, lr
 284 0308 7BFFFF1A 		bne	.L7
 285 030c 010052E3 		cmp	r2, #1
 286 0310 2300000A 		beq	.L18
 287 0314 010055E3 		cmp	r5, #1
 288 0318 04E090E5 		ldr	lr, [r0, #4]
 289 031c 76FFFF0A 		beq	.L7
 290 0320 088093E5 		ldr	r8, [r3, #8]
 291 0324 08005EE1 		cmp	lr, r8
 292 0328 73FFFF1A 		bne	.L7
 293 032c 020052E3 		cmp	r2, #2
 294 0330 9E0707E0 		mul	r7, lr, r7
 295 0334 1A00000A 		beq	.L18
 296 0338 020055E3 		cmp	r5, #2
 297 033c 08E090E5 		ldr	lr, [r0, #8]
 298 0340 6DFFFF0A 		beq	.L7
 299 0344 0C8093E5 		ldr	r8, [r3, #12]
 300 0348 08005EE1 		cmp	lr, r8
 301 034c 6AFFFF1A 		bne	.L7
 302 0350 030052E3 		cmp	r2, #3
 303 0354 9E0707E0 		mul	r7, lr, r7
 304 0358 1100000A 		beq	.L18
 305 035c 030055E3 		cmp	r5, #3
 306 0360 0CE090E5 		ldr	lr, [r0, #12]
 307 0364 64FFFF0A 		beq	.L7
 308 0368 108093E5 		ldr	r8, [r3, #16]
 309 036c 08005EE1 		cmp	lr, r8
 310 0370 61FFFF1A 		bne	.L7
 311 0374 040052E3 		cmp	r2, #4
 312 0378 9E0707E0 		mul	r7, lr, r7
 313 037c 0800000A 		beq	.L18
 314 0380 050055E3 		cmp	r5, #5
 315 0384 100090E5 		ldr	r0, [r0, #16]
 316 0388 5BFFFF1A 		bne	.L7
 317 038c 14E093E5 		ldr	lr, [r3, #20]
 318 0390 0E0050E1 		cmp	r0, lr
 319 0394 58FFFF1A 		bne	.L7
 320 0398 050052E3 		cmp	r2, #5
 321 039c 900707E0 		mul	r7, r0, r7
 322 03a0 55FFFF1A 		bne	.L7
 323              	.L18:
 324 03a4 012082E2 		add	r2, r2, #1
 325 03a8 020054E1 		cmp	r4, r2
 326 03ac 690000DA 		ble	.L51
 327              	.L36:
 328 03b0 046096E5 		ldr	r6, [r6, #4]
 329 03b4 019042E2 		sub	r9, r2, #1
 330 03b8 090055E1 		cmp	r5, r9
 331 03bc 0281A0E1 		lsl	r8, r2, #2
 332 03c0 020196E7 		ldr	r0, [r6, r2, lsl #2]
 333 03c4 4CFFFFDA 		ble	.L7
 334 03c8 099183E0 		add	r9, r3, r9, lsl #2
 335 03cc 04E099E5 		ldr	lr, [r9, #4]
 336 03d0 0E0050E1 		cmp	r0, lr
 337 03d4 48FFFF1A 		bne	.L7
 338 03d8 019082E2 		add	r9, r2, #1
 339 03dc 090054E1 		cmp	r4, r9
 340 03e0 5E0000DA 		ble	.L45
 341 03e4 020055E1 		cmp	r5, r2
 342 03e8 086086E0 		add	r6, r6, r8
 343 03ec 04E096E5 		ldr	lr, [r6, #4]
 344 03f0 41FFFFDA 		ble	.L7
 345 03f4 088083E0 		add	r8, r3, r8
 346 03f8 048098E5 		ldr	r8, [r8, #4]
 347 03fc 08005EE1 		cmp	lr, r8
 348 0400 3DFFFF1A 		bne	.L7
 349 0404 028082E2 		add	r8, r2, #2
 350 0408 9E000EE0 		mul	lr, lr, r0
 351 040c 080054E1 		cmp	r4, r8
 352 0410 8BFFFFDA 		ble	.L27
 353 0414 090055E1 		cmp	r5, r9
 354 0418 08A096E5 		ldr	r10, [r6, #8]
 355 041c 36FFFFDA 		ble	.L7
 356 0420 099183E0 		add	r9, r3, r9, lsl #2
 357 0424 040099E5 		ldr	r0, [r9, #4]
 358 0428 00005AE1 		cmp	r10, r0
 359 042c 32FFFF1A 		bne	.L7
 360 0430 030082E2 		add	r0, r2, #3
 361 0434 9A0E0EE0 		mul	lr, r10, lr
 362 0438 000054E1 		cmp	r4, r0
 363 043c 80FFFFDA 		ble	.L27
 364 0440 080055E1 		cmp	r5, r8
 365 0444 0C9096E5 		ldr	r9, [r6, #12]
 366 0448 2BFFFFDA 		ble	.L7
 367 044c 088183E0 		add	r8, r3, r8, lsl #2
 368 0450 048098E5 		ldr	r8, [r8, #4]
 369 0454 080059E1 		cmp	r9, r8
 370 0458 27FFFF1A 		bne	.L7
 371 045c 042082E2 		add	r2, r2, #4
 372 0460 990E0EE0 		mul	lr, r9, lr
 373 0464 020054E1 		cmp	r4, r2
 374 0468 75FFFFDA 		ble	.L27
 375 046c 050050E1 		cmp	r0, r5
 376 0470 102096E5 		ldr	r2, [r6, #16]
 377 0474 20FFFFAA 		bge	.L7
 378 0478 003183E0 		add	r3, r3, r0, lsl #2
 379 047c 043093E5 		ldr	r3, [r3, #4]
 380 0480 020053E1 		cmp	r3, r2
 381 0484 1CFFFF1A 		bne	.L7
 382 0488 000057E3 		cmp	r7, #0
 383 048c 930E0EE0 		mul	lr, r3, lr
 384 0490 6DFFFFCA 		bgt	.L21
 385              	.L147:
 386 0494 F88FBDE8 		pop	{r3, r4, r5, r6, r7, r8, r9, r10, fp, pc}
 387              	.L145:
 388 0498 042092E0 		adds	r2, r2, r4
 389 049c E3FEFF5A 		bpl	.L8
 390 04a0 15FFFFEA 		b	.L7
 391              	.L17:
 392 04a4 04E040E2 		sub	lr, r0, #4
 393 04a8 0170A0E3 		mov	r7, #1
 394 04ac 0000A0E3 		mov	r0, #0
 395 04b0 010000EA 		b	.L13
 396              	.L137:
 397 04b4 040050E1 		cmp	r0, r4
 398 04b8 0FFFFF0A 		beq	.L7
 399              	.L13:
 400 04bc 050050E1 		cmp	r0, r5
 401 04c0 0490BEE5 		ldr	r9, [lr, #4]!
 402 04c4 0CFFFF0A 		beq	.L7
 403 04c8 048093E5 		ldr	r8, [r3, #4]
 404 04cc 008198E7 		ldr	r8, [r8, r0, lsl #2]
 405 04d0 090058E1 		cmp	r8, r9
 406 04d4 08FFFF1A 		bne	.L7
 407 04d8 010080E2 		add	r0, r0, #1
 408 04dc 980707E0 		mul	r7, r8, r7
 409 04e0 020050E1 		cmp	r0, r2
 410 04e4 F2FFFF1A 		bne	.L137
 411 04e8 012080E2 		add	r2, r0, #1
 412 04ec 040052E1 		cmp	r2, r4
 413 04f0 180000AA 		bge	.L51
 414              	.L25:
 415 04f4 040096E5 		ldr	r0, [r6, #4]
 416 04f8 0780E0E3 		mvn	r8, #7
 417 04fc 01E0A0E3 		mov	lr, #1
 418 0500 008048E0 		sub	r8, r8, r0
 419 0504 020180E0 		add	r0, r0, r2, lsl #2
 420              	.L26:
 421 0508 016042E2 		sub	r6, r2, #1
 422 050c 049090E4 		ldr	r9, [r0], #4
 423 0510 060055E1 		cmp	r5, r6
 424 0514 F8FEFFDA 		ble	.L7
 425 0518 046093E5 		ldr	r6, [r3, #4]
 426 051c 006086E0 		add	r6, r6, r0
 427 0520 086096E7 		ldr	r6, [r6, r8]
 428 0524 090056E1 		cmp	r6, r9
 429 0528 F3FEFF1A 		bne	.L7
 430 052c 012082E2 		add	r2, r2, #1
 431 0530 960E0EE0 		mul	lr, r6, lr
 432 0534 040052E1 		cmp	r2, r4
 433 0538 F2FFFFBA 		blt	.L26
 434 053c 40FFFFEA 		b	.L27
 435              	.L46:
 436 0540 05005EE1 		cmp	lr, r5
 437 0544 0010A0E3 		mov	r1, #0
 438 0548 041084E4 		str	r1, [r4], #4
 439 054c 4AFFFF1A 		bne	.L29
 440 0550 5BFFFFEA 		b	.L149
 441              	.L148:
 442 0554 F88FBDE8 		pop	{r3, r4, r5, r6, r7, r8, r9, r10, fp, pc}
 443              	.L51:
 444 0558 01E0A0E3 		mov	lr, #1
 445 055c 38FFFFEA 		b	.L27
 446              	.L45:
 447 0560 00E0A0E1 		mov	lr, r0
 448 0564 36FFFFEA 		b	.L27
 449              	.L15:
 450 0568 012082E2 		add	r2, r2, #1
 451 056c 040052E1 		cmp	r2, r4
 452 0570 F8FFFFAA 		bge	.L51
 453              	.L37:
 454 0574 0291A0E1 		lsl	r9, r2, #2
 455 0578 010042E2 		sub	r0, r2, #1
 456 057c 000055E1 		cmp	r5, r0
 457 0580 09E086E0 		add	lr, r6, r9
 458 0584 04E09EE5 		ldr	lr, [lr, #4]
 459 0588 DBFEFFDA 		ble	.L7
 460 058c 000183E0 		add	r0, r3, r0, lsl #2
 461 0590 040090E5 		ldr	r0, [r0, #4]
 462 0594 0E0050E1 		cmp	r0, lr
 463 0598 D7FEFF1A 		bne	.L7
 464 059c 01A082E2 		add	r10, r2, #1
 465 05a0 0A0054E1 		cmp	r4, r10
 466 05a4 EDFFFFDA 		ble	.L45
 467 05a8 0A81A0E1 		lsl	r8, r10, #2
 468 05ac 020055E1 		cmp	r5, r2
 469 05b0 08E086E0 		add	lr, r6, r8
 470 05b4 04E09EE5 		ldr	lr, [lr, #4]
 471 05b8 CFFEFFDA 		ble	.L7
 472 05bc 099083E0 		add	r9, r3, r9
 473 05c0 049099E5 		ldr	r9, [r9, #4]
 474 05c4 09005EE1 		cmp	lr, r9
 475 05c8 CBFEFF1A 		bne	.L7
 476 05cc 029082E2 		add	r9, r2, #2
 477 05d0 9E000EE0 		mul	lr, lr, r0
 478 05d4 090054E1 		cmp	r4, r9
 479 05d8 19FFFFDA 		ble	.L27
 480 05dc 0901A0E1 		lsl	r0, r9, #2
 481 05e0 0A0055E1 		cmp	r5, r10
 482 05e4 00A086E0 		add	r10, r6, r0
 483 05e8 04A09AE5 		ldr	r10, [r10, #4]
 484 05ec C2FEFFDA 		ble	.L7
 485 05f0 088083E0 		add	r8, r3, r8
 486 05f4 048098E5 		ldr	r8, [r8, #4]
 487 05f8 0A0058E1 		cmp	r8, r10
 488 05fc BEFEFF1A 		bne	.L7
 489 0600 032082E2 		add	r2, r2, #3
 490 0604 980E0EE0 		mul	lr, r8, lr
 491 0608 020054E1 		cmp	r4, r2
 492 060c 0CFFFFDA 		ble	.L27
 493 0610 022186E0 		add	r2, r6, r2, lsl #2
 494 0614 090055E1 		cmp	r5, r9
 495 0618 042092E5 		ldr	r2, [r2, #4]
 496 061c B6FEFFDA 		ble	.L7
 497 0620 003083E0 		add	r3, r3, r0
 498 0624 043093E5 		ldr	r3, [r3, #4]
 499 0628 020053E1 		cmp	r3, r2
 500 062c 03FFFF0A 		beq	.L140
 501 0630 B1FEFFEA 		b	.L7
 502              	.L10:
 503 0634 010054E3 		cmp	r4, #1
 504 0638 0120A0E3 		mov	r2, #1
 505 063c 080000DA 		ble	.L150
 506 0640 050054E3 		cmp	r4, #5
 507 0644 0270A0E1 		mov	r7, r2
 508 0648 020000CA 		bgt	.L22
 509 064c 050055E3 		cmp	r5, #5
 510 0650 C7FFFFDA 		ble	.L37
 511 0654 CEFEFFEA 		b	.L23
 512              	.L22:
 513 0658 050055E3 		cmp	r5, #5
 514 065c 53FFFFDA 		ble	.L36
 515 0660 A3FFFFEA 		b	.L25
 516              	.L150:
 517 0664 0270A0E1 		mov	r7, r2
 518 0668 02E0A0E1 		mov	lr, r2
 519 066c F8FEFFEA 		b	.L34
 520              		.fnend
 522              		.section	.text._ZN6tflite13reference_ops9ArgMinMaxIfllNS_3ops5micro4LessEEEvRKNS_12RuntimeShapeEPK
 523              		.align	2
 524              		.weak	_ZN6tflite13reference_ops9ArgMinMaxIfllNS_3ops5micro4LessEEEvRKNS_12RuntimeShapeEPKT_PKT1_S7
 525              		.syntax unified
 526              		.arm
 527              		.fpu neon
 529              	_ZN6tflite13reference_ops9ArgMinMaxIfllNS_3ops5micro4LessEEEvRKNS_12RuntimeShapeEPKT_PKT1_S7_PT0_RK
 530              		.fnstart
 531              	.LFB1977:
 532              		@ args = 8, pretend = 0, frame = 0
 533              		@ frame_needed = 0, uses_anonymous_args = 0
 534 0000 F84F2DE9 		push	{r3, r4, r5, r6, r7, r8, r9, r10, fp, lr}
 535              		.save {r3, r4, r5, r6, r7, r8, r9, r10, fp, lr}
 536 0004 004090E5 		ldr	r4, [r0]
 537 0008 000054E3 		cmp	r4, #0
 538 000c 3A0000DA 		ble	.L153
 539 0010 0060A0E1 		mov	r6, r0
 540 0014 000093E5 		ldr	r0, [r3]
 541 0018 015044E2 		sub	r5, r4, #1
 542 001c 000055E1 		cmp	r5, r0
 543 0020 3500001A 		bne	.L153
 544 0024 002092E5 		ldr	r2, [r2]
 545 0028 000052E3 		cmp	r2, #0
 546 002c 190100BA 		blt	.L290
 547              	.L154:
 548 0030 020054E1 		cmp	r4, r2
 549 0034 300000DA 		ble	.L153
 550 0038 050054E3 		cmp	r4, #5
 551 003c A60000CA 		bgt	.L291
 552 0040 020186E0 		add	r0, r6, r2, lsl #2
 553 0044 000052E3 		cmp	r2, #0
 554 0048 04C090E5 		ldr	ip, [r0, #4]
 555 004c 7801000A 		beq	.L156
 556 0050 050055E3 		cmp	r5, #5
 557 0054 290000CA 		bgt	.L160
 558 0058 000055E3 		cmp	r5, #0
 559 005c 047096E5 		ldr	r7, [r6, #4]
 560 0060 2500000A 		beq	.L153
 561 0064 040093E5 		ldr	r0, [r3, #4]
 562 0068 000057E1 		cmp	r7, r0
 563 006c 2200001A 		bne	.L153
 564 0070 010052E3 		cmp	r2, #1
 565 0074 3B01000A 		beq	.L161
 566 0078 010054E3 		cmp	r4, #1
 567 007c 1E00000A 		beq	.L153
 568 0080 010055E3 		cmp	r5, #1
 569 0084 080096E5 		ldr	r0, [r6, #8]
 570 0088 1B00000A 		beq	.L153
 571 008c 08E093E5 		ldr	lr, [r3, #8]
 572 0090 0E0050E1 		cmp	r0, lr
 573 0094 1800001A 		bne	.L153
 574 0098 020052E3 		cmp	r2, #2
 575 009c 900707E0 		mul	r7, r0, r7
 576 00a0 3001000A 		beq	.L161
 577 00a4 020054E3 		cmp	r4, #2
 578 00a8 1300000A 		beq	.L153
 579 00ac 020055E3 		cmp	r5, #2
 580 00b0 0C0096E5 		ldr	r0, [r6, #12]
 581 00b4 1000000A 		beq	.L153
 582 00b8 0CE093E5 		ldr	lr, [r3, #12]
 583 00bc 0E0050E1 		cmp	r0, lr
 584 00c0 0D00001A 		bne	.L153
 585 00c4 030052E3 		cmp	r2, #3
 586 00c8 900707E0 		mul	r7, r0, r7
 587 00cc 2501000A 		beq	.L161
 588 00d0 030054E3 		cmp	r4, #3
 589 00d4 0800000A 		beq	.L153
 590 00d8 030055E3 		cmp	r5, #3
 591 00dc 100096E5 		ldr	r0, [r6, #16]
 592 00e0 0500000A 		beq	.L153
 593 00e4 10E093E5 		ldr	lr, [r3, #16]
 594 00e8 0E0050E1 		cmp	r0, lr
 595 00ec 0200001A 		bne	.L153
 596 00f0 040052E3 		cmp	r2, #4
 597 00f4 900707E0 		mul	r7, r0, r7
 598 00f8 1A01000A 		beq	.L161
 599              	.L153:
 600 00fc FEFFFFEB 		bl	abort
 601              	.L160:
 602 0100 040093E5 		ldr	r0, [r3, #4]
 603 0104 047096E5 		ldr	r7, [r6, #4]
 604 0108 00E090E5 		ldr	lr, [r0]
 605 010c 0E0057E1 		cmp	r7, lr
 606 0110 F9FFFF1A 		bne	.L153
 607 0114 010052E3 		cmp	r2, #1
 608 0118 1A00000A 		beq	.L162
 609 011c 010054E3 		cmp	r4, #1
 610 0120 F5FFFF0A 		beq	.L153
 611 0124 048090E5 		ldr	r8, [r0, #4]
 612 0128 08E096E5 		ldr	lr, [r6, #8]
 613 012c 08005EE1 		cmp	lr, r8
 614 0130 F1FFFF1A 		bne	.L153
 615 0134 020052E3 		cmp	r2, #2
 616 0138 9E0707E0 		mul	r7, lr, r7
 617 013c 1100000A 		beq	.L162
 618 0140 020054E3 		cmp	r4, #2
 619 0144 ECFFFF0A 		beq	.L153
 620 0148 088090E5 		ldr	r8, [r0, #8]
 621 014c 0CE096E5 		ldr	lr, [r6, #12]
 622 0150 08005EE1 		cmp	lr, r8
 623 0154 E8FFFF1A 		bne	.L153
 624 0158 030052E3 		cmp	r2, #3
 625 015c 9E0707E0 		mul	r7, lr, r7
 626 0160 0800000A 		beq	.L162
 627 0164 030054E3 		cmp	r4, #3
 628 0168 E3FFFF0A 		beq	.L153
 629 016c 0CE090E5 		ldr	lr, [r0, #12]
 630 0170 100096E5 		ldr	r0, [r6, #16]
 631 0174 0E0050E1 		cmp	r0, lr
 632 0178 DFFFFF1A 		bne	.L153
 633 017c 040052E3 		cmp	r2, #4
 634 0180 900707E0 		mul	r7, r0, r7
 635 0184 DCFFFF1A 		bne	.L153
 636              	.L162:
 637 0188 012082E2 		add	r2, r2, #1
 638 018c 040052E1 		cmp	r2, r4
 639 0190 F00000AA 		bge	.L197
 640              	.L169:
 641 0194 010042E2 		sub	r0, r2, #1
 642 0198 02E186E0 		add	lr, r6, r2, lsl #2
 643 019c 000055E1 		cmp	r5, r0
 644 01a0 04809EE5 		ldr	r8, [lr, #4]
 645 01a4 D4FFFFDA 		ble	.L153
 646 01a8 043093E5 		ldr	r3, [r3, #4]
 647 01ac 00E1A0E1 		lsl	lr, r0, #2
 648 01b0 000193E7 		ldr	r0, [r3, r0, lsl #2]
 649 01b4 080050E1 		cmp	r0, r8
 650 01b8 CFFFFF1A 		bne	.L153
 651 01bc 019082E2 		add	r9, r2, #1
 652 01c0 090054E1 		cmp	r4, r9
 653 01c4 E50000DA 		ble	.L191
 654 01c8 098186E0 		add	r8, r6, r9, lsl #2
 655 01cc 020055E1 		cmp	r5, r2
 656 01d0 048098E5 		ldr	r8, [r8, #4]
 657 01d4 C8FFFFDA 		ble	.L153
 658 01d8 0E3083E0 		add	r3, r3, lr
 659 01dc 04E093E5 		ldr	lr, [r3, #4]
 660 01e0 08005EE1 		cmp	lr, r8
 661 01e4 C4FFFF1A 		bne	.L153
 662 01e8 028082E2 		add	r8, r2, #2
 663 01ec 900E0EE0 		mul	lr, r0, lr
 664 01f0 080054E1 		cmp	r4, r8
 665 01f4 120000DA 		ble	.L173
 666 01f8 090055E1 		cmp	r5, r9
 667 01fc 080186E0 		add	r0, r6, r8, lsl #2
 668 0200 049090E5 		ldr	r9, [r0, #4]
 669 0204 BCFFFFDA 		ble	.L153
 670 0208 080093E5 		ldr	r0, [r3, #8]
 671 020c 090050E1 		cmp	r0, r9
 672 0210 B9FFFF1A 		bne	.L153
 673 0214 032082E2 		add	r2, r2, #3
 674 0218 900E0EE0 		mul	lr, r0, lr
 675 021c 020054E1 		cmp	r4, r2
 676 0220 070000DA 		ble	.L173
 677 0224 022186E0 		add	r2, r6, r2, lsl #2
 678 0228 080055E1 		cmp	r5, r8
 679 022c 042092E5 		ldr	r2, [r2, #4]
 680 0230 B1FFFFDA 		ble	.L153
 681 0234 0C3093E5 		ldr	r3, [r3, #12]
 682 0238 020053E1 		cmp	r3, r2
 683 023c AEFFFF1A 		bne	.L153
 684              	.L286:
 685 0240 920E0EE0 		mul	lr, r2, lr
 686              	.L173:
 687 0244 000057E3 		cmp	r7, #0
 688 0248 910000DA 		ble	.L292
 689              	.L167:
 690 024c 00005EE3 		cmp	lr, #0
 691 0250 BF0000DA 		ble	.L293
 692              	.L180:
 693 0254 9C0E0BE0 		mul	fp, ip, lr
 694 0258 0E01A0E1 		lsl	r0, lr, #2
 695 025c 28909DE5 		ldr	r9, [sp, #40]
 696 0260 0180A0E1 		mov	r8, r1
 697 0264 046040E2 		sub	r6, r0, #4
 698 0268 00A0A0E3 		mov	r10, #0
 699 026c 0BB1A0E1 		lsl	fp, fp, #2
 700              	.L176:
 701 0270 005088E0 		add	r5, r8, r0
 702 0274 0940A0E1 		mov	r4, r9
 703 0278 08E0A0E1 		mov	lr, r8
 704              	.L175:
 705 027c 01005CE3 		cmp	ip, #1
 706 0280 017AFEEC 		vldmia.32	lr!, {s15}
 707 0284 AD0000DA 		ble	.L192
 708 0288 0E2086E0 		add	r2, r6, lr
 709 028c 0130A0E3 		mov	r3, #1
 710 0290 0010A0E3 		mov	r1, #0
 711              	.L178:
 712 0294 007A92ED 		vldr.32	s14, [r2]
 713 0298 002082E0 		add	r2, r2, r0
 714 029c C77AF4EE 		vcmpe.f32	s15, s14
 715 02a0 10FAF1EE 		vmrs	APSR_nzcv, FPSCR
 716 02a4 0310A0C1 		movgt	r1, r3
 717 02a8 013083E2 		add	r3, r3, #1
 718 02ac 477AF0CE 		vmovgt.f32	s15, s14
 719 02b0 0C0053E1 		cmp	r3, ip
 720 02b4 F6FFFF1A 		bne	.L178
 721 02b8 05005EE1 		cmp	lr, r5
 722 02bc 041084E4 		str	r1, [r4], #4
 723 02c0 EDFFFF1A 		bne	.L175
 724              	.L294:
 725 02c4 01A08AE2 		add	r10, r10, #1
 726 02c8 0B8088E0 		add	r8, r8, fp
 727 02cc 07005AE1 		cmp	r10, r7
 728 02d0 009089E0 		add	r9, r9, r0
 729 02d4 E5FFFFBA 		blt	.L176
 730 02d8 F88FBDE8 		pop	{r3, r4, r5, r6, r7, r8, r9, r10, fp, pc}
 731              	.L291:
 732 02dc 040096E5 		ldr	r0, [r6, #4]
 733 02e0 000052E3 		cmp	r2, #0
 734 02e4 02C190E7 		ldr	ip, [r0, r2, lsl #2]
 735 02e8 D100000A 		beq	.L156
 736 02ec 050055E3 		cmp	r5, #5
 737 02f0 6B0000CA 		bgt	.L163
 738 02f4 000055E3 		cmp	r5, #0
 739 02f8 007090E5 		ldr	r7, [r0]
 740 02fc 7EFFFF0A 		beq	.L153
 741 0300 04E093E5 		ldr	lr, [r3, #4]
 742 0304 0E0057E1 		cmp	r7, lr
 743 0308 7BFFFF1A 		bne	.L153
 744 030c 010052E3 		cmp	r2, #1
 745 0310 2300000A 		beq	.L164
 746 0314 010055E3 		cmp	r5, #1
 747 0318 04E090E5 		ldr	lr, [r0, #4]
 748 031c 76FFFF0A 		beq	.L153
 749 0320 088093E5 		ldr	r8, [r3, #8]
 750 0324 08005EE1 		cmp	lr, r8
 751 0328 73FFFF1A 		bne	.L153
 752 032c 020052E3 		cmp	r2, #2
 753 0330 9E0707E0 		mul	r7, lr, r7
 754 0334 1A00000A 		beq	.L164
 755 0338 020055E3 		cmp	r5, #2
 756 033c 08E090E5 		ldr	lr, [r0, #8]
 757 0340 6DFFFF0A 		beq	.L153
 758 0344 0C8093E5 		ldr	r8, [r3, #12]
 759 0348 08005EE1 		cmp	lr, r8
 760 034c 6AFFFF1A 		bne	.L153
 761 0350 030052E3 		cmp	r2, #3
 762 0354 9E0707E0 		mul	r7, lr, r7
 763 0358 1100000A 		beq	.L164
 764 035c 030055E3 		cmp	r5, #3
 765 0360 0CE090E5 		ldr	lr, [r0, #12]
 766 0364 64FFFF0A 		beq	.L153
 767 0368 108093E5 		ldr	r8, [r3, #16]
 768 036c 08005EE1 		cmp	lr, r8
 769 0370 61FFFF1A 		bne	.L153
 770 0374 040052E3 		cmp	r2, #4
 771 0378 9E0707E0 		mul	r7, lr, r7
 772 037c 0800000A 		beq	.L164
 773 0380 050055E3 		cmp	r5, #5
 774 0384 100090E5 		ldr	r0, [r0, #16]
 775 0388 5BFFFF1A 		bne	.L153
 776 038c 14E093E5 		ldr	lr, [r3, #20]
 777 0390 0E0050E1 		cmp	r0, lr
 778 0394 58FFFF1A 		bne	.L153
 779 0398 050052E3 		cmp	r2, #5
 780 039c 900707E0 		mul	r7, r0, r7
 781 03a0 55FFFF1A 		bne	.L153
 782              	.L164:
 783 03a4 012082E2 		add	r2, r2, #1
 784 03a8 020054E1 		cmp	r4, r2
 785 03ac 690000DA 		ble	.L197
 786              	.L182:
 787 03b0 046096E5 		ldr	r6, [r6, #4]
 788 03b4 019042E2 		sub	r9, r2, #1
 789 03b8 090055E1 		cmp	r5, r9
 790 03bc 0281A0E1 		lsl	r8, r2, #2
 791 03c0 020196E7 		ldr	r0, [r6, r2, lsl #2]
 792 03c4 4CFFFFDA 		ble	.L153
 793 03c8 099183E0 		add	r9, r3, r9, lsl #2
 794 03cc 04E099E5 		ldr	lr, [r9, #4]
 795 03d0 0E0050E1 		cmp	r0, lr
 796 03d4 48FFFF1A 		bne	.L153
 797 03d8 019082E2 		add	r9, r2, #1
 798 03dc 090054E1 		cmp	r4, r9
 799 03e0 5E0000DA 		ble	.L191
 800 03e4 020055E1 		cmp	r5, r2
 801 03e8 086086E0 		add	r6, r6, r8
 802 03ec 04E096E5 		ldr	lr, [r6, #4]
 803 03f0 41FFFFDA 		ble	.L153
 804 03f4 088083E0 		add	r8, r3, r8
 805 03f8 048098E5 		ldr	r8, [r8, #4]
 806 03fc 08005EE1 		cmp	lr, r8
 807 0400 3DFFFF1A 		bne	.L153
 808 0404 028082E2 		add	r8, r2, #2
 809 0408 9E000EE0 		mul	lr, lr, r0
 810 040c 080054E1 		cmp	r4, r8
 811 0410 8BFFFFDA 		ble	.L173
 812 0414 090055E1 		cmp	r5, r9
 813 0418 08A096E5 		ldr	r10, [r6, #8]
 814 041c 36FFFFDA 		ble	.L153
 815 0420 099183E0 		add	r9, r3, r9, lsl #2
 816 0424 040099E5 		ldr	r0, [r9, #4]
 817 0428 00005AE1 		cmp	r10, r0
 818 042c 32FFFF1A 		bne	.L153
 819 0430 030082E2 		add	r0, r2, #3
 820 0434 9A0E0EE0 		mul	lr, r10, lr
 821 0438 000054E1 		cmp	r4, r0
 822 043c 80FFFFDA 		ble	.L173
 823 0440 080055E1 		cmp	r5, r8
 824 0444 0C9096E5 		ldr	r9, [r6, #12]
 825 0448 2BFFFFDA 		ble	.L153
 826 044c 088183E0 		add	r8, r3, r8, lsl #2
 827 0450 048098E5 		ldr	r8, [r8, #4]
 828 0454 080059E1 		cmp	r9, r8
 829 0458 27FFFF1A 		bne	.L153
 830 045c 042082E2 		add	r2, r2, #4
 831 0460 990E0EE0 		mul	lr, r9, lr
 832 0464 020054E1 		cmp	r4, r2
 833 0468 75FFFFDA 		ble	.L173
 834 046c 050050E1 		cmp	r0, r5
 835 0470 102096E5 		ldr	r2, [r6, #16]
 836 0474 20FFFFAA 		bge	.L153
 837 0478 003183E0 		add	r3, r3, r0, lsl #2
 838 047c 043093E5 		ldr	r3, [r3, #4]
 839 0480 020053E1 		cmp	r3, r2
 840 0484 1CFFFF1A 		bne	.L153
 841 0488 000057E3 		cmp	r7, #0
 842 048c 930E0EE0 		mul	lr, r3, lr
 843 0490 6DFFFFCA 		bgt	.L167
 844              	.L292:
 845 0494 F88FBDE8 		pop	{r3, r4, r5, r6, r7, r8, r9, r10, fp, pc}
 846              	.L290:
 847 0498 042092E0 		adds	r2, r2, r4
 848 049c E3FEFF5A 		bpl	.L154
 849 04a0 15FFFFEA 		b	.L153
 850              	.L163:
 851 04a4 04E040E2 		sub	lr, r0, #4
 852 04a8 0170A0E3 		mov	r7, #1
 853 04ac 0000A0E3 		mov	r0, #0
 854 04b0 010000EA 		b	.L159
 855              	.L283:
 856 04b4 040050E1 		cmp	r0, r4
 857 04b8 0FFFFF0A 		beq	.L153
 858              	.L159:
 859 04bc 050050E1 		cmp	r0, r5
 860 04c0 0490BEE5 		ldr	r9, [lr, #4]!
 861 04c4 0CFFFF0A 		beq	.L153
 862 04c8 048093E5 		ldr	r8, [r3, #4]
 863 04cc 008198E7 		ldr	r8, [r8, r0, lsl #2]
 864 04d0 090058E1 		cmp	r8, r9
 865 04d4 08FFFF1A 		bne	.L153
 866 04d8 010080E2 		add	r0, r0, #1
 867 04dc 980707E0 		mul	r7, r8, r7
 868 04e0 020050E1 		cmp	r0, r2
 869 04e4 F2FFFF1A 		bne	.L283
 870 04e8 012080E2 		add	r2, r0, #1
 871 04ec 040052E1 		cmp	r2, r4
 872 04f0 180000AA 		bge	.L197
 873              	.L171:
 874 04f4 040096E5 		ldr	r0, [r6, #4]
 875 04f8 0780E0E3 		mvn	r8, #7
 876 04fc 01E0A0E3 		mov	lr, #1
 877 0500 008048E0 		sub	r8, r8, r0
 878 0504 020180E0 		add	r0, r0, r2, lsl #2
 879              	.L172:
 880 0508 016042E2 		sub	r6, r2, #1
 881 050c 049090E4 		ldr	r9, [r0], #4
 882 0510 060055E1 		cmp	r5, r6
 883 0514 F8FEFFDA 		ble	.L153
 884 0518 046093E5 		ldr	r6, [r3, #4]
 885 051c 006086E0 		add	r6, r6, r0
 886 0520 086096E7 		ldr	r6, [r6, r8]
 887 0524 090056E1 		cmp	r6, r9
 888 0528 F3FEFF1A 		bne	.L153
 889 052c 012082E2 		add	r2, r2, #1
 890 0530 960E0EE0 		mul	lr, r6, lr
 891 0534 040052E1 		cmp	r2, r4
 892 0538 F2FFFFBA 		blt	.L172
 893 053c 40FFFFEA 		b	.L173
 894              	.L192:
 895 0540 05005EE1 		cmp	lr, r5
 896 0544 0010A0E3 		mov	r1, #0
 897 0548 041084E4 		str	r1, [r4], #4
 898 054c 4AFFFF1A 		bne	.L175
 899 0550 5BFFFFEA 		b	.L294
 900              	.L293:
 901 0554 F88FBDE8 		pop	{r3, r4, r5, r6, r7, r8, r9, r10, fp, pc}
 902              	.L197:
 903 0558 01E0A0E3 		mov	lr, #1
 904 055c 38FFFFEA 		b	.L173
 905              	.L191:
 906 0560 00E0A0E1 		mov	lr, r0
 907 0564 36FFFFEA 		b	.L173
 908              	.L161:
 909 0568 012082E2 		add	r2, r2, #1
 910 056c 040052E1 		cmp	r2, r4
 911 0570 F8FFFFAA 		bge	.L197
 912              	.L183:
 913 0574 0291A0E1 		lsl	r9, r2, #2
 914 0578 010042E2 		sub	r0, r2, #1
 915 057c 000055E1 		cmp	r5, r0
 916 0580 09E086E0 		add	lr, r6, r9
 917 0584 04E09EE5 		ldr	lr, [lr, #4]
 918 0588 DBFEFFDA 		ble	.L153
 919 058c 000183E0 		add	r0, r3, r0, lsl #2
 920 0590 040090E5 		ldr	r0, [r0, #4]
 921 0594 0E0050E1 		cmp	r0, lr
 922 0598 D7FEFF1A 		bne	.L153
 923 059c 01A082E2 		add	r10, r2, #1
 924 05a0 0A0054E1 		cmp	r4, r10
 925 05a4 EDFFFFDA 		ble	.L191
 926 05a8 0A81A0E1 		lsl	r8, r10, #2
 927 05ac 020055E1 		cmp	r5, r2
 928 05b0 08E086E0 		add	lr, r6, r8
 929 05b4 04E09EE5 		ldr	lr, [lr, #4]
 930 05b8 CFFEFFDA 		ble	.L153
 931 05bc 099083E0 		add	r9, r3, r9
 932 05c0 049099E5 		ldr	r9, [r9, #4]
 933 05c4 09005EE1 		cmp	lr, r9
 934 05c8 CBFEFF1A 		bne	.L153
 935 05cc 029082E2 		add	r9, r2, #2
 936 05d0 9E000EE0 		mul	lr, lr, r0
 937 05d4 090054E1 		cmp	r4, r9
 938 05d8 19FFFFDA 		ble	.L173
 939 05dc 0901A0E1 		lsl	r0, r9, #2
 940 05e0 0A0055E1 		cmp	r5, r10
 941 05e4 00A086E0 		add	r10, r6, r0
 942 05e8 04A09AE5 		ldr	r10, [r10, #4]
 943 05ec C2FEFFDA 		ble	.L153
 944 05f0 088083E0 		add	r8, r3, r8
 945 05f4 048098E5 		ldr	r8, [r8, #4]
 946 05f8 0A0058E1 		cmp	r8, r10
 947 05fc BEFEFF1A 		bne	.L153
 948 0600 032082E2 		add	r2, r2, #3
 949 0604 980E0EE0 		mul	lr, r8, lr
 950 0608 020054E1 		cmp	r4, r2
 951 060c 0CFFFFDA 		ble	.L173
 952 0610 022186E0 		add	r2, r6, r2, lsl #2
 953 0614 090055E1 		cmp	r5, r9
 954 0618 042092E5 		ldr	r2, [r2, #4]
 955 061c B6FEFFDA 		ble	.L153
 956 0620 003083E0 		add	r3, r3, r0
 957 0624 043093E5 		ldr	r3, [r3, #4]
 958 0628 020053E1 		cmp	r3, r2
 959 062c 03FFFF0A 		beq	.L286
 960 0630 B1FEFFEA 		b	.L153
 961              	.L156:
 962 0634 010054E3 		cmp	r4, #1
 963 0638 0120A0E3 		mov	r2, #1
 964 063c 080000DA 		ble	.L295
 965 0640 050054E3 		cmp	r4, #5
 966 0644 0270A0E1 		mov	r7, r2
 967 0648 020000CA 		bgt	.L168
 968 064c 050055E3 		cmp	r5, #5
 969 0650 C7FFFFDA 		ble	.L183
 970 0654 CEFEFFEA 		b	.L169
 971              	.L168:
 972 0658 050055E3 		cmp	r5, #5
 973 065c 53FFFFDA 		ble	.L182
 974 0660 A3FFFFEA 		b	.L171
 975              	.L295:
 976 0664 0270A0E1 		mov	r7, r2
 977 0668 02E0A0E1 		mov	lr, r2
 978 066c F8FEFFEA 		b	.L180
 979              		.fnend
 981              		.section	.text._ZN6tflite13reference_ops9ArgMinMaxIhllNS_3ops5micro7GreaterEEEvRKNS_12RuntimeShape
 982              		.align	2
 983              		.weak	_ZN6tflite13reference_ops9ArgMinMaxIhllNS_3ops5micro7GreaterEEEvRKNS_12RuntimeShapeEPKT_PKT1
 984              		.syntax unified
 985              		.arm
 986              		.fpu neon
 988              	_ZN6tflite13reference_ops9ArgMinMaxIhllNS_3ops5micro7GreaterEEEvRKNS_12RuntimeShapeEPKT_PKT1_S7_PT0
 989              		.fnstart
 990              	.LFB1978:
 991              		@ args = 8, pretend = 0, frame = 8
 992              		@ frame_needed = 0, uses_anonymous_args = 0
 993 0000 00C090E5 		ldr	ip, [r0]
 994 0004 F04F2DE9 		push	{r4, r5, r6, r7, r8, r9, r10, fp, lr}
 995              		.save {r4, r5, r6, r7, r8, r9, r10, fp, lr}
 996              		.pad #12
 997 0008 0CD04DE2 		sub	sp, sp, #12
 998 000c 00005CE3 		cmp	ip, #0
 999 0010 390000DA 		ble	.L298
 1000 0014 00E093E5 		ldr	lr, [r3]
 1001 0018 01404CE2 		sub	r4, ip, #1
 1002 001c 0E0054E1 		cmp	r4, lr
 1003 0020 3500001A 		bne	.L298
 1004 0024 002092E5 		ldr	r2, [r2]
 1005 0028 000052E3 		cmp	r2, #0
 1006 002c 180100BA 		blt	.L435
 1007              	.L299:
 1008 0030 02005CE1 		cmp	ip, r2
 1009 0034 300000DA 		ble	.L298
 1010 0038 05005CE3 		cmp	ip, #5
 1011 003c A70000CA 		bgt	.L436
 1012 0040 02E180E0 		add	lr, r0, r2, lsl #2
 1013 0044 000052E3 		cmp	r2, #0
 1014 0048 04E09EE5 		ldr	lr, [lr, #4]
 1015 004c 7401000A 		beq	.L301
 1016 0050 050054E3 		cmp	r4, #5
 1017 0054 290000CA 		bgt	.L305
 1018 0058 000054E3 		cmp	r4, #0
 1019 005c 049090E5 		ldr	r9, [r0, #4]
 1020 0060 2500000A 		beq	.L298
 1021 0064 045093E5 		ldr	r5, [r3, #4]
 1022 0068 050059E1 		cmp	r9, r5
 1023 006c 2200001A 		bne	.L298
 1024 0070 010052E3 		cmp	r2, #1
 1025 0074 3701000A 		beq	.L306
 1026 0078 01005CE3 		cmp	ip, #1
 1027 007c 1E00000A 		beq	.L298
 1028 0080 010054E3 		cmp	r4, #1
 1029 0084 085090E5 		ldr	r5, [r0, #8]
 1030 0088 1B00000A 		beq	.L298
 1031 008c 086093E5 		ldr	r6, [r3, #8]
 1032 0090 060055E1 		cmp	r5, r6
 1033 0094 1800001A 		bne	.L298
 1034 0098 020052E3 		cmp	r2, #2
 1035 009c 950909E0 		mul	r9, r5, r9
 1036 00a0 2C01000A 		beq	.L306
 1037 00a4 02005CE3 		cmp	ip, #2
 1038 00a8 1300000A 		beq	.L298
 1039 00ac 020054E3 		cmp	r4, #2
 1040 00b0 0C5090E5 		ldr	r5, [r0, #12]
 1041 00b4 1000000A 		beq	.L298
 1042 00b8 0C6093E5 		ldr	r6, [r3, #12]
 1043 00bc 060055E1 		cmp	r5, r6
 1044 00c0 0D00001A 		bne	.L298
 1045 00c4 030052E3 		cmp	r2, #3
 1046 00c8 950909E0 		mul	r9, r5, r9
 1047 00cc 2101000A 		beq	.L306
 1048 00d0 03005CE3 		cmp	ip, #3
 1049 00d4 0800000A 		beq	.L298
 1050 00d8 030054E3 		cmp	r4, #3
 1051 00dc 105090E5 		ldr	r5, [r0, #16]
 1052 00e0 0500000A 		beq	.L298
 1053 00e4 106093E5 		ldr	r6, [r3, #16]
 1054 00e8 060055E1 		cmp	r5, r6
 1055 00ec 0200001A 		bne	.L298
 1056 00f0 040052E3 		cmp	r2, #4
 1057 00f4 950909E0 		mul	r9, r5, r9
 1058 00f8 1601000A 		beq	.L306
 1059              	.L298:
 1060 00fc FEFFFFEB 		bl	abort
 1061              	.L305:
 1062 0100 045093E5 		ldr	r5, [r3, #4]
 1063 0104 049090E5 		ldr	r9, [r0, #4]
 1064 0108 006095E5 		ldr	r6, [r5]
 1065 010c 060059E1 		cmp	r9, r6
 1066 0110 F9FFFF1A 		bne	.L298
 1067 0114 010052E3 		cmp	r2, #1
 1068 0118 1A00000A 		beq	.L307
 1069 011c 01005CE3 		cmp	ip, #1
 1070 0120 F5FFFF0A 		beq	.L298
 1071 0124 047095E5 		ldr	r7, [r5, #4]
 1072 0128 086090E5 		ldr	r6, [r0, #8]
 1073 012c 070056E1 		cmp	r6, r7
 1074 0130 F1FFFF1A 		bne	.L298
 1075 0134 020052E3 		cmp	r2, #2
 1076 0138 960909E0 		mul	r9, r6, r9
 1077 013c 1100000A 		beq	.L307
 1078 0140 02005CE3 		cmp	ip, #2
 1079 0144 ECFFFF0A 		beq	.L298
 1080 0148 087095E5 		ldr	r7, [r5, #8]
 1081 014c 0C6090E5 		ldr	r6, [r0, #12]
 1082 0150 070056E1 		cmp	r6, r7
 1083 0154 E8FFFF1A 		bne	.L298
 1084 0158 030052E3 		cmp	r2, #3
 1085 015c 960909E0 		mul	r9, r6, r9
 1086 0160 0800000A 		beq	.L307
 1087 0164 03005CE3 		cmp	ip, #3
 1088 0168 E3FFFF0A 		beq	.L298
 1089 016c 0C6095E5 		ldr	r6, [r5, #12]
 1090 0170 105090E5 		ldr	r5, [r0, #16]
 1091 0174 060055E1 		cmp	r5, r6
 1092 0178 DFFFFF1A 		bne	.L298
 1093 017c 040052E3 		cmp	r2, #4
 1094 0180 950909E0 		mul	r9, r5, r9
 1095 0184 DCFFFF1A 		bne	.L298
 1096              	.L307:
 1097 0188 012082E2 		add	r2, r2, #1
 1098 018c 02005CE1 		cmp	ip, r2
 1099 0190 EE0000DA 		ble	.L342
 1100              	.L314:
 1101 0194 015042E2 		sub	r5, r2, #1
 1102 0198 026180E0 		add	r6, r0, r2, lsl #2
 1103 019c 050054E1 		cmp	r4, r5
 1104 01a0 046096E5 		ldr	r6, [r6, #4]
 1105 01a4 D4FFFFDA 		ble	.L298
 1106 01a8 043093E5 		ldr	r3, [r3, #4]
 1107 01ac 0571A0E1 		lsl	r7, r5, #2
 1108 01b0 058193E7 		ldr	r8, [r3, r5, lsl #2]
 1109 01b4 060058E1 		cmp	r8, r6
 1110 01b8 CFFFFF1A 		bne	.L298
 1111 01bc 016082E2 		add	r6, r2, #1
 1112 01c0 06005CE1 		cmp	ip, r6
 1113 01c4 1E0000DA 		ble	.L318
 1114 01c8 065180E0 		add	r5, r0, r6, lsl #2
 1115 01cc 020054E1 		cmp	r4, r2
 1116 01d0 045095E5 		ldr	r5, [r5, #4]
 1117 01d4 C8FFFFDA 		ble	.L298
 1118 01d8 073083E0 		add	r3, r3, r7
 1119 01dc 047093E5 		ldr	r7, [r3, #4]
 1120 01e0 050057E1 		cmp	r7, r5
 1121 01e4 C4FFFF1A 		bne	.L298
 1122 01e8 025082E2 		add	r5, r2, #2
 1123 01ec 980708E0 		mul	r8, r8, r7
 1124 01f0 05005CE1 		cmp	ip, r5
 1125 01f4 120000DA 		ble	.L318
 1126 01f8 060054E1 		cmp	r4, r6
 1127 01fc 056180E0 		add	r6, r0, r5, lsl #2
 1128 0200 047096E5 		ldr	r7, [r6, #4]
 1129 0204 BCFFFFDA 		ble	.L298
 1130 0208 086093E5 		ldr	r6, [r3, #8]
 1131 020c 070056E1 		cmp	r6, r7
 1132 0210 B9FFFF1A 		bne	.L298
 1133 0214 032082E2 		add	r2, r2, #3
 1134 0218 960808E0 		mul	r8, r6, r8
 1135 021c 02005CE1 		cmp	ip, r2
 1136 0220 070000DA 		ble	.L318
 1137 0224 022180E0 		add	r2, r0, r2, lsl #2
 1138 0228 050054E1 		cmp	r4, r5
 1139 022c 042092E5 		ldr	r2, [r2, #4]
 1140 0230 B1FFFFDA 		ble	.L298
 1141 0234 0C3093E5 		ldr	r3, [r3, #12]
 1142 0238 020053E1 		cmp	r3, r2
 1143 023c AEFFFF1A 		bne	.L298
 1144              	.L431:
 1145 0240 920808E0 		mul	r8, r2, r8
 1146              	.L318:
 1147 0244 000059E3 		cmp	r9, #0
 1148 0248 220000DA 		ble	.L296
 1149 024c 000058E3 		cmp	r8, #0
 1150 0250 200000DA 		ble	.L296
 1151              	.L325:
 1152 0254 9E0803E0 		mul	r3, lr, r8
 1153 0258 30A09DE5 		ldr	r10, [sp, #48]
 1154 025c 086081E0 		add	r6, r1, r8
 1155 0260 00B0A0E3 		mov	fp, #0
 1156 0264 017048E2 		sub	r7, r8, #1
 1157 0268 00308DE5 		str	r3, [sp]
 1158 026c 0831A0E1 		lsl	r3, r8, #2
 1159 0270 04308DE5 		str	r3, [sp, #4]
 1160              	.L321:
 1161 0274 084046E0 		sub	r4, r6, r8
 1162 0278 0A50A0E1 		mov	r5, r10
 1163              	.L320:
 1164 027c 01005EE3 		cmp	lr, #1
 1165 0280 0120D4E4 		ldrb	r2, [r4], #1	@ zero_extendqisi2
 1166 0284 AC0000DA 		ble	.L337
 1167 0288 04C087E0 		add	ip, r7, r4
 1168 028c 0130A0E3 		mov	r3, #1
 1169 0290 0000A0E3 		mov	r0, #0
 1170              	.L323:
 1171 0294 0810DCE6 		ldrb	r1, [ip], r8	@ zero_extendqisi2
 1172 0298 020051E1 		cmp	r1, r2
 1173 029c 0300A0C1 		movgt	r0, r3
 1174 02a0 013083E2 		add	r3, r3, #1
 1175 02a4 0120A0C1 		movgt	r2, r1
 1176 02a8 0E0053E1 		cmp	r3, lr
 1177 02ac F8FFFF1A 		bne	.L323
 1178 02b0 060054E1 		cmp	r4, r6
 1179 02b4 040085E4 		str	r0, [r5], #4
 1180 02b8 EFFFFF1A 		bne	.L320
 1181              	.L437:
 1182 02bc 00309DE5 		ldr	r3, [sp]
 1183 02c0 01B08BE2 		add	fp, fp, #1
 1184 02c4 09005BE1 		cmp	fp, r9
 1185 02c8 036086E0 		add	r6, r6, r3
 1186 02cc 04309DE5 		ldr	r3, [sp, #4]
 1187 02d0 03A08AE0 		add	r10, r10, r3
 1188 02d4 E6FFFFBA 		blt	.L321
 1189              	.L296:
 1190 02d8 0CD08DE2 		add	sp, sp, #12
 1191              		@ sp needed
 1192 02dc F08FBDE8 		pop	{r4, r5, r6, r7, r8, r9, r10, fp, pc}
 1193              	.L436:
 1194 02e0 045090E5 		ldr	r5, [r0, #4]
 1195 02e4 000052E3 		cmp	r2, #0
 1196 02e8 02E195E7 		ldr	lr, [r5, r2, lsl #2]
 1197 02ec CC00000A 		beq	.L301
 1198 02f0 050054E3 		cmp	r4, #5
 1199 02f4 690000CA 		bgt	.L308
 1200 02f8 000054E3 		cmp	r4, #0
 1201 02fc 009095E5 		ldr	r9, [r5]
 1202 0300 7DFFFF0A 		beq	.L298
 1203 0304 046093E5 		ldr	r6, [r3, #4]
 1204 0308 060059E1 		cmp	r9, r6
 1205 030c 7AFFFF1A 		bne	.L298
 1206 0310 010052E3 		cmp	r2, #1
 1207 0314 2300000A 		beq	.L309
 1208 0318 010054E3 		cmp	r4, #1
 1209 031c 046095E5 		ldr	r6, [r5, #4]
 1210 0320 75FFFF0A 		beq	.L298
 1211 0324 087093E5 		ldr	r7, [r3, #8]
 1212 0328 070056E1 		cmp	r6, r7
 1213 032c 72FFFF1A 		bne	.L298
 1214 0330 020052E3 		cmp	r2, #2
 1215 0334 960909E0 		mul	r9, r6, r9
 1216 0338 1A00000A 		beq	.L309
 1217 033c 020054E3 		cmp	r4, #2
 1218 0340 086095E5 		ldr	r6, [r5, #8]
 1219 0344 6CFFFF0A 		beq	.L298
 1220 0348 0C7093E5 		ldr	r7, [r3, #12]
 1221 034c 070056E1 		cmp	r6, r7
 1222 0350 69FFFF1A 		bne	.L298
 1223 0354 030052E3 		cmp	r2, #3
 1224 0358 960909E0 		mul	r9, r6, r9
 1225 035c 1100000A 		beq	.L309
 1226 0360 030054E3 		cmp	r4, #3
 1227 0364 0C6095E5 		ldr	r6, [r5, #12]
 1228 0368 63FFFF0A 		beq	.L298
 1229 036c 107093E5 		ldr	r7, [r3, #16]
 1230 0370 070056E1 		cmp	r6, r7
 1231 0374 60FFFF1A 		bne	.L298
 1232 0378 040052E3 		cmp	r2, #4
 1233 037c 960909E0 		mul	r9, r6, r9
 1234 0380 0800000A 		beq	.L309
 1235 0384 050054E3 		cmp	r4, #5
 1236 0388 105095E5 		ldr	r5, [r5, #16]
 1237 038c 5AFFFF1A 		bne	.L298
 1238 0390 146093E5 		ldr	r6, [r3, #20]
 1239 0394 060055E1 		cmp	r5, r6
 1240 0398 57FFFF1A 		bne	.L298
 1241 039c 050052E3 		cmp	r2, #5
 1242 03a0 950909E0 		mul	r9, r5, r9
 1243 03a4 54FFFF1A 		bne	.L298
 1244              	.L309:
 1245 03a8 012082E2 		add	r2, r2, #1
 1246 03ac 0C0052E1 		cmp	r2, ip
 1247 03b0 660000AA 		bge	.L342
 1248              	.L327:
 1249 03b4 040090E5 		ldr	r0, [r0, #4]
 1250 03b8 015042E2 		sub	r5, r2, #1
 1251 03bc 050054E1 		cmp	r4, r5
 1252 03c0 0261A0E1 		lsl	r6, r2, #2
 1253 03c4 028190E7 		ldr	r8, [r0, r2, lsl #2]
 1254 03c8 4BFFFFDA 		ble	.L298
 1255 03cc 055183E0 		add	r5, r3, r5, lsl #2
 1256 03d0 045095E5 		ldr	r5, [r5, #4]
 1257 03d4 050058E1 		cmp	r8, r5
 1258 03d8 47FFFF1A 		bne	.L298
 1259 03dc 015082E2 		add	r5, r2, #1
 1260 03e0 05005CE1 		cmp	ip, r5
 1261 03e4 96FFFFDA 		ble	.L318
 1262 03e8 020054E1 		cmp	r4, r2
 1263 03ec 060080E0 		add	r0, r0, r6
 1264 03f0 047090E5 		ldr	r7, [r0, #4]
 1265 03f4 40FFFFDA 		ble	.L298
 1266 03f8 066083E0 		add	r6, r3, r6
 1267 03fc 046096E5 		ldr	r6, [r6, #4]
 1268 0400 060057E1 		cmp	r7, r6
 1269 0404 3CFFFF1A 		bne	.L298
 1270 0408 026082E2 		add	r6, r2, #2
 1271 040c 970808E0 		mul	r8, r7, r8
 1272 0410 06005CE1 		cmp	ip, r6
 1273 0414 8AFFFFDA 		ble	.L318
 1274 0418 050054E1 		cmp	r4, r5
 1275 041c 087090E5 		ldr	r7, [r0, #8]
 1276 0420 35FFFFDA 		ble	.L298
 1277 0424 055183E0 		add	r5, r3, r5, lsl #2
 1278 0428 045095E5 		ldr	r5, [r5, #4]
 1279 042c 050057E1 		cmp	r7, r5
 1280 0430 31FFFF1A 		bne	.L298
 1281 0434 035082E2 		add	r5, r2, #3
 1282 0438 970808E0 		mul	r8, r7, r8
 1283 043c 05005CE1 		cmp	ip, r5
 1284 0440 7FFFFFDA 		ble	.L318
 1285 0444 060054E1 		cmp	r4, r6
 1286 0448 0C7090E5 		ldr	r7, [r0, #12]
 1287 044c 2AFFFFDA 		ble	.L298
 1288 0450 066183E0 		add	r6, r3, r6, lsl #2
 1289 0454 046096E5 		ldr	r6, [r6, #4]
 1290 0458 060057E1 		cmp	r7, r6
 1291 045c 26FFFF1A 		bne	.L298
 1292 0460 042082E2 		add	r2, r2, #4
 1293 0464 970808E0 		mul	r8, r7, r8
 1294 0468 02005CE1 		cmp	ip, r2
 1295 046c 74FFFFDA 		ble	.L318
 1296 0470 040055E1 		cmp	r5, r4
 1297 0474 102090E5 		ldr	r2, [r0, #16]
 1298 0478 1FFFFFAA 		bge	.L298
 1299 047c 053183E0 		add	r3, r3, r5, lsl #2
 1300 0480 043093E5 		ldr	r3, [r3, #4]
 1301 0484 020053E1 		cmp	r3, r2
 1302 0488 1BFFFF1A 		bne	.L298
 1303 048c 930808E0 		mul	r8, r3, r8
 1304 0490 6BFFFFEA 		b	.L318
 1305              	.L435:
 1306 0494 0C2092E0 		adds	r2, r2, ip
 1307 0498 E4FEFF5A 		bpl	.L299
 1308 049c 16FFFFEA 		b	.L298
 1309              	.L308:
 1310 04a0 046045E2 		sub	r6, r5, #4
 1311 04a4 0190A0E3 		mov	r9, #1
 1312 04a8 0050A0E3 		mov	r5, #0
 1313 04ac 010000EA 		b	.L304
 1314              	.L428:
 1315 04b0 0C0055E1 		cmp	r5, ip
 1316 04b4 10FFFF0A 		beq	.L298
 1317              	.L304:
 1318 04b8 040055E1 		cmp	r5, r4
 1319 04bc 0480B6E5 		ldr	r8, [r6, #4]!
 1320 04c0 0DFFFF0A 		beq	.L298
 1321 04c4 047093E5 		ldr	r7, [r3, #4]
 1322 04c8 057197E7 		ldr	r7, [r7, r5, lsl #2]
 1323 04cc 080057E1 		cmp	r7, r8
 1324 04d0 09FFFF1A 		bne	.L298
 1325 04d4 015085E2 		add	r5, r5, #1
 1326 04d8 970909E0 		mul	r9, r7, r9
 1327 04dc 020055E1 		cmp	r5, r2
 1328 04e0 F2FFFF1A 		bne	.L428
 1329 04e4 012085E2 		add	r2, r5, #1
 1330 04e8 0C0052E1 		cmp	r2, ip
 1331 04ec 170000AA 		bge	.L342
 1332              	.L316:
 1333 04f0 040090E5 		ldr	r0, [r0, #4]
 1334 04f4 0760E0E3 		mvn	r6, #7
 1335 04f8 0180A0E3 		mov	r8, #1
 1336 04fc 006046E0 		sub	r6, r6, r0
 1337 0500 020180E0 		add	r0, r0, r2, lsl #2
 1338              	.L317:
 1339 0504 015042E2 		sub	r5, r2, #1
 1340 0508 047090E4 		ldr	r7, [r0], #4
 1341 050c 050054E1 		cmp	r4, r5
 1342 0510 F9FEFFDA 		ble	.L298
 1343 0514 045093E5 		ldr	r5, [r3, #4]
 1344 0518 005085E0 		add	r5, r5, r0
 1345 051c 065095E7 		ldr	r5, [r5, r6]
 1346 0520 070055E1 		cmp	r5, r7
 1347 0524 F4FEFF1A 		bne	.L298
 1348 0528 012082E2 		add	r2, r2, #1
 1349 052c 950808E0 		mul	r8, r5, r8
 1350 0530 0C0052E1 		cmp	r2, ip
 1351 0534 F2FFFFBA 		blt	.L317
 1352 0538 41FFFFEA 		b	.L318
 1353              	.L337:
 1354 053c 060054E1 		cmp	r4, r6
 1355 0540 0000A0E3 		mov	r0, #0
 1356 0544 040085E4 		str	r0, [r5], #4
 1357 0548 4BFFFF1A 		bne	.L320
 1358 054c 5AFFFFEA 		b	.L437
 1359              	.L342:
 1360 0550 0180A0E3 		mov	r8, #1
 1361 0554 3AFFFFEA 		b	.L318
 1362              	.L306:
 1363 0558 012082E2 		add	r2, r2, #1
 1364 055c 02005CE1 		cmp	ip, r2
 1365 0560 FAFFFFDA 		ble	.L342
 1366              	.L328:
 1367 0564 0251A0E1 		lsl	r5, r2, #2
 1368 0568 016042E2 		sub	r6, r2, #1
 1369 056c 060054E1 		cmp	r4, r6
 1370 0570 057080E0 		add	r7, r0, r5
 1371 0574 047097E5 		ldr	r7, [r7, #4]
 1372 0578 DFFEFFDA 		ble	.L298
 1373 057c 066183E0 		add	r6, r3, r6, lsl #2
 1374 0580 048096E5 		ldr	r8, [r6, #4]
 1375 0584 070058E1 		cmp	r8, r7
 1376 0588 DBFEFF1A 		bne	.L298
 1377 058c 01A082E2 		add	r10, r2, #1
 1378 0590 0A005CE1 		cmp	ip, r10
 1379 0594 2AFFFFDA 		ble	.L318
 1380 0598 0A61A0E1 		lsl	r6, r10, #2
 1381 059c 020054E1 		cmp	r4, r2
 1382 05a0 067080E0 		add	r7, r0, r6
 1383 05a4 04B097E5 		ldr	fp, [r7, #4]
 1384 05a8 D3FEFFDA 		ble	.L298
 1385 05ac 055083E0 		add	r5, r3, r5
 1386 05b0 045095E5 		ldr	r5, [r5, #4]
 1387 05b4 05005BE1 		cmp	fp, r5
 1388 05b8 CFFEFF1A 		bne	.L298
 1389 05bc 027082E2 		add	r7, r2, #2
 1390 05c0 9B0808E0 		mul	r8, fp, r8
 1391 05c4 07005CE1 		cmp	ip, r7
 1392 05c8 1DFFFFDA 		ble	.L318
 1393 05cc 0751A0E1 		lsl	r5, r7, #2
 1394 05d0 0A0054E1 		cmp	r4, r10
 1395 05d4 05A080E0 		add	r10, r0, r5
 1396 05d8 04A09AE5 		ldr	r10, [r10, #4]
 1397 05dc C6FEFFDA 		ble	.L298
 1398 05e0 066083E0 		add	r6, r3, r6
 1399 05e4 046096E5 		ldr	r6, [r6, #4]
 1400 05e8 0A0056E1 		cmp	r6, r10
 1401 05ec C2FEFF1A 		bne	.L298
 1402 05f0 032082E2 		add	r2, r2, #3
 1403 05f4 960808E0 		mul	r8, r6, r8
 1404 05f8 02005CE1 		cmp	ip, r2
 1405 05fc 10FFFFDA 		ble	.L318
 1406 0600 022180E0 		add	r2, r0, r2, lsl #2
 1407 0604 070054E1 		cmp	r4, r7
 1408 0608 042092E5 		ldr	r2, [r2, #4]
 1409 060c BAFEFFDA 		ble	.L298
 1410 0610 053083E0 		add	r3, r3, r5
 1411 0614 043093E5 		ldr	r3, [r3, #4]
 1412 0618 020053E1 		cmp	r3, r2
 1413 061c 07FFFF0A 		beq	.L431
 1414 0620 B5FEFFEA 		b	.L298
 1415              	.L301:
 1416 0624 01005CE3 		cmp	ip, #1
 1417 0628 0120A0E3 		mov	r2, #1
 1418 062c 080000DA 		ble	.L438
 1419 0630 05005CE3 		cmp	ip, #5
 1420 0634 0290A0E1 		mov	r9, r2
 1421 0638 020000CA 		bgt	.L313
 1422 063c 050054E3 		cmp	r4, #5
 1423 0640 C7FFFFDA 		ble	.L328
 1424 0644 D2FEFFEA 		b	.L314
 1425              	.L313:
 1426 0648 050054E3 		cmp	r4, #5
 1427 064c 58FFFFDA 		ble	.L327
 1428 0650 A6FFFFEA 		b	.L316
 1429              	.L438:
 1430 0654 0290A0E1 		mov	r9, r2
 1431 0658 0280A0E1 		mov	r8, r2
 1432 065c FCFEFFEA 		b	.L325
 1433              		.fnend
 1435              		.section	.text._ZN6tflite13reference_ops9ArgMinMaxIhllNS_3ops5micro4LessEEEvRKNS_12RuntimeShapeEPK
 1436              		.align	2
 1437              		.weak	_ZN6tflite13reference_ops9ArgMinMaxIhllNS_3ops5micro4LessEEEvRKNS_12RuntimeShapeEPKT_PKT1_S7
 1438              		.syntax unified
 1439              		.arm
 1440              		.fpu neon
 1442              	_ZN6tflite13reference_ops9ArgMinMaxIhllNS_3ops5micro4LessEEEvRKNS_12RuntimeShapeEPKT_PKT1_S7_PT0_RK
 1443              		.fnstart
 1444              	.LFB1979:
 1445              		@ args = 8, pretend = 0, frame = 8
 1446              		@ frame_needed = 0, uses_anonymous_args = 0
 1447 0000 00C090E5 		ldr	ip, [r0]
 1448 0004 F04F2DE9 		push	{r4, r5, r6, r7, r8, r9, r10, fp, lr}
 1449              		.save {r4, r5, r6, r7, r8, r9, r10, fp, lr}
 1450              		.pad #12
 1451 0008 0CD04DE2 		sub	sp, sp, #12
 1452 000c 00005CE3 		cmp	ip, #0
 1453 0010 390000DA 		ble	.L441
 1454 0014 00E093E5 		ldr	lr, [r3]
 1455 0018 01404CE2 		sub	r4, ip, #1
 1456 001c 0E0054E1 		cmp	r4, lr
 1457 0020 3500001A 		bne	.L441
 1458 0024 002092E5 		ldr	r2, [r2]
 1459 0028 000052E3 		cmp	r2, #0
 1460 002c 180100BA 		blt	.L578
 1461              	.L442:
 1462 0030 02005CE1 		cmp	ip, r2
 1463 0034 300000DA 		ble	.L441
 1464 0038 05005CE3 		cmp	ip, #5
 1465 003c A70000CA 		bgt	.L579
 1466 0040 02E180E0 		add	lr, r0, r2, lsl #2
 1467 0044 000052E3 		cmp	r2, #0
 1468 0048 04E09EE5 		ldr	lr, [lr, #4]
 1469 004c 7401000A 		beq	.L444
 1470 0050 050054E3 		cmp	r4, #5
 1471 0054 290000CA 		bgt	.L448
 1472 0058 000054E3 		cmp	r4, #0
 1473 005c 049090E5 		ldr	r9, [r0, #4]
 1474 0060 2500000A 		beq	.L441
 1475 0064 045093E5 		ldr	r5, [r3, #4]
 1476 0068 050059E1 		cmp	r9, r5
 1477 006c 2200001A 		bne	.L441
 1478 0070 010052E3 		cmp	r2, #1
 1479 0074 3701000A 		beq	.L449
 1480 0078 01005CE3 		cmp	ip, #1
 1481 007c 1E00000A 		beq	.L441
 1482 0080 010054E3 		cmp	r4, #1
 1483 0084 085090E5 		ldr	r5, [r0, #8]
 1484 0088 1B00000A 		beq	.L441
 1485 008c 086093E5 		ldr	r6, [r3, #8]
 1486 0090 060055E1 		cmp	r5, r6
 1487 0094 1800001A 		bne	.L441
 1488 0098 020052E3 		cmp	r2, #2
 1489 009c 950909E0 		mul	r9, r5, r9
 1490 00a0 2C01000A 		beq	.L449
 1491 00a4 02005CE3 		cmp	ip, #2
 1492 00a8 1300000A 		beq	.L441
 1493 00ac 020054E3 		cmp	r4, #2
 1494 00b0 0C5090E5 		ldr	r5, [r0, #12]
 1495 00b4 1000000A 		beq	.L441
 1496 00b8 0C6093E5 		ldr	r6, [r3, #12]
 1497 00bc 060055E1 		cmp	r5, r6
 1498 00c0 0D00001A 		bne	.L441
 1499 00c4 030052E3 		cmp	r2, #3
 1500 00c8 950909E0 		mul	r9, r5, r9
 1501 00cc 2101000A 		beq	.L449
 1502 00d0 03005CE3 		cmp	ip, #3
 1503 00d4 0800000A 		beq	.L441
 1504 00d8 030054E3 		cmp	r4, #3
 1505 00dc 105090E5 		ldr	r5, [r0, #16]
 1506 00e0 0500000A 		beq	.L441
 1507 00e4 106093E5 		ldr	r6, [r3, #16]
 1508 00e8 060055E1 		cmp	r5, r6
 1509 00ec 0200001A 		bne	.L441
 1510 00f0 040052E3 		cmp	r2, #4
 1511 00f4 950909E0 		mul	r9, r5, r9
 1512 00f8 1601000A 		beq	.L449
 1513              	.L441:
 1514 00fc FEFFFFEB 		bl	abort
 1515              	.L448:
 1516 0100 045093E5 		ldr	r5, [r3, #4]
 1517 0104 049090E5 		ldr	r9, [r0, #4]
 1518 0108 006095E5 		ldr	r6, [r5]
 1519 010c 060059E1 		cmp	r9, r6
 1520 0110 F9FFFF1A 		bne	.L441
 1521 0114 010052E3 		cmp	r2, #1
 1522 0118 1A00000A 		beq	.L450
 1523 011c 01005CE3 		cmp	ip, #1
 1524 0120 F5FFFF0A 		beq	.L441
 1525 0124 047095E5 		ldr	r7, [r5, #4]
 1526 0128 086090E5 		ldr	r6, [r0, #8]
 1527 012c 070056E1 		cmp	r6, r7
 1528 0130 F1FFFF1A 		bne	.L441
 1529 0134 020052E3 		cmp	r2, #2
 1530 0138 960909E0 		mul	r9, r6, r9
 1531 013c 1100000A 		beq	.L450
 1532 0140 02005CE3 		cmp	ip, #2
 1533 0144 ECFFFF0A 		beq	.L441
 1534 0148 087095E5 		ldr	r7, [r5, #8]
 1535 014c 0C6090E5 		ldr	r6, [r0, #12]
 1536 0150 070056E1 		cmp	r6, r7
 1537 0154 E8FFFF1A 		bne	.L441
 1538 0158 030052E3 		cmp	r2, #3
 1539 015c 960909E0 		mul	r9, r6, r9
 1540 0160 0800000A 		beq	.L450
 1541 0164 03005CE3 		cmp	ip, #3
 1542 0168 E3FFFF0A 		beq	.L441
 1543 016c 0C6095E5 		ldr	r6, [r5, #12]
 1544 0170 105090E5 		ldr	r5, [r0, #16]
 1545 0174 060055E1 		cmp	r5, r6
 1546 0178 DFFFFF1A 		bne	.L441
 1547 017c 040052E3 		cmp	r2, #4
 1548 0180 950909E0 		mul	r9, r5, r9
 1549 0184 DCFFFF1A 		bne	.L441
 1550              	.L450:
 1551 0188 012082E2 		add	r2, r2, #1
 1552 018c 02005CE1 		cmp	ip, r2
 1553 0190 EE0000DA 		ble	.L485
 1554              	.L457:
 1555 0194 015042E2 		sub	r5, r2, #1
 1556 0198 026180E0 		add	r6, r0, r2, lsl #2
 1557 019c 050054E1 		cmp	r4, r5
 1558 01a0 046096E5 		ldr	r6, [r6, #4]
 1559 01a4 D4FFFFDA 		ble	.L441
 1560 01a8 043093E5 		ldr	r3, [r3, #4]
 1561 01ac 0571A0E1 		lsl	r7, r5, #2
 1562 01b0 058193E7 		ldr	r8, [r3, r5, lsl #2]
 1563 01b4 060058E1 		cmp	r8, r6
 1564 01b8 CFFFFF1A 		bne	.L441
 1565 01bc 016082E2 		add	r6, r2, #1
 1566 01c0 06005CE1 		cmp	ip, r6
 1567 01c4 1E0000DA 		ble	.L461
 1568 01c8 065180E0 		add	r5, r0, r6, lsl #2
 1569 01cc 020054E1 		cmp	r4, r2
 1570 01d0 045095E5 		ldr	r5, [r5, #4]
 1571 01d4 C8FFFFDA 		ble	.L441
 1572 01d8 073083E0 		add	r3, r3, r7
 1573 01dc 047093E5 		ldr	r7, [r3, #4]
 1574 01e0 050057E1 		cmp	r7, r5
 1575 01e4 C4FFFF1A 		bne	.L441
 1576 01e8 025082E2 		add	r5, r2, #2
 1577 01ec 980708E0 		mul	r8, r8, r7
 1578 01f0 05005CE1 		cmp	ip, r5
 1579 01f4 120000DA 		ble	.L461
 1580 01f8 060054E1 		cmp	r4, r6
 1581 01fc 056180E0 		add	r6, r0, r5, lsl #2
 1582 0200 047096E5 		ldr	r7, [r6, #4]
 1583 0204 BCFFFFDA 		ble	.L441
 1584 0208 086093E5 		ldr	r6, [r3, #8]
 1585 020c 070056E1 		cmp	r6, r7
 1586 0210 B9FFFF1A 		bne	.L441
 1587 0214 032082E2 		add	r2, r2, #3
 1588 0218 960808E0 		mul	r8, r6, r8
 1589 021c 02005CE1 		cmp	ip, r2
 1590 0220 070000DA 		ble	.L461
 1591 0224 022180E0 		add	r2, r0, r2, lsl #2
 1592 0228 050054E1 		cmp	r4, r5
 1593 022c 042092E5 		ldr	r2, [r2, #4]
 1594 0230 B1FFFFDA 		ble	.L441
 1595 0234 0C3093E5 		ldr	r3, [r3, #12]
 1596 0238 020053E1 		cmp	r3, r2
 1597 023c AEFFFF1A 		bne	.L441
 1598              	.L574:
 1599 0240 920808E0 		mul	r8, r2, r8
 1600              	.L461:
 1601 0244 000059E3 		cmp	r9, #0
 1602 0248 220000DA 		ble	.L439
 1603 024c 000058E3 		cmp	r8, #0
 1604 0250 200000DA 		ble	.L439
 1605              	.L468:
 1606 0254 9E0803E0 		mul	r3, lr, r8
 1607 0258 30A09DE5 		ldr	r10, [sp, #48]
 1608 025c 086081E0 		add	r6, r1, r8
 1609 0260 00B0A0E3 		mov	fp, #0
 1610 0264 017048E2 		sub	r7, r8, #1
 1611 0268 00308DE5 		str	r3, [sp]
 1612 026c 0831A0E1 		lsl	r3, r8, #2
 1613 0270 04308DE5 		str	r3, [sp, #4]
 1614              	.L464:
 1615 0274 084046E0 		sub	r4, r6, r8
 1616 0278 0A50A0E1 		mov	r5, r10
 1617              	.L463:
 1618 027c 01005EE3 		cmp	lr, #1
 1619 0280 0120D4E4 		ldrb	r2, [r4], #1	@ zero_extendqisi2
 1620 0284 AC0000DA 		ble	.L480
 1621 0288 04C087E0 		add	ip, r7, r4
 1622 028c 0130A0E3 		mov	r3, #1
 1623 0290 0000A0E3 		mov	r0, #0
 1624              	.L466:
 1625 0294 0810DCE6 		ldrb	r1, [ip], r8	@ zero_extendqisi2
 1626 0298 020051E1 		cmp	r1, r2
 1627 029c 0300A0B1 		movlt	r0, r3
 1628 02a0 013083E2 		add	r3, r3, #1
 1629 02a4 0120A0B1 		movlt	r2, r1
 1630 02a8 0E0053E1 		cmp	r3, lr
 1631 02ac F8FFFF1A 		bne	.L466
 1632 02b0 060054E1 		cmp	r4, r6
 1633 02b4 040085E4 		str	r0, [r5], #4
 1634 02b8 EFFFFF1A 		bne	.L463
 1635              	.L580:
 1636 02bc 00309DE5 		ldr	r3, [sp]
 1637 02c0 01B08BE2 		add	fp, fp, #1
 1638 02c4 09005BE1 		cmp	fp, r9
 1639 02c8 036086E0 		add	r6, r6, r3
 1640 02cc 04309DE5 		ldr	r3, [sp, #4]
 1641 02d0 03A08AE0 		add	r10, r10, r3
 1642 02d4 E6FFFFBA 		blt	.L464
 1643              	.L439:
 1644 02d8 0CD08DE2 		add	sp, sp, #12
 1645              		@ sp needed
 1646 02dc F08FBDE8 		pop	{r4, r5, r6, r7, r8, r9, r10, fp, pc}
 1647              	.L579:
 1648 02e0 045090E5 		ldr	r5, [r0, #4]
 1649 02e4 000052E3 		cmp	r2, #0
 1650 02e8 02E195E7 		ldr	lr, [r5, r2, lsl #2]
 1651 02ec CC00000A 		beq	.L444
 1652 02f0 050054E3 		cmp	r4, #5
 1653 02f4 690000CA 		bgt	.L451
 1654 02f8 000054E3 		cmp	r4, #0
 1655 02fc 009095E5 		ldr	r9, [r5]
 1656 0300 7DFFFF0A 		beq	.L441
 1657 0304 046093E5 		ldr	r6, [r3, #4]
 1658 0308 060059E1 		cmp	r9, r6
 1659 030c 7AFFFF1A 		bne	.L441
 1660 0310 010052E3 		cmp	r2, #1
 1661 0314 2300000A 		beq	.L452
 1662 0318 010054E3 		cmp	r4, #1
 1663 031c 046095E5 		ldr	r6, [r5, #4]
 1664 0320 75FFFF0A 		beq	.L441
 1665 0324 087093E5 		ldr	r7, [r3, #8]
 1666 0328 070056E1 		cmp	r6, r7
 1667 032c 72FFFF1A 		bne	.L441
 1668 0330 020052E3 		cmp	r2, #2
 1669 0334 960909E0 		mul	r9, r6, r9
 1670 0338 1A00000A 		beq	.L452
 1671 033c 020054E3 		cmp	r4, #2
 1672 0340 086095E5 		ldr	r6, [r5, #8]
 1673 0344 6CFFFF0A 		beq	.L441
 1674 0348 0C7093E5 		ldr	r7, [r3, #12]
 1675 034c 070056E1 		cmp	r6, r7
 1676 0350 69FFFF1A 		bne	.L441
 1677 0354 030052E3 		cmp	r2, #3
 1678 0358 960909E0 		mul	r9, r6, r9
 1679 035c 1100000A 		beq	.L452
 1680 0360 030054E3 		cmp	r4, #3
 1681 0364 0C6095E5 		ldr	r6, [r5, #12]
 1682 0368 63FFFF0A 		beq	.L441
 1683 036c 107093E5 		ldr	r7, [r3, #16]
 1684 0370 070056E1 		cmp	r6, r7
 1685 0374 60FFFF1A 		bne	.L441
 1686 0378 040052E3 		cmp	r2, #4
 1687 037c 960909E0 		mul	r9, r6, r9
 1688 0380 0800000A 		beq	.L452
 1689 0384 050054E3 		cmp	r4, #5
 1690 0388 105095E5 		ldr	r5, [r5, #16]
 1691 038c 5AFFFF1A 		bne	.L441
 1692 0390 146093E5 		ldr	r6, [r3, #20]
 1693 0394 060055E1 		cmp	r5, r6
 1694 0398 57FFFF1A 		bne	.L441
 1695 039c 050052E3 		cmp	r2, #5
 1696 03a0 950909E0 		mul	r9, r5, r9
 1697 03a4 54FFFF1A 		bne	.L441
 1698              	.L452:
 1699 03a8 012082E2 		add	r2, r2, #1
 1700 03ac 0C0052E1 		cmp	r2, ip
 1701 03b0 660000AA 		bge	.L485
 1702              	.L470:
 1703 03b4 040090E5 		ldr	r0, [r0, #4]
 1704 03b8 015042E2 		sub	r5, r2, #1
 1705 03bc 050054E1 		cmp	r4, r5
 1706 03c0 0261A0E1 		lsl	r6, r2, #2
 1707 03c4 028190E7 		ldr	r8, [r0, r2, lsl #2]
 1708 03c8 4BFFFFDA 		ble	.L441
 1709 03cc 055183E0 		add	r5, r3, r5, lsl #2
 1710 03d0 045095E5 		ldr	r5, [r5, #4]
 1711 03d4 050058E1 		cmp	r8, r5
 1712 03d8 47FFFF1A 		bne	.L441
 1713 03dc 015082E2 		add	r5, r2, #1
 1714 03e0 05005CE1 		cmp	ip, r5
 1715 03e4 96FFFFDA 		ble	.L461
 1716 03e8 020054E1 		cmp	r4, r2
 1717 03ec 060080E0 		add	r0, r0, r6
 1718 03f0 047090E5 		ldr	r7, [r0, #4]
 1719 03f4 40FFFFDA 		ble	.L441
 1720 03f8 066083E0 		add	r6, r3, r6
 1721 03fc 046096E5 		ldr	r6, [r6, #4]
 1722 0400 060057E1 		cmp	r7, r6
 1723 0404 3CFFFF1A 		bne	.L441
 1724 0408 026082E2 		add	r6, r2, #2
 1725 040c 970808E0 		mul	r8, r7, r8
 1726 0410 06005CE1 		cmp	ip, r6
 1727 0414 8AFFFFDA 		ble	.L461
 1728 0418 050054E1 		cmp	r4, r5
 1729 041c 087090E5 		ldr	r7, [r0, #8]
 1730 0420 35FFFFDA 		ble	.L441
 1731 0424 055183E0 		add	r5, r3, r5, lsl #2
 1732 0428 045095E5 		ldr	r5, [r5, #4]
 1733 042c 050057E1 		cmp	r7, r5
 1734 0430 31FFFF1A 		bne	.L441
 1735 0434 035082E2 		add	r5, r2, #3
 1736 0438 970808E0 		mul	r8, r7, r8
 1737 043c 05005CE1 		cmp	ip, r5
 1738 0440 7FFFFFDA 		ble	.L461
 1739 0444 060054E1 		cmp	r4, r6
 1740 0448 0C7090E5 		ldr	r7, [r0, #12]
 1741 044c 2AFFFFDA 		ble	.L441
 1742 0450 066183E0 		add	r6, r3, r6, lsl #2
 1743 0454 046096E5 		ldr	r6, [r6, #4]
 1744 0458 060057E1 		cmp	r7, r6
 1745 045c 26FFFF1A 		bne	.L441
 1746 0460 042082E2 		add	r2, r2, #4
 1747 0464 970808E0 		mul	r8, r7, r8
 1748 0468 02005CE1 		cmp	ip, r2
 1749 046c 74FFFFDA 		ble	.L461
 1750 0470 040055E1 		cmp	r5, r4
 1751 0474 102090E5 		ldr	r2, [r0, #16]
 1752 0478 1FFFFFAA 		bge	.L441
 1753 047c 053183E0 		add	r3, r3, r5, lsl #2
 1754 0480 043093E5 		ldr	r3, [r3, #4]
 1755 0484 020053E1 		cmp	r3, r2
 1756 0488 1BFFFF1A 		bne	.L441
 1757 048c 930808E0 		mul	r8, r3, r8
 1758 0490 6BFFFFEA 		b	.L461
 1759              	.L578:
 1760 0494 0C2092E0 		adds	r2, r2, ip
 1761 0498 E4FEFF5A 		bpl	.L442
 1762 049c 16FFFFEA 		b	.L441
 1763              	.L451:
 1764 04a0 046045E2 		sub	r6, r5, #4
 1765 04a4 0190A0E3 		mov	r9, #1
 1766 04a8 0050A0E3 		mov	r5, #0
 1767 04ac 010000EA 		b	.L447
 1768              	.L571:
 1769 04b0 0C0055E1 		cmp	r5, ip
 1770 04b4 10FFFF0A 		beq	.L441
 1771              	.L447:
 1772 04b8 040055E1 		cmp	r5, r4
 1773 04bc 0480B6E5 		ldr	r8, [r6, #4]!
 1774 04c0 0DFFFF0A 		beq	.L441
 1775 04c4 047093E5 		ldr	r7, [r3, #4]
 1776 04c8 057197E7 		ldr	r7, [r7, r5, lsl #2]
 1777 04cc 080057E1 		cmp	r7, r8
 1778 04d0 09FFFF1A 		bne	.L441
 1779 04d4 015085E2 		add	r5, r5, #1
 1780 04d8 970909E0 		mul	r9, r7, r9
 1781 04dc 020055E1 		cmp	r5, r2
 1782 04e0 F2FFFF1A 		bne	.L571
 1783 04e4 012085E2 		add	r2, r5, #1
 1784 04e8 0C0052E1 		cmp	r2, ip
 1785 04ec 170000AA 		bge	.L485
 1786              	.L459:
 1787 04f0 040090E5 		ldr	r0, [r0, #4]
 1788 04f4 0760E0E3 		mvn	r6, #7
 1789 04f8 0180A0E3 		mov	r8, #1
 1790 04fc 006046E0 		sub	r6, r6, r0
 1791 0500 020180E0 		add	r0, r0, r2, lsl #2
 1792              	.L460:
 1793 0504 015042E2 		sub	r5, r2, #1
 1794 0508 047090E4 		ldr	r7, [r0], #4
 1795 050c 050054E1 		cmp	r4, r5
 1796 0510 F9FEFFDA 		ble	.L441
 1797 0514 045093E5 		ldr	r5, [r3, #4]
 1798 0518 005085E0 		add	r5, r5, r0
 1799 051c 065095E7 		ldr	r5, [r5, r6]
 1800 0520 070055E1 		cmp	r5, r7
 1801 0524 F4FEFF1A 		bne	.L441
 1802 0528 012082E2 		add	r2, r2, #1
 1803 052c 950808E0 		mul	r8, r5, r8
 1804 0530 0C0052E1 		cmp	r2, ip
 1805 0534 F2FFFFBA 		blt	.L460
 1806 0538 41FFFFEA 		b	.L461
 1807              	.L480:
 1808 053c 060054E1 		cmp	r4, r6
 1809 0540 0000A0E3 		mov	r0, #0
 1810 0544 040085E4 		str	r0, [r5], #4
 1811 0548 4BFFFF1A 		bne	.L463
 1812 054c 5AFFFFEA 		b	.L580
 1813              	.L485:
 1814 0550 0180A0E3 		mov	r8, #1
 1815 0554 3AFFFFEA 		b	.L461
 1816              	.L449:
 1817 0558 012082E2 		add	r2, r2, #1
 1818 055c 02005CE1 		cmp	ip, r2
 1819 0560 FAFFFFDA 		ble	.L485
 1820              	.L471:
 1821 0564 0251A0E1 		lsl	r5, r2, #2
 1822 0568 016042E2 		sub	r6, r2, #1
 1823 056c 060054E1 		cmp	r4, r6
 1824 0570 057080E0 		add	r7, r0, r5
 1825 0574 047097E5 		ldr	r7, [r7, #4]
 1826 0578 DFFEFFDA 		ble	.L441
 1827 057c 066183E0 		add	r6, r3, r6, lsl #2
 1828 0580 048096E5 		ldr	r8, [r6, #4]
 1829 0584 070058E1 		cmp	r8, r7
 1830 0588 DBFEFF1A 		bne	.L441
 1831 058c 01A082E2 		add	r10, r2, #1
 1832 0590 0A005CE1 		cmp	ip, r10
 1833 0594 2AFFFFDA 		ble	.L461
 1834 0598 0A61A0E1 		lsl	r6, r10, #2
 1835 059c 020054E1 		cmp	r4, r2
 1836 05a0 067080E0 		add	r7, r0, r6
 1837 05a4 04B097E5 		ldr	fp, [r7, #4]
 1838 05a8 D3FEFFDA 		ble	.L441
 1839 05ac 055083E0 		add	r5, r3, r5
 1840 05b0 045095E5 		ldr	r5, [r5, #4]
 1841 05b4 05005BE1 		cmp	fp, r5
 1842 05b8 CFFEFF1A 		bne	.L441
 1843 05bc 027082E2 		add	r7, r2, #2
 1844 05c0 9B0808E0 		mul	r8, fp, r8
 1845 05c4 07005CE1 		cmp	ip, r7
 1846 05c8 1DFFFFDA 		ble	.L461
 1847 05cc 0751A0E1 		lsl	r5, r7, #2
 1848 05d0 0A0054E1 		cmp	r4, r10
 1849 05d4 05A080E0 		add	r10, r0, r5
 1850 05d8 04A09AE5 		ldr	r10, [r10, #4]
 1851 05dc C6FEFFDA 		ble	.L441
 1852 05e0 066083E0 		add	r6, r3, r6
 1853 05e4 046096E5 		ldr	r6, [r6, #4]
 1854 05e8 0A0056E1 		cmp	r6, r10
 1855 05ec C2FEFF1A 		bne	.L441
 1856 05f0 032082E2 		add	r2, r2, #3
 1857 05f4 960808E0 		mul	r8, r6, r8
 1858 05f8 02005CE1 		cmp	ip, r2
 1859 05fc 10FFFFDA 		ble	.L461
 1860 0600 022180E0 		add	r2, r0, r2, lsl #2
 1861 0604 070054E1 		cmp	r4, r7
 1862 0608 042092E5 		ldr	r2, [r2, #4]
 1863 060c BAFEFFDA 		ble	.L441
 1864 0610 053083E0 		add	r3, r3, r5
 1865 0614 043093E5 		ldr	r3, [r3, #4]
 1866 0618 020053E1 		cmp	r3, r2
 1867 061c 07FFFF0A 		beq	.L574
 1868 0620 B5FEFFEA 		b	.L441
 1869              	.L444:
 1870 0624 01005CE3 		cmp	ip, #1
 1871 0628 0120A0E3 		mov	r2, #1
 1872 062c 080000DA 		ble	.L581
 1873 0630 05005CE3 		cmp	ip, #5
 1874 0634 0290A0E1 		mov	r9, r2
 1875 0638 020000CA 		bgt	.L456
 1876 063c 050054E3 		cmp	r4, #5
 1877 0640 C7FFFFDA 		ble	.L471
 1878 0644 D2FEFFEA 		b	.L457
 1879              	.L456:
 1880 0648 050054E3 		cmp	r4, #5
 1881 064c 58FFFFDA 		ble	.L470
 1882 0650 A6FFFFEA 		b	.L459
 1883              	.L581:
 1884 0654 0290A0E1 		mov	r9, r2
 1885 0658 0280A0E1 		mov	r8, r2
 1886 065c FCFEFFEA 		b	.L468
 1887              		.fnend
 1889              		.section	.text._ZN6tflite13reference_ops9ArgMinMaxIallNS_3ops5micro7GreaterEEEvRKNS_12RuntimeShape
 1890              		.align	2
 1891              		.weak	_ZN6tflite13reference_ops9ArgMinMaxIallNS_3ops5micro7GreaterEEEvRKNS_12RuntimeShapeEPKT_PKT1
 1892              		.syntax unified
 1893              		.arm
 1894              		.fpu neon
 1896              	_ZN6tflite13reference_ops9ArgMinMaxIallNS_3ops5micro7GreaterEEEvRKNS_12RuntimeShapeEPKT_PKT1_S7_PT0
 1897              		.fnstart
 1898              	.LFB1980:
 1899              		@ args = 8, pretend = 0, frame = 8
 1900              		@ frame_needed = 0, uses_anonymous_args = 0
 1901 0000 00C090E5 		ldr	ip, [r0]
 1902 0004 F04F2DE9 		push	{r4, r5, r6, r7, r8, r9, r10, fp, lr}
 1903              		.save {r4, r5, r6, r7, r8, r9, r10, fp, lr}
 1904              		.pad #12
 1905 0008 0CD04DE2 		sub	sp, sp, #12
 1906 000c 00005CE3 		cmp	ip, #0
 1907 0010 390000DA 		ble	.L584
 1908 0014 00E093E5 		ldr	lr, [r3]
 1909 0018 01404CE2 		sub	r4, ip, #1
 1910 001c 0E0054E1 		cmp	r4, lr
 1911 0020 3500001A 		bne	.L584
 1912 0024 002092E5 		ldr	r2, [r2]
 1913 0028 000052E3 		cmp	r2, #0
 1914 002c 190100BA 		blt	.L721
 1915              	.L585:
 1916 0030 02005CE1 		cmp	ip, r2
 1917 0034 300000DA 		ble	.L584
 1918 0038 05005CE3 		cmp	ip, #5
 1919 003c A80000CA 		bgt	.L722
 1920 0040 02E180E0 		add	lr, r0, r2, lsl #2
 1921 0044 000052E3 		cmp	r2, #0
 1922 0048 04E09EE5 		ldr	lr, [lr, #4]
 1923 004c 7501000A 		beq	.L587
 1924 0050 050054E3 		cmp	r4, #5
 1925 0054 290000CA 		bgt	.L591
 1926 0058 000054E3 		cmp	r4, #0
 1927 005c 049090E5 		ldr	r9, [r0, #4]
 1928 0060 2500000A 		beq	.L584
 1929 0064 045093E5 		ldr	r5, [r3, #4]
 1930 0068 050059E1 		cmp	r9, r5
 1931 006c 2200001A 		bne	.L584
 1932 0070 010052E3 		cmp	r2, #1
 1933 0074 3801000A 		beq	.L592
 1934 0078 01005CE3 		cmp	ip, #1
 1935 007c 1E00000A 		beq	.L584
 1936 0080 010054E3 		cmp	r4, #1
 1937 0084 085090E5 		ldr	r5, [r0, #8]
 1938 0088 1B00000A 		beq	.L584
 1939 008c 086093E5 		ldr	r6, [r3, #8]
 1940 0090 060055E1 		cmp	r5, r6
 1941 0094 1800001A 		bne	.L584
 1942 0098 020052E3 		cmp	r2, #2
 1943 009c 950909E0 		mul	r9, r5, r9
 1944 00a0 2D01000A 		beq	.L592
 1945 00a4 02005CE3 		cmp	ip, #2
 1946 00a8 1300000A 		beq	.L584
 1947 00ac 020054E3 		cmp	r4, #2
 1948 00b0 0C5090E5 		ldr	r5, [r0, #12]
 1949 00b4 1000000A 		beq	.L584
 1950 00b8 0C6093E5 		ldr	r6, [r3, #12]
 1951 00bc 060055E1 		cmp	r5, r6
 1952 00c0 0D00001A 		bne	.L584
 1953 00c4 030052E3 		cmp	r2, #3
 1954 00c8 950909E0 		mul	r9, r5, r9
 1955 00cc 2201000A 		beq	.L592
 1956 00d0 03005CE3 		cmp	ip, #3
 1957 00d4 0800000A 		beq	.L584
 1958 00d8 030054E3 		cmp	r4, #3
 1959 00dc 105090E5 		ldr	r5, [r0, #16]
 1960 00e0 0500000A 		beq	.L584
 1961 00e4 106093E5 		ldr	r6, [r3, #16]
 1962 00e8 060055E1 		cmp	r5, r6
 1963 00ec 0200001A 		bne	.L584
 1964 00f0 040052E3 		cmp	r2, #4
 1965 00f4 950909E0 		mul	r9, r5, r9
 1966 00f8 1701000A 		beq	.L592
 1967              	.L584:
 1968 00fc FEFFFFEB 		bl	abort
 1969              	.L591:
 1970 0100 045093E5 		ldr	r5, [r3, #4]
 1971 0104 049090E5 		ldr	r9, [r0, #4]
 1972 0108 006095E5 		ldr	r6, [r5]
 1973 010c 060059E1 		cmp	r9, r6
 1974 0110 F9FFFF1A 		bne	.L584
 1975 0114 010052E3 		cmp	r2, #1
 1976 0118 1A00000A 		beq	.L593
 1977 011c 01005CE3 		cmp	ip, #1
 1978 0120 F5FFFF0A 		beq	.L584
 1979 0124 086090E5 		ldr	r6, [r0, #8]
 1980 0128 047095E5 		ldr	r7, [r5, #4]
 1981 012c 070056E1 		cmp	r6, r7
 1982 0130 F1FFFF1A 		bne	.L584
 1983 0134 020052E3 		cmp	r2, #2
 1984 0138 960909E0 		mul	r9, r6, r9
 1985 013c 1100000A 		beq	.L593
 1986 0140 02005CE3 		cmp	ip, #2
 1987 0144 ECFFFF0A 		beq	.L584
 1988 0148 0C6090E5 		ldr	r6, [r0, #12]
 1989 014c 087095E5 		ldr	r7, [r5, #8]
 1990 0150 070056E1 		cmp	r6, r7
 1991 0154 E8FFFF1A 		bne	.L584
 1992 0158 030052E3 		cmp	r2, #3
 1993 015c 960909E0 		mul	r9, r6, r9
 1994 0160 0800000A 		beq	.L593
 1995 0164 03005CE3 		cmp	ip, #3
 1996 0168 E3FFFF0A 		beq	.L584
 1997 016c 0C6095E5 		ldr	r6, [r5, #12]
 1998 0170 105090E5 		ldr	r5, [r0, #16]
 1999 0174 060055E1 		cmp	r5, r6
 2000 0178 DFFFFF1A 		bne	.L584
 2001 017c 040052E3 		cmp	r2, #4
 2002 0180 950909E0 		mul	r9, r5, r9
 2003 0184 DCFFFF1A 		bne	.L584
 2004              	.L593:
 2005 0188 012082E2 		add	r2, r2, #1
 2006 018c 02005CE1 		cmp	ip, r2
 2007 0190 EF0000DA 		ble	.L628
 2008              	.L600:
 2009 0194 015042E2 		sub	r5, r2, #1
 2010 0198 026180E0 		add	r6, r0, r2, lsl #2
 2011 019c 050054E1 		cmp	r4, r5
 2012 01a0 046096E5 		ldr	r6, [r6, #4]
 2013 01a4 D4FFFFDA 		ble	.L584
 2014 01a8 043093E5 		ldr	r3, [r3, #4]
 2015 01ac 0571A0E1 		lsl	r7, r5, #2
 2016 01b0 058193E7 		ldr	r8, [r3, r5, lsl #2]
 2017 01b4 060058E1 		cmp	r8, r6
 2018 01b8 CFFFFF1A 		bne	.L584
 2019 01bc 016082E2 		add	r6, r2, #1
 2020 01c0 06005CE1 		cmp	ip, r6
 2021 01c4 1E0000DA 		ble	.L604
 2022 01c8 065180E0 		add	r5, r0, r6, lsl #2
 2023 01cc 020054E1 		cmp	r4, r2
 2024 01d0 045095E5 		ldr	r5, [r5, #4]
 2025 01d4 C8FFFFDA 		ble	.L584
 2026 01d8 073083E0 		add	r3, r3, r7
 2027 01dc 047093E5 		ldr	r7, [r3, #4]
 2028 01e0 050057E1 		cmp	r7, r5
 2029 01e4 C4FFFF1A 		bne	.L584
 2030 01e8 025082E2 		add	r5, r2, #2
 2031 01ec 980708E0 		mul	r8, r8, r7
 2032 01f0 05005CE1 		cmp	ip, r5
 2033 01f4 120000DA 		ble	.L604
 2034 01f8 060054E1 		cmp	r4, r6
 2035 01fc 056180E0 		add	r6, r0, r5, lsl #2
 2036 0200 046096E5 		ldr	r6, [r6, #4]
 2037 0204 BCFFFFDA 		ble	.L584
 2038 0208 087093E5 		ldr	r7, [r3, #8]
 2039 020c 070056E1 		cmp	r6, r7
 2040 0210 B9FFFF1A 		bne	.L584
 2041 0214 032082E2 		add	r2, r2, #3
 2042 0218 960808E0 		mul	r8, r6, r8
 2043 021c 02005CE1 		cmp	ip, r2
 2044 0220 070000DA 		ble	.L604
 2045 0224 022180E0 		add	r2, r0, r2, lsl #2
 2046 0228 050054E1 		cmp	r4, r5
 2047 022c 042092E5 		ldr	r2, [r2, #4]
 2048 0230 B1FFFFDA 		ble	.L584
 2049 0234 0C3093E5 		ldr	r3, [r3, #12]
 2050 0238 020053E1 		cmp	r3, r2
 2051 023c AEFFFF1A 		bne	.L584
 2052              	.L717:
 2053 0240 920808E0 		mul	r8, r2, r8
 2054              	.L604:
 2055 0244 000059E3 		cmp	r9, #0
 2056 0248 230000DA 		ble	.L582
 2057 024c 000058E3 		cmp	r8, #0
 2058 0250 210000DA 		ble	.L582
 2059              	.L611:
 2060 0254 9E0803E0 		mul	r3, lr, r8
 2061 0258 30A09DE5 		ldr	r10, [sp, #48]
 2062 025c 086081E0 		add	r6, r1, r8
 2063 0260 00B0A0E3 		mov	fp, #0
 2064 0264 017048E2 		sub	r7, r8, #1
 2065 0268 00308DE5 		str	r3, [sp]
 2066 026c 0831A0E1 		lsl	r3, r8, #2
 2067 0270 04308DE5 		str	r3, [sp, #4]
 2068              	.L607:
 2069 0274 084046E0 		sub	r4, r6, r8
 2070 0278 0A50A0E1 		mov	r5, r10
 2071              	.L606:
 2072 027c 01005EE3 		cmp	lr, #1
 2073 0280 D130D4E0 		ldrsb	r3, [r4], #1
 2074 0284 AD0000DA 		ble	.L623
 2075 0288 04C087E0 		add	ip, r7, r4
 2076 028c 0120A0E3 		mov	r2, #1
 2077 0290 0000A0E3 		mov	r0, #0
 2078              	.L609:
 2079 0294 D8109CE0 		ldrsb	r1, [ip], r8
 2080 0298 010053E1 		cmp	r3, r1
 2081 029c 0200A0B1 		movlt	r0, r2
 2082 02a0 010053E1 		cmp	r3, r1
 2083 02a4 012082E2 		add	r2, r2, #1
 2084 02a8 0130A0B1 		movlt	r3, r1
 2085 02ac 0E0052E1 		cmp	r2, lr
 2086 02b0 F7FFFF1A 		bne	.L609
 2087 02b4 060054E1 		cmp	r4, r6
 2088 02b8 040085E4 		str	r0, [r5], #4
 2089 02bc EEFFFF1A 		bne	.L606
 2090              	.L723:
 2091 02c0 00309DE5 		ldr	r3, [sp]
 2092 02c4 01B08BE2 		add	fp, fp, #1
 2093 02c8 09005BE1 		cmp	fp, r9
 2094 02cc 036086E0 		add	r6, r6, r3
 2095 02d0 04309DE5 		ldr	r3, [sp, #4]
 2096 02d4 03A08AE0 		add	r10, r10, r3
 2097 02d8 E5FFFFBA 		blt	.L607
 2098              	.L582:
 2099 02dc 0CD08DE2 		add	sp, sp, #12
 2100              		@ sp needed
 2101 02e0 F08FBDE8 		pop	{r4, r5, r6, r7, r8, r9, r10, fp, pc}
 2102              	.L722:
 2103 02e4 045090E5 		ldr	r5, [r0, #4]
 2104 02e8 000052E3 		cmp	r2, #0
 2105 02ec 02E195E7 		ldr	lr, [r5, r2, lsl #2]
 2106 02f0 CC00000A 		beq	.L587
 2107 02f4 050054E3 		cmp	r4, #5
 2108 02f8 690000CA 		bgt	.L594
 2109 02fc 000054E3 		cmp	r4, #0
 2110 0300 009095E5 		ldr	r9, [r5]
 2111 0304 7CFFFF0A 		beq	.L584
 2112 0308 046093E5 		ldr	r6, [r3, #4]
 2113 030c 060059E1 		cmp	r9, r6
 2114 0310 79FFFF1A 		bne	.L584
 2115 0314 010052E3 		cmp	r2, #1
 2116 0318 2300000A 		beq	.L595
 2117 031c 010054E3 		cmp	r4, #1
 2118 0320 046095E5 		ldr	r6, [r5, #4]
 2119 0324 74FFFF0A 		beq	.L584
 2120 0328 087093E5 		ldr	r7, [r3, #8]
 2121 032c 070056E1 		cmp	r6, r7
 2122 0330 71FFFF1A 		bne	.L584
 2123 0334 020052E3 		cmp	r2, #2
 2124 0338 960909E0 		mul	r9, r6, r9
 2125 033c 1A00000A 		beq	.L595
 2126 0340 020054E3 		cmp	r4, #2
 2127 0344 086095E5 		ldr	r6, [r5, #8]
 2128 0348 6BFFFF0A 		beq	.L584
 2129 034c 0C7093E5 		ldr	r7, [r3, #12]
 2130 0350 070056E1 		cmp	r6, r7
 2131 0354 68FFFF1A 		bne	.L584
 2132 0358 030052E3 		cmp	r2, #3
 2133 035c 960909E0 		mul	r9, r6, r9
 2134 0360 1100000A 		beq	.L595
 2135 0364 030054E3 		cmp	r4, #3
 2136 0368 0C6095E5 		ldr	r6, [r5, #12]
 2137 036c 62FFFF0A 		beq	.L584
 2138 0370 107093E5 		ldr	r7, [r3, #16]
 2139 0374 070056E1 		cmp	r6, r7
 2140 0378 5FFFFF1A 		bne	.L584
 2141 037c 040052E3 		cmp	r2, #4
 2142 0380 960909E0 		mul	r9, r6, r9
 2143 0384 0800000A 		beq	.L595
 2144 0388 050054E3 		cmp	r4, #5
 2145 038c 105095E5 		ldr	r5, [r5, #16]
 2146 0390 59FFFF1A 		bne	.L584
 2147 0394 146093E5 		ldr	r6, [r3, #20]
 2148 0398 060055E1 		cmp	r5, r6
 2149 039c 56FFFF1A 		bne	.L584
 2150 03a0 050052E3 		cmp	r2, #5
 2151 03a4 950909E0 		mul	r9, r5, r9
 2152 03a8 53FFFF1A 		bne	.L584
 2153              	.L595:
 2154 03ac 012082E2 		add	r2, r2, #1
 2155 03b0 0C0052E1 		cmp	r2, ip
 2156 03b4 660000AA 		bge	.L628
 2157              	.L613:
 2158 03b8 040090E5 		ldr	r0, [r0, #4]
 2159 03bc 015042E2 		sub	r5, r2, #1
 2160 03c0 050054E1 		cmp	r4, r5
 2161 03c4 0261A0E1 		lsl	r6, r2, #2
 2162 03c8 028190E7 		ldr	r8, [r0, r2, lsl #2]
 2163 03cc 4AFFFFDA 		ble	.L584
 2164 03d0 055183E0 		add	r5, r3, r5, lsl #2
 2165 03d4 045095E5 		ldr	r5, [r5, #4]
 2166 03d8 050058E1 		cmp	r8, r5
 2167 03dc 46FFFF1A 		bne	.L584
 2168 03e0 015082E2 		add	r5, r2, #1
 2169 03e4 05005CE1 		cmp	ip, r5
 2170 03e8 95FFFFDA 		ble	.L604
 2171 03ec 020054E1 		cmp	r4, r2
 2172 03f0 060080E0 		add	r0, r0, r6
 2173 03f4 047090E5 		ldr	r7, [r0, #4]
 2174 03f8 3FFFFFDA 		ble	.L584
 2175 03fc 066083E0 		add	r6, r3, r6
 2176 0400 046096E5 		ldr	r6, [r6, #4]
 2177 0404 060057E1 		cmp	r7, r6
 2178 0408 3BFFFF1A 		bne	.L584
 2179 040c 026082E2 		add	r6, r2, #2
 2180 0410 970808E0 		mul	r8, r7, r8
 2181 0414 06005CE1 		cmp	ip, r6
 2182 0418 89FFFFDA 		ble	.L604
 2183 041c 050054E1 		cmp	r4, r5
 2184 0420 087090E5 		ldr	r7, [r0, #8]
 2185 0424 34FFFFDA 		ble	.L584
 2186 0428 055183E0 		add	r5, r3, r5, lsl #2
 2187 042c 045095E5 		ldr	r5, [r5, #4]
 2188 0430 050057E1 		cmp	r7, r5
 2189 0434 30FFFF1A 		bne	.L584
 2190 0438 035082E2 		add	r5, r2, #3
 2191 043c 970808E0 		mul	r8, r7, r8
 2192 0440 05005CE1 		cmp	ip, r5
 2193 0444 7EFFFFDA 		ble	.L604
 2194 0448 060054E1 		cmp	r4, r6
 2195 044c 0C7090E5 		ldr	r7, [r0, #12]
 2196 0450 29FFFFDA 		ble	.L584
 2197 0454 066183E0 		add	r6, r3, r6, lsl #2
 2198 0458 046096E5 		ldr	r6, [r6, #4]
 2199 045c 060057E1 		cmp	r7, r6
 2200 0460 25FFFF1A 		bne	.L584
 2201 0464 042082E2 		add	r2, r2, #4
 2202 0468 970808E0 		mul	r8, r7, r8
 2203 046c 02005CE1 		cmp	ip, r2
 2204 0470 73FFFFDA 		ble	.L604
 2205 0474 040055E1 		cmp	r5, r4
 2206 0478 102090E5 		ldr	r2, [r0, #16]
 2207 047c 1EFFFFAA 		bge	.L584
 2208 0480 053183E0 		add	r3, r3, r5, lsl #2
 2209 0484 043093E5 		ldr	r3, [r3, #4]
 2210 0488 020053E1 		cmp	r3, r2
 2211 048c 1AFFFF1A 		bne	.L584
 2212 0490 930808E0 		mul	r8, r3, r8
 2213 0494 6AFFFFEA 		b	.L604
 2214              	.L721:
 2215 0498 0C2092E0 		adds	r2, r2, ip
 2216 049c E3FEFF5A 		bpl	.L585
 2217 04a0 15FFFFEA 		b	.L584
 2218              	.L594:
 2219 04a4 046045E2 		sub	r6, r5, #4
 2220 04a8 0190A0E3 		mov	r9, #1
 2221 04ac 0050A0E3 		mov	r5, #0
 2222 04b0 010000EA 		b	.L590
 2223              	.L714:
 2224 04b4 0C0055E1 		cmp	r5, ip
 2225 04b8 0FFFFF0A 		beq	.L584
 2226              	.L590:
 2227 04bc 040055E1 		cmp	r5, r4
 2228 04c0 0480B6E5 		ldr	r8, [r6, #4]!
 2229 04c4 0CFFFF0A 		beq	.L584
 2230 04c8 047093E5 		ldr	r7, [r3, #4]
 2231 04cc 057197E7 		ldr	r7, [r7, r5, lsl #2]
 2232 04d0 080057E1 		cmp	r7, r8
 2233 04d4 08FFFF1A 		bne	.L584
 2234 04d8 015085E2 		add	r5, r5, #1
 2235 04dc 970909E0 		mul	r9, r7, r9
 2236 04e0 020055E1 		cmp	r5, r2
 2237 04e4 F2FFFF1A 		bne	.L714
 2238 04e8 012085E2 		add	r2, r5, #1
 2239 04ec 0C0052E1 		cmp	r2, ip
 2240 04f0 170000AA 		bge	.L628
 2241              	.L602:
 2242 04f4 040090E5 		ldr	r0, [r0, #4]
 2243 04f8 0760E0E3 		mvn	r6, #7
 2244 04fc 0180A0E3 		mov	r8, #1
 2245 0500 006046E0 		sub	r6, r6, r0
 2246 0504 020180E0 		add	r0, r0, r2, lsl #2
 2247              	.L603:
 2248 0508 015042E2 		sub	r5, r2, #1
 2249 050c 047090E4 		ldr	r7, [r0], #4
 2250 0510 050054E1 		cmp	r4, r5
 2251 0514 F8FEFFDA 		ble	.L584
 2252 0518 045093E5 		ldr	r5, [r3, #4]
 2253 051c 005085E0 		add	r5, r5, r0
 2254 0520 065095E7 		ldr	r5, [r5, r6]
 2255 0524 070055E1 		cmp	r5, r7
 2256 0528 F3FEFF1A 		bne	.L584
 2257 052c 012082E2 		add	r2, r2, #1
 2258 0530 950808E0 		mul	r8, r5, r8
 2259 0534 0C0052E1 		cmp	r2, ip
 2260 0538 F2FFFFBA 		blt	.L603
 2261 053c 40FFFFEA 		b	.L604
 2262              	.L623:
 2263 0540 060054E1 		cmp	r4, r6
 2264 0544 0000A0E3 		mov	r0, #0
 2265 0548 040085E4 		str	r0, [r5], #4
 2266 054c 4AFFFF1A 		bne	.L606
 2267 0550 5AFFFFEA 		b	.L723
 2268              	.L628:
 2269 0554 0180A0E3 		mov	r8, #1
 2270 0558 39FFFFEA 		b	.L604
 2271              	.L592:
 2272 055c 012082E2 		add	r2, r2, #1
 2273 0560 02005CE1 		cmp	ip, r2
 2274 0564 FAFFFFDA 		ble	.L628
 2275              	.L614:
 2276 0568 0251A0E1 		lsl	r5, r2, #2
 2277 056c 016042E2 		sub	r6, r2, #1
 2278 0570 060054E1 		cmp	r4, r6
 2279 0574 057080E0 		add	r7, r0, r5
 2280 0578 047097E5 		ldr	r7, [r7, #4]
 2281 057c DEFEFFDA 		ble	.L584
 2282 0580 066183E0 		add	r6, r3, r6, lsl #2
 2283 0584 048096E5 		ldr	r8, [r6, #4]
 2284 0588 070058E1 		cmp	r8, r7
 2285 058c DAFEFF1A 		bne	.L584
 2286 0590 01A082E2 		add	r10, r2, #1
 2287 0594 0A005CE1 		cmp	ip, r10
 2288 0598 29FFFFDA 		ble	.L604
 2289 059c 0A61A0E1 		lsl	r6, r10, #2
 2290 05a0 020054E1 		cmp	r4, r2
 2291 05a4 067080E0 		add	r7, r0, r6
 2292 05a8 04B097E5 		ldr	fp, [r7, #4]
 2293 05ac D2FEFFDA 		ble	.L584
 2294 05b0 055083E0 		add	r5, r3, r5
 2295 05b4 045095E5 		ldr	r5, [r5, #4]
 2296 05b8 05005BE1 		cmp	fp, r5
 2297 05bc CEFEFF1A 		bne	.L584
 2298 05c0 027082E2 		add	r7, r2, #2
 2299 05c4 9B0808E0 		mul	r8, fp, r8
 2300 05c8 07005CE1 		cmp	ip, r7
 2301 05cc 1CFFFFDA 		ble	.L604
 2302 05d0 0751A0E1 		lsl	r5, r7, #2
 2303 05d4 0A0054E1 		cmp	r4, r10
 2304 05d8 05A080E0 		add	r10, r0, r5
 2305 05dc 04A09AE5 		ldr	r10, [r10, #4]
 2306 05e0 C5FEFFDA 		ble	.L584
 2307 05e4 066083E0 		add	r6, r3, r6
 2308 05e8 046096E5 		ldr	r6, [r6, #4]
 2309 05ec 0A0056E1 		cmp	r6, r10
 2310 05f0 C1FEFF1A 		bne	.L584
 2311 05f4 032082E2 		add	r2, r2, #3
 2312 05f8 960808E0 		mul	r8, r6, r8
 2313 05fc 02005CE1 		cmp	ip, r2
 2314 0600 0FFFFFDA 		ble	.L604
 2315 0604 022180E0 		add	r2, r0, r2, lsl #2
 2316 0608 070054E1 		cmp	r4, r7
 2317 060c 042092E5 		ldr	r2, [r2, #4]
 2318 0610 B9FEFFDA 		ble	.L584
 2319 0614 053083E0 		add	r3, r3, r5
 2320 0618 043093E5 		ldr	r3, [r3, #4]
 2321 061c 020053E1 		cmp	r3, r2
 2322 0620 06FFFF0A 		beq	.L717
 2323 0624 B4FEFFEA 		b	.L584
 2324              	.L587:
 2325 0628 01005CE3 		cmp	ip, #1
 2326 062c 0120A0E3 		mov	r2, #1
 2327 0630 080000DA 		ble	.L724
 2328 0634 05005CE3 		cmp	ip, #5
 2329 0638 0290A0E1 		mov	r9, r2
 2330 063c 020000CA 		bgt	.L599
 2331 0640 050054E3 		cmp	r4, #5
 2332 0644 C7FFFFDA 		ble	.L614
 2333 0648 D1FEFFEA 		b	.L600
 2334              	.L599:
 2335 064c 050054E3 		cmp	r4, #5
 2336 0650 58FFFFDA 		ble	.L613
 2337 0654 A6FFFFEA 		b	.L602
 2338              	.L724:
 2339 0658 0290A0E1 		mov	r9, r2
 2340 065c 0280A0E1 		mov	r8, r2
 2341 0660 FBFEFFEA 		b	.L611
 2342              		.fnend
 2344              		.section	.text._ZN6tflite3ops5micro11arg_min_max10ArgMaxEvalEP13TfLiteContextP10TfLiteNode,"ax",%p
 2345              		.align	2
 2346              		.global	_ZN6tflite3ops5micro11arg_min_max10ArgMaxEvalEP13TfLiteContextP10TfLiteNode
 2347              		.syntax unified
 2348              		.arm
 2349              		.fpu neon
 2351              	_ZN6tflite3ops5micro11arg_min_max10ArgMaxEvalEP13TfLiteContextP10TfLiteNode:
 2352              		.fnstart
 2353              	.LFB1768:
 2354              		@ args = 0, pretend = 0, frame = 56
 2355              		@ frame_needed = 0, uses_anonymous_args = 0
 2356 0000 F0412DE9 		push	{r4, r5, r6, r7, r8, lr}
 2357              		.save {r4, r5, r6, r7, r8, lr}
 2358 0004 004050E2 		subs	r4, r0, #0
 2359              		.pad #64
 2360 0008 40D04DE2 		sub	sp, sp, #64
 2361 000c 6F00000A 		beq	.L727
 2362 0010 000051E3 		cmp	r1, #0
 2363 0014 0150A0E1 		mov	r5, r1
 2364 0018 6C00000A 		beq	.L727
 2365 001c 002091E5 		ldr	r2, [r1]
 2366 0020 543094E5 		ldr	r3, [r4, #84]
 2367 0024 041092E5 		ldr	r1, [r2, #4]
 2368              	.LEHB0:
 2369 0028 33FF2FE1 		blx	r3
 2370 002c 002095E5 		ldr	r2, [r5]
 2371 0030 0070A0E1 		mov	r7, r0
 2372 0034 543094E5 		ldr	r3, [r4, #84]
 2373 0038 0400A0E1 		mov	r0, r4
 2374 003c 081092E5 		ldr	r1, [r2, #8]
 2375 0040 33FF2FE1 		blx	r3
 2376 0044 042095E5 		ldr	r2, [r5, #4]
 2377 0048 0060A0E1 		mov	r6, r0
 2378 004c 543094E5 		ldr	r3, [r4, #84]
 2379 0050 0400A0E1 		mov	r0, r4
 2380 0054 041092E5 		ldr	r1, [r2, #4]
 2381 0058 33FF2FE1 		blx	r3
 2382 005c 0830D6E5 		ldrb	r3, [r6, #8]	@ zero_extendqisi2
 2383 0060 0040A0E1 		mov	r4, r0
 2384 0064 020053E3 		cmp	r3, #2
 2385 0068 0200000A 		beq	.L827
 2386              	.L798:
 2387 006c 0100A0E3 		mov	r0, #1
 2388 0070 40D08DE2 		add	sp, sp, #64
 2389              		@ sp needed
 2390 0074 F081BDE8 		pop	{r4, r5, r6, r7, r8, pc}
 2391              	.L827:
 2392 0078 0830D0E5 		ldrb	r3, [r0, #8]	@ zero_extendqisi2
 2393 007c 020053E3 		cmp	r3, #2
 2394 0080 F9FFFF1A 		bne	.L798
 2395 0084 0830D7E5 		ldrb	r3, [r7, #8]	@ zero_extendqisi2
 2396 0088 030053E3 		cmp	r3, #3
 2397 008c 3B00000A 		beq	.L729
 2398 0090 090053E3 		cmp	r3, #9
 2399 0094 2500000A 		beq	.L730
 2400 0098 010053E3 		cmp	r3, #1
 2401 009c F2FFFF1A 		bne	.L798
 2402 00a0 28508DE2 		add	r5, sp, #40
 2403 00a4 0710A0E1 		mov	r1, r7
 2404 00a8 0500A0E1 		mov	r0, r5
 2405 00ac 10808DE2 		add	r8, sp, #16
 2406 00b0 FEFFFFEB 		bl	_ZN6tflite5micro14GetTensorShapeEPK16TfLiteEvalTensor
 2407              	.LEHE0:
 2408 00b4 0800A0E1 		mov	r0, r8
 2409 00b8 0410A0E1 		mov	r1, r4
 2410 00bc 007097E5 		ldr	r7, [r7]
 2411 00c0 006096E5 		ldr	r6, [r6]
 2412              	.LEHB1:
 2413 00c4 FEFFFFEB 		bl	_ZN6tflite5micro14GetTensorShapeEPK16TfLiteEvalTensor
 2414              	.LEHE1:
 2415 00c8 0C208DE2 		add	r2, sp, #12
 2416 00cc 0830A0E1 		mov	r3, r8
 2417 00d0 04208DE5 		str	r2, [sp, #4]
 2418 00d4 0710A0E1 		mov	r1, r7
 2419 00d8 00C094E5 		ldr	ip, [r4]
 2420 00dc 0620A0E1 		mov	r2, r6
 2421 00e0 0500A0E1 		mov	r0, r5
 2422 00e4 00C08DE5 		str	ip, [sp]
 2423              	.LEHB2:
 2424 00e8 FEFFFFEB 		bl	_ZN6tflite13reference_ops9ArgMinMaxIfllNS_3ops5micro7GreaterEEEvRKNS_12RuntimeShapeEPKT_PKT1_S7
 2425              	.LEHE2:
 2426              	.L822:
 2427 00ec 10309DE5 		ldr	r3, [sp, #16]
 2428 00f0 050053E3 		cmp	r3, #5
 2429 00f4 030000DA 		ble	.L736
 2430 00f8 14009DE5 		ldr	r0, [sp, #20]
 2431 00fc 000050E3 		cmp	r0, #0
 2432 0100 0000000A 		beq	.L736
 2433 0104 FEFFFFEB 		bl	_ZdaPv
 2434              	.L736:
 2435 0108 28309DE5 		ldr	r3, [sp, #40]
 2436 010c 050053E3 		cmp	r3, #5
 2437 0110 030000DA 		ble	.L737
 2438 0114 2C009DE5 		ldr	r0, [sp, #44]
 2439 0118 000050E3 		cmp	r0, #0
 2440 011c 0000000A 		beq	.L737
 2441 0120 FEFFFFEB 		bl	_ZdaPv
 2442              	.L737:
 2443 0124 0000A0E3 		mov	r0, #0
 2444 0128 40D08DE2 		add	sp, sp, #64
 2445              		@ sp needed
 2446 012c F081BDE8 		pop	{r4, r5, r6, r7, r8, pc}
 2447              	.L730:
 2448 0130 28508DE2 		add	r5, sp, #40
 2449 0134 0710A0E1 		mov	r1, r7
 2450 0138 0500A0E1 		mov	r0, r5
 2451 013c 10808DE2 		add	r8, sp, #16
 2452              	.LEHB3:
 2453 0140 FEFFFFEB 		bl	_ZN6tflite5micro14GetTensorShapeEPK16TfLiteEvalTensor
 2454              	.LEHE3:
 2455 0144 0800A0E1 		mov	r0, r8
 2456 0148 0410A0E1 		mov	r1, r4
 2457 014c 007097E5 		ldr	r7, [r7]
 2458 0150 006096E5 		ldr	r6, [r6]
 2459              	.LEHB4:
 2460 0154 FEFFFFEB 		bl	_ZN6tflite5micro14GetTensorShapeEPK16TfLiteEvalTensor
 2461              	.LEHE4:
 2462 0158 0C208DE2 		add	r2, sp, #12
 2463 015c 0830A0E1 		mov	r3, r8
 2464 0160 04208DE5 		str	r2, [sp, #4]
 2465 0164 0710A0E1 		mov	r1, r7
 2466 0168 00C094E5 		ldr	ip, [r4]
 2467 016c 0620A0E1 		mov	r2, r6
 2468 0170 0500A0E1 		mov	r0, r5
 2469 0174 00C08DE5 		str	ip, [sp]
 2470              	.LEHB5:
 2471 0178 FEFFFFEB 		bl	_ZN6tflite13reference_ops9ArgMinMaxIallNS_3ops5micro7GreaterEEEvRKNS_12RuntimeShapeEPKT_PKT1_S7
 2472              	.LEHE5:
 2473 017c DAFFFFEA 		b	.L822
 2474              	.L729:
 2475 0180 28508DE2 		add	r5, sp, #40
 2476 0184 0710A0E1 		mov	r1, r7
 2477 0188 0500A0E1 		mov	r0, r5
 2478 018c 10808DE2 		add	r8, sp, #16
 2479              	.LEHB6:
 2480 0190 FEFFFFEB 		bl	_ZN6tflite5micro14GetTensorShapeEPK16TfLiteEvalTensor
 2481              	.LEHE6:
 2482 0194 0800A0E1 		mov	r0, r8
 2483 0198 0410A0E1 		mov	r1, r4
 2484 019c 007097E5 		ldr	r7, [r7]
 2485 01a0 006096E5 		ldr	r6, [r6]
 2486              	.LEHB7:
 2487 01a4 FEFFFFEB 		bl	_ZN6tflite5micro14GetTensorShapeEPK16TfLiteEvalTensor
 2488              	.LEHE7:
 2489 01a8 0C208DE2 		add	r2, sp, #12
 2490 01ac 0830A0E1 		mov	r3, r8
 2491 01b0 04208DE5 		str	r2, [sp, #4]
 2492 01b4 0710A0E1 		mov	r1, r7
 2493 01b8 00C094E5 		ldr	ip, [r4]
 2494 01bc 0620A0E1 		mov	r2, r6
 2495 01c0 0500A0E1 		mov	r0, r5
 2496 01c4 00C08DE5 		str	ip, [sp]
 2497              	.LEHB8:
 2498 01c8 FEFFFFEB 		bl	_ZN6tflite13reference_ops9ArgMinMaxIhllNS_3ops5micro7GreaterEEEvRKNS_12RuntimeShapeEPKT_PKT1_S7
 2499              	.LEHE8:
 2500 01cc C6FFFFEA 		b	.L822
 2501              	.L727:
 2502              	.LEHB9:
 2503 01d0 FEFFFFEB 		bl	abort
 2504              	.L756:
 2505              	.L825:
 2506 01d4 10309DE5 		ldr	r3, [sp, #16]
 2507 01d8 050053E3 		cmp	r3, #5
 2508 01dc 030000DA 		ble	.L748
 2509 01e0 14009DE5 		ldr	r0, [sp, #20]
 2510 01e4 000050E3 		cmp	r0, #0
 2511 01e8 0000000A 		beq	.L748
 2512 01ec FEFFFFEB 		bl	_ZdaPv
 2513              	.L748:
 2514 01f0 28309DE5 		ldr	r3, [sp, #40]
 2515 01f4 050053E3 		cmp	r3, #5
 2516 01f8 030000DA 		ble	.L749
 2517 01fc 2C009DE5 		ldr	r0, [sp, #44]
 2518 0200 000050E3 		cmp	r0, #0
 2519 0204 0000000A 		beq	.L749
 2520 0208 FEFFFFEB 		bl	_ZdaPv
 2521              	.L749:
 2522 020c FEFFFFEB 		bl	__cxa_end_cleanup
 2523              	.LEHE9:
 2524              	.L755:
 2525 0210 F6FFFFEA 		b	.L748
 2526              	.L758:
 2527 0214 EEFFFFEA 		b	.L825
 2528              	.L757:
 2529 0218 F4FFFFEA 		b	.L748
 2530              	.L754:
 2531 021c ECFFFFEA 		b	.L825
 2532              	.L753:
 2533 0220 F2FFFFEA 		b	.L748
 2534              		.global	__gxx_personality_v0
 2535              		.personality	__gxx_personality_v0
 2536              		.handlerdata
 2537              	.LLSDA1768:
 2538 0008 FF       		.byte	0xff
 2539 0009 FF       		.byte	0xff
 2540 000a 01       		.byte	0x1
 2541 000b 38       		.uleb128 .LLSDACSE1768-.LLSDACSB1768
 2542              	.LLSDACSB1768:
 2543 000c 28       		.uleb128 .LEHB0-.LFB1768
 2544 000d 8C01     		.uleb128 .LEHE0-.LEHB0
 2545 000f 00       		.uleb128 0
 2546 0010 00       		.uleb128 0
 2547 0011 C401     		.uleb128 .LEHB1-.LFB1768
 2548 0013 04       		.uleb128 .LEHE1-.LEHB1
 2549 0014 9804     		.uleb128 .L757-.LFB1768
 2550 0016 00       		.uleb128 0
 2551 0017 E801     		.uleb128 .LEHB2-.LFB1768
 2552 0019 04       		.uleb128 .LEHE2-.LEHB2
 2553 001a 9404     		.uleb128 .L758-.LFB1768
 2554 001c 00       		.uleb128 0
 2555 001d C002     		.uleb128 .LEHB3-.LFB1768
 2556 001f 04       		.uleb128 .LEHE3-.LEHB3
 2557 0020 00       		.uleb128 0
 2558 0021 00       		.uleb128 0
 2559 0022 D402     		.uleb128 .LEHB4-.LFB1768
 2560 0024 04       		.uleb128 .LEHE4-.LEHB4
 2561 0025 A004     		.uleb128 .L753-.LFB1768
 2562 0027 00       		.uleb128 0
 2563 0028 F802     		.uleb128 .LEHB5-.LFB1768
 2564 002a 04       		.uleb128 .LEHE5-.LEHB5
 2565 002b 9C04     		.uleb128 .L754-.LFB1768
 2566 002d 00       		.uleb128 0
 2567 002e 9003     		.uleb128 .LEHB6-.LFB1768
 2568 0030 04       		.uleb128 .LEHE6-.LEHB6
 2569 0031 00       		.uleb128 0
 2570 0032 00       		.uleb128 0
 2571 0033 A403     		.uleb128 .LEHB7-.LFB1768
 2572 0035 04       		.uleb128 .LEHE7-.LEHB7
 2573 0036 9004     		.uleb128 .L755-.LFB1768
 2574 0038 00       		.uleb128 0
 2575 0039 C803     		.uleb128 .LEHB8-.LFB1768
 2576 003b 04       		.uleb128 .LEHE8-.LEHB8
 2577 003c D403     		.uleb128 .L756-.LFB1768
 2578 003e 00       		.uleb128 0
 2579 003f D003     		.uleb128 .LEHB9-.LFB1768
 2580 0041 40       		.uleb128 .LEHE9-.LEHB9
 2581 0042 00       		.uleb128 0
 2582 0043 00       		.uleb128 0
 2583              	.LLSDACSE1768:
 2584              		.section	.text._ZN6tflite3ops5micro11arg_min_max10ArgMaxEvalEP13TfLiteContextP10TfLiteNode
 2585              		.fnend
 2587              		.section	.text._ZN6tflite13reference_ops9ArgMinMaxIallNS_3ops5micro4LessEEEvRKNS_12RuntimeShapeEPK
 2588              		.align	2
 2589              		.weak	_ZN6tflite13reference_ops9ArgMinMaxIallNS_3ops5micro4LessEEEvRKNS_12RuntimeShapeEPKT_PKT1_S7
 2590              		.syntax unified
 2591              		.arm
 2592              		.fpu neon
 2594              	_ZN6tflite13reference_ops9ArgMinMaxIallNS_3ops5micro4LessEEEvRKNS_12RuntimeShapeEPKT_PKT1_S7_PT0_RK
 2595              		.fnstart
 2596              	.LFB1981:
 2597              		@ args = 8, pretend = 0, frame = 8
 2598              		@ frame_needed = 0, uses_anonymous_args = 0
 2599 0000 00C090E5 		ldr	ip, [r0]
 2600 0004 F04F2DE9 		push	{r4, r5, r6, r7, r8, r9, r10, fp, lr}
 2601              		.save {r4, r5, r6, r7, r8, r9, r10, fp, lr}
 2602              		.pad #12
 2603 0008 0CD04DE2 		sub	sp, sp, #12
 2604 000c 00005CE3 		cmp	ip, #0
 2605 0010 390000DA 		ble	.L830
 2606 0014 00E093E5 		ldr	lr, [r3]
 2607 0018 01404CE2 		sub	r4, ip, #1
 2608 001c 0E0054E1 		cmp	r4, lr
 2609 0020 3500001A 		bne	.L830
 2610 0024 002092E5 		ldr	r2, [r2]
 2611 0028 000052E3 		cmp	r2, #0
 2612 002c 190100BA 		blt	.L967
 2613              	.L831:
 2614 0030 02005CE1 		cmp	ip, r2
 2615 0034 300000DA 		ble	.L830
 2616 0038 05005CE3 		cmp	ip, #5
 2617 003c A80000CA 		bgt	.L968
 2618 0040 02E180E0 		add	lr, r0, r2, lsl #2
 2619 0044 000052E3 		cmp	r2, #0
 2620 0048 04E09EE5 		ldr	lr, [lr, #4]
 2621 004c 7501000A 		beq	.L833
 2622 0050 050054E3 		cmp	r4, #5
 2623 0054 290000CA 		bgt	.L837
 2624 0058 000054E3 		cmp	r4, #0
 2625 005c 049090E5 		ldr	r9, [r0, #4]
 2626 0060 2500000A 		beq	.L830
 2627 0064 045093E5 		ldr	r5, [r3, #4]
 2628 0068 050059E1 		cmp	r9, r5
 2629 006c 2200001A 		bne	.L830
 2630 0070 010052E3 		cmp	r2, #1
 2631 0074 3801000A 		beq	.L838
 2632 0078 01005CE3 		cmp	ip, #1
 2633 007c 1E00000A 		beq	.L830
 2634 0080 010054E3 		cmp	r4, #1
 2635 0084 085090E5 		ldr	r5, [r0, #8]
 2636 0088 1B00000A 		beq	.L830
 2637 008c 086093E5 		ldr	r6, [r3, #8]
 2638 0090 060055E1 		cmp	r5, r6
 2639 0094 1800001A 		bne	.L830
 2640 0098 020052E3 		cmp	r2, #2
 2641 009c 950909E0 		mul	r9, r5, r9
 2642 00a0 2D01000A 		beq	.L838
 2643 00a4 02005CE3 		cmp	ip, #2
 2644 00a8 1300000A 		beq	.L830
 2645 00ac 020054E3 		cmp	r4, #2
 2646 00b0 0C5090E5 		ldr	r5, [r0, #12]
 2647 00b4 1000000A 		beq	.L830
 2648 00b8 0C6093E5 		ldr	r6, [r3, #12]
 2649 00bc 060055E1 		cmp	r5, r6
 2650 00c0 0D00001A 		bne	.L830
 2651 00c4 030052E3 		cmp	r2, #3
 2652 00c8 950909E0 		mul	r9, r5, r9
 2653 00cc 2201000A 		beq	.L838
 2654 00d0 03005CE3 		cmp	ip, #3
 2655 00d4 0800000A 		beq	.L830
 2656 00d8 030054E3 		cmp	r4, #3
 2657 00dc 105090E5 		ldr	r5, [r0, #16]
 2658 00e0 0500000A 		beq	.L830
 2659 00e4 106093E5 		ldr	r6, [r3, #16]
 2660 00e8 060055E1 		cmp	r5, r6
 2661 00ec 0200001A 		bne	.L830
 2662 00f0 040052E3 		cmp	r2, #4
 2663 00f4 950909E0 		mul	r9, r5, r9
 2664 00f8 1701000A 		beq	.L838
 2665              	.L830:
 2666 00fc FEFFFFEB 		bl	abort
 2667              	.L837:
 2668 0100 045093E5 		ldr	r5, [r3, #4]
 2669 0104 049090E5 		ldr	r9, [r0, #4]
 2670 0108 006095E5 		ldr	r6, [r5]
 2671 010c 060059E1 		cmp	r9, r6
 2672 0110 F9FFFF1A 		bne	.L830
 2673 0114 010052E3 		cmp	r2, #1
 2674 0118 1A00000A 		beq	.L839
 2675 011c 01005CE3 		cmp	ip, #1
 2676 0120 F5FFFF0A 		beq	.L830
 2677 0124 086090E5 		ldr	r6, [r0, #8]
 2678 0128 047095E5 		ldr	r7, [r5, #4]
 2679 012c 070056E1 		cmp	r6, r7
 2680 0130 F1FFFF1A 		bne	.L830
 2681 0134 020052E3 		cmp	r2, #2
 2682 0138 960909E0 		mul	r9, r6, r9
 2683 013c 1100000A 		beq	.L839
 2684 0140 02005CE3 		cmp	ip, #2
 2685 0144 ECFFFF0A 		beq	.L830
 2686 0148 0C6090E5 		ldr	r6, [r0, #12]
 2687 014c 087095E5 		ldr	r7, [r5, #8]
 2688 0150 070056E1 		cmp	r6, r7
 2689 0154 E8FFFF1A 		bne	.L830
 2690 0158 030052E3 		cmp	r2, #3
 2691 015c 960909E0 		mul	r9, r6, r9
 2692 0160 0800000A 		beq	.L839
 2693 0164 03005CE3 		cmp	ip, #3
 2694 0168 E3FFFF0A 		beq	.L830
 2695 016c 0C6095E5 		ldr	r6, [r5, #12]
 2696 0170 105090E5 		ldr	r5, [r0, #16]
 2697 0174 060055E1 		cmp	r5, r6
 2698 0178 DFFFFF1A 		bne	.L830
 2699 017c 040052E3 		cmp	r2, #4
 2700 0180 950909E0 		mul	r9, r5, r9
 2701 0184 DCFFFF1A 		bne	.L830
 2702              	.L839:
 2703 0188 012082E2 		add	r2, r2, #1
 2704 018c 02005CE1 		cmp	ip, r2
 2705 0190 EF0000DA 		ble	.L874
 2706              	.L846:
 2707 0194 015042E2 		sub	r5, r2, #1
 2708 0198 026180E0 		add	r6, r0, r2, lsl #2
 2709 019c 050054E1 		cmp	r4, r5
 2710 01a0 046096E5 		ldr	r6, [r6, #4]
 2711 01a4 D4FFFFDA 		ble	.L830
 2712 01a8 043093E5 		ldr	r3, [r3, #4]
 2713 01ac 0571A0E1 		lsl	r7, r5, #2
 2714 01b0 058193E7 		ldr	r8, [r3, r5, lsl #2]
 2715 01b4 060058E1 		cmp	r8, r6
 2716 01b8 CFFFFF1A 		bne	.L830
 2717 01bc 016082E2 		add	r6, r2, #1
 2718 01c0 06005CE1 		cmp	ip, r6
 2719 01c4 1E0000DA 		ble	.L850
 2720 01c8 065180E0 		add	r5, r0, r6, lsl #2
 2721 01cc 020054E1 		cmp	r4, r2
 2722 01d0 045095E5 		ldr	r5, [r5, #4]
 2723 01d4 C8FFFFDA 		ble	.L830
 2724 01d8 073083E0 		add	r3, r3, r7
 2725 01dc 047093E5 		ldr	r7, [r3, #4]
 2726 01e0 050057E1 		cmp	r7, r5
 2727 01e4 C4FFFF1A 		bne	.L830
 2728 01e8 025082E2 		add	r5, r2, #2
 2729 01ec 980708E0 		mul	r8, r8, r7
 2730 01f0 05005CE1 		cmp	ip, r5
 2731 01f4 120000DA 		ble	.L850
 2732 01f8 060054E1 		cmp	r4, r6
 2733 01fc 056180E0 		add	r6, r0, r5, lsl #2
 2734 0200 046096E5 		ldr	r6, [r6, #4]
 2735 0204 BCFFFFDA 		ble	.L830
 2736 0208 087093E5 		ldr	r7, [r3, #8]
 2737 020c 070056E1 		cmp	r6, r7
 2738 0210 B9FFFF1A 		bne	.L830
 2739 0214 032082E2 		add	r2, r2, #3
 2740 0218 960808E0 		mul	r8, r6, r8
 2741 021c 02005CE1 		cmp	ip, r2
 2742 0220 070000DA 		ble	.L850
 2743 0224 022180E0 		add	r2, r0, r2, lsl #2
 2744 0228 050054E1 		cmp	r4, r5
 2745 022c 042092E5 		ldr	r2, [r2, #4]
 2746 0230 B1FFFFDA 		ble	.L830
 2747 0234 0C3093E5 		ldr	r3, [r3, #12]
 2748 0238 020053E1 		cmp	r3, r2
 2749 023c AEFFFF1A 		bne	.L830
 2750              	.L963:
 2751 0240 920808E0 		mul	r8, r2, r8
 2752              	.L850:
 2753 0244 000059E3 		cmp	r9, #0
 2754 0248 230000DA 		ble	.L828
 2755 024c 000058E3 		cmp	r8, #0
 2756 0250 210000DA 		ble	.L828
 2757              	.L857:
 2758 0254 9E0803E0 		mul	r3, lr, r8
 2759 0258 30A09DE5 		ldr	r10, [sp, #48]
 2760 025c 086081E0 		add	r6, r1, r8
 2761 0260 00B0A0E3 		mov	fp, #0
 2762 0264 017048E2 		sub	r7, r8, #1
 2763 0268 00308DE5 		str	r3, [sp]
 2764 026c 0831A0E1 		lsl	r3, r8, #2
 2765 0270 04308DE5 		str	r3, [sp, #4]
 2766              	.L853:
 2767 0274 084046E0 		sub	r4, r6, r8
 2768 0278 0A50A0E1 		mov	r5, r10
 2769              	.L852:
 2770 027c 01005EE3 		cmp	lr, #1
 2771 0280 D130D4E0 		ldrsb	r3, [r4], #1
 2772 0284 AD0000DA 		ble	.L869
 2773 0288 04C087E0 		add	ip, r7, r4
 2774 028c 0120A0E3 		mov	r2, #1
 2775 0290 0000A0E3 		mov	r0, #0
 2776              	.L855:
 2777 0294 D8109CE0 		ldrsb	r1, [ip], r8
 2778 0298 010053E1 		cmp	r3, r1
 2779 029c 0200A0C1 		movgt	r0, r2
 2780 02a0 010053E1 		cmp	r3, r1
 2781 02a4 012082E2 		add	r2, r2, #1
 2782 02a8 0130A0A1 		movge	r3, r1
 2783 02ac 0E0052E1 		cmp	r2, lr
 2784 02b0 F7FFFF1A 		bne	.L855
 2785 02b4 060054E1 		cmp	r4, r6
 2786 02b8 040085E4 		str	r0, [r5], #4
 2787 02bc EEFFFF1A 		bne	.L852
 2788              	.L969:
 2789 02c0 00309DE5 		ldr	r3, [sp]
 2790 02c4 01B08BE2 		add	fp, fp, #1
 2791 02c8 09005BE1 		cmp	fp, r9
 2792 02cc 036086E0 		add	r6, r6, r3
 2793 02d0 04309DE5 		ldr	r3, [sp, #4]
 2794 02d4 03A08AE0 		add	r10, r10, r3
 2795 02d8 E5FFFFBA 		blt	.L853
 2796              	.L828:
 2797 02dc 0CD08DE2 		add	sp, sp, #12
 2798              		@ sp needed
 2799 02e0 F08FBDE8 		pop	{r4, r5, r6, r7, r8, r9, r10, fp, pc}
 2800              	.L968:
 2801 02e4 045090E5 		ldr	r5, [r0, #4]
 2802 02e8 000052E3 		cmp	r2, #0
 2803 02ec 02E195E7 		ldr	lr, [r5, r2, lsl #2]
 2804 02f0 CC00000A 		beq	.L833
 2805 02f4 050054E3 		cmp	r4, #5
 2806 02f8 690000CA 		bgt	.L840
 2807 02fc 000054E3 		cmp	r4, #0
 2808 0300 009095E5 		ldr	r9, [r5]
 2809 0304 7CFFFF0A 		beq	.L830
 2810 0308 046093E5 		ldr	r6, [r3, #4]
 2811 030c 060059E1 		cmp	r9, r6
 2812 0310 79FFFF1A 		bne	.L830
 2813 0314 010052E3 		cmp	r2, #1
 2814 0318 2300000A 		beq	.L841
 2815 031c 010054E3 		cmp	r4, #1
 2816 0320 046095E5 		ldr	r6, [r5, #4]
 2817 0324 74FFFF0A 		beq	.L830
 2818 0328 087093E5 		ldr	r7, [r3, #8]
 2819 032c 070056E1 		cmp	r6, r7
 2820 0330 71FFFF1A 		bne	.L830
 2821 0334 020052E3 		cmp	r2, #2
 2822 0338 960909E0 		mul	r9, r6, r9
 2823 033c 1A00000A 		beq	.L841
 2824 0340 020054E3 		cmp	r4, #2
 2825 0344 086095E5 		ldr	r6, [r5, #8]
 2826 0348 6BFFFF0A 		beq	.L830
 2827 034c 0C7093E5 		ldr	r7, [r3, #12]
 2828 0350 070056E1 		cmp	r6, r7
 2829 0354 68FFFF1A 		bne	.L830
 2830 0358 030052E3 		cmp	r2, #3
 2831 035c 960909E0 		mul	r9, r6, r9
 2832 0360 1100000A 		beq	.L841
 2833 0364 030054E3 		cmp	r4, #3
 2834 0368 0C6095E5 		ldr	r6, [r5, #12]
 2835 036c 62FFFF0A 		beq	.L830
 2836 0370 107093E5 		ldr	r7, [r3, #16]
 2837 0374 070056E1 		cmp	r6, r7
 2838 0378 5FFFFF1A 		bne	.L830
 2839 037c 040052E3 		cmp	r2, #4
 2840 0380 960909E0 		mul	r9, r6, r9
 2841 0384 0800000A 		beq	.L841
 2842 0388 050054E3 		cmp	r4, #5
 2843 038c 105095E5 		ldr	r5, [r5, #16]
 2844 0390 59FFFF1A 		bne	.L830
 2845 0394 146093E5 		ldr	r6, [r3, #20]
 2846 0398 060055E1 		cmp	r5, r6
 2847 039c 56FFFF1A 		bne	.L830
 2848 03a0 050052E3 		cmp	r2, #5
 2849 03a4 950909E0 		mul	r9, r5, r9
 2850 03a8 53FFFF1A 		bne	.L830
 2851              	.L841:
 2852 03ac 012082E2 		add	r2, r2, #1
 2853 03b0 0C0052E1 		cmp	r2, ip
 2854 03b4 660000AA 		bge	.L874
 2855              	.L859:
 2856 03b8 040090E5 		ldr	r0, [r0, #4]
 2857 03bc 015042E2 		sub	r5, r2, #1
 2858 03c0 050054E1 		cmp	r4, r5
 2859 03c4 0261A0E1 		lsl	r6, r2, #2
 2860 03c8 028190E7 		ldr	r8, [r0, r2, lsl #2]
 2861 03cc 4AFFFFDA 		ble	.L830
 2862 03d0 055183E0 		add	r5, r3, r5, lsl #2
 2863 03d4 045095E5 		ldr	r5, [r5, #4]
 2864 03d8 050058E1 		cmp	r8, r5
 2865 03dc 46FFFF1A 		bne	.L830
 2866 03e0 015082E2 		add	r5, r2, #1
 2867 03e4 05005CE1 		cmp	ip, r5
 2868 03e8 95FFFFDA 		ble	.L850
 2869 03ec 020054E1 		cmp	r4, r2
 2870 03f0 060080E0 		add	r0, r0, r6
 2871 03f4 047090E5 		ldr	r7, [r0, #4]
 2872 03f8 3FFFFFDA 		ble	.L830
 2873 03fc 066083E0 		add	r6, r3, r6
 2874 0400 046096E5 		ldr	r6, [r6, #4]
 2875 0404 060057E1 		cmp	r7, r6
 2876 0408 3BFFFF1A 		bne	.L830
 2877 040c 026082E2 		add	r6, r2, #2
 2878 0410 970808E0 		mul	r8, r7, r8
 2879 0414 06005CE1 		cmp	ip, r6
 2880 0418 89FFFFDA 		ble	.L850
 2881 041c 050054E1 		cmp	r4, r5
 2882 0420 087090E5 		ldr	r7, [r0, #8]
 2883 0424 34FFFFDA 		ble	.L830
 2884 0428 055183E0 		add	r5, r3, r5, lsl #2
 2885 042c 045095E5 		ldr	r5, [r5, #4]
 2886 0430 050057E1 		cmp	r7, r5
 2887 0434 30FFFF1A 		bne	.L830
 2888 0438 035082E2 		add	r5, r2, #3
 2889 043c 970808E0 		mul	r8, r7, r8
 2890 0440 05005CE1 		cmp	ip, r5
 2891 0444 7EFFFFDA 		ble	.L850
 2892 0448 060054E1 		cmp	r4, r6
 2893 044c 0C7090E5 		ldr	r7, [r0, #12]
 2894 0450 29FFFFDA 		ble	.L830
 2895 0454 066183E0 		add	r6, r3, r6, lsl #2
 2896 0458 046096E5 		ldr	r6, [r6, #4]
 2897 045c 060057E1 		cmp	r7, r6
 2898 0460 25FFFF1A 		bne	.L830
 2899 0464 042082E2 		add	r2, r2, #4
 2900 0468 970808E0 		mul	r8, r7, r8
 2901 046c 02005CE1 		cmp	ip, r2
 2902 0470 73FFFFDA 		ble	.L850
 2903 0474 040055E1 		cmp	r5, r4
 2904 0478 102090E5 		ldr	r2, [r0, #16]
 2905 047c 1EFFFFAA 		bge	.L830
 2906 0480 053183E0 		add	r3, r3, r5, lsl #2
 2907 0484 043093E5 		ldr	r3, [r3, #4]
 2908 0488 020053E1 		cmp	r3, r2
 2909 048c 1AFFFF1A 		bne	.L830
 2910 0490 930808E0 		mul	r8, r3, r8
 2911 0494 6AFFFFEA 		b	.L850
 2912              	.L967:
 2913 0498 0C2092E0 		adds	r2, r2, ip
 2914 049c E3FEFF5A 		bpl	.L831
 2915 04a0 15FFFFEA 		b	.L830
 2916              	.L840:
 2917 04a4 046045E2 		sub	r6, r5, #4
 2918 04a8 0190A0E3 		mov	r9, #1
 2919 04ac 0050A0E3 		mov	r5, #0
 2920 04b0 010000EA 		b	.L836
 2921              	.L960:
 2922 04b4 0C0055E1 		cmp	r5, ip
 2923 04b8 0FFFFF0A 		beq	.L830
 2924              	.L836:
 2925 04bc 040055E1 		cmp	r5, r4
 2926 04c0 0480B6E5 		ldr	r8, [r6, #4]!
 2927 04c4 0CFFFF0A 		beq	.L830
 2928 04c8 047093E5 		ldr	r7, [r3, #4]
 2929 04cc 057197E7 		ldr	r7, [r7, r5, lsl #2]
 2930 04d0 080057E1 		cmp	r7, r8
 2931 04d4 08FFFF1A 		bne	.L830
 2932 04d8 015085E2 		add	r5, r5, #1
 2933 04dc 970909E0 		mul	r9, r7, r9
 2934 04e0 020055E1 		cmp	r5, r2
 2935 04e4 F2FFFF1A 		bne	.L960
 2936 04e8 012085E2 		add	r2, r5, #1
 2937 04ec 0C0052E1 		cmp	r2, ip
 2938 04f0 170000AA 		bge	.L874
 2939              	.L848:
 2940 04f4 040090E5 		ldr	r0, [r0, #4]
 2941 04f8 0760E0E3 		mvn	r6, #7
 2942 04fc 0180A0E3 		mov	r8, #1
 2943 0500 006046E0 		sub	r6, r6, r0
 2944 0504 020180E0 		add	r0, r0, r2, lsl #2
 2945              	.L849:
 2946 0508 015042E2 		sub	r5, r2, #1
 2947 050c 047090E4 		ldr	r7, [r0], #4
 2948 0510 050054E1 		cmp	r4, r5
 2949 0514 F8FEFFDA 		ble	.L830
 2950 0518 045093E5 		ldr	r5, [r3, #4]
 2951 051c 005085E0 		add	r5, r5, r0
 2952 0520 065095E7 		ldr	r5, [r5, r6]
 2953 0524 070055E1 		cmp	r5, r7
 2954 0528 F3FEFF1A 		bne	.L830
 2955 052c 012082E2 		add	r2, r2, #1
 2956 0530 950808E0 		mul	r8, r5, r8
 2957 0534 0C0052E1 		cmp	r2, ip
 2958 0538 F2FFFFBA 		blt	.L849
 2959 053c 40FFFFEA 		b	.L850
 2960              	.L869:
 2961 0540 060054E1 		cmp	r4, r6
 2962 0544 0000A0E3 		mov	r0, #0
 2963 0548 040085E4 		str	r0, [r5], #4
 2964 054c 4AFFFF1A 		bne	.L852
 2965 0550 5AFFFFEA 		b	.L969
 2966              	.L874:
 2967 0554 0180A0E3 		mov	r8, #1
 2968 0558 39FFFFEA 		b	.L850
 2969              	.L838:
 2970 055c 012082E2 		add	r2, r2, #1
 2971 0560 02005CE1 		cmp	ip, r2
 2972 0564 FAFFFFDA 		ble	.L874
 2973              	.L860:
 2974 0568 0251A0E1 		lsl	r5, r2, #2
 2975 056c 016042E2 		sub	r6, r2, #1
 2976 0570 060054E1 		cmp	r4, r6
 2977 0574 057080E0 		add	r7, r0, r5
 2978 0578 047097E5 		ldr	r7, [r7, #4]
 2979 057c DEFEFFDA 		ble	.L830
 2980 0580 066183E0 		add	r6, r3, r6, lsl #2
 2981 0584 048096E5 		ldr	r8, [r6, #4]
 2982 0588 070058E1 		cmp	r8, r7
 2983 058c DAFEFF1A 		bne	.L830
 2984 0590 01A082E2 		add	r10, r2, #1
 2985 0594 0A005CE1 		cmp	ip, r10
 2986 0598 29FFFFDA 		ble	.L850
 2987 059c 0A61A0E1 		lsl	r6, r10, #2
 2988 05a0 020054E1 		cmp	r4, r2
 2989 05a4 067080E0 		add	r7, r0, r6
 2990 05a8 04B097E5 		ldr	fp, [r7, #4]
 2991 05ac D2FEFFDA 		ble	.L830
 2992 05b0 055083E0 		add	r5, r3, r5
 2993 05b4 045095E5 		ldr	r5, [r5, #4]
 2994 05b8 05005BE1 		cmp	fp, r5
 2995 05bc CEFEFF1A 		bne	.L830
 2996 05c0 027082E2 		add	r7, r2, #2
 2997 05c4 9B0808E0 		mul	r8, fp, r8
 2998 05c8 07005CE1 		cmp	ip, r7
 2999 05cc 1CFFFFDA 		ble	.L850
 3000 05d0 0751A0E1 		lsl	r5, r7, #2
 3001 05d4 0A0054E1 		cmp	r4, r10
 3002 05d8 05A080E0 		add	r10, r0, r5
 3003 05dc 04A09AE5 		ldr	r10, [r10, #4]
 3004 05e0 C5FEFFDA 		ble	.L830
 3005 05e4 066083E0 		add	r6, r3, r6
 3006 05e8 046096E5 		ldr	r6, [r6, #4]
 3007 05ec 0A0056E1 		cmp	r6, r10
 3008 05f0 C1FEFF1A 		bne	.L830
 3009 05f4 032082E2 		add	r2, r2, #3
 3010 05f8 960808E0 		mul	r8, r6, r8
 3011 05fc 02005CE1 		cmp	ip, r2
 3012 0600 0FFFFFDA 		ble	.L850
 3013 0604 022180E0 		add	r2, r0, r2, lsl #2
 3014 0608 070054E1 		cmp	r4, r7
 3015 060c 042092E5 		ldr	r2, [r2, #4]
 3016 0610 B9FEFFDA 		ble	.L830
 3017 0614 053083E0 		add	r3, r3, r5
 3018 0618 043093E5 		ldr	r3, [r3, #4]
 3019 061c 020053E1 		cmp	r3, r2
 3020 0620 06FFFF0A 		beq	.L963
 3021 0624 B4FEFFEA 		b	.L830
 3022              	.L833:
 3023 0628 01005CE3 		cmp	ip, #1
 3024 062c 0120A0E3 		mov	r2, #1
 3025 0630 080000DA 		ble	.L970
 3026 0634 05005CE3 		cmp	ip, #5
 3027 0638 0290A0E1 		mov	r9, r2
 3028 063c 020000CA 		bgt	.L845
 3029 0640 050054E3 		cmp	r4, #5
 3030 0644 C7FFFFDA 		ble	.L860
 3031 0648 D1FEFFEA 		b	.L846
 3032              	.L845:
 3033 064c 050054E3 		cmp	r4, #5
 3034 0650 58FFFFDA 		ble	.L859
 3035 0654 A6FFFFEA 		b	.L848
 3036              	.L970:
 3037 0658 0290A0E1 		mov	r9, r2
 3038 065c 0280A0E1 		mov	r8, r2
 3039 0660 FBFEFFEA 		b	.L857
 3040              		.fnend
 3042              		.section	.text._ZN6tflite3ops5micro11arg_min_max4EvalEP13TfLiteContextP10TfLiteNodeb,"ax",%progbit
 3043              		.align	2
 3044              		.global	_ZN6tflite3ops5micro11arg_min_max4EvalEP13TfLiteContextP10TfLiteNodeb
 3045              		.syntax unified
 3046              		.arm
 3047              		.fpu neon
 3049              	_ZN6tflite3ops5micro11arg_min_max4EvalEP13TfLiteContextP10TfLiteNodeb:
 3050              		.fnstart
 3051              	.LFB1766:
 3052              		@ args = 0, pretend = 0, frame = 56
 3053              		@ frame_needed = 0, uses_anonymous_args = 0
 3054 0000 F0432DE9 		push	{r4, r5, r6, r7, r8, r9, lr}
 3055              		.save {r4, r5, r6, r7, r8, r9, lr}
 3056 0004 004050E2 		subs	r4, r0, #0
 3057              		.pad #68
 3058 0008 44D04DE2 		sub	sp, sp, #68
 3059 000c 9100000A 		beq	.L973
 3060 0010 000051E3 		cmp	r1, #0
 3061 0014 0150A0E1 		mov	r5, r1
 3062 0018 8E00000A 		beq	.L973
 3063 001c 0280A0E1 		mov	r8, r2
 3064 0020 002091E5 		ldr	r2, [r1]
 3065 0024 543094E5 		ldr	r3, [r4, #84]
 3066 0028 041092E5 		ldr	r1, [r2, #4]
 3067              	.LEHB10:
 3068 002c 33FF2FE1 		blx	r3
 3069 0030 002095E5 		ldr	r2, [r5]
 3070 0034 0070A0E1 		mov	r7, r0
 3071 0038 543094E5 		ldr	r3, [r4, #84]
 3072 003c 0400A0E1 		mov	r0, r4
 3073 0040 081092E5 		ldr	r1, [r2, #8]
 3074 0044 33FF2FE1 		blx	r3
 3075 0048 042095E5 		ldr	r2, [r5, #4]
 3076 004c 0060A0E1 		mov	r6, r0
 3077 0050 543094E5 		ldr	r3, [r4, #84]
 3078 0054 0400A0E1 		mov	r0, r4
 3079 0058 041092E5 		ldr	r1, [r2, #4]
 3080 005c 33FF2FE1 		blx	r3
 3081 0060 0830D6E5 		ldrb	r3, [r6, #8]	@ zero_extendqisi2
 3082 0064 0040A0E1 		mov	r4, r0
 3083 0068 020053E3 		cmp	r3, #2
 3084 006c 0200000A 		beq	.L1078
 3085              	.L1050:
 3086 0070 0100A0E3 		mov	r0, #1
 3087 0074 44D08DE2 		add	sp, sp, #68
 3088              		@ sp needed
 3089 0078 F083BDE8 		pop	{r4, r5, r6, r7, r8, r9, pc}
 3090              	.L1078:
 3091 007c 0830D0E5 		ldrb	r3, [r0, #8]	@ zero_extendqisi2
 3092 0080 020053E3 		cmp	r3, #2
 3093 0084 F9FFFF1A 		bne	.L1050
 3094 0088 0830D7E5 		ldrb	r3, [r7, #8]	@ zero_extendqisi2
 3095 008c 030053E3 		cmp	r3, #3
 3096 0090 3F00000A 		beq	.L975
 3097 0094 090053E3 		cmp	r3, #9
 3098 0098 2700000A 		beq	.L976
 3099 009c 010053E3 		cmp	r3, #1
 3100 00a0 F2FFFF1A 		bne	.L1050
 3101 00a4 10508DE2 		add	r5, sp, #16
 3102 00a8 0710A0E1 		mov	r1, r7
 3103 00ac 0500A0E1 		mov	r0, r5
 3104 00b0 28908DE2 		add	r9, sp, #40
 3105 00b4 FEFFFFEB 		bl	_ZN6tflite5micro14GetTensorShapeEPK16TfLiteEvalTensor
 3106              	.LEHE10:
 3107 00b8 0900A0E1 		mov	r0, r9
 3108 00bc 0410A0E1 		mov	r1, r4
 3109 00c0 007097E5 		ldr	r7, [r7]
 3110 00c4 006096E5 		ldr	r6, [r6]
 3111              	.LEHB11:
 3112 00c8 FEFFFFEB 		bl	_ZN6tflite5micro14GetTensorShapeEPK16TfLiteEvalTensor
 3113              	.LEHE11:
 3114 00cc 000058E3 		cmp	r8, #0
 3115 00d0 003094E5 		ldr	r3, [r4]
 3116 00d4 4400001A 		bne	.L1079
 3117 00d8 08C08DE2 		add	ip, sp, #8
 3118 00dc 00308DE5 		str	r3, [sp]
 3119 00e0 0620A0E1 		mov	r2, r6
 3120 00e4 0930A0E1 		mov	r3, r9
 3121 00e8 0710A0E1 		mov	r1, r7
 3122 00ec 0500A0E1 		mov	r0, r5
 3123 00f0 04C08DE5 		str	ip, [sp, #4]
 3124              	.LEHB12:
 3125 00f4 FEFFFFEB 		bl	_ZN6tflite13reference_ops9ArgMinMaxIfllNS_3ops5micro4LessEEEvRKNS_12RuntimeShapeEPKT_PKT1_S7_PT
 3126              	.LEHE12:
 3127              	.L987:
 3128 00f8 28309DE5 		ldr	r3, [sp, #40]
 3129 00fc 050053E3 		cmp	r3, #5
 3130 0100 030000DA 		ble	.L988
 3131 0104 2C009DE5 		ldr	r0, [sp, #44]
 3132 0108 000050E3 		cmp	r0, #0
 3133 010c 0000000A 		beq	.L988
 3134 0110 FEFFFFEB 		bl	_ZdaPv
 3135              	.L988:
 3136 0114 10309DE5 		ldr	r3, [sp, #16]
 3137 0118 050053E3 		cmp	r3, #5
 3138 011c 030000DA 		ble	.L989
 3139 0120 14009DE5 		ldr	r0, [sp, #20]
 3140 0124 000050E3 		cmp	r0, #0
 3141 0128 0000000A 		beq	.L989
 3142 012c FEFFFFEB 		bl	_ZdaPv
 3143              	.L989:
 3144 0130 0000A0E3 		mov	r0, #0
 3145 0134 44D08DE2 		add	sp, sp, #68
 3146              		@ sp needed
 3147 0138 F083BDE8 		pop	{r4, r5, r6, r7, r8, r9, pc}
 3148              	.L976:
 3149 013c 10508DE2 		add	r5, sp, #16
 3150 0140 0710A0E1 		mov	r1, r7
 3151 0144 0500A0E1 		mov	r0, r5
 3152 0148 28908DE2 		add	r9, sp, #40
 3153              	.LEHB13:
 3154 014c FEFFFFEB 		bl	_ZN6tflite5micro14GetTensorShapeEPK16TfLiteEvalTensor
 3155              	.LEHE13:
 3156 0150 0900A0E1 		mov	r0, r9
 3157 0154 0410A0E1 		mov	r1, r4
 3158 0158 007097E5 		ldr	r7, [r7]
 3159 015c 006096E5 		ldr	r6, [r6]
 3160              	.LEHB14:
 3161 0160 FEFFFFEB 		bl	_ZN6tflite5micro14GetTensorShapeEPK16TfLiteEvalTensor
 3162              	.LEHE14:
 3163 0164 000058E3 		cmp	r8, #0
 3164 0168 003094E5 		ldr	r3, [r4]
 3165 016c 3000001A 		bne	.L1080
 3166 0170 08C08DE2 		add	ip, sp, #8
 3167 0174 00308DE5 		str	r3, [sp]
 3168 0178 0620A0E1 		mov	r2, r6
 3169 017c 0930A0E1 		mov	r3, r9
 3170 0180 0710A0E1 		mov	r1, r7
 3171 0184 0500A0E1 		mov	r0, r5
 3172 0188 04C08DE5 		str	ip, [sp, #4]
 3173              	.LEHB15:
 3174 018c FEFFFFEB 		bl	_ZN6tflite13reference_ops9ArgMinMaxIallNS_3ops5micro4LessEEEvRKNS_12RuntimeShapeEPKT_PKT1_S7_PT
 3175              	.LEHE15:
 3176 0190 D8FFFFEA 		b	.L987
 3177              	.L975:
 3178 0194 10508DE2 		add	r5, sp, #16
 3179 0198 0710A0E1 		mov	r1, r7
 3180 019c 0500A0E1 		mov	r0, r5
 3181 01a0 28908DE2 		add	r9, sp, #40
 3182              	.LEHB16:
 3183 01a4 FEFFFFEB 		bl	_ZN6tflite5micro14GetTensorShapeEPK16TfLiteEvalTensor
 3184              	.LEHE16:
 3185 01a8 0900A0E1 		mov	r0, r9
 3186 01ac 0410A0E1 		mov	r1, r4
 3187 01b0 007097E5 		ldr	r7, [r7]
 3188 01b4 006096E5 		ldr	r6, [r6]
 3189              	.LEHB17:
 3190 01b8 FEFFFFEB 		bl	_ZN6tflite5micro14GetTensorShapeEPK16TfLiteEvalTensor
 3191              	.LEHE17:
 3192 01bc 000058E3 		cmp	r8, #0
 3193 01c0 003094E5 		ldr	r3, [r4]
 3194 01c4 1100001A 		bne	.L1081
 3195 01c8 08C08DE2 		add	ip, sp, #8
 3196 01cc 00308DE5 		str	r3, [sp]
 3197 01d0 0620A0E1 		mov	r2, r6
 3198 01d4 0930A0E1 		mov	r3, r9
 3199 01d8 0710A0E1 		mov	r1, r7
 3200 01dc 0500A0E1 		mov	r0, r5
 3201 01e0 04C08DE5 		str	ip, [sp, #4]
 3202              	.LEHB18:
 3203 01e4 FEFFFFEB 		bl	_ZN6tflite13reference_ops9ArgMinMaxIhllNS_3ops5micro4LessEEEvRKNS_12RuntimeShapeEPKT_PKT1_S7_PT
 3204              	.LEHE18:
 3205 01e8 C2FFFFEA 		b	.L987
 3206              	.L1079:
 3207 01ec 0CC08DE2 		add	ip, sp, #12
 3208 01f0 00308DE5 		str	r3, [sp]
 3209 01f4 0620A0E1 		mov	r2, r6
 3210 01f8 0930A0E1 		mov	r3, r9
 3211 01fc 0710A0E1 		mov	r1, r7
 3212 0200 0500A0E1 		mov	r0, r5
 3213 0204 04C08DE5 		str	ip, [sp, #4]
 3214              	.LEHB19:
 3215 0208 FEFFFFEB 		bl	_ZN6tflite13reference_ops9ArgMinMaxIfllNS_3ops5micro7GreaterEEEvRKNS_12RuntimeShapeEPKT_PKT1_S7
 3216              	.LEHE19:
 3217 020c B9FFFFEA 		b	.L987
 3218              	.L1081:
 3219 0210 0CC08DE2 		add	ip, sp, #12
 3220 0214 00308DE5 		str	r3, [sp]
 3221 0218 0620A0E1 		mov	r2, r6
 3222 021c 0930A0E1 		mov	r3, r9
 3223 0220 0710A0E1 		mov	r1, r7
 3224 0224 0500A0E1 		mov	r0, r5
 3225 0228 04C08DE5 		str	ip, [sp, #4]
 3226              	.LEHB20:
 3227 022c FEFFFFEB 		bl	_ZN6tflite13reference_ops9ArgMinMaxIhllNS_3ops5micro7GreaterEEEvRKNS_12RuntimeShapeEPKT_PKT1_S7
 3228              	.LEHE20:
 3229 0230 B0FFFFEA 		b	.L987
 3230              	.L1080:
 3231 0234 0CC08DE2 		add	ip, sp, #12
 3232 0238 00308DE5 		str	r3, [sp]
 3233 023c 0620A0E1 		mov	r2, r6
 3234 0240 0930A0E1 		mov	r3, r9
 3235 0244 0710A0E1 		mov	r1, r7
 3236 0248 0500A0E1 		mov	r0, r5
 3237 024c 04C08DE5 		str	ip, [sp, #4]
 3238              	.LEHB21:
 3239 0250 FEFFFFEB 		bl	_ZN6tflite13reference_ops9ArgMinMaxIallNS_3ops5micro7GreaterEEEvRKNS_12RuntimeShapeEPKT_PKT1_S7
 3240              	.LEHE21:
 3241 0254 A7FFFFEA 		b	.L987
 3242              	.L973:
 3243              	.LEHB22:
 3244 0258 FEFFFFEB 		bl	abort
 3245              	.L1009:
 3246              	.L1000:
 3247 025c 10309DE5 		ldr	r3, [sp, #16]
 3248 0260 050053E3 		cmp	r3, #5
 3249 0264 030000DA 		ble	.L1001
 3250 0268 14009DE5 		ldr	r0, [sp, #20]
 3251 026c 000050E3 		cmp	r0, #0
 3252 0270 0000000A 		beq	.L1001
 3253 0274 FEFFFFEB 		bl	_ZdaPv
 3254              	.L1001:
 3255 0278 FEFFFFEB 		bl	__cxa_end_cleanup
 3256              	.LEHE22:
 3257              	.L1010:
 3258              	.L1076:
 3259 027c 28309DE5 		ldr	r3, [sp, #40]
 3260 0280 050053E3 		cmp	r3, #5
 3261 0284 F4FFFFDA 		ble	.L1000
 3262 0288 2C009DE5 		ldr	r0, [sp, #44]
 3263 028c 000050E3 		cmp	r0, #0
 3264 0290 F1FFFF0A 		beq	.L1000
 3265 0294 FEFFFFEB 		bl	_ZdaPv
 3266 0298 EFFFFFEA 		b	.L1000
 3267              	.L1005:
 3268 029c EEFFFFEA 		b	.L1000
 3269              	.L1007:
 3270 02a0 EDFFFFEA 		b	.L1000
 3271              	.L1006:
 3272 02a4 F4FFFFEA 		b	.L1076
 3273              	.L1008:
 3274 02a8 F3FFFFEA 		b	.L1076
 3275              		.personality	__gxx_personality_v0
 3276              		.handlerdata
 3277              	.LLSDA1766:
 3278 0008 FF       		.byte	0xff
 3279 0009 FF       		.byte	0xff
 3280 000a 01       		.byte	0x1
 3281 000b 4A       		.uleb128 .LLSDACSE1766-.LLSDACSB1766
 3282              	.LLSDACSB1766:
 3283 000c 2C       		.uleb128 .LEHB10-.LFB1766
 3284 000d 8C01     		.uleb128 .LEHE10-.LEHB10
 3285 000f 00       		.uleb128 0
 3286 0010 00       		.uleb128 0
 3287 0011 C801     		.uleb128 .LEHB11-.LFB1766
 3288 0013 04       		.uleb128 .LEHE11-.LEHB11
 3289 0014 9C05     		.uleb128 .L1005-.LFB1766
 3290 0016 00       		.uleb128 0
 3291 0017 F401     		.uleb128 .LEHB12-.LFB1766
 3292 0019 04       		.uleb128 .LEHE12-.LEHB12
 3293 001a A405     		.uleb128 .L1006-.LFB1766
 3294 001c 00       		.uleb128 0
 3295 001d CC02     		.uleb128 .LEHB13-.LFB1766
 3296 001f 04       		.uleb128 .LEHE13-.LEHB13
 3297 0020 00       		.uleb128 0
 3298 0021 00       		.uleb128 0
 3299 0022 E002     		.uleb128 .LEHB14-.LFB1766
 3300 0024 04       		.uleb128 .LEHE14-.LEHB14
 3301 0025 DC04     		.uleb128 .L1009-.LFB1766
 3302 0027 00       		.uleb128 0
 3303 0028 8C03     		.uleb128 .LEHB15-.LFB1766
 3304 002a 04       		.uleb128 .LEHE15-.LEHB15
 3305 002b FC04     		.uleb128 .L1010-.LFB1766
 3306 002d 00       		.uleb128 0
 3307 002e A403     		.uleb128 .LEHB16-.LFB1766
 3308 0030 04       		.uleb128 .LEHE16-.LEHB16
 3309 0031 00       		.uleb128 0
 3310 0032 00       		.uleb128 0
 3311 0033 B803     		.uleb128 .LEHB17-.LFB1766
 3312 0035 04       		.uleb128 .LEHE17-.LEHB17
 3313 0036 A005     		.uleb128 .L1007-.LFB1766
 3314 0038 00       		.uleb128 0
 3315 0039 E403     		.uleb128 .LEHB18-.LFB1766
 3316 003b 04       		.uleb128 .LEHE18-.LEHB18
 3317 003c A805     		.uleb128 .L1008-.LFB1766
 3318 003e 00       		.uleb128 0
 3319 003f 8804     		.uleb128 .LEHB19-.LFB1766
 3320 0041 04       		.uleb128 .LEHE19-.LEHB19
 3321 0042 A405     		.uleb128 .L1006-.LFB1766
 3322 0044 00       		.uleb128 0
 3323 0045 AC04     		.uleb128 .LEHB20-.LFB1766
 3324 0047 04       		.uleb128 .LEHE20-.LEHB20
 3325 0048 A805     		.uleb128 .L1008-.LFB1766
 3326 004a 00       		.uleb128 0
 3327 004b D004     		.uleb128 .LEHB21-.LFB1766
 3328 004d 04       		.uleb128 .LEHE21-.LEHB21
 3329 004e FC04     		.uleb128 .L1010-.LFB1766
 3330 0050 00       		.uleb128 0
 3331 0051 D804     		.uleb128 .LEHB22-.LFB1766
 3332 0053 24       		.uleb128 .LEHE22-.LEHB22
 3333 0054 00       		.uleb128 0
 3334 0055 00       		.uleb128 0
 3335              	.LLSDACSE1766:
 3336              		.section	.text._ZN6tflite3ops5micro11arg_min_max4EvalEP13TfLiteContextP10TfLiteNodeb
 3337              		.fnend
 3339              		.section	.text._ZN6tflite3ops5micro11arg_min_max10ArgMinEvalEP13TfLiteContextP10TfLiteNode,"ax",%p
 3340              		.align	2
 3341              		.global	_ZN6tflite3ops5micro11arg_min_max10ArgMinEvalEP13TfLiteContextP10TfLiteNode
 3342              		.syntax unified
 3343              		.arm
 3344              		.fpu neon
 3346              	_ZN6tflite3ops5micro11arg_min_max10ArgMinEvalEP13TfLiteContextP10TfLiteNode:
 3347              		.fnstart
 3348              	.LFB1767:
 3349              		@ args = 0, pretend = 0, frame = 56
 3350              		@ frame_needed = 0, uses_anonymous_args = 0
 3351 0000 F0412DE9 		push	{r4, r5, r6, r7, r8, lr}
 3352              		.save {r4, r5, r6, r7, r8, lr}
 3353 0004 004050E2 		subs	r4, r0, #0
 3354              		.pad #64
 3355 0008 40D04DE2 		sub	sp, sp, #64
 3356 000c 6F00000A 		beq	.L1084
 3357 0010 000051E3 		cmp	r1, #0
 3358 0014 0150A0E1 		mov	r5, r1
 3359 0018 6C00000A 		beq	.L1084
 3360 001c 002091E5 		ldr	r2, [r1]
 3361 0020 543094E5 		ldr	r3, [r4, #84]
 3362 0024 041092E5 		ldr	r1, [r2, #4]
 3363              	.LEHB23:
 3364 0028 33FF2FE1 		blx	r3
 3365 002c 002095E5 		ldr	r2, [r5]
 3366 0030 0070A0E1 		mov	r7, r0
 3367 0034 543094E5 		ldr	r3, [r4, #84]
 3368 0038 0400A0E1 		mov	r0, r4
 3369 003c 081092E5 		ldr	r1, [r2, #8]
 3370 0040 33FF2FE1 		blx	r3
 3371 0044 042095E5 		ldr	r2, [r5, #4]
 3372 0048 0060A0E1 		mov	r6, r0
 3373 004c 543094E5 		ldr	r3, [r4, #84]
 3374 0050 0400A0E1 		mov	r0, r4
 3375 0054 041092E5 		ldr	r1, [r2, #4]
 3376 0058 33FF2FE1 		blx	r3
 3377 005c 0830D6E5 		ldrb	r3, [r6, #8]	@ zero_extendqisi2
 3378 0060 0040A0E1 		mov	r4, r0
 3379 0064 020053E3 		cmp	r3, #2
 3380 0068 0200000A 		beq	.L1184
 3381              	.L1155:
 3382 006c 0100A0E3 		mov	r0, #1
 3383 0070 40D08DE2 		add	sp, sp, #64
 3384              		@ sp needed
 3385 0074 F081BDE8 		pop	{r4, r5, r6, r7, r8, pc}
 3386              	.L1184:
 3387 0078 0830D0E5 		ldrb	r3, [r0, #8]	@ zero_extendqisi2
 3388 007c 020053E3 		cmp	r3, #2
 3389 0080 F9FFFF1A 		bne	.L1155
 3390 0084 0830D7E5 		ldrb	r3, [r7, #8]	@ zero_extendqisi2
 3391 0088 030053E3 		cmp	r3, #3
 3392 008c 3B00000A 		beq	.L1086
 3393 0090 090053E3 		cmp	r3, #9
 3394 0094 2500000A 		beq	.L1087
 3395 0098 010053E3 		cmp	r3, #1
 3396 009c F2FFFF1A 		bne	.L1155
 3397 00a0 10508DE2 		add	r5, sp, #16
 3398 00a4 0710A0E1 		mov	r1, r7
 3399 00a8 0500A0E1 		mov	r0, r5
 3400 00ac 28808DE2 		add	r8, sp, #40
 3401 00b0 FEFFFFEB 		bl	_ZN6tflite5micro14GetTensorShapeEPK16TfLiteEvalTensor
 3402              	.LEHE23:
 3403 00b4 0800A0E1 		mov	r0, r8
 3404 00b8 0410A0E1 		mov	r1, r4
 3405 00bc 007097E5 		ldr	r7, [r7]
 3406 00c0 006096E5 		ldr	r6, [r6]
 3407              	.LEHB24:
 3408 00c4 FEFFFFEB 		bl	_ZN6tflite5micro14GetTensorShapeEPK16TfLiteEvalTensor
 3409              	.LEHE24:
 3410 00c8 0C208DE2 		add	r2, sp, #12
 3411 00cc 0830A0E1 		mov	r3, r8
 3412 00d0 04208DE5 		str	r2, [sp, #4]
 3413 00d4 0710A0E1 		mov	r1, r7
 3414 00d8 00C094E5 		ldr	ip, [r4]
 3415 00dc 0620A0E1 		mov	r2, r6
 3416 00e0 0500A0E1 		mov	r0, r5
 3417 00e4 00C08DE5 		str	ip, [sp]
 3418              	.LEHB25:
 3419 00e8 FEFFFFEB 		bl	_ZN6tflite13reference_ops9ArgMinMaxIfllNS_3ops5micro4LessEEEvRKNS_12RuntimeShapeEPKT_PKT1_S7_PT
 3420              	.LEHE25:
 3421              	.L1179:
 3422 00ec 28309DE5 		ldr	r3, [sp, #40]
 3423 00f0 050053E3 		cmp	r3, #5
 3424 00f4 030000DA 		ble	.L1093
 3425 00f8 2C009DE5 		ldr	r0, [sp, #44]
 3426 00fc 000050E3 		cmp	r0, #0
 3427 0100 0000000A 		beq	.L1093
 3428 0104 FEFFFFEB 		bl	_ZdaPv
 3429              	.L1093:
 3430 0108 10309DE5 		ldr	r3, [sp, #16]
 3431 010c 050053E3 		cmp	r3, #5
 3432 0110 030000DA 		ble	.L1094
 3433 0114 14009DE5 		ldr	r0, [sp, #20]
 3434 0118 000050E3 		cmp	r0, #0
 3435 011c 0000000A 		beq	.L1094
 3436 0120 FEFFFFEB 		bl	_ZdaPv
 3437              	.L1094:
 3438 0124 0000A0E3 		mov	r0, #0
 3439 0128 40D08DE2 		add	sp, sp, #64
 3440              		@ sp needed
 3441 012c F081BDE8 		pop	{r4, r5, r6, r7, r8, pc}
 3442              	.L1087:
 3443 0130 10508DE2 		add	r5, sp, #16
 3444 0134 0710A0E1 		mov	r1, r7
 3445 0138 0500A0E1 		mov	r0, r5
 3446 013c 28808DE2 		add	r8, sp, #40
 3447              	.LEHB26:
 3448 0140 FEFFFFEB 		bl	_ZN6tflite5micro14GetTensorShapeEPK16TfLiteEvalTensor
 3449              	.LEHE26:
 3450 0144 0800A0E1 		mov	r0, r8
 3451 0148 0410A0E1 		mov	r1, r4
 3452 014c 007097E5 		ldr	r7, [r7]
 3453 0150 006096E5 		ldr	r6, [r6]
 3454              	.LEHB27:
 3455 0154 FEFFFFEB 		bl	_ZN6tflite5micro14GetTensorShapeEPK16TfLiteEvalTensor
 3456              	.LEHE27:
 3457 0158 0C208DE2 		add	r2, sp, #12
 3458 015c 0830A0E1 		mov	r3, r8
 3459 0160 04208DE5 		str	r2, [sp, #4]
 3460 0164 0710A0E1 		mov	r1, r7
 3461 0168 00C094E5 		ldr	ip, [r4]
 3462 016c 0620A0E1 		mov	r2, r6
 3463 0170 0500A0E1 		mov	r0, r5
 3464 0174 00C08DE5 		str	ip, [sp]
 3465              	.LEHB28:
 3466 0178 FEFFFFEB 		bl	_ZN6tflite13reference_ops9ArgMinMaxIallNS_3ops5micro4LessEEEvRKNS_12RuntimeShapeEPKT_PKT1_S7_PT
 3467              	.LEHE28:
 3468 017c DAFFFFEA 		b	.L1179
 3469              	.L1086:
 3470 0180 10508DE2 		add	r5, sp, #16
 3471 0184 0710A0E1 		mov	r1, r7
 3472 0188 0500A0E1 		mov	r0, r5
 3473 018c 28808DE2 		add	r8, sp, #40
 3474              	.LEHB29:
 3475 0190 FEFFFFEB 		bl	_ZN6tflite5micro14GetTensorShapeEPK16TfLiteEvalTensor
 3476              	.LEHE29:
 3477 0194 0800A0E1 		mov	r0, r8
 3478 0198 0410A0E1 		mov	r1, r4
 3479 019c 007097E5 		ldr	r7, [r7]
 3480 01a0 006096E5 		ldr	r6, [r6]
 3481              	.LEHB30:
 3482 01a4 FEFFFFEB 		bl	_ZN6tflite5micro14GetTensorShapeEPK16TfLiteEvalTensor
 3483              	.LEHE30:
 3484 01a8 0C208DE2 		add	r2, sp, #12
 3485 01ac 0830A0E1 		mov	r3, r8
 3486 01b0 04208DE5 		str	r2, [sp, #4]
 3487 01b4 0710A0E1 		mov	r1, r7
 3488 01b8 00C094E5 		ldr	ip, [r4]
 3489 01bc 0620A0E1 		mov	r2, r6
 3490 01c0 0500A0E1 		mov	r0, r5
 3491 01c4 00C08DE5 		str	ip, [sp]
 3492              	.LEHB31:
 3493 01c8 FEFFFFEB 		bl	_ZN6tflite13reference_ops9ArgMinMaxIhllNS_3ops5micro4LessEEEvRKNS_12RuntimeShapeEPKT_PKT1_S7_PT
 3494              	.LEHE31:
 3495 01cc C6FFFFEA 		b	.L1179
 3496              	.L1084:
 3497              	.LEHB32:
 3498 01d0 FEFFFFEB 		bl	abort
 3499              	.L1113:
 3500              	.L1182:
 3501 01d4 28309DE5 		ldr	r3, [sp, #40]
 3502 01d8 050053E3 		cmp	r3, #5
 3503 01dc 030000DA 		ble	.L1105
 3504 01e0 2C009DE5 		ldr	r0, [sp, #44]
 3505 01e4 000050E3 		cmp	r0, #0
 3506 01e8 0000000A 		beq	.L1105
 3507 01ec FEFFFFEB 		bl	_ZdaPv
 3508              	.L1105:
 3509 01f0 10309DE5 		ldr	r3, [sp, #16]
 3510 01f4 050053E3 		cmp	r3, #5
 3511 01f8 030000DA 		ble	.L1106
 3512 01fc 14009DE5 		ldr	r0, [sp, #20]
 3513 0200 000050E3 		cmp	r0, #0
 3514 0204 0000000A 		beq	.L1106
 3515 0208 FEFFFFEB 		bl	_ZdaPv
 3516              	.L1106:
 3517 020c FEFFFFEB 		bl	__cxa_end_cleanup
 3518              	.LEHE32:
 3519              	.L1112:
 3520 0210 F6FFFFEA 		b	.L1105
 3521              	.L1111:
 3522 0214 EEFFFFEA 		b	.L1182
 3523              	.L1110:
 3524 0218 F4FFFFEA 		b	.L1105
 3525              	.L1115:
 3526 021c ECFFFFEA 		b	.L1182
 3527              	.L1114:
 3528 0220 F2FFFFEA 		b	.L1105
 3529              		.personality	__gxx_personality_v0
 3530              		.handlerdata
 3531              	.LLSDA1767:
 3532 0008 FF       		.byte	0xff
 3533 0009 FF       		.byte	0xff
 3534 000a 01       		.byte	0x1
 3535 000b 38       		.uleb128 .LLSDACSE1767-.LLSDACSB1767
 3536              	.LLSDACSB1767:
 3537 000c 28       		.uleb128 .LEHB23-.LFB1767
 3538 000d 8C01     		.uleb128 .LEHE23-.LEHB23
 3539 000f 00       		.uleb128 0
 3540 0010 00       		.uleb128 0
 3541 0011 C401     		.uleb128 .LEHB24-.LFB1767
 3542 0013 04       		.uleb128 .LEHE24-.LEHB24
 3543 0014 9804     		.uleb128 .L1110-.LFB1767
 3544 0016 00       		.uleb128 0
 3545 0017 E801     		.uleb128 .LEHB25-.LFB1767
 3546 0019 04       		.uleb128 .LEHE25-.LEHB25
 3547 001a 9404     		.uleb128 .L1111-.LFB1767
 3548 001c 00       		.uleb128 0
 3549 001d C002     		.uleb128 .LEHB26-.LFB1767
 3550 001f 04       		.uleb128 .LEHE26-.LEHB26
 3551 0020 00       		.uleb128 0
 3552 0021 00       		.uleb128 0
 3553 0022 D402     		.uleb128 .LEHB27-.LFB1767
 3554 0024 04       		.uleb128 .LEHE27-.LEHB27
 3555 0025 A004     		.uleb128 .L1114-.LFB1767
 3556 0027 00       		.uleb128 0
 3557 0028 F802     		.uleb128 .LEHB28-.LFB1767
 3558 002a 04       		.uleb128 .LEHE28-.LEHB28
 3559 002b 9C04     		.uleb128 .L1115-.LFB1767
 3560 002d 00       		.uleb128 0
 3561 002e 9003     		.uleb128 .LEHB29-.LFB1767
 3562 0030 04       		.uleb128 .LEHE29-.LEHB29
 3563 0031 00       		.uleb128 0
 3564 0032 00       		.uleb128 0
 3565 0033 A403     		.uleb128 .LEHB30-.LFB1767
 3566 0035 04       		.uleb128 .LEHE30-.LEHB30
 3567 0036 9004     		.uleb128 .L1112-.LFB1767
 3568 0038 00       		.uleb128 0
 3569 0039 C803     		.uleb128 .LEHB31-.LFB1767
 3570 003b 04       		.uleb128 .LEHE31-.LEHB31
 3571 003c D403     		.uleb128 .L1113-.LFB1767
 3572 003e 00       		.uleb128 0
 3573 003f D003     		.uleb128 .LEHB32-.LFB1767
 3574 0041 40       		.uleb128 .LEHE32-.LEHB32
 3575 0042 00       		.uleb128 0
 3576 0043 00       		.uleb128 0
 3577              	.LLSDACSE1767:
 3578              		.section	.text._ZN6tflite3ops5micro11arg_min_max10ArgMinEvalEP13TfLiteContextP10TfLiteNode
 3579              		.fnend
 3581              		.ident	"GCC: (GNU Tools for ARM Embedded Processors 6-2017-q2-update) 6.3.1 20170620 (release) [AR