   1              		.cpu cortex-a9
   2              		.eabi_attribute 28, 1
   3              		.eabi_attribute 20, 1
   4              		.eabi_attribute 21, 1
   5              		.eabi_attribute 23, 3
   6              		.eabi_attribute 24, 1
   7              		.eabi_attribute 25, 1
   8              		.eabi_attribute 26, 1
   9              		.eabi_attribute 30, 2
  10              		.eabi_attribute 34, 0
  11              		.eabi_attribute 18, 4
  12              		.file	"cast.cc"
  13              		.section	.text._ZN6tflite12_GLOBAL__N_17PrepareEP13TfLiteContextP10TfLiteNode,"ax",%progbits
  14              		.align	2
  15              		.syntax unified
  16              		.arm
  17              		.fpu neon
  19              	_ZN6tflite12_GLOBAL__N_17PrepareEP13TfLiteContextP10TfLiteNode:
  20              		.fnstart
  21              	.LFB915:
  22              		@ args = 0, pretend = 0, frame = 0
  23              		@ frame_needed = 0, uses_anonymous_args = 0
  24 0000 002091E5 		ldr	r2, [r1]
  25 0004 002092E5 		ldr	r2, [r2]
  26 0008 010052E3 		cmp	r2, #1
  27 000c 0100000A 		beq	.L13
  28 0010 0100A0E3 		mov	r0, #1
  29 0014 1EFF2FE1 		bx	lr
  30              	.L13:
  31 0018 042091E5 		ldr	r2, [r1, #4]
  32 001c 70402DE9 		push	{r4, r5, r6, lr}
  33              		.save {r4, r5, r6, lr}
  34 0020 0140A0E1 		mov	r4, r1
  35 0024 002092E5 		ldr	r2, [r2]
  36 0028 010052E3 		cmp	r2, #1
  37 002c 0100000A 		beq	.L14
  38              	.L4:
  39 0030 0100A0E3 		mov	r0, #1
  40 0034 7080BDE8 		pop	{r4, r5, r6, pc}
  41              	.L14:
  42 0038 0020A0E3 		mov	r2, #0
  43 003c 0050A0E1 		mov	r5, r0
  44 0040 FEFFFFEB 		bl	_ZN6tflite8GetInputEPK13TfLiteContextPK10TfLiteNodei
  45 0044 000050E3 		cmp	r0, #0
  46 0048 F8FFFF0A 		beq	.L4
  47 004c 0410A0E1 		mov	r1, r4
  48 0050 0500A0E1 		mov	r0, r5
  49 0054 0020A0E3 		mov	r2, #0
  50 0058 FEFFFFEB 		bl	_ZN6tflite9GetOutputEP13TfLiteContextPK10TfLiteNodei
  51 005c 100F6FE1 		clz	r0, r0
  52 0060 A002A0E1 		lsr	r0, r0, #5
  53 0064 7080BDE8 		pop	{r4, r5, r6, pc}
  54              		.fnend
  56              		.section	.text._ZN6tflite12_GLOBAL__N_14EvalEP13TfLiteContextP10TfLiteNode,"ax",%progbits
  57              		.align	2
  58              		.syntax unified
  59              		.arm
  60              		.fpu neon
  62              	_ZN6tflite12_GLOBAL__N_14EvalEP13TfLiteContextP10TfLiteNode:
  63              		.fnstart
  64              	.LFB919:
  65              		@ args = 0, pretend = 0, frame = 48
  66              		@ frame_needed = 0, uses_anonymous_args = 0
  67 0000 F0472DE9 		push	{r4, r5, r6, r7, r8, r9, r10, lr}
  68              		.save {r4, r5, r6, r7, r8, r9, r10, lr}
  69 0004 005050E2 		subs	r5, r0, #0
  70              		.pad #48
  71 0008 30D04DE2 		sub	sp, sp, #48
  72 000c BE03000A 		beq	.L17
  73 0010 000051E3 		cmp	r1, #0
  74 0014 0160A0E1 		mov	r6, r1
  75 0018 BB03000A 		beq	.L17
  76 001c 002091E5 		ldr	r2, [r1]
  77 0020 543095E5 		ldr	r3, [r5, #84]
  78 0024 041092E5 		ldr	r1, [r2, #4]
  79              	.LEHB0:
  80 0028 33FF2FE1 		blx	r3
  81 002c 042096E5 		ldr	r2, [r6, #4]
  82 0030 0040A0E1 		mov	r4, r0
  83 0034 543095E5 		ldr	r3, [r5, #84]
  84 0038 0500A0E1 		mov	r0, r5
  85 003c 041092E5 		ldr	r1, [r2, #4]
  86 0040 33FF2FE1 		blx	r3
  87 0044 0410A0E1 		mov	r1, r4
  88 0048 0050A0E1 		mov	r5, r0
  89 004c 0D00A0E1 		mov	r0, sp
  90 0050 FEFFFFEB 		bl	_ZN6tflite5micro14GetTensorShapeEPK16TfLiteEvalTensor
  91              	.LEHE0:
  92 0054 0510A0E1 		mov	r1, r5
  93 0058 18008DE2 		add	r0, sp, #24
  94              	.LEHB1:
  95 005c FEFFFFEB 		bl	_ZN6tflite5micro14GetTensorShapeEPK16TfLiteEvalTensor
  96              	.LEHE1:
  97 0060 00209DE5 		ldr	r2, [sp]
  98 0064 18709DE5 		ldr	r7, [sp, #24]
  99 0068 070052E1 		cmp	r2, r7
 100 006c A403001A 		bne	.L18
 101 0070 000052E3 		cmp	r2, #0
 102 0074 940200DA 		ble	.L156
 103 0078 050052E3 		cmp	r2, #5
 104 007c 04809DE5 		ldr	r8, [sp, #4]
 105 0080 1C009DE5 		ldr	r0, [sp, #28]
 106 0084 A90100CA 		bgt	.L21
 107 0088 000052E3 		cmp	r2, #0
 108 008c 890300DA 		ble	.L22
 109 0090 000058E1 		cmp	r8, r0
 110 0094 9703001A 		bne	.L23
 111 0098 010052E3 		cmp	r2, #1
 112 009c 1900000A 		beq	.L95
 113 00a0 08109DE5 		ldr	r1, [sp, #8]
 114 00a4 20309DE5 		ldr	r3, [sp, #32]
 115 00a8 030051E1 		cmp	r1, r3
 116 00ac 9103001A 		bne	.L23
 117 00b0 020052E3 		cmp	r2, #2
 118 00b4 1300000A 		beq	.L95
 119 00b8 0C109DE5 		ldr	r1, [sp, #12]
 120 00bc 24309DE5 		ldr	r3, [sp, #36]
 121 00c0 030051E1 		cmp	r1, r3
 122 00c4 8B03001A 		bne	.L23
 123 00c8 030052E3 		cmp	r2, #3
 124 00cc 0D00000A 		beq	.L95
 125 00d0 030057E3 		cmp	r7, #3
 126 00d4 10109DE5 		ldr	r1, [sp, #16]
 127 00d8 7603000A 		beq	.L22
 128 00dc 28309DE5 		ldr	r3, [sp, #40]
 129 00e0 030051E1 		cmp	r1, r3
 130 00e4 8303001A 		bne	.L23
 131 00e8 040052E3 		cmp	r2, #4
 132 00ec 0500000A 		beq	.L95
 133 00f0 040057E3 		cmp	r7, #4
 134 00f4 14309DE5 		ldr	r3, [sp, #20]
 135 00f8 6E03000A 		beq	.L22
 136 00fc 2C109DE5 		ldr	r1, [sp, #44]
 137 0100 030051E1 		cmp	r1, r3
 138 0104 7B03001A 		bne	.L23
 139              	.L95:
 140 0108 04108DE2 		add	r1, sp, #4
 141              	.L24:
 142 010c 010052E3 		cmp	r2, #1
 143 0110 5131A0E7 		sbfx	r3, r1, #2, #1
 144 0114 02C0A0A1 		movge	ip, r2
 145 0118 01C0A0B3 		movlt	ip, #1
 146 011c 033003E2 		and	r3, r3, #3
 147 0120 0C0053E1 		cmp	r3, ip
 148 0124 0C30A021 		movcs	r3, ip
 149 0128 08005CE3 		cmp	ip, #8
 150 012c 0C30A0D1 		movle	r3, ip
 151 0130 8C0100CA 		bgt	.L157
 152              	.L29:
 153 0134 010053E3 		cmp	r3, #1
 154 0138 006091E5 		ldr	r6, [r1]
 155 013c C400000A 		beq	.L104
 156 0140 04E091E5 		ldr	lr, [r1, #4]
 157 0144 020053E3 		cmp	r3, #2
 158 0148 9E0606E0 		mul	r6, lr, r6
 159 014c C000000A 		beq	.L104
 160 0150 08E091E5 		ldr	lr, [r1, #8]
 161 0154 030053E3 		cmp	r3, #3
 162 0158 9E0606E0 		mul	r6, lr, r6
 163 015c BC00000A 		beq	.L104
 164 0160 0CE091E5 		ldr	lr, [r1, #12]
 165 0164 040053E3 		cmp	r3, #4
 166 0168 9E0606E0 		mul	r6, lr, r6
 167 016c B800000A 		beq	.L104
 168 0170 10E091E5 		ldr	lr, [r1, #16]
 169 0174 050053E3 		cmp	r3, #5
 170 0178 9E0606E0 		mul	r6, lr, r6
 171 017c B400000A 		beq	.L104
 172 0180 14E091E5 		ldr	lr, [r1, #20]
 173 0184 060053E3 		cmp	r3, #6
 174 0188 9E0606E0 		mul	r6, lr, r6
 175 018c B000000A 		beq	.L104
 176 0190 18E091E5 		ldr	lr, [r1, #24]
 177 0194 070053E3 		cmp	r3, #7
 178 0198 9E0606E0 		mul	r6, lr, r6
 179 019c AC00000A 		beq	.L104
 180 01a0 1C8091E5 		ldr	r8, [r1, #28]
 181 01a4 08E0A0E3 		mov	lr, #8
 182 01a8 980606E0 		mul	r6, r8, r6
 183              	.L31:
 184 01ac 03005CE1 		cmp	ip, r3
 185 01b0 2A00000A 		beq	.L32
 186              	.L30:
 187 01b4 000052E3 		cmp	r2, #0
 188 01b8 03C04CE0 		sub	ip, ip, r3
 189 01bc 019042C2 		subgt	r9, r2, #1
 190 01c0 0090A0D3 		movle	r9, #0
 191 01c4 04804CE2 		sub	r8, ip, #4
 192 01c8 2881A0E1 		lsr	r8, r8, #2
 193 01cc 039049E0 		sub	r9, r9, r3
 194 01d0 020059E3 		cmp	r9, #2
 195 01d4 018088E2 		add	r8, r8, #1
 196 01d8 08A1A0E1 		lsl	r10, r8, #2
 197 01dc 1200009A 		bls	.L33
 198 01e0 033181E0 		add	r3, r1, r3, lsl #2
 199 01e4 5100C0F2 		vmov.i32	q8, #1  @ v4si
 200 01e8 0090A0E3 		mov	r9, #0
 201              	.L35:
 202 01ec 019089E2 		add	r9, r9, #1
 203 01f0 DF2A63F4 		vld1.64	{d18-d19}, [r3:64]
 204 01f4 090058E1 		cmp	r8, r9
 205 01f8 103083E2 		add	r3, r3, #16
 206 01fc F20960F2 		vmul.i32	q8, q8, q9
 207 0200 F9FFFF8A 		bhi	.L35
 208 0204 0A005CE1 		cmp	ip, r10
 209 0208 0AE08EE0 		add	lr, lr, r10
 210 020c 5020C0F2 		vmov.i32	q9, #0  @ v4si
 211 0210 E248F0F2 		vext.32	q10, q8, q9, #2
 212 0214 F40960F2 		vmul.i32	q8, q8, q10
 213 0218 E224F0F2 		vext.32	q9, q8, q9, #1
 214 021c F20960F2 		vmul.i32	q8, q8, q9
 215 0220 903B10EE 		vmov.32	r3, d16[0]
 216 0224 930606E0 		mul	r6, r3, r6
 217 0228 0C00000A 		beq	.L32
 218              	.L33:
 219 022c 0EC191E7 		ldr	ip, [r1, lr, lsl #2]
 220 0230 01308EE2 		add	r3, lr, #1
 221 0234 030052E1 		cmp	r2, r3
 222 0238 0E31A0E1 		lsl	r3, lr, #2
 223 023c 9C0606E0 		mul	r6, ip, r6
 224 0240 060000DA 		ble	.L32
 225 0244 031081E0 		add	r1, r1, r3
 226 0248 02E08EE2 		add	lr, lr, #2
 227 024c 043091E5 		ldr	r3, [r1, #4]
 228 0250 0E0052E1 		cmp	r2, lr
 229 0254 930606E0 		mul	r6, r3, r6
 230 0258 083091C5 		ldrgt	r3, [r1, #8]
 231 025c 930606C0 		mulgt	r6, r3, r6
 232              	.L32:
 233 0260 050057E3 		cmp	r7, #5
 234 0264 7C0000CA 		bgt	.L158
 235              	.L40:
 236 0268 0830D4E5 		ldrb	r3, [r4, #8]	@ zero_extendqisi2
 237 026c 010053E3 		cmp	r3, #1
 238 0270 8600000A 		beq	.L65
 239              	.L159:
 240 0274 090053E3 		cmp	r3, #9
 241 0278 7200001A 		bne	.L127
 242 027c 0820D5E5 		ldrb	r2, [r5, #8]	@ zero_extendqisi2
 243 0280 003094E5 		ldr	r3, [r4]
 244 0284 010052E3 		cmp	r2, #1
 245 0288 7201000A 		beq	.L43
 246 028c 090052E3 		cmp	r2, #9
 247 0290 6C00001A 		bne	.L127
 248 0294 061083E0 		add	r1, r3, r6
 249 0298 000095E5 		ldr	r0, [r5]
 250 029c 010053E1 		cmp	r3, r1
 251 02a0 6800000A 		beq	.L127
 252 02a4 102083E2 		add	r2, r3, #16
 253 02a8 10E080E2 		add	lr, r0, #16
 254 02ac 0E0053E1 		cmp	r3, lr
 255 02b0 02005031 		cmpcc	r0, r2
 256 02b4 00C083E1 		orr	ip, r3, r0
 257 02b8 0120A023 		movcs	r2, #1
 258 02bc 0020A033 		movcc	r2, #0
 259 02c0 0F001CE3 		tst	ip, #15
 260 02c4 01C083E2 		add	ip, r3, #1
 261 02c8 0020A013 		movne	r2, #0
 262 02cc 01200202 		andeq	r2, r2, #1
 263 02d0 0F0056E3 		cmp	r6, #15
 264 02d4 0020A093 		movls	r2, #0
 265 02d8 01200282 		andhi	r2, r2, #1
 266 02dc 000052E3 		cmp	r2, #0
 267 02e0 5F02000A 		beq	.L46
 268 02e4 10E046E2 		sub	lr, r6, #16
 269 02e8 0350A0E1 		mov	r5, r3
 270 02ec 2EE2A0E1 		lsr	lr, lr, #4
 271 02f0 00C0A0E1 		mov	ip, r0
 272 02f4 0020A0E3 		mov	r2, #0
 273 02f8 01E08EE2 		add	lr, lr, #1
 274 02fc 0E42A0E1 		lsl	r4, lr, #4
 275              	.L48:
 276 0300 012082E2 		add	r2, r2, #1
 277 0304 DF0A65F4 		vld1.64	{d16-d17}, [r5:64]
 278 0308 02005EE1 		cmp	lr, r2
 279 030c 105085E2 		add	r5, r5, #16
 280 0310 DF0A4CF4 		vst1.64	{d16-d17}, [ip:64]
 281 0314 10C08CE2 		add	ip, ip, #16
 282 0318 F8FFFF8A 		bhi	.L48
 283 031c 040056E1 		cmp	r6, r4
 284 0320 042083E0 		add	r2, r3, r4
 285 0324 04C080E0 		add	ip, r0, r4
 286 0328 4600000A 		beq	.L127
 287 032c D43093E1 		ldrsb	r3, [r3, r4]
 288 0330 014082E2 		add	r4, r2, #1
 289 0334 040051E1 		cmp	r1, r4
 290 0338 0E32C0E7 		strb	r3, [r0, lr, lsl #4]
 291 033c 4100000A 		beq	.L127
 292 0340 D130D2E1 		ldrsb	r3, [r2, #1]
 293 0344 020082E2 		add	r0, r2, #2
 294 0348 000051E1 		cmp	r1, r0
 295 034c 0130CCE5 		strb	r3, [ip, #1]
 296 0350 3C00000A 		beq	.L127
 297 0354 D230D2E1 		ldrsb	r3, [r2, #2]
 298 0358 030082E2 		add	r0, r2, #3
 299 035c 000051E1 		cmp	r1, r0
 300 0360 0230CCE5 		strb	r3, [ip, #2]
 301 0364 3700000A 		beq	.L127
 302 0368 D330D2E1 		ldrsb	r3, [r2, #3]
 303 036c 040082E2 		add	r0, r2, #4
 304 0370 000051E1 		cmp	r1, r0
 305 0374 0330CCE5 		strb	r3, [ip, #3]
 306 0378 3200000A 		beq	.L127
 307 037c D430D2E1 		ldrsb	r3, [r2, #4]
 308 0380 050082E2 		add	r0, r2, #5
 309 0384 000051E1 		cmp	r1, r0
 310 0388 0430CCE5 		strb	r3, [ip, #4]
 311 038c 2D00000A 		beq	.L127
 312 0390 D530D2E1 		ldrsb	r3, [r2, #5]
 313 0394 060082E2 		add	r0, r2, #6
 314 0398 000051E1 		cmp	r1, r0
 315 039c 0530CCE5 		strb	r3, [ip, #5]
 316 03a0 2800000A 		beq	.L127
 317 03a4 D630D2E1 		ldrsb	r3, [r2, #6]
 318 03a8 070082E2 		add	r0, r2, #7
 319 03ac 000051E1 		cmp	r1, r0
 320 03b0 0630CCE5 		strb	r3, [ip, #6]
 321 03b4 2300000A 		beq	.L127
 322 03b8 D730D2E1 		ldrsb	r3, [r2, #7]
 323 03bc 080082E2 		add	r0, r2, #8
 324 03c0 000051E1 		cmp	r1, r0
 325 03c4 0730CCE5 		strb	r3, [ip, #7]
 326 03c8 1E00000A 		beq	.L127
 327 03cc D830D2E1 		ldrsb	r3, [r2, #8]
 328 03d0 090082E2 		add	r0, r2, #9
 329 03d4 000051E1 		cmp	r1, r0
 330 03d8 0830CCE5 		strb	r3, [ip, #8]
 331 03dc 1900000A 		beq	.L127
 332 03e0 D930D2E1 		ldrsb	r3, [r2, #9]
 333 03e4 0A0082E2 		add	r0, r2, #10
 334 03e8 000051E1 		cmp	r1, r0
 335 03ec 0930CCE5 		strb	r3, [ip, #9]
 336 03f0 1400000A 		beq	.L127
 337 03f4 DA30D2E1 		ldrsb	r3, [r2, #10]
 338 03f8 0B0082E2 		add	r0, r2, #11
 339 03fc 000051E1 		cmp	r1, r0
 340 0400 0A30CCE5 		strb	r3, [ip, #10]
 341 0404 0F00000A 		beq	.L127
 342 0408 DB30D2E1 		ldrsb	r3, [r2, #11]
 343 040c 0C0082E2 		add	r0, r2, #12
 344 0410 000051E1 		cmp	r1, r0
 345 0414 0B30CCE5 		strb	r3, [ip, #11]
 346 0418 0A00000A 		beq	.L127
 347 041c DC30D2E1 		ldrsb	r3, [r2, #12]
 348 0420 0D0082E2 		add	r0, r2, #13
 349 0424 000051E1 		cmp	r1, r0
 350 0428 0C30CCE5 		strb	r3, [ip, #12]
 351 042c 0500000A 		beq	.L127
 352 0430 DD30D2E1 		ldrsb	r3, [r2, #13]
 353 0434 0E0082E2 		add	r0, r2, #14
 354 0438 000051E1 		cmp	r1, r0
 355 043c 0D30CCE5 		strb	r3, [ip, #13]
 356 0440 DE30D211 		ldrsbne	r3, [r2, #14]
 357 0444 0E30CC15 		strbne	r3, [ip, #14]
 358              	.L127:
 359 0448 0000A0E3 		mov	r0, #0
 360 044c 30D08DE2 		add	sp, sp, #48
 361              		@ sp needed
 362 0450 F087BDE8 		pop	{r4, r5, r6, r7, r8, r9, r10, pc}
 363              	.L104:
 364 0454 03E0A0E1 		mov	lr, r3
 365 0458 53FFFFEA 		b	.L31
 366              	.L158:
 367 045c 000050E3 		cmp	r0, #0
 368 0460 0100000A 		beq	.L19
 369 0464 FEFFFFEB 		bl	_ZdaPv
 370 0468 00709DE5 		ldr	r7, [sp]
 371              	.L19:
 372 046c 050057E3 		cmp	r7, #5
 373 0470 7CFFFFDA 		ble	.L40
 374 0474 04009DE5 		ldr	r0, [sp, #4]
 375 0478 000050E3 		cmp	r0, #0
 376 047c 79FFFF0A 		beq	.L40
 377 0480 FEFFFFEB 		bl	_ZdaPv
 378 0484 0830D4E5 		ldrb	r3, [r4, #8]	@ zero_extendqisi2
 379 0488 010053E3 		cmp	r3, #1
 380 048c 78FFFF1A 		bne	.L159
 381              	.L65:
 382 0490 0820D5E5 		ldrb	r2, [r5, #8]	@ zero_extendqisi2
 383 0494 003094E5 		ldr	r3, [r4]
 384 0498 010052E3 		cmp	r2, #1
 385 049c B600000A 		beq	.L66
 386 04a0 090052E3 		cmp	r2, #9
 387 04a4 E7FFFF1A 		bne	.L127
 388 04a8 0661A0E1 		lsl	r6, r6, #2
 389 04ac 001095E5 		ldr	r1, [r5]
 390 04b0 060083E0 		add	r0, r3, r6
 391 04b4 000053E1 		cmp	r3, r0
 392 04b8 E2FFFF0A 		beq	.L127
 393 04bc 046046E2 		sub	r6, r6, #4
 394 04c0 01C083E1 		orr	ip, r3, r1
 395 04c4 2621A0E1 		lsr	r2, r6, #2
 396 04c8 5CC0E3E7 		ubfx	ip, ip, #0, #4
 397 04cc 01E082E2 		add	lr, r2, #1
 398 04d0 0F005EE3 		cmp	lr, #15
 399 04d4 0E4183E0 		add	r4, r3, lr, lsl #2
 400 04d8 0050A093 		movls	r5, #0
 401 04dc 0150A083 		movhi	r5, #1
 402 04e0 0E6081E0 		add	r6, r1, lr
 403 04e4 00005CE3 		cmp	ip, #0
 404 04e8 0050A013 		movne	r5, #0
 405 04ec 060053E1 		cmp	r3, r6
 406 04f0 04005131 		cmpcc	r1, r4
 407 04f4 01C0A023 		movcs	ip, #1
 408 04f8 00C0A033 		movcc	ip, #0
 409 04fc 05001CE1 		tst	ip, r5
 410 0500 044083E2 		add	r4, r3, #4
 411 0504 3102000A 		beq	.L68
 412 0508 0F2042E2 		sub	r2, r2, #15
 413 050c 404083E2 		add	r4, r3, #64
 414 0510 2222A0E1 		lsr	r2, r2, #4
 415 0514 0160A0E1 		mov	r6, r1
 416 0518 0050A0E3 		mov	r5, #0
 417 051c 012082E2 		add	r2, r2, #1
 418 0520 02C2A0E1 		lsl	ip, r2, #4
 419              	.L70:
 420 0524 106B54ED 		vldr	d22, [r4, #-64]
 421 0528 0E7B54ED 		vldr	d23, [r4, #-56]
 422 052c 015085E2 		add	r5, r5, #1
 423 0530 6667FBF3 		vcvt.s32.f32	q11, q11
 424 0534 050052E1 		cmp	r2, r5
 425 0538 0C4B54ED 		vldr	d20, [r4, #-48]
 426 053c 0A5B54ED 		vldr	d21, [r4, #-40]
 427 0540 106086E2 		add	r6, r6, #16
 428 0544 404084E2 		add	r4, r4, #64
 429 0548 182B54ED 		vldr	d18, [r4, #-96]
 430 054c 163B54ED 		vldr	d19, [r4, #-88]
 431 0550 6447FBF3 		vcvt.s32.f32	q10, q10
 432 0554 140B54ED 		vldr	d16, [r4, #-80]
 433 0558 121B54ED 		vldr	d17, [r4, #-72]
 434 055c 6007FBF3 		vcvt.s32.f32	q8, q8
 435 0560 6227FBF3 		vcvt.s32.f32	q9, q9
 436 0564 2682F6F3 		vmovn.i32	d24, q11
 437 0568 2492F6F3 		vmovn.i32	d25, q10
 438 056c 2242F6F3 		vmovn.i32	d20, q9
 439 0570 2052F6F3 		vmovn.i32	d21, q8
 440 0574 2802F2F3 		vmovn.i16	d16, q12
 441 0578 2412F2F3 		vmovn.i16	d17, q10
 442 057c 040B46ED 		vstr	d16, [r6, #-16]
 443 0580 021B46ED 		vstr	d17, [r6, #-8]
 444 0584 E6FFFF8A 		bhi	.L70
 445 0588 0C005EE1 		cmp	lr, ip
 446 058c 0C3183E0 		add	r3, r3, ip, lsl #2
 447 0590 0CC081E0 		add	ip, r1, ip
 448 0594 ABFFFF0A 		beq	.L127
 449 0598 03E0A0E1 		mov	lr, r3
 450 059c 017AFEEC 		vldmia.32	lr!, {s15}
 451 05a0 0E0050E1 		cmp	r0, lr
 452 05a4 E77AFDEE 		vcvt.s32.f32	s15, s15
 453 05a8 90EA17EE 		vmov	lr, s15	@ int
 454 05ac 02E2C1E7 		strb	lr, [r1, r2, lsl #4]
 455 05b0 A4FFFF0A 		beq	.L127
 456 05b4 017AD3ED 		vldr.32	s15, [r3, #4]
 457 05b8 082083E2 		add	r2, r3, #8
 458 05bc 020050E1 		cmp	r0, r2
 459 05c0 E77AFDEE 		vcvt.s32.f32	s15, s15
 460 05c4 902A17EE 		vmov	r2, s15	@ int
 461 05c8 0120CCE5 		strb	r2, [ip, #1]
 462 05cc 9DFFFF0A 		beq	.L127
 463 05d0 027AD3ED 		vldr.32	s15, [r3, #8]
 464 05d4 0C2083E2 		add	r2, r3, #12
 465 05d8 020050E1 		cmp	r0, r2
 466 05dc E77AFDEE 		vcvt.s32.f32	s15, s15
 467 05e0 902A17EE 		vmov	r2, s15	@ int
 468 05e4 0220CCE5 		strb	r2, [ip, #2]
 469 05e8 96FFFF0A 		beq	.L127
 470 05ec 037AD3ED 		vldr.32	s15, [r3, #12]
 471 05f0 102083E2 		add	r2, r3, #16
 472 05f4 020050E1 		cmp	r0, r2
 473 05f8 E77AFDEE 		vcvt.s32.f32	s15, s15
 474 05fc 902A17EE 		vmov	r2, s15	@ int
 475 0600 0320CCE5 		strb	r2, [ip, #3]
 476 0604 8FFFFF0A 		beq	.L127
 477 0608 047AD3ED 		vldr.32	s15, [r3, #16]
 478 060c 142083E2 		add	r2, r3, #20
 479 0610 020050E1 		cmp	r0, r2
 480 0614 E77AFDEE 		vcvt.s32.f32	s15, s15
 481 0618 902A17EE 		vmov	r2, s15	@ int
 482 061c 0420CCE5 		strb	r2, [ip, #4]
 483 0620 88FFFF0A 		beq	.L127
 484 0624 057AD3ED 		vldr.32	s15, [r3, #20]
 485 0628 182083E2 		add	r2, r3, #24
 486 062c 020050E1 		cmp	r0, r2
 487 0630 E77AFDEE 		vcvt.s32.f32	s15, s15
 488 0634 902A17EE 		vmov	r2, s15	@ int
 489 0638 0520CCE5 		strb	r2, [ip, #5]
 490 063c 81FFFF0A 		beq	.L127
 491 0640 067AD3ED 		vldr.32	s15, [r3, #24]
 492 0644 1C2083E2 		add	r2, r3, #28
 493 0648 020050E1 		cmp	r0, r2
 494 064c E77AFDEE 		vcvt.s32.f32	s15, s15
 495 0650 902A17EE 		vmov	r2, s15	@ int
 496 0654 0620CCE5 		strb	r2, [ip, #6]
 497 0658 7AFFFF0A 		beq	.L127
 498 065c 077AD3ED 		vldr.32	s15, [r3, #28]
 499 0660 202083E2 		add	r2, r3, #32
 500 0664 020050E1 		cmp	r0, r2
 501 0668 E77AFDEE 		vcvt.s32.f32	s15, s15
 502 066c 902A17EE 		vmov	r2, s15	@ int
 503 0670 0720CCE5 		strb	r2, [ip, #7]
 504 0674 73FFFF0A 		beq	.L127
 505 0678 087AD3ED 		vldr.32	s15, [r3, #32]
 506 067c 242083E2 		add	r2, r3, #36
 507 0680 020050E1 		cmp	r0, r2
 508 0684 E77AFDEE 		vcvt.s32.f32	s15, s15
 509 0688 902A17EE 		vmov	r2, s15	@ int
 510 068c 0820CCE5 		strb	r2, [ip, #8]
 511 0690 6CFFFF0A 		beq	.L127
 512 0694 097AD3ED 		vldr.32	s15, [r3, #36]
 513 0698 282083E2 		add	r2, r3, #40
 514 069c 020050E1 		cmp	r0, r2
 515 06a0 E77AFDEE 		vcvt.s32.f32	s15, s15
 516 06a4 902A17EE 		vmov	r2, s15	@ int
 517 06a8 0920CCE5 		strb	r2, [ip, #9]
 518 06ac 65FFFF0A 		beq	.L127
 519 06b0 0A7AD3ED 		vldr.32	s15, [r3, #40]
 520 06b4 2C2083E2 		add	r2, r3, #44
 521 06b8 020050E1 		cmp	r0, r2
 522 06bc E77AFDEE 		vcvt.s32.f32	s15, s15
 523 06c0 902A17EE 		vmov	r2, s15	@ int
 524 06c4 0A20CCE5 		strb	r2, [ip, #10]
 525 06c8 5EFFFF0A 		beq	.L127
 526 06cc 0B7AD3ED 		vldr.32	s15, [r3, #44]
 527 06d0 302083E2 		add	r2, r3, #48
 528 06d4 020050E1 		cmp	r0, r2
 529 06d8 E77AFDEE 		vcvt.s32.f32	s15, s15
 530 06dc 902A17EE 		vmov	r2, s15	@ int
 531 06e0 0B20CCE5 		strb	r2, [ip, #11]
 532 06e4 57FFFF0A 		beq	.L127
 533 06e8 0C7AD3ED 		vldr.32	s15, [r3, #48]
 534 06ec 342083E2 		add	r2, r3, #52
 535 06f0 020050E1 		cmp	r0, r2
 536 06f4 E77AFDEE 		vcvt.s32.f32	s15, s15
 537 06f8 902A17EE 		vmov	r2, s15	@ int
 538 06fc 0C20CCE5 		strb	r2, [ip, #12]
 539 0700 50FFFF0A 		beq	.L127
 540 0704 0D7AD3ED 		vldr.32	s15, [r3, #52]
 541 0708 382083E2 		add	r2, r3, #56
 542 070c 020050E1 		cmp	r0, r2
 543 0710 E77AFDEE 		vcvt.s32.f32	s15, s15
 544 0714 902A17EE 		vmov	r2, s15	@ int
 545 0718 0D20CCE5 		strb	r2, [ip, #13]
 546 071c 0E7AD31D 		vldrne.32	s15, [r3, #56]
 547 0720 E77AFD1E 		vcvtne.s32.f32	s15, s15
 548 0724 903A171E 		vmovne	r3, s15	@ int
 549 0728 0E30CC15 		strbne	r3, [ip, #14]
 550 072c 45FFFFEA 		b	.L127
 551              	.L21:
 552 0730 041048E2 		sub	r1, r8, #4
 553 0734 04C040E2 		sub	ip, r0, #4
 554 0738 0030A0E3 		mov	r3, #0
 555              	.L28:
 556 073c 070053E1 		cmp	r3, r7
 557 0740 04E0B1E5 		ldr	lr, [r1, #4]!
 558 0744 DB0100AA 		bge	.L22
 559 0748 0460BCE5 		ldr	r6, [ip, #4]!
 560 074c 06005EE1 		cmp	lr, r6
 561 0750 E801001A 		bne	.L23
 562 0754 013083E2 		add	r3, r3, #1
 563 0758 030052E1 		cmp	r2, r3
 564 075c F6FFFF1A 		bne	.L28
 565 0760 0810A0E1 		mov	r1, r8
 566 0764 68FEFFEA 		b	.L24
 567              	.L157:
 568 0768 000053E3 		cmp	r3, #0
 569 076c 0160A003 		moveq	r6, #1
 570 0770 03E0A001 		moveq	lr, r3
 571 0774 8EFEFF0A 		beq	.L30
 572 0778 6DFEFFEA 		b	.L29
 573              	.L66:
 574 077c 0661A0E1 		lsl	r6, r6, #2
 575 0780 000095E5 		ldr	r0, [r5]
 576 0784 06C083E0 		add	ip, r3, r6
 577 0788 0C0053E1 		cmp	r3, ip
 578 078c 2DFFFF0A 		beq	.L127
 579 0790 102080E2 		add	r2, r0, #16
 580 0794 104083E2 		add	r4, r3, #16
 581 0798 046046E2 		sub	r6, r6, #4
 582 079c 040050E1 		cmp	r0, r4
 583 07a0 02005331 		cmpcc	r3, r2
 584 07a4 2611A0E1 		lsr	r1, r6, #2
 585 07a8 00E083E1 		orr	lr, r3, r0
 586 07ac 0120A023 		movcs	r2, #1
 587 07b0 0020A033 		movcc	r2, #0
 588 07b4 0F001EE3 		tst	lr, #15
 589 07b8 0020A013 		movne	r2, #0
 590 07bc 01200202 		andeq	r2, r2, #1
 591 07c0 015081E2 		add	r5, r1, #1
 592 07c4 044083E2 		add	r4, r3, #4
 593 07c8 090055E3 		cmp	r5, #9
 594 07cc 0020A093 		movls	r2, #0
 595 07d0 01200282 		andhi	r2, r2, #1
 596 07d4 000052E3 		cmp	r2, #0
 597 07d8 F900000A 		beq	.L77
 598 07dc 032041E2 		sub	r2, r1, #3
 599 07e0 0360A0E1 		mov	r6, r3
 600 07e4 2221A0E1 		lsr	r2, r2, #2
 601 07e8 0040A0E1 		mov	r4, r0
 602 07ec 00E0A0E3 		mov	lr, #0
 603 07f0 012082E2 		add	r2, r2, #1
 604 07f4 0211A0E1 		lsl	r1, r2, #2
 605              	.L79:
 606 07f8 01E08EE2 		add	lr, lr, #1
 607 07fc DF0A66F4 		vld1.64	{d16-d17}, [r6:64]
 608 0800 0E0052E1 		cmp	r2, lr
 609 0804 106086E2 		add	r6, r6, #16
 610 0808 DF0A44F4 		vst1.64	{d16-d17}, [r4:64]
 611 080c 104084E2 		add	r4, r4, #16
 612 0810 F8FFFF8A 		bhi	.L79
 613 0814 050051E1 		cmp	r1, r5
 614 0818 0111A0E1 		lsl	r1, r1, #2
 615 081c 013083E0 		add	r3, r3, r1
 616 0820 010080E0 		add	r0, r0, r1
 617 0824 07FFFF0A 		beq	.L127
 618 0828 0320A0E1 		mov	r2, r3
 619 082c 041092E4 		ldr	r1, [r2], #4	@ float
 620 0830 02005CE1 		cmp	ip, r2
 621 0834 001080E5 		str	r1, [r0]	@ float
 622 0838 02FFFF0A 		beq	.L127
 623 083c 042093E5 		ldr	r2, [r3, #4]	@ float
 624 0840 081083E2 		add	r1, r3, #8
 625 0844 01005CE1 		cmp	ip, r1
 626 0848 042080E5 		str	r2, [r0, #4]	@ float
 627 084c 08309315 		ldrne	r3, [r3, #8]	@ float
 628 0850 08308015 		strne	r3, [r0, #8]	@ float
 629 0854 FBFEFFEA 		b	.L127
 630              	.L43:
 631 0858 061083E0 		add	r1, r3, r6
 632 085c 002095E5 		ldr	r2, [r5]
 633 0860 010053E1 		cmp	r3, r1
 634 0864 F7FEFF0A 		beq	.L127
 635 0868 030041E0 		sub	r0, r1, r3
 636 086c 02C083E1 		orr	ip, r3, r2
 637 0870 000182E0 		add	r0, r2, r0, lsl #2
 638 0874 0F0056E3 		cmp	r6, #15
 639 0878 5CC0E3E7 		ubfx	ip, ip, #0, #4
 640 087c 00E0A093 		movls	lr, #0
 641 0880 01E0A083 		movhi	lr, #1
 642 0884 00005CE3 		cmp	ip, #0
 643 0888 014083E2 		add	r4, r3, #1
 644 088c 00E0A013 		movne	lr, #0
 645 0890 010052E1 		cmp	r2, r1
 646 0894 00005331 		cmpcc	r3, r0
 647 0898 0100A023 		movcs	r0, #1
 648 089c 0000A033 		movcc	r0, #0
 649 08a0 0E0010E1 		tst	r0, lr
 650 08a4 8A00000A 		beq	.L56
 651 08a8 100046E2 		sub	r0, r6, #16
 652 08ac 40E082E2 		add	lr, r2, #64
 653 08b0 2002A0E1 		lsr	r0, r0, #4
 654 08b4 0350A0E1 		mov	r5, r3
 655 08b8 0040A0E3 		mov	r4, #0
 656 08bc 010080E2 		add	r0, r0, #1
 657 08c0 00C2A0E1 		lsl	ip, r0, #4
 658              	.L58:
 659 08c4 DF0A65F4 		vld1.64	{d16-d17}, [r5:64]
 660 08c8 014084E2 		add	r4, r4, #1
 661 08cc 040050E1 		cmp	r0, r4
 662 08d0 105085E2 		add	r5, r5, #16
 663 08d4 302AC8F2 		vmovl.s8 q9, d16
 664 08d8 40E08EE2 		add	lr, lr, #64
 665 08dc 310AC8F2 		vmovl.s8 q8, d17
 666 08e0 326AD0F2 		vmovl.s16 q11, d18
 667 08e4 304AD0F2 		vmovl.s16 q10, d16
 668 08e8 332AD0F2 		vmovl.s16 q9, d19
 669 08ec 310AD0F2 		vmovl.s16 q8, d17
 670 08f0 6666FBF3 		vcvt.f32.s32	q11, q11
 671 08f4 6226FBF3 		vcvt.f32.s32	q9, q9
 672 08f8 6446FBF3 		vcvt.f32.s32	q10, q10
 673 08fc 6006FBF3 		vcvt.f32.s32	q8, q8
 674 0900 206B4EED 		vstr	d22, [lr, #-128]
 675 0904 1E7B4EED 		vstr	d23, [lr, #-120]
 676 0908 1C2B4EED 		vstr	d18, [lr, #-112]
 677 090c 1A3B4EED 		vstr	d19, [lr, #-104]
 678 0910 184B4EED 		vstr	d20, [lr, #-96]
 679 0914 165B4EED 		vstr	d21, [lr, #-88]
 680 0918 140B4EED 		vstr	d16, [lr, #-80]
 681 091c 121B4EED 		vstr	d17, [lr, #-72]
 682 0920 E7FFFF8A 		bhi	.L58
 683 0924 0C0056E1 		cmp	r6, ip
 684 0928 0C2182E0 		add	r2, r2, ip, lsl #2
 685 092c 0C0083E0 		add	r0, r3, ip
 686 0930 C4FEFF0A 		beq	.L127
 687 0934 DC3093E1 		ldrsb	r3, [r3, ip]
 688 0938 903A07EE 		vmov	s15, r3	@ int
 689 093c 013080E2 		add	r3, r0, #1
 690 0940 030051E1 		cmp	r1, r3
 691 0944 E77AF8EE 		vcvt.f32.s32	s15, s15
 692 0948 007AC2ED 		vstr.32	s15, [r2]
 693 094c BDFEFF0A 		beq	.L127
 694 0950 D130D0E1 		ldrsb	r3, [r0, #1]
 695 0954 903A07EE 		vmov	s15, r3	@ int
 696 0958 023080E2 		add	r3, r0, #2
 697 095c 030051E1 		cmp	r1, r3
 698 0960 E77AF8EE 		vcvt.f32.s32	s15, s15
 699 0964 017AC2ED 		vstr.32	s15, [r2, #4]
 700 0968 B6FEFF0A 		beq	.L127
 701 096c D230D0E1 		ldrsb	r3, [r0, #2]
 702 0970 903A07EE 		vmov	s15, r3	@ int
 703 0974 033080E2 		add	r3, r0, #3
 704 0978 030051E1 		cmp	r1, r3
 705 097c E77AF8EE 		vcvt.f32.s32	s15, s15
 706 0980 027AC2ED 		vstr.32	s15, [r2, #8]
 707 0984 AFFEFF0A 		beq	.L127
 708 0988 D330D0E1 		ldrsb	r3, [r0, #3]
 709 098c 903A07EE 		vmov	s15, r3	@ int
 710 0990 043080E2 		add	r3, r0, #4
 711 0994 030051E1 		cmp	r1, r3
 712 0998 E77AF8EE 		vcvt.f32.s32	s15, s15
 713 099c 037AC2ED 		vstr.32	s15, [r2, #12]
 714 09a0 A8FEFF0A 		beq	.L127
 715 09a4 D430D0E1 		ldrsb	r3, [r0, #4]
 716 09a8 903A07EE 		vmov	s15, r3	@ int
 717 09ac 053080E2 		add	r3, r0, #5
 718 09b0 030051E1 		cmp	r1, r3
 719 09b4 E77AF8EE 		vcvt.f32.s32	s15, s15
 720 09b8 047AC2ED 		vstr.32	s15, [r2, #16]
 721 09bc A1FEFF0A 		beq	.L127
 722 09c0 D530D0E1 		ldrsb	r3, [r0, #5]
 723 09c4 903A07EE 		vmov	s15, r3	@ int
 724 09c8 063080E2 		add	r3, r0, #6
 725 09cc 030051E1 		cmp	r1, r3
 726 09d0 E77AF8EE 		vcvt.f32.s32	s15, s15
 727 09d4 057AC2ED 		vstr.32	s15, [r2, #20]
 728 09d8 9AFEFF0A 		beq	.L127
 729 09dc D630D0E1 		ldrsb	r3, [r0, #6]
 730 09e0 903A07EE 		vmov	s15, r3	@ int
 731 09e4 073080E2 		add	r3, r0, #7
 732 09e8 030051E1 		cmp	r1, r3
 733 09ec E77AF8EE 		vcvt.f32.s32	s15, s15
 734 09f0 067AC2ED 		vstr.32	s15, [r2, #24]
 735 09f4 93FEFF0A 		beq	.L127
 736 09f8 D730D0E1 		ldrsb	r3, [r0, #7]
 737 09fc 903A07EE 		vmov	s15, r3	@ int
 738 0a00 083080E2 		add	r3, r0, #8
 739 0a04 030051E1 		cmp	r1, r3
 740 0a08 E77AF8EE 		vcvt.f32.s32	s15, s15
 741 0a0c 077AC2ED 		vstr.32	s15, [r2, #28]
 742 0a10 8CFEFF0A 		beq	.L127
 743 0a14 D830D0E1 		ldrsb	r3, [r0, #8]
 744 0a18 903A07EE 		vmov	s15, r3	@ int
 745 0a1c 093080E2 		add	r3, r0, #9
 746 0a20 030051E1 		cmp	r1, r3
 747 0a24 E77AF8EE 		vcvt.f32.s32	s15, s15
 748 0a28 087AC2ED 		vstr.32	s15, [r2, #32]
 749 0a2c 85FEFF0A 		beq	.L127
 750 0a30 D930D0E1 		ldrsb	r3, [r0, #9]
 751 0a34 903A07EE 		vmov	s15, r3	@ int
 752 0a38 0A3080E2 		add	r3, r0, #10
 753 0a3c 030051E1 		cmp	r1, r3
 754 0a40 E77AF8EE 		vcvt.f32.s32	s15, s15
 755 0a44 097AC2ED 		vstr.32	s15, [r2, #36]
 756 0a48 7EFEFF0A 		beq	.L127
 757 0a4c DA30D0E1 		ldrsb	r3, [r0, #10]
 758 0a50 903A07EE 		vmov	s15, r3	@ int
 759 0a54 0B3080E2 		add	r3, r0, #11
 760 0a58 030051E1 		cmp	r1, r3
 761 0a5c E77AF8EE 		vcvt.f32.s32	s15, s15
 762 0a60 0A7AC2ED 		vstr.32	s15, [r2, #40]
 763 0a64 77FEFF0A 		beq	.L127
 764 0a68 DB30D0E1 		ldrsb	r3, [r0, #11]
 765 0a6c 903A07EE 		vmov	s15, r3	@ int
 766 0a70 0C3080E2 		add	r3, r0, #12
 767 0a74 030051E1 		cmp	r1, r3
 768 0a78 E77AF8EE 		vcvt.f32.s32	s15, s15
 769 0a7c 0B7AC2ED 		vstr.32	s15, [r2, #44]
 770 0a80 70FEFF0A 		beq	.L127
 771 0a84 DC30D0E1 		ldrsb	r3, [r0, #12]
 772 0a88 903A07EE 		vmov	s15, r3	@ int
 773 0a8c 0D3080E2 		add	r3, r0, #13
 774 0a90 030051E1 		cmp	r1, r3
 775 0a94 E77AF8EE 		vcvt.f32.s32	s15, s15
 776 0a98 0C7AC2ED 		vstr.32	s15, [r2, #48]
 777 0a9c 69FEFF0A 		beq	.L127
 778 0aa0 DD30D0E1 		ldrsb	r3, [r0, #13]
 779 0aa4 903A07EE 		vmov	s15, r3	@ int
 780 0aa8 0E3080E2 		add	r3, r0, #14
 781 0aac 030051E1 		cmp	r1, r3
 782 0ab0 E77AF8EE 		vcvt.f32.s32	s15, s15
 783 0ab4 0D7AC2ED 		vstr.32	s15, [r2, #52]
 784 0ab8 DE30D011 		ldrsbne	r3, [r0, #14]
 785 0abc 903A071E 		vmovne	s15, r3	@ int
 786 0ac0 E77AF81E 		vcvtne.f32.s32	s15, s15
 787 0ac4 0E7AC21D 		vstrne.32	s15, [r2, #56]
 788 0ac8 5EFEFFEA 		b	.L127
 789              	.L156:
 790 0acc 0160A0E3 		mov	r6, #1
 791 0ad0 65FEFFEA 		b	.L19
 792              	.L56:
 793 0ad4 07C041E2 		sub	ip, r1, #7
 794 0ad8 0C0054E1 		cmp	r4, ip
 795 0adc 0040A023 		movcs	r4, #0
 796 0ae0 0140A033 		movcc	r4, #1
 797 0ae4 060051E3 		cmp	r1, #6
 798 0ae8 0040A093 		movls	r4, #0
 799 0aec 000054E3 		cmp	r4, #0
 800 0af0 2A00000A 		beq	.L61
 801 0af4 080083E2 		add	r0, r3, #8
 802 0af8 202082E2 		add	r2, r2, #32
 803              	.L62:
 804 0afc D83050E1 		ldrsb	r3, [r0, #-8]
 805 0b00 02E0A0E1 		mov	lr, r2
 806 0b04 54F0D2F5 		pld	[r2, #84]
 807 0b08 202082E2 		add	r2, r2, #32
 808 0b0c 903A07EE 		vmov	s15, r3	@ int
 809 0b10 013080E2 		add	r3, r0, #1
 810 0b14 03005CE1 		cmp	ip, r3
 811 0b18 0030A0E1 		mov	r3, r0
 812 0b1c E77AF8EE 		vcvt.f32.s32	s15, s15
 813 0b20 080080E2 		add	r0, r0, #8
 814 0b24 107A42ED 		vstr.32	s15, [r2, #-64]
 815 0b28 DF4050E1 		ldrsb	r4, [r0, #-15]
 816 0b2c 904A07EE 		vmov	s15, r4	@ int
 817 0b30 E77AF8EE 		vcvt.f32.s32	s15, s15
 818 0b34 0F7A42ED 		vstr.32	s15, [r2, #-60]
 819 0b38 DE4050E1 		ldrsb	r4, [r0, #-14]
 820 0b3c 904A07EE 		vmov	s15, r4	@ int
 821 0b40 E77AF8EE 		vcvt.f32.s32	s15, s15
 822 0b44 0E7A42ED 		vstr.32	s15, [r2, #-56]
 823 0b48 DD4050E1 		ldrsb	r4, [r0, #-13]
 824 0b4c 904A07EE 		vmov	s15, r4	@ int
 825 0b50 E77AF8EE 		vcvt.f32.s32	s15, s15
 826 0b54 0D7A42ED 		vstr.32	s15, [r2, #-52]
 827 0b58 DC4050E1 		ldrsb	r4, [r0, #-12]
 828 0b5c 904A07EE 		vmov	s15, r4	@ int
 829 0b60 E77AF8EE 		vcvt.f32.s32	s15, s15
 830 0b64 0C7A42ED 		vstr.32	s15, [r2, #-48]
 831 0b68 DB4050E1 		ldrsb	r4, [r0, #-11]
 832 0b6c 904A07EE 		vmov	s15, r4	@ int
 833 0b70 E77AF8EE 		vcvt.f32.s32	s15, s15
 834 0b74 0B7A42ED 		vstr.32	s15, [r2, #-44]
 835 0b78 DA4050E1 		ldrsb	r4, [r0, #-10]
 836 0b7c 904A07EE 		vmov	s15, r4	@ int
 837 0b80 E77AF8EE 		vcvt.f32.s32	s15, s15
 838 0b84 0A7A42ED 		vstr.32	s15, [r2, #-40]
 839 0b88 D94050E1 		ldrsb	r4, [r0, #-9]
 840 0b8c 904A07EE 		vmov	s15, r4	@ int
 841 0b90 E77AF8EE 		vcvt.f32.s32	s15, s15
 842 0b94 097A42ED 		vstr.32	s15, [r2, #-36]
 843 0b98 D7FFFF8A 		bhi	.L62
 844 0b9c 0E20A0E1 		mov	r2, lr
 845              	.L61:
 846 0ba0 013043E2 		sub	r3, r3, #1
 847 0ba4 011041E2 		sub	r1, r1, #1
 848              	.L64:
 849 0ba8 D100F3E1 		ldrsb	r0, [r3, #1]!
 850 0bac 030051E1 		cmp	r1, r3
 851 0bb0 900A07EE 		vmov	s15, r0	@ int
 852 0bb4 E77AF8EE 		vcvt.f32.s32	s15, s15
 853 0bb8 017AE2EC 		vstmia.32	r2!, {s15}
 854 0bbc F9FFFF1A 		bne	.L64
 855 0bc0 20FEFFEA 		b	.L127
 856              	.L77:
 857 0bc4 1CE04CE2 		sub	lr, ip, #28
 858 0bc8 04005EE1 		cmp	lr, r4
 859 0bcc 1B005C83 		cmphi	ip, #27
 860 0bd0 1A00009A 		bls	.L85
 861 0bd4 203083E2 		add	r3, r3, #32
 862 0bd8 202080E2 		add	r2, r0, #32
 863              	.L83:
 864 0bdc 201013E5 		ldr	r1, [r3, #-32]	@ float
 865 0be0 040083E2 		add	r0, r3, #4
 866 0be4 68F0D3F5 		pld	[r3, #104]
 867 0be8 00005EE1 		cmp	lr, r0
 868 0bec 0340A0E1 		mov	r4, r3
 869 0bf0 0200A0E1 		mov	r0, r2
 870 0bf4 201002E5 		str	r1, [r2, #-32]	@ float
 871 0bf8 203083E2 		add	r3, r3, #32
 872 0bfc 202082E2 		add	r2, r2, #32
 873 0c00 3C1013E5 		ldr	r1, [r3, #-60]	@ float
 874 0c04 3C1002E5 		str	r1, [r2, #-60]	@ float
 875 0c08 381013E5 		ldr	r1, [r3, #-56]	@ float
 876 0c0c 381002E5 		str	r1, [r2, #-56]	@ float
 877 0c10 341013E5 		ldr	r1, [r3, #-52]	@ float
 878 0c14 341002E5 		str	r1, [r2, #-52]	@ float
 879 0c18 301013E5 		ldr	r1, [r3, #-48]	@ float
 880 0c1c 301002E5 		str	r1, [r2, #-48]	@ float
 881 0c20 2C1013E5 		ldr	r1, [r3, #-44]	@ float
 882 0c24 2C1002E5 		str	r1, [r2, #-44]	@ float
 883 0c28 281013E5 		ldr	r1, [r3, #-40]	@ float
 884 0c2c 281002E5 		str	r1, [r2, #-40]	@ float
 885 0c30 241013E5 		ldr	r1, [r3, #-36]	@ float
 886 0c34 241002E5 		str	r1, [r2, #-36]	@ float
 887 0c38 E7FFFF8A 		bhi	.L83
 888 0c3c 0430A0E1 		mov	r3, r4
 889              	.L85:
 890 0c40 042093E4 		ldr	r2, [r3], #4	@ float
 891 0c44 03005CE1 		cmp	ip, r3
 892 0c48 042080E4 		str	r2, [r0], #4	@ float
 893 0c4c FDFDFF0A 		beq	.L127
 894 0c50 042093E4 		ldr	r2, [r3], #4	@ float
 895 0c54 03005CE1 		cmp	ip, r3
 896 0c58 042080E4 		str	r2, [r0], #4	@ float
 897 0c5c F7FFFF1A 		bne	.L85
 898 0c60 F8FDFFEA 		b	.L127
 899              	.L46:
 900 0c64 1F4041E2 		sub	r4, r1, #31
 901 0c68 04005CE1 		cmp	ip, r4
 902 0c6c 00C0A023 		movcs	ip, #0
 903 0c70 01C0A033 		movcc	ip, #1
 904 0c74 1E0051E3 		cmp	r1, #30
 905 0c78 00C0A093 		movls	ip, #0
 906 0c7c 00005CE3 		cmp	ip, #0
 907 0c80 9D00000A 		beq	.L105
 908 0c84 203083E2 		add	r3, r3, #32
 909 0c88 202080E2 		add	r2, r0, #32
 910              	.L53:
 911 0c8c D00253E1 		ldrsb	r0, [r3, #-32]
 912 0c90 01C083E2 		add	ip, r3, #1
 913 0c94 02F0D3F5 		pld	[r3, #2]
 914 0c98 0C0054E1 		cmp	r4, ip
 915 0c9c 02F0D2F5 		pld	[r2, #2]
 916 0ca0 03C0A0E1 		mov	ip, r3
 917 0ca4 200042E5 		strb	r0, [r2, #-32]
 918 0ca8 203083E2 		add	r3, r3, #32
 919 0cac DFE353E1 		ldrsb	lr, [r3, #-63]
 920 0cb0 0200A0E1 		mov	r0, r2
 921 0cb4 202082E2 		add	r2, r2, #32
 922 0cb8 3FE042E5 		strb	lr, [r2, #-63]
 923 0cbc DEE353E1 		ldrsb	lr, [r3, #-62]
 924 0cc0 3EE042E5 		strb	lr, [r2, #-62]
 925 0cc4 DDE353E1 		ldrsb	lr, [r3, #-61]
 926 0cc8 3DE042E5 		strb	lr, [r2, #-61]
 927 0ccc DCE353E1 		ldrsb	lr, [r3, #-60]
 928 0cd0 3CE042E5 		strb	lr, [r2, #-60]
 929 0cd4 DBE353E1 		ldrsb	lr, [r3, #-59]
 930 0cd8 3BE042E5 		strb	lr, [r2, #-59]
 931 0cdc DAE353E1 		ldrsb	lr, [r3, #-58]
 932 0ce0 3AE042E5 		strb	lr, [r2, #-58]
 933 0ce4 D9E353E1 		ldrsb	lr, [r3, #-57]
 934 0ce8 39E042E5 		strb	lr, [r2, #-57]
 935 0cec D8E353E1 		ldrsb	lr, [r3, #-56]
 936 0cf0 38E042E5 		strb	lr, [r2, #-56]
 937 0cf4 D7E353E1 		ldrsb	lr, [r3, #-55]
 938 0cf8 37E042E5 		strb	lr, [r2, #-55]
 939 0cfc D6E353E1 		ldrsb	lr, [r3, #-54]
 940 0d00 36E042E5 		strb	lr, [r2, #-54]
 941 0d04 D5E353E1 		ldrsb	lr, [r3, #-53]
 942 0d08 35E042E5 		strb	lr, [r2, #-53]
 943 0d0c D4E353E1 		ldrsb	lr, [r3, #-52]
 944 0d10 34E042E5 		strb	lr, [r2, #-52]
 945 0d14 D3E353E1 		ldrsb	lr, [r3, #-51]
 946 0d18 33E042E5 		strb	lr, [r2, #-51]
 947 0d1c D2E353E1 		ldrsb	lr, [r3, #-50]
 948 0d20 32E042E5 		strb	lr, [r2, #-50]
 949 0d24 D1E353E1 		ldrsb	lr, [r3, #-49]
 950 0d28 31E042E5 		strb	lr, [r2, #-49]
 951 0d2c D0E353E1 		ldrsb	lr, [r3, #-48]
 952 0d30 30E042E5 		strb	lr, [r2, #-48]
 953 0d34 DFE253E1 		ldrsb	lr, [r3, #-47]
 954 0d38 2FE042E5 		strb	lr, [r2, #-47]
 955 0d3c DEE253E1 		ldrsb	lr, [r3, #-46]
 956 0d40 2EE042E5 		strb	lr, [r2, #-46]
 957 0d44 DDE253E1 		ldrsb	lr, [r3, #-45]
 958 0d48 2DE042E5 		strb	lr, [r2, #-45]
 959 0d4c DCE253E1 		ldrsb	lr, [r3, #-44]
 960 0d50 2CE042E5 		strb	lr, [r2, #-44]
 961 0d54 DBE253E1 		ldrsb	lr, [r3, #-43]
 962 0d58 2BE042E5 		strb	lr, [r2, #-43]
 963 0d5c DAE253E1 		ldrsb	lr, [r3, #-42]
 964 0d60 2AE042E5 		strb	lr, [r2, #-42]
 965 0d64 D9E253E1 		ldrsb	lr, [r3, #-41]
 966 0d68 29E042E5 		strb	lr, [r2, #-41]
 967 0d6c D8E253E1 		ldrsb	lr, [r3, #-40]
 968 0d70 28E042E5 		strb	lr, [r2, #-40]
 969 0d74 D7E253E1 		ldrsb	lr, [r3, #-39]
 970 0d78 27E042E5 		strb	lr, [r2, #-39]
 971 0d7c D6E253E1 		ldrsb	lr, [r3, #-38]
 972 0d80 26E042E5 		strb	lr, [r2, #-38]
 973 0d84 D5E253E1 		ldrsb	lr, [r3, #-37]
 974 0d88 25E042E5 		strb	lr, [r2, #-37]
 975 0d8c D4E253E1 		ldrsb	lr, [r3, #-36]
 976 0d90 24E042E5 		strb	lr, [r2, #-36]
 977 0d94 D3E253E1 		ldrsb	lr, [r3, #-35]
 978 0d98 23E042E5 		strb	lr, [r2, #-35]
 979 0d9c D2E253E1 		ldrsb	lr, [r3, #-34]
 980 0da0 22E042E5 		strb	lr, [r2, #-34]
 981 0da4 D1E253E1 		ldrsb	lr, [r3, #-33]
 982 0da8 21E042E5 		strb	lr, [r2, #-33]
 983 0dac B6FFFF8A 		bhi	.L53
 984 0db0 0C20A0E1 		mov	r2, ip
 985              	.L52:
 986 0db4 012042E2 		sub	r2, r2, #1
 987 0db8 013041E2 		sub	r3, r1, #1
 988              	.L55:
 989 0dbc D110F2E1 		ldrsb	r1, [r2, #1]!
 990 0dc0 020053E1 		cmp	r3, r2
 991 0dc4 0110C0E4 		strb	r1, [r0], #1
 992 0dc8 FBFFFF1A 		bne	.L55
 993 0dcc 9DFDFFEA 		b	.L127
 994              	.L68:
 995 0dd0 1CE040E2 		sub	lr, r0, #28
 996 0dd4 0E0054E1 		cmp	r4, lr
 997 0dd8 0040A023 		movcs	r4, #0
 998 0ddc 0140A033 		movcc	r4, #1
 999 0de0 1B0050E3 		cmp	r0, #27
 1000 0de4 0040A093 		movls	r4, #0
 1001 0de8 000054E3 		cmp	r4, #0
 1002 0dec 2A00000A 		beq	.L76
 1003 0df0 203083E2 		add	r3, r3, #32
 1004 0df4 082081E2 		add	r2, r1, #8
 1005              	.L74:
 1006 0df8 087A53ED 		vldr.32	s15, [r3, #-32]
 1007 0dfc 041083E2 		add	r1, r3, #4
 1008 0e00 54F0D3F5 		pld	[r3, #84]
 1009 0e04 01005EE1 		cmp	lr, r1
 1010 0e08 0340A0E1 		mov	r4, r3
 1011 0e0c 0210A0E1 		mov	r1, r2
 1012 0e10 203083E2 		add	r3, r3, #32
 1013 0e14 082082E2 		add	r2, r2, #8
 1014 0e18 E77AFDEE 		vcvt.s32.f32	s15, s15
 1015 0e1c 90CA17EE 		vmov	ip, s15	@ int
 1016 0e20 10C042E5 		strb	ip, [r2, #-16]
 1017 0e24 0F7A53ED 		vldr.32	s15, [r3, #-60]
 1018 0e28 E77AFDEE 		vcvt.s32.f32	s15, s15
 1019 0e2c 90CA17EE 		vmov	ip, s15	@ int
 1020 0e30 0FC042E5 		strb	ip, [r2, #-15]
 1021 0e34 0E7A53ED 		vldr.32	s15, [r3, #-56]
 1022 0e38 E77AFDEE 		vcvt.s32.f32	s15, s15
 1023 0e3c 90CA17EE 		vmov	ip, s15	@ int
 1024 0e40 0EC042E5 		strb	ip, [r2, #-14]
 1025 0e44 0D7A53ED 		vldr.32	s15, [r3, #-52]
 1026 0e48 E77AFDEE 		vcvt.s32.f32	s15, s15
 1027 0e4c 90CA17EE 		vmov	ip, s15	@ int
 1028 0e50 0DC042E5 		strb	ip, [r2, #-13]
 1029 0e54 0C7A53ED 		vldr.32	s15, [r3, #-48]
 1030 0e58 E77AFDEE 		vcvt.s32.f32	s15, s15
 1031 0e5c 90CA17EE 		vmov	ip, s15	@ int
 1032 0e60 0CC042E5 		strb	ip, [r2, #-12]
 1033 0e64 0B7A53ED 		vldr.32	s15, [r3, #-44]
 1034 0e68 E77AFDEE 		vcvt.s32.f32	s15, s15
 1035 0e6c 90CA17EE 		vmov	ip, s15	@ int
 1036 0e70 0BC042E5 		strb	ip, [r2, #-11]
 1037 0e74 0A7A53ED 		vldr.32	s15, [r3, #-40]
 1038 0e78 E77AFDEE 		vcvt.s32.f32	s15, s15
 1039 0e7c 90CA17EE 		vmov	ip, s15	@ int
 1040 0e80 0AC042E5 		strb	ip, [r2, #-10]
 1041 0e84 097A53ED 		vldr.32	s15, [r3, #-36]
 1042 0e88 E77AFDEE 		vcvt.s32.f32	s15, s15
 1043 0e8c 90CA17EE 		vmov	ip, s15	@ int
 1044 0e90 09C042E5 		strb	ip, [r2, #-9]
 1045 0e94 D7FFFF8A 		bhi	.L74
 1046 0e98 0430A0E1 		mov	r3, r4
 1047              	.L76:
 1048 0e9c 017AF3EC 		vldmia.32	r3!, {s15}
 1049 0ea0 030050E1 		cmp	r0, r3
 1050 0ea4 E77AFDEE 		vcvt.s32.f32	s15, s15
 1051 0ea8 902A17EE 		vmov	r2, s15	@ int
 1052 0eac 0120C1E4 		strb	r2, [r1], #1
 1053 0eb0 F9FFFF1A 		bne	.L76
 1054 0eb4 63FDFFEA 		b	.L127
 1055              	.L22:
 1056              	.LEHB2:
 1057 0eb8 FEFFFFEB 		bl	abort
 1058              	.LEHE2:
 1059              	.L108:
 1060 0ebc 18309DE5 		ldr	r3, [sp, #24]
 1061 0ec0 050053E3 		cmp	r3, #5
 1062 0ec4 030000DA 		ble	.L88
 1063 0ec8 1C009DE5 		ldr	r0, [sp, #28]
 1064 0ecc 000050E3 		cmp	r0, #0
 1065 0ed0 0000000A 		beq	.L88
 1066 0ed4 FEFFFFEB 		bl	_ZdaPv
 1067              	.L88:
 1068 0ed8 00309DE5 		ldr	r3, [sp]
 1069 0edc 050053E3 		cmp	r3, #5
 1070 0ee0 030000DA 		ble	.L89
 1071 0ee4 04009DE5 		ldr	r0, [sp, #4]
 1072 0ee8 000050E3 		cmp	r0, #0
 1073 0eec 0000000A 		beq	.L89
 1074 0ef0 FEFFFFEB 		bl	_ZdaPv
 1075              	.L89:
 1076              	.LEHB3:
 1077 0ef4 FEFFFFEB 		bl	__cxa_end_cleanup
 1078              	.LEHE3:
 1079              	.L23:
 1080              	.LEHB4:
 1081 0ef8 FEFFFFEB 		bl	abort
 1082              	.L105:
 1083 0efc 0320A0E1 		mov	r2, r3
 1084 0f00 ABFFFFEA 		b	.L52
 1085              	.L18:
 1086 0f04 FEFFFFEB 		bl	abort
 1087              	.LEHE4:
 1088              	.L107:
 1089 0f08 F2FFFFEA 		b	.L88
 1090              	.L17:
 1091              	.LEHB5:
 1092 0f0c FEFFFFEB 		bl	abort
 1093              	.LEHE5:
 1094              		.global	__gxx_personality_v0
 1095              		.personality	__gxx_personality_v0
 1096              		.handlerdata
 1097              	.LLSDA919:
 1098 0008 FF       		.byte	0xff
 1099 0009 FF       		.byte	0xff
 1100 000a 01       		.byte	0x1
 1101 000b 1F       		.uleb128 .LLSDACSE919-.LLSDACSB919
 1102              	.LLSDACSB919:
 1103 000c 28       		.uleb128 .LEHB0-.LFB919
 1104 000d 2C       		.uleb128 .LEHE0-.LEHB0
 1105 000e 00       		.uleb128 0
 1106 000f 00       		.uleb128 0
 1107 0010 5C       		.uleb128 .LEHB1-.LFB919
 1108 0011 04       		.uleb128 .LEHE1-.LEHB1
 1109 0012 881E     		.uleb128 .L107-.LFB919
 1110 0014 00       		.uleb128 0
 1111 0015 B81D     		.uleb128 .LEHB2-.LFB919
 1112 0017 04       		.uleb128 .LEHE2-.LEHB2
 1113 0018 BC1D     		.uleb128 .L108-.LFB919
 1114 001a 00       		.uleb128 0
 1115 001b F41D     		.uleb128 .LEHB3-.LFB919
 1116 001d 04       		.uleb128 .LEHE3-.LEHB3
 1117 001e 00       		.uleb128 0
 1118 001f 00       		.uleb128 0
 1119 0020 F81D     		.uleb128 .LEHB4-.LFB919
 1120 0022 10       		.uleb128 .LEHE4-.LEHB4
 1121 0023 BC1D     		.uleb128 .L108-.LFB919
 1122 0025 00       		.uleb128 0
 1123 0026 8C1E     		.uleb128 .LEHB5-.LFB919
 1124 0028 04       		.uleb128 .LEHE5-.LEHB5
 1125 0029 00       		.uleb128 0
 1126 002a 00       		.uleb128 0
 1127              	.LLSDACSE919:
 1128              		.section	.text._ZN6tflite12_GLOBAL__N_14EvalEP13TfLiteContextP10TfLiteNode
 1129              		.fnend
 1131              		.section	.text._ZN6tflite13Register_CASTEv,"ax",%progbits
 1132              		.align	2
 1133              		.global	_ZN6tflite13Register_CASTEv
 1134              		.syntax unified
 1135              		.arm
 1136              		.fpu neon
 1138              	_ZN6tflite13Register_CASTEv:
 1139              		.fnstart
 1140              	.LFB920:
 1141              		@ args = 0, pretend = 0, frame = 0
 1142              		@ frame_needed = 0, uses_anonymous_args = 0
 1143 0000 00C000E3 		movw	ip, #:lower16:.LANCHOR0
 1144 0004 10402DE9 		push	{r4, lr}
 1145 0008 00C040E3 		movt	ip, #:upper16:.LANCHOR0
 1146 000c 0040A0E1 		mov	r4, r0
 1147 0010 00E0A0E1 		mov	lr, r0
 1148 0014 0F00BCE8 		ldmia	ip!, {r0, r1, r2, r3}
 1149 0018 0F00AEE8 		stmia	lr!, {r0, r1, r2, r3}
 1150 001c 0F009CE8 		ldm	ip, {r0, r1, r2, r3}
 1151 0020 0F008EE8 		stm	lr, {r0, r1, r2, r3}
 1152 0024 0400A0E1 		mov	r0, r4
 1153 0028 1080BDE8 		pop	{r4, pc}
 1154              		.cantunwind
 1155              		.fnend
 1157              		.section	.rodata
 1158              		.align	2
 1159              		.set	.LANCHOR0,. + 0
 1160              	.LC0:
 1161 0000 00000000 		.word	0
 1162 0004 00000000 		.word	0
 1163 0008 00000000 		.word	_ZN6tflite12_GLOBAL__N_17PrepareEP13TfLiteContextP10TfLiteNode
 1164 000c 00000000 		.word	_ZN6tflite12_GLOBAL__N_14EvalEP13TfLiteContextP10TfLiteNode
 1165 0010 00000000 		.word	0
 1166 0014 00000000 		.word	0
 1167 0018 00000000 		.word	0
 1168 001c 00000000 		.word	0
 1169              		.ident	"GCC: (GNU Tools for ARM Embedded Processors 6-2017-q2-update) 6.3.1 20170620 (release) [AR