   1              		.cpu cortex-a9
   2              		.eabi_attribute 28, 1
   3              		.eabi_attribute 20, 1
   4              		.eabi_attribute 21, 1
   5              		.eabi_attribute 23, 3
   6              		.eabi_attribute 24, 1
   7              		.eabi_attribute 25, 1
   8              		.eabi_attribute 26, 1
   9              		.eabi_attribute 30, 2
  10              		.eabi_attribute 34, 0
  11              		.eabi_attribute 18, 4
  12              		.file	"ceil.cc"
  13              		.section	.text._ZN6tflite3ops5micro4ceil7PrepareEP13TfLiteContextP10TfLiteNode,"ax",%progbits
  14              		.align	2
  15              		.global	_ZN6tflite3ops5micro4ceil7PrepareEP13TfLiteContextP10TfLiteNode
  16              		.syntax unified
  17              		.arm
  18              		.fpu neon
  20              	_ZN6tflite3ops5micro4ceil7PrepareEP13TfLiteContextP10TfLiteNode:
  21              		.fnstart
  22              	.LFB1135:
  23              		@ args = 0, pretend = 0, frame = 0
  24              		@ frame_needed = 0, uses_anonymous_args = 0
  25 0000 70402DE9 		push	{r4, r5, r6, lr}
  26              		.save {r4, r5, r6, lr}
  27 0004 0020A0E3 		mov	r2, #0
  28 0008 0050A0E1 		mov	r5, r0
  29 000c 0140A0E1 		mov	r4, r1
  30 0010 FEFFFFEB 		bl	_ZN6tflite8GetInputEPK13TfLiteContextPK10TfLiteNodei
  31 0014 006050E2 		subs	r6, r0, #0
  32 0018 0900000A 		beq	.L4
  33 001c 0500A0E1 		mov	r0, r5
  34 0020 0020A0E3 		mov	r2, #0
  35 0024 0410A0E1 		mov	r1, r4
  36 0028 FEFFFFEB 		bl	_ZN6tflite9GetOutputEP13TfLiteContextPK10TfLiteNodei
  37 002c 000050E3 		cmp	r0, #0
  38 0030 0300000A 		beq	.L4
  39 0034 003094E5 		ldr	r3, [r4]
  40 0038 003093E5 		ldr	r3, [r3]
  41 003c 010053E3 		cmp	r3, #1
  42 0040 0100000A 		beq	.L13
  43              	.L4:
  44 0044 0100A0E3 		mov	r0, #1
  45 0048 7080BDE8 		pop	{r4, r5, r6, pc}
  46              	.L13:
  47 004c 043094E5 		ldr	r3, [r4, #4]
  48 0050 003093E5 		ldr	r3, [r3]
  49 0054 010053E3 		cmp	r3, #1
  50 0058 F9FFFF1A 		bne	.L4
  51 005c 0030D6E5 		ldrb	r3, [r6]	@ zero_extendqisi2
  52 0060 010053E3 		cmp	r3, #1
  53 0064 F6FFFF1A 		bne	.L4
  54 0068 0030D0E5 		ldrb	r3, [r0]	@ zero_extendqisi2
  55 006c 010053E3 		cmp	r3, #1
  56 0070 F3FFFF1A 		bne	.L4
  57 0074 182090E5 		ldr	r2, [r0, #24]
  58 0078 183096E5 		ldr	r3, [r6, #24]
  59 007c 030052E1 		cmp	r2, r3
  60 0080 EFFFFF1A 		bne	.L4
  61 0084 081090E5 		ldr	r1, [r0, #8]
  62 0088 082096E5 		ldr	r2, [r6, #8]
  63 008c 00E091E5 		ldr	lr, [r1]
  64 0090 003092E5 		ldr	r3, [r2]
  65 0094 03005EE1 		cmp	lr, r3
  66 0098 E9FFFF1A 		bne	.L4
  67 009c 00005EE3 		cmp	lr, #0
  68 00a0 0E0000DA 		ble	.L7
  69 00a4 040091E5 		ldr	r0, [r1, #4]
  70 00a8 043092E5 		ldr	r3, [r2, #4]
  71 00ac 030050E1 		cmp	r0, r3
  72 00b0 E3FFFF1A 		bne	.L4
  73 00b4 081081E2 		add	r1, r1, #8
  74 00b8 082082E2 		add	r2, r2, #8
  75 00bc 0030A0E3 		mov	r3, #0
  76 00c0 030000EA 		b	.L5
  77              	.L6:
  78 00c4 04C091E4 		ldr	ip, [r1], #4
  79 00c8 040092E4 		ldr	r0, [r2], #4
  80 00cc 00005CE1 		cmp	ip, r0
  81 00d0 DBFFFF1A 		bne	.L4
  82              	.L5:
  83 00d4 013083E2 		add	r3, r3, #1
  84 00d8 03005EE1 		cmp	lr, r3
  85 00dc F8FFFF1A 		bne	.L6
  86              	.L7:
  87 00e0 0000A0E3 		mov	r0, #0
  88 00e4 7080BDE8 		pop	{r4, r5, r6, pc}
  89              		.fnend
  91              		.section	.text._ZN6tflite3ops5micro4ceil4EvalEP13TfLiteContextP10TfLiteNode,"ax",%progbits
  92              		.align	2
  93              		.global	_ZN6tflite3ops5micro4ceil4EvalEP13TfLiteContextP10TfLiteNode
  94              		.syntax unified
  95              		.arm
  96              		.fpu neon
  98              	_ZN6tflite3ops5micro4ceil4EvalEP13TfLiteContextP10TfLiteNode:
  99              		.fnstart
 100              	.LFB1136:
 101              		@ args = 0, pretend = 0, frame = 48
 102              		@ frame_needed = 0, uses_anonymous_args = 0
 103 0000 F04F2DE9 		push	{r4, r5, r6, r7, r8, r9, r10, fp, lr}
 104              		.save {r4, r5, r6, r7, r8, r9, r10, fp, lr}
 105 0004 004050E2 		subs	r4, r0, #0
 106              		.pad #52
 107 0008 34D04DE2 		sub	sp, sp, #52
 108 000c 0901000A 		beq	.L16
 109 0010 000051E3 		cmp	r1, #0
 110 0014 0150A0E1 		mov	r5, r1
 111 0018 0601000A 		beq	.L16
 112 001c 002091E5 		ldr	r2, [r1]
 113 0020 543094E5 		ldr	r3, [r4, #84]
 114 0024 041092E5 		ldr	r1, [r2, #4]
 115              	.LEHB0:
 116 0028 33FF2FE1 		blx	r3
 117 002c 042095E5 		ldr	r2, [r5, #4]
 118 0030 0060A0E1 		mov	r6, r0
 119 0034 543094E5 		ldr	r3, [r4, #84]
 120 0038 0400A0E1 		mov	r0, r4
 121 003c 041092E5 		ldr	r1, [r2, #4]
 122 0040 33FF2FE1 		blx	r3
 123 0044 0610A0E1 		mov	r1, r6
 124 0048 0080A0E1 		mov	r8, r0
 125 004c 0D00A0E1 		mov	r0, sp
 126 0050 FEFFFFEB 		bl	_ZN6tflite5micro14GetTensorShapeEPK16TfLiteEvalTensor
 127              	.LEHE0:
 128 0054 000056E3 		cmp	r6, #0
 129 0058 F500000A 		beq	.L102
 130 005c 0810A0E1 		mov	r1, r8
 131 0060 18008DE2 		add	r0, sp, #24
 132 0064 00A096E5 		ldr	r10, [r6]
 133              	.LEHB1:
 134 0068 FEFFFFEB 		bl	_ZN6tflite5micro14GetTensorShapeEPK16TfLiteEvalTensor
 135              	.LEHE1:
 136 006c 00209DE5 		ldr	r2, [sp]
 137 0070 000058E3 		cmp	r8, #0
 138 0074 18909DE5 		ldr	r9, [sp, #24]
 139 0078 00809815 		ldrne	r8, [r8]
 140 007c 090052E1 		cmp	r2, r9
 141 0080 E900001A 		bne	.L19
 142 0084 000052E3 		cmp	r2, #0
 143 0088 BD0000DA 		ble	.L60
 144 008c 050052E3 		cmp	r2, #5
 145 0090 04409DE5 		ldr	r4, [sp, #4]
 146 0094 1C109DE5 		ldr	r1, [sp, #28]
 147 0098 BB0000CA 		bgt	.L22
 148 009c 000052E3 		cmp	r2, #0
 149 00a0 C60000DA 		ble	.L23
 150 00a4 010054E1 		cmp	r4, r1
 151 00a8 DC00001A 		bne	.L24
 152 00ac 010052E3 		cmp	r2, #1
 153 00b0 C600000A 		beq	.L59
 154 00b4 08109DE5 		ldr	r1, [sp, #8]
 155 00b8 20309DE5 		ldr	r3, [sp, #32]
 156 00bc 030051E1 		cmp	r1, r3
 157 00c0 D600001A 		bne	.L24
 158 00c4 020052E3 		cmp	r2, #2
 159 00c8 C000000A 		beq	.L59
 160 00cc 0C109DE5 		ldr	r1, [sp, #12]
 161 00d0 24309DE5 		ldr	r3, [sp, #36]
 162 00d4 030051E1 		cmp	r1, r3
 163 00d8 D000001A 		bne	.L24
 164 00dc 030052E3 		cmp	r2, #3
 165 00e0 BA00000A 		beq	.L59
 166 00e4 030059E3 		cmp	r9, #3
 167 00e8 10109DE5 		ldr	r1, [sp, #16]
 168 00ec B300000A 		beq	.L23
 169 00f0 28309DE5 		ldr	r3, [sp, #40]
 170 00f4 030051E1 		cmp	r1, r3
 171 00f8 C800001A 		bne	.L24
 172 00fc 040052E3 		cmp	r2, #4
 173 0100 B200000A 		beq	.L59
 174 0104 040059E3 		cmp	r9, #4
 175 0108 14309DE5 		ldr	r3, [sp, #20]
 176 010c AB00000A 		beq	.L23
 177 0110 2C109DE5 		ldr	r1, [sp, #44]
 178 0114 030051E1 		cmp	r1, r3
 179 0118 C000001A 		bne	.L24
 180              	.L26:
 181 011c 050052E3 		cmp	r2, #5
 182 0120 04C0A0C1 		movgt	ip, r4
 183 0124 960000DA 		ble	.L60
 184              	.L20:
 185 0128 000052E3 		cmp	r2, #0
 186 012c A90000DA 		ble	.L103
 187              	.L25:
 188 0130 5C31A0E7 		sbfx	r3, ip, #2, #1
 189 0134 033003E2 		and	r3, r3, #3
 190 0138 020053E1 		cmp	r3, r2
 191 013c 0230A021 		movcs	r3, r2
 192 0140 080052E3 		cmp	r2, #8
 193 0144 0230A091 		movls	r3, r2
 194 0148 000053E3 		cmp	r3, #0
 195 014c 9C00000A 		beq	.L62
 196 0150 010053E3 		cmp	r3, #1
 197 0154 00709CE5 		ldr	r7, [ip]
 198 0158 8700000A 		beq	.L69
 199 015c 04109CE5 		ldr	r1, [ip, #4]
 200 0160 020053E3 		cmp	r3, #2
 201 0164 910707E0 		mul	r7, r1, r7
 202 0168 8300000A 		beq	.L69
 203 016c 08109CE5 		ldr	r1, [ip, #8]
 204 0170 030053E3 		cmp	r3, #3
 205 0174 910707E0 		mul	r7, r1, r7
 206 0178 7F00000A 		beq	.L69
 207 017c 0C109CE5 		ldr	r1, [ip, #12]
 208 0180 040053E3 		cmp	r3, #4
 209 0184 910707E0 		mul	r7, r1, r7
 210 0188 7B00000A 		beq	.L69
 211 018c 10109CE5 		ldr	r1, [ip, #16]
 212 0190 050053E3 		cmp	r3, #5
 213 0194 910707E0 		mul	r7, r1, r7
 214 0198 7700000A 		beq	.L69
 215 019c 14109CE5 		ldr	r1, [ip, #20]
 216 01a0 060053E3 		cmp	r3, #6
 217 01a4 910707E0 		mul	r7, r1, r7
 218 01a8 7300000A 		beq	.L69
 219 01ac 18109CE5 		ldr	r1, [ip, #24]
 220 01b0 070053E3 		cmp	r3, #7
 221 01b4 910707E0 		mul	r7, r1, r7
 222 01b8 6F00000A 		beq	.L69
 223 01bc 1C109CE5 		ldr	r1, [ip, #28]
 224 01c0 08E0A0E3 		mov	lr, #8
 225 01c4 910707E0 		mul	r7, r1, r7
 226              	.L36:
 227 01c8 020053E1 		cmp	r3, r2
 228 01cc 2800000A 		beq	.L37
 229              	.L35:
 230 01d0 034042E0 		sub	r4, r2, r3
 231 01d4 011042E2 		sub	r1, r2, #1
 232 01d8 040044E2 		sub	r0, r4, #4
 233 01dc 031041E0 		sub	r1, r1, r3
 234 01e0 2001A0E1 		lsr	r0, r0, #2
 235 01e4 020051E3 		cmp	r1, #2
 236 01e8 010080E2 		add	r0, r0, #1
 237 01ec 0051A0E1 		lsl	r5, r0, #2
 238 01f0 1200009A 		bls	.L38
 239 01f4 03318CE0 		add	r3, ip, r3, lsl #2
 240 01f8 5100C0F2 		vmov.i32	q8, #1  @ v4si
 241 01fc 0010A0E3 		mov	r1, #0
 242              	.L40:
 243 0200 011081E2 		add	r1, r1, #1
 244 0204 DF2A63F4 		vld1.64	{d18-d19}, [r3:64]
 245 0208 010050E1 		cmp	r0, r1
 246 020c 103083E2 		add	r3, r3, #16
 247 0210 F20960F2 		vmul.i32	q8, q8, q9
 248 0214 F9FFFF8A 		bhi	.L40
 249 0218 050054E1 		cmp	r4, r5
 250 021c 05E08EE0 		add	lr, lr, r5
 251 0220 5020C0F2 		vmov.i32	q9, #0  @ v4si
 252 0224 E248F0F2 		vext.32	q10, q8, q9, #2
 253 0228 F40960F2 		vmul.i32	q8, q8, q10
 254 022c E224F0F2 		vext.32	q9, q8, q9, #1
 255 0230 F20960F2 		vmul.i32	q8, q8, q9
 256 0234 901B10EE 		vmov.32	r1, d16[0]
 257 0238 910707E0 		mul	r7, r1, r7
 258 023c 0C00000A 		beq	.L37
 259              	.L38:
 260 0240 0E119CE7 		ldr	r1, [ip, lr, lsl #2]
 261 0244 01308EE2 		add	r3, lr, #1
 262 0248 030052E1 		cmp	r2, r3
 263 024c 0E31A0E1 		lsl	r3, lr, #2
 264 0250 910707E0 		mul	r7, r1, r7
 265 0254 060000DA 		ble	.L37
 266 0258 03308CE0 		add	r3, ip, r3
 267 025c 02108EE2 		add	r1, lr, #2
 268 0260 040093E5 		ldr	r0, [r3, #4]
 269 0264 010052E1 		cmp	r2, r1
 270 0268 900707E0 		mul	r7, r0, r7
 271 026c 083093C5 		ldrgt	r3, [r3, #8]
 272 0270 930707C0 		mulgt	r7, r3, r7
 273              	.L37:
 274 0274 000057E3 		cmp	r7, #0
 275 0278 2F0000DA 		ble	.L45
 276 027c 080057E3 		cmp	r7, #8
 277 0280 670000DA 		ble	.L70
 278 0284 09B047E2 		sub	fp, r7, #9
 279 0288 28508AE2 		add	r5, r10, #40
 280 028c 07B0CBE3 		bic	fp, fp, #7
 281 0290 284088E2 		add	r4, r8, #40
 282 0294 08B08BE2 		add	fp, fp, #8
 283 0298 0060A0E3 		mov	r6, #0
 284              	.L44:
 285 029c 0A0A15ED 		vldr.32	s0, [r5, #-40]
 286 02a0 086086E2 		add	r6, r6, #8
 287 02a4 FEFFFFEB 		bl	ceilf
 288 02a8 00F0D5F5 		pld	[r5]
 289 02ac 205085E2 		add	r5, r5, #32
 290 02b0 0A0A04ED 		vstr.32	s0, [r4, #-40]
 291 02b4 110A15ED 		vldr.32	s0, [r5, #-68]
 292 02b8 FEFFFFEB 		bl	ceilf
 293 02bc 090A04ED 		vstr.32	s0, [r4, #-36]
 294 02c0 100A15ED 		vldr.32	s0, [r5, #-64]
 295 02c4 FEFFFFEB 		bl	ceilf
 296 02c8 080A04ED 		vstr.32	s0, [r4, #-32]
 297 02cc 0F0A15ED 		vldr.32	s0, [r5, #-60]
 298 02d0 FEFFFFEB 		bl	ceilf
 299 02d4 070A04ED 		vstr.32	s0, [r4, #-28]
 300 02d8 0E0A15ED 		vldr.32	s0, [r5, #-56]
 301 02dc FEFFFFEB 		bl	ceilf
 302 02e0 060A04ED 		vstr.32	s0, [r4, #-24]
 303 02e4 0D0A15ED 		vldr.32	s0, [r5, #-52]
 304 02e8 FEFFFFEB 		bl	ceilf
 305 02ec 050A04ED 		vstr.32	s0, [r4, #-20]
 306 02f0 0C0A15ED 		vldr.32	s0, [r5, #-48]
 307 02f4 FEFFFFEB 		bl	ceilf
 308 02f8 040A04ED 		vstr.32	s0, [r4, #-16]
 309 02fc 0B0A15ED 		vldr.32	s0, [r5, #-44]
 310 0300 FEFFFFEB 		bl	ceilf
 311 0304 0B0056E1 		cmp	r6, fp
 312 0308 00F0D4F5 		pld	[r4]
 313 030c 030A04ED 		vstr.32	s0, [r4, #-12]
 314 0310 204084E2 		add	r4, r4, #32
 315 0314 E0FFFF1A 		bne	.L44
 316              	.L30:
 317 0318 0641A0E1 		lsl	r4, r6, #2
 318 031c 04A08AE0 		add	r10, r10, r4
 319 0320 044088E0 		add	r4, r8, r4
 320              	.L46:
 321 0324 010ABAEC 		vldmia.32	r10!, {s0}
 322 0328 016086E2 		add	r6, r6, #1
 323 032c FEFFFFEB 		bl	ceilf
 324 0330 070056E1 		cmp	r6, r7
 325 0334 010AA4EC 		vstmia.32	r4!, {s0}
 326 0338 F9FFFFBA 		blt	.L46
 327              	.L45:
 328 033c 050059E3 		cmp	r9, #5
 329 0340 0A0000DA 		ble	.L87
 330 0344 1C009DE5 		ldr	r0, [sp, #28]
 331 0348 000050E3 		cmp	r0, #0
 332 034c 0300000A 		beq	.L53
 333 0350 FEFFFFEB 		bl	_ZdaPv
 334 0354 00309DE5 		ldr	r3, [sp]
 335 0358 050053E3 		cmp	r3, #5
 336 035c 030000DA 		ble	.L87
 337              	.L53:
 338 0360 04009DE5 		ldr	r0, [sp, #4]
 339 0364 000050E3 		cmp	r0, #0
 340 0368 0000000A 		beq	.L87
 341 036c FEFFFFEB 		bl	_ZdaPv
 342              	.L87:
 343 0370 0000A0E3 		mov	r0, #0
 344 0374 34D08DE2 		add	sp, sp, #52
 345              		@ sp needed
 346 0378 F08FBDE8 		pop	{r4, r5, r6, r7, r8, r9, r10, fp, pc}
 347              	.L69:
 348 037c 03E0A0E1 		mov	lr, r3
 349 0380 90FFFFEA 		b	.L36
 350              	.L60:
 351 0384 04C08DE2 		add	ip, sp, #4
 352 0388 66FFFFEA 		b	.L20
 353              	.L22:
 354 038c 041041E2 		sub	r1, r1, #4
 355 0390 040044E2 		sub	r0, r4, #4
 356 0394 0030A0E3 		mov	r3, #0
 357 0398 050000EA 		b	.L29
 358              	.L27:
 359 039c 04E0B1E5 		ldr	lr, [r1, #4]!
 360 03a0 0E005CE1 		cmp	ip, lr
 361 03a4 1D00001A 		bne	.L24
 362 03a8 013083E2 		add	r3, r3, #1
 363 03ac 030052E1 		cmp	r2, r3
 364 03b0 59FFFF0A 		beq	.L26
 365              	.L29:
 366 03b4 030059E1 		cmp	r9, r3
 367 03b8 04C0B0E5 		ldr	ip, [r0, #4]!
 368 03bc F6FFFFCA 		bgt	.L27
 369              	.L23:
 370              	.LEHB2:
 371 03c0 FEFFFFEB 		bl	abort
 372              	.LEHE2:
 373              	.L62:
 374 03c4 0170A0E3 		mov	r7, #1
 375 03c8 03E0A0E1 		mov	lr, r3
 376 03cc 7FFFFFEA 		b	.L35
 377              	.L59:
 378 03d0 04C08DE2 		add	ip, sp, #4
 379 03d4 55FFFFEA 		b	.L25
 380              	.L103:
 381 03d8 0170A0E3 		mov	r7, #1
 382 03dc 0060A0E3 		mov	r6, #0
 383 03e0 CCFFFFEA 		b	.L30
 384              	.L72:
 385 03e4 18309DE5 		ldr	r3, [sp, #24]
 386 03e8 050053E3 		cmp	r3, #5
 387 03ec 030000DA 		ble	.L51
 388 03f0 1C009DE5 		ldr	r0, [sp, #28]
 389 03f4 000050E3 		cmp	r0, #0
 390 03f8 0000000A 		beq	.L51
 391 03fc FEFFFFEB 		bl	_ZdaPv
 392              	.L51:
 393 0400 00309DE5 		ldr	r3, [sp]
 394 0404 050053E3 		cmp	r3, #5
 395 0408 030000DA 		ble	.L52
 396 040c 04009DE5 		ldr	r0, [sp, #4]
 397 0410 000050E3 		cmp	r0, #0
 398 0414 0000000A 		beq	.L52
 399 0418 FEFFFFEB 		bl	_ZdaPv
 400              	.L52:
 401              	.LEHB3:
 402 041c FEFFFFEB 		bl	__cxa_end_cleanup
 403              	.LEHE3:
 404              	.L24:
 405              	.LEHB4:
 406 0420 FEFFFFEB 		bl	abort
 407              	.L70:
 408 0424 0060A0E3 		mov	r6, #0
 409 0428 BAFFFFEA 		b	.L30
 410              	.L19:
 411 042c FEFFFFEB 		bl	abort
 412              	.LEHE4:
 413              	.L71:
 414 0430 F2FFFFEA 		b	.L51
 415              	.L102:
 416              	.LEHB5:
 417 0434 FEFFFFEB 		bl	abort
 418              	.LEHE5:
 419              	.L16:
 420              	.LEHB6:
 421 0438 FEFFFFEB 		bl	abort
 422              	.LEHE6:
 423              		.global	__gxx_personality_v0
 424              		.personality	__gxx_personality_v0
 425              		.handlerdata
 426              	.LLSDA1136:
 427 0008 FF       		.byte	0xff
 428 0009 FF       		.byte	0xff
 429 000a 01       		.byte	0x1
 430 000b 25       		.uleb128 .LLSDACSE1136-.LLSDACSB1136
 431              	.LLSDACSB1136:
 432 000c 28       		.uleb128 .LEHB0-.LFB1136
 433 000d 2C       		.uleb128 .LEHE0-.LEHB0
 434 000e 00       		.uleb128 0
 435 000f 00       		.uleb128 0
 436 0010 68       		.uleb128 .LEHB1-.LFB1136
 437 0011 04       		.uleb128 .LEHE1-.LEHB1
 438 0012 B008     		.uleb128 .L71-.LFB1136
 439 0014 00       		.uleb128 0
 440 0015 C007     		.uleb128 .LEHB2-.LFB1136
 441 0017 04       		.uleb128 .LEHE2-.LEHB2
 442 0018 E407     		.uleb128 .L72-.LFB1136
 443 001a 00       		.uleb128 0
 444 001b 9C08     		.uleb128 .LEHB3-.LFB1136
 445 001d 04       		.uleb128 .LEHE3-.LEHB3
 446 001e 00       		.uleb128 0
 447 001f 00       		.uleb128 0
 448 0020 A008     		.uleb128 .LEHB4-.LFB1136
 449 0022 10       		.uleb128 .LEHE4-.LEHB4
 450 0023 E407     		.uleb128 .L72-.LFB1136
 451 0025 00       		.uleb128 0
 452 0026 B408     		.uleb128 .LEHB5-.LFB1136
 453 0028 04       		.uleb128 .LEHE5-.LEHB5
 454 0029 B008     		.uleb128 .L71-.LFB1136
 455 002b 00       		.uleb128 0
 456 002c B808     		.uleb128 .LEHB6-.LFB1136
 457 002e 04       		.uleb128 .LEHE6-.LEHB6
 458 002f 00       		.uleb128 0
 459 0030 00       		.uleb128 0
 460              	.LLSDACSE1136:
 461              		.section	.text._ZN6tflite3ops5micro4ceil4EvalEP13TfLiteContextP10TfLiteNode
 462              		.fnend
 464              		.section	.text._ZN6tflite3ops5micro13Register_CEILEv,"ax",%progbits
 465              		.align	2
 466              		.global	_ZN6tflite3ops5micro13Register_CEILEv
 467              		.syntax unified
 468              		.arm
 469              		.fpu neon
 471              	_ZN6tflite3ops5micro13Register_CEILEv:
 472              		.fnstart
 473              	.LFB1137:
 474              		@ args = 0, pretend = 0, frame = 0
 475              		@ frame_needed = 0, uses_anonymous_args = 0
 476 0000 00C000E3 		movw	ip, #:lower16:.LANCHOR0
 477 0004 10402DE9 		push	{r4, lr}
 478 0008 00C040E3 		movt	ip, #:upper16:.LANCHOR0
 479 000c 0040A0E1 		mov	r4, r0
 480 0010 00E0A0E1 		mov	lr, r0
 481 0014 0F00BCE8 		ldmia	ip!, {r0, r1, r2, r3}
 482 0018 0F00AEE8 		stmia	lr!, {r0, r1, r2, r3}
 483 001c 0F009CE8 		ldm	ip, {r0, r1, r2, r3}
 484 0020 0F008EE8 		stm	lr, {r0, r1, r2, r3}
 485 0024 0400A0E1 		mov	r0, r4
 486 0028 1080BDE8 		pop	{r4, pc}
 487              		.cantunwind
 488              		.fnend
 490              		.section	.rodata
 491              		.align	2
 492              		.set	.LANCHOR0,. + 0
 493              	.LC0:
 494 0000 00000000 		.word	0
 495 0004 00000000 		.word	0
 496 0008 00000000 		.word	_ZN6tflite3ops5micro4ceil7PrepareEP13TfLiteContextP10TfLiteNode
 497 000c 00000000 		.word	_ZN6tflite3ops5micro4ceil4EvalEP13TfLiteContextP10TfLiteNode
 498 0010 00000000 		.word	0
 499 0014 00000000 		.word	0
 500 0018 00000000 		.word	0
 501 001c 00000000 		.word	0
 502              		.ident	"GCC: (GNU Tools for ARM Embedded Processors 6-2017-q2-update) 6.3.1 20170620 (release) [AR