   1              		.cpu cortex-a9
   2              		.eabi_attribute 28, 1
   3              		.eabi_attribute 20, 1
   4              		.eabi_attribute 21, 1
   5              		.eabi_attribute 23, 3
   6              		.eabi_attribute 24, 1
   7              		.eabi_attribute 25, 1
   8              		.eabi_attribute 26, 1
   9              		.eabi_attribute 30, 2
  10              		.eabi_attribute 34, 0
  11              		.eabi_attribute 18, 4
  12              		.file	"conv.cc"
  13              		.section	.text._ZN6tflite12_GLOBAL__N_14InitEP13TfLiteContextPKcj,"ax",%progbits
  14              		.align	2
  15              		.syntax unified
  16              		.arm
  17              		.fpu neon
  19              	_ZN6tflite12_GLOBAL__N_14InitEP13TfLiteContextPKcj:
  20              		.fnstart
  21              	.LFB4177:
  22              		@ args = 0, pretend = 0, frame = 0
  23              		@ frame_needed = 0, uses_anonymous_args = 0
  24 0000 383090E5 		ldr	r3, [r0, #56]
  25 0004 000053E3 		cmp	r3, #0
  26 0008 0100000A 		beq	.L7
  27 000c 3410A0E3 		mov	r1, #52
  28 0010 13FF2FE1 		bx	r3
  29              	.L7:
  30 0014 10402DE9 		push	{r4, lr}
  31              		.save {r4, lr}
  32 0018 FEFFFFEB 		bl	abort
  33              		.fnend
  35              		.section	.text._ZN6tflite21reference_integer_ops14ConvPerChannelERKNS_10ConvParamsEPKlS5_RKNS_12Ru
  36              		.align	2
  37              		.weak	_ZN6tflite21reference_integer_ops14ConvPerChannelERKNS_10ConvParamsEPKlS5_RKNS_12RuntimeShap
  38              		.syntax unified
  39              		.arm
  40              		.fpu neon
  42              	_ZN6tflite21reference_integer_ops14ConvPerChannelERKNS_10ConvParamsEPKlS5_RKNS_12RuntimeShapeEPKaS8
  43              		.fnstart
  44              	.LFB4149:
  45              		@ args = 28, pretend = 0, frame = 120
  46              		@ frame_needed = 0, uses_anonymous_args = 0
  47 0000 F04F2DE9 		push	{r4, r5, r6, r7, r8, r9, r10, fp, lr}
  48              		.save {r4, r5, r6, r7, r8, r9, r10, fp, lr}
  49              		.pad #124
  50 0004 7CD04DE2 		sub	sp, sp, #124
  51 0008 18308DE5 		str	r3, [sp, #24]
  52 000c FA30D0E1 		ldrsh	r3, [r0, #10]
  53 0010 4C108DE5 		str	r1, [sp, #76]
  54 0014 50208DE5 		str	r2, [sp, #80]
  55 0018 6C308DE5 		str	r3, [sp, #108]
  56 001c FC30D0E1 		ldrsh	r3, [r0, #12]
  57 0020 281090E5 		ldr	r1, [r0, #40]
  58 0024 2C2090E5 		ldr	r2, [r0, #44]
  59 0028 70308DE5 		str	r3, [sp, #112]
  60 002c FE30D0E1 		ldrsh	r3, [r0, #14]
  61 0030 020051E1 		cmp	r1, r2
  62 0034 54108DE5 		str	r1, [sp, #84]
  63 0038 74208DE5 		str	r2, [sp, #116]
  64 003c 0C308DE5 		str	r3, [sp, #12]
  65 0040 F031D0E1 		ldrsh	r3, [r0, #16]
  66 0044 14B090E5 		ldr	fp, [r0, #20]
  67 0048 A4909DE5 		ldr	r9, [sp, #164]
  68 004c 2C308DE5 		str	r3, [sp, #44]
  69 0050 F230D0E1 		ldrsh	r3, [r0, #2]
  70 0054 AC109DE5 		ldr	r1, [sp, #172]
  71 0058 44308DE5 		str	r3, [sp, #68]
  72 005c F430D0E1 		ldrsh	r3, [r0, #4]
  73 0060 48308DE5 		str	r3, [sp, #72]
  74 0064 1C3090E5 		ldr	r3, [r0, #28]
  75 0068 68308DE5 		str	r3, [sp, #104]
  76 006c 7F0100CA 		bgt	.L10
  77 0070 18209DE5 		ldr	r2, [sp, #24]
  78 0074 003092E5 		ldr	r3, [r2]
  79 0078 040053E3 		cmp	r3, #4
  80 007c 7B01001A 		bne	.L10
  81 0080 003099E5 		ldr	r3, [r9]
  82 0084 040053E3 		cmp	r3, #4
  83 0088 7801001A 		bne	.L10
  84 008c B4309DE5 		ldr	r3, [sp, #180]
  85 0090 003093E5 		ldr	r3, [r3]
  86 0094 040053E3 		cmp	r3, #4
  87 0098 7401001A 		bne	.L10
  88 009c B4309DE5 		ldr	r3, [sp, #180]
  89 00a0 043093E5 		ldr	r3, [r3, #4]
  90 00a4 0300A0E1 		mov	r0, r3
  91 00a8 38308DE5 		str	r3, [sp, #56]
  92 00ac 043092E5 		ldr	r3, [r2, #4]
  93 00b0 030050E1 		cmp	r0, r3
  94 00b4 6D01001A 		bne	.L10
  95 00b8 10A099E5 		ldr	r10, [r9, #16]
  96 00bc 103092E5 		ldr	r3, [r2, #16]
  97 00c0 03005AE1 		cmp	r10, r3
  98 00c4 6901001A 		bne	.L10
  99 00c8 B4309DE5 		ldr	r3, [sp, #180]
 100 00cc 103093E5 		ldr	r3, [r3, #16]
 101 00d0 0320A0E1 		mov	r2, r3
 102 00d4 30308DE5 		str	r3, [sp, #48]
 103 00d8 043099E5 		ldr	r3, [r9, #4]
 104 00dc 030052E1 		cmp	r2, r3
 105 00e0 6201001A 		bne	.L10
 106 00e4 B0309DE5 		ldr	r3, [sp, #176]
 107 00e8 000053E3 		cmp	r3, #0
 108 00ec 5900000A 		beq	.L11
 109 00f0 000091E5 		ldr	r0, [r1]
 110 00f4 050050E3 		cmp	r0, #5
 111 00f8 5D0100CA 		bgt	.L86
 112 00fc 000050E3 		cmp	r0, #0
 113 0100 041081E2 		add	r1, r1, #4
 114 0104 0120A0D3 		movle	r2, #1
 115 0108 4F0000DA 		ble	.L14
 116              	.L13:
 117 010c 5131A0E7 		sbfx	r3, r1, #2, #1
 118 0110 033003E2 		and	r3, r3, #3
 119 0114 000053E1 		cmp	r3, r0
 120 0118 0030A021 		movcs	r3, r0
 121 011c 080050E3 		cmp	r0, #8
 122 0120 0030A0D1 		movle	r3, r0
 123 0124 590100CA 		bgt	.L87
 124              	.L15:
 125 0128 010053E3 		cmp	r3, #1
 126 012c 002091E5 		ldr	r2, [r1]
 127 0130 5101000A 		beq	.L60
 128 0134 04C091E5 		ldr	ip, [r1, #4]
 129 0138 020053E3 		cmp	r3, #2
 130 013c 9C0202E0 		mul	r2, ip, r2
 131 0140 4D01000A 		beq	.L60
 132 0144 08C091E5 		ldr	ip, [r1, #8]
 133 0148 030053E3 		cmp	r3, #3
 134 014c 9C0202E0 		mul	r2, ip, r2
 135 0150 4901000A 		beq	.L60
 136 0154 0CC091E5 		ldr	ip, [r1, #12]
 137 0158 040053E3 		cmp	r3, #4
 138 015c 9C0202E0 		mul	r2, ip, r2
 139 0160 4501000A 		beq	.L60
 140 0164 10C091E5 		ldr	ip, [r1, #16]
 141 0168 050053E3 		cmp	r3, #5
 142 016c 9C0202E0 		mul	r2, ip, r2
 143 0170 4101000A 		beq	.L60
 144 0174 14C091E5 		ldr	ip, [r1, #20]
 145 0178 060053E3 		cmp	r3, #6
 146 017c 9C0202E0 		mul	r2, ip, r2
 147 0180 3D01000A 		beq	.L60
 148 0184 18C091E5 		ldr	ip, [r1, #24]
 149 0188 070053E3 		cmp	r3, #7
 150 018c 9C0202E0 		mul	r2, ip, r2
 151 0190 3901000A 		beq	.L60
 152 0194 1CE091E5 		ldr	lr, [r1, #28]
 153 0198 08C0A0E3 		mov	ip, #8
 154 019c 9E0202E0 		mul	r2, lr, r2
 155              	.L17:
 156 01a0 000053E1 		cmp	r3, r0
 157 01a4 2800000A 		beq	.L14
 158              	.L16:
 159 01a8 036040E0 		sub	r6, r0, r3
 160 01ac 014040E2 		sub	r4, r0, #1
 161 01b0 04E046E2 		sub	lr, r6, #4
 162 01b4 034044E0 		sub	r4, r4, r3
 163 01b8 2EE1A0E1 		lsr	lr, lr, #2
 164 01bc 020054E3 		cmp	r4, #2
 165 01c0 01E08EE2 		add	lr, lr, #1
 166 01c4 0E51A0E1 		lsl	r5, lr, #2
 167 01c8 1200009A 		bls	.L19
 168 01cc 033181E0 		add	r3, r1, r3, lsl #2
 169 01d0 5120C0F2 		vmov.i32	q9, #1  @ v4si
 170 01d4 0040A0E3 		mov	r4, #0
 171              	.L21:
 172 01d8 014084E2 		add	r4, r4, #1
 173 01dc DF0A63F4 		vld1.64	{d16-d17}, [r3:64]
 174 01e0 04005EE1 		cmp	lr, r4
 175 01e4 103083E2 		add	r3, r3, #16
 176 01e8 F02962F2 		vmul.i32	q9, q9, q8
 177 01ec F9FFFF8A 		bhi	.L21
 178 01f0 060055E1 		cmp	r5, r6
 179 01f4 05C08CE0 		add	ip, ip, r5
 180 01f8 5000C0F2 		vmov.i32	q8, #0  @ v4si
 181 01fc E048F2F2 		vext.32	q10, q9, q8, #2
 182 0200 F22964F2 		vmul.i32	q9, q10, q9
 183 0204 E004F2F2 		vext.32	q8, q9, q8, #1
 184 0208 F20960F2 		vmul.i32	q8, q8, q9
 185 020c 903B10EE 		vmov.32	r3, d16[0]
 186 0210 930202E0 		mul	r2, r3, r2
 187 0214 0C00000A 		beq	.L14
 188              	.L19:
 189 0218 0CE191E7 		ldr	lr, [r1, ip, lsl #2]
 190 021c 01308CE2 		add	r3, ip, #1
 191 0220 030050E1 		cmp	r0, r3
 192 0224 0C31A0E1 		lsl	r3, ip, #2
 193 0228 9E0202E0 		mul	r2, lr, r2
 194 022c 060000DA 		ble	.L14
 195 0230 031081E0 		add	r1, r1, r3
 196 0234 02C08CE2 		add	ip, ip, #2
 197 0238 043091E5 		ldr	r3, [r1, #4]
 198 023c 0C0050E1 		cmp	r0, ip
 199 0240 930202E0 		mul	r2, r3, r2
 200 0244 083091C5 		ldrgt	r3, [r1, #8]
 201 0248 930202C0 		mulgt	r2, r3, r2
 202              	.L14:
 203 024c 30309DE5 		ldr	r3, [sp, #48]
 204 0250 020053E1 		cmp	r3, r2
 205 0254 0501001A 		bne	.L10
 206              	.L11:
 207 0258 38309DE5 		ldr	r3, [sp, #56]
 208 025c 000053E3 		cmp	r3, #0
 209 0260 18309DE5 		ldr	r3, [sp, #24]
 210 0264 082093E5 		ldr	r2, [r3, #8]
 211 0268 0C3093E5 		ldr	r3, [r3, #12]
 212 026c 28208DE5 		str	r2, [sp, #40]
 213 0270 08308DE5 		str	r3, [sp, #8]
 214 0274 083099E5 		ldr	r3, [r9, #8]
 215 0278 20308DE5 		str	r3, [sp, #32]
 216 027c 0C3099E5 		ldr	r3, [r9, #12]
 217 0280 04308DE5 		str	r3, [sp, #4]
 218 0284 B4309DE5 		ldr	r3, [sp, #180]
 219 0288 083093E5 		ldr	r3, [r3, #8]
 220 028c 40308DE5 		str	r3, [sp, #64]
 221 0290 B4309DE5 		ldr	r3, [sp, #180]
 222 0294 0C3093E5 		ldr	r3, [r3, #12]
 223 0298 3C308DE5 		str	r3, [sp, #60]
 224 029c F10000DA 		ble	.L8
 225 02a0 F80BDFED 		vldr.64	d16, .L91	@ int
 226 02a4 0030A0E3 		mov	r3, #0
 227 02a8 1C308DE5 		str	r3, [sp, #28]
 228              	.L28:
 229 02ac 40309DE5 		ldr	r3, [sp, #64]
 230 02b0 000053E3 		cmp	r3, #0
 231 02b4 E50000DA 		ble	.L30
 232 02b8 48309DE5 		ldr	r3, [sp, #72]
 233 02bc 003063E2 		rsb	r3, r3, #0
 234 02c0 34308DE5 		str	r3, [sp, #52]
 235 02c4 0030A0E3 		mov	r3, #0
 236 02c8 5C308DE5 		str	r3, [sp, #92]
 237              	.L31:
 238 02cc 3C309DE5 		ldr	r3, [sp, #60]
 239 02d0 000053E3 		cmp	r3, #0
 240 02d4 D30000DA 		ble	.L33
 241 02d8 44309DE5 		ldr	r3, [sp, #68]
 242 02dc 003063E2 		rsb	r3, r3, #0
 243 02e0 24308DE5 		str	r3, [sp, #36]
 244 02e4 0030A0E3 		mov	r3, #0
 245 02e8 58308DE5 		str	r3, [sp, #88]
 246              	.L34:
 247 02ec 30309DE5 		ldr	r3, [sp, #48]
 248 02f0 000053E3 		cmp	r3, #0
 249 02f4 C10000DA 		ble	.L46
 250 02f8 4C309DE5 		ldr	r3, [sp, #76]
 251 02fc 0080A0E3 		mov	r8, #0
 252 0300 043043E2 		sub	r3, r3, #4
 253 0304 64308DE5 		str	r3, [sp, #100]
 254 0308 50309DE5 		ldr	r3, [sp, #80]
 255 030c 043043E2 		sub	r3, r3, #4
 256 0310 60308DE5 		str	r3, [sp, #96]
 257              	.L47:
 258 0314 20309DE5 		ldr	r3, [sp, #32]
 259 0318 0050A0E3 		mov	r5, #0
 260 031c 000053E3 		cmp	r3, #0
 261 0320 5F0000DA 		ble	.L35
 262 0324 34309DE5 		ldr	r3, [sp, #52]
 263 0328 0560A0E1 		mov	r6, r5
 264 032c 14308DE5 		str	r3, [sp, #20]
 265              	.L40:
 266 0330 04309DE5 		ldr	r3, [sp, #4]
 267 0334 000053E3 		cmp	r3, #0
 268 0338 510000DA 		ble	.L36
 269 033c 14209DE5 		ldr	r2, [sp, #20]
 270 0340 00E0A0E3 		mov	lr, #0
 271 0344 28109DE5 		ldr	r1, [sp, #40]
 272 0348 0230E0E1 		mvn	r3, r2
 273 034c A33FA0E1 		lsr	r3, r3, #31
 274 0350 010052E1 		cmp	r2, r1
 275 0354 0030A0A3 		movge	r3, #0
 276 0358 10308DE5 		str	r3, [sp, #16]
 277 035c 24309DE5 		ldr	r3, [sp, #36]
 278 0360 00308DE5 		str	r3, [sp]
 279              	.L39:
 280 0364 00209DE5 		ldr	r2, [sp]
 281 0368 08109DE5 		ldr	r1, [sp, #8]
 282 036c 0230E0E1 		mvn	r3, r2
 283 0370 A33FA0E1 		lsr	r3, r3, #31
 284 0374 010052E1 		cmp	r2, r1
 285 0378 0030A0A3 		movge	r3, #0
 286 037c 000053E3 		cmp	r3, #0
 287 0380 3700000A 		beq	.L37
 288 0384 10309DE5 		ldr	r3, [sp, #16]
 289 0388 000053E3 		cmp	r3, #0
 290 038c 3400000A 		beq	.L37
 291 0390 00005AE3 		cmp	r10, #0
 292 0394 320000DA 		ble	.L37
 293 0398 18109DE5 		ldr	r1, [sp, #24]
 294 039c 003091E5 		ldr	r3, [r1]
 295 03a0 040053E3 		cmp	r3, #4
 296 03a4 B100001A 		bne	.L10
 297 03a8 043091E5 		ldr	r3, [r1, #4]
 298 03ac 1C009DE5 		ldr	r0, [sp, #28]
 299 03b0 030050E1 		cmp	r0, r3
 300 03b4 AD0000AA 		bge	.L10
 301 03b8 084091E5 		ldr	r4, [r1, #8]
 302 03bc 0130A0E1 		mov	r3, r1
 303 03c0 14C09DE5 		ldr	ip, [sp, #20]
 304 03c4 04005CE1 		cmp	ip, r4
 305 03c8 A80000AA 		bge	.L10
 306 03cc 0310A0E1 		mov	r1, r3
 307 03d0 0C3093E5 		ldr	r3, [r3, #12]
 308 03d4 030052E1 		cmp	r2, r3
 309 03d8 A40000AA 		bge	.L10
 310 03dc 90C424E0 		mla	r4, r0, r4, ip
 311 03e0 107091E5 		ldr	r7, [r1, #16]
 312 03e4 0000A0E3 		mov	r0, #0
 313 03e8 932424E0 		mla	r4, r3, r4, r2
 314 03ec A0309DE5 		ldr	r3, [sp, #160]
 315 03f0 973424E0 		mla	r4, r7, r4, r3
 316              	.L38:
 317 03f4 070050E1 		cmp	r0, r7
 318 03f8 9C0000AA 		bge	.L10
 319 03fc 003099E5 		ldr	r3, [r9]
 320 0400 D120D4E0 		ldrsb	r2, [r4], #1
 321 0404 040053E3 		cmp	r3, #4
 322 0408 9800001A 		bne	.L10
 323 040c 043099E5 		ldr	r3, [r9, #4]
 324 0410 030058E1 		cmp	r8, r3
 325 0414 950000AA 		bge	.L10
 326 0418 083099E5 		ldr	r3, [r9, #8]
 327 041c 030056E1 		cmp	r6, r3
 328 0420 920000AA 		bge	.L10
 329 0424 0C1099E5 		ldr	r1, [r9, #12]
 330 0428 01005EE1 		cmp	lr, r1
 331 042c 8F0000AA 		bge	.L10
 332 0430 10C099E5 		ldr	ip, [r9, #16]
 333 0434 0C0050E1 		cmp	r0, ip
 334 0438 8C0000AA 		bge	.L10
 335 043c 936823E0 		mla	r3, r3, r8, r6
 336 0440 02208BE0 		add	r2, fp, r2
 337 0444 91E323E0 		mla	r3, r1, r3, lr
 338 0448 A8109DE5 		ldr	r1, [sp, #168]
 339 044c 9C132CE0 		mla	ip, ip, r3, r1
 340 0450 D0309CE1 		ldrsb	r3, [ip, r0]
 341 0454 010080E2 		add	r0, r0, #1
 342 0458 0A0050E1 		cmp	r0, r10
 343 045c 925325E0 		mla	r5, r2, r3, r5
 344 0460 E3FFFF1A 		bne	.L38
 345              	.L37:
 346 0464 00309DE5 		ldr	r3, [sp]
 347 0468 01E08EE2 		add	lr, lr, #1
 348 046c 0C209DE5 		ldr	r2, [sp, #12]
 349 0470 023083E0 		add	r3, r3, r2
 350 0474 00308DE5 		str	r3, [sp]
 351 0478 04309DE5 		ldr	r3, [sp, #4]
 352 047c 03005EE1 		cmp	lr, r3
 353 0480 B7FFFF1A 		bne	.L39
 354              	.L36:
 355 0484 14309DE5 		ldr	r3, [sp, #20]
 356 0488 016086E2 		add	r6, r6, #1
 357 048c 2C209DE5 		ldr	r2, [sp, #44]
 358 0490 023083E0 		add	r3, r3, r2
 359 0494 14308DE5 		str	r3, [sp, #20]
 360 0498 20309DE5 		ldr	r3, [sp, #32]
 361 049c 030056E1 		cmp	r6, r3
 362 04a0 A2FFFF1A 		bne	.L40
 363              	.L35:
 364 04a4 B0309DE5 		ldr	r3, [sp, #176]
 365 04a8 64209DE5 		ldr	r2, [sp, #100]
 366 04ac 000053E3 		cmp	r3, #0
 367 04b0 08319317 		ldrne	r3, [r3, r8, lsl #2]
 368 04b4 03508510 		addne	r5, r5, r3
 369 04b8 60309DE5 		ldr	r3, [sp, #96]
 370 04bc 0410B3E5 		ldr	r1, [r3, #4]!
 371 04c0 60308DE5 		str	r3, [sp, #96]
 372 04c4 000051E3 		cmp	r1, #0
 373 04c8 0430B2E5 		ldr	r3, [r2, #4]!
 374 04cc 64208DE5 		str	r2, [sp, #100]
 375 04d0 C12FC1E1 		bic	r2, r1, r1, asr #31
 376 04d4 001061D2 		rsble	r1, r1, #0
 377 04d8 1552A0E1 		lsl	r5, r5, r2
 378 04dc 0010A0C3 		movgt	r1, #0
 379 04e0 9563C7E0 		smull	r6, r7, r5, r3
 380 04e4 050053E1 		cmp	r3, r5
 381 04e8 02015503 		cmpeq	r5, #-2147483648
 382 04ec 0150A003 		moveq	r5, #1
 383 04f0 0050A013 		movne	r5, #0
 384 04f4 000056E3 		cmp	r6, #0
 385 04f8 0030D7E2 		sbcs	r3, r7, #0
 386 04fc 6F0000BA 		blt	.L63
 387 0500 0121A0E3 		mov	r2, #1073741824
 388 0504 0030A0E3 		mov	r3, #0
 389              	.L43:
 390 0508 000055E3 		cmp	r5, #0
 391 050c 6900001A 		bne	.L88
 392 0510 026096E0 		adds	r6, r6, r2
 393 0514 0370A7E0 		adc	r7, r7, r3
 394 0518 0030A0E3 		mov	r3, #0
 395 051c C72FA0E1 		asr	r2, r7, #31
 396 0520 0221C2E3 		bic	r2, r2, #-2147483648
 397 0524 062092E0 		adds	r2, r2, r6
 398 0528 A22FA0E1 		lsr	r2, r2, #31
 399 052c 0730A3E0 		adc	r3, r3, r7
 400 0530 832082E1 		orr	r2, r2, r3, lsl #1
 401              	.L48:
 402 0534 1F0051E3 		cmp	r1, #31
 403 0538 630000CA 		bgt	.L89
 404 053c 901B02EE 		vmov.32	d18[0], r1
 405 0540 5211A0E1 		asr	r1, r2, r1
 406 0544 A01472F3 		vshl.u64	d17, d16, d18
 407 0548 314B55EC 		vmov	r4, r5, d17	@ int
 408 054c 013044E2 		sub	r3, r4, #1
 409 0550 C300A0E1 		asr	r0, r3, #1
 410 0554 023003E0 		and	r3, r3, r2
 411 0558 A22F80E0 		add	r2, r0, r2, lsr #31
 412 055c 020053E1 		cmp	r3, r2
 413 0560 0130A0D1 		movle	r3, r1
 414 0564 013081C2 		addgt	r3, r1, #1
 415 0568 68209DE5 		ldr	r2, [sp, #104]
 416 056c 023083E0 		add	r3, r3, r2
 417 0570 54209DE5 		ldr	r2, [sp, #84]
 418 0574 030052E1 		cmp	r2, r3
 419 0578 0200A0C1 		movgt	r0, r2
 420 057c 480000DA 		ble	.L90
 421              	.L45:
 422 0580 B4309DE5 		ldr	r3, [sp, #180]
 423 0584 003093E5 		ldr	r3, [r3]
 424 0588 040053E3 		cmp	r3, #4
 425 058c 3700001A 		bne	.L10
 426 0590 B4309DE5 		ldr	r3, [sp, #180]
 427 0594 1CC09DE5 		ldr	ip, [sp, #28]
 428 0598 043093E5 		ldr	r3, [r3, #4]
 429 059c 03005CE1 		cmp	ip, r3
 430 05a0 320000AA 		bge	.L10
 431 05a4 B4309DE5 		ldr	r3, [sp, #180]
 432 05a8 5CE09DE5 		ldr	lr, [sp, #92]
 433 05ac 083093E5 		ldr	r3, [r3, #8]
 434 05b0 03005EE1 		cmp	lr, r3
 435 05b4 2D0000AA 		bge	.L10
 436 05b8 B4209DE5 		ldr	r2, [sp, #180]
 437 05bc 58409DE5 		ldr	r4, [sp, #88]
 438 05c0 0C1092E5 		ldr	r1, [r2, #12]
 439 05c4 010054E1 		cmp	r4, r1
 440 05c8 280000AA 		bge	.L10
 441 05cc B4209DE5 		ldr	r2, [sp, #180]
 442 05d0 102092E5 		ldr	r2, [r2, #16]
 443 05d4 020058E1 		cmp	r8, r2
 444 05d8 240000AA 		bge	.L10
 445 05dc 93EC23E0 		mla	r3, r3, ip, lr
 446 05e0 914323E0 		mla	r3, r1, r3, r4
 447 05e4 B8109DE5 		ldr	r1, [sp, #184]
 448 05e8 921323E0 		mla	r3, r2, r3, r1
 449 05ec 0800C3E7 		strb	r0, [r3, r8]
 450 05f0 018088E2 		add	r8, r8, #1
 451 05f4 30309DE5 		ldr	r3, [sp, #48]
 452 05f8 030058E1 		cmp	r8, r3
 453 05fc 44FFFF1A 		bne	.L47
 454              	.L46:
 455 0600 24209DE5 		ldr	r2, [sp, #36]
 456 0604 6C109DE5 		ldr	r1, [sp, #108]
 457 0608 58309DE5 		ldr	r3, [sp, #88]
 458 060c 012082E0 		add	r2, r2, r1
 459 0610 24208DE5 		str	r2, [sp, #36]
 460 0614 013083E2 		add	r3, r3, #1
 461 0618 3C209DE5 		ldr	r2, [sp, #60]
 462 061c 58308DE5 		str	r3, [sp, #88]
 463 0620 020053E1 		cmp	r3, r2
 464 0624 30FFFF1A 		bne	.L34
 465              	.L33:
 466 0628 34209DE5 		ldr	r2, [sp, #52]
 467 062c 70109DE5 		ldr	r1, [sp, #112]
 468 0630 5C309DE5 		ldr	r3, [sp, #92]
 469 0634 012082E0 		add	r2, r2, r1
 470 0638 34208DE5 		str	r2, [sp, #52]
 471 063c 013083E2 		add	r3, r3, #1
 472 0640 40209DE5 		ldr	r2, [sp, #64]
 473 0644 5C308DE5 		str	r3, [sp, #92]
 474 0648 020053E1 		cmp	r3, r2
 475 064c 1EFFFF1A 		bne	.L31
 476              	.L30:
 477 0650 1C309DE5 		ldr	r3, [sp, #28]
 478 0654 38209DE5 		ldr	r2, [sp, #56]
 479 0658 013083E2 		add	r3, r3, #1
 480 065c 020053E1 		cmp	r3, r2
 481 0660 1C308DE5 		str	r3, [sp, #28]
 482 0664 10FFFF1A 		bne	.L28
 483              	.L8:
 484 0668 7CD08DE2 		add	sp, sp, #124
 485              		@ sp needed
 486 066c F08FBDE8 		pop	{r4, r5, r6, r7, r8, r9, r10, fp, pc}
 487              	.L10:
 488 0670 FEFFFFEB 		bl	abort
 489              	.L86:
 490 0674 041091E5 		ldr	r1, [r1, #4]
 491 0678 A3FEFFEA 		b	.L13
 492              	.L60:
 493 067c 03C0A0E1 		mov	ip, r3
 494 0680 C6FEFFEA 		b	.L17
 495              	.L92:
 496 0684 00F020E3 		.align	3
 497              	.L91:
 498 0688 01000000 		.word	1
 499 068c 00000000 		.word	0
 500              	.L87:
 501 0690 000053E3 		cmp	r3, #0
 502 0694 0120A003 		moveq	r2, #1
 503 0698 03C0A001 		moveq	ip, r3
 504 069c C1FEFF0A 		beq	.L16
 505 06a0 A0FEFFEA 		b	.L15
 506              	.L90:
 507 06a4 74209DE5 		ldr	r2, [sp, #116]
 508 06a8 030052E1 		cmp	r2, r3
 509 06ac 0200A0B1 		movlt	r0, r2
 510 06b0 0300A0A1 		movge	r0, r3
 511 06b4 B1FFFFEA 		b	.L45
 512              	.L88:
 513 06b8 0221E0E3 		mvn	r2, #-2147483648
 514 06bc 9CFFFFEA 		b	.L48
 515              	.L63:
 516 06c0 0721A0E3 		mov	r2, #-1073741823
 517 06c4 0030E0E3 		mvn	r3, #0
 518 06c8 8EFFFFEA 		b	.L43
 519              	.L89:
 520 06cc 003000E3 		movw	r3, #:lower16:.LC1
 521 06d0 002000E3 		movw	r2, #:lower16:.LANCHOR0
 522 06d4 000000E3 		movw	r0, #:lower16:.LC2
 523 06d8 003040E3 		movt	r3, #:upper16:.LC1
 524 06dc 002040E3 		movt	r2, #:upper16:.LANCHOR0
 525 06e0 000040E3 		movt	r0, #:upper16:.LC2
 526 06e4 671100E3 		movw	r1, #359
 527 06e8 FEFFFFEB 		bl	__assert_func
 528              		.fnend
 530              		.section	.text._ZN6tflite12_GLOBAL__N_14EvalEP13TfLiteContextP10TfLiteNode,"ax",%progbits
 531              		.align	2
 532              		.syntax unified
 533              		.arm
 534              		.fpu neon
 536              	_ZN6tflite12_GLOBAL__N_14EvalEP13TfLiteContextP10TfLiteNode:
 537              		.fnstart
 538              	.LFB4178:
 539              		@ args = 0, pretend = 0, frame = 344
 540              		@ frame_needed = 0, uses_anonymous_args = 0
 541 0000 F04F2DE9 		push	{r4, r5, r6, r7, r8, r9, r10, fp, lr}
 542              		.save {r4, r5, r6, r7, r8, r9, r10, fp, lr}
 543 0004 003000E3 		movw	r3, #:lower16:_ZN6tflite16kConvInputTensorE
 544 0008 004050E2 		subs	r4, r0, #0
 545 000c 003040E3 		movt	r3, #:upper16:_ZN6tflite16kConvInputTensorE
 546 0010 0160A0E1 		mov	r6, r1
 547              		.pad #380
 548 0014 5FDF4DE2 		sub	sp, sp, #380
 549 0018 001093E5 		ldr	r1, [r3]
 550 001c 8902000A 		beq	.L95
 551 0020 000056E3 		cmp	r6, #0
 552 0024 8702000A 		beq	.L95
 553 0028 003096E5 		ldr	r3, [r6]
 554 002c 542094E5 		ldr	r2, [r4, #84]
 555 0030 013183E0 		add	r3, r3, r1, lsl #2
 556 0034 041093E5 		ldr	r1, [r3, #4]
 557              	.LEHB0:
 558 0038 32FF2FE1 		blx	r2
 559 003c 002000E3 		movw	r2, #:lower16:_ZN6tflite18kConvWeightsTensorE
 560 0040 003096E5 		ldr	r3, [r6]
 561 0044 002040E3 		movt	r2, #:upper16:_ZN6tflite18kConvWeightsTensorE
 562 0048 545094E5 		ldr	r5, [r4, #84]
 563 004c 002092E5 		ldr	r2, [r2]
 564 0050 0070A0E1 		mov	r7, r0
 565 0054 0400A0E1 		mov	r0, r4
 566 0058 023183E0 		add	r3, r3, r2, lsl #2
 567 005c 041093E5 		ldr	r1, [r3, #4]
 568 0060 35FF2FE1 		blx	r5
 569 0064 003096E5 		ldr	r3, [r6]
 570 0068 0080A0E1 		mov	r8, r0
 571 006c 002093E5 		ldr	r2, [r3]
 572 0070 030052E3 		cmp	r2, #3
 573 0074 0050A013 		movne	r5, #0
 574 0078 6200000A 		beq	.L294
 575              	.L96:
 576 007c 002000E3 		movw	r2, #:lower16:_ZN6tflite17kConvOutputTensorE
 577 0080 043096E5 		ldr	r3, [r6, #4]
 578 0084 002040E3 		movt	r2, #:upper16:_ZN6tflite17kConvOutputTensorE
 579 0088 549094E5 		ldr	r9, [r4, #84]
 580 008c 002092E5 		ldr	r2, [r2]
 581 0090 0400A0E1 		mov	r0, r4
 582 0094 023183E0 		add	r3, r3, r2, lsl #2
 583 0098 041093E5 		ldr	r1, [r3, #4]
 584 009c 39FF2FE1 		blx	r9
 585 00a0 141096E5 		ldr	r1, [r6, #20]
 586 00a4 0040A0E1 		mov	r4, r0
 587 00a8 000051E3 		cmp	r1, #0
 588 00ac 6502000A 		beq	.L95
 589 00b0 109096E5 		ldr	r9, [r6, #16]
 590 00b4 000059E3 		cmp	r9, #0
 591 00b8 6202000A 		beq	.L95
 592 00bc 0820D7E5 		ldrb	r2, [r7, #8]	@ zero_extendqisi2
 593 00c0 0830D0E5 		ldrb	r3, [r0, #8]	@ zero_extendqisi2
 594 00c4 020053E1 		cmp	r3, r2
 595 00c8 0200000A 		beq	.L295
 596              	.L287:
 597 00cc 0100A0E3 		mov	r0, #1
 598              	.L289:
 599 00d0 5FDF8DE2 		add	sp, sp, #380
 600              		@ sp needed
 601 00d4 F08FBDE8 		pop	{r4, r5, r6, r7, r8, r9, r10, fp, pc}
 602              	.L295:
 603 00d8 0820D8E5 		ldrb	r2, [r8, #8]	@ zero_extendqisi2
 604 00dc 030052E1 		cmp	r2, r3
 605 00e0 F9FFFF1A 		bne	.L287
 606 00e4 010052E3 		cmp	r2, #1
 607 00e8 5000000A 		beq	.L98
 608 00ec 090052E3 		cmp	r2, #9
 609 00f0 F5FFFF1A 		bne	.L287
 610 00f4 050D8DE2 		add	r0, sp, #320
 611 00f8 0920A0E1 		mov	r2, r9
 612 00fc FEFFFFEB 		bl	_ZN6tflite19ConvParamsQuantizedERK16TfLiteConvParamsRKNS_10OpDataConvE
 613 0100 E0008DE2 		add	r0, sp, #224
 614 0104 0710A0E1 		mov	r1, r7
 615 0108 24A099E5 		ldr	r10, [r9, #36]
 616 010c F8608DE2 		add	r6, sp, #248
 617 0110 28B099E5 		ldr	fp, [r9, #40]
 618 0114 FEFFFFEB 		bl	_ZN6tflite5micro14GetTensorShapeEPK16TfLiteEvalTensor
 619              	.LEHE0:
 620 0118 003097E5 		ldr	r3, [r7]
 621 011c 0600A0E1 		mov	r0, r6
 622 0120 0810A0E1 		mov	r1, r8
 623 0124 24308DE5 		str	r3, [sp, #36]
 624              	.LEHB1:
 625 0128 FEFFFFEB 		bl	_ZN6tflite5micro14GetTensorShapeEPK16TfLiteEvalTensor
 626              	.LEHE1:
 627 012c 117E8DE2 		add	r7, sp, #272
 628 0130 0510A0E1 		mov	r1, r5
 629 0134 0700A0E1 		mov	r0, r7
 630 0138 009098E5 		ldr	r9, [r8]
 631              	.LEHB2:
 632 013c FEFFFFEB 		bl	_ZN6tflite5micro14GetTensorShapeEPK16TfLiteEvalTensor
 633              	.LEHE2:
 634 0140 000055E3 		cmp	r5, #0
 635 0144 6102000A 		beq	.L296
 636 0148 4A8F8DE2 		add	r8, sp, #296
 637 014c 0410A0E1 		mov	r1, r4
 638 0150 0800A0E1 		mov	r0, r8
 639 0154 005095E5 		ldr	r5, [r5]
 640              	.LEHB3:
 641 0158 FEFFFFEB 		bl	_ZN6tflite5micro14GetTensorShapeEPK16TfLiteEvalTensor
 642              	.LEHE3:
 643 015c 000094E5 		ldr	r0, [r4]
 644 0160 E0308DE2 		add	r3, sp, #224
 645 0164 24C09DE5 		ldr	ip, [sp, #36]
 646 0168 0B20A0E1 		mov	r2, fp
 647 016c 14808DE5 		str	r8, [sp, #20]
 648 0170 0A10A0E1 		mov	r1, r10
 649 0174 18008DE5 		str	r0, [sp, #24]
 650 0178 050D8DE2 		add	r0, sp, #320
 651 017c 10508DE5 		str	r5, [sp, #16]
 652 0180 0C708DE5 		str	r7, [sp, #12]
 653 0184 40028DE9 		stmib	sp, {r6, r9}
 654 0188 00C08DE5 		str	ip, [sp]
 655              	.LEHB4:
 656 018c FEFFFFEB 		bl	_ZN6tflite21reference_integer_ops14ConvPerChannelERKNS_10ConvParamsEPKlS5_RKNS_12RuntimeShapeEP
 657              	.LEHE4:
 658 0190 28319DE5 		ldr	r3, [sp, #296]
 659 0194 050053E3 		cmp	r3, #5
 660 0198 030000DA 		ble	.L162
 661 019c 2C019DE5 		ldr	r0, [sp, #300]
 662 01a0 000050E3 		cmp	r0, #0
 663 01a4 0000000A 		beq	.L162
 664 01a8 FEFFFFEB 		bl	_ZdaPv
 665              	.L162:
 666 01ac 10319DE5 		ldr	r3, [sp, #272]
 667 01b0 050053E3 		cmp	r3, #5
 668 01b4 030000DA 		ble	.L163
 669 01b8 14019DE5 		ldr	r0, [sp, #276]
 670 01bc 000050E3 		cmp	r0, #0
 671 01c0 0000000A 		beq	.L163
 672 01c4 FEFFFFEB 		bl	_ZdaPv
 673              	.L163:
 674 01c8 F8309DE5 		ldr	r3, [sp, #248]
 675 01cc 050053E3 		cmp	r3, #5
 676 01d0 030000DA 		ble	.L164
 677 01d4 FC009DE5 		ldr	r0, [sp, #252]
 678 01d8 000050E3 		cmp	r0, #0
 679 01dc 0000000A 		beq	.L164
 680 01e0 FEFFFFEB 		bl	_ZdaPv
 681              	.L164:
 682 01e4 E0309DE5 		ldr	r3, [sp, #224]
 683 01e8 050053E3 		cmp	r3, #5
 684 01ec 030000DA 		ble	.L165
 685 01f0 E4009DE5 		ldr	r0, [sp, #228]
 686 01f4 000050E3 		cmp	r0, #0
 687 01f8 0000000A 		beq	.L165
 688              	.L291:
 689 01fc FEFFFFEB 		bl	_ZdaPv
 690              	.L165:
 691 0200 0000A0E3 		mov	r0, #0
 692 0204 B1FFFFEA 		b	.L289
 693              	.L294:
 694 0208 002000E3 		movw	r2, #:lower16:_ZN6tflite15kConvBiasTensorE
 695 020c 545094E5 		ldr	r5, [r4, #84]
 696 0210 002040E3 		movt	r2, #:upper16:_ZN6tflite15kConvBiasTensorE
 697 0214 0400A0E1 		mov	r0, r4
 698 0218 002092E5 		ldr	r2, [r2]
 699 021c 023183E0 		add	r3, r3, r2, lsl #2
 700 0220 041093E5 		ldr	r1, [r3, #4]
 701              	.LEHB5:
 702 0224 35FF2FE1 		blx	r5
 703 0228 0050A0E1 		mov	r5, r0
 704 022c 92FFFFEA 		b	.L96
 705              	.L98:
 706 0230 0920A0E1 		mov	r2, r9
 707 0234 050D8DE2 		add	r0, sp, #320
 708 0238 FEFFFFEB 		bl	_ZN6tflite15ConvParamsFloatERK16TfLiteConvParamsRKNS_10OpDataConvE
 709 023c 0710A0E1 		mov	r1, r7
 710 0240 C8008DE2 		add	r0, sp, #200
 711 0244 FEFFFFEB 		bl	_ZN6tflite5micro14GetTensorShapeEPK16TfLiteEvalTensor
 712              	.LEHE5:
 713 0248 0810A0E1 		mov	r1, r8
 714 024c E0008DE2 		add	r0, sp, #224
 715 0250 006097E5 		ldr	r6, [r7]
 716              	.LEHB6:
 717 0254 FEFFFFEB 		bl	_ZN6tflite5micro14GetTensorShapeEPK16TfLiteEvalTensor
 718              	.LEHE6:
 719 0258 003098E5 		ldr	r3, [r8]
 720 025c 0510A0E1 		mov	r1, r5
 721 0260 F8008DE2 		add	r0, sp, #248
 722 0264 94308DE5 		str	r3, [sp, #148]
 723              	.LEHB7:
 724 0268 FEFFFFEB 		bl	_ZN6tflite5micro14GetTensorShapeEPK16TfLiteEvalTensor
 725              	.LEHE7:
 726 026c 000055E3 		cmp	r5, #0
 727 0270 2802000A 		beq	.L297
 728 0274 003095E5 		ldr	r3, [r5]
 729 0278 0410A0E1 		mov	r1, r4
 730 027c 110E8DE2 		add	r0, sp, #272
 731 0280 74308DE5 		str	r3, [sp, #116]
 732              	.LEHB8:
 733 0284 FEFFFFEB 		bl	_ZN6tflite5micro14GetTensorShapeEPK16TfLiteEvalTensor
 734              	.LEHE8:
 735 0288 003094E5 		ldr	r3, [r4]
 736 028c 0010A0E3 		mov	r1, #0
 737 0290 4A0F8DE2 		add	r0, sp, #296
 738 0294 24308DE5 		str	r3, [sp, #36]
 739              	.LEHB9:
 740 0298 FEFFFFEB 		bl	_ZN6tflite5micro14GetTensorShapeEPK16TfLiteEvalTensor
 741              	.LEHE9:
 742 029c C8309DE5 		ldr	r3, [sp, #200]
 743 02a0 522F8DE2 		add	r2, sp, #328
 744 02a4 022082E2 		add	r2, r2, #2
 745 02a8 5C6A9DED 		vldr.32	s12, [sp, #368]
 746 02ac F020D2E1 		ldrsh	r2, [r2]
 747 02b0 040053E3 		cmp	r3, #4
 748 02b4 533F8DE2 		add	r3, sp, #332
 749 02b8 023083E2 		add	r3, r3, #2
 750 02bc F0A0D3E1 		ldrsh	r10, [r3]
 751 02c0 153E8DE2 		add	r3, sp, #336
 752 02c4 B0208DE5 		str	r2, [sp, #176]
 753 02c8 F030D3E1 		ldrsh	r3, [r3]
 754 02cc 532F8DE2 		add	r2, sp, #332
 755 02d0 F020D2E1 		ldrsh	r2, [r2]
 756 02d4 5D5ADDED 		vldr.32	s11, [sp, #372]
 757 02d8 50308DE5 		str	r3, [sp, #80]
 758 02dc 053D8DE2 		add	r3, sp, #320
 759 02e0 023083E2 		add	r3, r3, #2
 760 02e4 80208DE5 		str	r2, [sp, #128]
 761 02e8 F030D3E1 		ldrsh	r3, [r3]
 762 02ec 98308DE5 		str	r3, [sp, #152]
 763 02f0 513F8DE2 		add	r3, sp, #324
 764 02f4 F070D3E1 		ldrsh	r7, [r3]
 765 02f8 0302001A 		bne	.L298
 766 02fc E0309DE5 		ldr	r3, [sp, #224]
 767 0300 040053E3 		cmp	r3, #4
 768 0304 FF01001A 		bne	.L299
 769 0308 10319DE5 		ldr	r3, [sp, #272]
 770 030c 040053E3 		cmp	r3, #4
 771 0310 FB01001A 		bne	.L300
 772 0314 CC309DE5 		ldr	r3, [sp, #204]
 773 0318 14219DE5 		ldr	r2, [sp, #276]
 774 031c 70308DE5 		str	r3, [sp, #112]
 775 0320 020053E1 		cmp	r3, r2
 776 0324 44208DE5 		str	r2, [sp, #68]
 777 0328 F401001A 		bne	.L301
 778 032c D8809DE5 		ldr	r8, [sp, #216]
 779 0330 F0509DE5 		ldr	r5, [sp, #240]
 780 0334 050058E1 		cmp	r8, r5
 781 0338 EF01001A 		bne	.L302
 782 033c E4309DE5 		ldr	r3, [sp, #228]
 783 0340 20219DE5 		ldr	r2, [sp, #288]
 784 0344 58308DE5 		str	r3, [sp, #88]
 785 0348 020053E1 		cmp	r3, r2
 786 034c 48208DE5 		str	r2, [sp, #72]
 787 0350 DF01001A 		bne	.L303
 788 0354 74309DE5 		ldr	r3, [sp, #116]
 789 0358 000053E3 		cmp	r3, #0
 790 035c 5600000A 		beq	.L107
 791 0360 F8109DE5 		ldr	r1, [sp, #248]
 792 0364 050051E3 		cmp	r1, #5
 793 0368 830100DA 		ble	.L108
 794 036c FC009DE5 		ldr	r0, [sp, #252]
 795              	.L109:
 796 0370 5031A0E7 		sbfx	r3, r0, #2, #1
 797 0374 033003E2 		and	r3, r3, #3
 798 0378 010053E1 		cmp	r3, r1
 799 037c 0130A021 		movcs	r3, r1
 800 0380 080051E3 		cmp	r1, #8
 801 0384 0130A0D1 		movle	r3, r1
 802 0388 800100CA 		bgt	.L304
 803              	.L111:
 804 038c 010053E3 		cmp	r3, #1
 805 0390 002090E5 		ldr	r2, [r0]
 806 0394 7601000A 		beq	.L197
 807 0398 04C090E5 		ldr	ip, [r0, #4]
 808 039c 020053E3 		cmp	r3, #2
 809 03a0 9C0202E0 		mul	r2, ip, r2
 810 03a4 7201000A 		beq	.L197
 811 03a8 08C090E5 		ldr	ip, [r0, #8]
 812 03ac 030053E3 		cmp	r3, #3
 813 03b0 9C0202E0 		mul	r2, ip, r2
 814 03b4 6E01000A 		beq	.L197
 815 03b8 0CC090E5 		ldr	ip, [r0, #12]
 816 03bc 040053E3 		cmp	r3, #4
 817 03c0 9C0202E0 		mul	r2, ip, r2
 818 03c4 6A01000A 		beq	.L197
 819 03c8 10C090E5 		ldr	ip, [r0, #16]
 820 03cc 050053E3 		cmp	r3, #5
 821 03d0 9C0202E0 		mul	r2, ip, r2
 822 03d4 6601000A 		beq	.L197
 823 03d8 14C090E5 		ldr	ip, [r0, #20]
 824 03dc 060053E3 		cmp	r3, #6
 825 03e0 9C0202E0 		mul	r2, ip, r2
 826 03e4 6201000A 		beq	.L197
 827 03e8 18C090E5 		ldr	ip, [r0, #24]
 828 03ec 070053E3 		cmp	r3, #7
 829 03f0 9C0202E0 		mul	r2, ip, r2
 830 03f4 5E01000A 		beq	.L197
 831 03f8 1CE090E5 		ldr	lr, [r0, #28]
 832 03fc 08C0A0E3 		mov	ip, #8
 833 0400 9E0202E0 		mul	r2, lr, r2
 834              	.L113:
 835 0404 030051E1 		cmp	r1, r3
 836 0408 2800000A 		beq	.L110
 837              	.L112:
 838 040c 03B041E0 		sub	fp, r1, r3
 839 0410 014041E2 		sub	r4, r1, #1
 840 0414 04E04BE2 		sub	lr, fp, #4
 841 0418 034044E0 		sub	r4, r4, r3
 842 041c 2EE1A0E1 		lsr	lr, lr, #2
 843 0420 020054E3 		cmp	r4, #2
 844 0424 01E08EE2 		add	lr, lr, #1
 845 0428 0E91A0E1 		lsl	r9, lr, #2
 846 042c 1200009A 		bls	.L115
 847 0430 033180E0 		add	r3, r0, r3, lsl #2
 848 0434 5100C0F2 		vmov.i32	q8, #1  @ v4si
 849 0438 0040A0E3 		mov	r4, #0
 850              	.L117:
 851 043c 014084E2 		add	r4, r4, #1
 852 0440 DF2A63F4 		vld1.64	{d18-d19}, [r3:64]
 853 0444 04005EE1 		cmp	lr, r4
 854 0448 103083E2 		add	r3, r3, #16
 855 044c F20960F2 		vmul.i32	q8, q8, q9
 856 0450 F9FFFF8A 		bhi	.L117
 857 0454 0B0059E1 		cmp	r9, fp
 858 0458 09C08CE0 		add	ip, ip, r9
 859 045c 5020C0F2 		vmov.i32	q9, #0  @ v4si
 860 0460 E248F0F2 		vext.32	q10, q8, q9, #2
 861 0464 F40960F2 		vmul.i32	q8, q8, q10
 862 0468 E224F0F2 		vext.32	q9, q8, q9, #1
 863 046c F00962F2 		vmul.i32	q8, q9, q8
 864 0470 903B10EE 		vmov.32	r3, d16[0]
 865 0474 930202E0 		mul	r2, r3, r2
 866 0478 0C00000A 		beq	.L110
 867              	.L115:
 868 047c 0CE190E7 		ldr	lr, [r0, ip, lsl #2]
 869 0480 01308CE2 		add	r3, ip, #1
 870 0484 030051E1 		cmp	r1, r3
 871 0488 0C31A0E1 		lsl	r3, ip, #2
 872 048c 9E0202E0 		mul	r2, lr, r2
 873 0490 060000DA 		ble	.L110
 874 0494 030080E0 		add	r0, r0, r3
 875 0498 02C08CE2 		add	ip, ip, #2
 876 049c 043090E5 		ldr	r3, [r0, #4]
 877 04a0 0C0051E1 		cmp	r1, ip
 878 04a4 930202E0 		mul	r2, r3, r2
 879 04a8 083090C5 		ldrgt	r3, [r0, #8]
 880 04ac 930202C0 		mulgt	r2, r3, r2
 881              	.L110:
 882 04b0 58309DE5 		ldr	r3, [sp, #88]
 883 04b4 020053E1 		cmp	r3, r2
 884 04b8 8601001A 		bne	.L305
 885              	.L107:
 886 04bc 70309DE5 		ldr	r3, [sp, #112]
 887 04c0 D4909DE5 		ldr	r9, [sp, #212]
 888 04c4 ECB09DE5 		ldr	fp, [sp, #236]
 889 04c8 000053E3 		cmp	r3, #0
 890 04cc D0309DE5 		ldr	r3, [sp, #208]
 891 04d0 4C308DE5 		str	r3, [sp, #76]
 892 04d4 E8309DE5 		ldr	r3, [sp, #232]
 893 04d8 30308DE5 		str	r3, [sp, #48]
 894 04dc 18319DE5 		ldr	r3, [sp, #280]
 895 04e0 64308DE5 		str	r3, [sp, #100]
 896 04e4 1C319DE5 		ldr	r3, [sp, #284]
 897 04e8 68308DE5 		str	r3, [sp, #104]
 898 04ec FD0000DA 		ble	.L125
 899 04f0 64209DE5 		ldr	r2, [sp, #100]
 900 04f4 0300A0E1 		mov	r0, r3
 901 04f8 58C09DE5 		ldr	ip, [sp, #88]
 902 04fc 24109DE5 		ldr	r1, [sp, #36]
 903 0500 930202E0 		mul	r2, r3, r2
 904 0504 003067E2 		rsb	r3, r7, #0
 905 0508 03E0A0E1 		mov	lr, r3
 906 050c 9C308DE5 		str	r3, [sp, #156]
 907 0510 0C31A0E1 		lsl	r3, ip, #2
 908 0514 8C108DE5 		str	r1, [sp, #140]
 909 0518 0010A0E3 		mov	r1, #0
 910 051c 9C0000E0 		mul	r0, ip, r0
 911 0520 B8308DE5 		str	r3, [sp, #184]
 912 0524 0221A0E1 		lsl	r2, r2, #2
 913 0528 30309DE5 		ldr	r3, [sp, #48]
 914 052c 0871A0E1 		lsl	r7, r8, #2
 915 0530 40108DE5 		str	r1, [sp, #64]
 916 0534 9B0801E0 		mul	r1, fp, r8
 917 0538 9C0202E0 		mul	r2, ip, r2
 918 053c 9B0303E0 		mul	r3, fp, r3
 919 0540 C0208DE5 		str	r2, [sp, #192]
 920 0544 0021A0E1 		lsl	r2, r0, #2
 921 0548 0331A0E1 		lsl	r3, r3, #2
 922 054c B4208DE5 		str	r2, [sp, #180]
 923 0550 0B20A0E1 		mov	r2, fp
 924 0554 980303E0 		mul	r3, r8, r3
 925 0558 06B0A0E1 		mov	fp, r6
 926 055c 0260A0E1 		mov	r6, r2
 927 0560 AC308DE5 		str	r3, [sp, #172]
 928 0564 0131A0E1 		lsl	r3, r1, #2
 929 0568 5C308DE5 		str	r3, [sp, #92]
 930 056c 990E03E0 		mul	r3, r9, lr
 931 0570 90308DE5 		str	r3, [sp, #144]
 932 0574 4C309DE5 		ldr	r3, [sp, #76]
 933 0578 990303E0 		mul	r3, r9, r3
 934 057c C4308DE5 		str	r3, [sp, #196]
 935 0580 80309DE5 		ldr	r3, [sp, #128]
 936 0584 990303E0 		mul	r3, r9, r3
 937 0588 BC308DE5 		str	r3, [sp, #188]
 938 058c 50309DE5 		ldr	r3, [sp, #80]
 939 0590 990303E0 		mul	r3, r9, r3
 940 0594 60308DE5 		str	r3, [sp, #96]
 941 0598 0730A0E1 		mov	r3, r7
 942 059c 0970A0E1 		mov	r7, r9
 943 05a0 0890A0E1 		mov	r9, r8
 944 05a4 0580A0E1 		mov	r8, r5
 945 05a8 0350A0E1 		mov	r5, r3
 946              	.L126:
 947 05ac 64309DE5 		ldr	r3, [sp, #100]
 948 05b0 000053E3 		cmp	r3, #0
 949 05b4 BD0000DA 		ble	.L128
 950 05b8 9C309DE5 		ldr	r3, [sp, #156]
 951 05bc 7C308DE5 		str	r3, [sp, #124]
 952 05c0 90309DE5 		ldr	r3, [sp, #144]
 953 05c4 78308DE5 		str	r3, [sp, #120]
 954 05c8 8C309DE5 		ldr	r3, [sp, #140]
 955 05cc 84308DE5 		str	r3, [sp, #132]
 956 05d0 0030A0E3 		mov	r3, #0
 957 05d4 A4308DE5 		str	r3, [sp, #164]
 958              	.L129:
 959 05d8 68309DE5 		ldr	r3, [sp, #104]
 960 05dc 000053E3 		cmp	r3, #0
 961 05e0 A00000DA 		ble	.L131
 962 05e4 98309DE5 		ldr	r3, [sp, #152]
 963 05e8 003063E2 		rsb	r3, r3, #0
 964 05ec 54308DE5 		str	r3, [sp, #84]
 965 05f0 84309DE5 		ldr	r3, [sp, #132]
 966 05f4 88308DE5 		str	r3, [sp, #136]
 967 05f8 0030A0E3 		mov	r3, #0
 968 05fc A0308DE5 		str	r3, [sp, #160]
 969              	.L132:
 970 0600 58309DE5 		ldr	r3, [sp, #88]
 971 0604 000053E3 		cmp	r3, #0
 972 0608 880000DA 		ble	.L155
 973 060c 94309DE5 		ldr	r3, [sp, #148]
 974 0610 6C308DE5 		str	r3, [sp, #108]
 975 0614 88309DE5 		ldr	r3, [sp, #136]
 976 0618 A8308DE5 		str	r3, [sp, #168]
 977 061c 0030A0E3 		mov	r3, #0
 978 0620 3C308DE5 		str	r3, [sp, #60]
 979              	.L156:
 980 0624 30309DE5 		ldr	r3, [sp, #48]
 981 0628 DE7ADFED 		vldr.32	s15, .L313
 982 062c 000053E3 		cmp	r3, #0
 983 0630 550000DA 		ble	.L133
 984 0634 7C309DE5 		ldr	r3, [sp, #124]
 985 0638 38308DE5 		str	r3, [sp, #56]
 986 063c 78309DE5 		ldr	r3, [sp, #120]
 987 0640 2C308DE5 		str	r3, [sp, #44]
 988 0644 6C309DE5 		ldr	r3, [sp, #108]
 989 0648 34308DE5 		str	r3, [sp, #52]
 990 064c 0030A0E3 		mov	r3, #0
 991 0650 28308DE5 		str	r3, [sp, #40]
 992              	.L147:
 993 0654 000056E3 		cmp	r6, #0
 994 0658 390000DA 		ble	.L134
 995 065c 38209DE5 		ldr	r2, [sp, #56]
 996 0660 00E0A0E3 		mov	lr, #0
 997 0664 4C109DE5 		ldr	r1, [sp, #76]
 998 0668 34409DE5 		ldr	r4, [sp, #52]
 999 066c 54C09DE5 		ldr	ip, [sp, #84]
 1000 0670 0230E0E1 		mvn	r3, r2
 1001 0674 A33FA0E1 		lsr	r3, r3, #31
 1002 0678 010052E1 		cmp	r2, r1
 1003 067c 0030A0A3 		movge	r3, #0
 1004 0680 24308DE5 		str	r3, [sp, #36]
 1005              	.L146:
 1006 0684 00005CE3 		cmp	ip, #0
 1007 0688 0C0057A1 		cmpge	r7, ip
 1008 068c 270000DA 		ble	.L135
 1009 0690 24309DE5 		ldr	r3, [sp, #36]
 1010 0694 000053E3 		cmp	r3, #0
 1011 0698 2400000A 		beq	.L135
 1012 069c 000059E3 		cmp	r9, #0
 1013 06a0 220000DA 		ble	.L135
 1014 06a4 44309DE5 		ldr	r3, [sp, #68]
 1015 06a8 40209DE5 		ldr	r2, [sp, #64]
 1016 06ac 020053E1 		cmp	r3, r2
 1017 06b0 E30000DA 		ble	.L136
 1018 06b4 000058E3 		cmp	r8, #0
 1019 06b8 E00000DA 		ble	.L138
 1020 06bc 48309DE5 		ldr	r3, [sp, #72]
 1021 06c0 3C209DE5 		ldr	r2, [sp, #60]
 1022 06c4 020053E1 		cmp	r3, r2
 1023 06c8 2C309DE5 		ldr	r3, [sp, #44]
 1024 06cc 03008CE0 		add	r0, ip, r3
 1025 06d0 040100DA 		ble	.L306
 1026 06d4 06005EE1 		cmp	lr, r6
 1027 06d8 28309DE5 		ldr	r3, [sp, #40]
 1028 06dc 30209DE5 		ldr	r2, [sp, #48]
 1029 06e0 FD0000AA 		bge	.L307
 1030 06e4 020053E1 		cmp	r3, r2
 1031 06e8 D30000AA 		bge	.L142
 1032 06ec 0410A0E1 		mov	r1, r4
 1033 06f0 0920A0E1 		mov	r2, r9
 1034 06f4 0030A0E3 		mov	r3, #0
 1035 06f8 020000EA 		b	.L139
 1036              	.L145:
 1037 06fc 080053E1 		cmp	r3, r8
 1038 0700 CE00000A 		beq	.L138
 1039 0704 0820A0E1 		mov	r2, r8
 1040              	.L139:
 1041 0708 903222E0 		mla	r2, r0, r2, r3
 1042 070c 090053E1 		cmp	r3, r9
 1043 0710 02218BE0 		add	r2, fp, r2, lsl #2
 1044 0714 006AD2ED 		vldr.32	s13, [r2]
 1045 0718 A100000A 		beq	.L308
 1046 071c 017AB1EC 		vldmia.32	r1!, {s14}
 1047 0720 013083E2 		add	r3, r3, #1
 1048 0724 090053E1 		cmp	r3, r9
 1049 0728 877A46EE 		vmla.f32	s15, s13, s14
 1050 072c F2FFFF1A 		bne	.L145
 1051              	.L135:
 1052 0730 01E08EE2 		add	lr, lr, #1
 1053 0734 0AC08CE0 		add	ip, ip, r10
 1054 0738 06005EE1 		cmp	lr, r6
 1055 073c 054084E0 		add	r4, r4, r5
 1056 0740 CFFFFF1A 		bne	.L146
 1057              	.L134:
 1058 0744 34209DE5 		ldr	r2, [sp, #52]
 1059 0748 5C109DE5 		ldr	r1, [sp, #92]
 1060 074c 28309DE5 		ldr	r3, [sp, #40]
 1061 0750 012082E0 		add	r2, r2, r1
 1062 0754 34208DE5 		str	r2, [sp, #52]
 1063 0758 013083E2 		add	r3, r3, #1
 1064 075c 30209DE5 		ldr	r2, [sp, #48]
 1065 0760 28308DE5 		str	r3, [sp, #40]
 1066 0764 020053E1 		cmp	r3, r2
 1067 0768 2C309DE5 		ldr	r3, [sp, #44]
 1068 076c 60209DE5 		ldr	r2, [sp, #96]
 1069 0770 023083E0 		add	r3, r3, r2
 1070 0774 50209DE5 		ldr	r2, [sp, #80]
 1071 0778 2C308DE5 		str	r3, [sp, #44]
 1072 077c 38309DE5 		ldr	r3, [sp, #56]
 1073 0780 023083E0 		add	r3, r3, r2
 1074 0784 38308DE5 		str	r3, [sp, #56]
 1075 0788 B1FFFF1A 		bne	.L147
 1076              	.L133:
 1077 078c 74309DE5 		ldr	r3, [sp, #116]
 1078 0790 000053E3 		cmp	r3, #0
 1079 0794 3C209D15 		ldrne	r2, [sp, #60]
 1080 0798 827A9F0D 		vldreq.32	s14, .L313
 1081 079c 02318310 		addne	r3, r3, r2, lsl #2
 1082 07a0 40209DE5 		ldr	r2, [sp, #64]
 1083 07a4 007A931D 		vldrne.32	s14, [r3]
 1084 07a8 70309DE5 		ldr	r3, [sp, #112]
 1085 07ac 020053E1 		cmp	r3, r2
 1086 07b0 D00000DA 		ble	.L309
 1087 07b4 A4309DE5 		ldr	r3, [sp, #164]
 1088 07b8 64209DE5 		ldr	r2, [sp, #100]
 1089 07bc 020053E1 		cmp	r3, r2
 1090 07c0 CB0000AA 		bge	.L310
 1091 07c4 68309DE5 		ldr	r3, [sp, #104]
 1092 07c8 A0209DE5 		ldr	r2, [sp, #160]
 1093 07cc 020053E1 		cmp	r3, r2
 1094 07d0 C60000DA 		ble	.L311
 1095 07d4 58309DE5 		ldr	r3, [sp, #88]
 1096 07d8 3C209DE5 		ldr	r2, [sp, #60]
 1097 07dc 020053E1 		cmp	r3, r2
 1098 07e0 C100000A 		beq	.L312
 1099 07e4 877A77EE 		vadd.f32	s15, s15, s14
 1100 07e8 013082E2 		add	r3, r2, #1
 1101 07ec AC109DE5 		ldr	r1, [sp, #172]
 1102 07f0 6C209DE5 		ldr	r2, [sp, #108]
 1103 07f4 3C308DE5 		str	r3, [sp, #60]
 1104 07f8 676AB4EE 		vcmp.f32	s12, s15
 1105 07fc 10FAF1EE 		vmrs	APSR_nzcv, FPSCR
 1106 0800 012082E0 		add	r2, r2, r1
 1107 0804 467AF0CE 		vmovgt.f32	s15, s12
 1108 0808 6C208DE5 		str	r2, [sp, #108]
 1109 080c 58209DE5 		ldr	r2, [sp, #88]
 1110 0810 675AF4EE 		vcmp.f32	s11, s15
 1111 0814 10FAF1EE 		vmrs	APSR_nzcv, FPSCR
 1112 0818 657AF04E 		vmovmi.f32	s15, s11
 1113 081c 020053E1 		cmp	r3, r2
 1114 0820 A8309DE5 		ldr	r3, [sp, #168]
 1115 0824 017AE3EC 		vstmia.32	r3!, {s15}
 1116 0828 A8308DE5 		str	r3, [sp, #168]
 1117 082c 7CFFFF1A 		bne	.L156
 1118              	.L155:
 1119 0830 88209DE5 		ldr	r2, [sp, #136]
 1120 0834 B8109DE5 		ldr	r1, [sp, #184]
 1121 0838 A0309DE5 		ldr	r3, [sp, #160]
 1122 083c 012082E0 		add	r2, r2, r1
 1123 0840 88208DE5 		str	r2, [sp, #136]
 1124 0844 013083E2 		add	r3, r3, #1
 1125 0848 68209DE5 		ldr	r2, [sp, #104]
 1126 084c A0308DE5 		str	r3, [sp, #160]
 1127 0850 020053E1 		cmp	r3, r2
 1128 0854 54309DE5 		ldr	r3, [sp, #84]
 1129 0858 B0209DE5 		ldr	r2, [sp, #176]
 1130 085c 023083E0 		add	r3, r3, r2
 1131 0860 54308DE5 		str	r3, [sp, #84]
 1132 0864 65FFFF1A 		bne	.L132
 1133              	.L131:
 1134 0868 84209DE5 		ldr	r2, [sp, #132]
 1135 086c B4109DE5 		ldr	r1, [sp, #180]
 1136 0870 A4309DE5 		ldr	r3, [sp, #164]
 1137 0874 012082E0 		add	r2, r2, r1
 1138 0878 84208DE5 		str	r2, [sp, #132]
 1139 087c 013083E2 		add	r3, r3, #1
 1140 0880 64209DE5 		ldr	r2, [sp, #100]
 1141 0884 A4308DE5 		str	r3, [sp, #164]
 1142 0888 020053E1 		cmp	r3, r2
 1143 088c 78309DE5 		ldr	r3, [sp, #120]
 1144 0890 BC209DE5 		ldr	r2, [sp, #188]
 1145 0894 023083E0 		add	r3, r3, r2
 1146 0898 80209DE5 		ldr	r2, [sp, #128]
 1147 089c 78308DE5 		str	r3, [sp, #120]
 1148 08a0 7C309DE5 		ldr	r3, [sp, #124]
 1149 08a4 023083E0 		add	r3, r3, r2
 1150 08a8 7C308DE5 		str	r3, [sp, #124]
 1151 08ac 49FFFF1A 		bne	.L129
 1152              	.L128:
 1153 08b0 8C209DE5 		ldr	r2, [sp, #140]
 1154 08b4 C0109DE5 		ldr	r1, [sp, #192]
 1155 08b8 40309DE5 		ldr	r3, [sp, #64]
 1156 08bc 012082E0 		add	r2, r2, r1
 1157 08c0 8C208DE5 		str	r2, [sp, #140]
 1158 08c4 013083E2 		add	r3, r3, #1
 1159 08c8 70209DE5 		ldr	r2, [sp, #112]
 1160 08cc 40308DE5 		str	r3, [sp, #64]
 1161 08d0 020053E1 		cmp	r3, r2
 1162 08d4 90309DE5 		ldr	r3, [sp, #144]
 1163 08d8 C4209DE5 		ldr	r2, [sp, #196]
 1164 08dc 023083E0 		add	r3, r3, r2
 1165 08e0 90308DE5 		str	r3, [sp, #144]
 1166 08e4 30FFFF1A 		bne	.L126
 1167              	.L125:
 1168 08e8 28319DE5 		ldr	r3, [sp, #296]
 1169 08ec 050053E3 		cmp	r3, #5
 1170 08f0 0A0000DA 		ble	.L157
 1171 08f4 2C019DE5 		ldr	r0, [sp, #300]
 1172 08f8 000050E3 		cmp	r0, #0
 1173 08fc 0700000A 		beq	.L157
 1174 0900 FEFFFFEB 		bl	_ZdaPv
 1175 0904 10319DE5 		ldr	r3, [sp, #272]
 1176 0908 050053E3 		cmp	r3, #5
 1177 090c 030000DA 		ble	.L157
 1178 0910 14019DE5 		ldr	r0, [sp, #276]
 1179 0914 000050E3 		cmp	r0, #0
 1180 0918 0000000A 		beq	.L157
 1181 091c FEFFFFEB 		bl	_ZdaPv
 1182              	.L157:
 1183 0920 F8309DE5 		ldr	r3, [sp, #248]
 1184 0924 050053E3 		cmp	r3, #5
 1185 0928 030000DA 		ble	.L158
 1186 092c FC009DE5 		ldr	r0, [sp, #252]
 1187 0930 000050E3 		cmp	r0, #0
 1188 0934 0000000A 		beq	.L158
 1189 0938 FEFFFFEB 		bl	_ZdaPv
 1190              	.L158:
 1191 093c E0309DE5 		ldr	r3, [sp, #224]
 1192 0940 050053E3 		cmp	r3, #5
 1193 0944 030000DA 		ble	.L159
 1194 0948 E4009DE5 		ldr	r0, [sp, #228]
 1195 094c 000050E3 		cmp	r0, #0
 1196 0950 0000000A 		beq	.L159
 1197 0954 FEFFFFEB 		bl	_ZdaPv
 1198              	.L159:
 1199 0958 C8309DE5 		ldr	r3, [sp, #200]
 1200 095c 050053E3 		cmp	r3, #5
 1201 0960 26FEFFDA 		ble	.L165
 1202 0964 CC009DE5 		ldr	r0, [sp, #204]
 1203 0968 000050E3 		cmp	r0, #0
 1204 096c 22FEFF1A 		bne	.L291
 1205 0970 22FEFFEA 		b	.L165
 1206              	.L197:
 1207 0974 03C0A0E1 		mov	ip, r3
 1208 0978 A1FEFFEA 		b	.L113
 1209              	.L108:
 1210 097c 000051E3 		cmp	r1, #0
 1211 0980 0120A0D3 		movle	r2, #1
 1212 0984 C9FEFFDA 		ble	.L110
 1213 0988 FC008DE2 		add	r0, sp, #252
 1214 098c 77FEFFEA 		b	.L109
 1215              	.L304:
 1216 0990 000053E3 		cmp	r3, #0
 1217 0994 0120A003 		moveq	r2, #1
 1218 0998 03C0A001 		moveq	ip, r3
 1219 099c 9AFEFF0A 		beq	.L112
 1220 09a0 79FEFFEA 		b	.L111
 1221              	.L308:
 1222              	.LEHB10:
 1223 09a4 FEFFFFEB 		bl	abort
 1224              	.LEHE10:
 1225              	.L314:
 1226              		.align	2
 1227              	.L313:
 1228 09a8 00000000 		.word	0
 1229              	.L207:
 1230 09ac 28319DE5 		ldr	r3, [sp, #296]
 1231 09b0 050053E3 		cmp	r3, #5
 1232 09b4 030000DA 		ble	.L168
 1233 09b8 2C019DE5 		ldr	r0, [sp, #300]
 1234 09bc 000050E3 		cmp	r0, #0
 1235 09c0 0000000A 		beq	.L168
 1236 09c4 FEFFFFEB 		bl	_ZdaPv
 1237              	.L168:
 1238 09c8 10319DE5 		ldr	r3, [sp, #272]
 1239 09cc 050053E3 		cmp	r3, #5
 1240 09d0 030000DA 		ble	.L170
 1241 09d4 14019DE5 		ldr	r0, [sp, #276]
 1242 09d8 000050E3 		cmp	r0, #0
 1243 09dc 0000000A 		beq	.L170
 1244 09e0 FEFFFFEB 		bl	_ZdaPv
 1245              	.L170:
 1246 09e4 F8309DE5 		ldr	r3, [sp, #248]
 1247 09e8 050053E3 		cmp	r3, #5
 1248 09ec 030000DA 		ble	.L172
 1249 09f0 FC009DE5 		ldr	r0, [sp, #252]
 1250 09f4 000050E3 		cmp	r0, #0
 1251 09f8 0000000A 		beq	.L172
 1252 09fc FEFFFFEB 		bl	_ZdaPv
 1253              	.L172:
 1254 0a00 E0309DE5 		ldr	r3, [sp, #224]
 1255 0a04 050053E3 		cmp	r3, #5
 1256 0a08 030000DA 		ble	.L174
 1257 0a0c E4009DE5 		ldr	r0, [sp, #228]
 1258 0a10 000050E3 		cmp	r0, #0
 1259 0a14 0000000A 		beq	.L174
 1260 0a18 FEFFFFEB 		bl	_ZdaPv
 1261              	.L174:
 1262 0a1c C8309DE5 		ldr	r3, [sp, #200]
 1263 0a20 050053E3 		cmp	r3, #5
 1264 0a24 030000DA 		ble	.L183
 1265 0a28 CC009DE5 		ldr	r0, [sp, #204]
 1266 0a2c 000050E3 		cmp	r0, #0
 1267 0a30 0000000A 		beq	.L183
 1268              	.L292:
 1269 0a34 FEFFFFEB 		bl	_ZdaPv
 1270              	.L183:
 1271              	.LEHB11:
 1272 0a38 FEFFFFEB 		bl	__cxa_end_cleanup
 1273              	.LEHE11:
 1274              	.L142:
 1275              	.LEHB12:
 1276 0a3c FEFFFFEB 		bl	abort
 1277              	.L138:
 1278 0a40 FEFFFFEB 		bl	abort
 1279              	.L136:
 1280 0a44 FEFFFFEB 		bl	abort
 1281              	.LEHE12:
 1282              	.L95:
 1283              	.LEHB13:
 1284 0a48 FEFFFFEB 		bl	abort
 1285              	.LEHE13:
 1286              	.L211:
 1287 0a4c 28319DE5 		ldr	r3, [sp, #296]
 1288 0a50 050053E3 		cmp	r3, #5
 1289 0a54 030000DA 		ble	.L178
 1290 0a58 2C019DE5 		ldr	r0, [sp, #300]
 1291 0a5c 000050E3 		cmp	r0, #0
 1292 0a60 0000000A 		beq	.L178
 1293 0a64 FEFFFFEB 		bl	_ZdaPv
 1294              	.L178:
 1295 0a68 10319DE5 		ldr	r3, [sp, #272]
 1296 0a6c 050053E3 		cmp	r3, #5
 1297 0a70 030000DA 		ble	.L180
 1298 0a74 14019DE5 		ldr	r0, [sp, #276]
 1299 0a78 000050E3 		cmp	r0, #0
 1300 0a7c 0000000A 		beq	.L180
 1301 0a80 FEFFFFEB 		bl	_ZdaPv
 1302              	.L180:
 1303 0a84 F8309DE5 		ldr	r3, [sp, #248]
 1304 0a88 050053E3 		cmp	r3, #5
 1305 0a8c 030000DA 		ble	.L182
 1306 0a90 FC009DE5 		ldr	r0, [sp, #252]
 1307 0a94 000050E3 		cmp	r0, #0
 1308 0a98 0000000A 		beq	.L182
 1309 0a9c FEFFFFEB 		bl	_ZdaPv
 1310              	.L182:
 1311 0aa0 E0309DE5 		ldr	r3, [sp, #224]
 1312 0aa4 050053E3 		cmp	r3, #5
 1313 0aa8 E2FFFFDA 		ble	.L183
 1314 0aac E4009DE5 		ldr	r0, [sp, #228]
 1315 0ab0 000050E3 		cmp	r0, #0
 1316 0ab4 DEFFFF1A 		bne	.L292
 1317 0ab8 DEFFFFEA 		b	.L183
 1318              	.L209:
 1319 0abc F0FFFFEA 		b	.L180
 1320              	.L208:
 1321 0ac0 F6FFFFEA 		b	.L182
 1322              	.L204:
 1323 0ac4 CDFFFFEA 		b	.L172
 1324              	.L203:
 1325 0ac8 D3FFFFEA 		b	.L174
 1326              	.L210:
 1327 0acc E5FFFFEA 		b	.L178
 1328              	.L296:
 1329              	.LEHB14:
 1330 0ad0 FEFFFFEB 		bl	abort
 1331              	.LEHE14:
 1332              	.L303:
 1333              	.LEHB15:
 1334 0ad4 FEFFFFEB 		bl	abort
 1335              	.L305:
 1336 0ad8 FEFFFFEB 		bl	abort
 1337              	.L307:
 1338 0adc 020053E1 		cmp	r3, r2
 1339 0ae0 D5FFFFAA 		bge	.L142
 1340 0ae4 FEFFFFEB 		bl	abort
 1341              	.L306:
 1342 0ae8 FEFFFFEB 		bl	abort
 1343              	.L312:
 1344 0aec FEFFFFEB 		bl	abort
 1345              	.L311:
 1346 0af0 FEFFFFEB 		bl	abort
 1347              	.L310:
 1348 0af4 FEFFFFEB 		bl	abort
 1349              	.L309:
 1350 0af8 FEFFFFEB 		bl	abort
 1351              	.L302:
 1352 0afc FEFFFFEB 		bl	abort
 1353              	.L301:
 1354 0b00 FEFFFFEB 		bl	abort
 1355              	.L300:
 1356 0b04 FEFFFFEB 		bl	abort
 1357              	.L299:
 1358 0b08 FEFFFFEB 		bl	abort
 1359              	.L298:
 1360 0b0c FEFFFFEB 		bl	abort
 1361              	.LEHE15:
 1362              	.L206:
 1363 0b10 ACFFFFEA 		b	.L168
 1364              	.L205:
 1365 0b14 B2FFFFEA 		b	.L170
 1366              	.L297:
 1367              	.LEHB16:
 1368 0b18 FEFFFFEB 		bl	abort
 1369              	.LEHE16:
 1370              		.global	__gxx_personality_v0
 1371              		.personality	__gxx_personality_v0
 1372              		.handlerdata
 1373              	.LLSDA4178:
 1374 0008 FF       		.byte	0xff
 1375 0009 FF       		.byte	0xff
 1376 000a 01       		.byte	0x1
 1377 000b 62       		.uleb128 .LLSDACSE4178-.LLSDACSB4178
 1378              	.LLSDACSB4178:
 1379 000c 38       		.uleb128 .LEHB0-.LFB4178
 1380 000d E001     		.uleb128 .LEHE0-.LEHB0
 1381 000f 00       		.uleb128 0
 1382 0010 00       		.uleb128 0
 1383 0011 A802     		.uleb128 .LEHB1-.LFB4178
 1384 0013 04       		.uleb128 .LEHE1-.LEHB1
 1385 0014 C015     		.uleb128 .L208-.LFB4178
 1386 0016 00       		.uleb128 0
 1387 0017 BC02     		.uleb128 .LEHB2-.LFB4178
 1388 0019 04       		.uleb128 .LEHE2-.LEHB2
 1389 001a BC15     		.uleb128 .L209-.LFB4178
 1390 001c 00       		.uleb128 0
 1391 001d D802     		.uleb128 .LEHB3-.LFB4178
 1392 001f 04       		.uleb128 .LEHE3-.LEHB3
 1393 0020 CC15     		.uleb128 .L210-.LFB4178
 1394 0022 00       		.uleb128 0
 1395 0023 8C03     		.uleb128 .LEHB4-.LFB4178
 1396 0025 04       		.uleb128 .LEHE4-.LEHB4
 1397 0026 CC14     		.uleb128 .L211-.LFB4178
 1398 0028 00       		.uleb128 0
 1399 0029 A404     		.uleb128 .LEHB5-.LFB4178
 1400 002b 24       		.uleb128 .LEHE5-.LEHB5
 1401 002c 00       		.uleb128 0
 1402 002d 00       		.uleb128 0
 1403 002e D404     		.uleb128 .LEHB6-.LFB4178
 1404 0030 04       		.uleb128 .LEHE6-.LEHB6
 1405 0031 C815     		.uleb128 .L203-.LFB4178
 1406 0033 00       		.uleb128 0
 1407 0034 E804     		.uleb128 .LEHB7-.LFB4178
 1408 0036 04       		.uleb128 .LEHE7-.LEHB7
 1409 0037 C415     		.uleb128 .L204-.LFB4178
 1410 0039 00       		.uleb128 0
 1411 003a 8405     		.uleb128 .LEHB8-.LFB4178
 1412 003c 04       		.uleb128 .LEHE8-.LEHB8
 1413 003d 9416     		.uleb128 .L205-.LFB4178
 1414 003f 00       		.uleb128 0
 1415 0040 9805     		.uleb128 .LEHB9-.LFB4178
 1416 0042 04       		.uleb128 .LEHE9-.LEHB9
 1417 0043 9016     		.uleb128 .L206-.LFB4178
 1418 0045 00       		.uleb128 0
 1419 0046 A413     		.uleb128 .LEHB10-.LFB4178
 1420 0048 04       		.uleb128 .LEHE10-.LEHB10
 1421 0049 AC13     		.uleb128 .L207-.LFB4178
 1422 004b 00       		.uleb128 0
 1423 004c B814     		.uleb128 .LEHB11-.LFB4178
 1424 004e 04       		.uleb128 .LEHE11-.LEHB11
 1425 004f 00       		.uleb128 0
 1426 0050 00       		.uleb128 0
 1427 0051 BC14     		.uleb128 .LEHB12-.LFB4178
 1428 0053 0C       		.uleb128 .LEHE12-.LEHB12
 1429 0054 AC13     		.uleb128 .L207-.LFB4178
 1430 0056 00       		.uleb128 0
 1431 0057 C814     		.uleb128 .LEHB13-.LFB4178
 1432 0059 04       		.uleb128 .LEHE13-.LEHB13
 1433 005a 00       		.uleb128 0
 1434 005b 00       		.uleb128 0
 1435 005c D015     		.uleb128 .LEHB14-.LFB4178
 1436 005e 04       		.uleb128 .LEHE14-.LEHB14
 1437 005f CC15     		.uleb128 .L210-.LFB4178
 1438 0061 00       		.uleb128 0
 1439 0062 D415     		.uleb128 .LEHB15-.LFB4178
 1440 0064 3C       		.uleb128 .LEHE15-.LEHB15
 1441 0065 AC13     		.uleb128 .L207-.LFB4178
 1442 0067 00       		.uleb128 0
 1443 0068 9816     		.uleb128 .LEHB16-.LFB4178
 1444 006a 04       		.uleb128 .LEHE16-.LEHB16
 1445 006b 9416     		.uleb128 .L205-.LFB4178
 1446 006d 00       		.uleb128 0
 1447              	.LLSDACSE4178:
 1448              		.section	.text._ZN6tflite12_GLOBAL__N_14EvalEP13TfLiteContextP10TfLiteNode
 1449              		.fnend
 1451              		.section	.text._ZN6tflite16Register_CONV_2DEv,"ax",%progbits
 1452              		.align	2
 1453              		.global	_ZN6tflite16Register_CONV_2DEv
 1454              		.syntax unified
 1455              		.arm
 1456              		.fpu neon
 1458              	_ZN6tflite16Register_CONV_2DEv:
 1459              		.fnstart
 1460              	.LFB4179:
 1461              		@ args = 0, pretend = 0, frame = 0
 1462              		@ frame_needed = 0, uses_anonymous_args = 0
 1463 0000 00C000E3 		movw	ip, #:lower16:.LANCHOR1
 1464 0004 10402DE9 		push	{r4, lr}
 1465 0008 00C040E3 		movt	ip, #:upper16:.LANCHOR1
 1466 000c 0040A0E1 		mov	r4, r0
 1467 0010 00E0A0E1 		mov	lr, r0
 1468 0014 0F00BCE8 		ldmia	ip!, {r0, r1, r2, r3}
 1469 0018 0F00AEE8 		stmia	lr!, {r0, r1, r2, r3}
 1470 001c 0F009CE8 		ldm	ip, {r0, r1, r2, r3}
 1471 0020 0F008EE8 		stm	lr, {r0, r1, r2, r3}
 1472 0024 0400A0E1 		mov	r0, r4
 1473 0028 1080BDE8 		pop	{r4, pc}
 1474              		.cantunwind
 1475              		.fnend
 1477              		.section	.rodata
 1478              		.align	2
 1479              		.set	.LANCHOR1,. + 0
 1480              	.LC0:
 1481 0000 00000000 		.word	_ZN6tflite12_GLOBAL__N_14InitEP13TfLiteContextPKcj
 1482 0004 00000000 		.word	0
 1483 0008 00000000 		.word	_ZN6tflite11ConvPrepareEP13TfLiteContextP10TfLiteNode
 1484 000c 00000000 		.word	_ZN6tflite12_GLOBAL__N_14EvalEP13TfLiteContextP10TfLiteNode
 1485 0010 00000000 		.word	0
 1486 0014 00000000 		.word	0
 1487 0018 00000000 		.word	0
 1488 001c 00000000 		.word	0
 1489              		.section	.rodata._ZN6tflite21reference_integer_ops14ConvPerChannelERKNS_10ConvParamsEPKlS5_RKNS_12
 1490              		.align	2
 1491              	.LC1:
 1492 0000 6578706F 		.ascii	"exponent <= 31\000"
 1492      6E656E74 
 1492      203C3D20 
 1492      333100
 1493 000f 00       		.space	1
 1494              	.LC2:
 1495 0010 433A2F52 		.ascii	"C:/Renesas/e2studio_2021_01_workspace_RZA2M_ANPR/AN"
 1495      656E6573 
 1495      61732F65 
 1495      32737475 
 1495      64696F5F 
 1496 0043 50525F52 		.ascii	"PR_RZA2M_EBK/src/tensorflow_lite/third_party/gemmlo"
 1496      5A41324D 
 1496      5F45424B 
 1496      2F737263 
 1496      2F74656E 
 1497 0076 77702F66 		.ascii	"wp/fixedpoint/fixedpoint.h\000"
 1497      69786564 
 1497      706F696E 
 1497      742F6669 
 1497      78656470 
 1498              		.section	.rodata._ZZN8gemmlowp19RoundingDivideByPOTIlEET_S1_iE19__PRETTY_FUNCTION__,"a",%progbits
 1499              		.align	3
 1500              		.set	.LANCHOR0,. + 0
 1503              	_ZZN8gemmlowp19RoundingDivideByPOTIlEET_S1_iE19__PRETTY_FUNCTION__:
 1504 0000 496E7465 		.ascii	"IntegerType gemmlowp::RoundingDivideByPOT(IntegerTy"
 1504      67657254 
 1504      79706520 
 1504      67656D6D 
 1504      6C6F7770 
 1505 0033 70652C20 		.ascii	"pe, int) [with IntegerType = long int]\000"
 1505      696E7429 
 1505      205B7769 
 1505      74682049 
 1505      6E746567 
 1506              		.ident	"GCC: (GNU Tools for ARM Embedded Processors 6-2017-q2-update) 6.3.1 20170620 (release) [AR