   1              		.cpu cortex-a9
   2              		.eabi_attribute 28, 1
   3              		.eabi_attribute 20, 1
   4              		.eabi_attribute 21, 1
   5              		.eabi_attribute 23, 3
   6              		.eabi_attribute 24, 1
   7              		.eabi_attribute 25, 1
   8              		.eabi_attribute 26, 1
   9              		.eabi_attribute 30, 2
  10              		.eabi_attribute 34, 0
  11              		.eabi_attribute 18, 4
  12              		.file	"cumsum.cc"
  13              		.section	.text._ZN6tflite12_GLOBAL__N_17PrepareEP13TfLiteContextP10TfLiteNode,"ax",%progbits
  14              		.align	2
  15              		.syntax unified
  16              		.arm
  17              		.fpu neon
  19              	_ZN6tflite12_GLOBAL__N_17PrepareEP13TfLiteContextP10TfLiteNode:
  20              		.fnstart
  21              	.LFB4167:
  22              		@ args = 0, pretend = 0, frame = 24
  23              		@ frame_needed = 0, uses_anonymous_args = 0
  24 0000 002091E5 		ldr	r2, [r1]
  25 0004 002092E5 		ldr	r2, [r2]
  26 0008 020052E3 		cmp	r2, #2
  27 000c 0100000A 		beq	.L22
  28 0010 0100A0E3 		mov	r0, #1
  29 0014 1EFF2FE1 		bx	lr
  30              	.L22:
  31 0018 042091E5 		ldr	r2, [r1, #4]
  32 001c F04F2DE9 		push	{r4, r5, r6, r7, r8, r9, r10, fp, lr}
  33              		.save {r4, r5, r6, r7, r8, r9, r10, fp, lr}
  34 0020 028B2DED 		vpush.64	{d8}
  35              		.vsave {d8}
  36              		.pad #36
  37 0024 24D04DE2 		sub	sp, sp, #36
  38 0028 004092E5 		ldr	r4, [r2]
  39 002c 010054E3 		cmp	r4, #1
  40 0030 0300000A 		beq	.L23
  41              	.L4:
  42 0034 0100A0E3 		mov	r0, #1
  43              	.L3:
  44 0038 24D08DE2 		add	sp, sp, #36
  45              		@ sp needed
  46 003c 028BBDEC 		vldm	sp!, {d8}
  47 0040 F08FBDE8 		pop	{r4, r5, r6, r7, r8, r9, r10, fp, pc}
  48              	.L23:
  49 0044 0070A0E1 		mov	r7, r0
  50 0048 0160A0E1 		mov	r6, r1
  51 004c 0020A0E3 		mov	r2, #0
  52 0050 10108DE5 		str	r1, [sp, #16]
  53 0054 14008DE5 		str	r0, [sp, #20]
  54 0058 FEFFFFEB 		bl	_ZN6tflite8GetInputEPK13TfLiteContextPK10TfLiteNodei
  55 005c 0420A0E1 		mov	r2, r4
  56 0060 0050A0E1 		mov	r5, r0
  57 0064 0C008DE5 		str	r0, [sp, #12]
  58 0068 0610A0E1 		mov	r1, r6
  59 006c 0700A0E1 		mov	r0, r7
  60 0070 FEFFFFEB 		bl	_ZN6tflite8GetInputEPK13TfLiteContextPK10TfLiteNodei
  61 0074 0030D5E5 		ldrb	r3, [r5]	@ zero_extendqisi2
  62 0078 F73003E2 		and	r3, r3, #247
  63 007c 010053E3 		cmp	r3, #1
  64 0080 EBFFFF1A 		bne	.L4
  65 0084 0030D0E5 		ldrb	r3, [r0]	@ zero_extendqisi2
  66 0088 020053E3 		cmp	r3, #2
  67 008c E8FFFF1A 		bne	.L4
  68 0090 083090E5 		ldr	r3, [r0, #8]
  69 0094 0320A0E1 		mov	r2, r3
  70 0098 18308DE5 		str	r3, [sp, #24]
  71 009c 003093E5 		ldr	r3, [r3]
  72 00a0 000053E3 		cmp	r3, #0
  73 00a4 1C308DE5 		str	r3, [sp, #28]
  74 00a8 4E0000DA 		ble	.L5
  75 00ac 080053E3 		cmp	r3, #8
  76 00b0 8B0000DA 		ble	.L9
  77 00b4 093043E2 		sub	r3, r3, #9
  78 00b8 A4E082E2 		add	lr, r2, #164
  79 00bc 0730C3E3 		bic	r3, r3, #7
  80 00c0 0100A0E3 		mov	r0, #1
  81 00c4 083083E2 		add	r3, r3, #8
  82 00c8 0010A0E3 		mov	r1, #0
  83 00cc 0080A0E3 		mov	r8, #0
  84 00d0 0390A0E1 		mov	r9, r3
  85              	.L7:
  86 00d4 A0201EE5 		ldr	r2, [lr, #-160]
  87 00d8 088088E2 		add	r8, r8, #8
  88 00dc 9C501EE5 		ldr	r5, [lr, #-156]
  89 00e0 090058E1 		cmp	r8, r9
  90 00e4 98601EE5 		ldr	r6, [lr, #-152]
  91 00e8 94401EE5 		ldr	r4, [lr, #-148]
  92 00ec 920101E0 		mul	r1, r2, r1
  93 00f0 C2BFA0E1 		asr	fp, r2, #31
  94 00f4 90C01EE5 		ldr	ip, [lr, #-144]
  95 00f8 922083E0 		umull	r2, r3, r2, r0
  96 00fc 00F0DEF5 		pld	[lr]
  97 0100 20E08EE2 		add	lr, lr, #32
  98 0104 901B21E0 		mla	r1, r0, fp, r1
  99 0108 C5BFA0E1 		asr	fp, r5, #31
 100 010c 033081E0 		add	r3, r1, r3
 101 0110 950281E0 		umull	r0, r1, r5, r2
 102 0114 950307E0 		mul	r7, r5, r3
 103 0118 C63FA0E1 		asr	r3, r6, #31
 104 011c 927B27E0 		mla	r7, r2, fp, r7
 105 0120 AC201EE5 		ldr	r2, [lr, #-172]
 106 0124 C4BFA0E1 		asr	fp, r4, #31
 107 0128 011087E0 		add	r1, r7, r1
 108 012c 960105E0 		mul	r5, r6, r1
 109 0130 CC1FA0E1 		asr	r1, ip, #31
 110 0134 966087E0 		umull	r6, r7, r6, r0
 111 0138 905325E0 		mla	r5, r0, r3, r5
 112 013c A8301EE5 		ldr	r3, [lr, #-168]
 113 0140 A4001EE5 		ldr	r0, [lr, #-164]
 114 0144 077085E0 		add	r7, r5, r7
 115 0148 940705E0 		mul	r5, r4, r7
 116 014c 965B25E0 		mla	r5, r6, fp, r5
 117 0150 946687E0 		umull	r6, r7, r4, r6
 118 0154 C3BFA0E1 		asr	fp, r3, #31
 119 0158 077085E0 		add	r7, r5, r7
 120 015c 9C0704E0 		mul	r4, ip, r7
 121 0160 C27FA0E1 		asr	r7, r2, #31
 122 0164 964121E0 		mla	r1, r6, r1, r4
 123 0168 9C4685E0 		umull	r4, r5, ip, r6
 124 016c 055081E0 		add	r5, r1, r5
 125 0170 920501E0 		mul	r1, r2, r5
 126 0174 941721E0 		mla	r1, r4, r7, r1
 127 0178 924485E0 		umull	r4, r5, r2, r4
 128 017c C07FA0E1 		asr	r7, r0, #31
 129 0180 055081E0 		add	r5, r1, r5
 130 0184 930502E0 		mul	r2, r3, r5
 131 0188 942B22E0 		mla	r2, r4, fp, r2
 132 018c 934485E0 		umull	r4, r5, r3, r4
 133 0190 055082E0 		add	r5, r2, r5
 134 0194 900503E0 		mul	r3, r0, r5
 135 0198 900481E0 		umull	r0, r1, r0, r4
 136 019c 943724E0 		mla	r4, r4, r7, r3
 137 01a0 011084E0 		add	r1, r4, r1
 138 01a4 CAFFFF1A 		bne	.L7
 139 01a8 18309DE5 		ldr	r3, [sp, #24]
 140              	.L6:
 141 01ac 018088E2 		add	r8, r8, #1
 142 01b0 1CC09DE5 		ldr	ip, [sp, #28]
 143 01b4 08E183E0 		add	lr, r3, r8, lsl #2
 144              	.L8:
 145 01b8 04209EE4 		ldr	r2, [lr], #4
 146 01bc 0C0058E1 		cmp	r8, ip
 147 01c0 018088E2 		add	r8, r8, #1
 148 01c4 C25FA0E1 		asr	r5, r2, #31
 149 01c8 900503E0 		mul	r3, r0, r5
 150 01cc 923123E0 		mla	r3, r2, r1, r3
 151 01d0 900281E0 		umull	r0, r1, r0, r2
 152 01d4 011083E0 		add	r1, r3, r1
 153 01d8 F6FFFFBA 		blt	.L8
 154 01dc 000051E3 		cmp	r1, #0
 155 01e0 01005003 		cmpeq	r0, #1
 156 01e4 92FFFF1A 		bne	.L4
 157              	.L5:
 158 01e8 0C509DE5 		ldr	r5, [sp, #12]
 159 01ec 083095E5 		ldr	r3, [r5, #8]
 160 01f0 003093E5 		ldr	r3, [r3]
 161 01f4 000053E3 		cmp	r3, #0
 162 01f8 8DFFFFDA 		ble	.L4
 163 01fc 0020A0E3 		mov	r2, #0
 164 0200 10109DE5 		ldr	r1, [sp, #16]
 165 0204 14009DE5 		ldr	r0, [sp, #20]
 166 0208 FEFFFFEB 		bl	_ZN6tflite9GetOutputEP13TfLiteContextPK10TfLiteNodei
 167 020c 0020D5E5 		ldrb	r2, [r5]	@ zero_extendqisi2
 168 0210 0040A0E1 		mov	r4, r0
 169 0214 0030D0E5 		ldrb	r3, [r0]	@ zero_extendqisi2
 170 0218 030052E1 		cmp	r2, r3
 171 021c 84FFFF1A 		bne	.L4
 172 0220 0010A0E1 		mov	r1, r0
 173 0224 0C009DE5 		ldr	r0, [sp, #12]
 174 0228 FEFFFFEB 		bl	_ZN6tflite14HaveSameShapesEPK12TfLiteTensorS2_
 175 022c 000050E3 		cmp	r0, #0
 176 0230 7FFFFF0A 		beq	.L4
 177 0234 0030D4E5 		ldrb	r3, [r4]	@ zero_extendqisi2
 178 0238 090053E3 		cmp	r3, #9
 179 023c 0000A013 		movne	r0, #0
 180 0240 7CFFFF1A 		bne	.L3
 181 0244 14609DE5 		ldr	r6, [sp, #20]
 182 0248 2410A0E3 		mov	r1, #36
 183 024c 383096E5 		ldr	r3, [r6, #56]
 184 0250 0600A0E1 		mov	r0, r6
 185 0254 33FF2FE1 		blx	r3
 186 0258 0C309DE5 		ldr	r3, [sp, #12]
 187 025c 0050A0E1 		mov	r5, r0
 188 0260 037AD4ED 		vldr.32	s15, [r4, #12]
 189 0264 1420A0E3 		mov	r2, #20
 190 0268 222BDFED 		vldr.64	d18, .L24
 191 026c 181080E2 		add	r1, r0, #24
 192 0270 030A93ED 		vldr.32	s0, [r3, #12]
 193 0274 100080E2 		add	r0, r0, #16
 194 0278 103093E5 		ldr	r3, [r3, #16]
 195 027c E70AF7EE 		vcvt.f64.f32	d16, s15
 196 0280 10C09DE5 		ldr	ip, [sp, #16]
 197 0284 C00AB7EE 		vcvt.f64.f32	d0, s0
 198 0288 003063E2 		rsb	r3, r3, #0
 199 028c A20B60EE 		vmul.f64	d16, d16, d18
 200 0290 10508CE5 		str	r5, [ip, #16]
 201 0294 001B70EE 		vadd.f64	d17, d0, d0
 202 0298 083085E5 		str	r3, [r5, #8]
 203 029c 103094E5 		ldr	r3, [r4, #16]
 204 02a0 202085E5 		str	r2, [r5, #32]
 205 02a4 210B80EE 		vdiv.f64	d0, d0, d17
 206 02a8 A08B81EE 		vdiv.f64	d8, d17, d16
 207 02ac 0C3085E5 		str	r3, [r5, #12]
 208 02b0 FEFFFFEB 		bl	_ZN6tflite35QuantizeMultiplierSmallerThanOneExpEdPlPi
 209 02b4 1C1085E2 		add	r1, r5, #28
 210 02b8 140085E2 		add	r0, r5, #20
 211 02bc 480BB0EE 		vmov.f64	d0, d8
 212 02c0 FEFFFFEB 		bl	_ZN6tflite35QuantizeMultiplierSmallerThanOneExpEdPlPi
 213 02c4 043085E2 		add	r3, r5, #4
 214 02c8 0420A0E1 		mov	r2, r4
 215 02cc 00308DE5 		str	r3, [sp]
 216 02d0 0600A0E1 		mov	r0, r6
 217 02d4 0530A0E1 		mov	r3, r5
 218 02d8 0010A0E3 		mov	r1, #0
 219 02dc FEFFFFEB 		bl	_ZN6tflite33CalculateActivationRangeQuantizedEP13TfLiteContext21TfLiteFusedActivationP12TfLiteT
 220 02e0 54FFFFEA 		b	.L3
 221              	.L9:
 222 02e4 0100A0E3 		mov	r0, #1
 223 02e8 0010A0E3 		mov	r1, #0
 224 02ec 0080A0E3 		mov	r8, #0
 225 02f0 0230A0E1 		mov	r3, r2
 226 02f4 ACFFFFEA 		b	.L6
 227              	.L25:
 228              		.align	3
 229              	.L24:
 230 02f8 00000000 		.word	0
 231 02fc 00003041 		.word	1093664768
 232              		.fnend
 234              		.section	.text._ZN6tflite12_GLOBAL__N_14EvalEP13TfLiteContextP10TfLiteNode,"ax",%progbits
 235              		.align	2
 236              		.syntax unified
 237              		.arm
 238              		.fpu neon
 240              	_ZN6tflite12_GLOBAL__N_14EvalEP13TfLiteContextP10TfLiteNode:
 241              		.fnstart
 242              	.LFB4168:
 243              		@ args = 0, pretend = 0, frame = 128
 244              		@ frame_needed = 0, uses_anonymous_args = 0
 245 0000 F04F2DE9 		push	{r4, r5, r6, r7, r8, r9, r10, fp, lr}
 246              		.save {r4, r5, r6, r7, r8, r9, r10, fp, lr}
 247 0004 004050E2 		subs	r4, r0, #0
 248              		.pad #132
 249 0008 84D04DE2 		sub	sp, sp, #132
 250 000c A202000A 		beq	.L28
 251 0010 000051E3 		cmp	r1, #0
 252 0014 0160A0E1 		mov	r6, r1
 253 0018 9F02000A 		beq	.L28
 254 001c 002091E5 		ldr	r2, [r1]
 255 0020 543094E5 		ldr	r3, [r4, #84]
 256 0024 041092E5 		ldr	r1, [r2, #4]
 257              	.LEHB0:
 258 0028 33FF2FE1 		blx	r3
 259 002c 002096E5 		ldr	r2, [r6]
 260 0030 0070A0E1 		mov	r7, r0
 261 0034 543094E5 		ldr	r3, [r4, #84]
 262 0038 0400A0E1 		mov	r0, r4
 263 003c 081092E5 		ldr	r1, [r2, #8]
 264 0040 33FF2FE1 		blx	r3
 265 0044 042096E5 		ldr	r2, [r6, #4]
 266 0048 0080A0E1 		mov	r8, r0
 267 004c 543094E5 		ldr	r3, [r4, #84]
 268 0050 0400A0E1 		mov	r0, r4
 269 0054 041092E5 		ldr	r1, [r2, #4]
 270 0058 33FF2FE1 		blx	r3
 271 005c 0710A0E1 		mov	r1, r7
 272 0060 0050A0E1 		mov	r5, r0
 273 0064 68008DE2 		add	r0, sp, #104
 274 0068 144096E5 		ldr	r4, [r6, #20]
 275 006c FEFFFFEB 		bl	_ZN6tflite5micro14GetTensorShapeEPK16TfLiteEvalTensor
 276              	.LEHE0:
 277 0070 000058E3 		cmp	r8, #0
 278 0074 8902000A 		beq	.L205
 279 0078 003098E5 		ldr	r3, [r8]
 280 007c 00C093E5 		ldr	ip, [r3]
 281 0080 68309DE5 		ldr	r3, [sp, #104]
 282 0084 00005CE3 		cmp	ip, #0
 283 0088 20308DE5 		str	r3, [sp, #32]
 284 008c 350100BA 		blt	.L206
 285              	.L31:
 286 0090 0C0053E1 		cmp	r3, ip
 287 0094 0A0000CA 		bgt	.L207
 288              	.L133:
 289 0098 01A0A0E3 		mov	r10, #1
 290              	.L32:
 291 009c 050053E3 		cmp	r3, #5
 292 00a0 040000DA 		ble	.L151
 293 00a4 6C209DE5 		ldr	r2, [sp, #108]
 294              	.L57:
 295 00a8 000052E3 		cmp	r2, #0
 296 00ac 0100000A 		beq	.L151
 297 00b0 0200A0E1 		mov	r0, r2
 298 00b4 FEFFFFEB 		bl	_ZdaPv
 299              	.L151:
 300 00b8 0A00A0E1 		mov	r0, r10
 301 00bc 84D08DE2 		add	sp, sp, #132
 302              		@ sp needed
 303 00c0 F08FBDE8 		pop	{r4, r5, r6, r7, r8, r9, r10, fp, pc}
 304              	.L207:
 305 00c4 0830D7E5 		ldrb	r3, [r7, #8]	@ zero_extendqisi2
 306 00c8 010053E3 		cmp	r3, #1
 307 00cc 2E01000A 		beq	.L34
 308 00d0 090053E3 		cmp	r3, #9
 309 00d4 2601001A 		bne	.L208
 310 00d8 002097E5 		ldr	r2, [r7]
 311 00dc 000055E3 		cmp	r5, #0
 312 00e0 103096E5 		ldr	r3, [r6, #16]
 313 00e4 1C508D05 		streq	r5, [sp, #28]
 314 00e8 2C208DE5 		str	r2, [sp, #44]
 315 00ec 0020D4E5 		ldrb	r2, [r4]	@ zero_extendqisi2
 316 00f0 008093E5 		ldr	r8, [r3]
 317 00f4 046093E5 		ldr	r6, [r3, #4]
 318 00f8 28208DE5 		str	r2, [sp, #40]
 319 00fc 202093E5 		ldr	r2, [r3, #32]
 320 0100 10A093E5 		ldr	r10, [r3, #16]
 321 0104 147093E5 		ldr	r7, [r3, #20]
 322 0108 18208DE5 		str	r2, [sp, #24]
 323 010c 082093E5 		ldr	r2, [r3, #8]
 324 0110 1C9093E5 		ldr	r9, [r3, #28]
 325 0114 14208DE5 		str	r2, [sp, #20]
 326 0118 182093E5 		ldr	r2, [r3, #24]
 327 011c 4C208DE5 		str	r2, [sp, #76]
 328 0120 0C2093E5 		ldr	r2, [r3, #12]
 329 0124 0130D4E5 		ldrb	r3, [r4, #1]	@ zero_extendqisi2
 330 0128 24208DE5 		str	r2, [sp, #36]
 331 012c 00308DE5 		str	r3, [sp]
 332 0130 00309515 		ldrne	r3, [r5]
 333 0134 1C308D15 		strne	r3, [sp, #28]
 334 0138 060058E1 		cmp	r8, r6
 335 013c 550200CA 		bgt	.L209
 336 0140 14309DE5 		ldr	r3, [sp, #20]
 337 0144 800053E3 		cmp	r3, #128
 338 0148 510200CA 		bgt	.L210
 339 014c 7F0073E3 		cmn	r3, #127
 340 0150 5F0200BA 		blt	.L211
 341 0154 20309DE5 		ldr	r3, [sp, #32]
 342 0158 6C209DE5 		ldr	r2, [sp, #108]
 343 015c 050053E3 		cmp	r3, #5
 344 0160 E40100CA 		bgt	.L76
 345 0164 00005CE3 		cmp	ip, #0
 346 0168 0210A011 		movne	r1, r2
 347 016c 0110A003 		moveq	r1, #1
 348 0170 0250A001 		moveq	r5, r2
 349 0174 0150A013 		movne	r5, #1
 350 0178 010053E3 		cmp	r3, #1
 351 017c 50108DE5 		str	r1, [sp, #80]
 352 0180 5102000A 		beq	.L141
 353 0184 01005CE3 		cmp	ip, #1
 354 0188 F10100CA 		bgt	.L212
 355 018c 00005CE3 		cmp	ip, #0
 356 0190 70509D15 		ldrne	r5, [sp, #112]
 357 0194 0130A013 		movne	r3, #1
 358 0198 70309D05 		ldreq	r3, [sp, #112]
 359 019c 10308DE5 		str	r3, [sp, #16]
 360              	.L81:
 361 01a0 20309DE5 		ldr	r3, [sp, #32]
 362 01a4 020053E3 		cmp	r3, #2
 363 01a8 1A00000A 		beq	.L96
 364 01ac 02005CE3 		cmp	ip, #2
 365 01b0 290200CA 		bgt	.L213
 366 01b4 74309D15 		ldrne	r3, [sp, #116]
 367 01b8 10209D15 		ldrne	r2, [sp, #16]
 368 01bc 74509D05 		ldreq	r5, [sp, #116]
 369 01c0 93020310 		mulne	r3, r3, r2
 370 01c4 10308D15 		strne	r3, [sp, #16]
 371 01c8 20309D15 		ldrne	r3, [sp, #32]
 372              	.L85:
 373 01cc 030053E3 		cmp	r3, #3
 374 01d0 1000000A 		beq	.L96
 375 01d4 03005CE3 		cmp	ip, #3
 376 01d8 190200CA 		bgt	.L214
 377 01dc 78309D15 		ldrne	r3, [sp, #120]
 378 01e0 10209D15 		ldrne	r2, [sp, #16]
 379 01e4 78509D05 		ldreq	r5, [sp, #120]
 380 01e8 93020310 		mulne	r3, r3, r2
 381 01ec 10308D15 		strne	r3, [sp, #16]
 382 01f0 20309D15 		ldrne	r3, [sp, #32]
 383              	.L88:
 384 01f4 040053E3 		cmp	r3, #4
 385 01f8 0600000A 		beq	.L96
 386 01fc 04005CE3 		cmp	ip, #4
 387 0200 0A0200CA 		bgt	.L215
 388 0204 7C309D15 		ldrne	r3, [sp, #124]
 389 0208 10209D15 		ldrne	r2, [sp, #16]
 390 020c 7C509D05 		ldreq	r5, [sp, #124]
 391 0210 93020310 		mulne	r3, r3, r2
 392 0214 10308D15 		strne	r3, [sp, #16]
 393              	.L96:
 394 0218 10309DE5 		ldr	r3, [sp, #16]
 395 021c 000053E3 		cmp	r3, #0
 396 0220 4601000A 		beq	.L139
 397              	.L79:
 398 0224 18209DE5 		ldr	r2, [sp, #24]
 399 0228 00C069E2 		rsb	ip, r9, #0
 400 022c 14309DE5 		ldr	r3, [sp, #20]
 401 0230 D27B9FED 		vldr.64	d7, .L227	@ int
 402 0234 38C08DE5 		str	ip, [sp, #56]
 403 0238 1332A0E1 		lsl	r3, r3, r2
 404 023c 4C209DE5 		ldr	r2, [sp, #76]
 405 0240 020153E3 		cmp	r3, #-2147483648
 406 0244 03005A01 		cmpeq	r10, r3
 407 0248 9A03C1E0 		smull	r0, r1, r10, r3
 408 024c 002062E2 		rsb	r2, r2, #0
 409 0250 0130A003 		moveq	r3, #1
 410 0254 0030A013 		movne	r3, #0
 411 0258 08208DE5 		str	r2, [sp, #8]
 412 025c 902B00EE 		vmov.32	d16[0], r2
 413 0260 54308DE5 		str	r3, [sp, #84]
 414 0264 876430F3 		vshl.u64	d6, d7, d16
 415 0268 000050E3 		cmp	r0, #0
 416 026c 90CB00EE 		vmov.32	d16[0], ip
 417 0270 877430F3 		vshl.u64	d7, d7, d16
 418 0274 103A16EE 		vmov	r3, s12	@ int
 419 0278 013043E2 		sub	r3, r3, #1
 420 027c 44308DE5 		str	r3, [sp, #68]
 421 0280 C330A0E1 		asr	r3, r3, #1
 422 0284 102A17EE 		vmov	r2, s14	@ int
 423 0288 012042E2 		sub	r2, r2, #1
 424 028c 04308DE5 		str	r3, [sp, #4]
 425 0290 C230A0E1 		asr	r3, r2, #1
 426 0294 30208DE5 		str	r2, [sp, #48]
 427 0298 34308DE5 		str	r3, [sp, #52]
 428 029c 0030D1E2 		sbcs	r3, r1, #0
 429 02a0 0121A0A3 		movge	r2, #1073741824
 430 02a4 0721A0B3 		movlt	r2, #-1073741823
 431 02a8 0030A0A3 		movge	r3, #0
 432 02ac 0030E0B3 		mvnlt	r3, #0
 433 02b0 020090E0 		adds	r0, r0, r2
 434 02b4 0310A1E0 		adc	r1, r1, r3
 435 02b8 0030A0E3 		mov	r3, #0
 436 02bc 64308DE5 		str	r3, [sp, #100]
 437 02c0 C12FA0E1 		asr	r2, r1, #31
 438 02c4 44309DE5 		ldr	r3, [sp, #68]
 439 02c8 0221C2E3 		bic	r2, r2, #-2147483648
 440 02cc 002092E0 		adds	r2, r2, r0
 441 02d0 0231C3E3 		bic	r3, r3, #-2147483648
 442 02d4 A22FA0E1 		lsr	r2, r2, #31
 443 02d8 40308DE5 		str	r3, [sp, #64]
 444 02dc 0030A0E3 		mov	r3, #0
 445 02e0 0130A3E0 		adc	r3, r3, r1
 446 02e4 832082E1 		orr	r2, r2, r3, lsl #1
 447 02e8 C33FA0E1 		asr	r3, r3, #31
 448 02ec F825CDE1 		strd	r2, [sp, #88]
 449 02f0 0630A0E1 		mov	r3, r6
 450 02f4 0A60A0E1 		mov	r6, r10
 451 02f8 07A0A0E1 		mov	r10, r7
 452 02fc 0370A0E1 		mov	r7, r3
 453              	.L104:
 454 0300 00309DE5 		ldr	r3, [sp]
 455 0304 000053E3 		cmp	r3, #0
 456 0308 10309D15 		ldrne	r3, [sp, #16]
 457 030c 64209D15 		ldrne	r2, [sp, #100]
 458 0310 64309D05 		ldreq	r3, [sp, #100]
 459 0314 01304312 		subne	r3, r3, #1
 460 0318 02304310 		subne	r3, r3, r2
 461 031c 20308DE5 		str	r3, [sp, #32]
 462 0320 50309DE5 		ldr	r3, [sp, #80]
 463 0324 000053E3 		cmp	r3, #0
 464 0328 2A01000A 		beq	.L110
 465 032c 0030A0E3 		mov	r3, #0
 466 0330 48308DE5 		str	r3, [sp, #72]
 467 0334 50309DE5 		ldr	r3, [sp, #80]
 468 0338 013043E2 		sub	r3, r3, #1
 469 033c 60308DE5 		str	r3, [sp, #96]
 470              	.L111:
 471 0340 54309DE5 		ldr	r3, [sp, #84]
 472 0344 4C209DE5 		ldr	r2, [sp, #76]
 473 0348 000053E3 		cmp	r3, #0
 474 034c 58309DE5 		ldr	r3, [sp, #88]
 475 0350 0231E013 		mvnne	r3, #-2147483648
 476 0354 000052E3 		cmp	r2, #0
 477 0358 C50100CA 		bgt	.L216
 478 035c 1F0072E3 		cmn	r2, #31
 479 0360 D10100BA 		blt	.L217
 480 0364 08109DE5 		ldr	r1, [sp, #8]
 481 0368 04209DE5 		ldr	r2, [sp, #4]
 482 036c 5341A0E1 		asr	r4, r3, r1
 483 0370 44109DE5 		ldr	r1, [sp, #68]
 484 0374 A32F82E0 		add	r2, r2, r3, lsr #31
 485 0378 013003E0 		and	r3, r3, r1
 486 037c 020053E1 		cmp	r3, r2
 487 0380 014084C2 		addgt	r4, r4, #1
 488 0384 00309DE5 		ldr	r3, [sp]
 489 0388 000053E3 		cmp	r3, #0
 490 038c 60309D15 		ldrne	r3, [sp, #96]
 491 0390 48209D15 		ldrne	r2, [sp, #72]
 492 0394 48309D05 		ldreq	r3, [sp, #72]
 493 0398 02304310 		subne	r3, r3, r2
 494 039c 000055E3 		cmp	r5, #0
 495 03a0 0601000A 		beq	.L120
 496 03a4 950303E0 		mul	r3, r5, r3
 497 03a8 00E0A0E3 		mov	lr, #0
 498 03ac 06C0A0E1 		mov	ip, r6
 499 03b0 0700A0E1 		mov	r0, r7
 500 03b4 0C308DE5 		str	r3, [sp, #12]
 501 03b8 013045E2 		sub	r3, r5, #1
 502 03bc 3C308DE5 		str	r3, [sp, #60]
 503 03c0 480000EA 		b	.L121
 504              	.L194:
 505 03c4 026096E0 		adds	r6, r6, r2
 506 03c8 0370A7E0 		adc	r7, r7, r3
 507 03cc 0030A0E3 		mov	r3, #0
 508 03d0 C72FA0E1 		asr	r2, r7, #31
 509 03d4 0221C2E3 		bic	r2, r2, #-2147483648
 510 03d8 062092E0 		adds	r2, r2, r6
 511 03dc 44609DE5 		ldr	r6, [sp, #68]
 512 03e0 A22FA0E1 		lsr	r2, r2, #31
 513 03e4 0730A3E0 		adc	r3, r3, r7
 514 03e8 832082E1 		orr	r2, r2, r3, lsl #1
 515 03ec A27FA0E1 		lsr	r7, r2, #31
 516 03f0 0230A0E1 		mov	r3, r2
 517 03f4 062002E0 		and	r2, r2, r6
 518              	.L124:
 519 03f8 08609DE5 		ldr	r6, [sp, #8]
 520 03fc 5336A0E1 		asr	r3, r3, r6
 521 0400 04609DE5 		ldr	r6, [sp, #4]
 522 0404 077086E0 		add	r7, r6, r7
 523 0408 020057E1 		cmp	r7, r2
 524 040c 0320A0A1 		movge	r2, r3
 525 0410 012083B2 		addlt	r2, r3, #1
 526 0414 28309DE5 		ldr	r3, [sp, #40]
 527 0418 000053E3 		cmp	r3, #0
 528 041c 02408400 		addeq	r4, r4, r2
 529 0420 04B0A011 		movne	fp, r4
 530 0424 04B0A001 		moveq	fp, r4
 531 0428 02408410 		addne	r4, r4, r2
 532 042c 9B2AC3E0 		smull	r2, r3, fp, r10
 533 0430 0B005AE1 		cmp	r10, fp
 534 0434 02015B03 		cmpeq	fp, #-2147483648
 535 0438 01B0A003 		moveq	fp, #1
 536 043c 00B0A013 		movne	fp, #0
 537 0440 000052E3 		cmp	r2, #0
 538 0444 0060D3E2 		sbcs	r6, r3, #0
 539 0448 0161A0A3 		movge	r6, #1073741824
 540 044c 0070A0A3 		movge	r7, #0
 541 0450 0761A0B3 		movlt	r6, #-1073741823
 542 0454 0070E0B3 		mvnlt	r7, #0
 543 0458 00005BE3 		cmp	fp, #0
 544 045c 0221E013 		mvnne	r2, #-2147483648
 545 0460 0800001A 		bne	.L117
 546 0464 026096E0 		adds	r6, r6, r2
 547 0468 0370A7E0 		adc	r7, r7, r3
 548 046c 0030A0E3 		mov	r3, #0
 549 0470 C72FA0E1 		asr	r2, r7, #31
 550 0474 0221C2E3 		bic	r2, r2, #-2147483648
 551 0478 062092E0 		adds	r2, r2, r6
 552 047c A22FA0E1 		lsr	r2, r2, #31
 553 0480 0730A3E0 		adc	r3, r3, r7
 554 0484 832082E1 		orr	r2, r2, r3, lsl #1
 555              	.L117:
 556 0488 000059E3 		cmp	r9, #0
 557 048c 5F0100CA 		bgt	.L218
 558 0490 1F0079E3 		cmn	r9, #31
 559 0494 4D0100BA 		blt	.L219
 560 0498 34309DE5 		ldr	r3, [sp, #52]
 561 049c 01E08EE2 		add	lr, lr, #1
 562 04a0 30609DE5 		ldr	r6, [sp, #48]
 563 04a4 A27F83E0 		add	r7, r3, r2, lsr #31
 564 04a8 38309DE5 		ldr	r3, [sp, #56]
 565 04ac 5233A0E1 		asr	r3, r2, r3
 566 04b0 062002E0 		and	r2, r2, r6
 567 04b4 070052E1 		cmp	r2, r7
 568 04b8 0320A0D1 		movle	r2, r3
 569 04bc 012083C2 		addgt	r2, r3, #1
 570 04c0 24309DE5 		ldr	r3, [sp, #36]
 571 04c4 032082E0 		add	r2, r2, r3
 572 04c8 1C309DE5 		ldr	r3, [sp, #28]
 573 04cc 080052E1 		cmp	r2, r8
 574 04d0 0820A0B1 		movlt	r2, r8
 575 04d4 000052E1 		cmp	r2, r0
 576 04d8 0020A0A1 		movge	r2, r0
 577 04dc 05005EE1 		cmp	lr, r5
 578 04e0 0120C3E7 		strb	r2, [r3, r1]
 579 04e4 B300000A 		beq	.L220
 580              	.L121:
 581 04e8 00309DE5 		ldr	r3, [sp]
 582 04ec 20209DE5 		ldr	r2, [sp, #32]
 583 04f0 000053E3 		cmp	r3, #0
 584 04f4 3C309D15 		ldrne	r3, [sp, #60]
 585 04f8 0E10A001 		moveq	r1, lr
 586 04fc 0E104310 		subne	r1, r3, lr
 587 0500 0C309DE5 		ldr	r3, [sp, #12]
 588 0504 031081E0 		add	r1, r1, r3
 589 0508 10309DE5 		ldr	r3, [sp, #16]
 590 050c 932121E0 		mla	r1, r3, r1, r2
 591 0510 2C309DE5 		ldr	r3, [sp, #44]
 592 0514 D1B093E1 		ldrsb	fp, [r3, r1]
 593 0518 14309DE5 		ldr	r3, [sp, #20]
 594 051c 03B08BE0 		add	fp, fp, r3
 595 0520 18309DE5 		ldr	r3, [sp, #24]
 596 0524 1BB3A0E1 		lsl	fp, fp, r3
 597 0528 9B2CC3E0 		smull	r2, r3, fp, ip
 598 052c 0B005CE1 		cmp	ip, fp
 599 0530 02015B03 		cmpeq	fp, #-2147483648
 600 0534 01B0A003 		moveq	fp, #1
 601 0538 00B0A013 		movne	fp, #0
 602 053c 000052E3 		cmp	r2, #0
 603 0540 0060D3E2 		sbcs	r6, r3, #0
 604 0544 800000BA 		blt	.L146
 605 0548 0161A0E3 		mov	r6, #1073741824
 606 054c 0070A0E3 		mov	r7, #0
 607              	.L113:
 608 0550 00005BE3 		cmp	fp, #0
 609 0554 9AFFFF0A 		beq	.L194
 610 0558 40209DE5 		ldr	r2, [sp, #64]
 611 055c 0070A0E3 		mov	r7, #0
 612 0560 0231E0E3 		mvn	r3, #-2147483648
 613 0564 A3FFFFEA 		b	.L124
 614              	.L206:
 615 0568 03C09CE0 		adds	ip, ip, r3
 616 056c C9FEFF4A 		bmi	.L133
 617 0570 C6FEFFEA 		b	.L31
 618              	.L208:
 619 0574 01A0A0E3 		mov	r10, #1
 620 0578 20309DE5 		ldr	r3, [sp, #32]
 621 057c C6FEFFEA 		b	.L32
 622              	.L228:
 623              		.align	3
 624              	.L227:
 625 0580 01000000 		.word	1
 626 0584 00000000 		.word	0
 627 0588 00000000 		.word	0
 628              	.L34:
 629 058c 20309DE5 		ldr	r3, [sp, #32]
 630 0590 000055E3 		cmp	r5, #0
 631 0594 00509515 		ldrne	r5, [r5]
 632 0598 000097E5 		ldr	r0, [r7]
 633 059c 050053E3 		cmp	r3, #5
 634 05a0 0090D4E5 		ldrb	r9, [r4]	@ zero_extendqisi2
 635 05a4 01B0D4E5 		ldrb	fp, [r4, #1]	@ zero_extendqisi2
 636 05a8 6C209DE5 		ldr	r2, [sp, #108]
 637 05ac C00000CA 		bgt	.L36
 638 05b0 00005CE3 		cmp	ip, #0
 639 05b4 0210A011 		movne	r1, r2
 640 05b8 0110A003 		moveq	r1, #1
 641 05bc 00108DE5 		str	r1, [sp]
 642 05c0 0210A001 		moveq	r1, r2
 643 05c4 0110A013 		movne	r1, #1
 644 05c8 010053E3 		cmp	r3, #1
 645 05cc 3401000A 		beq	.L135
 646 05d0 01005CE3 		cmp	ip, #1
 647 05d4 F60000CA 		bgt	.L221
 648 05d8 00005CE3 		cmp	ip, #0
 649 05dc 70A09D05 		ldreq	r10, [sp, #112]
 650 05e0 01A0A013 		movne	r10, #1
 651 05e4 70109D15 		ldrne	r1, [sp, #112]
 652              	.L41:
 653 05e8 020053E3 		cmp	r3, #2
 654 05ec 1400000A 		beq	.L43
 655 05f0 02005CE3 		cmp	ip, #2
 656 05f4 E80000CA 		bgt	.L222
 657 05f8 74309D15 		ldrne	r3, [sp, #116]
 658 05fc 74109D05 		ldreq	r1, [sp, #116]
 659 0600 930A0A10 		mulne	r10, r3, r10
 660 0604 20309D15 		ldrne	r3, [sp, #32]
 661              	.L45:
 662 0608 030053E3 		cmp	r3, #3
 663 060c 0C00000A 		beq	.L43
 664 0610 03005CE3 		cmp	ip, #3
 665 0614 DA0000CA 		bgt	.L223
 666 0618 78309D15 		ldrne	r3, [sp, #120]
 667 061c 78109D05 		ldreq	r1, [sp, #120]
 668 0620 930A0A10 		mulne	r10, r3, r10
 669 0624 20309D15 		ldrne	r3, [sp, #32]
 670              	.L48:
 671 0628 040053E3 		cmp	r3, #4
 672 062c 0400000A 		beq	.L43
 673 0630 04005CE3 		cmp	ip, #4
 674 0634 CD0000CA 		bgt	.L224
 675 0638 7C309D15 		ldrne	r3, [sp, #124]
 676 063c 7C109D05 		ldreq	r1, [sp, #124]
 677 0640 930A0A10 		mulne	r10, r3, r10
 678              	.L43:
 679 0644 00005AE3 		cmp	r10, #0
 680 0648 9AFEFF0A 		beq	.L151
 681              	.L39:
 682 064c 0030A0E3 		mov	r3, #0
 683 0650 0A41A0E1 		lsl	r4, r10, #2
 684 0654 10308DE5 		str	r3, [sp, #16]
 685 0658 01304AE2 		sub	r3, r10, #1
 686 065c 14308DE5 		str	r3, [sp, #20]
 687 0660 006064E2 		rsb	r6, r4, #0
 688 0664 00309DE5 		ldr	r3, [sp]
 689 0668 013043E2 		sub	r3, r3, #1
 690 066c 08308DE5 		str	r3, [sp, #8]
 691 0670 073141E2 		sub	r3, r1, #-1073741823
 692 0674 0C308DE5 		str	r3, [sp, #12]
 693              	.L61:
 694 0678 00005BE3 		cmp	fp, #0
 695 067c 14309D15 		ldrne	r3, [sp, #20]
 696 0680 10209D15 		ldrne	r2, [sp, #16]
 697 0684 10309D05 		ldreq	r3, [sp, #16]
 698 0688 02304310 		subne	r3, r3, r2
 699 068c 04308DE5 		str	r3, [sp, #4]
 700 0690 00309DE5 		ldr	r3, [sp]
 701 0694 000053E3 		cmp	r3, #0
 702 0698 0080A013 		movne	r8, #0
 703 069c 2200000A 		beq	.L64
 704              	.L65:
 705 06a0 00005BE3 		cmp	fp, #0
 706 06a4 2B00000A 		beq	.L62
 707 06a8 08309DE5 		ldr	r3, [sp, #8]
 708 06ac 000051E3 		cmp	r1, #0
 709 06b0 083043E0 		sub	r3, r3, r8
 710 06b4 1800000A 		beq	.L66
 711 06b8 000059E3 		cmp	r9, #0
 712 06bc 910303E0 		mul	r3, r1, r3
 713 06c0 4D00001A 		bne	.L127
 714 06c4 0C209DE5 		ldr	r2, [sp, #12]
 715 06c8 017083E0 		add	r7, r3, r1
 716 06cc 0771A0E1 		lsl	r7, r7, #2
 717 06d0 547A5FED 		vldr.32	s15, .L227+8
 718 06d4 09C0A0E1 		mov	ip, r9
 719 06d8 033082E0 		add	r3, r2, r3
 720 06dc 04209DE5 		ldr	r2, [sp, #4]
 721 06e0 047067E2 		rsb	r7, r7, #4
 722 06e4 037187E0 		add	r7, r7, r3, lsl #2
 723 06e8 9A2322E0 		mla	r2, r10, r3, r2
 724 06ec 9A0707E0 		mul	r7, r10, r7
 725 06f0 0221A0E1 		lsl	r2, r2, #2
 726              	.L69:
 727 06f4 023087E0 		add	r3, r7, r2
 728 06f8 03E080E0 		add	lr, r0, r3
 729 06fc 01C08CE2 		add	ip, ip, #1
 730 0700 007A9EED 		vldr.32	s14, [lr]
 731 0704 01005CE1 		cmp	ip, r1
 732 0708 033085E0 		add	r3, r5, r3
 733 070c 062082E0 		add	r2, r2, r6
 734 0710 877A77EE 		vadd.f32	s15, s15, s14
 735 0714 007AC3ED 		vstr.32	s15, [r3]
 736 0718 F5FFFF1A 		bne	.L69
 737              	.L66:
 738 071c 00309DE5 		ldr	r3, [sp]
 739 0720 018088E2 		add	r8, r8, #1
 740 0724 030058E1 		cmp	r8, r3
 741 0728 DCFFFF1A 		bne	.L65
 742              	.L64:
 743 072c 10309DE5 		ldr	r3, [sp, #16]
 744 0730 013083E2 		add	r3, r3, #1
 745 0734 0A0053E1 		cmp	r3, r10
 746 0738 10308DE5 		str	r3, [sp, #16]
 747 073c CDFFFF1A 		bne	.L61
 748              	.L139:
 749 0740 00A0A0E3 		mov	r10, #0
 750 0744 20309DE5 		ldr	r3, [sp, #32]
 751 0748 53FEFFEA 		b	.L32
 752              	.L146:
 753 074c 0761A0E3 		mov	r6, #-1073741823
 754 0750 0070E0E3 		mvn	r7, #0
 755 0754 7DFFFFEA 		b	.L113
 756              	.L62:
 757 0758 000051E3 		cmp	r1, #0
 758 075c EEFFFF0A 		beq	.L66
 759 0760 000059E3 		cmp	r9, #0
 760 0764 910803E0 		mul	r3, r1, r8
 761 0768 3E00001A 		bne	.L129
 762 076c 04209DE5 		ldr	r2, [sp, #4]
 763 0770 7C7A5FED 		vldr.32	s15, .L227+8
 764 0774 9A2323E0 		mla	r3, r10, r3, r2
 765 0778 0920A0E1 		mov	r2, r9
 766 077c 0331A0E1 		lsl	r3, r3, #2
 767              	.L67:
 768 0780 03C080E0 		add	ip, r0, r3
 769 0784 007A9CED 		vldr.32	s14, [ip]
 770 0788 012082E2 		add	r2, r2, #1
 771 078c 010052E1 		cmp	r2, r1
 772 0790 03C085E0 		add	ip, r5, r3
 773 0794 043083E0 		add	r3, r3, r4
 774 0798 877A77EE 		vadd.f32	s15, s15, s14
 775 079c 007ACCED 		vstr.32	s15, [ip]
 776 07a0 F6FFFF1A 		bne	.L67
 777 07a4 00309DE5 		ldr	r3, [sp]
 778 07a8 018088E2 		add	r8, r8, #1
 779 07ac 030058E1 		cmp	r8, r3
 780 07b0 BAFFFF1A 		bne	.L65
 781 07b4 DCFFFFEA 		b	.L64
 782              	.L220:
 783 07b8 0C60A0E1 		mov	r6, ip
 784 07bc 0070A0E1 		mov	r7, r0
 785              	.L120:
 786 07c0 48309DE5 		ldr	r3, [sp, #72]
 787 07c4 50209DE5 		ldr	r2, [sp, #80]
 788 07c8 013083E2 		add	r3, r3, #1
 789 07cc 020053E1 		cmp	r3, r2
 790 07d0 48308DE5 		str	r3, [sp, #72]
 791 07d4 D9FEFF1A 		bne	.L111
 792              	.L110:
 793 07d8 64309DE5 		ldr	r3, [sp, #100]
 794 07dc 10209DE5 		ldr	r2, [sp, #16]
 795 07e0 013083E2 		add	r3, r3, #1
 796 07e4 020053E1 		cmp	r3, r2
 797 07e8 64308DE5 		str	r3, [sp, #100]
 798 07ec C3FEFF1A 		bne	.L104
 799 07f0 68309DE5 		ldr	r3, [sp, #104]
 800 07f4 20308DE5 		str	r3, [sp, #32]
 801 07f8 D0FFFFEA 		b	.L139
 802              	.L127:
 803 07fc 0C209DE5 		ldr	r2, [sp, #12]
 804 0800 017083E0 		add	r7, r3, r1
 805 0804 0771A0E1 		lsl	r7, r7, #2
 806 0808 A27A5FED 		vldr.32	s15, .L227+8
 807 080c 00C0A0E3 		mov	ip, #0
 808 0810 033082E0 		add	r3, r2, r3
 809 0814 04209DE5 		ldr	r2, [sp, #4]
 810 0818 047067E2 		rsb	r7, r7, #4
 811 081c 037187E0 		add	r7, r7, r3, lsl #2
 812 0820 9A2322E0 		mla	r2, r10, r3, r2
 813 0824 9A0707E0 		mul	r7, r10, r7
 814 0828 0221A0E1 		lsl	r2, r2, #2
 815              	.L70:
 816 082c 023087E0 		add	r3, r7, r2
 817 0830 03E085E0 		add	lr, r5, r3
 818 0834 033080E0 		add	r3, r0, r3
 819 0838 007ACEED 		vstr.32	s15, [lr]
 820 083c 01C08CE2 		add	ip, ip, #1
 821 0840 007A93ED 		vldr.32	s14, [r3]
 822 0844 01005CE1 		cmp	ip, r1
 823 0848 062082E0 		add	r2, r2, r6
 824 084c 877A77EE 		vadd.f32	s15, s15, s14
 825 0850 F5FFFF1A 		bne	.L70
 826 0854 00309DE5 		ldr	r3, [sp]
 827 0858 018088E2 		add	r8, r8, #1
 828 085c 030058E1 		cmp	r8, r3
 829 0860 8EFFFF1A 		bne	.L65
 830 0864 B0FFFFEA 		b	.L64
 831              	.L129:
 832 0868 04209DE5 		ldr	r2, [sp, #4]
 833 086c BB7A5FED 		vldr.32	s15, .L227+8
 834 0870 9A2323E0 		mla	r3, r10, r3, r2
 835 0874 0B20A0E1 		mov	r2, fp
 836 0878 0331A0E1 		lsl	r3, r3, #2
 837              	.L68:
 838 087c 03E085E0 		add	lr, r5, r3
 839 0880 03C080E0 		add	ip, r0, r3
 840 0884 007ACEED 		vstr.32	s15, [lr]
 841 0888 007A9CED 		vldr.32	s14, [ip]
 842 088c 012082E2 		add	r2, r2, #1
 843 0890 010052E1 		cmp	r2, r1
 844 0894 043083E0 		add	r3, r3, r4
 845 0898 877A77EE 		vadd.f32	s15, s15, s14
 846 089c F6FFFF1A 		bne	.L68
 847 08a0 00309DE5 		ldr	r3, [sp]
 848 08a4 018088E2 		add	r8, r8, #1
 849 08a8 030058E1 		cmp	r8, r3
 850 08ac 7BFFFF1A 		bne	.L65
 851 08b0 9DFFFFEA 		b	.L64
 852              	.L36:
 853 08b4 0110A0E3 		mov	r1, #1
 854 08b8 03E0A0E1 		mov	lr, r3
 855 08bc 01A0A0E1 		mov	r10, r1
 856 08c0 0030A0E3 		mov	r3, #0
 857 08c4 0140A0E1 		mov	r4, r1
 858 08c8 050000EA 		b	.L56
 859              	.L53:
 860 08cc 036192B7 		ldrlt	r6, [r2, r3, lsl #2]
 861 08d0 031192A7 		ldrge	r1, [r2, r3, lsl #2]
 862 08d4 960A0AB0 		mullt	r10, r6, r10
 863              	.L54:
 864 08d8 013083E2 		add	r3, r3, #1
 865 08dc 0E0053E1 		cmp	r3, lr
 866 08e0 1400000A 		beq	.L225
 867              	.L56:
 868 08e4 03005CE1 		cmp	ip, r3
 869 08e8 F7FFFFDA 		ble	.L53
 870 08ec 036192E7 		ldr	r6, [r2, r3, lsl #2]
 871 08f0 960404E0 		mul	r4, r6, r4
 872 08f4 F7FFFFEA 		b	.L54
 873              	.L76:
 874 08f8 0150A0E3 		mov	r5, #1
 875 08fc 0010A0E3 		mov	r1, #0
 876 0900 05E0A0E1 		mov	lr, r5
 877 0904 0500A0E1 		mov	r0, r5
 878 0908 050000EA 		b	.L97
 879              	.L93:
 880 090c 014192B7 		ldrlt	r4, [r2, r1, lsl #2]
 881 0910 015192A7 		ldrge	r5, [r2, r1, lsl #2]
 882 0914 940E0EB0 		mullt	lr, r4, lr
 883              	.L94:
 884 0918 011081E2 		add	r1, r1, #1
 885 091c 030051E1 		cmp	r1, r3
 886 0920 0800000A 		beq	.L226
 887              	.L97:
 888 0924 01005CE1 		cmp	ip, r1
 889 0928 F7FFFFDA 		ble	.L93
 890 092c 014192E7 		ldr	r4, [r2, r1, lsl #2]
 891 0930 940000E0 		mul	r0, r4, r0
 892 0934 F7FFFFEA 		b	.L94
 893              	.L225:
 894 0938 00005AE3 		cmp	r10, #0
 895 093c 00408DE5 		str	r4, [sp]
 896 0940 41FFFF1A 		bne	.L39
 897 0944 D7FDFFEA 		b	.L57
 898              	.L226:
 899 0948 50008DE5 		str	r0, [sp, #80]
 900 094c 10E08DE5 		str	lr, [sp, #16]
 901 0950 30FEFFEA 		b	.L96
 902              	.L212:
 903 0954 70309DE5 		ldr	r3, [sp, #112]
 904 0958 0120A0E3 		mov	r2, #1
 905 095c 10208DE5 		str	r2, [sp, #16]
 906 0960 0120A0E1 		mov	r2, r1
 907 0964 930103E0 		mul	r3, r3, r1
 908 0968 50308DE5 		str	r3, [sp, #80]
 909 096c 0BFEFFEA 		b	.L81
 910              	.L224:
 911 0970 00209DE5 		ldr	r2, [sp]
 912 0974 7C309DE5 		ldr	r3, [sp, #124]
 913 0978 930203E0 		mul	r3, r3, r2
 914 097c 00308DE5 		str	r3, [sp]
 915 0980 2FFFFFEA 		b	.L43
 916              	.L223:
 917 0984 00209DE5 		ldr	r2, [sp]
 918 0988 78309DE5 		ldr	r3, [sp, #120]
 919 098c 930203E0 		mul	r3, r3, r2
 920 0990 00308DE5 		str	r3, [sp]
 921 0994 20309DE5 		ldr	r3, [sp, #32]
 922 0998 22FFFFEA 		b	.L48
 923              	.L222:
 924 099c 00209DE5 		ldr	r2, [sp]
 925 09a0 74309DE5 		ldr	r3, [sp, #116]
 926 09a4 930203E0 		mul	r3, r3, r2
 927 09a8 00308DE5 		str	r3, [sp]
 928 09ac 20309DE5 		ldr	r3, [sp, #32]
 929 09b0 14FFFFEA 		b	.L45
 930              	.L221:
 931 09b4 00209DE5 		ldr	r2, [sp]
 932 09b8 01A0A0E3 		mov	r10, #1
 933 09bc 70309DE5 		ldr	r3, [sp, #112]
 934 09c0 930203E0 		mul	r3, r3, r2
 935 09c4 00308DE5 		str	r3, [sp]
 936 09c8 20309DE5 		ldr	r3, [sp, #32]
 937 09cc 05FFFFEA 		b	.L41
 938              	.L219:
 939 09d0 003000E3 		movw	r3, #:lower16:.LC3
 940 09d4 002000E3 		movw	r2, #:lower16:.LANCHOR0
 941 09d8 000000E3 		movw	r0, #:lower16:.LC2
 942 09dc 003040E3 		movt	r3, #:upper16:.LC3
 943 09e0 002040E3 		movt	r2, #:upper16:.LANCHOR0
 944 09e4 000040E3 		movt	r0, #:upper16:.LC2
 945 09e8 671100E3 		movw	r1, #359
 946              	.LEHB1:
 947 09ec FEFFFFEB 		bl	__assert_func
 948              	.LEHE1:
 949              	.L150:
 950 09f0 68309DE5 		ldr	r3, [sp, #104]
 951 09f4 050053E3 		cmp	r3, #5
 952 09f8 030000DA 		ble	.L123
 953 09fc 6C009DE5 		ldr	r0, [sp, #108]
 954 0a00 000050E3 		cmp	r0, #0
 955 0a04 0000000A 		beq	.L123
 956 0a08 FEFFFFEB 		bl	_ZdaPv
 957              	.L123:
 958              	.LEHB2:
 959 0a0c FEFFFFEB 		bl	__cxa_end_cleanup
 960              	.LEHE2:
 961              	.L218:
 962 0a10 003000E3 		movw	r3, #:lower16:.LC1
 963 0a14 002000E3 		movw	r2, #:lower16:.LANCHOR0
 964 0a18 000000E3 		movw	r0, #:lower16:.LC2
 965 0a1c 003040E3 		movt	r3, #:upper16:.LC1
 966 0a20 002040E3 		movt	r2, #:upper16:.LANCHOR0
 967 0a24 000040E3 		movt	r0, #:upper16:.LC2
 968 0a28 661100E3 		movw	r1, #358
 969              	.LEHB3:
 970 0a2c FEFFFFEB 		bl	__assert_func
 971              	.L215:
 972 0a30 50209DE5 		ldr	r2, [sp, #80]
 973 0a34 7C309DE5 		ldr	r3, [sp, #124]
 974 0a38 930203E0 		mul	r3, r3, r2
 975 0a3c 50308DE5 		str	r3, [sp, #80]
 976 0a40 F4FDFFEA 		b	.L96
 977              	.L214:
 978 0a44 50209DE5 		ldr	r2, [sp, #80]
 979 0a48 78309DE5 		ldr	r3, [sp, #120]
 980 0a4c 930203E0 		mul	r3, r3, r2
 981 0a50 50308DE5 		str	r3, [sp, #80]
 982 0a54 20309DE5 		ldr	r3, [sp, #32]
 983 0a58 E5FDFFEA 		b	.L88
 984              	.L213:
 985 0a5c 50209DE5 		ldr	r2, [sp, #80]
 986 0a60 74309DE5 		ldr	r3, [sp, #116]
 987 0a64 930203E0 		mul	r3, r3, r2
 988 0a68 50308DE5 		str	r3, [sp, #80]
 989 0a6c 20309DE5 		ldr	r3, [sp, #32]
 990 0a70 D5FDFFEA 		b	.L85
 991              	.L216:
 992 0a74 003000E3 		movw	r3, #:lower16:.LC1
 993 0a78 002000E3 		movw	r2, #:lower16:.LANCHOR0
 994 0a7c 000000E3 		movw	r0, #:lower16:.LC2
 995 0a80 003040E3 		movt	r3, #:upper16:.LC1
 996 0a84 002040E3 		movt	r2, #:upper16:.LANCHOR0
 997 0a88 000040E3 		movt	r0, #:upper16:.LC2
 998 0a8c 661100E3 		movw	r1, #358
 999 0a90 FEFFFFEB 		bl	__assert_func
 1000              	.L210:
 1001 0a94 FEFFFFEB 		bl	abort
 1002              	.L209:
 1003 0a98 FEFFFFEB 		bl	abort
 1004              	.LEHE3:
 1005              	.L28:
 1006              	.LEHB4:
 1007 0a9c FEFFFFEB 		bl	abort
 1008              	.LEHE4:
 1009              	.L205:
 1010              	.LEHB5:
 1011 0aa0 FEFFFFEB 		bl	abort
 1012              	.L135:
 1013 0aa4 03A0A0E1 		mov	r10, r3
 1014 0aa8 E7FEFFEA 		b	.L39
 1015              	.L217:
 1016 0aac 003000E3 		movw	r3, #:lower16:.LC3
 1017 0ab0 002000E3 		movw	r2, #:lower16:.LANCHOR0
 1018 0ab4 000000E3 		movw	r0, #:lower16:.LC2
 1019 0ab8 003040E3 		movt	r3, #:upper16:.LC3
 1020 0abc 002040E3 		movt	r2, #:upper16:.LANCHOR0
 1021 0ac0 000040E3 		movt	r0, #:upper16:.LC2
 1022 0ac4 671100E3 		movw	r1, #359
 1023 0ac8 FEFFFFEB 		bl	__assert_func
 1024              	.L141:
 1025 0acc 10308DE5 		str	r3, [sp, #16]
 1026 0ad0 D3FDFFEA 		b	.L79
 1027              	.L211:
 1028 0ad4 FEFFFFEB 		bl	abort
 1029              	.LEHE5:
 1030              		.global	__gxx_personality_v0
 1031              		.personality	__gxx_personality_v0
 1032              		.handlerdata
 1033              	.LLSDA4168:
 1034 0008 FF       		.byte	0xff
 1035 0009 FF       		.byte	0xff
 1036 000a 01       		.byte	0x1
 1037 000b 20       		.uleb128 .LLSDACSE4168-.LLSDACSB4168
 1038              	.LLSDACSB4168:
 1039 000c 28       		.uleb128 .LEHB0-.LFB4168
 1040 000d 48       		.uleb128 .LEHE0-.LEHB0
 1041 000e 00       		.uleb128 0
 1042 000f 00       		.uleb128 0
 1043 0010 EC13     		.uleb128 .LEHB1-.LFB4168
 1044 0012 04       		.uleb128 .LEHE1-.LEHB1
 1045 0013 F013     		.uleb128 .L150-.LFB4168
 1046 0015 00       		.uleb128 0
 1047 0016 8C14     		.uleb128 .LEHB2-.LFB4168
 1048 0018 04       		.uleb128 .LEHE2-.LEHB2
 1049 0019 00       		.uleb128 0
 1050 001a 00       		.uleb128 0
 1051 001b AC14     		.uleb128 .LEHB3-.LFB4168
 1052 001d 70       		.uleb128 .LEHE3-.LEHB3
 1053 001e F013     		.uleb128 .L150-.LFB4168
 1054 0020 00       		.uleb128 0
 1055 0021 9C15     		.uleb128 .LEHB4-.LFB4168
 1056 0023 04       		.uleb128 .LEHE4-.LEHB4
 1057 0024 00       		.uleb128 0
 1058 0025 00       		.uleb128 0
 1059 0026 A015     		.uleb128 .LEHB5-.LFB4168
 1060 0028 38       		.uleb128 .LEHE5-.LEHB5
 1061 0029 F013     		.uleb128 .L150-.LFB4168
 1062 002b 00       		.uleb128 0
 1063              	.LLSDACSE4168:
 1064              		.section	.text._ZN6tflite12_GLOBAL__N_14EvalEP13TfLiteContextP10TfLiteNode
 1065              		.fnend
 1067              		.section	.text._ZN6tflite15Register_CUMSUMEv,"ax",%progbits
 1068              		.align	2
 1069              		.global	_ZN6tflite15Register_CUMSUMEv
 1070              		.syntax unified
 1071              		.arm
 1072              		.fpu neon
 1074              	_ZN6tflite15Register_CUMSUMEv:
 1075              		.fnstart
 1076              	.LFB4169:
 1077              		@ args = 0, pretend = 0, frame = 0
 1078              		@ frame_needed = 0, uses_anonymous_args = 0
 1079 0000 00C000E3 		movw	ip, #:lower16:.LANCHOR1
 1080 0004 10402DE9 		push	{r4, lr}
 1081 0008 00C040E3 		movt	ip, #:upper16:.LANCHOR1
 1082 000c 0040A0E1 		mov	r4, r0
 1083 0010 00E0A0E1 		mov	lr, r0
 1084 0014 0F00BCE8 		ldmia	ip!, {r0, r1, r2, r3}
 1085 0018 0F00AEE8 		stmia	lr!, {r0, r1, r2, r3}
 1086 001c 0F009CE8 		ldm	ip, {r0, r1, r2, r3}
 1087 0020 0F008EE8 		stm	lr, {r0, r1, r2, r3}
 1088 0024 0400A0E1 		mov	r0, r4
 1089 0028 1080BDE8 		pop	{r4, pc}
 1090              		.cantunwind
 1091              		.fnend
 1093              		.section	.rodata
 1094              		.align	2
 1095              		.set	.LANCHOR1,. + 0
 1096              	.LC0:
 1097 0000 00000000 		.word	0
 1098 0004 00000000 		.word	0
 1099 0008 00000000 		.word	_ZN6tflite12_GLOBAL__N_17PrepareEP13TfLiteContextP10TfLiteNode
 1100 000c 00000000 		.word	_ZN6tflite12_GLOBAL__N_14EvalEP13TfLiteContextP10TfLiteNode
 1101 0010 00000000 		.word	0
 1102 0014 00000000 		.word	0
 1103 0018 00000000 		.word	0
 1104 001c 00000000 		.word	0
 1105              		.section	.rodata._ZN6tflite12_GLOBAL__N_14EvalEP13TfLiteContextP10TfLiteNode.str1.4,"aMS",%progbit
 1106              		.align	2
 1107              	.LC1:
 1108 0000 6578706F 		.ascii	"exponent >= 0\000"
 1108      6E656E74 
 1108      203E3D20 
 1108      3000
 1109 000e 0000     		.space	2
 1110              	.LC2:
 1111 0010 433A2F52 		.ascii	"C:/Renesas/e2studio_2021_01_workspace_RZA2M_ANPR/AN"
 1111      656E6573 
 1111      61732F65 
 1111      32737475 
 1111      64696F5F 
 1112 0043 50525F52 		.ascii	"PR_RZA2M_EBK/src/tensorflow_lite/third_party/gemmlo"
 1112      5A41324D 
 1112      5F45424B 
 1112      2F737263 
 1112      2F74656E 
 1113 0076 77702F66 		.ascii	"wp/fixedpoint/fixedpoint.h\000"
 1113      69786564 
 1113      706F696E 
 1113      742F6669 
 1113      78656470 
 1114 0091 000000   		.space	3
 1115              	.LC3:
 1116 0094 6578706F 		.ascii	"exponent <= 31\000"
 1116      6E656E74 
 1116      203C3D20 
 1116      333100
 1117              		.section	.rodata._ZZN8gemmlowp19RoundingDivideByPOTIlEET_S1_iE19__PRETTY_FUNCTION__,"a",%progbits
 1118              		.align	3
 1119              		.set	.LANCHOR0,. + 0
 1122              	_ZZN8gemmlowp19RoundingDivideByPOTIlEET_S1_iE19__PRETTY_FUNCTION__:
 1123 0000 496E7465 		.ascii	"IntegerType gemmlowp::RoundingDivideByPOT(IntegerTy"
 1123      67657254 
 1123      79706520 
 1123      67656D6D 
 1123      6C6F7770 
 1124 0033 70652C20 		.ascii	"pe, int) [with IntegerType = long int]\000"
 1124      696E7429 
 1124      205B7769 
 1124      74682049 
 1124      6E746567 
 1125              		.ident	"GCC: (GNU Tools for ARM Embedded Processors 6-2017-q2-update) 6.3.1 20170620 (release) [AR