   1              		.cpu cortex-a9
   2              		.eabi_attribute 28, 1
   3              		.eabi_attribute 20, 1
   4              		.eabi_attribute 21, 1
   5              		.eabi_attribute 23, 3
   6              		.eabi_attribute 24, 1
   7              		.eabi_attribute 25, 1
   8              		.eabi_attribute 26, 1
   9              		.eabi_attribute 30, 2
  10              		.eabi_attribute 34, 0
  11              		.eabi_attribute 18, 4
  12              		.file	"depth_to_space.cc"
  13              		.global	__aeabi_idiv
  14              		.section	.text._ZN6tflite12_GLOBAL__N_17PrepareEP13TfLiteContextP10TfLiteNode,"ax",%progbits
  15              		.align	2
  16              		.syntax unified
  17              		.arm
  18              		.fpu neon
  20              	_ZN6tflite12_GLOBAL__N_17PrepareEP13TfLiteContextP10TfLiteNode:
  21              		.fnstart
  22              	.LFB914:
  23              		@ args = 0, pretend = 0, frame = 8
  24              		@ frame_needed = 0, uses_anonymous_args = 0
  25 0000 002091E5 		ldr	r2, [r1]
  26 0004 002092E5 		ldr	r2, [r2]
  27 0008 010052E3 		cmp	r2, #1
  28 000c 0100000A 		beq	.L11
  29 0010 0100A0E3 		mov	r0, #1
  30 0014 1EFF2FE1 		bx	lr
  31              	.L11:
  32 0018 042091E5 		ldr	r2, [r1, #4]
  33 001c F0472DE9 		push	{r4, r5, r6, r7, r8, r9, r10, lr}
  34              		.save {r4, r5, r6, r7, r8, r9, r10, lr}
  35 0020 0140A0E1 		mov	r4, r1
  36              		.pad #8
  37 0024 08D04DE2 		sub	sp, sp, #8
  38 0028 002092E5 		ldr	r2, [r2]
  39 002c 010052E3 		cmp	r2, #1
  40 0030 0200000A 		beq	.L12
  41              	.L4:
  42 0034 0100A0E3 		mov	r0, #1
  43              	.L3:
  44 0038 08D08DE2 		add	sp, sp, #8
  45              		@ sp needed
  46 003c F087BDE8 		pop	{r4, r5, r6, r7, r8, r9, r10, pc}
  47              	.L12:
  48 0040 0D30A0E1 		mov	r3, sp
  49 0044 0020A0E3 		mov	r2, #0
  50 0048 0050A0E1 		mov	r5, r0
  51 004c 146091E5 		ldr	r6, [r1, #20]
  52 0050 FEFFFFEB 		bl	_ZN6tflite12GetInputSafeEPK13TfLiteContextPK10TfLiteNodeiPPK12TfLiteTensor
  53 0054 000050E3 		cmp	r0, #0
  54 0058 F6FFFF1A 		bne	.L3
  55 005c 0020A0E1 		mov	r2, r0
  56 0060 04308DE2 		add	r3, sp, #4
  57 0064 0410A0E1 		mov	r1, r4
  58 0068 0500A0E1 		mov	r0, r5
  59 006c FEFFFFEB 		bl	_ZN6tflite13GetOutputSafeEPK13TfLiteContextPK10TfLiteNodeiPP12TfLiteTensor
  60 0070 000050E3 		cmp	r0, #0
  61 0074 EFFFFF1A 		bne	.L3
  62 0078 00309DE5 		ldr	r3, [sp]
  63 007c 087093E5 		ldr	r7, [r3, #8]
  64 0080 002097E5 		ldr	r2, [r7]
  65 0084 040052E3 		cmp	r2, #4
  66 0088 E9FFFF1A 		bne	.L4
  67 008c 04209DE5 		ldr	r2, [sp, #4]
  68 0090 0020D2E5 		ldrb	r2, [r2]	@ zero_extendqisi2
  69 0094 F71002E2 		and	r1, r2, #247
  70 0098 010051E3 		cmp	r1, #1
  71 009c E4FFFF1A 		bne	.L4
  72 00a0 0030D3E5 		ldrb	r3, [r3]	@ zero_extendqisi2
  73 00a4 020053E1 		cmp	r3, r2
  74 00a8 E1FFFF1A 		bne	.L4
  75 00ac 006096E5 		ldr	r6, [r6]
  76 00b0 000056E3 		cmp	r6, #0
  77 00b4 DEFFFFDA 		ble	.L4
  78 00b8 088097E5 		ldr	r8, [r7, #8]
  79 00bc 0610A0E1 		mov	r1, r6
  80 00c0 980609E0 		mul	r9, r8, r6
  81 00c4 0900A0E1 		mov	r0, r9
  82 00c8 FEFFFFEB 		bl	__aeabi_idiv
  83 00cc 000058E1 		cmp	r8, r0
  84 00d0 D7FFFF1A 		bne	.L4
  85 00d4 0CA097E5 		ldr	r10, [r7, #12]
  86 00d8 0610A0E1 		mov	r1, r6
  87 00dc 9A0608E0 		mul	r8, r10, r6
  88 00e0 0800A0E1 		mov	r0, r8
  89 00e4 FEFFFFEB 		bl	__aeabi_idiv
  90 00e8 00005AE1 		cmp	r10, r0
  91 00ec D0FFFF1A 		bne	.L4
  92 00f0 10A097E5 		ldr	r10, [r7, #16]
  93 00f4 0610A0E1 		mov	r1, r6
  94 00f8 0A00A0E1 		mov	r0, r10
  95 00fc FEFFFFEB 		bl	__aeabi_idiv
  96 0100 0610A0E1 		mov	r1, r6
  97 0104 FEFFFFEB 		bl	__aeabi_idiv
  98 0108 900603E0 		mul	r3, r0, r6
  99 010c 0070A0E1 		mov	r7, r0
 100 0110 960306E0 		mul	r6, r6, r3
 101 0114 06005AE1 		cmp	r10, r6
 102 0118 C5FFFF1A 		bne	.L4
 103 011c 000055E3 		cmp	r5, #0
 104 0120 1300000A 		beq	.L13
 105 0124 042094E5 		ldr	r2, [r4, #4]
 106 0128 0500A0E1 		mov	r0, r5
 107 012c 543095E5 		ldr	r3, [r5, #84]
 108 0130 041092E5 		ldr	r1, [r2, #4]
 109 0134 33FF2FE1 		blx	r3
 110 0138 04109DE5 		ldr	r1, [sp, #4]
 111 013c 0020A0E1 		mov	r2, r0
 112 0140 0500A0E1 		mov	r0, r5
 113 0144 FEFFFFEB 		bl	_ZN6tflite5micro32CreateWritableTensorDimsWithCopyEP13TfLiteContextP12TfLiteTensorP16TfLiteEval
 114 0148 000050E3 		cmp	r0, #0
 115 014c B9FFFF1A 		bne	.L3
 116 0150 0C009DE8 		ldm	sp, {r2, r3}
 117 0154 082092E5 		ldr	r2, [r2, #8]
 118 0158 083093E5 		ldr	r3, [r3, #8]
 119 015c 042092E5 		ldr	r2, [r2, #4]
 120 0160 089083E5 		str	r9, [r3, #8]
 121 0164 0C8083E5 		str	r8, [r3, #12]
 122 0168 042083E5 		str	r2, [r3, #4]
 123 016c 107083E5 		str	r7, [r3, #16]
 124 0170 B0FFFFEA 		b	.L3
 125              	.L13:
 126 0174 FEFFFFEB 		bl	abort
 127              		.fnend
 129              		.global	__aeabi_idivmod
 130              		.section	.text._ZN6tflite12_GLOBAL__N_14EvalEP13TfLiteContextP10TfLiteNode,"ax",%progbits
 131              		.align	2
 132              		.syntax unified
 133              		.arm
 134              		.fpu neon
 136              	_ZN6tflite12_GLOBAL__N_14EvalEP13TfLiteContextP10TfLiteNode:
 137              		.fnstart
 138              	.LFB915:
 139              		@ args = 0, pretend = 0, frame = 176
 140              		@ frame_needed = 0, uses_anonymous_args = 0
 141 0000 F04F2DE9 		push	{r4, r5, r6, r7, r8, r9, r10, fp, lr}
 142              		.save {r4, r5, r6, r7, r8, r9, r10, fp, lr}
 143 0004 004050E2 		subs	r4, r0, #0
 144              		.pad #180
 145 0008 B4D04DE2 		sub	sp, sp, #180
 146 000c 147091E5 		ldr	r7, [r1, #20]
 147 0010 A302000A 		beq	.L411
 148 0014 002091E5 		ldr	r2, [r1]
 149 0018 0150A0E1 		mov	r5, r1
 150 001c 543094E5 		ldr	r3, [r4, #84]
 151 0020 041092E5 		ldr	r1, [r2, #4]
 152              	.LEHB0:
 153 0024 33FF2FE1 		blx	r3
 154 0028 042095E5 		ldr	r2, [r5, #4]
 155 002c 0060A0E1 		mov	r6, r0
 156 0030 543094E5 		ldr	r3, [r4, #84]
 157 0034 0400A0E1 		mov	r0, r4
 158 0038 041092E5 		ldr	r1, [r2, #4]
 159 003c 33FF2FE1 		blx	r3
 160 0040 0830D6E5 		ldrb	r3, [r6, #8]	@ zero_extendqisi2
 161 0044 0040A0E1 		mov	r4, r0
 162 0048 00A097E5 		ldr	r10, [r7]
 163 004c 010053E3 		cmp	r3, #1
 164 0050 2600000A 		beq	.L17
 165 0054 090053E3 		cmp	r3, #9
 166 0058 2100001A 		bne	.L412
 167 005c 0610A0E1 		mov	r1, r6
 168 0060 50008DE2 		add	r0, sp, #80
 169 0064 FEFFFFEB 		bl	_ZN6tflite5micro14GetTensorShapeEPK16TfLiteEvalTensor
 170              	.LEHE0:
 171 0068 003096E5 		ldr	r3, [r6]
 172 006c 0410A0E1 		mov	r1, r4
 173 0070 68008DE2 		add	r0, sp, #104
 174 0074 28308DE5 		str	r3, [sp, #40]
 175              	.LEHB1:
 176 0078 FEFFFFEB 		bl	_ZN6tflite5micro14GetTensorShapeEPK16TfLiteEvalTensor
 177              	.LEHE1:
 178 007c 50209DE5 		ldr	r2, [sp, #80]
 179 0080 000054E3 		cmp	r4, #0
 180 0084 00409415 		ldrne	r4, [r4]
 181 0088 040052E3 		cmp	r2, #4
 182 008c 350200CA 		bgt	.L413
 183 0090 68509DE5 		ldr	r5, [sp, #104]
 184 0094 040055E3 		cmp	r5, #4
 185 0098 660200CA 		bgt	.L414
 186 009c 040072E2 		rsbs	r0, r2, #4
 187 00a0 0430A0E3 		mov	r3, #4
 188 00a4 80308DE5 		str	r3, [sp, #128]
 189 00a8 3200000A 		beq	.L92
 190 00ac 010050E3 		cmp	r0, #1
 191 00b0 0130A0E3 		mov	r3, #1
 192 00b4 84308DE5 		str	r3, [sp, #132]
 193 00b8 2E00000A 		beq	.L92
 194 00bc 020050E3 		cmp	r0, #2
 195 00c0 88308DE5 		str	r3, [sp, #136]
 196 00c4 2B00000A 		beq	.L92
 197 00c8 030050E3 		cmp	r0, #3
 198 00cc 8C308DE5 		str	r3, [sp, #140]
 199 00d0 2800000A 		beq	.L92
 200 00d4 040050E3 		cmp	r0, #4
 201 00d8 90308DE5 		str	r3, [sp, #144]
 202 00dc 2500000A 		beq	.L92
 203              	.LEHB2:
 204 00e0 FEFFFFEB 		bl	abort
 205              	.LEHE2:
 206              	.L412:
 207 00e4 0100A0E3 		mov	r0, #1
 208              	.L318:
 209 00e8 B4D08DE2 		add	sp, sp, #180
 210              		@ sp needed
 211 00ec F08FBDE8 		pop	{r4, r5, r6, r7, r8, r9, r10, fp, pc}
 212              	.L17:
 213 00f0 0610A0E1 		mov	r1, r6
 214 00f4 50008DE2 		add	r0, sp, #80
 215              	.LEHB3:
 216 00f8 FEFFFFEB 		bl	_ZN6tflite5micro14GetTensorShapeEPK16TfLiteEvalTensor
 217              	.LEHE3:
 218 00fc 003096E5 		ldr	r3, [r6]
 219 0100 0410A0E1 		mov	r1, r4
 220 0104 68008DE2 		add	r0, sp, #104
 221 0108 28308DE5 		str	r3, [sp, #40]
 222              	.LEHB4:
 223 010c FEFFFFEB 		bl	_ZN6tflite5micro14GetTensorShapeEPK16TfLiteEvalTensor
 224              	.LEHE4:
 225 0110 50209DE5 		ldr	r2, [sp, #80]
 226 0114 000054E3 		cmp	r4, #0
 227 0118 00409415 		ldrne	r4, [r4]
 228 011c 040052E3 		cmp	r2, #4
 229 0120 450200CA 		bgt	.L415
 230 0124 68509DE5 		ldr	r5, [sp, #104]
 231 0128 040055E3 		cmp	r5, #4
 232 012c 430200CA 		bgt	.L416
 233 0130 040072E2 		rsbs	r0, r2, #4
 234 0134 0430A0E3 		mov	r3, #4
 235 0138 80308DE5 		str	r3, [sp, #128]
 236 013c 2400000A 		beq	.L25
 237 0140 010050E3 		cmp	r0, #1
 238 0144 0130A0E3 		mov	r3, #1
 239 0148 84308DE5 		str	r3, [sp, #132]
 240 014c 2000000A 		beq	.L25
 241 0150 020050E3 		cmp	r0, #2
 242 0154 88308DE5 		str	r3, [sp, #136]
 243 0158 1D00000A 		beq	.L25
 244 015c 030050E3 		cmp	r0, #3
 245 0160 8C308DE5 		str	r3, [sp, #140]
 246 0164 1A00000A 		beq	.L25
 247 0168 040050E3 		cmp	r0, #4
 248 016c 90308DE5 		str	r3, [sp, #144]
 249 0170 1700000A 		beq	.L25
 250              	.LEHB5:
 251 0174 FEFFFFEB 		bl	abort
 252              	.LEHE5:
 253              	.L92:
 254 0178 84308DE2 		add	r3, sp, #132
 255 017c 0221A0E1 		lsl	r2, r2, #2
 256 0180 000183E0 		add	r0, r3, r0, lsl #2
 257 0184 54108DE2 		add	r1, sp, #84
 258 0188 FEFFFFEB 		bl	memcpy
 259 018c 040075E2 		rsbs	r0, r5, #4
 260 0190 0430A0E3 		mov	r3, #4
 261 0194 98308DE5 		str	r3, [sp, #152]
 262 0198 2400000A 		beq	.L90
 263 019c 010050E3 		cmp	r0, #1
 264 01a0 0130A0E3 		mov	r3, #1
 265 01a4 9C308DE5 		str	r3, [sp, #156]
 266 01a8 2000000A 		beq	.L90
 267 01ac 020050E3 		cmp	r0, #2
 268 01b0 A0308DE5 		str	r3, [sp, #160]
 269 01b4 1D00000A 		beq	.L90
 270 01b8 030050E3 		cmp	r0, #3
 271 01bc A4308DE5 		str	r3, [sp, #164]
 272 01c0 1A00000A 		beq	.L90
 273 01c4 040050E3 		cmp	r0, #4
 274 01c8 A8308DE5 		str	r3, [sp, #168]
 275 01cc 1700000A 		beq	.L90
 276              	.LEHB6:
 277 01d0 FEFFFFEB 		bl	abort
 278              	.LEHE6:
 279              	.L25:
 280 01d4 84308DE2 		add	r3, sp, #132
 281 01d8 0221A0E1 		lsl	r2, r2, #2
 282 01dc 000183E0 		add	r0, r3, r0, lsl #2
 283 01e0 54108DE2 		add	r1, sp, #84
 284 01e4 FEFFFFEB 		bl	memcpy
 285 01e8 040075E2 		rsbs	r0, r5, #4
 286 01ec 0430A0E3 		mov	r3, #4
 287 01f0 98308DE5 		str	r3, [sp, #152]
 288 01f4 E300000A 		beq	.L23
 289 01f8 010050E3 		cmp	r0, #1
 290 01fc 0130A0E3 		mov	r3, #1
 291 0200 9C308DE5 		str	r3, [sp, #156]
 292 0204 DF00000A 		beq	.L23
 293 0208 020050E3 		cmp	r0, #2
 294 020c A0308DE5 		str	r3, [sp, #160]
 295 0210 DC00000A 		beq	.L23
 296 0214 030050E3 		cmp	r0, #3
 297 0218 A4308DE5 		str	r3, [sp, #164]
 298 021c D900000A 		beq	.L23
 299 0220 040050E3 		cmp	r0, #4
 300 0224 A8308DE5 		str	r3, [sp, #168]
 301 0228 D600000A 		beq	.L23
 302              	.LEHB7:
 303 022c FEFFFFEB 		bl	abort
 304              	.LEHE7:
 305              	.L90:
 306 0230 9C308DE2 		add	r3, sp, #156
 307 0234 0521A0E1 		lsl	r2, r5, #2
 308 0238 000183E0 		add	r0, r3, r0, lsl #2
 309 023c 6C108DE2 		add	r1, sp, #108
 310 0240 FEFFFFEB 		bl	memcpy
 311 0244 80309DE5 		ldr	r3, [sp, #128]
 312 0248 030053E3 		cmp	r3, #3
 313 024c 10308DE5 		str	r3, [sp, #16]
 314 0250 F30100DA 		ble	.L417
 315 0254 050053E3 		cmp	r3, #5
 316 0258 98809DE5 		ldr	r8, [sp, #152]
 317 025c 84209DC5 		ldrgt	r2, [sp, #132]
 318 0260 84209DD5 		ldrle	r2, [sp, #132]
 319 0264 90109DD5 		ldrle	r1, [sp, #144]
 320 0268 0C1092C5 		ldrgt	r1, [r2, #12]
 321 026c 083092C5 		ldrgt	r3, [r2, #8]
 322 0270 041092C8 		ldmgt	r2, {r2, ip}
 323 0274 8C309DD5 		ldrle	r3, [sp, #140]
 324 0278 88C09DD5 		ldrle	ip, [sp, #136]
 325 027c 030058E3 		cmp	r8, #3
 326 0280 40208DE5 		str	r2, [sp, #64]
 327 0284 030200DA 		ble	.L418
 328 0288 050058E3 		cmp	r8, #5
 329 028c 7B0100CA 		bgt	.L419
 330 0290 A4209DE5 		ldr	r2, [sp, #164]
 331 0294 A8509DE5 		ldr	r5, [sp, #168]
 332 0298 A0009DE5 		ldr	r0, [sp, #160]
 333 029c 14208DE5 		str	r2, [sp, #20]
 334 02a0 9C209DE5 		ldr	r2, [sp, #156]
 335              	.L103:
 336 02a4 930A03E0 		mul	r3, r3, r10
 337 02a8 14E09DE5 		ldr	lr, [sp, #20]
 338 02ac 03005EE1 		cmp	lr, r3
 339 02b0 F701001A 		bne	.L420
 340 02b4 9C0A03E0 		mul	r3, ip, r10
 341 02b8 000053E1 		cmp	r3, r0
 342 02bc 3C308DE5 		str	r3, [sp, #60]
 343 02c0 F501001A 		bne	.L421
 344 02c4 950A03E0 		mul	r3, r5, r10
 345 02c8 9A0303E0 		mul	r3, r10, r3
 346 02cc 030051E1 		cmp	r1, r3
 347 02d0 F201001A 		bne	.L422
 348 02d4 40309DE5 		ldr	r3, [sp, #64]
 349 02d8 020053E1 		cmp	r3, r2
 350 02dc EB01001A 		bne	.L107
 351 02e0 000053E3 		cmp	r3, #0
 352 02e4 8A0000DA 		ble	.L112
 353 02e8 A0309DE5 		ldr	r3, [sp, #160]
 354 02ec A8B09DE5 		ldr	fp, [sp, #168]
 355 02f0 8C609DE5 		ldr	r6, [sp, #140]
 356 02f4 0310A0E1 		mov	r1, r3
 357 02f8 24308DE5 		str	r3, [sp, #36]
 358 02fc 0030A0E3 		mov	r3, #0
 359 0300 90709DE5 		ldr	r7, [sp, #144]
 360 0304 0320A0E1 		mov	r2, r3
 361 0308 1C308DE5 		str	r3, [sp, #28]
 362 030c 04208DE5 		str	r2, [sp, #4]
 363 0310 84209DE5 		ldr	r2, [sp, #132]
 364 0314 A4309DE5 		ldr	r3, [sp, #164]
 365 0318 34408DE5 		str	r4, [sp, #52]
 366 031c 2C208DE5 		str	r2, [sp, #44]
 367 0320 88209DE5 		ldr	r2, [sp, #136]
 368 0324 30308DE5 		str	r3, [sp, #48]
 369 0328 20208DE5 		str	r2, [sp, #32]
 370 032c 0320A0E1 		mov	r2, r3
 371 0330 930103E0 		mul	r3, r3, r1
 372 0334 9B0202E0 		mul	r2, fp, r2
 373 0338 9B0303E0 		mul	r3, fp, r3
 374 033c 44208DE5 		str	r2, [sp, #68]
 375 0340 9C209DE5 		ldr	r2, [sp, #156]
 376 0344 48308DE5 		str	r3, [sp, #72]
 377 0348 18208DE5 		str	r2, [sp, #24]
 378              	.L113:
 379 034c 3C309DE5 		ldr	r3, [sp, #60]
 380 0350 000053E3 		cmp	r3, #0
 381 0354 600000DA 		ble	.L115
 382 0358 34309DE5 		ldr	r3, [sp, #52]
 383 035c 38308DE5 		str	r3, [sp, #56]
 384 0360 0030A0E3 		mov	r3, #0
 385 0364 00308DE5 		str	r3, [sp]
 386              	.L111:
 387 0368 14309DE5 		ldr	r3, [sp, #20]
 388 036c 000053E3 		cmp	r3, #0
 389 0370 38209DC5 		ldrgt	r2, [sp, #56]
 390 0374 0090A0C3 		movgt	r9, #0
 391 0378 4D0000DA 		ble	.L117
 392              	.L114:
 393 037c 000055E3 		cmp	r5, #0
 394 0380 460000DA 		ble	.L140
 395 0384 0A10A0E1 		mov	r1, r10
 396 0388 00009DE5 		ldr	r0, [sp]
 397 038c 0C208DE5 		str	r2, [sp, #12]
 398 0390 FEFFFFEB 		bl	__aeabi_idivmod
 399 0394 9A0104E0 		mul	r4, r10, r1
 400 0398 0900A0E1 		mov	r0, r9
 401 039c 0A10A0E1 		mov	r1, r10
 402 03a0 FEFFFFEB 		bl	__aeabi_idivmod
 403 03a4 013084E0 		add	r3, r4, r1
 404 03a8 0900A0E1 		mov	r0, r9
 405 03ac 950303E0 		mul	r3, r5, r3
 406 03b0 0A10A0E1 		mov	r1, r10
 407 03b4 08308DE5 		str	r3, [sp, #8]
 408 03b8 FEFFFFEB 		bl	__aeabi_idiv
 409 03bc 0A10A0E1 		mov	r1, r10
 410 03c0 0040A0E1 		mov	r4, r0
 411 03c4 00009DE5 		ldr	r0, [sp]
 412 03c8 FEFFFFEB 		bl	__aeabi_idiv
 413 03cc 10309DE5 		ldr	r3, [sp, #16]
 414 03d0 040053E3 		cmp	r3, #4
 415 03d4 6001001A 		bne	.L118
 416 03d8 2C309DE5 		ldr	r3, [sp, #44]
 417 03dc 04209DE5 		ldr	r2, [sp, #4]
 418 03e0 020053E1 		cmp	r3, r2
 419 03e4 470100DA 		ble	.L119
 420 03e8 000050E3 		cmp	r0, #0
 421 03ec 4D0100BA 		blt	.L120
 422 03f0 20309DE5 		ldr	r3, [sp, #32]
 423 03f4 000053E1 		cmp	r3, r0
 424 03f8 4A0100DA 		ble	.L120
 425 03fc 1C309DE5 		ldr	r3, [sp, #28]
 426 0400 000054E3 		cmp	r4, #0
 427 0404 0C209DE5 		ldr	r2, [sp, #12]
 428 0408 030080E0 		add	r0, r0, r3
 429 040c 08309DE5 		ldr	r3, [sp, #8]
 430 0410 964020E0 		mla	r0, r6, r0, r4
 431 0414 970000E0 		mul	r0, r7, r0
 432 0418 430100BA 		blt	.L122
 433 041c 30109DE5 		ldr	r1, [sp, #48]
 434 0420 010059E1 		cmp	r9, r1
 435 0424 860100AA 		bge	.L423
 436 0428 00109DE5 		ldr	r1, [sp]
 437 042c 24C09DE5 		ldr	ip, [sp, #36]
 438 0430 0C0051E1 		cmp	r1, ip
 439 0434 4C0100AA 		bge	.L424
 440 0438 04109DE5 		ldr	r1, [sp, #4]
 441 043c 18C09DE5 		ldr	ip, [sp, #24]
 442 0440 0C0051E1 		cmp	r1, ip
 443 0444 A10100AA 		bge	.L378
 444 0448 28109DE5 		ldr	r1, [sp, #40]
 445 044c 000083E0 		add	r0, r3, r0
 446 0450 02C0A0E1 		mov	ip, r2
 447 0454 000081E0 		add	r0, r1, r0
 448 0458 0010A0E3 		mov	r1, #0
 449 045c 000000EA 		b	.L123
 450              	.L323:
 451 0460 013083E2 		add	r3, r3, #1
 452              	.L123:
 453 0464 060054E1 		cmp	r4, r6
 454 0468 2F0100AA 		bge	.L122
 455 046c 000053E3 		cmp	r3, #0
 456 0470 320100BA 		blt	.L127
 457 0474 070053E1 		cmp	r3, r7
 458 0478 300100AA 		bge	.L127
 459 047c 040058E3 		cmp	r8, #4
 460 0480 3401001A 		bne	.L129
 461 0484 0B0051E1 		cmp	r1, fp
 462 0488 2D0100AA 		bge	.L425
 463 048c 011081E2 		add	r1, r1, #1
 464 0490 D1E0D0E0 		ldrsb	lr, [r0], #1
 465 0494 010055E1 		cmp	r5, r1
 466 0498 01E0CCE4 		strb	lr, [ip], #1
 467 049c EFFFFFCA 		bgt	.L323
 468              	.L140:
 469 04a0 14309DE5 		ldr	r3, [sp, #20]
 470 04a4 019089E2 		add	r9, r9, #1
 471 04a8 0B2082E0 		add	r2, r2, fp
 472 04ac 090053E1 		cmp	r3, r9
 473 04b0 B1FFFF1A 		bne	.L114
 474              	.L117:
 475 04b4 38209DE5 		ldr	r2, [sp, #56]
 476 04b8 44109DE5 		ldr	r1, [sp, #68]
 477 04bc 00309DE5 		ldr	r3, [sp]
 478 04c0 012082E0 		add	r2, r2, r1
 479 04c4 38208DE5 		str	r2, [sp, #56]
 480 04c8 013083E2 		add	r3, r3, #1
 481 04cc 3C209DE5 		ldr	r2, [sp, #60]
 482 04d0 00308DE5 		str	r3, [sp]
 483 04d4 030052E1 		cmp	r2, r3
 484 04d8 A2FFFF1A 		bne	.L111
 485              	.L115:
 486 04dc 34209DE5 		ldr	r2, [sp, #52]
 487 04e0 48109DE5 		ldr	r1, [sp, #72]
 488 04e4 04309DE5 		ldr	r3, [sp, #4]
 489 04e8 012082E0 		add	r2, r2, r1
 490 04ec 34208DE5 		str	r2, [sp, #52]
 491 04f0 013083E2 		add	r3, r3, #1
 492 04f4 40209DE5 		ldr	r2, [sp, #64]
 493 04f8 04308DE5 		str	r3, [sp, #4]
 494 04fc 020053E1 		cmp	r3, r2
 495 0500 1C309DE5 		ldr	r3, [sp, #28]
 496 0504 20209DE5 		ldr	r2, [sp, #32]
 497 0508 023083E0 		add	r3, r3, r2
 498 050c 1C308DE5 		str	r3, [sp, #28]
 499 0510 8DFFFF1A 		bne	.L113
 500              	.L112:
 501 0514 050058E3 		cmp	r8, #5
 502 0518 030000DA 		ble	.L110
 503 051c 9C009DE5 		ldr	r0, [sp, #156]
 504 0520 000050E3 		cmp	r0, #0
 505 0524 0000000A 		beq	.L110
 506 0528 FEFFFFEB 		bl	_ZdaPv
 507              	.L110:
 508 052c 10309DE5 		ldr	r3, [sp, #16]
 509 0530 050053E3 		cmp	r3, #5
 510 0534 030000DA 		ble	.L142
 511 0538 84009DE5 		ldr	r0, [sp, #132]
 512 053c 000050E3 		cmp	r0, #0
 513 0540 0000000A 		beq	.L142
 514 0544 FEFFFFEB 		bl	_ZdaPv
 515              	.L142:
 516 0548 68309DE5 		ldr	r3, [sp, #104]
 517 054c 050053E3 		cmp	r3, #5
 518 0550 030000DA 		ble	.L144
 519 0554 6C009DE5 		ldr	r0, [sp, #108]
 520 0558 000050E3 		cmp	r0, #0
 521 055c 0000000A 		beq	.L144
 522 0560 FEFFFFEB 		bl	_ZdaPv
 523              	.L144:
 524 0564 50309DE5 		ldr	r3, [sp, #80]
 525 0568 050053E3 		cmp	r3, #5
 526 056c 030000DA 		ble	.L152
 527 0570 54009DE5 		ldr	r0, [sp, #84]
 528 0574 000050E3 		cmp	r0, #0
 529 0578 0000000A 		beq	.L152
 530 057c FEFFFFEB 		bl	_ZdaPv
 531              	.L152:
 532 0580 0000A0E3 		mov	r0, #0
 533 0584 D7FEFFEA 		b	.L318
 534              	.L23:
 535 0588 9C308DE2 		add	r3, sp, #156
 536 058c 0521A0E1 		lsl	r2, r5, #2
 537 0590 000183E0 		add	r0, r3, r0, lsl #2
 538 0594 6C108DE2 		add	r1, sp, #108
 539 0598 FEFFFFEB 		bl	memcpy
 540 059c 80309DE5 		ldr	r3, [sp, #128]
 541 05a0 030053E3 		cmp	r3, #3
 542 05a4 10308DE5 		str	r3, [sp, #16]
 543 05a8 1A0100DA 		ble	.L426
 544 05ac 050053E3 		cmp	r3, #5
 545 05b0 98809DE5 		ldr	r8, [sp, #152]
 546 05b4 84309DC5 		ldrgt	r3, [sp, #132]
 547 05b8 84309DD5 		ldrle	r3, [sp, #132]
 548 05bc 90109DD5 		ldrle	r1, [sp, #144]
 549 05c0 0C1093C5 		ldrgt	r1, [r3, #12]
 550 05c4 014093C9 		ldmibgt	r3, {r0, lr}
 551 05c8 003093C5 		ldrgt	r3, [r3]
 552 05cc 8CE09DD5 		ldrle	lr, [sp, #140]
 553 05d0 88009DD5 		ldrle	r0, [sp, #136]
 554 05d4 030058E3 		cmp	r8, #3
 555 05d8 44308DE5 		str	r3, [sp, #68]
 556 05dc 0E0100DA 		ble	.L427
 557 05e0 050058E3 		cmp	r8, #5
 558 05e4 9E0A0EE0 		mul	lr, lr, r10
 559 05e8 9C209DC5 		ldrgt	r2, [sp, #156]
 560 05ec 9C208DD2 		addle	r2, sp, #156
 561 05f0 A8509DD5 		ldrle	r5, [sp, #168]
 562 05f4 0C5092C5 		ldrgt	r5, [r2, #12]
 563 05f8 0C1092E8 		ldm	r2, {r2, r3, ip}
 564 05fc 14E08DE5 		str	lr, [sp, #20]
 565 0600 0C005EE1 		cmp	lr, ip
 566 0604 0701001A 		bne	.L428
 567 0608 900A00E0 		mul	r0, r0, r10
 568 060c 030050E1 		cmp	r0, r3
 569 0610 40008DE5 		str	r0, [sp, #64]
 570 0614 0101001A 		bne	.L429
 571 0618 950A03E0 		mul	r3, r5, r10
 572 061c 9A0303E0 		mul	r3, r10, r3
 573 0620 010053E1 		cmp	r3, r1
 574 0624 3201001A 		bne	.L430
 575 0628 44309DE5 		ldr	r3, [sp, #68]
 576 062c 020053E1 		cmp	r3, r2
 577 0630 1401001A 		bne	.L40
 578 0634 000053E3 		cmp	r3, #0
 579 0638 B5FFFFDA 		ble	.L112
 580 063c A0309DE5 		ldr	r3, [sp, #160]
 581 0640 A8B09DE5 		ldr	fp, [sp, #168]
 582 0644 8C609DE5 		ldr	r6, [sp, #140]
 583 0648 0310A0E1 		mov	r1, r3
 584 064c 20308DE5 		str	r3, [sp, #32]
 585 0650 0030A0E3 		mov	r3, #0
 586 0654 90709DE5 		ldr	r7, [sp, #144]
 587 0658 0320A0E1 		mov	r2, r3
 588 065c 1C308DE5 		str	r3, [sp, #28]
 589 0660 04208DE5 		str	r2, [sp, #4]
 590 0664 84209DE5 		ldr	r2, [sp, #132]
 591 0668 A4309DE5 		ldr	r3, [sp, #164]
 592 066c 3C408DE5 		str	r4, [sp, #60]
 593 0670 30208DE5 		str	r2, [sp, #48]
 594 0674 88209DE5 		ldr	r2, [sp, #136]
 595 0678 2C308DE5 		str	r3, [sp, #44]
 596 067c 24208DE5 		str	r2, [sp, #36]
 597 0680 0320A0E1 		mov	r2, r3
 598 0684 930103E0 		mul	r3, r3, r1
 599 0688 0B11A0E1 		lsl	r1, fp, #2
 600 068c 9B0202E0 		mul	r2, fp, r2
 601 0690 34108DE5 		str	r1, [sp, #52]
 602 0694 9C109DE5 		ldr	r1, [sp, #156]
 603 0698 0331A0E1 		lsl	r3, r3, #2
 604 069c 9B0303E0 		mul	r3, fp, r3
 605 06a0 18108DE5 		str	r1, [sp, #24]
 606 06a4 4C308DE5 		str	r3, [sp, #76]
 607 06a8 0231A0E1 		lsl	r3, r2, #2
 608 06ac 48308DE5 		str	r3, [sp, #72]
 609              	.L46:
 610 06b0 40309DE5 		ldr	r3, [sp, #64]
 611 06b4 000053E3 		cmp	r3, #0
 612 06b8 610000DA 		ble	.L48
 613 06bc 3C309DE5 		ldr	r3, [sp, #60]
 614 06c0 38308DE5 		str	r3, [sp, #56]
 615 06c4 0030A0E3 		mov	r3, #0
 616 06c8 00308DE5 		str	r3, [sp]
 617              	.L44:
 618 06cc 14309DE5 		ldr	r3, [sp, #20]
 619 06d0 000053E3 		cmp	r3, #0
 620 06d4 38209DC5 		ldrgt	r2, [sp, #56]
 621 06d8 0090A0C3 		movgt	r9, #0
 622 06dc 4E0000DA 		ble	.L50
 623              	.L47:
 624 06e0 000055E3 		cmp	r5, #0
 625 06e4 460000DA 		ble	.L73
 626 06e8 0A10A0E1 		mov	r1, r10
 627 06ec 00009DE5 		ldr	r0, [sp]
 628 06f0 0C208DE5 		str	r2, [sp, #12]
 629 06f4 FEFFFFEB 		bl	__aeabi_idivmod
 630 06f8 9A0104E0 		mul	r4, r10, r1
 631 06fc 0900A0E1 		mov	r0, r9
 632 0700 0A10A0E1 		mov	r1, r10
 633 0704 FEFFFFEB 		bl	__aeabi_idivmod
 634 0708 013084E0 		add	r3, r4, r1
 635 070c 0900A0E1 		mov	r0, r9
 636 0710 950303E0 		mul	r3, r5, r3
 637 0714 0A10A0E1 		mov	r1, r10
 638 0718 08308DE5 		str	r3, [sp, #8]
 639 071c FEFFFFEB 		bl	__aeabi_idiv
 640 0720 0A10A0E1 		mov	r1, r10
 641 0724 0040A0E1 		mov	r4, r0
 642 0728 00009DE5 		ldr	r0, [sp]
 643 072c FEFFFFEB 		bl	__aeabi_idiv
 644 0730 10309DE5 		ldr	r3, [sp, #16]
 645 0734 040053E3 		cmp	r3, #4
 646 0738 8800001A 		bne	.L51
 647 073c 04309DE5 		ldr	r3, [sp, #4]
 648 0740 30209DE5 		ldr	r2, [sp, #48]
 649 0744 020053E1 		cmp	r3, r2
 650 0748 7F0000AA 		bge	.L52
 651 074c 000050E3 		cmp	r0, #0
 652 0750 7E0000BA 		blt	.L53
 653 0754 24309DE5 		ldr	r3, [sp, #36]
 654 0758 030050E1 		cmp	r0, r3
 655 075c 7B0000AA 		bge	.L53
 656 0760 1C309DE5 		ldr	r3, [sp, #28]
 657 0764 000054E3 		cmp	r4, #0
 658 0768 0C209DE5 		ldr	r2, [sp, #12]
 659 076c 030080E0 		add	r0, r0, r3
 660 0770 08309DE5 		ldr	r3, [sp, #8]
 661 0774 964020E0 		mla	r0, r6, r0, r4
 662 0778 970000E0 		mul	r0, r7, r0
 663 077c 740000BA 		blt	.L55
 664 0780 2C109DE5 		ldr	r1, [sp, #44]
 665 0784 090051E1 		cmp	r1, r9
 666 0788 840000DA 		ble	.L431
 667 078c 00109DE5 		ldr	r1, [sp]
 668 0790 20C09DE5 		ldr	ip, [sp, #32]
 669 0794 0C0051E1 		cmp	r1, ip
 670 0798 910000AA 		bge	.L432
 671 079c 18109DE5 		ldr	r1, [sp, #24]
 672 07a0 04C09DE5 		ldr	ip, [sp, #4]
 673 07a4 0C0051E1 		cmp	r1, ip
 674 07a8 BF0000DA 		ble	.L373
 675 07ac 28109DE5 		ldr	r1, [sp, #40]
 676 07b0 030080E0 		add	r0, r0, r3
 677 07b4 02C0A0E1 		mov	ip, r2
 678 07b8 000181E0 		add	r0, r1, r0, lsl #2
 679 07bc 0010A0E3 		mov	r1, #0
 680 07c0 000000EA 		b	.L56
 681              	.L317:
 682 07c4 013083E2 		add	r3, r3, #1
 683              	.L56:
 684 07c8 040056E1 		cmp	r6, r4
 685 07cc 600000DA 		ble	.L55
 686 07d0 000053E3 		cmp	r3, #0
 687 07d4 550000BA 		blt	.L60
 688 07d8 030057E1 		cmp	r7, r3
 689 07dc 530000DA 		ble	.L60
 690 07e0 040058E3 		cmp	r8, #4
 691 07e4 5E00001A 		bne	.L62
 692 07e8 01005BE1 		cmp	fp, r1
 693 07ec 510000DA 		ble	.L433
 694 07f0 011081E2 		add	r1, r1, #1
 695 07f4 04E090E4 		ldr	lr, [r0], #4	@ float
 696 07f8 050051E1 		cmp	r1, r5
 697 07fc 04E08CE4 		str	lr, [ip], #4	@ float
 698 0800 EFFFFFBA 		blt	.L317
 699              	.L73:
 700 0804 34309DE5 		ldr	r3, [sp, #52]
 701 0808 019089E2 		add	r9, r9, #1
 702 080c 032082E0 		add	r2, r2, r3
 703 0810 14309DE5 		ldr	r3, [sp, #20]
 704 0814 090053E1 		cmp	r3, r9
 705 0818 B0FFFF1A 		bne	.L47
 706              	.L50:
 707 081c 38209DE5 		ldr	r2, [sp, #56]
 708 0820 48109DE5 		ldr	r1, [sp, #72]
 709 0824 00309DE5 		ldr	r3, [sp]
 710 0828 012082E0 		add	r2, r2, r1
 711 082c 38208DE5 		str	r2, [sp, #56]
 712 0830 013083E2 		add	r3, r3, #1
 713 0834 40209DE5 		ldr	r2, [sp, #64]
 714 0838 00308DE5 		str	r3, [sp]
 715 083c 030052E1 		cmp	r2, r3
 716 0840 A1FFFF1A 		bne	.L44
 717              	.L48:
 718 0844 3C209DE5 		ldr	r2, [sp, #60]
 719 0848 4C109DE5 		ldr	r1, [sp, #76]
 720 084c 04309DE5 		ldr	r3, [sp, #4]
 721 0850 012082E0 		add	r2, r2, r1
 722 0854 3C208DE5 		str	r2, [sp, #60]
 723 0858 013083E2 		add	r3, r3, #1
 724 085c 44209DE5 		ldr	r2, [sp, #68]
 725 0860 04308DE5 		str	r3, [sp, #4]
 726 0864 020053E1 		cmp	r3, r2
 727 0868 1C309DE5 		ldr	r3, [sp, #28]
 728 086c 24209DE5 		ldr	r2, [sp, #36]
 729 0870 023083E0 		add	r3, r3, r2
 730 0874 1C308DE5 		str	r3, [sp, #28]
 731 0878 8CFFFF1A 		bne	.L46
 732 087c 24FFFFEA 		b	.L112
 733              	.L419:
 734 0880 9C209DE5 		ldr	r2, [sp, #156]
 735 0884 080092E5 		ldr	r0, [r2, #8]
 736 0888 0C5092E5 		ldr	r5, [r2, #12]
 737 088c 14008DE5 		str	r0, [sp, #20]
 738 0890 040092E5 		ldr	r0, [r2, #4]
 739 0894 002092E5 		ldr	r2, [r2]
 740 0898 81FEFFEA 		b	.L103
 741              	.L172:
 742              	.L340:
 743 089c 80309DE5 		ldr	r3, [sp, #128]
 744 08a0 10308DE5 		str	r3, [sp, #16]
 745              	.L97:
 746 08a4 10309DE5 		ldr	r3, [sp, #16]
 747 08a8 050053E3 		cmp	r3, #5
 748 08ac 030000DA 		ble	.L151
 749 08b0 84009DE5 		ldr	r0, [sp, #132]
 750 08b4 000050E3 		cmp	r0, #0
 751 08b8 0000000A 		beq	.L151
 752 08bc FEFFFFEB 		bl	_ZdaPv
 753              	.L151:
 754 08c0 68309DE5 		ldr	r3, [sp, #104]
 755 08c4 050053E3 		cmp	r3, #5
 756 08c8 030000DA 		ble	.L157
 757 08cc 6C009DE5 		ldr	r0, [sp, #108]
 758 08d0 000050E3 		cmp	r0, #0
 759 08d4 0000000A 		beq	.L157
 760 08d8 FEFFFFEB 		bl	_ZdaPv
 761              	.L157:
 762 08dc 50309DE5 		ldr	r3, [sp, #80]
 763 08e0 050053E3 		cmp	r3, #5
 764 08e4 030000DA 		ble	.L158
 765 08e8 54009DE5 		ldr	r0, [sp, #84]
 766 08ec 000050E3 		cmp	r0, #0
 767 08f0 0000000A 		beq	.L158
 768 08f4 FEFFFFEB 		bl	_ZdaPv
 769              	.L158:
 770              	.LEHB8:
 771 08f8 FEFFFFEB 		bl	__cxa_end_cleanup
 772              	.LEHE8:
 773              	.L169:
 774 08fc EFFFFFEA 		b	.L151
 775              	.L167:
 776 0900 EEFFFFEA 		b	.L151
 777              	.L175:
 778 0904 E4FFFFEA 		b	.L340
 779              	.L119:
 780              	.LEHB9:
 781 0908 FEFFFFEB 		bl	abort
 782              	.L171:
 783              	.L146:
 784 090c 050058E3 		cmp	r8, #5
 785 0910 E3FFFFDA 		ble	.L97
 786 0914 9C009DE5 		ldr	r0, [sp, #156]
 787 0918 000050E3 		cmp	r0, #0
 788 091c E0FFFF0A 		beq	.L97
 789 0920 FEFFFFEB 		bl	_ZdaPv
 790 0924 DCFFFFEA 		b	.L340
 791              	.L120:
 792 0928 FEFFFFEB 		bl	abort
 793              	.L122:
 794 092c FEFFFFEB 		bl	abort
 795              	.LEHE9:
 796              	.L60:
 797              	.LEHB10:
 798 0930 FEFFFFEB 		bl	abort
 799              	.LEHE10:
 800              	.L170:
 801 0934 F4FFFFEA 		b	.L146
 802              	.L433:
 803              	.LEHB11:
 804 0938 FEFFFFEB 		bl	abort
 805              	.LEHE11:
 806              	.L174:
 807 093c D8FFFFEA 		b	.L97
 808              	.L127:
 809              	.LEHB12:
 810 0940 FEFFFFEB 		bl	abort
 811              	.LEHE12:
 812              	.L425:
 813              	.LEHB13:
 814 0944 FEFFFFEB 		bl	abort
 815              	.LEHE13:
 816              	.L177:
 817 0948 D5FFFFEA 		b	.L97
 818              	.L52:
 819              	.LEHB14:
 820 094c FEFFFFEB 		bl	abort
 821              	.L53:
 822 0950 FEFFFFEB 		bl	abort
 823              	.L55:
 824 0954 FEFFFFEB 		bl	abort
 825              	.LEHE14:
 826              	.L129:
 827              	.LEHB15:
 828 0958 FEFFFFEB 		bl	abort
 829              	.L118:
 830 095c FEFFFFEB 		bl	abort
 831              	.LEHE15:
 832              	.L51:
 833              	.LEHB16:
 834 0960 FEFFFFEB 		bl	abort
 835              	.L62:
 836 0964 FEFFFFEB 		bl	abort
 837              	.LEHE16:
 838              	.L413:
 839              	.LEHB17:
 840 0968 FEFFFFEB 		bl	abort
 841              	.LEHE17:
 842              	.L424:
 843 096c 04209DE5 		ldr	r2, [sp, #4]
 844 0970 18109DE5 		ldr	r1, [sp, #24]
 845              	.L386:
 846 0974 010052E1 		cmp	r2, r1
 847 0978 540000AA 		bge	.L378
 848 097c 060054E1 		cmp	r4, r6
 849 0980 E9FFFFAA 		bge	.L122
 850 0984 000053E3 		cmp	r3, #0
 851 0988 ECFFFFBA 		blt	.L127
 852 098c 070053E1 		cmp	r3, r7
 853 0990 EAFFFFAA 		bge	.L127
 854 0994 040058E3 		cmp	r8, #4
 855 0998 EEFFFF1A 		bne	.L129
 856              	.LEHB18:
 857 099c FEFFFFEB 		bl	abort
 858              	.LEHE18:
 859              	.L431:
 860 09a0 00209DE5 		ldr	r2, [sp]
 861 09a4 20109DE5 		ldr	r1, [sp, #32]
 862 09a8 010052E1 		cmp	r2, r1
 863 09ac 18209DE5 		ldr	r2, [sp, #24]
 864 09b0 04109DE5 		ldr	r1, [sp, #4]
 865 09b4 0C0000AA 		bge	.L384
 866 09b8 010052E1 		cmp	r2, r1
 867 09bc 3A0000DA 		ble	.L373
 868 09c0 040056E1 		cmp	r6, r4
 869 09c4 E2FFFFDA 		ble	.L55
 870 09c8 000053E3 		cmp	r3, #0
 871 09cc D7FFFFBA 		blt	.L60
 872 09d0 030057E1 		cmp	r7, r3
 873 09d4 D5FFFFDA 		ble	.L60
 874 09d8 040058E3 		cmp	r8, #4
 875 09dc E0FFFF1A 		bne	.L62
 876              	.LEHB19:
 877 09e0 FEFFFFEB 		bl	abort
 878              	.L432:
 879 09e4 18209DE5 		ldr	r2, [sp, #24]
 880 09e8 04109DE5 		ldr	r1, [sp, #4]
 881              	.L384:
 882 09ec 010052E1 		cmp	r2, r1
 883 09f0 2D0000DA 		ble	.L373
 884 09f4 040056E1 		cmp	r6, r4
 885 09f8 D5FFFFDA 		ble	.L55
 886 09fc 000053E3 		cmp	r3, #0
 887 0a00 CAFFFFBA 		blt	.L60
 888 0a04 030057E1 		cmp	r7, r3
 889 0a08 C8FFFFDA 		ble	.L60
 890 0a0c 040058E3 		cmp	r8, #4
 891 0a10 D3FFFF1A 		bne	.L62
 892 0a14 FEFFFFEB 		bl	abort
 893              	.LEHE19:
 894              	.L426:
 895              	.LEHB20:
 896 0a18 FEFFFFEB 		bl	abort
 897              	.LEHE20:
 898              	.L427:
 899              	.LEHB21:
 900 0a1c FEFFFFEB 		bl	abort
 901              	.LEHE21:
 902              	.L429:
 903              	.LEHB22:
 904 0a20 FEFFFFEB 		bl	abort
 905              	.LEHE22:
 906              	.L417:
 907              	.LEHB23:
 908 0a24 FEFFFFEB 		bl	abort
 909              	.LEHE23:
 910              	.L428:
 911              	.LEHB24:
 912 0a28 FEFFFFEB 		bl	abort
 913              	.LEHE24:
 914              	.L173:
 915              	.L407:
 916 0a2c 98809DE5 		ldr	r8, [sp, #152]
 917 0a30 B5FFFFEA 		b	.L146
 918              	.L176:
 919 0a34 FCFFFFEA 		b	.L407
 920              	.L414:
 921              	.LEHB25:
 922 0a38 FEFFFFEB 		bl	abort
 923              	.LEHE25:
 924              	.L415:
 925              	.LEHB26:
 926 0a3c FEFFFFEB 		bl	abort
 927              	.L416:
 928 0a40 FEFFFFEB 		bl	abort
 929              	.LEHE26:
 930              	.L423:
 931 0a44 00209DE5 		ldr	r2, [sp]
 932 0a48 24109DE5 		ldr	r1, [sp, #36]
 933 0a4c 010052E1 		cmp	r2, r1
 934 0a50 04209DE5 		ldr	r2, [sp, #4]
 935 0a54 18109DE5 		ldr	r1, [sp, #24]
 936 0a58 C5FFFFAA 		bge	.L386
 937 0a5c 010052E1 		cmp	r2, r1
 938 0a60 1A0000AA 		bge	.L378
 939 0a64 060054E1 		cmp	r4, r6
 940 0a68 AFFFFFAA 		bge	.L122
 941 0a6c 000053E3 		cmp	r3, #0
 942 0a70 B2FFFFBA 		blt	.L127
 943 0a74 070053E1 		cmp	r3, r7
 944 0a78 B0FFFFAA 		bge	.L127
 945 0a7c 040058E3 		cmp	r8, #4
 946 0a80 B4FFFF1A 		bne	.L129
 947              	.LEHB27:
 948 0a84 FEFFFFEB 		bl	abort
 949              	.LEHE27:
 950              	.L40:
 951              	.LEHB28:
 952 0a88 FEFFFFEB 		bl	abort
 953              	.LEHE28:
 954              	.L166:
 955 0a8c 92FFFFEA 		b	.L157
 956              	.L107:
 957              	.LEHB29:
 958 0a90 FEFFFFEB 		bl	abort
 959              	.L420:
 960 0a94 FEFFFFEB 		bl	abort
 961              	.LEHE29:
 962              	.L418:
 963              	.LEHB30:
 964 0a98 FEFFFFEB 		bl	abort
 965              	.LEHE30:
 966              	.L421:
 967              	.LEHB31:
 968 0a9c FEFFFFEB 		bl	abort
 969              	.L422:
 970 0aa0 FEFFFFEB 		bl	abort
 971              	.LEHE31:
 972              	.L411:
 973              	.LEHB32:
 974 0aa4 FEFFFFEB 		bl	abort
 975              	.LEHE32:
 976              	.L168:
 977 0aa8 8BFFFFEA 		b	.L157
 978              	.L373:
 979 0aac 040056E1 		cmp	r6, r4
 980 0ab0 A7FFFFDA 		ble	.L55
 981 0ab4 000053E3 		cmp	r3, #0
 982 0ab8 9CFFFFBA 		blt	.L60
 983 0abc 030057E1 		cmp	r7, r3
 984 0ac0 9AFFFFDA 		ble	.L60
 985 0ac4 040058E3 		cmp	r8, #4
 986 0ac8 A5FFFF1A 		bne	.L62
 987              	.LEHB33:
 988 0acc FEFFFFEB 		bl	abort
 989              	.LEHE33:
 990              	.L378:
 991 0ad0 060054E1 		cmp	r4, r6
 992 0ad4 94FFFFAA 		bge	.L122
 993 0ad8 000053E3 		cmp	r3, #0
 994 0adc 97FFFFBA 		blt	.L127
 995 0ae0 070053E1 		cmp	r3, r7
 996 0ae4 95FFFFAA 		bge	.L127
 997 0ae8 040058E3 		cmp	r8, #4
 998 0aec 99FFFF1A 		bne	.L129
 999              	.LEHB34:
 1000 0af0 FEFFFFEB 		bl	abort
 1001              	.LEHE34:
 1002              	.L430:
 1003              	.LEHB35:
 1004 0af4 FEFFFFEB 		bl	abort
 1005              	.LEHE35:
 1006              		.global	__gxx_personality_v0
 1007              		.personality	__gxx_personality_v0
 1008              		.handlerdata
 1009              	.LLSDA915:
 1010 0008 FF       		.byte	0xff
 1011 0009 FF       		.byte	0xff
 1012 000a 01       		.byte	0x1
 1013 000b D201     		.uleb128 .LLSDACSE915-.LLSDACSB915
 1014              	.LLSDACSB915:
 1015 000d 24       		.uleb128 .LEHB0-.LFB915
 1016 000e 44       		.uleb128 .LEHE0-.LEHB0
 1017 000f 00       		.uleb128 0
 1018 0010 00       		.uleb128 0
 1019 0011 78       		.uleb128 .LEHB1-.LFB915
 1020 0012 04       		.uleb128 .LEHE1-.LEHB1
 1021 0013 A815     		.uleb128 .L168-.LFB915
 1022 0015 00       		.uleb128 0
 1023 0016 E001     		.uleb128 .LEHB2-.LFB915
 1024 0018 04       		.uleb128 .LEHE2-.LEHB2
 1025 0019 FC11     		.uleb128 .L169-.LFB915
 1026 001b 00       		.uleb128 0
 1027 001c F801     		.uleb128 .LEHB3-.LFB915
 1028 001e 04       		.uleb128 .LEHE3-.LEHB3
 1029 001f 00       		.uleb128 0
 1030 0020 00       		.uleb128 0
 1031 0021 8C02     		.uleb128 .LEHB4-.LFB915
 1032 0023 04       		.uleb128 .LEHE4-.LEHB4
 1033 0024 8C15     		.uleb128 .L166-.LFB915
 1034 0026 00       		.uleb128 0
 1035 0027 F402     		.uleb128 .LEHB5-.LFB915
 1036 0029 04       		.uleb128 .LEHE5-.LEHB5
 1037 002a 8012     		.uleb128 .L167-.LFB915
 1038 002c 00       		.uleb128 0
 1039 002d D003     		.uleb128 .LEHB6-.LFB915
 1040 002f 04       		.uleb128 .LEHE6-.LEHB6
 1041 0030 8412     		.uleb128 .L175-.LFB915
 1042 0032 00       		.uleb128 0
 1043 0033 AC04     		.uleb128 .LEHB7-.LFB915
 1044 0035 04       		.uleb128 .LEHE7-.LEHB7
 1045 0036 9C11     		.uleb128 .L172-.LFB915
 1046 0038 00       		.uleb128 0
 1047 0039 F811     		.uleb128 .LEHB8-.LFB915
 1048 003b 04       		.uleb128 .LEHE8-.LEHB8
 1049 003c 00       		.uleb128 0
 1050 003d 00       		.uleb128 0
 1051 003e 8812     		.uleb128 .LEHB9-.LFB915
 1052 0040 28       		.uleb128 .LEHE9-.LEHB9
 1053 0041 8C12     		.uleb128 .L171-.LFB915
 1054 0043 00       		.uleb128 0
 1055 0044 B012     		.uleb128 .LEHB10-.LFB915
 1056 0046 04       		.uleb128 .LEHE10-.LEHB10
 1057 0047 B412     		.uleb128 .L170-.LFB915
 1058 0049 00       		.uleb128 0
 1059 004a B812     		.uleb128 .LEHB11-.LFB915
 1060 004c 04       		.uleb128 .LEHE11-.LEHB11
 1061 004d BC12     		.uleb128 .L174-.LFB915
 1062 004f 00       		.uleb128 0
 1063 0050 C012     		.uleb128 .LEHB12-.LFB915
 1064 0052 04       		.uleb128 .LEHE12-.LEHB12
 1065 0053 8C12     		.uleb128 .L171-.LFB915
 1066 0055 00       		.uleb128 0
 1067 0056 C412     		.uleb128 .LEHB13-.LFB915
 1068 0058 04       		.uleb128 .LEHE13-.LEHB13
 1069 0059 C812     		.uleb128 .L177-.LFB915
 1070 005b 00       		.uleb128 0
 1071 005c CC12     		.uleb128 .LEHB14-.LFB915
 1072 005e 0C       		.uleb128 .LEHE14-.LEHB14
 1073 005f B412     		.uleb128 .L170-.LFB915
 1074 0061 00       		.uleb128 0
 1075 0062 D812     		.uleb128 .LEHB15-.LFB915
 1076 0064 08       		.uleb128 .LEHE15-.LEHB15
 1077 0065 8C12     		.uleb128 .L171-.LFB915
 1078 0067 00       		.uleb128 0
 1079 0068 E012     		.uleb128 .LEHB16-.LFB915
 1080 006a 08       		.uleb128 .LEHE16-.LEHB16
 1081 006b B412     		.uleb128 .L170-.LFB915
 1082 006d 00       		.uleb128 0
 1083 006e E812     		.uleb128 .LEHB17-.LFB915
 1084 0070 04       		.uleb128 .LEHE17-.LEHB17
 1085 0071 FC11     		.uleb128 .L169-.LFB915
 1086 0073 00       		.uleb128 0
 1087 0074 9C13     		.uleb128 .LEHB18-.LFB915
 1088 0076 04       		.uleb128 .LEHE18-.LEHB18
 1089 0077 C812     		.uleb128 .L177-.LFB915
 1090 0079 00       		.uleb128 0
 1091 007a E013     		.uleb128 .LEHB19-.LFB915
 1092 007c 38       		.uleb128 .LEHE19-.LEHB19
 1093 007d BC12     		.uleb128 .L174-.LFB915
 1094 007f 00       		.uleb128 0
 1095 0080 9814     		.uleb128 .LEHB20-.LFB915
 1096 0082 04       		.uleb128 .LEHE20-.LEHB20
 1097 0083 AC14     		.uleb128 .L173-.LFB915
 1098 0085 00       		.uleb128 0
 1099 0086 9C14     		.uleb128 .LEHB21-.LFB915
 1100 0088 04       		.uleb128 .LEHE21-.LEHB21
 1101 0089 BC12     		.uleb128 .L174-.LFB915
 1102 008b 00       		.uleb128 0
 1103 008c A014     		.uleb128 .LEHB22-.LFB915
 1104 008e 04       		.uleb128 .LEHE22-.LEHB22
 1105 008f B412     		.uleb128 .L170-.LFB915
 1106 0091 00       		.uleb128 0
 1107 0092 A414     		.uleb128 .LEHB23-.LFB915
 1108 0094 04       		.uleb128 .LEHE23-.LEHB23
 1109 0095 B414     		.uleb128 .L176-.LFB915
 1110 0097 00       		.uleb128 0
 1111 0098 A814     		.uleb128 .LEHB24-.LFB915
 1112 009a 04       		.uleb128 .LEHE24-.LEHB24
 1113 009b B412     		.uleb128 .L170-.LFB915
 1114 009d 00       		.uleb128 0
 1115 009e B814     		.uleb128 .LEHB25-.LFB915
 1116 00a0 04       		.uleb128 .LEHE25-.LEHB25
 1117 00a1 FC11     		.uleb128 .L169-.LFB915
 1118 00a3 00       		.uleb128 0
 1119 00a4 BC14     		.uleb128 .LEHB26-.LFB915
 1120 00a6 08       		.uleb128 .LEHE26-.LEHB26
 1121 00a7 8012     		.uleb128 .L167-.LFB915
 1122 00a9 00       		.uleb128 0
 1123 00aa 8415     		.uleb128 .LEHB27-.LFB915
 1124 00ac 04       		.uleb128 .LEHE27-.LEHB27
 1125 00ad C812     		.uleb128 .L177-.LFB915
 1126 00af 00       		.uleb128 0
 1127 00b0 8815     		.uleb128 .LEHB28-.LFB915
 1128 00b2 04       		.uleb128 .LEHE28-.LEHB28
 1129 00b3 B412     		.uleb128 .L170-.LFB915
 1130 00b5 00       		.uleb128 0
 1131 00b6 9015     		.uleb128 .LEHB29-.LFB915
 1132 00b8 08       		.uleb128 .LEHE29-.LEHB29
 1133 00b9 8C12     		.uleb128 .L171-.LFB915
 1134 00bb 00       		.uleb128 0
 1135 00bc 9815     		.uleb128 .LEHB30-.LFB915
 1136 00be 04       		.uleb128 .LEHE30-.LEHB30
 1137 00bf C812     		.uleb128 .L177-.LFB915
 1138 00c1 00       		.uleb128 0
 1139 00c2 9C15     		.uleb128 .LEHB31-.LFB915
 1140 00c4 08       		.uleb128 .LEHE31-.LEHB31
 1141 00c5 8C12     		.uleb128 .L171-.LFB915
 1142 00c7 00       		.uleb128 0
 1143 00c8 A415     		.uleb128 .LEHB32-.LFB915
 1144 00ca 04       		.uleb128 .LEHE32-.LEHB32
 1145 00cb 00       		.uleb128 0
 1146 00cc 00       		.uleb128 0
 1147 00cd CC15     		.uleb128 .LEHB33-.LFB915
 1148 00cf 04       		.uleb128 .LEHE33-.LEHB33
 1149 00d0 BC12     		.uleb128 .L174-.LFB915
 1150 00d2 00       		.uleb128 0
 1151 00d3 F015     		.uleb128 .LEHB34-.LFB915
 1152 00d5 04       		.uleb128 .LEHE34-.LEHB34
 1153 00d6 C812     		.uleb128 .L177-.LFB915
 1154 00d8 00       		.uleb128 0
 1155 00d9 F415     		.uleb128 .LEHB35-.LFB915
 1156 00db 04       		.uleb128 .LEHE35-.LEHB35
 1157 00dc B412     		.uleb128 .L170-.LFB915
 1158 00de 00       		.uleb128 0
 1159              	.LLSDACSE915:
 1160              		.section	.text._ZN6tflite12_GLOBAL__N_14EvalEP13TfLiteContextP10TfLiteNode
 1161              		.fnend
 1163              		.section	.text._ZN6tflite23Register_DEPTH_TO_SPACEEv,"ax",%progbits
 1164              		.align	2
 1165              		.global	_ZN6tflite23Register_DEPTH_TO_SPACEEv
 1166              		.syntax unified
 1167              		.arm
 1168              		.fpu neon
 1170              	_ZN6tflite23Register_DEPTH_TO_SPACEEv:
 1171              		.fnstart
 1172              	.LFB916:
 1173              		@ args = 0, pretend = 0, frame = 0
 1174              		@ frame_needed = 0, uses_anonymous_args = 0
 1175 0000 00C000E3 		movw	ip, #:lower16:.LANCHOR0
 1176 0004 10402DE9 		push	{r4, lr}
 1177 0008 00C040E3 		movt	ip, #:upper16:.LANCHOR0
 1178 000c 0040A0E1 		mov	r4, r0
 1179 0010 00E0A0E1 		mov	lr, r0
 1180 0014 0F00BCE8 		ldmia	ip!, {r0, r1, r2, r3}
 1181 0018 0F00AEE8 		stmia	lr!, {r0, r1, r2, r3}
 1182 001c 0F009CE8 		ldm	ip, {r0, r1, r2, r3}
 1183 0020 0F008EE8 		stm	lr, {r0, r1, r2, r3}
 1184 0024 0400A0E1 		mov	r0, r4
 1185 0028 1080BDE8 		pop	{r4, pc}
 1186              		.cantunwind
 1187              		.fnend
 1189              		.section	.rodata
 1190              		.align	2
 1191              		.set	.LANCHOR0,. + 0
 1192              	.LC0:
 1193 0000 00000000 		.word	0
 1194 0004 00000000 		.word	0
 1195 0008 00000000 		.word	_ZN6tflite12_GLOBAL__N_17PrepareEP13TfLiteContextP10TfLiteNode
 1196 000c 00000000 		.word	_ZN6tflite12_GLOBAL__N_14EvalEP13TfLiteContextP10TfLiteNode
 1197 0010 00000000 		.word	0
 1198 0014 00000000 		.word	0
 1199 0018 00000000 		.word	0
 1200 001c 00000000 		.word	0
 1201              		.ident	"GCC: (GNU Tools for ARM Embedded Processors 6-2017-q2-update) 6.3.1 20170620 (release) [AR