   1              		.cpu cortex-a9
   2              		.eabi_attribute 28, 1
   3              		.eabi_attribute 20, 1
   4              		.eabi_attribute 21, 1
   5              		.eabi_attribute 23, 3
   6              		.eabi_attribute 24, 1
   7              		.eabi_attribute 25, 1
   8              		.eabi_attribute 26, 1
   9              		.eabi_attribute 30, 2
  10              		.eabi_attribute 34, 0
  11              		.eabi_attribute 18, 4
  12              		.file	"elementwise.cc"
  13              		.section	.text._ZN6tflite3ops5micro11elementwise12_GLOBAL__N_114GenericPrepareIXadL_ZNS3_22IsLogic
  14              		.align	2
  15              		.syntax unified
  16              		.arm
  17              		.fpu neon
  19              	_ZN6tflite3ops5micro11elementwise12_GLOBAL__N_114GenericPrepareIXadL_ZNS3_22IsLogicalSupportedTypeE
  20              		.fnstart
  21              	.LFB1181:
  22              		@ args = 0, pretend = 0, frame = 0
  23              		@ frame_needed = 0, uses_anonymous_args = 0
  24 0000 002091E5 		ldr	r2, [r1]
  25 0004 002092E5 		ldr	r2, [r2]
  26 0008 010052E3 		cmp	r2, #1
  27 000c 0100000A 		beq	.L16
  28 0010 0100A0E3 		mov	r0, #1
  29 0014 1EFF2FE1 		bx	lr
  30              	.L16:
  31 0018 042091E5 		ldr	r2, [r1, #4]
  32 001c 70402DE9 		push	{r4, r5, r6, lr}
  33              		.save {r4, r5, r6, lr}
  34 0020 0140A0E1 		mov	r4, r1
  35 0024 002092E5 		ldr	r2, [r2]
  36 0028 010052E3 		cmp	r2, #1
  37 002c 0100000A 		beq	.L17
  38              	.L4:
  39 0030 0100A0E3 		mov	r0, #1
  40 0034 7080BDE8 		pop	{r4, r5, r6, pc}
  41              	.L17:
  42 0038 0020A0E3 		mov	r2, #0
  43 003c 0050A0E1 		mov	r5, r0
  44 0040 FEFFFFEB 		bl	_ZN6tflite8GetInputEPK13TfLiteContextPK10TfLiteNodei
  45 0044 006050E2 		subs	r6, r0, #0
  46 0048 F8FFFF0A 		beq	.L4
  47 004c 0410A0E1 		mov	r1, r4
  48 0050 0500A0E1 		mov	r0, r5
  49 0054 0020A0E3 		mov	r2, #0
  50 0058 FEFFFFEB 		bl	_ZN6tflite9GetOutputEP13TfLiteContextPK10TfLiteNodei
  51 005c 000050E3 		cmp	r0, #0
  52 0060 F2FFFF0A 		beq	.L4
  53 0064 0030D6E5 		ldrb	r3, [r6]	@ zero_extendqisi2
  54 0068 0020D0E5 		ldrb	r2, [r0]	@ zero_extendqisi2
  55 006c 130F6FE1 		clz	r0, r3
  56 0070 A002A0E1 		lsr	r0, r0, #5
  57 0074 030052E1 		cmp	r2, r3
  58 0078 01008013 		orrne	r0, r0, #1
  59 007c 7080BDE8 		pop	{r4, r5, r6, pc}
  60              		.fnend
  62              		.section	.text._ZN6tflite3ops5micro11elementwise12_GLOBAL__N_17AbsEvalEP13TfLiteContextP10TfLiteNo
  63              		.align	2
  64              		.syntax unified
  65              		.arm
  66              		.fpu neon
  68              	_ZN6tflite3ops5micro11elementwise12_GLOBAL__N_17AbsEvalEP13TfLiteContextP10TfLiteNode:
  69              		.fnstart
  70              	.LFB1147:
  71              		@ args = 0, pretend = 0, frame = 0
  72              		@ frame_needed = 0, uses_anonymous_args = 0
  73 0000 70402DE9 		push	{r4, r5, r6, lr}
  74              		.save {r4, r5, r6, lr}
  75 0004 005050E2 		subs	r5, r0, #0
  76 0008 8600000A 		beq	.L20
  77 000c 000051E3 		cmp	r1, #0
  78 0010 0140A0E1 		mov	r4, r1
  79 0014 8300000A 		beq	.L20
  80 0018 002091E5 		ldr	r2, [r1]
  81 001c 543095E5 		ldr	r3, [r5, #84]
  82 0020 041092E5 		ldr	r1, [r2, #4]
  83 0024 33FF2FE1 		blx	r3
  84 0028 042094E5 		ldr	r2, [r4, #4]
  85 002c 0060A0E1 		mov	r6, r0
  86 0030 543095E5 		ldr	r3, [r5, #84]
  87 0034 0500A0E1 		mov	r0, r5
  88 0038 041092E5 		ldr	r1, [r2, #4]
  89 003c 33FF2FE1 		blx	r3
  90 0040 0820D6E5 		ldrb	r2, [r6, #8]	@ zero_extendqisi2
  91 0044 0040A0E1 		mov	r4, r0
  92 0048 010052E3 		cmp	r2, #1
  93 004c 0100000A 		beq	.L44
  94 0050 0100A0E3 		mov	r0, #1
  95 0054 7080BDE8 		pop	{r4, r5, r6, pc}
  96              	.L44:
  97 0058 040096E5 		ldr	r0, [r6, #4]
  98 005c FEFFFFEB 		bl	_ZN6tflite12ElementCountERK14TfLiteIntArray
  99 0060 000054E3 		cmp	r4, #0
 100 0064 001096E5 		ldr	r1, [r6]
 101 0068 00309415 		ldrne	r3, [r4]
 102 006c 0430A001 		moveq	r3, r4
 103 0070 000050E3 		cmp	r0, #0
 104 0074 3800000A 		beq	.L29
 105 0078 102081E2 		add	r2, r1, #16
 106 007c 10C083E2 		add	ip, r3, #16
 107 0080 0C0051E1 		cmp	r1, ip
 108 0084 02005331 		cmpcc	r3, r2
 109 0088 01C083E1 		orr	ip, r3, r1
 110 008c 0120A023 		movcs	r2, #1
 111 0090 0020A033 		movcc	r2, #0
 112 0094 060050E3 		cmp	r0, #6
 113 0098 0020A093 		movls	r2, #0
 114 009c 01200282 		andhi	r2, r2, #1
 115 00a0 0F001CE3 		tst	ip, #15
 116 00a4 0020A013 		movne	r2, #0
 117 00a8 01200202 		andeq	r2, r2, #1
 118 00ac 000052E3 		cmp	r2, #0
 119 00b0 2B00000A 		beq	.L24
 120 00b4 04C040E2 		sub	ip, r0, #4
 121 00b8 0150A0E1 		mov	r5, r1
 122 00bc 2CC1A0E1 		lsr	ip, ip, #2
 123 00c0 0340A0E1 		mov	r4, r3
 124 00c4 00E0A0E3 		mov	lr, #0
 125 00c8 01C08CE2 		add	ip, ip, #1
 126 00cc 0C21A0E1 		lsl	r2, ip, #2
 127              	.L26:
 128 00d0 DF0A65F4 		vld1.64	{d16-d17}, [r5:64]
 129 00d4 01E08EE2 		add	lr, lr, #1
 130 00d8 6007F9F3 		vabs.f32	q8, q8
 131 00dc 0E005CE1 		cmp	ip, lr
 132 00e0 105085E2 		add	r5, r5, #16
 133 00e4 104084E2 		add	r4, r4, #16
 134 00e8 040B44ED 		vstr	d16, [r4, #-16]
 135 00ec 021B44ED 		vstr	d17, [r4, #-8]
 136 00f0 F6FFFF8A 		bhi	.L26
 137 00f4 020050E1 		cmp	r0, r2
 138 00f8 1700000A 		beq	.L29
 139 00fc 02E1A0E1 		lsl	lr, r2, #2
 140 0100 01C082E2 		add	ip, r2, #1
 141 0104 0C0050E1 		cmp	r0, ip
 142 0108 0E4081E0 		add	r4, r1, lr
 143 010c 0EE083E0 		add	lr, r3, lr
 144 0110 007AD4ED 		vldr.32	s15, [r4]
 145 0114 E77AF0EE 		vabs.f32	s15, s15
 146 0118 007ACEED 		vstr.32	s15, [lr]
 147 011c 0E00009A 		bls	.L29
 148 0120 0CC1A0E1 		lsl	ip, ip, #2
 149 0124 022082E2 		add	r2, r2, #2
 150 0128 020050E1 		cmp	r0, r2
 151 012c 0C0081E0 		add	r0, r1, ip
 152 0130 0CC083E0 		add	ip, r3, ip
 153 0134 007AD0ED 		vldr.32	s15, [r0]
 154 0138 E77AF0EE 		vabs.f32	s15, s15
 155 013c 007ACCED 		vstr.32	s15, [ip]
 156 0140 0500009A 		bls	.L29
 157 0144 0221A0E1 		lsl	r2, r2, #2
 158 0148 021081E0 		add	r1, r1, r2
 159 014c 022083E0 		add	r2, r3, r2
 160 0150 007AD1ED 		vldr.32	s15, [r1]
 161 0154 E77AF0EE 		vabs.f32	s15, s15
 162 0158 007AC2ED 		vstr.32	s15, [r2]
 163              	.L29:
 164 015c 0000A0E3 		mov	r0, #0
 165 0160 7080BDE8 		pop	{r4, r5, r6, pc}
 166              	.L24:
 167 0164 080050E3 		cmp	r0, #8
 168 0168 075040E2 		sub	r5, r0, #7
 169 016c 2B00009A 		bls	.L36
 170 0170 5CC081E2 		add	ip, r1, #92
 171 0174 03E0A0E1 		mov	lr, r3
 172              	.L31:
 173 0178 177A5CED 		vldr.32	s15, [ip, #-92]
 174 017c 094082E2 		add	r4, r2, #9
 175 0180 00F0DCF5 		pld	[ip]
 176 0184 040055E1 		cmp	r5, r4
 177 0188 084082E2 		add	r4, r2, #8
 178 018c 20C08CE2 		add	ip, ip, #32
 179 0190 0420A0E1 		mov	r2, r4
 180 0194 20E08EE2 		add	lr, lr, #32
 181 0198 E77AF0EE 		vabs.f32	s15, s15
 182 019c 087A4EED 		vstr.32	s15, [lr, #-32]
 183 01a0 1E7A5CED 		vldr.32	s15, [ip, #-120]
 184 01a4 E77AF0EE 		vabs.f32	s15, s15
 185 01a8 077A4EED 		vstr.32	s15, [lr, #-28]
 186 01ac 1D7A5CED 		vldr.32	s15, [ip, #-116]
 187 01b0 E77AF0EE 		vabs.f32	s15, s15
 188 01b4 067A4EED 		vstr.32	s15, [lr, #-24]
 189 01b8 1C7A5CED 		vldr.32	s15, [ip, #-112]
 190 01bc E77AF0EE 		vabs.f32	s15, s15
 191 01c0 057A4EED 		vstr.32	s15, [lr, #-20]
 192 01c4 1B7A5CED 		vldr.32	s15, [ip, #-108]
 193 01c8 E77AF0EE 		vabs.f32	s15, s15
 194 01cc 047A4EED 		vstr.32	s15, [lr, #-16]
 195 01d0 1A7A5CED 		vldr.32	s15, [ip, #-104]
 196 01d4 E77AF0EE 		vabs.f32	s15, s15
 197 01d8 037A4EED 		vstr.32	s15, [lr, #-12]
 198 01dc 197A5CED 		vldr.32	s15, [ip, #-100]
 199 01e0 E77AF0EE 		vabs.f32	s15, s15
 200 01e4 027A4EED 		vstr.32	s15, [lr, #-8]
 201 01e8 187A5CED 		vldr.32	s15, [ip, #-96]
 202 01ec E77AF0EE 		vabs.f32	s15, s15
 203 01f0 017A4EED 		vstr.32	s15, [lr, #-4]
 204 01f4 DFFFFF8A 		bhi	.L31
 205              	.L30:
 206 01f8 0421A0E1 		lsl	r2, r4, #2
 207 01fc 021081E0 		add	r1, r1, r2
 208 0200 023083E0 		add	r3, r3, r2
 209              	.L33:
 210 0204 017AF1EC 		vldmia.32	r1!, {s15}
 211 0208 014084E2 		add	r4, r4, #1
 212 020c 040050E1 		cmp	r0, r4
 213 0210 E77AF0EE 		vabs.f32	s15, s15
 214 0214 017AE3EC 		vstmia.32	r3!, {s15}
 215 0218 F9FFFF8A 		bhi	.L33
 216 021c CEFFFFEA 		b	.L29
 217              	.L36:
 218 0220 0240A0E1 		mov	r4, r2
 219 0224 F3FFFFEA 		b	.L30
 220              	.L20:
 221 0228 FEFFFFEB 		bl	abort
 222              		.fnend
 224              		.section	.text._ZN6tflite3ops5micro11elementwise12_GLOBAL__N_19RsqrtEvalEP13TfLiteContextP10TfLite
 225              		.align	2
 226              		.syntax unified
 227              		.arm
 228              		.fpu neon
 230              	_ZN6tflite3ops5micro11elementwise12_GLOBAL__N_19RsqrtEvalEP13TfLiteContextP10TfLiteNode:
 231              		.fnstart
 232              	.LFB1152:
 233              		@ args = 0, pretend = 0, frame = 8
 234              		@ frame_needed = 0, uses_anonymous_args = 0
 235 0000 70402DE9 		push	{r4, r5, r6, lr}
 236              		.save {r4, r5, r6, lr}
 237 0004 005050E2 		subs	r5, r0, #0
 238 0008 028B2DED 		vpush.64	{d8}
 239              		.vsave {d8}
 240              		.pad #8
 241 000c 08D04DE2 		sub	sp, sp, #8
 242 0010 2F00000A 		beq	.L47
 243 0014 000051E3 		cmp	r1, #0
 244 0018 0140A0E1 		mov	r4, r1
 245 001c 2C00000A 		beq	.L47
 246 0020 002091E5 		ldr	r2, [r1]
 247 0024 543095E5 		ldr	r3, [r5, #84]
 248 0028 041092E5 		ldr	r1, [r2, #4]
 249 002c 33FF2FE1 		blx	r3
 250 0030 042094E5 		ldr	r2, [r4, #4]
 251 0034 0060A0E1 		mov	r6, r0
 252 0038 543095E5 		ldr	r3, [r5, #84]
 253 003c 0500A0E1 		mov	r0, r5
 254 0040 041092E5 		ldr	r1, [r2, #4]
 255 0044 33FF2FE1 		blx	r3
 256 0048 0830D6E5 		ldrb	r3, [r6, #8]	@ zero_extendqisi2
 257 004c 0050A0E1 		mov	r5, r0
 258 0050 010053E3 		cmp	r3, #1
 259 0054 0100A013 		movne	r0, #1
 260 0058 0200000A 		beq	.L60
 261 005c 08D08DE2 		add	sp, sp, #8
 262              		@ sp needed
 263 0060 028BBDEC 		vldm	sp!, {d8}
 264 0064 7080BDE8 		pop	{r4, r5, r6, pc}
 265              	.L60:
 266 0068 040096E5 		ldr	r0, [r6, #4]
 267 006c FEFFFFEB 		bl	_ZN6tflite12ElementCountERK14TfLiteIntArray
 268 0070 000055E3 		cmp	r5, #0
 269 0074 006096E5 		ldr	r6, [r6]
 270 0078 00509515 		ldrne	r5, [r5]
 271 007c 000050E3 		cmp	r0, #0
 272 0080 0040A013 		movne	r4, #0
 273 0084 008AF71E 		vmovne.f32	s17, #1.0e+0
 274 0088 0900000A 		beq	.L52
 275              	.L53:
 276 008c 010AB6EC 		vldmia.32	r6!, {s0}
 277 0090 400AB5EE 		vcmp.f32	s0, #0
 278 0094 10FAF1EE 		vmrs	APSR_nzcv, FPSCR
 279 0098 C08AB1EE 		vsqrt.f32	s16, s0
 280 009c 0800004A 		bmi	.L61
 281              	.L51:
 282 00a0 887AC8EE 		vdiv.f32	s15, s17, s16
 283 00a4 014084E2 		add	r4, r4, #1
 284 00a8 040050E1 		cmp	r0, r4
 285 00ac 017AE5EC 		vstmia.32	r5!, {s15}
 286 00b0 F5FFFF1A 		bne	.L53
 287              	.L52:
 288 00b4 0000A0E3 		mov	r0, #0
 289 00b8 08D08DE2 		add	sp, sp, #8
 290              		@ sp needed
 291 00bc 028BBDEC 		vldm	sp!, {d8}
 292 00c0 7080BDE8 		pop	{r4, r5, r6, pc}
 293              	.L61:
 294 00c4 04008DE5 		str	r0, [sp, #4]
 295 00c8 FEFFFFEB 		bl	sqrtf
 296 00cc 04009DE5 		ldr	r0, [sp, #4]
 297 00d0 F2FFFFEA 		b	.L51
 298              	.L47:
 299 00d4 FEFFFFEB 		bl	abort
 300              		.fnend
 302              		.section	.text._ZN6tflite3ops5micro11elementwise12_GLOBAL__N_17SinEvalEP13TfLiteContextP10TfLiteNo
 303              		.align	2
 304              		.syntax unified
 305              		.arm
 306              		.fpu neon
 308              	_ZN6tflite3ops5micro11elementwise12_GLOBAL__N_17SinEvalEP13TfLiteContextP10TfLiteNode:
 309              		.fnstart
 310              	.LFB1148:
 311              		@ args = 0, pretend = 0, frame = 0
 312              		@ frame_needed = 0, uses_anonymous_args = 0
 313 0000 F84F2DE9 		push	{r3, r4, r5, r6, r7, r8, r9, r10, fp, lr}
 314              		.save {r3, r4, r5, r6, r7, r8, r9, r10, fp, lr}
 315 0004 005050E2 		subs	r5, r0, #0
 316 0008 4E00000A 		beq	.L64
 317 000c 000051E3 		cmp	r1, #0
 318 0010 0140A0E1 		mov	r4, r1
 319 0014 4B00000A 		beq	.L64
 320 0018 002091E5 		ldr	r2, [r1]
 321 001c 543095E5 		ldr	r3, [r5, #84]
 322 0020 041092E5 		ldr	r1, [r2, #4]
 323 0024 33FF2FE1 		blx	r3
 324 0028 042094E5 		ldr	r2, [r4, #4]
 325 002c 0060A0E1 		mov	r6, r0
 326 0030 543095E5 		ldr	r3, [r5, #84]
 327 0034 0500A0E1 		mov	r0, r5
 328 0038 041092E5 		ldr	r1, [r2, #4]
 329 003c 33FF2FE1 		blx	r3
 330 0040 0830D6E5 		ldrb	r3, [r6, #8]	@ zero_extendqisi2
 331 0044 0070A0E1 		mov	r7, r0
 332 0048 010053E3 		cmp	r3, #1
 333 004c 0100000A 		beq	.L80
 334 0050 0100A0E3 		mov	r0, #1
 335 0054 F88FBDE8 		pop	{r3, r4, r5, r6, r7, r8, r9, r10, fp, pc}
 336              	.L80:
 337 0058 040096E5 		ldr	r0, [r6, #4]
 338 005c FEFFFFEB 		bl	_ZN6tflite12ElementCountERK14TfLiteIntArray
 339 0060 000057E3 		cmp	r7, #0
 340 0064 00A0A0E1 		mov	r10, r0
 341 0068 00709715 		ldrne	r7, [r7]
 342 006c 000050E3 		cmp	r0, #0
 343 0070 009096E5 		ldr	r9, [r6]
 344 0074 2F00000A 		beq	.L70
 345 0078 080050E3 		cmp	r0, #8
 346 007c 07B040E2 		sub	fp, r0, #7
 347 0080 2E00009A 		bls	.L74
 348 0084 285089E2 		add	r5, r9, #40
 349 0088 284087E2 		add	r4, r7, #40
 350 008c 0080A0E3 		mov	r8, #0
 351              	.L69:
 352 0090 0A0A15ED 		vldr.32	s0, [r5, #-40]
 353 0094 086088E2 		add	r6, r8, #8
 354 0098 FEFFFFEB 		bl	sinf
 355 009c 00F0D5F5 		pld	[r5]
 356 00a0 098088E2 		add	r8, r8, #9
 357 00a4 0A0A04ED 		vstr.32	s0, [r4, #-40]
 358 00a8 205085E2 		add	r5, r5, #32
 359 00ac 110A15ED 		vldr.32	s0, [r5, #-68]
 360 00b0 FEFFFFEB 		bl	sinf
 361 00b4 090A04ED 		vstr.32	s0, [r4, #-36]
 362 00b8 100A15ED 		vldr.32	s0, [r5, #-64]
 363 00bc FEFFFFEB 		bl	sinf
 364 00c0 080A04ED 		vstr.32	s0, [r4, #-32]
 365 00c4 0F0A15ED 		vldr.32	s0, [r5, #-60]
 366 00c8 FEFFFFEB 		bl	sinf
 367 00cc 070A04ED 		vstr.32	s0, [r4, #-28]
 368 00d0 0E0A15ED 		vldr.32	s0, [r5, #-56]
 369 00d4 FEFFFFEB 		bl	sinf
 370 00d8 060A04ED 		vstr.32	s0, [r4, #-24]
 371 00dc 0D0A15ED 		vldr.32	s0, [r5, #-52]
 372 00e0 FEFFFFEB 		bl	sinf
 373 00e4 050A04ED 		vstr.32	s0, [r4, #-20]
 374 00e8 0C0A15ED 		vldr.32	s0, [r5, #-48]
 375 00ec FEFFFFEB 		bl	sinf
 376 00f0 040A04ED 		vstr.32	s0, [r4, #-16]
 377 00f4 0B0A15ED 		vldr.32	s0, [r5, #-44]
 378 00f8 FEFFFFEB 		bl	sinf
 379 00fc 08005BE1 		cmp	fp, r8
 380 0100 00F0D4F5 		pld	[r4]
 381 0104 030A04ED 		vstr.32	s0, [r4, #-12]
 382 0108 0680A0E1 		mov	r8, r6
 383 010c 204084E2 		add	r4, r4, #32
 384 0110 DEFFFF8A 		bhi	.L69
 385              	.L68:
 386 0114 0631A0E1 		lsl	r3, r6, #2
 387 0118 039089E0 		add	r9, r9, r3
 388 011c 037087E0 		add	r7, r7, r3
 389              	.L71:
 390 0120 010AB9EC 		vldmia.32	r9!, {s0}
 391 0124 016086E2 		add	r6, r6, #1
 392 0128 FEFFFFEB 		bl	sinf
 393 012c 0A0056E1 		cmp	r6, r10
 394 0130 010AA7EC 		vstmia.32	r7!, {s0}
 395 0134 F9FFFF3A 		bcc	.L71
 396              	.L70:
 397 0138 0000A0E3 		mov	r0, #0
 398 013c F88FBDE8 		pop	{r3, r4, r5, r6, r7, r8, r9, r10, fp, pc}
 399              	.L74:
 400 0140 0060A0E3 		mov	r6, #0
 401 0144 F2FFFFEA 		b	.L68
 402              	.L64:
 403 0148 FEFFFFEB 		bl	abort
 404              		.fnend
 406              		.section	.text._ZN6tflite3ops5micro11elementwise12_GLOBAL__N_17CosEvalEP13TfLiteContextP10TfLiteNo
 407              		.align	2
 408              		.syntax unified
 409              		.arm
 410              		.fpu neon
 412              	_ZN6tflite3ops5micro11elementwise12_GLOBAL__N_17CosEvalEP13TfLiteContextP10TfLiteNode:
 413              		.fnstart
 414              	.LFB1149:
 415              		@ args = 0, pretend = 0, frame = 0
 416              		@ frame_needed = 0, uses_anonymous_args = 0
 417 0000 F84F2DE9 		push	{r3, r4, r5, r6, r7, r8, r9, r10, fp, lr}
 418              		.save {r3, r4, r5, r6, r7, r8, r9, r10, fp, lr}
 419 0004 005050E2 		subs	r5, r0, #0
 420 0008 4E00000A 		beq	.L83
 421 000c 000051E3 		cmp	r1, #0
 422 0010 0140A0E1 		mov	r4, r1
 423 0014 4B00000A 		beq	.L83
 424 0018 002091E5 		ldr	r2, [r1]
 425 001c 543095E5 		ldr	r3, [r5, #84]
 426 0020 041092E5 		ldr	r1, [r2, #4]
 427 0024 33FF2FE1 		blx	r3
 428 0028 042094E5 		ldr	r2, [r4, #4]
 429 002c 0060A0E1 		mov	r6, r0
 430 0030 543095E5 		ldr	r3, [r5, #84]
 431 0034 0500A0E1 		mov	r0, r5
 432 0038 041092E5 		ldr	r1, [r2, #4]
 433 003c 33FF2FE1 		blx	r3
 434 0040 0830D6E5 		ldrb	r3, [r6, #8]	@ zero_extendqisi2
 435 0044 0070A0E1 		mov	r7, r0
 436 0048 010053E3 		cmp	r3, #1
 437 004c 0100000A 		beq	.L99
 438 0050 0100A0E3 		mov	r0, #1
 439 0054 F88FBDE8 		pop	{r3, r4, r5, r6, r7, r8, r9, r10, fp, pc}
 440              	.L99:
 441 0058 040096E5 		ldr	r0, [r6, #4]
 442 005c FEFFFFEB 		bl	_ZN6tflite12ElementCountERK14TfLiteIntArray
 443 0060 000057E3 		cmp	r7, #0
 444 0064 00A0A0E1 		mov	r10, r0
 445 0068 00709715 		ldrne	r7, [r7]
 446 006c 000050E3 		cmp	r0, #0
 447 0070 009096E5 		ldr	r9, [r6]
 448 0074 2F00000A 		beq	.L89
 449 0078 080050E3 		cmp	r0, #8
 450 007c 07B040E2 		sub	fp, r0, #7
 451 0080 2E00009A 		bls	.L93
 452 0084 285089E2 		add	r5, r9, #40
 453 0088 284087E2 		add	r4, r7, #40
 454 008c 0080A0E3 		mov	r8, #0
 455              	.L88:
 456 0090 0A0A15ED 		vldr.32	s0, [r5, #-40]
 457 0094 086088E2 		add	r6, r8, #8
 458 0098 FEFFFFEB 		bl	cosf
 459 009c 00F0D5F5 		pld	[r5]
 460 00a0 098088E2 		add	r8, r8, #9
 461 00a4 0A0A04ED 		vstr.32	s0, [r4, #-40]
 462 00a8 205085E2 		add	r5, r5, #32
 463 00ac 110A15ED 		vldr.32	s0, [r5, #-68]
 464 00b0 FEFFFFEB 		bl	cosf
 465 00b4 090A04ED 		vstr.32	s0, [r4, #-36]
 466 00b8 100A15ED 		vldr.32	s0, [r5, #-64]
 467 00bc FEFFFFEB 		bl	cosf
 468 00c0 080A04ED 		vstr.32	s0, [r4, #-32]
 469 00c4 0F0A15ED 		vldr.32	s0, [r5, #-60]
 470 00c8 FEFFFFEB 		bl	cosf
 471 00cc 070A04ED 		vstr.32	s0, [r4, #-28]
 472 00d0 0E0A15ED 		vldr.32	s0, [r5, #-56]
 473 00d4 FEFFFFEB 		bl	cosf
 474 00d8 060A04ED 		vstr.32	s0, [r4, #-24]
 475 00dc 0D0A15ED 		vldr.32	s0, [r5, #-52]
 476 00e0 FEFFFFEB 		bl	cosf
 477 00e4 050A04ED 		vstr.32	s0, [r4, #-20]
 478 00e8 0C0A15ED 		vldr.32	s0, [r5, #-48]
 479 00ec FEFFFFEB 		bl	cosf
 480 00f0 040A04ED 		vstr.32	s0, [r4, #-16]
 481 00f4 0B0A15ED 		vldr.32	s0, [r5, #-44]
 482 00f8 FEFFFFEB 		bl	cosf
 483 00fc 08005BE1 		cmp	fp, r8
 484 0100 00F0D4F5 		pld	[r4]
 485 0104 030A04ED 		vstr.32	s0, [r4, #-12]
 486 0108 0680A0E1 		mov	r8, r6
 487 010c 204084E2 		add	r4, r4, #32
 488 0110 DEFFFF8A 		bhi	.L88
 489              	.L87:
 490 0114 0631A0E1 		lsl	r3, r6, #2
 491 0118 039089E0 		add	r9, r9, r3
 492 011c 037087E0 		add	r7, r7, r3
 493              	.L90:
 494 0120 010AB9EC 		vldmia.32	r9!, {s0}
 495 0124 016086E2 		add	r6, r6, #1
 496 0128 FEFFFFEB 		bl	cosf
 497 012c 0A0056E1 		cmp	r6, r10
 498 0130 010AA7EC 		vstmia.32	r7!, {s0}
 499 0134 F9FFFF3A 		bcc	.L90
 500              	.L89:
 501 0138 0000A0E3 		mov	r0, #0
 502 013c F88FBDE8 		pop	{r3, r4, r5, r6, r7, r8, r9, r10, fp, pc}
 503              	.L93:
 504 0140 0060A0E3 		mov	r6, #0
 505 0144 F2FFFFEA 		b	.L87
 506              	.L83:
 507 0148 FEFFFFEB 		bl	abort
 508              		.fnend
 510              		.section	.text._ZN6tflite3ops5micro11elementwise12_GLOBAL__N_17LogEvalEP13TfLiteContextP10TfLiteNo
 511              		.align	2
 512              		.syntax unified
 513              		.arm
 514              		.fpu neon
 516              	_ZN6tflite3ops5micro11elementwise12_GLOBAL__N_17LogEvalEP13TfLiteContextP10TfLiteNode:
 517              		.fnstart
 518              	.LFB1150:
 519              		@ args = 0, pretend = 0, frame = 0
 520              		@ frame_needed = 0, uses_anonymous_args = 0
 521 0000 F84F2DE9 		push	{r3, r4, r5, r6, r7, r8, r9, r10, fp, lr}
 522              		.save {r3, r4, r5, r6, r7, r8, r9, r10, fp, lr}
 523 0004 005050E2 		subs	r5, r0, #0
 524 0008 4E00000A 		beq	.L102
 525 000c 000051E3 		cmp	r1, #0
 526 0010 0140A0E1 		mov	r4, r1
 527 0014 4B00000A 		beq	.L102
 528 0018 002091E5 		ldr	r2, [r1]
 529 001c 543095E5 		ldr	r3, [r5, #84]
 530 0020 041092E5 		ldr	r1, [r2, #4]
 531 0024 33FF2FE1 		blx	r3
 532 0028 042094E5 		ldr	r2, [r4, #4]
 533 002c 0060A0E1 		mov	r6, r0
 534 0030 543095E5 		ldr	r3, [r5, #84]
 535 0034 0500A0E1 		mov	r0, r5
 536 0038 041092E5 		ldr	r1, [r2, #4]
 537 003c 33FF2FE1 		blx	r3
 538 0040 0830D6E5 		ldrb	r3, [r6, #8]	@ zero_extendqisi2
 539 0044 0070A0E1 		mov	r7, r0
 540 0048 010053E3 		cmp	r3, #1
 541 004c 0100000A 		beq	.L118
 542 0050 0100A0E3 		mov	r0, #1
 543 0054 F88FBDE8 		pop	{r3, r4, r5, r6, r7, r8, r9, r10, fp, pc}
 544              	.L118:
 545 0058 040096E5 		ldr	r0, [r6, #4]
 546 005c FEFFFFEB 		bl	_ZN6tflite12ElementCountERK14TfLiteIntArray
 547 0060 000057E3 		cmp	r7, #0
 548 0064 00A0A0E1 		mov	r10, r0
 549 0068 00709715 		ldrne	r7, [r7]
 550 006c 000050E3 		cmp	r0, #0
 551 0070 009096E5 		ldr	r9, [r6]
 552 0074 2F00000A 		beq	.L108
 553 0078 080050E3 		cmp	r0, #8
 554 007c 07B040E2 		sub	fp, r0, #7
 555 0080 2E00009A 		bls	.L112
 556 0084 285089E2 		add	r5, r9, #40
 557 0088 284087E2 		add	r4, r7, #40
 558 008c 0080A0E3 		mov	r8, #0
 559              	.L107:
 560 0090 0A0A15ED 		vldr.32	s0, [r5, #-40]
 561 0094 086088E2 		add	r6, r8, #8
 562 0098 00F0D5F5 		pld	[r5]
 563 009c 098088E2 		add	r8, r8, #9
 564 00a0 FEFFFFEB 		bl	logf
 565 00a4 0A0A04ED 		vstr.32	s0, [r4, #-40]
 566 00a8 205085E2 		add	r5, r5, #32
 567 00ac 110A15ED 		vldr.32	s0, [r5, #-68]
 568 00b0 00F0D4F5 		pld	[r4]
 569 00b4 204084E2 		add	r4, r4, #32
 570 00b8 FEFFFFEB 		bl	logf
 571 00bc 110A04ED 		vstr.32	s0, [r4, #-68]
 572 00c0 100A15ED 		vldr.32	s0, [r5, #-64]
 573 00c4 FEFFFFEB 		bl	logf
 574 00c8 100A04ED 		vstr.32	s0, [r4, #-64]
 575 00cc 0F0A15ED 		vldr.32	s0, [r5, #-60]
 576 00d0 FEFFFFEB 		bl	logf
 577 00d4 0F0A04ED 		vstr.32	s0, [r4, #-60]
 578 00d8 0E0A15ED 		vldr.32	s0, [r5, #-56]
 579 00dc FEFFFFEB 		bl	logf
 580 00e0 0E0A04ED 		vstr.32	s0, [r4, #-56]
 581 00e4 0D0A15ED 		vldr.32	s0, [r5, #-52]
 582 00e8 FEFFFFEB 		bl	logf
 583 00ec 0D0A04ED 		vstr.32	s0, [r4, #-52]
 584 00f0 0C0A15ED 		vldr.32	s0, [r5, #-48]
 585 00f4 FEFFFFEB 		bl	logf
 586 00f8 0C0A04ED 		vstr.32	s0, [r4, #-48]
 587 00fc 0B0A15ED 		vldr.32	s0, [r5, #-44]
 588 0100 FEFFFFEB 		bl	logf
 589 0104 08005BE1 		cmp	fp, r8
 590 0108 0B0A04ED 		vstr.32	s0, [r4, #-44]
 591 010c 0680A0E1 		mov	r8, r6
 592 0110 DEFFFF8A 		bhi	.L107
 593              	.L106:
 594 0114 0631A0E1 		lsl	r3, r6, #2
 595 0118 039089E0 		add	r9, r9, r3
 596 011c 037087E0 		add	r7, r7, r3
 597              	.L109:
 598 0120 016086E2 		add	r6, r6, #1
 599 0124 010AB9EC 		vldmia.32	r9!, {s0}
 600 0128 FEFFFFEB 		bl	logf
 601 012c 06005AE1 		cmp	r10, r6
 602 0130 010AA7EC 		vstmia.32	r7!, {s0}
 603 0134 F9FFFF8A 		bhi	.L109
 604              	.L108:
 605 0138 0000A0E3 		mov	r0, #0
 606 013c F88FBDE8 		pop	{r3, r4, r5, r6, r7, r8, r9, r10, fp, pc}
 607              	.L112:
 608 0140 0060A0E3 		mov	r6, #0
 609 0144 F2FFFFEA 		b	.L106
 610              	.L102:
 611 0148 FEFFFFEB 		bl	abort
 612              		.fnend
 614              		.section	.text._ZN6tflite3ops5micro11elementwise12_GLOBAL__N_18SqrtEvalEP13TfLiteContextP10TfLiteN
 615              		.align	2
 616              		.syntax unified
 617              		.arm
 618              		.fpu neon
 620              	_ZN6tflite3ops5micro11elementwise12_GLOBAL__N_18SqrtEvalEP13TfLiteContextP10TfLiteNode:
 621              		.fnstart
 622              	.LFB1151:
 623              		@ args = 0, pretend = 0, frame = 8
 624              		@ frame_needed = 0, uses_anonymous_args = 0
 625 0000 70402DE9 		push	{r4, r5, r6, lr}
 626              		.save {r4, r5, r6, lr}
 627 0004 005050E2 		subs	r5, r0, #0
 628 0008 028B2DED 		vpush.64	{d8}
 629              		.vsave {d8}
 630              		.pad #8
 631 000c 08D04DE2 		sub	sp, sp, #8
 632 0010 2D00000A 		beq	.L121
 633 0014 000051E3 		cmp	r1, #0
 634 0018 0140A0E1 		mov	r4, r1
 635 001c 2A00000A 		beq	.L121
 636 0020 002091E5 		ldr	r2, [r1]
 637 0024 543095E5 		ldr	r3, [r5, #84]
 638 0028 041092E5 		ldr	r1, [r2, #4]
 639 002c 33FF2FE1 		blx	r3
 640 0030 042094E5 		ldr	r2, [r4, #4]
 641 0034 0060A0E1 		mov	r6, r0
 642 0038 543095E5 		ldr	r3, [r5, #84]
 643 003c 0500A0E1 		mov	r0, r5
 644 0040 041092E5 		ldr	r1, [r2, #4]
 645 0044 33FF2FE1 		blx	r3
 646 0048 0830D6E5 		ldrb	r3, [r6, #8]	@ zero_extendqisi2
 647 004c 0050A0E1 		mov	r5, r0
 648 0050 010053E3 		cmp	r3, #1
 649 0054 0100A013 		movne	r0, #1
 650 0058 0200000A 		beq	.L134
 651 005c 08D08DE2 		add	sp, sp, #8
 652              		@ sp needed
 653 0060 028BBDEC 		vldm	sp!, {d8}
 654 0064 7080BDE8 		pop	{r4, r5, r6, pc}
 655              	.L134:
 656 0068 040096E5 		ldr	r0, [r6, #4]
 657 006c FEFFFFEB 		bl	_ZN6tflite12ElementCountERK14TfLiteIntArray
 658 0070 000055E3 		cmp	r5, #0
 659 0074 006096E5 		ldr	r6, [r6]
 660 0078 00509515 		ldrne	r5, [r5]
 661 007c 000050E3 		cmp	r0, #0
 662 0080 0040A013 		movne	r4, #0
 663 0084 0800000A 		beq	.L126
 664              	.L127:
 665 0088 010AB6EC 		vldmia.32	r6!, {s0}
 666 008c 400AB5EE 		vcmp.f32	s0, #0
 667 0090 10FAF1EE 		vmrs	APSR_nzcv, FPSCR
 668 0094 C08AB1EE 		vsqrt.f32	s16, s0
 669 0098 0700004A 		bmi	.L135
 670              	.L125:
 671 009c 014084E2 		add	r4, r4, #1
 672 00a0 018AA5EC 		vstmia.32	r5!, {s16}
 673 00a4 040050E1 		cmp	r0, r4
 674 00a8 F6FFFF1A 		bne	.L127
 675              	.L126:
 676 00ac 0000A0E3 		mov	r0, #0
 677 00b0 08D08DE2 		add	sp, sp, #8
 678              		@ sp needed
 679 00b4 028BBDEC 		vldm	sp!, {d8}
 680 00b8 7080BDE8 		pop	{r4, r5, r6, pc}
 681              	.L135:
 682 00bc 04008DE5 		str	r0, [sp, #4]
 683 00c0 FEFFFFEB 		bl	sqrtf
 684 00c4 04009DE5 		ldr	r0, [sp, #4]
 685 00c8 F3FFFFEA 		b	.L125
 686              	.L121:
 687 00cc FEFFFFEB 		bl	abort
 688              		.fnend
 690              		.section	.text._ZN6tflite3ops5micro11elementwise12_GLOBAL__N_110SquareEvalEP13TfLiteContextP10TfLi
 691              		.align	2
 692              		.syntax unified
 693              		.arm
 694              		.fpu neon
 696              	_ZN6tflite3ops5micro11elementwise12_GLOBAL__N_110SquareEvalEP13TfLiteContextP10TfLiteNode:
 697              		.fnstart
 698              	.LFB1156:
 699              		@ args = 0, pretend = 0, frame = 0
 700              		@ frame_needed = 0, uses_anonymous_args = 0
 701 0000 70402DE9 		push	{r4, r5, r6, lr}
 702              		.save {r4, r5, r6, lr}
 703 0004 005050E2 		subs	r5, r0, #0
 704 0008 4C00000A 		beq	.L138
 705 000c 000051E3 		cmp	r1, #0
 706 0010 0140A0E1 		mov	r4, r1
 707 0014 4900000A 		beq	.L138
 708 0018 002091E5 		ldr	r2, [r1]
 709 001c 543095E5 		ldr	r3, [r5, #84]
 710 0020 041092E5 		ldr	r1, [r2, #4]
 711 0024 33FF2FE1 		blx	r3
 712 0028 042094E5 		ldr	r2, [r4, #4]
 713 002c 0060A0E1 		mov	r6, r0
 714 0030 543095E5 		ldr	r3, [r5, #84]
 715 0034 0500A0E1 		mov	r0, r5
 716 0038 041092E5 		ldr	r1, [r2, #4]
 717 003c 33FF2FE1 		blx	r3
 718 0040 0830D6E5 		ldrb	r3, [r6, #8]	@ zero_extendqisi2
 719 0044 0040A0E1 		mov	r4, r0
 720 0048 010053E3 		cmp	r3, #1
 721 004c 0100000A 		beq	.L155
 722 0050 0100A0E3 		mov	r0, #1
 723 0054 7080BDE8 		pop	{r4, r5, r6, pc}
 724              	.L155:
 725 0058 040096E5 		ldr	r0, [r6, #4]
 726 005c FEFFFFEB 		bl	_ZN6tflite12ElementCountERK14TfLiteIntArray
 727 0060 000054E3 		cmp	r4, #0
 728 0064 00C096E5 		ldr	ip, [r6]
 729 0068 00409415 		ldrne	r4, [r4]
 730 006c 000050E3 		cmp	r0, #0
 731 0070 2E00000A 		beq	.L144
 732 0074 080050E3 		cmp	r0, #8
 733 0078 075040E2 		sub	r5, r0, #7
 734 007c 2D00009A 		bls	.L148
 735 0080 5C308CE2 		add	r3, ip, #92
 736 0084 0420A0E1 		mov	r2, r4
 737 0088 00E0A0E3 		mov	lr, #0
 738              	.L143:
 739 008c 177A53ED 		vldr.32	s15, [r3, #-92]
 740 0090 09108EE2 		add	r1, lr, #9
 741 0094 00F0D3F5 		pld	[r3]
 742 0098 010055E1 		cmp	r5, r1
 743 009c 08108EE2 		add	r1, lr, #8
 744 00a0 203083E2 		add	r3, r3, #32
 745 00a4 01E0A0E1 		mov	lr, r1
 746 00a8 202082E2 		add	r2, r2, #32
 747 00ac A77A67EE 		vmul.f32	s15, s15, s15
 748 00b0 087A42ED 		vstr.32	s15, [r2, #-32]
 749 00b4 1E7A53ED 		vldr.32	s15, [r3, #-120]
 750 00b8 A77A67EE 		vmul.f32	s15, s15, s15
 751 00bc 077A42ED 		vstr.32	s15, [r2, #-28]
 752 00c0 1D7A53ED 		vldr.32	s15, [r3, #-116]
 753 00c4 A77A67EE 		vmul.f32	s15, s15, s15
 754 00c8 067A42ED 		vstr.32	s15, [r2, #-24]
 755 00cc 1C7A53ED 		vldr.32	s15, [r3, #-112]
 756 00d0 A77A67EE 		vmul.f32	s15, s15, s15
 757 00d4 057A42ED 		vstr.32	s15, [r2, #-20]
 758 00d8 1B7A53ED 		vldr.32	s15, [r3, #-108]
 759 00dc A77A67EE 		vmul.f32	s15, s15, s15
 760 00e0 047A42ED 		vstr.32	s15, [r2, #-16]
 761 00e4 1A7A53ED 		vldr.32	s15, [r3, #-104]
 762 00e8 A77A67EE 		vmul.f32	s15, s15, s15
 763 00ec 037A42ED 		vstr.32	s15, [r2, #-12]
 764 00f0 197A53ED 		vldr.32	s15, [r3, #-100]
 765 00f4 A77A67EE 		vmul.f32	s15, s15, s15
 766 00f8 027A42ED 		vstr.32	s15, [r2, #-8]
 767 00fc 187A53ED 		vldr.32	s15, [r3, #-96]
 768 0100 A77A67EE 		vmul.f32	s15, s15, s15
 769 0104 017A42ED 		vstr.32	s15, [r2, #-4]
 770 0108 DFFFFF8A 		bhi	.L143
 771              	.L142:
 772 010c 0131A0E1 		lsl	r3, r1, #2
 773 0110 03208CE0 		add	r2, ip, r3
 774 0114 033084E0 		add	r3, r4, r3
 775              	.L145:
 776 0118 017AF2EC 		vldmia.32	r2!, {s15}
 777 011c 011081E2 		add	r1, r1, #1
 778 0120 000051E1 		cmp	r1, r0
 779 0124 A77A67EE 		vmul.f32	s15, s15, s15
 780 0128 017AE3EC 		vstmia.32	r3!, {s15}
 781 012c F9FFFF3A 		bcc	.L145
 782              	.L144:
 783 0130 0000A0E3 		mov	r0, #0
 784 0134 7080BDE8 		pop	{r4, r5, r6, pc}
 785              	.L148:
 786 0138 0010A0E3 		mov	r1, #0
 787 013c F2FFFFEA 		b	.L142
 788              	.L138:
 789 0140 FEFFFFEB 		bl	abort
 790              		.fnend
 792              		.section	.text._ZN6tflite3ops5micro11elementwise12_GLOBAL__N_114LogicalNotEvalEP13TfLiteContextP10
 793              		.align	2
 794              		.syntax unified
 795              		.arm
 796              		.fpu neon
 798              	_ZN6tflite3ops5micro11elementwise12_GLOBAL__N_114LogicalNotEvalEP13TfLiteContextP10TfLiteNode:
 799              		.fnstart
 800              	.LFB1160:
 801              		@ args = 0, pretend = 0, frame = 0
 802              		@ frame_needed = 0, uses_anonymous_args = 0
 803 0000 70402DE9 		push	{r4, r5, r6, lr}
 804              		.save {r4, r5, r6, lr}
 805 0004 005050E2 		subs	r5, r0, #0
 806 0008 2300000A 		beq	.L158
 807 000c 000051E3 		cmp	r1, #0
 808 0010 0140A0E1 		mov	r4, r1
 809 0014 2000000A 		beq	.L158
 810 0018 002091E5 		ldr	r2, [r1]
 811 001c 543095E5 		ldr	r3, [r5, #84]
 812 0020 041092E5 		ldr	r1, [r2, #4]
 813 0024 33FF2FE1 		blx	r3
 814 0028 042094E5 		ldr	r2, [r4, #4]
 815 002c 0060A0E1 		mov	r6, r0
 816 0030 543095E5 		ldr	r3, [r5, #84]
 817 0034 0500A0E1 		mov	r0, r5
 818 0038 041092E5 		ldr	r1, [r2, #4]
 819 003c 33FF2FE1 		blx	r3
 820 0040 0830D6E5 		ldrb	r3, [r6, #8]	@ zero_extendqisi2
 821 0044 0040A0E1 		mov	r4, r0
 822 0048 060053E3 		cmp	r3, #6
 823 004c 0100000A 		beq	.L171
 824 0050 0100A0E3 		mov	r0, #1
 825 0054 7080BDE8 		pop	{r4, r5, r6, pc}
 826              	.L171:
 827 0058 040096E5 		ldr	r0, [r6, #4]
 828 005c FEFFFFEB 		bl	_ZN6tflite12ElementCountERK14TfLiteIntArray
 829 0060 000054E3 		cmp	r4, #0
 830 0064 002096E5 		ldr	r2, [r6]
 831 0068 00109415 		ldrne	r1, [r4]
 832 006c 0410A001 		moveq	r1, r4
 833 0070 000050E3 		cmp	r0, #0
 834 0074 00008210 		addne	r0, r2, r0
 835 0078 01104112 		subne	r1, r1, #1
 836 007c 0400000A 		beq	.L162
 837              	.L163:
 838 0080 0130D2E4 		ldrb	r3, [r2], #1	@ zero_extendqisi2
 839 0084 020050E1 		cmp	r0, r2
 840 0088 013023E2 		eor	r3, r3, #1
 841 008c 0130E1E5 		strb	r3, [r1, #1]!
 842 0090 FAFFFF1A 		bne	.L163
 843              	.L162:
 844 0094 0000A0E3 		mov	r0, #0
 845 0098 7080BDE8 		pop	{r4, r5, r6, pc}
 846              	.L158:
 847 009c FEFFFFEB 		bl	abort
 848              		.fnend
 850              		.section	.text._ZN6tflite3ops5micro11elementwise12_GLOBAL__N_114GenericPrepareIXadL_ZNS3_22IsNumer
 851              		.align	2
 852              		.syntax unified
 853              		.arm
 854              		.fpu neon
 856              	_ZN6tflite3ops5micro11elementwise12_GLOBAL__N_114GenericPrepareIXadL_ZNS3_22IsNumericSupportedTypeE
 857              		.fnstart
 858              	.LFB1180:
 859              		@ args = 0, pretend = 0, frame = 0
 860              		@ frame_needed = 0, uses_anonymous_args = 0
 861 0000 002091E5 		ldr	r2, [r1]
 862 0004 002092E5 		ldr	r2, [r2]
 863 0008 010052E3 		cmp	r2, #1
 864 000c 0100000A 		beq	.L186
 865 0010 0100A0E3 		mov	r0, #1
 866 0014 1EFF2FE1 		bx	lr
 867              	.L186:
 868 0018 042091E5 		ldr	r2, [r1, #4]
 869 001c 70402DE9 		push	{r4, r5, r6, lr}
 870              		.save {r4, r5, r6, lr}
 871 0020 0140A0E1 		mov	r4, r1
 872 0024 002092E5 		ldr	r2, [r2]
 873 0028 010052E3 		cmp	r2, #1
 874 002c 0100000A 		beq	.L187
 875              	.L175:
 876 0030 0100A0E3 		mov	r0, #1
 877 0034 7080BDE8 		pop	{r4, r5, r6, pc}
 878              	.L187:
 879 0038 0020A0E3 		mov	r2, #0
 880 003c 0050A0E1 		mov	r5, r0
 881 0040 FEFFFFEB 		bl	_ZN6tflite8GetInputEPK13TfLiteContextPK10TfLiteNodei
 882 0044 006050E2 		subs	r6, r0, #0
 883 0048 F8FFFF0A 		beq	.L175
 884 004c 0410A0E1 		mov	r1, r4
 885 0050 0500A0E1 		mov	r0, r5
 886 0054 0020A0E3 		mov	r2, #0
 887 0058 FEFFFFEB 		bl	_ZN6tflite9GetOutputEP13TfLiteContextPK10TfLiteNodei
 888 005c 000050E3 		cmp	r0, #0
 889 0060 F2FFFF0A 		beq	.L175
 890 0064 0030D6E5 		ldrb	r3, [r6]	@ zero_extendqisi2
 891 0068 0020D0E5 		ldrb	r2, [r0]	@ zero_extendqisi2
 892 006c 130F6FE1 		clz	r0, r3
 893 0070 A002A0E1 		lsr	r0, r0, #5
 894 0074 030052E1 		cmp	r2, r3
 895 0078 01008013 		orrne	r0, r0, #1
 896 007c 7080BDE8 		pop	{r4, r5, r6, pc}
 897              		.fnend
 899              		.section	.text._ZN6tflite3ops5micro12Register_ABSEv,"ax",%progbits
 900              		.align	2
 901              		.global	_ZN6tflite3ops5micro12Register_ABSEv
 902              		.syntax unified
 903              		.arm
 904              		.fpu neon
 906              	_ZN6tflite3ops5micro12Register_ABSEv:
 907              		.fnstart
 908              	.LFB1164:
 909              		@ args = 0, pretend = 0, frame = 0
 910              		@ frame_needed = 0, uses_anonymous_args = 0
 911 0000 00C000E3 		movw	ip, #:lower16:.LANCHOR0
 912 0004 10402DE9 		push	{r4, lr}
 913 0008 00C040E3 		movt	ip, #:upper16:.LANCHOR0
 914 000c 0040A0E1 		mov	r4, r0
 915 0010 00E0A0E1 		mov	lr, r0
 916 0014 0F00BCE8 		ldmia	ip!, {r0, r1, r2, r3}
 917 0018 0F00AEE8 		stmia	lr!, {r0, r1, r2, r3}
 918 001c 0F009CE8 		ldm	ip, {r0, r1, r2, r3}
 919 0020 0F008EE8 		stm	lr, {r0, r1, r2, r3}
 920 0024 0400A0E1 		mov	r0, r4
 921 0028 1080BDE8 		pop	{r4, pc}
 922              		.cantunwind
 923              		.fnend
 925              		.section	.text._ZN6tflite3ops5micro12Register_SINEv,"ax",%progbits
 926              		.align	2
 927              		.global	_ZN6tflite3ops5micro12Register_SINEv
 928              		.syntax unified
 929              		.arm
 930              		.fpu neon
 932              	_ZN6tflite3ops5micro12Register_SINEv:
 933              		.fnstart
 934              	.LFB1165:
 935              		@ args = 0, pretend = 0, frame = 0
 936              		@ frame_needed = 0, uses_anonymous_args = 0
 937 0000 10402DE9 		push	{r4, lr}
 938 0004 00C0A0E1 		mov	ip, r0
 939 0008 18E09FE5 		ldr	lr, .L192
 940 000c 0040A0E1 		mov	r4, r0
 941 0010 0F00BEE8 		ldmia	lr!, {r0, r1, r2, r3}
 942 0014 0F00ACE8 		stmia	ip!, {r0, r1, r2, r3}
 943 0018 0F009EE8 		ldm	lr, {r0, r1, r2, r3}
 944 001c 0F008CE8 		stm	ip, {r0, r1, r2, r3}
 945 0020 0400A0E1 		mov	r0, r4
 946 0024 1080BDE8 		pop	{r4, pc}
 947              	.L193:
 948              		.align	2
 949              	.L192:
 950 0028 20000000 		.word	.LANCHOR0+32
 951              		.cantunwind
 952              		.fnend
 954              		.section	.text._ZN6tflite3ops5micro12Register_COSEv,"ax",%progbits
 955              		.align	2
 956              		.global	_ZN6tflite3ops5micro12Register_COSEv
 957              		.syntax unified
 958              		.arm
 959              		.fpu neon
 961              	_ZN6tflite3ops5micro12Register_COSEv:
 962              		.fnstart
 963              	.LFB1166:
 964              		@ args = 0, pretend = 0, frame = 0
 965              		@ frame_needed = 0, uses_anonymous_args = 0
 966 0000 10402DE9 		push	{r4, lr}
 967 0004 00C0A0E1 		mov	ip, r0
 968 0008 18E09FE5 		ldr	lr, .L196
 969 000c 0040A0E1 		mov	r4, r0
 970 0010 0F00BEE8 		ldmia	lr!, {r0, r1, r2, r3}
 971 0014 0F00ACE8 		stmia	ip!, {r0, r1, r2, r3}
 972 0018 0F009EE8 		ldm	lr, {r0, r1, r2, r3}
 973 001c 0F008CE8 		stm	ip, {r0, r1, r2, r3}
 974 0020 0400A0E1 		mov	r0, r4
 975 0024 1080BDE8 		pop	{r4, pc}
 976              	.L197:
 977              		.align	2
 978              	.L196:
 979 0028 40000000 		.word	.LANCHOR0+64
 980              		.cantunwind
 981              		.fnend
 983              		.section	.text._ZN6tflite3ops5micro12Register_LOGEv,"ax",%progbits
 984              		.align	2
 985              		.global	_ZN6tflite3ops5micro12Register_LOGEv
 986              		.syntax unified
 987              		.arm
 988              		.fpu neon
 990              	_ZN6tflite3ops5micro12Register_LOGEv:
 991              		.fnstart
 992              	.LFB1167:
 993              		@ args = 0, pretend = 0, frame = 0
 994              		@ frame_needed = 0, uses_anonymous_args = 0
 995 0000 10402DE9 		push	{r4, lr}
 996 0004 00C0A0E1 		mov	ip, r0
 997 0008 18E09FE5 		ldr	lr, .L200
 998 000c 0040A0E1 		mov	r4, r0
 999 0010 0F00BEE8 		ldmia	lr!, {r0, r1, r2, r3}
 1000 0014 0F00ACE8 		stmia	ip!, {r0, r1, r2, r3}
 1001 0018 0F009EE8 		ldm	lr, {r0, r1, r2, r3}
 1002 001c 0F008CE8 		stm	ip, {r0, r1, r2, r3}
 1003 0020 0400A0E1 		mov	r0, r4
 1004 0024 1080BDE8 		pop	{r4, pc}
 1005              	.L201:
 1006              		.align	2
 1007              	.L200:
 1008 0028 60000000 		.word	.LANCHOR0+96
 1009              		.cantunwind
 1010              		.fnend
 1012              		.section	.text._ZN6tflite3ops5micro13Register_SQRTEv,"ax",%progbits
 1013              		.align	2
 1014              		.global	_ZN6tflite3ops5micro13Register_SQRTEv
 1015              		.syntax unified
 1016              		.arm
 1017              		.fpu neon
 1019              	_ZN6tflite3ops5micro13Register_SQRTEv:
 1020              		.fnstart
 1021              	.LFB1168:
 1022              		@ args = 0, pretend = 0, frame = 0
 1023              		@ frame_needed = 0, uses_anonymous_args = 0
 1024 0000 10402DE9 		push	{r4, lr}
 1025 0004 00C0A0E1 		mov	ip, r0
 1026 0008 18E09FE5 		ldr	lr, .L204
 1027 000c 0040A0E1 		mov	r4, r0
 1028 0010 0F00BEE8 		ldmia	lr!, {r0, r1, r2, r3}
 1029 0014 0F00ACE8 		stmia	ip!, {r0, r1, r2, r3}
 1030 0018 0F009EE8 		ldm	lr, {r0, r1, r2, r3}
 1031 001c 0F008CE8 		stm	ip, {r0, r1, r2, r3}
 1032 0020 0400A0E1 		mov	r0, r4
 1033 0024 1080BDE8 		pop	{r4, pc}
 1034              	.L205:
 1035              		.align	2
 1036              	.L204:
 1037 0028 80000000 		.word	.LANCHOR0+128
 1038              		.cantunwind
 1039              		.fnend
 1041              		.section	.text._ZN6tflite3ops5micro14Register_RSQRTEv,"ax",%progbits
 1042              		.align	2
 1043              		.global	_ZN6tflite3ops5micro14Register_RSQRTEv
 1044              		.syntax unified
 1045              		.arm
 1046              		.fpu neon
 1048              	_ZN6tflite3ops5micro14Register_RSQRTEv:
 1049              		.fnstart
 1050              	.LFB1169:
 1051              		@ args = 0, pretend = 0, frame = 0
 1052              		@ frame_needed = 0, uses_anonymous_args = 0
 1053 0000 10402DE9 		push	{r4, lr}
 1054 0004 00C0A0E1 		mov	ip, r0
 1055 0008 18E09FE5 		ldr	lr, .L208
 1056 000c 0040A0E1 		mov	r4, r0
 1057 0010 0F00BEE8 		ldmia	lr!, {r0, r1, r2, r3}
 1058 0014 0F00ACE8 		stmia	ip!, {r0, r1, r2, r3}
 1059 0018 0F009EE8 		ldm	lr, {r0, r1, r2, r3}
 1060 001c 0F008CE8 		stm	ip, {r0, r1, r2, r3}
 1061 0020 0400A0E1 		mov	r0, r4
 1062 0024 1080BDE8 		pop	{r4, pc}
 1063              	.L209:
 1064              		.align	2
 1065              	.L208:
 1066 0028 A0000000 		.word	.LANCHOR0+160
 1067              		.cantunwind
 1068              		.fnend
 1070              		.section	.text._ZN6tflite3ops5micro15Register_SQUAREEv,"ax",%progbits
 1071              		.align	2
 1072              		.global	_ZN6tflite3ops5micro15Register_SQUAREEv
 1073              		.syntax unified
 1074              		.arm
 1075              		.fpu neon
 1077              	_ZN6tflite3ops5micro15Register_SQUAREEv:
 1078              		.fnstart
 1079              	.LFB1170:
 1080              		@ args = 0, pretend = 0, frame = 0
 1081              		@ frame_needed = 0, uses_anonymous_args = 0
 1082 0000 10402DE9 		push	{r4, lr}
 1083 0004 00C0A0E1 		mov	ip, r0
 1084 0008 18E09FE5 		ldr	lr, .L212
 1085 000c 0040A0E1 		mov	r4, r0
 1086 0010 0F00BEE8 		ldmia	lr!, {r0, r1, r2, r3}
 1087 0014 0F00ACE8 		stmia	ip!, {r0, r1, r2, r3}
 1088 0018 0F009EE8 		ldm	lr, {r0, r1, r2, r3}
 1089 001c 0F008CE8 		stm	ip, {r0, r1, r2, r3}
 1090 0020 0400A0E1 		mov	r0, r4
 1091 0024 1080BDE8 		pop	{r4, pc}
 1092              	.L213:
 1093              		.align	2
 1094              	.L212:
 1095 0028 C0000000 		.word	.LANCHOR0+192
 1096              		.cantunwind
 1097              		.fnend
 1099              		.section	.text._ZN6tflite3ops5micro20Register_LOGICAL_NOTEv,"ax",%progbits
 1100              		.align	2
 1101              		.global	_ZN6tflite3ops5micro20Register_LOGICAL_NOTEv
 1102              		.syntax unified
 1103              		.arm
 1104              		.fpu neon
 1106              	_ZN6tflite3ops5micro20Register_LOGICAL_NOTEv:
 1107              		.fnstart
 1108              	.LFB1171:
 1109              		@ args = 0, pretend = 0, frame = 0
 1110              		@ frame_needed = 0, uses_anonymous_args = 0
 1111 0000 10402DE9 		push	{r4, lr}
 1112 0004 00C0A0E1 		mov	ip, r0
 1113 0008 18E09FE5 		ldr	lr, .L216
 1114 000c 0040A0E1 		mov	r4, r0
 1115 0010 0F00BEE8 		ldmia	lr!, {r0, r1, r2, r3}
 1116 0014 0F00ACE8 		stmia	ip!, {r0, r1, r2, r3}
 1117 0018 0F009EE8 		ldm	lr, {r0, r1, r2, r3}
 1118 001c 0F008CE8 		stm	ip, {r0, r1, r2, r3}
 1119 0020 0400A0E1 		mov	r0, r4
 1120 0024 1080BDE8 		pop	{r4, pc}
 1121              	.L217:
 1122              		.align	2
 1123              	.L216:
 1124 0028 E0000000 		.word	.LANCHOR0+224
 1125              		.cantunwind
 1126              		.fnend
 1128              		.section	.rodata
 1129              		.align	2
 1130              		.set	.LANCHOR0,. + 0
 1131              	.LC0:
 1132 0000 00000000 		.word	0
 1133 0004 00000000 		.word	0
 1134 0008 00000000 		.word	_ZN6tflite3ops5micro11elementwise12_GLOBAL__N_114GenericPrepareIXadL_ZNS3_22IsNumericSupport
 1135 000c 00000000 		.word	_ZN6tflite3ops5micro11elementwise12_GLOBAL__N_17AbsEvalEP13TfLiteContextP10TfLiteNode
 1136 0010 00000000 		.word	0
 1137 0014 00000000 		.word	0
 1138 0018 00000000 		.word	0
 1139 001c 00000000 		.word	0
 1140              	.LC1:
 1141 0020 00000000 		.word	0
 1142 0024 00000000 		.word	0
 1143 0028 00000000 		.word	_ZN6tflite3ops5micro11elementwise12_GLOBAL__N_114GenericPrepareIXadL_ZNS3_22IsNumericSupport
 1144 002c 00000000 		.word	_ZN6tflite3ops5micro11elementwise12_GLOBAL__N_17SinEvalEP13TfLiteContextP10TfLiteNode
 1145 0030 00000000 		.word	0
 1146 0034 00000000 		.word	0
 1147 0038 00000000 		.word	0
 1148 003c 00000000 		.word	0
 1149              	.LC2:
 1150 0040 00000000 		.word	0
 1151 0044 00000000 		.word	0
 1152 0048 00000000 		.word	_ZN6tflite3ops5micro11elementwise12_GLOBAL__N_114GenericPrepareIXadL_ZNS3_22IsNumericSupport
 1153 004c 00000000 		.word	_ZN6tflite3ops5micro11elementwise12_GLOBAL__N_17CosEvalEP13TfLiteContextP10TfLiteNode
 1154 0050 00000000 		.word	0
 1155 0054 00000000 		.word	0
 1156 0058 00000000 		.word	0
 1157 005c 00000000 		.word	0
 1158              	.LC3:
 1159 0060 00000000 		.word	0
 1160 0064 00000000 		.word	0
 1161 0068 00000000 		.word	_ZN6tflite3ops5micro11elementwise12_GLOBAL__N_114GenericPrepareIXadL_ZNS3_22IsNumericSupport
 1162 006c 00000000 		.word	_ZN6tflite3ops5micro11elementwise12_GLOBAL__N_17LogEvalEP13TfLiteContextP10TfLiteNode
 1163 0070 00000000 		.word	0
 1164 0074 00000000 		.word	0
 1165 0078 00000000 		.word	0
 1166 007c 00000000 		.word	0
 1167              	.LC4:
 1168 0080 00000000 		.word	0
 1169 0084 00000000 		.word	0
 1170 0088 00000000 		.word	_ZN6tflite3ops5micro11elementwise12_GLOBAL__N_114GenericPrepareIXadL_ZNS3_22IsNumericSupport
 1171 008c 00000000 		.word	_ZN6tflite3ops5micro11elementwise12_GLOBAL__N_18SqrtEvalEP13TfLiteContextP10TfLiteNode
 1172 0090 00000000 		.word	0
 1173 0094 00000000 		.word	0
 1174 0098 00000000 		.word	0
 1175 009c 00000000 		.word	0
 1176              	.LC5:
 1177 00a0 00000000 		.word	0
 1178 00a4 00000000 		.word	0
 1179 00a8 00000000 		.word	_ZN6tflite3ops5micro11elementwise12_GLOBAL__N_114GenericPrepareIXadL_ZNS3_22IsNumericSupport
 1180 00ac 00000000 		.word	_ZN6tflite3ops5micro11elementwise12_GLOBAL__N_19RsqrtEvalEP13TfLiteContextP10TfLiteNode
 1181 00b0 00000000 		.word	0
 1182 00b4 00000000 		.word	0
 1183 00b8 00000000 		.word	0
 1184 00bc 00000000 		.word	0
 1185              	.LC6:
 1186 00c0 00000000 		.word	0
 1187 00c4 00000000 		.word	0
 1188 00c8 00000000 		.word	_ZN6tflite3ops5micro11elementwise12_GLOBAL__N_114GenericPrepareIXadL_ZNS3_22IsNumericSupport
 1189 00cc 00000000 		.word	_ZN6tflite3ops5micro11elementwise12_GLOBAL__N_110SquareEvalEP13TfLiteContextP10TfLiteNode
 1190 00d0 00000000 		.word	0
 1191 00d4 00000000 		.word	0
 1192 00d8 00000000 		.word	0
 1193 00dc 00000000 		.word	0
 1194              	.LC7:
 1195 00e0 00000000 		.word	0
 1196 00e4 00000000 		.word	0
 1197 00e8 00000000 		.word	_ZN6tflite3ops5micro11elementwise12_GLOBAL__N_114GenericPrepareIXadL_ZNS3_22IsLogicalSupport
 1198 00ec 00000000 		.word	_ZN6tflite3ops5micro11elementwise12_GLOBAL__N_114LogicalNotEvalEP13TfLiteContextP10TfLiteNod
 1199 00f0 00000000 		.word	0
 1200 00f4 00000000 		.word	0
 1201 00f8 00000000 		.word	0
 1202 00fc 00000000 		.word	0
 1203              		.ident	"GCC: (GNU Tools for ARM Embedded Processors 6-2017-q2-update) 6.3.1 20170620 (release) [AR