   1              		.cpu cortex-a9
   2              		.eabi_attribute 28, 1
   3              		.eabi_attribute 20, 1
   4              		.eabi_attribute 21, 1
   5              		.eabi_attribute 23, 3
   6              		.eabi_attribute 24, 1
   7              		.eabi_attribute 25, 1
   8              		.eabi_attribute 26, 1
   9              		.eabi_attribute 30, 2
  10              		.eabi_attribute 34, 0
  11              		.eabi_attribute 18, 4
  12              		.file	"fully_connected.cc"
  13              		.section	.text._ZN6tflite12_GLOBAL__N_14InitEP13TfLiteContextPKcj,"ax",%progbits
  14              		.align	2
  15              		.syntax unified
  16              		.arm
  17              		.fpu neon
  19              	_ZN6tflite12_GLOBAL__N_14InitEP13TfLiteContextPKcj:
  20              		.fnstart
  21              	.LFB4173:
  22              		@ args = 0, pretend = 0, frame = 0
  23              		@ frame_needed = 0, uses_anonymous_args = 0
  24 0000 383090E5 		ldr	r3, [r0, #56]
  25 0004 000053E3 		cmp	r3, #0
  26 0008 0100000A 		beq	.L7
  27 000c 2010A0E3 		mov	r1, #32
  28 0010 13FF2FE1 		bx	r3
  29              	.L7:
  30 0014 10402DE9 		push	{r4, lr}
  31              		.save {r4, lr}
  32 0018 FEFFFFEB 		bl	abort
  33              		.fnend
  35              		.section	.text._ZN6tflite12_GLOBAL__N_17PrepareEP13TfLiteContextP10TfLiteNode,"ax",%progbits
  36              		.align	2
  37              		.syntax unified
  38              		.arm
  39              		.fpu neon
  41              	_ZN6tflite12_GLOBAL__N_17PrepareEP13TfLiteContextP10TfLiteNode:
  42              		.fnstart
  43              	.LFB4174:
  44              		@ args = 0, pretend = 0, frame = 0
  45              		@ frame_needed = 0, uses_anonymous_args = 0
  46 0000 F0472DE9 		push	{r4, r5, r6, r7, r8, r9, r10, lr}
  47              		.save {r4, r5, r6, r7, r8, r9, r10, lr}
  48              		.pad #16
  49 0004 10D04DE2 		sub	sp, sp, #16
  50 0008 106091E5 		ldr	r6, [r1, #16]
  51 000c 000056E3 		cmp	r6, #0
  52 0010 3300000A 		beq	.L10
  53 0014 147091E5 		ldr	r7, [r1, #20]
  54 0018 0140A0E1 		mov	r4, r1
  55 001c 000057E3 		cmp	r7, #0
  56 0020 2F00000A 		beq	.L10
  57 0024 003000E3 		movw	r3, #:lower16:_ZN6tflite26kFullyConnectedInputTensorE
  58 0028 0050A0E1 		mov	r5, r0
  59 002c 003040E3 		movt	r3, #:upper16:_ZN6tflite26kFullyConnectedInputTensorE
  60 0030 002093E5 		ldr	r2, [r3]
  61 0034 FEFFFFEB 		bl	_ZN6tflite8GetInputEPK13TfLiteContextPK10TfLiteNodei
  62 0038 008050E2 		subs	r8, r0, #0
  63 003c 1A00000A 		beq	.L13
  64 0040 003000E3 		movw	r3, #:lower16:_ZN6tflite28kFullyConnectedWeightsTensorE
  65 0044 0410A0E1 		mov	r1, r4
  66 0048 003040E3 		movt	r3, #:upper16:_ZN6tflite28kFullyConnectedWeightsTensorE
  67 004c 0500A0E1 		mov	r0, r5
  68 0050 002093E5 		ldr	r2, [r3]
  69 0054 FEFFFFEB 		bl	_ZN6tflite8GetInputEPK13TfLiteContextPK10TfLiteNodei
  70 0058 009050E2 		subs	r9, r0, #0
  71 005c 1200000A 		beq	.L13
  72 0060 003000E3 		movw	r3, #:lower16:_ZN6tflite25kFullyConnectedBiasTensorE
  73 0064 0410A0E1 		mov	r1, r4
  74 0068 003040E3 		movt	r3, #:upper16:_ZN6tflite25kFullyConnectedBiasTensorE
  75 006c 0500A0E1 		mov	r0, r5
  76 0070 002093E5 		ldr	r2, [r3]
  77 0074 FEFFFFEB 		bl	_ZN6tflite22GetOptionalInputTensorEPK13TfLiteContextPK10TfLiteNodei
  78 0078 003000E3 		movw	r3, #:lower16:_ZN6tflite27kFullyConnectedOutputTensorE
  79 007c 00A0A0E1 		mov	r10, r0
  80 0080 003040E3 		movt	r3, #:upper16:_ZN6tflite27kFullyConnectedOutputTensorE
  81 0084 0500A0E1 		mov	r0, r5
  82 0088 0410A0E1 		mov	r1, r4
  83 008c 002093E5 		ldr	r2, [r3]
  84 0090 FEFFFFEB 		bl	_ZN6tflite9GetOutputEP13TfLiteContextPK10TfLiteNodei
  85 0094 000050E3 		cmp	r0, #0
  86 0098 0300000A 		beq	.L13
  87 009c 0020D8E5 		ldrb	r2, [r8]	@ zero_extendqisi2
  88 00a0 0030D0E5 		ldrb	r3, [r0]	@ zero_extendqisi2
  89 00a4 020053E1 		cmp	r3, r2
  90 00a8 0200000A 		beq	.L24
  91              	.L13:
  92 00ac 0100A0E3 		mov	r0, #1
  93              	.L12:
  94 00b0 10D08DE2 		add	sp, sp, #16
  95              		@ sp needed
  96 00b4 F087BDE8 		pop	{r4, r5, r6, r7, r8, r9, r10, pc}
  97              	.L24:
  98 00b8 0020D9E5 		ldrb	r2, [r9]	@ zero_extendqisi2
  99 00bc 030052E1 		cmp	r2, r3
 100 00c0 F9FFFF1A 		bne	.L13
 101 00c4 0010D7E5 		ldrb	r1, [r7]	@ zero_extendqisi2
 102 00c8 0830A0E1 		mov	r3, r8
 103 00cc 08008DE5 		str	r0, [sp, #8]
 104 00d0 0500A0E1 		mov	r0, r5
 105 00d4 0C608DE5 		str	r6, [sp, #12]
 106 00d8 00068DE8 		stm	sp, {r9, r10}
 107 00dc FEFFFFEB 		bl	_ZN6tflite29CalculateOpDataFullyConnectedEP13TfLiteContext21TfLiteFusedActivation10TfLiteTypePK
 108 00e0 F2FFFFEA 		b	.L12
 109              	.L10:
 110 00e4 FEFFFFEB 		bl	abort
 111              		.fnend
 113              		.section	.text._ZN6tflite12_GLOBAL__N_14EvalEP13TfLiteContextP10TfLiteNode,"ax",%progbits
 114              		.align	2
 115              		.syntax unified
 116              		.arm
 117              		.fpu neon
 119              	_ZN6tflite12_GLOBAL__N_14EvalEP13TfLiteContextP10TfLiteNode:
 120              		.fnstart
 121              	.LFB4175:
 122              		@ args = 0, pretend = 0, frame = 224
 123              		@ frame_needed = 0, uses_anonymous_args = 0
 124 0000 F04F2DE9 		push	{r4, r5, r6, r7, r8, r9, r10, fp, lr}
 125              		.save {r4, r5, r6, r7, r8, r9, r10, fp, lr}
 126              		.pad #228
 127 0004 E4D04DE2 		sub	sp, sp, #228
 128 0008 149091E5 		ldr	r9, [r1, #20]
 129 000c 000059E3 		cmp	r9, #0
 130 0010 0F03000A 		beq	.L27
 131 0014 003000E3 		movw	r3, #:lower16:_ZN6tflite26kFullyConnectedInputTensorE
 132 0018 000050E3 		cmp	r0, #0
 133 001c 003040E3 		movt	r3, #:upper16:_ZN6tflite26kFullyConnectedInputTensorE
 134 0020 0150A0E1 		mov	r5, r1
 135 0024 0040A0E1 		mov	r4, r0
 136 0028 001093E5 		ldr	r1, [r3]
 137 002c 0803000A 		beq	.L27
 138 0030 003095E5 		ldr	r3, [r5]
 139 0034 542090E5 		ldr	r2, [r0, #84]
 140 0038 013183E0 		add	r3, r3, r1, lsl #2
 141 003c 041093E5 		ldr	r1, [r3, #4]
 142              	.LEHB0:
 143 0040 32FF2FE1 		blx	r2
 144 0044 002000E3 		movw	r2, #:lower16:_ZN6tflite28kFullyConnectedWeightsTensorE
 145 0048 003095E5 		ldr	r3, [r5]
 146 004c 002040E3 		movt	r2, #:upper16:_ZN6tflite28kFullyConnectedWeightsTensorE
 147 0050 546094E5 		ldr	r6, [r4, #84]
 148 0054 002092E5 		ldr	r2, [r2]
 149 0058 0080A0E1 		mov	r8, r0
 150 005c 0400A0E1 		mov	r0, r4
 151 0060 023183E0 		add	r3, r3, r2, lsl #2
 152 0064 041093E5 		ldr	r1, [r3, #4]
 153 0068 36FF2FE1 		blx	r6
 154 006c 002000E3 		movw	r2, #:lower16:_ZN6tflite25kFullyConnectedBiasTensorE
 155 0070 003095E5 		ldr	r3, [r5]
 156 0074 002040E3 		movt	r2, #:upper16:_ZN6tflite25kFullyConnectedBiasTensorE
 157 0078 546094E5 		ldr	r6, [r4, #84]
 158 007c 002092E5 		ldr	r2, [r2]
 159 0080 0070A0E1 		mov	r7, r0
 160 0084 0400A0E1 		mov	r0, r4
 161 0088 023183E0 		add	r3, r3, r2, lsl #2
 162 008c 041093E5 		ldr	r1, [r3, #4]
 163 0090 36FF2FE1 		blx	r6
 164 0094 002000E3 		movw	r2, #:lower16:_ZN6tflite27kFullyConnectedOutputTensorE
 165 0098 043095E5 		ldr	r3, [r5, #4]
 166 009c 002040E3 		movt	r2, #:upper16:_ZN6tflite27kFullyConnectedOutputTensorE
 167 00a0 00A0A0E1 		mov	r10, r0
 168 00a4 002092E5 		ldr	r2, [r2]
 169 00a8 0400A0E1 		mov	r0, r4
 170 00ac 544094E5 		ldr	r4, [r4, #84]
 171 00b0 023183E0 		add	r3, r3, r2, lsl #2
 172 00b4 041093E5 		ldr	r1, [r3, #4]
 173 00b8 34FF2FE1 		blx	r4
 174 00bc 101095E5 		ldr	r1, [r5, #16]
 175 00c0 0040A0E1 		mov	r4, r0
 176 00c4 000051E3 		cmp	r1, #0
 177 00c8 E102000A 		beq	.L27
 178 00cc 0830D8E5 		ldrb	r3, [r8, #8]	@ zero_extendqisi2
 179 00d0 010053E3 		cmp	r3, #1
 180 00d4 1202000A 		beq	.L29
 181 00d8 090053E3 		cmp	r3, #9
 182 00dc F001001A 		bne	.L247
 183 00e0 B8008DE2 		add	r0, sp, #184
 184 00e4 FEFFFFEB 		bl	_ZN6tflite29FullyConnectedParamsQuantizedERKNS_20OpDataFullyConnectedE
 185 00e8 0810A0E1 		mov	r1, r8
 186 00ec 58008DE2 		add	r0, sp, #88
 187 00f0 FEFFFFEB 		bl	_ZN6tflite5micro14GetTensorShapeEPK16TfLiteEvalTensor
 188              	.LEHE0:
 189 00f4 003098E5 		ldr	r3, [r8]
 190 00f8 0710A0E1 		mov	r1, r7
 191 00fc 70008DE2 		add	r0, sp, #112
 192 0100 0350A0E1 		mov	r5, r3
 193              	.LEHB1:
 194 0104 FEFFFFEB 		bl	_ZN6tflite5micro14GetTensorShapeEPK16TfLiteEvalTensor
 195              	.LEHE1:
 196 0108 000057E3 		cmp	r7, #0
 197 010c EF02000A 		beq	.L248
 198 0110 0A10A0E1 		mov	r1, r10
 199 0114 88008DE2 		add	r0, sp, #136
 200 0118 006097E5 		ldr	r6, [r7]
 201              	.LEHB2:
 202 011c FEFFFFEB 		bl	_ZN6tflite5micro14GetTensorShapeEPK16TfLiteEvalTensor
 203              	.LEHE2:
 204 0120 00005AE3 		cmp	r10, #0
 205 0124 EB02000A 		beq	.L249
 206 0128 00309AE5 		ldr	r3, [r10]
 207 012c 0410A0E1 		mov	r1, r4
 208 0130 A0008DE2 		add	r0, sp, #160
 209 0134 1C308DE5 		str	r3, [sp, #28]
 210              	.LEHB3:
 211 0138 FEFFFFEB 		bl	_ZN6tflite5micro14GetTensorShapeEPK16TfLiteEvalTensor
 212              	.LEHE3:
 213 013c C0209DE5 		ldr	r2, [sp, #192]
 214 0140 000054E3 		cmp	r4, #0
 215 0144 CC109DE5 		ldr	r1, [sp, #204]
 216 0148 04C0A001 		moveq	ip, r4
 217 014c 70309DE5 		ldr	r3, [sp, #112]
 218 0150 20208DE5 		str	r2, [sp, #32]
 219 0154 0C108DE5 		str	r1, [sp, #12]
 220 0158 C4209DE5 		ldr	r2, [sp, #196]
 221 015c D0109DE5 		ldr	r1, [sp, #208]
 222 0160 00C09415 		ldrne	ip, [r4]
 223 0164 010053E3 		cmp	r3, #1
 224 0168 2C208DE5 		str	r2, [sp, #44]
 225 016c B8909DE5 		ldr	r9, [sp, #184]
 226 0170 BC809DE5 		ldr	r8, [sp, #188]
 227 0174 C8209DE5 		ldr	r2, [sp, #200]
 228 0178 38108DE5 		str	r1, [sp, #56]
 229 017c D70200DA 		ble	.L250
 230 0180 A0109DE5 		ldr	r1, [sp, #160]
 231 0184 020051E3 		cmp	r1, #2
 232 0188 D502001A 		bne	.L251
 233 018c 0C109DE5 		ldr	r1, [sp, #12]
 234 0190 38009DE5 		ldr	r0, [sp, #56]
 235 0194 000051E1 		cmp	r1, r0
 236 0198 AC0200CA 		bgt	.L252
 237 019c A4109DE5 		ldr	r1, [sp, #164]
 238 01a0 050053E3 		cmp	r3, #5
 239 01a4 54108DE5 		str	r1, [sp, #84]
 240 01a8 A8109DE5 		ldr	r1, [sp, #168]
 241 01ac 48108DE5 		str	r1, [sp, #72]
 242 01b0 021043E2 		sub	r1, r3, #2
 243 01b4 9D0200CA 		bgt	.L253
 244 01b8 E0008DE2 		add	r0, sp, #224
 245 01bc 011180E0 		add	r1, r0, r1, lsl #2
 246 01c0 48009DE5 		ldr	r0, [sp, #72]
 247 01c4 6C1011E5 		ldr	r1, [r1, #-108]
 248 01c8 010050E1 		cmp	r0, r1
 249 01cc 9E0200CA 		bgt	.L73
 250 01d0 E0108DE2 		add	r1, sp, #224
 251 01d4 033181E0 		add	r3, r1, r3, lsl #2
 252 01d8 707013E5 		ldr	r7, [r3, #-112]
 253              	.L121:
 254 01dc 54309DE5 		ldr	r3, [sp, #84]
 255 01e0 000053E3 		cmp	r3, #0
 256 01e4 960100DA 		ble	.L76
 257 01e8 000052E3 		cmp	r2, #0
 258 01ec 001062E2 		rsb	r1, r2, #0
 259 01f0 B00BDFED 		vldr.64	d16, .L261	@ int
 260 01f4 0010A0C3 		movgt	r1, #0
 261 01f8 103047E2 		sub	r3, r7, #16
 262 01fc C22FC2E1 		bic	r2, r2, r2, asr #31
 263 0200 901B01EE 		vmov.32	d17[0], r1
 264 0204 2332A0E1 		lsr	r3, r3, #4
 265 0208 08108DE5 		str	r1, [sp, #8]
 266 020c 05E0A0E1 		mov	lr, r5
 267 0210 A00471F3 		vshl.u64	d16, d16, d17
 268 0214 30208DE5 		str	r2, [sp, #48]
 269 0218 908BA8EE 		vdup.32	q12, r8
 270 021c 300B51EC 		vmov	r0, r1, d16	@ int
 271 0220 021043E2 		sub	r1, r3, #2
 272 0224 013083E2 		add	r3, r3, #1
 273 0228 012040E2 		sub	r2, r0, #1
 274 022c 0300A0E1 		mov	r0, r3
 275 0230 24208DE5 		str	r2, [sp, #36]
 276 0234 44308DE5 		str	r3, [sp, #68]
 277 0238 C230A0E1 		asr	r3, r2, #1
 278 023c 0022A0E1 		lsl	r2, r0, #4
 279 0240 909BA6EE 		vdup.32	q11, r9
 280 0244 28308DE5 		str	r3, [sp, #40]
 281 0248 0130C1E3 		bic	r3, r1, #1
 282 024c 3C208DE5 		str	r2, [sp, #60]
 283 0250 023083E2 		add	r3, r3, #2
 284 0254 48209DE5 		ldr	r2, [sp, #72]
 285 0258 14308DE5 		str	r3, [sp, #20]
 286 025c 013047E2 		sub	r3, r7, #1
 287 0260 40108DE5 		str	r1, [sp, #64]
 288 0264 02208CE0 		add	r2, ip, r2
 289 0268 34308DE5 		str	r3, [sp, #52]
 290 026c 18208DE5 		str	r2, [sp, #24]
 291 0270 0020A0E3 		mov	r2, #0
 292 0274 10508DE5 		str	r5, [sp, #16]
 293 0278 50208DE5 		str	r2, [sp, #80]
 294              	.L79:
 295 027c 48309DE5 		ldr	r3, [sp, #72]
 296 0280 000053E3 		cmp	r3, #0
 297 0284 5A0100DA 		ble	.L97
 298 0288 0310A0E1 		mov	r1, r3
 299 028c 18209DE5 		ldr	r2, [sp, #24]
 300 0290 10309DE5 		ldr	r3, [sp, #16]
 301 0294 0640A0E1 		mov	r4, r6
 302 0298 1C509DE5 		ldr	r5, [sp, #28]
 303 029c 012042E0 		sub	r2, r2, r1
 304 02a0 0EC043E0 		sub	ip, r3, lr
 305 02a4 073083E0 		add	r3, r3, r7
 306 02a8 04208DE5 		str	r2, [sp, #4]
 307 02ac 4C308DE5 		str	r3, [sp, #76]
 308              	.L98:
 309 02b0 000057E3 		cmp	r7, #0
 310 02b4 8F0100DA 		ble	.L80
 311 02b8 10009DE5 		ldr	r0, [sp, #16]
 312 02bc 0F0057E3 		cmp	r7, #15
 313 02c0 061044E0 		sub	r1, r4, r6
 314 02c4 042080E1 		orr	r2, r0, r4
 315 02c8 0030A0E1 		mov	r3, r0
 316 02cc 5220E3E7 		ubfx	r2, r2, #0, #4
 317 02d0 0030A093 		movls	r3, #0
 318 02d4 0130A083 		movhi	r3, #1
 319 02d8 000052E3 		cmp	r2, #0
 320 02dc 0030A013 		movne	r3, #0
 321 02e0 000053E3 		cmp	r3, #0
 322 02e4 7901000A 		beq	.L81
 323 02e8 34309DE5 		ldr	r3, [sp, #52]
 324 02ec 0E0053E3 		cmp	r3, #14
 325 02f0 7301009A 		bls	.L132
 326 02f4 40309DE5 		ldr	r3, [sp, #64]
 327 02f8 04A0A0E1 		mov	r10, r4
 328 02fc 5000C0F2 		vmov.i32	q8, #0  @ v4si
 329 0300 040073E3 		cmn	r3, #4
 330 0304 8401008A 		bhi	.L133
 331 0308 203080E2 		add	r3, r0, #32
 332 030c 202084E2 		add	r2, r4, #32
 333 0310 00B0A0E3 		mov	fp, #0
 334              	.L84:
 335 0314 082B53ED 		vldr	d18, [r3, #-32]
 336 0318 063B53ED 		vldr	d19, [r3, #-24]
 337 031c 02B08BE2 		add	fp, fp, #2
 338 0320 14009DE5 		ldr	r0, [sp, #20]
 339 0324 02A0A0E1 		mov	r10, r2
 340 0328 084B52ED 		vldr	d20, [r2, #-32]
 341 032c 065B52ED 		vldr	d21, [r2, #-24]
 342 0330 202082E2 		add	r2, r2, #32
 343 0334 32CAC8F2 		vmovl.s8 q14, d18
 344 0338 34AAC8F2 		vmovl.s8 q13, d20
 345 033c 00005BE1 		cmp	fp, r0
 346 0340 332AC8F2 		vmovl.s8 q9, d19
 347 0344 0300A0E1 		mov	r0, r3
 348 0348 3C6A90F2 		vmovl.s16 q3, d28
 349 034c 3AEAD0F2 		vmovl.s16 q15, d26
 350 0350 666826F2 		vadd.i32	q3, q3, q11
 351 0354 E8E86EF2 		vadd.i32	q15, q15, q12
 352 0358 3DCAD0F2 		vmovl.s16 q14, d29
 353 035c 3BAAD0F2 		vmovl.s16 q13, d27
 354 0360 6E0966F2 		vmla.i32	q8, q3, q15
 355 0364 40F0D3F5 		pld	[r3, #64]
 356 0368 203083E2 		add	r3, r3, #32
 357 036c 0C6B13ED 		vldr	d6, [r3, #-48]
 358 0370 0A7B13ED 		vldr	d7, [r3, #-40]
 359 0374 E6C86CF2 		vadd.i32	q14, q14, q11
 360 0378 E8A86AF2 		vadd.i32	q13, q13, q12
 361 037c 354AC8F2 		vmovl.s8 q10, d21
 362 0380 32EAD0F2 		vmovl.s16 q15, d18
 363 0384 332AD0F2 		vmovl.s16 q9, d19
 364 0388 EA096CF2 		vmla.i32	q8, q14, q13
 365 038c 0CAB52ED 		vldr	d26, [r2, #-48]
 366 0390 0ABB52ED 		vldr	d27, [r2, #-40]
 367 0394 34CAD0F2 		vmovl.s16 q14, d20
 368 0398 E6E86EF2 		vadd.i32	q15, q15, q11
 369 039c E8C86CF2 		vadd.i32	q14, q14, q12
 370 03a0 354AD0F2 		vmovl.s16 q10, d21
 371 03a4 E62862F2 		vadd.i32	q9, q9, q11
 372 03a8 EC096EF2 		vmla.i32	q8, q15, q14
 373 03ac E84864F2 		vadd.i32	q10, q10, q12
 374 03b0 16CAC8F2 		vmovl.s8 q14, d6
 375 03b4 3AEAC8F2 		vmovl.s8 q15, d26
 376 03b8 176A88F2 		vmovl.s8 q3, d7
 377 03bc 3C4A90F2 		vmovl.s16 q2, d28
 378 03c0 E40962F2 		vmla.i32	q8, q9, q10
 379 03c4 3E4AD0F2 		vmovl.s16 q10, d30
 380 03c8 664824F2 		vadd.i32	q2, q2, q11
 381 03cc E84864F2 		vadd.i32	q10, q10, q12
 382 03d0 3DCAD0F2 		vmovl.s16 q14, d29
 383 03d4 3FEAD0F2 		vmovl.s16 q15, d31
 384 03d8 C40964F2 		vmla.i32	q8, q10, q2
 385 03dc E6C86CF2 		vadd.i32	q14, q14, q11
 386 03e0 E8E86EF2 		vadd.i32	q15, q15, q12
 387 03e4 3B2AC8F2 		vmovl.s8 q9, d27
 388 03e8 16AAD0F2 		vmovl.s16 q13, d6
 389 03ec 174AD0F2 		vmovl.s16 q10, d7
 390 03f0 EC096EF2 		vmla.i32	q8, q15, q14
 391 03f4 32CAD0F2 		vmovl.s16 q14, d18
 392 03f8 E6A86AF2 		vadd.i32	q13, q13, q11
 393 03fc E8C86CF2 		vadd.i32	q14, q14, q12
 394 0400 332AD0F2 		vmovl.s16 q9, d19
 395 0404 E64864F2 		vadd.i32	q10, q10, q11
 396 0408 EA096CF2 		vmla.i32	q8, q14, q13
 397 040c E82862F2 		vadd.i32	q9, q9, q12
 398 0410 E40962F2 		vmla.i32	q8, q9, q10
 399 0414 BEFFFF1A 		bne	.L84
 400 0418 14309DE5 		ldr	r3, [sp, #20]
 401              	.L83:
 402 041c 44209DE5 		ldr	r2, [sp, #68]
 403              	.L91:
 404 0420 DF2A60F4 		vld1.64	{d18-d19}, [r0:64]
 405 0424 013083E2 		add	r3, r3, #1
 406 0428 030052E1 		cmp	r2, r3
 407 042c 100080E2 		add	r0, r0, #16
 408 0430 DF4A6AF4 		vld1.64	{d20-d21}, [r10:64]
 409 0434 10A08AE2 		add	r10, r10, #16
 410 0438 32AAC8F2 		vmovl.s8 q13, d18
 411 043c 34CAC8F2 		vmovl.s8 q14, d20
 412 0440 332AC8F2 		vmovl.s8 q9, d19
 413 0444 3AEAD0F2 		vmovl.s16 q15, d26
 414 0448 3C6A90F2 		vmovl.s16 q3, d28
 415 044c E6E86EF2 		vadd.i32	q15, q15, q11
 416 0450 686826F2 		vadd.i32	q3, q3, q12
 417 0454 3BAAD0F2 		vmovl.s16 q13, d27
 418 0458 3DCAD0F2 		vmovl.s16 q14, d29
 419 045c 6E0966F2 		vmla.i32	q8, q3, q15
 420 0460 E8C86CF2 		vadd.i32	q14, q14, q12
 421 0464 E6A86AF2 		vadd.i32	q13, q13, q11
 422 0468 354AC8F2 		vmovl.s8 q10, d21
 423 046c 32EAD0F2 		vmovl.s16 q15, d18
 424 0470 332AD0F2 		vmovl.s16 q9, d19
 425 0474 EA096CF2 		vmla.i32	q8, q14, q13
 426 0478 34CAD0F2 		vmovl.s16 q14, d20
 427 047c E6E86EF2 		vadd.i32	q15, q15, q11
 428 0480 E8C86CF2 		vadd.i32	q14, q14, q12
 429 0484 354AD0F2 		vmovl.s16 q10, d21
 430 0488 E62862F2 		vadd.i32	q9, q9, q11
 431 048c EE096CF2 		vmla.i32	q8, q14, q15
 432 0490 E84864F2 		vadd.i32	q10, q10, q12
 433 0494 E20964F2 		vmla.i32	q8, q10, q9
 434 0498 E0FFFF8A 		bhi	.L91
 435 049c A10860F2 		vadd.i32	d16, d16, d17
 436 04a0 3C209DE5 		ldr	r2, [sp, #60]
 437 04a4 B00B60F2 		vpadd.i32	d16, d16, d16
 438 04a8 070052E1 		cmp	r2, r7
 439 04ac 903B10EE 		vmov.32	r3, d16[0]
 440 04b0 9500000A 		beq	.L92
 441 04b4 010000EA 		b	.L262
 442              	.L263:
 443              		.align	3
 444              	.L261:
 445 04b8 01000000 		.word	1
 446 04bc 00000000 		.word	0
 447              	.L262:
 448              	.L82:
 449 04c0 020086E0 		add	r0, r6, r2
 450 04c4 02B08EE0 		add	fp, lr, r2
 451 04c8 D1A090E1 		ldrsb	r10, [r0, r1]
 452 04cc 010082E2 		add	r0, r2, #1
 453 04d0 DCB09BE1 		ldrsb	fp, [fp, ip]
 454 04d4 070050E1 		cmp	r0, r7
 455 04d8 08A08AE0 		add	r10, r10, r8
 456 04dc 09B08BE0 		add	fp, fp, r9
 457 04e0 9B3A23E0 		mla	r3, fp, r10, r3
 458 04e4 880000AA 		bge	.L92
 459 04e8 00A08EE0 		add	r10, lr, r0
 460 04ec 000086E0 		add	r0, r6, r0
 461 04f0 DCA09AE1 		ldrsb	r10, [r10, ip]
 462 04f4 D1B090E1 		ldrsb	fp, [r0, r1]
 463 04f8 020082E2 		add	r0, r2, #2
 464 04fc 070050E1 		cmp	r0, r7
 465 0500 09A08AE0 		add	r10, r10, r9
 466 0504 08B08BE0 		add	fp, fp, r8
 467 0508 9B3A23E0 		mla	r3, fp, r10, r3
 468 050c 7E0000AA 		bge	.L92
 469 0510 00A08EE0 		add	r10, lr, r0
 470 0514 000086E0 		add	r0, r6, r0
 471 0518 DCA09AE1 		ldrsb	r10, [r10, ip]
 472 051c D1B090E1 		ldrsb	fp, [r0, r1]
 473 0520 030082E2 		add	r0, r2, #3
 474 0524 000057E1 		cmp	r7, r0
 475 0528 09A08AE0 		add	r10, r10, r9
 476 052c 08B08BE0 		add	fp, fp, r8
 477 0530 9B3A23E0 		mla	r3, fp, r10, r3
 478 0534 740000DA 		ble	.L92
 479 0538 00A086E0 		add	r10, r6, r0
 480 053c 00008EE0 		add	r0, lr, r0
 481 0540 D1A09AE1 		ldrsb	r10, [r10, r1]
 482 0544 DCB090E1 		ldrsb	fp, [r0, ip]
 483 0548 040082E2 		add	r0, r2, #4
 484 054c 000057E1 		cmp	r7, r0
 485 0550 08A08AE0 		add	r10, r10, r8
 486 0554 09B08BE0 		add	fp, fp, r9
 487 0558 9B3A23E0 		mla	r3, fp, r10, r3
 488 055c 6A0000DA 		ble	.L92
 489 0560 00A086E0 		add	r10, r6, r0
 490 0564 00008EE0 		add	r0, lr, r0
 491 0568 D1A09AE1 		ldrsb	r10, [r10, r1]
 492 056c DCB090E1 		ldrsb	fp, [r0, ip]
 493 0570 050082E2 		add	r0, r2, #5
 494 0574 000057E1 		cmp	r7, r0
 495 0578 08A08AE0 		add	r10, r10, r8
 496 057c 09B08BE0 		add	fp, fp, r9
 497 0580 9B3A23E0 		mla	r3, fp, r10, r3
 498 0584 600000DA 		ble	.L92
 499 0588 00A086E0 		add	r10, r6, r0
 500 058c 00008EE0 		add	r0, lr, r0
 501 0590 D1A09AE1 		ldrsb	r10, [r10, r1]
 502 0594 DCB090E1 		ldrsb	fp, [r0, ip]
 503 0598 060082E2 		add	r0, r2, #6
 504 059c 000057E1 		cmp	r7, r0
 505 05a0 08A08AE0 		add	r10, r10, r8
 506 05a4 09B08BE0 		add	fp, fp, r9
 507 05a8 9B3A23E0 		mla	r3, fp, r10, r3
 508 05ac 560000DA 		ble	.L92
 509 05b0 00A086E0 		add	r10, r6, r0
 510 05b4 00008EE0 		add	r0, lr, r0
 511 05b8 D1A09AE1 		ldrsb	r10, [r10, r1]
 512 05bc DCB090E1 		ldrsb	fp, [r0, ip]
 513 05c0 070082E2 		add	r0, r2, #7
 514 05c4 000057E1 		cmp	r7, r0
 515 05c8 08A08AE0 		add	r10, r10, r8
 516 05cc 09B08BE0 		add	fp, fp, r9
 517 05d0 9B3A23E0 		mla	r3, fp, r10, r3
 518 05d4 4C0000DA 		ble	.L92
 519 05d8 00A086E0 		add	r10, r6, r0
 520 05dc 00008EE0 		add	r0, lr, r0
 521 05e0 D1A09AE1 		ldrsb	r10, [r10, r1]
 522 05e4 DCB090E1 		ldrsb	fp, [r0, ip]
 523 05e8 080082E2 		add	r0, r2, #8
 524 05ec 000057E1 		cmp	r7, r0
 525 05f0 08A08AE0 		add	r10, r10, r8
 526 05f4 09B08BE0 		add	fp, fp, r9
 527 05f8 9B3A23E0 		mla	r3, fp, r10, r3
 528 05fc 420000DA 		ble	.L92
 529 0600 00A086E0 		add	r10, r6, r0
 530 0604 00008EE0 		add	r0, lr, r0
 531 0608 D1A09AE1 		ldrsb	r10, [r10, r1]
 532 060c DCB090E1 		ldrsb	fp, [r0, ip]
 533 0610 090082E2 		add	r0, r2, #9
 534 0614 000057E1 		cmp	r7, r0
 535 0618 08A08AE0 		add	r10, r10, r8
 536 061c 09B08BE0 		add	fp, fp, r9
 537 0620 9B3A23E0 		mla	r3, fp, r10, r3
 538 0624 380000DA 		ble	.L92
 539 0628 00A086E0 		add	r10, r6, r0
 540 062c 00008EE0 		add	r0, lr, r0
 541 0630 D1A09AE1 		ldrsb	r10, [r10, r1]
 542 0634 DCB090E1 		ldrsb	fp, [r0, ip]
 543 0638 0A0082E2 		add	r0, r2, #10
 544 063c 000057E1 		cmp	r7, r0
 545 0640 08A08AE0 		add	r10, r10, r8
 546 0644 09B08BE0 		add	fp, fp, r9
 547 0648 9B3A23E0 		mla	r3, fp, r10, r3
 548 064c 2E0000DA 		ble	.L92
 549 0650 00A086E0 		add	r10, r6, r0
 550 0654 00008EE0 		add	r0, lr, r0
 551 0658 D1A09AE1 		ldrsb	r10, [r10, r1]
 552 065c DCB090E1 		ldrsb	fp, [r0, ip]
 553 0660 0B0082E2 		add	r0, r2, #11
 554 0664 000057E1 		cmp	r7, r0
 555 0668 08A08AE0 		add	r10, r10, r8
 556 066c 09B08BE0 		add	fp, fp, r9
 557 0670 9B3A23E0 		mla	r3, fp, r10, r3
 558 0674 240000DA 		ble	.L92
 559 0678 00A086E0 		add	r10, r6, r0
 560 067c 00008EE0 		add	r0, lr, r0
 561 0680 D1A09AE1 		ldrsb	r10, [r10, r1]
 562 0684 DCB090E1 		ldrsb	fp, [r0, ip]
 563 0688 0C0082E2 		add	r0, r2, #12
 564 068c 000057E1 		cmp	r7, r0
 565 0690 08A08AE0 		add	r10, r10, r8
 566 0694 09B08BE0 		add	fp, fp, r9
 567 0698 9B3A23E0 		mla	r3, fp, r10, r3
 568 069c 1A0000DA 		ble	.L92
 569 06a0 00A086E0 		add	r10, r6, r0
 570 06a4 00008EE0 		add	r0, lr, r0
 571 06a8 D1A09AE1 		ldrsb	r10, [r10, r1]
 572 06ac DCB090E1 		ldrsb	fp, [r0, ip]
 573 06b0 0D0082E2 		add	r0, r2, #13
 574 06b4 000057E1 		cmp	r7, r0
 575 06b8 08A08AE0 		add	r10, r10, r8
 576 06bc 09B08BE0 		add	fp, fp, r9
 577 06c0 9B3A23E0 		mla	r3, fp, r10, r3
 578 06c4 100000DA 		ble	.L92
 579 06c8 00A086E0 		add	r10, r6, r0
 580 06cc 00008EE0 		add	r0, lr, r0
 581 06d0 D1A09AE1 		ldrsb	r10, [r10, r1]
 582 06d4 DC0090E1 		ldrsb	r0, [r0, ip]
 583 06d8 0E2082E2 		add	r2, r2, #14
 584 06dc 020057E1 		cmp	r7, r2
 585 06e0 08A08AE0 		add	r10, r10, r8
 586 06e4 090080E0 		add	r0, r0, r9
 587 06e8 903A23E0 		mla	r3, r0, r10, r3
 588 06ec 060000DA 		ble	.L92
 589 06f0 02008EE0 		add	r0, lr, r2
 590 06f4 022086E0 		add	r2, r6, r2
 591 06f8 DC0090E1 		ldrsb	r0, [r0, ip]
 592 06fc D12092E1 		ldrsb	r2, [r2, r1]
 593 0700 090080E0 		add	r0, r0, r9
 594 0704 082082E0 		add	r2, r2, r8
 595 0708 923023E0 		mla	r3, r2, r0, r3
 596              	.L92:
 597 070c 1C209DE5 		ldr	r2, [sp, #28]
 598 0710 000052E3 		cmp	r2, #0
 599 0714 0100000A 		beq	.L89
 600              	.L88:
 601 0718 002095E5 		ldr	r2, [r5]
 602 071c 023083E0 		add	r3, r3, r2
 603              	.L89:
 604 0720 30209DE5 		ldr	r2, [sp, #48]
 605 0724 2C109DE5 		ldr	r1, [sp, #44]
 606 0728 13A2A0E1 		lsl	r10, r3, r2
 607 072c 912AC3E0 		smull	r2, r3, r1, r10
 608 0730 0A0051E1 		cmp	r1, r10
 609 0734 02015A03 		cmpeq	r10, #-2147483648
 610 0738 01A0A003 		moveq	r10, #1
 611 073c 00A0A013 		movne	r10, #0
 612 0740 000052E3 		cmp	r2, #0
 613 0744 0010D3E2 		sbcs	r1, r3, #0
 614 0748 5A0000BA 		blt	.L134
 615 074c 0101A0E3 		mov	r0, #1073741824
 616 0750 0010A0E3 		mov	r1, #0
 617              	.L94:
 618 0754 00005AE3 		cmp	r10, #0
 619 0758 5400001A 		bne	.L254
 620              	.L120:
 621 075c 020090E0 		adds	r0, r0, r2
 622 0760 0310A1E0 		adc	r1, r1, r3
 623 0764 0030A0E3 		mov	r3, #0
 624 0768 C12FA0E1 		asr	r2, r1, #31
 625 076c 0221C2E3 		bic	r2, r2, #-2147483648
 626 0770 002092E0 		adds	r2, r2, r0
 627 0774 A22FA0E1 		lsr	r2, r2, #31
 628 0778 0130A3E0 		adc	r3, r3, r1
 629 077c 832082E1 		orr	r2, r2, r3, lsl #1
 630              	.L119:
 631 0780 08309DE5 		ldr	r3, [sp, #8]
 632 0784 1F0053E3 		cmp	r3, #31
 633 0788 5D0100CA 		bgt	.L255
 634 078c 28309DE5 		ldr	r3, [sp, #40]
 635 0790 24009DE5 		ldr	r0, [sp, #36]
 636 0794 A21F83E0 		add	r1, r3, r2, lsr #31
 637 0798 08309DE5 		ldr	r3, [sp, #8]
 638 079c 5233A0E1 		asr	r3, r2, r3
 639 07a0 002002E0 		and	r2, r2, r0
 640 07a4 010052E1 		cmp	r2, r1
 641 07a8 0320A0D1 		movle	r2, r3
 642 07ac 012083C2 		addgt	r2, r3, #1
 643 07b0 20309DE5 		ldr	r3, [sp, #32]
 644 07b4 032082E0 		add	r2, r2, r3
 645 07b8 0C309DE5 		ldr	r3, [sp, #12]
 646 07bc 020053E1 		cmp	r3, r2
 647 07c0 0320A0C1 		movgt	r2, r3
 648 07c4 020000CA 		bgt	.L96
 649 07c8 38309DE5 		ldr	r3, [sp, #56]
 650 07cc 020053E1 		cmp	r3, r2
 651 07d0 0320A0B1 		movlt	r2, r3
 652              	.L96:
 653 07d4 04309DE5 		ldr	r3, [sp, #4]
 654 07d8 045085E2 		add	r5, r5, #4
 655 07dc 074084E0 		add	r4, r4, r7
 656 07e0 0120C3E4 		strb	r2, [r3], #1
 657 07e4 18209DE5 		ldr	r2, [sp, #24]
 658 07e8 04308DE5 		str	r3, [sp, #4]
 659 07ec 020053E1 		cmp	r3, r2
 660 07f0 AEFEFF1A 		bne	.L98
 661              	.L97:
 662 07f4 18209DE5 		ldr	r2, [sp, #24]
 663 07f8 48109DE5 		ldr	r1, [sp, #72]
 664 07fc 50309DE5 		ldr	r3, [sp, #80]
 665 0800 012082E0 		add	r2, r2, r1
 666 0804 18208DE5 		str	r2, [sp, #24]
 667 0808 013083E2 		add	r3, r3, #1
 668 080c 54209DE5 		ldr	r2, [sp, #84]
 669 0810 50308DE5 		str	r3, [sp, #80]
 670 0814 020053E1 		cmp	r3, r2
 671 0818 10309DE5 		ldr	r3, [sp, #16]
 672 081c 073083E0 		add	r3, r3, r7
 673 0820 10308DE5 		str	r3, [sp, #16]
 674 0824 94FEFF1A 		bne	.L79
 675 0828 A0309DE5 		ldr	r3, [sp, #160]
 676 082c 050053E3 		cmp	r3, #5
 677 0830 030000DA 		ble	.L76
 678              	.L237:
 679 0834 A4009DE5 		ldr	r0, [sp, #164]
 680 0838 000050E3 		cmp	r0, #0
 681 083c 0000000A 		beq	.L76
 682 0840 FEFFFFEB 		bl	_ZdaPv
 683              	.L76:
 684 0844 88309DE5 		ldr	r3, [sp, #136]
 685 0848 050053E3 		cmp	r3, #5
 686 084c 030000DA 		ble	.L100
 687 0850 8C009DE5 		ldr	r0, [sp, #140]
 688 0854 000050E3 		cmp	r0, #0
 689 0858 0000000A 		beq	.L100
 690 085c FEFFFFEB 		bl	_ZdaPv
 691              	.L100:
 692 0860 70309DE5 		ldr	r3, [sp, #112]
 693 0864 050053E3 		cmp	r3, #5
 694 0868 030000DA 		ble	.L101
 695 086c 74009DE5 		ldr	r0, [sp, #116]
 696 0870 000050E3 		cmp	r0, #0
 697 0874 0000000A 		beq	.L101
 698 0878 FEFFFFEB 		bl	_ZdaPv
 699              	.L101:
 700 087c 58309DE5 		ldr	r3, [sp, #88]
 701 0880 050053E3 		cmp	r3, #5
 702 0884 030000DA 		ble	.L102
 703 0888 5C009DE5 		ldr	r0, [sp, #92]
 704 088c 000050E3 		cmp	r0, #0
 705 0890 0000000A 		beq	.L102
 706 0894 FEFFFFEB 		bl	_ZdaPv
 707              	.L102:
 708 0898 0000A0E3 		mov	r0, #0
 709 089c E4D08DE2 		add	sp, sp, #228
 710              		@ sp needed
 711 08a0 F08FBDE8 		pop	{r4, r5, r6, r7, r8, r9, r10, fp, pc}
 712              	.L247:
 713 08a4 0100A0E3 		mov	r0, #1
 714 08a8 E4D08DE2 		add	sp, sp, #228
 715              		@ sp needed
 716 08ac F08FBDE8 		pop	{r4, r5, r6, r7, r8, r9, r10, fp, pc}
 717              	.L254:
 718 08b0 0221E0E3 		mvn	r2, #-2147483648
 719 08b4 B1FFFFEA 		b	.L119
 720              	.L134:
 721 08b8 0701A0E3 		mov	r0, #-1073741823
 722 08bc 0010E0E3 		mvn	r1, #0
 723 08c0 A3FFFFEA 		b	.L94
 724              	.L132:
 725 08c4 0030A0E3 		mov	r3, #0
 726 08c8 0320A0E1 		mov	r2, r3
 727 08cc FBFEFFEA 		b	.L82
 728              	.L81:
 729 08d0 4CB09DE5 		ldr	fp, [sp, #76]
 730 08d4 04A0A0E1 		mov	r10, r4
 731              	.L93:
 732 08d8 D120D0E0 		ldrsb	r2, [r0], #1
 733 08dc D110DAE0 		ldrsb	r1, [r10], #1
 734 08e0 0B0050E1 		cmp	r0, fp
 735 08e4 092082E0 		add	r2, r2, r9
 736 08e8 081081E0 		add	r1, r1, r8
 737 08ec 913223E0 		mla	r3, r1, r2, r3
 738 08f0 F8FFFF1A 		bne	.L93
 739 08f4 84FFFFEA 		b	.L92
 740              	.L80:
 741 08f8 1C309DE5 		ldr	r3, [sp, #28]
 742 08fc 000053E3 		cmp	r3, #0
 743 0900 0030A013 		movne	r3, #0
 744 0904 83FFFF1A 		bne	.L88
 745 0908 0101A0E3 		mov	r0, #1073741824
 746 090c 0010A0E3 		mov	r1, #0
 747 0910 0020A0E3 		mov	r2, #0
 748 0914 0030A0E3 		mov	r3, #0
 749 0918 8FFFFFEA 		b	.L120
 750              	.L133:
 751 091c 0030A0E3 		mov	r3, #0
 752 0920 BDFEFFEA 		b	.L83
 753              	.L29:
 754 0924 0010D9E5 		ldrb	r1, [r9]	@ zero_extendqisi2
 755 0928 B8008DE2 		add	r0, sp, #184
 756              	.LEHB4:
 757 092c FEFFFFEB 		bl	_ZN6tflite25FullyConnectedParamsFloatE21TfLiteFusedActivation
 758 0930 0810A0E1 		mov	r1, r8
 759 0934 58008DE2 		add	r0, sp, #88
 760 0938 FEFFFFEB 		bl	_ZN6tflite5micro14GetTensorShapeEPK16TfLiteEvalTensor
 761              	.LEHE4:
 762 093c 003098E5 		ldr	r3, [r8]
 763 0940 0710A0E1 		mov	r1, r7
 764 0944 70008DE2 		add	r0, sp, #112
 765 0948 0C308DE5 		str	r3, [sp, #12]
 766              	.LEHB5:
 767 094c FEFFFFEB 		bl	_ZN6tflite5micro14GetTensorShapeEPK16TfLiteEvalTensor
 768              	.LEHE5:
 769 0950 000057E3 		cmp	r7, #0
 770 0954 E400000A 		beq	.L256
 771 0958 003097E5 		ldr	r3, [r7]
 772 095c 0A10A0E1 		mov	r1, r10
 773 0960 88008DE2 		add	r0, sp, #136
 774 0964 10308DE5 		str	r3, [sp, #16]
 775              	.LEHB6:
 776 0968 FEFFFFEB 		bl	_ZN6tflite5micro14GetTensorShapeEPK16TfLiteEvalTensor
 777              	.LEHE6:
 778 096c 00005AE3 		cmp	r10, #0
 779 0970 DF00000A 		beq	.L257
 780 0974 0410A0E1 		mov	r1, r4
 781 0978 A0008DE2 		add	r0, sp, #160
 782 097c 00509AE5 		ldr	r5, [r10]
 783              	.LEHB7:
 784 0980 FEFFFFEB 		bl	_ZN6tflite5micro14GetTensorShapeEPK16TfLiteEvalTensor
 785              	.LEHE7:
 786 0984 A0309DE5 		ldr	r3, [sp, #160]
 787 0988 000054E3 		cmp	r4, #0
 788 098c 00109415 		ldrne	r1, [r4]
 789 0990 0410A001 		moveq	r1, r4
 790 0994 351A9DED 		vldr.32	s2, [sp, #212]
 791 0998 010053E2 		subs	r0, r3, #1
 792 099c 28308DE5 		str	r3, [sp, #40]
 793 09a0 360ADDED 		vldr.32	s1, [sp, #216]
 794 09a4 70C09DE5 		ldr	ip, [sp, #112]
 795 09a8 D300004A 		bmi	.L258
 796 09ac 050053E3 		cmp	r3, #5
 797 09b0 970000DA 		ble	.L35
 798 09b4 A4E09DE5 		ldr	lr, [sp, #164]
 799 09b8 0360A0E1 		mov	r6, r3
 800              	.L36:
 801 09bc 0130A0E3 		mov	r3, #1
 802 09c0 0340A0E1 		mov	r4, r3
 803 09c4 0030A0E3 		mov	r3, #0
 804              	.L39:
 805 09c8 030050E1 		cmp	r0, r3
 806 09cc 03219E17 		ldrne	r2, [lr, r3, lsl #2]
 807 09d0 013083E2 		add	r3, r3, #1
 808 09d4 0120A003 		moveq	r2, #1
 809 09d8 030056E1 		cmp	r6, r3
 810 09dc 920404E0 		mul	r4, r2, r4
 811 09e0 F8FFFF1A 		bne	.L39
 812 09e4 1C408DE5 		str	r4, [sp, #28]
 813              	.L37:
 814 09e8 02305CE2 		subs	r3, ip, #2
 815 09ec C300004A 		bmi	.L259
 816 09f0 05005CE3 		cmp	ip, #5
 817 09f4 74209DC5 		ldrgt	r2, [sp, #116]
 818 09f8 E0208DD2 		addle	r2, sp, #224
 819 09fc 033182D0 		addle	r3, r2, r3, lsl #2
 820 0a00 03B192C7 		ldrgt	fp, [r2, r3, lsl #2]
 821 0a04 6CB013D5 		ldrle	fp, [r3, #-108]
 822 0a08 28309DE5 		ldr	r3, [sp, #40]
 823 0a0c 050053E3 		cmp	r3, #5
 824 0a10 E0308DD2 		addle	r3, sp, #224
 825 0a14 A4309DC5 		ldrgt	r3, [sp, #164]
 826 0a18 000183D0 		addle	r0, r3, r0, lsl #2
 827 0a1c 003193C7 		ldrgt	r3, [r3, r0, lsl #2]
 828 0a20 3C3010D5 		ldrle	r3, [r0, #-60]
 829 0a24 03005BE1 		cmp	fp, r3
 830 0a28 BD00001A 		bne	.L260
 831 0a2c 05005CE3 		cmp	ip, #5
 832 0a30 01C04CE2 		sub	ip, ip, #1
 833 0a34 74309DC5 		ldrgt	r3, [sp, #116]
 834 0a38 E0308DD2 		addle	r3, sp, #224
 835 0a3c 0CC183D0 		addle	ip, r3, ip, lsl #2
 836 0a40 0C0193C7 		ldrgt	r0, [r3, ip, lsl #2]
 837 0a44 1C309DE5 		ldr	r3, [sp, #28]
 838 0a48 6C001CD5 		ldrle	r0, [ip, #-108]
 839 0a4c 000053E3 		cmp	r3, #0
 840 0a50 690000DA 		ble	.L51
 841 0a54 00005BE3 		cmp	fp, #0
 842 0a58 670000DA 		ble	.L51
 843 0a5c 0B31A0E1 		lsl	r3, fp, #2
 844 0a60 09C040E2 		sub	ip, r0, #9
 845 0a64 07C0CCE3 		bic	ip, ip, #7
 846 0a68 00A1A0E1 		lsl	r10, r0, #2
 847 0a6c 20308DE5 		str	r3, [sp, #32]
 848 0a70 08C08CE2 		add	ip, ip, #8
 849 0a74 0C309DE5 		ldr	r3, [sp, #12]
 850 0a78 0090A0E3 		mov	r9, #0
 851 0a7c 14108DE5 		str	r1, [sp, #20]
 852 0a80 18908DE5 		str	r9, [sp, #24]
 853 0a84 403083E2 		add	r3, r3, #64
 854 0a88 08308DE5 		str	r3, [sp, #8]
 855 0a8c 10309DE5 		ldr	r3, [sp, #16]
 856 0a90 403083E2 		add	r3, r3, #64
 857 0a94 24308DE5 		str	r3, [sp, #36]
 858              	.L53:
 859 0a98 24709DE5 		ldr	r7, [sp, #36]
 860 0a9c 0040A0E3 		mov	r4, #0
 861 0aa0 14809DE5 		ldr	r8, [sp, #20]
 862 0aa4 0560A0E1 		mov	r6, r5
 863 0aa8 04E0A0E1 		mov	lr, r4
 864              	.L52:
 865 0aac 000050E3 		cmp	r0, #0
 866 0ab0 9D7ADFED 		vldr.32	s15, .L264
 867 0ab4 310000DA 		ble	.L54
 868 0ab8 080050E3 		cmp	r0, #8
 869 0abc 520000DA 		ble	.L127
 870 0ac0 08309DE5 		ldr	r3, [sp, #8]
 871 0ac4 0720A0E1 		mov	r2, r7
 872 0ac8 0010A0E3 		mov	r1, #0
 873              	.L56:
 874 0acc 105A53ED 		vldr.32	s11, [r3, #-64]
 875 0ad0 081081E2 		add	r1, r1, #8
 876 0ad4 106A12ED 		vldr.32	s12, [r2, #-64]
 877 0ad8 0C0051E1 		cmp	r1, ip
 878 0adc 0F6A53ED 		vldr.32	s13, [r3, #-60]
 879 0ae0 0F7A12ED 		vldr.32	s14, [r2, #-60]
 880 0ae4 0E1A53ED 		vldr.32	s3, [r3, #-56]
 881 0ae8 867A45EE 		vmla.f32	s15, s11, s12
 882 0aec 0E2A12ED 		vldr.32	s4, [r2, #-56]
 883 0af0 0D2A53ED 		vldr.32	s5, [r3, #-52]
 884 0af4 0D3A12ED 		vldr.32	s6, [r2, #-52]
 885 0af8 0C3A53ED 		vldr.32	s7, [r3, #-48]
 886 0afc 0C4A12ED 		vldr.32	s8, [r2, #-48]
 887 0b00 0B4A53ED 		vldr.32	s9, [r3, #-44]
 888 0b04 877A46EE 		vmla.f32	s15, s13, s14
 889 0b08 0B5A12ED 		vldr.32	s10, [r2, #-44]
 890 0b0c 0A5A53ED 		vldr.32	s11, [r3, #-40]
 891 0b10 0A6A12ED 		vldr.32	s12, [r2, #-40]
 892 0b14 096A53ED 		vldr.32	s13, [r3, #-36]
 893 0b18 097A12ED 		vldr.32	s14, [r2, #-36]
 894 0b1c 00F0D3F5 		pld	[r3]
 895 0b20 203083E2 		add	r3, r3, #32
 896 0b24 827A41EE 		vmla.f32	s15, s3, s4
 897 0b28 00F0D2F5 		pld	[r2]
 898 0b2c 202082E2 		add	r2, r2, #32
 899 0b30 837A42EE 		vmla.f32	s15, s5, s6
 900 0b34 847A43EE 		vmla.f32	s15, s7, s8
 901 0b38 857A44EE 		vmla.f32	s15, s9, s10
 902 0b3c 867A45EE 		vmla.f32	s15, s11, s12
 903 0b40 877A46EE 		vmla.f32	s15, s13, s14
 904 0b44 E0FFFF1A 		bne	.L56
 905              	.L55:
 906 0b48 0C309DE5 		ldr	r3, [sp, #12]
 907 0b4c 012089E0 		add	r2, r9, r1
 908 0b50 022183E0 		add	r2, r3, r2, lsl #2
 909 0b54 013084E0 		add	r3, r4, r1
 910 0b58 04208DE5 		str	r2, [sp, #4]
 911 0b5c 10209DE5 		ldr	r2, [sp, #16]
 912 0b60 033182E0 		add	r3, r2, r3, lsl #2
 913 0b64 04209DE5 		ldr	r2, [sp, #4]
 914              	.L57:
 915 0b68 016AF2EC 		vldmia.32	r2!, {s13}
 916 0b6c 011081E2 		add	r1, r1, #1
 917 0b70 017AB3EC 		vldmia.32	r3!, {s14}
 918 0b74 010050E1 		cmp	r0, r1
 919 0b78 877A46EE 		vmla.f32	s15, s13, s14
 920 0b7c F9FFFFCA 		bgt	.L57
 921              	.L54:
 922 0b80 000055E3 		cmp	r5, #0
 923 0b84 01E08EE2 		add	lr, lr, #1
 924 0b88 007A961D 		vldrne.32	s14, [r6]
 925 0b8c 004084E0 		add	r4, r4, r0
 926 0b90 657A9F0D 		vldreq.32	s14, .L264
 927 0b94 046086E2 		add	r6, r6, #4
 928 0b98 0A7087E0 		add	r7, r7, r10
 929 0b9c 277A77EE 		vadd.f32	s15, s14, s15
 930 0ba0 671AB4EE 		vcmp.f32	s2, s15
 931 0ba4 10FAF1EE 		vmrs	APSR_nzcv, FPSCR
 932 0ba8 417AF0CE 		vmovgt.f32	s15, s2
 933 0bac 670AF4EE 		vcmp.f32	s1, s15
 934 0bb0 10FAF1EE 		vmrs	APSR_nzcv, FPSCR
 935 0bb4 607AF04E 		vmovmi.f32	s15, s1
 936 0bb8 0B005EE1 		cmp	lr, fp
 937 0bbc 017AE8EC 		vstmia.32	r8!, {s15}
 938 0bc0 B9FFFF1A 		bne	.L52
 939 0bc4 14209DE5 		ldr	r2, [sp, #20]
 940 0bc8 009089E0 		add	r9, r9, r0
 941 0bcc 20109DE5 		ldr	r1, [sp, #32]
 942 0bd0 18309DE5 		ldr	r3, [sp, #24]
 943 0bd4 012082E0 		add	r2, r2, r1
 944 0bd8 14208DE5 		str	r2, [sp, #20]
 945 0bdc 013083E2 		add	r3, r3, #1
 946 0be0 1C209DE5 		ldr	r2, [sp, #28]
 947 0be4 18308DE5 		str	r3, [sp, #24]
 948 0be8 020053E1 		cmp	r3, r2
 949 0bec 08309DE5 		ldr	r3, [sp, #8]
 950 0bf0 0A3083E0 		add	r3, r3, r10
 951 0bf4 08308DE5 		str	r3, [sp, #8]
 952 0bf8 A6FFFF1A 		bne	.L53
 953              	.L51:
 954 0bfc 28309DE5 		ldr	r3, [sp, #40]
 955 0c00 050053E3 		cmp	r3, #5
 956 0c04 0AFFFFCA 		bgt	.L237
 957 0c08 0DFFFFEA 		b	.L76
 958              	.L127:
 959 0c0c 0010A0E3 		mov	r1, #0
 960 0c10 CCFFFFEA 		b	.L55
 961              	.L35:
 962 0c14 000053E3 		cmp	r3, #0
 963 0c18 A4E08DC2 		addgt	lr, sp, #164
 964 0c1c 0360A0C1 		movgt	r6, r3
 965 0c20 65FFFFCA 		bgt	.L36
 966              	.L124:
 967 0c24 0130A0E3 		mov	r3, #1
 968 0c28 1C308DE5 		str	r3, [sp, #28]
 969 0c2c 6DFFFFEA 		b	.L37
 970              	.L253:
 971 0c30 74009DE5 		ldr	r0, [sp, #116]
 972 0c34 48E09DE5 		ldr	lr, [sp, #72]
 973 0c38 011190E7 		ldr	r1, [r0, r1, lsl #2]
 974 0c3c 01005EE1 		cmp	lr, r1
 975 0c40 013043D2 		suble	r3, r3, #1
 976 0c44 037190D7 		ldrle	r7, [r0, r3, lsl #2]
 977 0c48 63FDFFDA 		ble	.L121
 978              	.L73:
 979              	.LEHB8:
 980 0c4c FEFFFFEB 		bl	abort
 981              	.L252:
 982 0c50 FEFFFFEB 		bl	abort
 983              	.LEHE8:
 984              	.L27:
 985              	.LEHB9:
 986 0c54 FEFFFFEB 		bl	abort
 987              	.L142:
 988              	.L117:
 989 0c58 58309DE5 		ldr	r3, [sp, #88]
 990 0c5c 050053E3 		cmp	r3, #5
 991 0c60 030000DA 		ble	.L118
 992 0c64 5C009DE5 		ldr	r0, [sp, #92]
 993 0c68 000050E3 		cmp	r0, #0
 994 0c6c 0000000A 		beq	.L118
 995 0c70 FEFFFFEB 		bl	_ZdaPv
 996              	.L118:
 997 0c74 FEFFFFEB 		bl	__cxa_end_cleanup
 998              	.LEHE9:
 999              	.L145:
 1000              	.L241:
 1001 0c78 A0309DE5 		ldr	r3, [sp, #160]
 1002 0c7c 050053E3 		cmp	r3, #5
 1003 0c80 030000DA 		ble	.L113
 1004 0c84 A4009DE5 		ldr	r0, [sp, #164]
 1005 0c88 000050E3 		cmp	r0, #0
 1006 0c8c 0000000A 		beq	.L113
 1007 0c90 FEFFFFEB 		bl	_ZdaPv
 1008              	.L113:
 1009 0c94 88309DE5 		ldr	r3, [sp, #136]
 1010 0c98 050053E3 		cmp	r3, #5
 1011 0c9c 030000DA 		ble	.L115
 1012 0ca0 8C009DE5 		ldr	r0, [sp, #140]
 1013 0ca4 000050E3 		cmp	r0, #0
 1014 0ca8 0000000A 		beq	.L115
 1015 0cac FEFFFFEB 		bl	_ZdaPv
 1016              	.L115:
 1017 0cb0 70309DE5 		ldr	r3, [sp, #112]
 1018 0cb4 050053E3 		cmp	r3, #5
 1019 0cb8 E6FFFFDA 		ble	.L117
 1020 0cbc 74009DE5 		ldr	r0, [sp, #116]
 1021 0cc0 000050E3 		cmp	r0, #0
 1022 0cc4 E3FFFF0A 		beq	.L117
 1023 0cc8 FEFFFFEB 		bl	_ZdaPv
 1024 0ccc E1FFFFEA 		b	.L117
 1025              	.L248:
 1026              	.LEHB10:
 1027 0cd0 FEFFFFEB 		bl	abort
 1028              	.LEHE10:
 1029              	.L143:
 1030 0cd4 F5FFFFEA 		b	.L115
 1031              	.L249:
 1032              	.LEHB11:
 1033 0cd8 FEFFFFEB 		bl	abort
 1034              	.LEHE11:
 1035              	.L144:
 1036 0cdc ECFFFFEA 		b	.L113
 1037              	.L250:
 1038              	.LEHB12:
 1039 0ce0 FEFFFFEB 		bl	abort
 1040              	.L251:
 1041 0ce4 FEFFFFEB 		bl	abort
 1042              	.LEHE12:
 1043              	.L138:
 1044 0ce8 DAFFFFEA 		b	.L117
 1045              	.L256:
 1046              	.LEHB13:
 1047 0cec FEFFFFEB 		bl	abort
 1048              	.LEHE13:
 1049              	.L139:
 1050 0cf0 EEFFFFEA 		b	.L115
 1051              	.L257:
 1052              	.LEHB14:
 1053 0cf4 FEFFFFEB 		bl	abort
 1054              	.LEHE14:
 1055              	.L140:
 1056 0cf8 E5FFFFEA 		b	.L113
 1057              	.L258:
 1058              	.LEHB15:
 1059 0cfc FEFFFFEB 		bl	abort
 1060              	.L259:
 1061 0d00 FEFFFFEB 		bl	abort
 1062              	.LEHE15:
 1063              	.L255:
 1064 0d04 003000E3 		movw	r3, #:lower16:.LC1
 1065 0d08 002000E3 		movw	r2, #:lower16:.LANCHOR0
 1066 0d0c 000000E3 		movw	r0, #:lower16:.LC2
 1067 0d10 003040E3 		movt	r3, #:upper16:.LC1
 1068 0d14 002040E3 		movt	r2, #:upper16:.LANCHOR0
 1069 0d18 000040E3 		movt	r0, #:upper16:.LC2
 1070 0d1c 671100E3 		movw	r1, #359
 1071              	.LEHB16:
 1072 0d20 FEFFFFEB 		bl	__assert_func
 1073              	.LEHE16:
 1074              	.L260:
 1075              	.LEHB17:
 1076 0d24 FEFFFFEB 		bl	abort
 1077              	.LEHE17:
 1078              	.L141:
 1079 0d28 D2FFFFEA 		b	.L241
 1080              	.L265:
 1081              		.align	2
 1082              	.L264:
 1083 0d2c 00000000 		.word	0
 1084              		.global	__gxx_personality_v0
 1085              		.personality	__gxx_personality_v0
 1086              		.handlerdata
 1087              	.LLSDA4175:
 1088 0008 FF       		.byte	0xff
 1089 0009 FF       		.byte	0xff
 1090 000a 01       		.byte	0x1
 1091 000b 69       		.uleb128 .LLSDACSE4175-.LLSDACSB4175
 1092              	.LLSDACSB4175:
 1093 000c 40       		.uleb128 .LEHB0-.LFB4175
 1094 000d B401     		.uleb128 .LEHE0-.LEHB0
 1095 000f 00       		.uleb128 0
 1096 0010 00       		.uleb128 0
 1097 0011 8402     		.uleb128 .LEHB1-.LFB4175
 1098 0013 04       		.uleb128 .LEHE1-.LEHB1
 1099 0014 D818     		.uleb128 .L142-.LFB4175
 1100 0016 00       		.uleb128 0
 1101 0017 9C02     		.uleb128 .LEHB2-.LFB4175
 1102 0019 04       		.uleb128 .LEHE2-.LEHB2
 1103 001a D419     		.uleb128 .L143-.LFB4175
 1104 001c 00       		.uleb128 0
 1105 001d B802     		.uleb128 .LEHB3-.LFB4175
 1106 001f 04       		.uleb128 .LEHE3-.LEHB3
 1107 0020 DC19     		.uleb128 .L144-.LFB4175
 1108 0022 00       		.uleb128 0
 1109 0023 AC12     		.uleb128 .LEHB4-.LFB4175
 1110 0025 10       		.uleb128 .LEHE4-.LEHB4
 1111 0026 00       		.uleb128 0
 1112 0027 00       		.uleb128 0
 1113 0028 CC12     		.uleb128 .LEHB5-.LFB4175
 1114 002a 04       		.uleb128 .LEHE5-.LEHB5
 1115 002b E819     		.uleb128 .L138-.LFB4175
 1116 002d 00       		.uleb128 0
 1117 002e E812     		.uleb128 .LEHB6-.LFB4175
 1118 0030 04       		.uleb128 .LEHE6-.LEHB6
 1119 0031 F019     		.uleb128 .L139-.LFB4175
 1120 0033 00       		.uleb128 0
 1121 0034 8013     		.uleb128 .LEHB7-.LFB4175
 1122 0036 04       		.uleb128 .LEHE7-.LEHB7
 1123 0037 F819     		.uleb128 .L140-.LFB4175
 1124 0039 00       		.uleb128 0
 1125 003a CC18     		.uleb128 .LEHB8-.LFB4175
 1126 003c 08       		.uleb128 .LEHE8-.LEHB8
 1127 003d F818     		.uleb128 .L145-.LFB4175
 1128 003f 00       		.uleb128 0
 1129 0040 D418     		.uleb128 .LEHB9-.LFB4175
 1130 0042 24       		.uleb128 .LEHE9-.LEHB9
 1131 0043 00       		.uleb128 0
 1132 0044 00       		.uleb128 0
 1133 0045 D019     		.uleb128 .LEHB10-.LFB4175
 1134 0047 04       		.uleb128 .LEHE10-.LEHB10
 1135 0048 D419     		.uleb128 .L143-.LFB4175
 1136 004a 00       		.uleb128 0
 1137 004b D819     		.uleb128 .LEHB11-.LFB4175
 1138 004d 04       		.uleb128 .LEHE11-.LEHB11
 1139 004e DC19     		.uleb128 .L144-.LFB4175
 1140 0050 00       		.uleb128 0
 1141 0051 E019     		.uleb128 .LEHB12-.LFB4175
 1142 0053 08       		.uleb128 .LEHE12-.LEHB12
 1143 0054 F818     		.uleb128 .L145-.LFB4175
 1144 0056 00       		.uleb128 0
 1145 0057 EC19     		.uleb128 .LEHB13-.LFB4175
 1146 0059 04       		.uleb128 .LEHE13-.LEHB13
 1147 005a F019     		.uleb128 .L139-.LFB4175
 1148 005c 00       		.uleb128 0
 1149 005d F419     		.uleb128 .LEHB14-.LFB4175
 1150 005f 04       		.uleb128 .LEHE14-.LEHB14
 1151 0060 F819     		.uleb128 .L140-.LFB4175
 1152 0062 00       		.uleb128 0
 1153 0063 FC19     		.uleb128 .LEHB15-.LFB4175
 1154 0065 08       		.uleb128 .LEHE15-.LEHB15
 1155 0066 A81A     		.uleb128 .L141-.LFB4175
 1156 0068 00       		.uleb128 0
 1157 0069 A01A     		.uleb128 .LEHB16-.LFB4175
 1158 006b 04       		.uleb128 .LEHE16-.LEHB16
 1159 006c F818     		.uleb128 .L145-.LFB4175
 1160 006e 00       		.uleb128 0
 1161 006f A41A     		.uleb128 .LEHB17-.LFB4175
 1162 0071 04       		.uleb128 .LEHE17-.LEHB17
 1163 0072 A81A     		.uleb128 .L141-.LFB4175
 1164 0074 00       		.uleb128 0
 1165              	.LLSDACSE4175:
 1166              		.section	.text._ZN6tflite12_GLOBAL__N_14EvalEP13TfLiteContextP10TfLiteNode
 1167              		.fnend
 1169              		.section	.text._ZN6tflite24Register_FULLY_CONNECTEDEv,"ax",%progbits
 1170              		.align	2
 1171              		.global	_ZN6tflite24Register_FULLY_CONNECTEDEv
 1172              		.syntax unified
 1173              		.arm
 1174              		.fpu neon
 1176              	_ZN6tflite24Register_FULLY_CONNECTEDEv:
 1177              		.fnstart
 1178              	.LFB4176:
 1179              		@ args = 0, pretend = 0, frame = 0
 1180              		@ frame_needed = 0, uses_anonymous_args = 0
 1181 0000 00C000E3 		movw	ip, #:lower16:.LANCHOR1
 1182 0004 10402DE9 		push	{r4, lr}
 1183 0008 00C040E3 		movt	ip, #:upper16:.LANCHOR1
 1184 000c 0040A0E1 		mov	r4, r0
 1185 0010 00E0A0E1 		mov	lr, r0
 1186 0014 0F00BCE8 		ldmia	ip!, {r0, r1, r2, r3}
 1187 0018 0F00AEE8 		stmia	lr!, {r0, r1, r2, r3}
 1188 001c 0F009CE8 		ldm	ip, {r0, r1, r2, r3}
 1189 0020 0F008EE8 		stm	lr, {r0, r1, r2, r3}
 1190 0024 0400A0E1 		mov	r0, r4
 1191 0028 1080BDE8 		pop	{r4, pc}
 1192              		.cantunwind
 1193              		.fnend
 1195              		.section	.rodata
 1196              		.align	2
 1197              		.set	.LANCHOR1,. + 0
 1198              	.LC0:
 1199 0000 00000000 		.word	_ZN6tflite12_GLOBAL__N_14InitEP13TfLiteContextPKcj
 1200 0004 00000000 		.word	0
 1201 0008 00000000 		.word	_ZN6tflite12_GLOBAL__N_17PrepareEP13TfLiteContextP10TfLiteNode
 1202 000c 00000000 		.word	_ZN6tflite12_GLOBAL__N_14EvalEP13TfLiteContextP10TfLiteNode
 1203 0010 00000000 		.word	0
 1204 0014 00000000 		.word	0
 1205 0018 00000000 		.word	0
 1206 001c 00000000 		.word	0
 1207              		.section	.rodata._ZN6tflite12_GLOBAL__N_14EvalEP13TfLiteContextP10TfLiteNode.str1.4,"aMS",%progbit
 1208              		.align	2
 1209              	.LC1:
 1210 0000 6578706F 		.ascii	"exponent <= 31\000"
 1210      6E656E74 
 1210      203C3D20 
 1210      333100
 1211 000f 00       		.space	1
 1212              	.LC2:
 1213 0010 433A2F52 		.ascii	"C:/Renesas/e2studio_2021_01_workspace_RZA2M_ANPR/AN"
 1213      656E6573 
 1213      61732F65 
 1213      32737475 
 1213      64696F5F 
 1214 0043 50525F52 		.ascii	"PR_RZA2M_EBK/src/tensorflow_lite/third_party/gemmlo"
 1214      5A41324D 
 1214      5F45424B 
 1214      2F737263 
 1214      2F74656E 
 1215 0076 77702F66 		.ascii	"wp/fixedpoint/fixedpoint.h\000"
 1215      69786564 
 1215      706F696E 
 1215      742F6669 
 1215      78656470 
 1216              		.section	.rodata._ZZN8gemmlowp19RoundingDivideByPOTIlEET_S1_iE19__PRETTY_FUNCTION__,"a",%progbits
 1217              		.align	3
 1218              		.set	.LANCHOR0,. + 0
 1221              	_ZZN8gemmlowp19RoundingDivideByPOTIlEET_S1_iE19__PRETTY_FUNCTION__:
 1222 0000 496E7465 		.ascii	"IntegerType gemmlowp::RoundingDivideByPOT(IntegerTy"
 1222      67657254 
 1222      79706520 
 1222      67656D6D 
 1222      6C6F7770 
 1223 0033 70652C20 		.ascii	"pe, int) [with IntegerType = long int]\000"
 1223      696E7429 
 1223      205B7769 
 1223      74682049 
 1223      6E746567 
 1224              		.ident	"GCC: (GNU Tools for ARM Embedded Processors 6-2017-q2-update) 6.3.1 20170620 (release) [AR