   1              		.cpu cortex-a9
   2              		.eabi_attribute 28, 1
   3              		.eabi_attribute 20, 1
   4              		.eabi_attribute 21, 1
   5              		.eabi_attribute 23, 3
   6              		.eabi_attribute 24, 1
   7              		.eabi_attribute 25, 1
   8              		.eabi_attribute 26, 1
   9              		.eabi_attribute 30, 2
  10              		.eabi_attribute 34, 0
  11              		.eabi_attribute 18, 4
  12              		.file	"l2_pool_2d.cc"
  13              		.global	__aeabi_idiv
  14              		.section	.text._ZN6tflite12_GLOBAL__N_19L2PrepareEP13TfLiteContextP10TfLiteNode,"ax",%progbits
  15              		.align	2
  16              		.syntax unified
  17              		.arm
  18              		.fpu neon
  20              	_ZN6tflite12_GLOBAL__N_19L2PrepareEP13TfLiteContextP10TfLiteNode:
  21              		.fnstart
  22              	.LFB4174:
  23              		@ args = 0, pretend = 0, frame = 32
  24              		@ frame_needed = 0, uses_anonymous_args = 0
  25 0000 003091E5 		ldr	r3, [r1]
  26 0004 003093E5 		ldr	r3, [r3]
  27 0008 010053E3 		cmp	r3, #1
  28 000c 0100000A 		beq	.L31
  29 0010 0100A0E3 		mov	r0, #1
  30 0014 1EFF2FE1 		bx	lr
  31              	.L31:
  32 0018 043091E5 		ldr	r3, [r1, #4]
  33 001c F04F2DE9 		push	{r4, r5, r6, r7, r8, r9, r10, fp, lr}
  34              		.save {r4, r5, r6, r7, r8, r9, r10, fp, lr}
  35 0020 0140A0E1 		mov	r4, r1
  36              		.pad #36
  37 0024 24D04DE2 		sub	sp, sp, #36
  38 0028 003093E5 		ldr	r3, [r3]
  39 002c 010053E3 		cmp	r3, #1
  40 0030 0200000A 		beq	.L32
  41              	.L4:
  42 0034 0100A0E3 		mov	r0, #1
  43              	.L3:
  44 0038 24D08DE2 		add	sp, sp, #36
  45              		@ sp needed
  46 003c F08FBDE8 		pop	{r4, r5, r6, r7, r8, r9, r10, fp, pc}
  47              	.L32:
  48 0040 0020A0E3 		mov	r2, #0
  49 0044 18308DE2 		add	r3, sp, #24
  50 0048 0050A0E1 		mov	r5, r0
  51 004c 146091E5 		ldr	r6, [r1, #20]
  52 0050 FEFFFFEB 		bl	_ZN6tflite13GetOutputSafeEPK13TfLiteContextPK10TfLiteNodeiPP12TfLiteTensor
  53 0054 002050E2 		subs	r2, r0, #0
  54 0058 0200A011 		movne	r0, r2
  55 005c F5FFFF1A 		bne	.L3
  56 0060 1C308DE2 		add	r3, sp, #28
  57 0064 0410A0E1 		mov	r1, r4
  58 0068 0500A0E1 		mov	r0, r5
  59 006c FEFFFFEB 		bl	_ZN6tflite12GetInputSafeEPK13TfLiteContextPK10TfLiteNodeiPPK12TfLiteTensor
  60 0070 000050E3 		cmp	r0, #0
  61 0074 EFFFFF1A 		bne	.L3
  62 0078 1C209DE5 		ldr	r2, [sp, #28]
  63 007c 083092E5 		ldr	r3, [r2, #8]
  64 0080 001093E5 		ldr	r1, [r3]
  65 0084 040051E3 		cmp	r1, #4
  66 0088 E9FFFF1A 		bne	.L4
  67 008c 18109DE5 		ldr	r1, [sp, #24]
  68 0090 080091E5 		ldr	r0, [r1, #8]
  69 0094 000090E5 		ldr	r0, [r0]
  70 0098 040050E3 		cmp	r0, #4
  71 009c E4FFFF1A 		bne	.L4
  72 00a0 0090D2E5 		ldrb	r9, [r2]	@ zero_extendqisi2
  73 00a4 0020D1E5 		ldrb	r2, [r1]	@ zero_extendqisi2
  74 00a8 090052E1 		cmp	r2, r9
  75 00ac E0FFFF1A 		bne	.L4
  76 00b0 042093E5 		ldr	r2, [r3, #4]
  77 00b4 048096E5 		ldr	r8, [r6, #4]
  78 00b8 08B093E5 		ldr	fp, [r3, #8]
  79 00bc 14208DE5 		str	r2, [sp, #20]
  80 00c0 0C2093E5 		ldr	r2, [r3, #12]
  81 00c4 000058E3 		cmp	r8, #0
  82 00c8 103093E5 		ldr	r3, [r3, #16]
  83 00cc 08A096E5 		ldr	r10, [r6, #8]
  84 00d0 04208DE5 		str	r2, [sp, #4]
  85 00d4 102096E5 		ldr	r2, [r6, #16]
  86 00d8 10308DE5 		str	r3, [sp, #16]
  87 00dc 0030D6E5 		ldrb	r3, [r6]	@ zero_extendqisi2
  88 00e0 08208DE5 		str	r2, [sp, #8]
  89 00e4 0C2096E5 		ldr	r2, [r6, #12]
  90 00e8 0C208DE5 		str	r2, [sp, #12]
  91 00ec 4000000A 		beq	.L5
  92 00f0 010053E3 		cmp	r3, #1
  93 00f4 4A00000A 		beq	.L6
  94 00f8 020053E3 		cmp	r3, #2
  95 00fc 3C00001A 		bne	.L5
  96 0100 04309DE5 		ldr	r3, [sp, #4]
  97 0104 0810A0E1 		mov	r1, r8
  98 0108 030088E0 		add	r0, r8, r3
  99 010c 0C309DE5 		ldr	r3, [sp, #12]
 100 0110 030040E0 		sub	r0, r0, r3
 101 0114 FEFFFFEB 		bl	__aeabi_idiv
 102 0118 00005AE3 		cmp	r10, #0
 103 011c 0070A0E1 		mov	r7, r0
 104 0120 4E00000A 		beq	.L14
 105              	.L10:
 106 0124 08309DE5 		ldr	r3, [sp, #8]
 107 0128 0B008AE0 		add	r0, r10, fp
 108 012c 0A10A0E1 		mov	r1, r10
 109 0130 030040E0 		sub	r0, r0, r3
 110 0134 FEFFFFEB 		bl	__aeabi_idiv
 111 0138 0030A0E1 		mov	r3, r0
 112              	.L8:
 113 013c 08209DE5 		ldr	r2, [sp, #8]
 114 0140 011047E2 		sub	r1, r7, #1
 115 0144 010043E2 		sub	r0, r3, #1
 116 0148 010059E3 		cmp	r9, #1
 117 014c 9A2020E0 		mla	r0, r10, r0, r2
 118 0150 0120A0E1 		mov	r2, r1
 119 0154 0C109DE5 		ldr	r1, [sp, #12]
 120 0158 981222E0 		mla	r2, r8, r2, r1
 121 015c 0B1040E0 		sub	r1, r0, fp
 122 0160 04009DE5 		ldr	r0, [sp, #4]
 123 0164 C11FC1E1 		bic	r1, r1, r1, asr #31
 124 0168 002042E0 		sub	r2, r2, r0
 125 016c C1C0A0E1 		asr	ip, r1, #1
 126 0170 C22FC2E1 		bic	r2, r2, r2, asr #31
 127 0174 011001E2 		and	r1, r1, #1
 128 0178 1CC086E5 		str	ip, [r6, #28]
 129 017c C200A0E1 		asr	r0, r2, #1
 130 0180 012002E2 		and	r2, r2, #1
 131 0184 241086E5 		str	r1, [r6, #36]
 132 0188 180086E5 		str	r0, [r6, #24]
 133 018c 202086E5 		str	r2, [r6, #32]
 134 0190 A7FFFF1A 		bne	.L4
 135 0194 000055E3 		cmp	r5, #0
 136 0198 2F00000A 		beq	.L33
 137 019c 041094E5 		ldr	r1, [r4, #4]
 138 01a0 0500A0E1 		mov	r0, r5
 139 01a4 542095E5 		ldr	r2, [r5, #84]
 140 01a8 04308DE5 		str	r3, [sp, #4]
 141 01ac 041091E5 		ldr	r1, [r1, #4]
 142 01b0 32FF2FE1 		blx	r2
 143 01b4 18109DE5 		ldr	r1, [sp, #24]
 144 01b8 0020A0E1 		mov	r2, r0
 145 01bc 0500A0E1 		mov	r0, r5
 146 01c0 FEFFFFEB 		bl	_ZN6tflite5micro32CreateWritableTensorDimsWithCopyEP13TfLiteContextP12TfLiteTensorP16TfLiteEval
 147 01c4 000050E3 		cmp	r0, #0
 148 01c8 9AFFFF1A 		bne	.L3
 149 01cc 18209DE5 		ldr	r2, [sp, #24]
 150 01d0 14309DE5 		ldr	r3, [sp, #20]
 151 01d4 082092E5 		ldr	r2, [r2, #8]
 152 01d8 043082E5 		str	r3, [r2, #4]
 153 01dc 04309DE5 		ldr	r3, [sp, #4]
 154 01e0 0C7082E5 		str	r7, [r2, #12]
 155 01e4 083082E5 		str	r3, [r2, #8]
 156 01e8 10309DE5 		ldr	r3, [sp, #16]
 157 01ec 103082E5 		str	r3, [r2, #16]
 158 01f0 90FFFFEA 		b	.L3
 159              	.L5:
 160 01f4 00005AE3 		cmp	r10, #0
 161 01f8 0A70A001 		moveq	r7, r10
 162 01fc 0A30A001 		moveq	r3, r10
 163 0200 CDFFFF0A 		beq	.L8
 164 0204 010053E3 		cmp	r3, #1
 165 0208 1600000A 		beq	.L18
 166 020c 020053E3 		cmp	r3, #2
 167 0210 0070A013 		movne	r7, #0
 168 0214 0730A011 		movne	r3, r7
 169 0218 C7FFFF1A 		bne	.L8
 170 021c 0070A0E3 		mov	r7, #0
 171 0220 BFFFFFEA 		b	.L10
 172              	.L6:
 173 0224 04309DE5 		ldr	r3, [sp, #4]
 174 0228 0810A0E1 		mov	r1, r8
 175 022c 030088E0 		add	r0, r8, r3
 176 0230 010040E2 		sub	r0, r0, #1
 177 0234 FEFFFFEB 		bl	__aeabi_idiv
 178 0238 00005AE3 		cmp	r10, #0
 179 023c 0070A0E1 		mov	r7, r0
 180 0240 0600000A 		beq	.L14
 181              	.L9:
 182 0244 0B008AE0 		add	r0, r10, fp
 183 0248 0A10A0E1 		mov	r1, r10
 184 024c 010040E2 		sub	r0, r0, #1
 185 0250 FEFFFFEB 		bl	__aeabi_idiv
 186 0254 0030A0E1 		mov	r3, r0
 187 0258 B7FFFFEA 		b	.L8
 188              	.L33:
 189 025c FEFFFFEB 		bl	abort
 190              	.L14:
 191 0260 0030A0E3 		mov	r3, #0
 192 0264 B4FFFFEA 		b	.L8
 193              	.L18:
 194 0268 0070A0E3 		mov	r7, #0
 195 026c F4FFFFEA 		b	.L9
 196              		.fnend
 198              		.section	.text._ZN6tflite12_GLOBAL__N_16L2EvalEP13TfLiteContextP10TfLiteNode,"ax",%progbits
 199              		.align	2
 200              		.syntax unified
 201              		.arm
 202              		.fpu neon
 204              	_ZN6tflite12_GLOBAL__N_16L2EvalEP13TfLiteContextP10TfLiteNode:
 205              		.fnstart
 206              	.LFB4176:
 207              		@ args = 0, pretend = 0, frame = 160
 208              		@ frame_needed = 0, uses_anonymous_args = 0
 209 0000 F04F2DE9 		push	{r4, r5, r6, r7, r8, r9, r10, fp, lr}
 210              		.save {r4, r5, r6, r7, r8, r9, r10, fp, lr}
 211 0004 005050E2 		subs	r5, r0, #0
 212 0008 048B2DED 		vpush.64	{d8, d9}
 213              		.vsave {d8, d9}
 214              		.pad #164
 215 000c A4D04DE2 		sub	sp, sp, #164
 216 0010 147091E5 		ldr	r7, [r1, #20]
 217 0014 5501000A 		beq	.L114
 218 0018 042091E5 		ldr	r2, [r1, #4]
 219 001c 0160A0E1 		mov	r6, r1
 220 0020 543095E5 		ldr	r3, [r5, #84]
 221 0024 041092E5 		ldr	r1, [r2, #4]
 222              	.LEHB0:
 223 0028 33FF2FE1 		blx	r3
 224 002c 002096E5 		ldr	r2, [r6]
 225 0030 0040A0E1 		mov	r4, r0
 226 0034 543095E5 		ldr	r3, [r5, #84]
 227 0038 0500A0E1 		mov	r0, r5
 228 003c 041092E5 		ldr	r1, [r2, #4]
 229 0040 33FF2FE1 		blx	r3
 230 0044 0830D0E5 		ldrb	r3, [r0, #8]	@ zero_extendqisi2
 231 0048 0050A0E1 		mov	r5, r0
 232 004c 010053E3 		cmp	r3, #1
 233 0050 0100A013 		movne	r0, #1
 234 0054 0200000A 		beq	.L115
 235              	.L36:
 236 0058 A4D08DE2 		add	sp, sp, #164
 237              		@ sp needed
 238 005c 048BBDEC 		vldm	sp!, {d8-d9}
 239 0060 F08FBDE8 		pop	{r4, r5, r6, r7, r8, r9, r10, fp, pc}
 240              	.L115:
 241 0064 1430D7E5 		ldrb	r3, [r7, #20]	@ zero_extendqisi2
 242 0068 010053E3 		cmp	r3, #1
 243 006c 1901000A 		beq	.L85
 244 0070 030053E3 		cmp	r3, #3
 245 0074 1A01000A 		beq	.L86
 246 0078 AA9A9FED 		vldr.32	s18, .L126+4
 247 007c 020053E3 		cmp	r3, #2
 248 0080 A78ADFED 		vldr.32	s17, .L126
 249 0084 007AB7EE 		vmov.f32	s14, #1.0e+0
 250 0088 007AFFEE 		vmov.f32	s15, #-1.0e+0
 251 008c 479AB00E 		vmoveq.f32	s18, s14
 252 0090 678AF00E 		vmoveq.f32	s17, s15
 253              	.L38:
 254 0094 083097E5 		ldr	r3, [r7, #8]
 255 0098 0510A0E1 		mov	r1, r5
 256 009c 70008DE2 		add	r0, sp, #112
 257 00a0 68308DE5 		str	r3, [sp, #104]
 258 00a4 043097E5 		ldr	r3, [r7, #4]
 259 00a8 6C308DE5 		str	r3, [sp, #108]
 260 00ac 103097E5 		ldr	r3, [r7, #16]
 261 00b0 5C308DE5 		str	r3, [sp, #92]
 262 00b4 0C3097E5 		ldr	r3, [r7, #12]
 263 00b8 4C308DE5 		str	r3, [sp, #76]
 264 00bc 1C3097E5 		ldr	r3, [r7, #28]
 265 00c0 60308DE5 		str	r3, [sp, #96]
 266 00c4 183097E5 		ldr	r3, [r7, #24]
 267 00c8 64308DE5 		str	r3, [sp, #100]
 268 00cc FEFFFFEB 		bl	_ZN6tflite5micro14GetTensorShapeEPK16TfLiteEvalTensor
 269              	.LEHE0:
 270 00d0 003095E5 		ldr	r3, [r5]
 271 00d4 0410A0E1 		mov	r1, r4
 272 00d8 88008DE2 		add	r0, sp, #136
 273 00dc 34308DE5 		str	r3, [sp, #52]
 274              	.LEHB1:
 275 00e0 FEFFFFEB 		bl	_ZN6tflite5micro14GetTensorShapeEPK16TfLiteEvalTensor
 276              	.LEHE1:
 277 00e4 000054E3 		cmp	r4, #0
 278 00e8 00309415 		ldrne	r3, [r4]
 279 00ec 38408D05 		streq	r4, [sp, #56]
 280 00f0 38308D15 		strne	r3, [sp, #56]
 281 00f4 70309DE5 		ldr	r3, [sp, #112]
 282 00f8 040053E3 		cmp	r3, #4
 283 00fc 1301001A 		bne	.L116
 284 0100 88309DE5 		ldr	r3, [sp, #136]
 285 0104 040053E3 		cmp	r3, #4
 286 0108 1301001A 		bne	.L117
 287 010c 74309DE5 		ldr	r3, [sp, #116]
 288 0110 0320A0E1 		mov	r2, r3
 289 0114 50308DE5 		str	r3, [sp, #80]
 290 0118 8C309DE5 		ldr	r3, [sp, #140]
 291 011c 030052E1 		cmp	r2, r3
 292 0120 0E01001A 		bne	.L118
 293 0124 80309DE5 		ldr	r3, [sp, #128]
 294 0128 0320A0E1 		mov	r2, r3
 295 012c 28308DE5 		str	r3, [sp, #40]
 296 0130 98309DE5 		ldr	r3, [sp, #152]
 297 0134 030052E1 		cmp	r2, r3
 298 0138 0901001A 		bne	.L119
 299 013c 50309DE5 		ldr	r3, [sp, #80]
 300 0140 000053E3 		cmp	r3, #0
 301 0144 78309DE5 		ldr	r3, [sp, #120]
 302 0148 44308DE5 		str	r3, [sp, #68]
 303 014c 7C309DE5 		ldr	r3, [sp, #124]
 304 0150 3C308DE5 		str	r3, [sp, #60]
 305 0154 90309DE5 		ldr	r3, [sp, #144]
 306 0158 54308DE5 		str	r3, [sp, #84]
 307 015c 94309DE5 		ldr	r3, [sp, #148]
 308 0160 58308DE5 		str	r3, [sp, #88]
 309 0164 D60000DA 		ble	.L79
 310 0168 0090A0E3 		mov	r9, #0
 311              	.L47:
 312 016c 54309DE5 		ldr	r3, [sp, #84]
 313 0170 000053E3 		cmp	r3, #0
 314 0174 C00000DA 		ble	.L49
 315 0178 F036DDE1 		ldrsh	r3, [sp, #96]
 316 017c 0020A0E3 		mov	r2, #0
 317 0180 1C208DE5 		str	r2, [sp, #28]
 318 0184 002063E2 		rsb	r2, r3, #0
 319 0188 24208DE5 		str	r2, [sp, #36]
 320 018c 44209DE5 		ldr	r2, [sp, #68]
 321 0190 023083E0 		add	r3, r3, r2
 322 0194 48308DE5 		str	r3, [sp, #72]
 323              	.L50:
 324 0198 58309DE5 		ldr	r3, [sp, #88]
 325 019c 000053E3 		cmp	r3, #0
 326 01a0 A80000DA 		ble	.L52
 327 01a4 5C109DE5 		ldr	r1, [sp, #92]
 328 01a8 09A0A0E1 		mov	r10, r9
 329 01ac 48209DE5 		ldr	r2, [sp, #72]
 330 01b0 24009DE5 		ldr	r0, [sp, #36]
 331 01b4 F436DDE1 		ldrsh	r3, [sp, #100]
 332 01b8 010052E1 		cmp	r2, r1
 333 01bc 0210A0B1 		movlt	r1, r2
 334 01c0 000050E3 		cmp	r0, #0
 335 01c4 30108DE5 		str	r1, [sp, #48]
 336 01c8 001081E0 		add	r1, r1, r0
 337 01cc 10108DE5 		str	r1, [sp, #16]
 338 01d0 44109DE5 		ldr	r1, [sp, #68]
 339 01d4 012042B0 		sublt	r2, r2, r1
 340 01d8 0020A0A3 		movge	r2, #0
 341 01dc 2C208DE5 		str	r2, [sp, #44]
 342 01e0 3C209DE5 		ldr	r2, [sp, #60]
 343 01e4 022083E0 		add	r2, r3, r2
 344 01e8 003063E2 		rsb	r3, r3, #0
 345 01ec 20308DE5 		str	r3, [sp, #32]
 346 01f0 0030A0E3 		mov	r3, #0
 347 01f4 40208DE5 		str	r2, [sp, #64]
 348 01f8 18308DE5 		str	r3, [sp, #24]
 349              	.L53:
 350 01fc 28309DE5 		ldr	r3, [sp, #40]
 351 0200 000053E3 		cmp	r3, #0
 352 0204 810000DA 		ble	.L74
 353 0208 40309DE5 		ldr	r3, [sp, #64]
 354 020c 0090A0E3 		mov	r9, #0
 355 0210 4C209DE5 		ldr	r2, [sp, #76]
 356 0214 3C109DE5 		ldr	r1, [sp, #60]
 357 0218 020053E1 		cmp	r3, r2
 358 021c 02B0A0A1 		movge	fp, r2
 359 0220 20209DE5 		ldr	r2, [sp, #32]
 360 0224 03B0A0B1 		movlt	fp, r3
 361 0228 090052E1 		cmp	r2, r9
 362 022c 013043B0 		sublt	r3, r3, r1
 363 0230 0030A0A3 		movge	r3, #0
 364 0234 0310A0E1 		mov	r1, r3
 365 0238 00308DE5 		str	r3, [sp]
 366 023c 013083E2 		add	r3, r3, #1
 367 0240 026081E0 		add	r6, r1, r2
 368 0244 023083E0 		add	r3, r3, r2
 369 0248 14308DE5 		str	r3, [sp, #20]
 370 024c 0B30A0E1 		mov	r3, fp
 371 0250 0AB0A0E1 		mov	fp, r10
 372 0254 09A0A0E1 		mov	r10, r9
 373 0258 0390A0E1 		mov	r9, r3
 374              	.L75:
 375 025c 2C309DE5 		ldr	r3, [sp, #44]
 376 0260 30209DE5 		ldr	r2, [sp, #48]
 377 0264 020053E1 		cmp	r3, r2
 378 0268 970000AA 		bge	.L89
 379 026c 78209DE5 		ldr	r2, [sp, #120]
 380 0270 0010A0E3 		mov	r1, #0
 381 0274 24E09DE5 		ldr	lr, [sp, #36]
 382 0278 70509DE5 		ldr	r5, [sp, #112]
 383 027c 7C009DE5 		ldr	r0, [sp, #124]
 384 0280 80709DE5 		ldr	r7, [sp, #128]
 385 0284 0E4083E0 		add	r4, r3, lr
 386 0288 0C508DE5 		str	r5, [sp, #12]
 387 028c 9BE225E0 		mla	r5, fp, r2, lr
 388 0290 20C09DE5 		ldr	ip, [sp, #32]
 389 0294 247A9FED 		vldr.32	s14, .L126+8
 390 0298 900708E0 		mul	r8, r0, r7
 391 029c 04208DE5 		str	r2, [sp, #4]
 392 02a0 035085E0 		add	r5, r5, r3
 393 02a4 34309DE5 		ldr	r3, [sp, #52]
 394 02a8 74209DE5 		ldr	r2, [sp, #116]
 395 02ac 07E1A0E1 		lsl	lr, r7, #2
 396 02b0 0CC089E0 		add	ip, r9, ip
 397 02b4 906525E0 		mla	r5, r0, r5, r6
 398 02b8 08208DE5 		str	r2, [sp, #8]
 399 02bc 0881A0E1 		lsl	r8, r8, #2
 400 02c0 97A525E0 		mla	r5, r7, r5, r10
 401 02c4 055183E0 		add	r5, r3, r5, lsl #2
 402              	.L65:
 403 02c8 00309DE5 		ldr	r3, [sp]
 404 02cc 090053E1 		cmp	r3, r9
 405 02d0 210000AA 		bge	.L55
 406 02d4 0C309DE5 		ldr	r3, [sp, #12]
 407 02d8 040053E3 		cmp	r3, #4
 408 02dc 8600001A 		bne	.L56
 409 02e0 08309DE5 		ldr	r3, [sp, #8]
 410 02e4 03005BE1 		cmp	fp, r3
 411 02e8 820000AA 		bge	.L57
 412 02ec 000054E3 		cmp	r4, #0
 413 02f0 7F0000BA 		blt	.L58
 414 02f4 04309DE5 		ldr	r3, [sp, #4]
 415 02f8 030054E1 		cmp	r4, r3
 416 02fc 7C0000AA 		bge	.L58
 417 0300 000056E3 		cmp	r6, #0
 418 0304 790000BA 		blt	.L59
 419 0308 000056E1 		cmp	r6, r0
 420 030c 770000AA 		bge	.L59
 421 0310 07005AE1 		cmp	r10, r7
 422 0314 970000AA 		bge	.L120
 423 0318 14309DE5 		ldr	r3, [sp, #20]
 424 031c 0520A0E1 		mov	r2, r5
 425 0320 080000EA 		b	.L62
 426              	.L127:
 427              		.align	2
 428              	.L126:
 429 0324 FFFF7FFF 		.word	-8388609
 430 0328 FFFF7F7F 		.word	2139095039
 431 032c 00000000 		.word	0
 432              	.L64:
 433 0330 000053E3 		cmp	r3, #0
 434 0334 6D0000BA 		blt	.L59
 435 0338 000053E1 		cmp	r3, r0
 436 033c 0E2082E0 		add	r2, r2, lr
 437 0340 013083E2 		add	r3, r3, #1
 438 0344 690000AA 		bge	.L59
 439              	.L62:
 440 0348 007AD2ED 		vldr.32	s15, [r2]
 441 034c 0C0053E1 		cmp	r3, ip
 442 0350 011081E2 		add	r1, r1, #1
 443 0354 A77A07EE 		vmla.f32	s14, s15, s15
 444 0358 F4FFFF1A 		bne	.L64
 445              	.L55:
 446 035c 10309DE5 		ldr	r3, [sp, #16]
 447 0360 014084E2 		add	r4, r4, #1
 448 0364 085085E0 		add	r5, r5, r8
 449 0368 030054E1 		cmp	r4, r3
 450 036c D5FFFF1A 		bne	.L65
 451 0370 901A07EE 		vmov	s15, r1	@ int
 452 0374 E77AF8EE 		vcvt.f32.s32	s15, s15
 453              	.L54:
 454 0378 270A87EE 		vdiv.f32	s0, s14, s15
 455 037c 400AB5EE 		vcmp.f32	s0, #0
 456 0380 10FAF1EE 		vmrs	APSR_nzcv, FPSCR
 457 0384 C08AB1EE 		vsqrt.f32	s16, s0
 458 0388 6B00004A 		bmi	.L121
 459              	.L67:
 460 038c 8C309DE5 		ldr	r3, [sp, #140]
 461 0390 03005BE1 		cmp	fp, r3
 462 0394 6F0000AA 		bge	.L122
 463 0398 90309DE5 		ldr	r3, [sp, #144]
 464 039c 1C209DE5 		ldr	r2, [sp, #28]
 465 03a0 030052E1 		cmp	r2, r3
 466 03a4 6F0000AA 		bge	.L123
 467 03a8 94109DE5 		ldr	r1, [sp, #148]
 468 03ac 18209DE5 		ldr	r2, [sp, #24]
 469 03b0 010052E1 		cmp	r2, r1
 470 03b4 6C0000AA 		bge	.L124
 471 03b8 98209DE5 		ldr	r2, [sp, #152]
 472 03bc 02005AE1 		cmp	r10, r2
 473 03c0 6B0000AA 		bge	.L125
 474 03c4 1C009DE5 		ldr	r0, [sp, #28]
 475 03c8 488AF4EE 		vcmp.f32	s17, s16
 476 03cc 10FAF1EE 		vmrs	APSR_nzcv, FPSCR
 477 03d0 688AB0CE 		vmovgt.f32	s16, s17
 478 03d4 930B23E0 		mla	r3, r3, fp, r0
 479 03d8 18009DE5 		ldr	r0, [sp, #24]
 480 03dc 489AB4EE 		vcmp.f32	s18, s16
 481 03e0 10FAF1EE 		vmrs	APSR_nzcv, FPSCR
 482 03e4 498AB04E 		vmovmi.f32	s16, s18
 483 03e8 910323E0 		mla	r3, r1, r3, r0
 484 03ec 92A323E0 		mla	r3, r2, r3, r10
 485 03f0 28209DE5 		ldr	r2, [sp, #40]
 486 03f4 01A08AE2 		add	r10, r10, #1
 487 03f8 02005AE1 		cmp	r10, r2
 488 03fc 38209DE5 		ldr	r2, [sp, #56]
 489 0400 033182E0 		add	r3, r2, r3, lsl #2
 490 0404 008A83ED 		vstr.32	s16, [r3]
 491 0408 93FFFF1A 		bne	.L75
 492 040c 0BA0A0E1 		mov	r10, fp
 493              	.L74:
 494 0410 40109DE5 		ldr	r1, [sp, #64]
 495 0414 6C209DE5 		ldr	r2, [sp, #108]
 496 0418 18309DE5 		ldr	r3, [sp, #24]
 497 041c 021041E0 		sub	r1, r1, r2
 498 0420 40108DE5 		str	r1, [sp, #64]
 499 0424 013083E2 		add	r3, r3, #1
 500 0428 58109DE5 		ldr	r1, [sp, #88]
 501 042c 18308DE5 		str	r3, [sp, #24]
 502 0430 010053E1 		cmp	r3, r1
 503 0434 20309DE5 		ldr	r3, [sp, #32]
 504 0438 023083E0 		add	r3, r3, r2
 505 043c 20308DE5 		str	r3, [sp, #32]
 506 0440 6DFFFF1A 		bne	.L53
 507 0444 0A90A0E1 		mov	r9, r10
 508              	.L52:
 509 0448 24109DE5 		ldr	r1, [sp, #36]
 510 044c 68209DE5 		ldr	r2, [sp, #104]
 511 0450 1C309DE5 		ldr	r3, [sp, #28]
 512 0454 021081E0 		add	r1, r1, r2
 513 0458 24108DE5 		str	r1, [sp, #36]
 514 045c 013083E2 		add	r3, r3, #1
 515 0460 54109DE5 		ldr	r1, [sp, #84]
 516 0464 1C308DE5 		str	r3, [sp, #28]
 517 0468 010053E1 		cmp	r3, r1
 518 046c 48309DE5 		ldr	r3, [sp, #72]
 519 0470 023043E0 		sub	r3, r3, r2
 520 0474 48308DE5 		str	r3, [sp, #72]
 521 0478 46FFFF1A 		bne	.L50
 522              	.L49:
 523 047c 50309DE5 		ldr	r3, [sp, #80]
 524 0480 019089E2 		add	r9, r9, #1
 525 0484 030059E1 		cmp	r9, r3
 526 0488 37FFFF1A 		bne	.L47
 527 048c 88309DE5 		ldr	r3, [sp, #136]
 528 0490 050053E3 		cmp	r3, #5
 529 0494 030000DA 		ble	.L112
 530 0498 8C009DE5 		ldr	r0, [sp, #140]
 531 049c 000050E3 		cmp	r0, #0
 532 04a0 0000000A 		beq	.L112
 533 04a4 FEFFFFEB 		bl	_ZdaPv
 534              	.L112:
 535 04a8 70309DE5 		ldr	r3, [sp, #112]
 536 04ac 050053E3 		cmp	r3, #5
 537 04b0 030000DA 		ble	.L79
 538 04b4 74009DE5 		ldr	r0, [sp, #116]
 539 04b8 000050E3 		cmp	r0, #0
 540 04bc 0000000A 		beq	.L79
 541 04c0 FEFFFFEB 		bl	_ZdaPv
 542              	.L79:
 543 04c4 0000A0E3 		mov	r0, #0
 544 04c8 E2FEFFEA 		b	.L36
 545              	.L89:
 546 04cc 6A7A1FED 		vldr.32	s14, .L126+8
 547 04d0 477AF0EE 		vmov.f32	s15, s14
 548 04d4 A7FFFFEA 		b	.L54
 549              	.L85:
 550 04d8 6E9A1FED 		vldr.32	s18, .L126+4
 551 04dc 6E8A5FED 		vldr.32	s17, .L126+8
 552 04e0 EBFEFFEA 		b	.L38
 553              	.L86:
 554 04e4 708A5FED 		vldr.32	s17, .L126+8
 555 04e8 089AB1EE 		vmov.f32	s18, #6.0e+0
 556 04ec E8FEFFEA 		b	.L38
 557              	.L59:
 558              	.LEHB2:
 559 04f0 FEFFFFEB 		bl	abort
 560              	.L58:
 561 04f4 FEFFFFEB 		bl	abort
 562              	.L57:
 563 04f8 FEFFFFEB 		bl	abort
 564              	.L56:
 565 04fc FEFFFFEB 		bl	abort
 566              	.LEHE2:
 567              	.L94:
 568 0500 88309DE5 		ldr	r3, [sp, #136]
 569 0504 050053E3 		cmp	r3, #5
 570 0508 030000DA 		ble	.L82
 571 050c 8C009DE5 		ldr	r0, [sp, #140]
 572 0510 000050E3 		cmp	r0, #0
 573 0514 0000000A 		beq	.L82
 574 0518 FEFFFFEB 		bl	_ZdaPv
 575              	.L82:
 576 051c 70309DE5 		ldr	r3, [sp, #112]
 577 0520 050053E3 		cmp	r3, #5
 578 0524 030000DA 		ble	.L83
 579 0528 74009DE5 		ldr	r0, [sp, #116]
 580 052c 000050E3 		cmp	r0, #0
 581 0530 0000000A 		beq	.L83
 582 0534 FEFFFFEB 		bl	_ZdaPv
 583              	.L83:
 584              	.LEHB3:
 585 0538 FEFFFFEB 		bl	__cxa_end_cleanup
 586              	.LEHE3:
 587              	.L121:
 588 053c FEFFFFEB 		bl	sqrtf
 589 0540 88309DE5 		ldr	r3, [sp, #136]
 590 0544 040053E3 		cmp	r3, #4
 591 0548 8FFFFF0A 		beq	.L67
 592              	.LEHB4:
 593 054c FEFFFFEB 		bl	abort
 594              	.L116:
 595 0550 FEFFFFEB 		bl	abort
 596              	.L93:
 597 0554 F0FFFFEA 		b	.L82
 598              	.L122:
 599 0558 FEFFFFEB 		bl	abort
 600              	.L117:
 601 055c FEFFFFEB 		bl	abort
 602              	.L118:
 603 0560 FEFFFFEB 		bl	abort
 604              	.L119:
 605 0564 FEFFFFEB 		bl	abort
 606              	.L123:
 607 0568 FEFFFFEB 		bl	abort
 608              	.L124:
 609 056c FEFFFFEB 		bl	abort
 610              	.LEHE4:
 611              	.L114:
 612              	.LEHB5:
 613 0570 FEFFFFEB 		bl	abort
 614              	.LEHE5:
 615              	.L125:
 616              	.LEHB6:
 617 0574 FEFFFFEB 		bl	abort
 618              	.L120:
 619 0578 FEFFFFEB 		bl	abort
 620              	.LEHE6:
 621              		.global	__gxx_personality_v0
 622              		.personality	__gxx_personality_v0
 623              		.handlerdata
 624              	.LLSDA4176:
 625 000c FF       		.byte	0xff
 626 000d FF       		.byte	0xff
 627 000e 01       		.byte	0x1
 628 000f 27       		.uleb128 .LLSDACSE4176-.LLSDACSB4176
 629              	.LLSDACSB4176:
 630 0010 28       		.uleb128 .LEHB0-.LFB4176
 631 0011 A801     		.uleb128 .LEHE0-.LEHB0
 632 0013 00       		.uleb128 0
 633 0014 00       		.uleb128 0
 634 0015 E001     		.uleb128 .LEHB1-.LFB4176
 635 0017 04       		.uleb128 .LEHE1-.LEHB1
 636 0018 D40A     		.uleb128 .L93-.LFB4176
 637 001a 00       		.uleb128 0
 638 001b F009     		.uleb128 .LEHB2-.LFB4176
 639 001d 10       		.uleb128 .LEHE2-.LEHB2
 640 001e 800A     		.uleb128 .L94-.LFB4176
 641 0020 00       		.uleb128 0
 642 0021 B80A     		.uleb128 .LEHB3-.LFB4176
 643 0023 04       		.uleb128 .LEHE3-.LEHB3
 644 0024 00       		.uleb128 0
 645 0025 00       		.uleb128 0
 646 0026 CC0A     		.uleb128 .LEHB4-.LFB4176
 647 0028 24       		.uleb128 .LEHE4-.LEHB4
 648 0029 800A     		.uleb128 .L94-.LFB4176
 649 002b 00       		.uleb128 0
 650 002c F00A     		.uleb128 .LEHB5-.LFB4176
 651 002e 04       		.uleb128 .LEHE5-.LEHB5
 652 002f 00       		.uleb128 0
 653 0030 00       		.uleb128 0
 654 0031 F40A     		.uleb128 .LEHB6-.LFB4176
 655 0033 08       		.uleb128 .LEHE6-.LEHB6
 656 0034 800A     		.uleb128 .L94-.LFB4176
 657 0036 00       		.uleb128 0
 658              	.LLSDACSE4176:
 659              		.section	.text._ZN6tflite12_GLOBAL__N_16L2EvalEP13TfLiteContextP10TfLiteNode
 660              		.fnend
 662              		.section	.text._ZN6tflite19Register_L2_POOL_2DEv,"ax",%progbits
 663              		.align	2
 664              		.global	_ZN6tflite19Register_L2_POOL_2DEv
 665              		.syntax unified
 666              		.arm
 667              		.fpu neon
 669              	_ZN6tflite19Register_L2_POOL_2DEv:
 670              		.fnstart
 671              	.LFB4177:
 672              		@ args = 0, pretend = 0, frame = 0
 673              		@ frame_needed = 0, uses_anonymous_args = 0
 674 0000 00C000E3 		movw	ip, #:lower16:.LANCHOR0
 675 0004 10402DE9 		push	{r4, lr}
 676 0008 00C040E3 		movt	ip, #:upper16:.LANCHOR0
 677 000c 0040A0E1 		mov	r4, r0
 678 0010 00E0A0E1 		mov	lr, r0
 679 0014 0F00BCE8 		ldmia	ip!, {r0, r1, r2, r3}
 680 0018 0F00AEE8 		stmia	lr!, {r0, r1, r2, r3}
 681 001c 0F009CE8 		ldm	ip, {r0, r1, r2, r3}
 682 0020 0F008EE8 		stm	lr, {r0, r1, r2, r3}
 683 0024 0400A0E1 		mov	r0, r4
 684 0028 1080BDE8 		pop	{r4, pc}
 685              		.cantunwind
 686              		.fnend
 688              		.section	.rodata
 689              		.align	2
 690              		.set	.LANCHOR0,. + 0
 691              	.LC0:
 692 0000 00000000 		.word	0
 693 0004 00000000 		.word	0
 694 0008 00000000 		.word	_ZN6tflite12_GLOBAL__N_19L2PrepareEP13TfLiteContextP10TfLiteNode
 695 000c 00000000 		.word	_ZN6tflite12_GLOBAL__N_16L2EvalEP13TfLiteContextP10TfLiteNode
 696 0010 00000000 		.word	0
 697 0014 00000000 		.word	0
 698 0018 00000000 		.word	0
 699 001c 00000000 		.word	0
 700              		.ident	"GCC: (GNU Tools for ARM Embedded Processors 6-2017-q2-update) 6.3.1 20170620 (release) [AR