   1              		.cpu cortex-a9
   2              		.eabi_attribute 28, 1
   3              		.eabi_attribute 20, 1
   4              		.eabi_attribute 21, 1
   5              		.eabi_attribute 23, 3
   6              		.eabi_attribute 24, 1
   7              		.eabi_attribute 25, 1
   8              		.eabi_attribute 26, 1
   9              		.eabi_attribute 30, 2
  10              		.eabi_attribute 34, 0
  11              		.eabi_attribute 18, 4
  12              		.file	"logical.cc"
  13              		.section	.text._ZN6tflite3ops5micro7logical12_GLOBAL__N_113LogicalOrEvalEP13TfLiteContextP10TfLite
  14              		.align	2
  15              		.syntax unified
  16              		.arm
  17              		.fpu neon
  19              	_ZN6tflite3ops5micro7logical12_GLOBAL__N_113LogicalOrEvalEP13TfLiteContextP10TfLiteNode:
  20              		.fnstart
  21              	.LFB4155:
  22              		@ args = 0, pretend = 0, frame = 336
  23              		@ frame_needed = 0, uses_anonymous_args = 0
  24 0000 F04F2DE9 		push	{r4, r5, r6, r7, r8, r9, r10, fp, lr}
  25              		.save {r4, r5, r6, r7, r8, r9, r10, fp, lr}
  26 0004 004050E2 		subs	r4, r0, #0
  27              		.pad #340
  28 0008 55DF4DE2 		sub	sp, sp, #340
  29 000c 6604000A 		beq	.L3
  30 0010 000051E3 		cmp	r1, #0
  31 0014 0150A0E1 		mov	r5, r1
  32 0018 6304000A 		beq	.L3
  33 001c 002091E5 		ldr	r2, [r1]
  34 0020 543094E5 		ldr	r3, [r4, #84]
  35 0024 041092E5 		ldr	r1, [r2, #4]
  36              	.LEHB0:
  37 0028 33FF2FE1 		blx	r3
  38 002c 002095E5 		ldr	r2, [r5]
  39 0030 0070A0E1 		mov	r7, r0
  40 0034 543094E5 		ldr	r3, [r4, #84]
  41 0038 0400A0E1 		mov	r0, r4
  42 003c 081092E5 		ldr	r1, [r2, #8]
  43 0040 33FF2FE1 		blx	r3
  44 0044 042095E5 		ldr	r2, [r5, #4]
  45 0048 0060A0E1 		mov	r6, r0
  46 004c 543094E5 		ldr	r3, [r4, #84]
  47 0050 0400A0E1 		mov	r0, r4
  48 0054 041092E5 		ldr	r1, [r2, #4]
  49 0058 33FF2FE1 		blx	r3
  50 005c 0610A0E1 		mov	r1, r6
  51 0060 0080A0E1 		mov	r8, r0
  52 0064 0700A0E1 		mov	r0, r7
  53 0068 FEFFFFEB 		bl	_ZN6tflite5micro14HaveSameShapesEPK16TfLiteEvalTensorS3_
  54 006c 000050E3 		cmp	r0, #0
  55 0070 0710A0E1 		mov	r1, r7
  56 0074 F700000A 		beq	.L4
  57 0078 F8008DE2 		add	r0, sp, #248
  58 007c FEFFFFEB 		bl	_ZN6tflite5micro14GetTensorShapeEPK16TfLiteEvalTensor
  59              	.LEHE0:
  60 0080 000057E3 		cmp	r7, #0
  61 0084 4404000A 		beq	.L453
  62 0088 0610A0E1 		mov	r1, r6
  63 008c 110E8DE2 		add	r0, sp, #272
  64 0090 004097E5 		ldr	r4, [r7]
  65              	.LEHB1:
  66 0094 FEFFFFEB 		bl	_ZN6tflite5micro14GetTensorShapeEPK16TfLiteEvalTensor
  67              	.LEHE1:
  68 0098 000056E3 		cmp	r6, #0
  69 009c 4404000A 		beq	.L454
  70 00a0 0810A0E1 		mov	r1, r8
  71 00a4 130E8DE2 		add	r0, sp, #304
  72 00a8 005096E5 		ldr	r5, [r6]
  73              	.LEHB2:
  74 00ac FEFFFFEB 		bl	_ZN6tflite5micro14GetTensorShapeEPK16TfLiteEvalTensor
  75              	.LEHE2:
  76 00b0 000058E3 		cmp	r8, #0
  77 00b4 F8309DE5 		ldr	r3, [sp, #248]
  78 00b8 00109815 		ldrne	r1, [r8]
  79 00bc 0810A001 		moveq	r1, r8
  80 00c0 10819DE5 		ldr	r8, [sp, #272]
  81 00c4 080053E1 		cmp	r3, r8
  82 00c8 3504001A 		bne	.L8
  83 00cc 000053E3 		cmp	r3, #0
  84 00d0 BA0300DA 		ble	.L455
  85 00d4 050053E3 		cmp	r3, #5
  86 00d8 FC709DE5 		ldr	r7, [sp, #252]
  87 00dc 14019DE5 		ldr	r0, [sp, #276]
  88 00e0 D10200CA 		bgt	.L11
  89 00e4 000053E3 		cmp	r3, #0
  90 00e8 DC0200DA 		ble	.L12
  91 00ec 000057E1 		cmp	r7, r0
  92 00f0 2504001A 		bne	.L13
  93 00f4 010053E3 		cmp	r3, #1
  94 00f8 1900000A 		beq	.L14
  95 00fc 00019DE5 		ldr	r0, [sp, #256]
  96 0100 18219DE5 		ldr	r2, [sp, #280]
  97 0104 020050E1 		cmp	r0, r2
  98 0108 1F04001A 		bne	.L13
  99 010c 020053E3 		cmp	r3, #2
 100 0110 1300000A 		beq	.L14
 101 0114 04019DE5 		ldr	r0, [sp, #260]
 102 0118 1C219DE5 		ldr	r2, [sp, #284]
 103 011c 020050E1 		cmp	r0, r2
 104 0120 1904001A 		bne	.L13
 105 0124 030053E3 		cmp	r3, #3
 106 0128 0D00000A 		beq	.L14
 107 012c 030058E3 		cmp	r8, #3
 108 0130 08019DE5 		ldr	r0, [sp, #264]
 109 0134 C902000A 		beq	.L12
 110 0138 20219DE5 		ldr	r2, [sp, #288]
 111 013c 020050E1 		cmp	r0, r2
 112 0140 1104001A 		bne	.L13
 113 0144 040053E3 		cmp	r3, #4
 114 0148 0500000A 		beq	.L14
 115 014c 040058E3 		cmp	r8, #4
 116 0150 0C019DE5 		ldr	r0, [sp, #268]
 117 0154 C102000A 		beq	.L12
 118 0158 24219DE5 		ldr	r2, [sp, #292]
 119 015c 020050E1 		cmp	r0, r2
 120 0160 0904001A 		bne	.L13
 121              	.L14:
 122 0164 30219DE5 		ldr	r2, [sp, #304]
 123 0168 020053E1 		cmp	r3, r2
 124 016c 9603001A 		bne	.L185
 125 0170 050053E3 		cmp	r3, #5
 126 0174 34019DE5 		ldr	r0, [sp, #308]
 127 0178 B90200CA 		bgt	.L19
 128 017c FC209DE5 		ldr	r2, [sp, #252]
 129 0180 020050E1 		cmp	r0, r2
 130 0184 FF03001A 		bne	.L20
 131 0188 010053E3 		cmp	r3, #1
 132 018c 150000DA 		ble	.L21
 133 0190 00019DE5 		ldr	r0, [sp, #256]
 134 0194 38219DE5 		ldr	r2, [sp, #312]
 135 0198 020050E1 		cmp	r0, r2
 136 019c F903001A 		bne	.L20
 137 01a0 020053E3 		cmp	r3, #2
 138 01a4 1300000A 		beq	.L307
 139 01a8 3C019DE5 		ldr	r0, [sp, #316]
 140 01ac 04219DE5 		ldr	r2, [sp, #260]
 141 01b0 020050E1 		cmp	r0, r2
 142 01b4 F303001A 		bne	.L20
 143 01b8 030053E3 		cmp	r3, #3
 144 01bc 0D00000A 		beq	.L307
 145 01c0 08019DE5 		ldr	r0, [sp, #264]
 146 01c4 40219DE5 		ldr	r2, [sp, #320]
 147 01c8 020050E1 		cmp	r0, r2
 148 01cc ED03001A 		bne	.L20
 149 01d0 040053E3 		cmp	r3, #4
 150 01d4 0700000A 		beq	.L307
 151 01d8 44019DE5 		ldr	r0, [sp, #324]
 152 01dc 0C219DE5 		ldr	r2, [sp, #268]
 153 01e0 020050E1 		cmp	r0, r2
 154 01e4 E703001A 		bne	.L20
 155              	.L21:
 156 01e8 050053E3 		cmp	r3, #5
 157 01ec 020000CA 		bgt	.L26
 158              	.L25:
 159 01f0 000053E3 		cmp	r3, #0
 160 01f4 6F0300DA 		ble	.L202
 161              	.L307:
 162 01f8 FC708DE2 		add	r7, sp, #252
 163              	.L26:
 164 01fc 5721A0E7 		sbfx	r2, r7, #2, #1
 165 0200 032002E2 		and	r2, r2, #3
 166 0204 030052E1 		cmp	r2, r3
 167 0208 0200A031 		movcc	r0, r2
 168 020c 0300A021 		movcs	r0, r3
 169 0210 080053E3 		cmp	r3, #8
 170 0214 0300A0D1 		movle	r0, r3
 171 0218 9F0200CA 		bgt	.L456
 172              	.L30:
 173 021c 010050E3 		cmp	r0, #1
 174 0220 002097E5 		ldr	r2, [r7]
 175 0224 EB01000A 		beq	.L211
 176 0228 04C097E5 		ldr	ip, [r7, #4]
 177 022c 020050E3 		cmp	r0, #2
 178 0230 9C0202E0 		mul	r2, ip, r2
 179 0234 E701000A 		beq	.L211
 180 0238 08C097E5 		ldr	ip, [r7, #8]
 181 023c 030050E3 		cmp	r0, #3
 182 0240 9C0202E0 		mul	r2, ip, r2
 183 0244 E301000A 		beq	.L211
 184 0248 0CC097E5 		ldr	ip, [r7, #12]
 185 024c 040050E3 		cmp	r0, #4
 186 0250 9C0202E0 		mul	r2, ip, r2
 187 0254 DF01000A 		beq	.L211
 188 0258 10C097E5 		ldr	ip, [r7, #16]
 189 025c 050050E3 		cmp	r0, #5
 190 0260 9C0202E0 		mul	r2, ip, r2
 191 0264 DB01000A 		beq	.L211
 192 0268 14C097E5 		ldr	ip, [r7, #20]
 193 026c 060050E3 		cmp	r0, #6
 194 0270 9C0202E0 		mul	r2, ip, r2
 195 0274 D701000A 		beq	.L211
 196 0278 18C097E5 		ldr	ip, [r7, #24]
 197 027c 070050E3 		cmp	r0, #7
 198 0280 9C0202E0 		mul	r2, ip, r2
 199 0284 D301000A 		beq	.L211
 200 0288 1CC097E5 		ldr	ip, [r7, #28]
 201 028c 0860A0E3 		mov	r6, #8
 202 0290 9C0202E0 		mul	r2, ip, r2
 203              	.L32:
 204 0294 000053E1 		cmp	r3, r0
 205 0298 2800000A 		beq	.L33
 206              	.L31:
 207 029c 008043E0 		sub	r8, r3, r0
 208 02a0 01C043E2 		sub	ip, r3, #1
 209 02a4 04E048E2 		sub	lr, r8, #4
 210 02a8 00C04CE0 		sub	ip, ip, r0
 211 02ac 2EE1A0E1 		lsr	lr, lr, #2
 212 02b0 02005CE3 		cmp	ip, #2
 213 02b4 01E08EE2 		add	lr, lr, #1
 214 02b8 0E91A0E1 		lsl	r9, lr, #2
 215 02bc 1200009A 		bls	.L34
 216 02c0 000187E0 		add	r0, r7, r0, lsl #2
 217 02c4 5100C0F2 		vmov.i32	q8, #1  @ v4si
 218 02c8 00C0A0E3 		mov	ip, #0
 219              	.L36:
 220 02cc 01C08CE2 		add	ip, ip, #1
 221 02d0 DF2A60F4 		vld1.64	{d18-d19}, [r0:64]
 222 02d4 0C005EE1 		cmp	lr, ip
 223 02d8 100080E2 		add	r0, r0, #16
 224 02dc F20960F2 		vmul.i32	q8, q8, q9
 225 02e0 F9FFFF8A 		bhi	.L36
 226 02e4 080059E1 		cmp	r9, r8
 227 02e8 096086E0 		add	r6, r6, r9
 228 02ec 5020C0F2 		vmov.i32	q9, #0  @ v4si
 229 02f0 E248F0F2 		vext.32	q10, q8, q9, #2
 230 02f4 F40960F2 		vmul.i32	q8, q8, q10
 231 02f8 E224F0F2 		vext.32	q9, q8, q9, #1
 232 02fc F20960F2 		vmul.i32	q8, q8, q9
 233 0300 90CB10EE 		vmov.32	ip, d16[0]
 234 0304 9C0202E0 		mul	r2, ip, r2
 235 0308 0C00000A 		beq	.L33
 236              	.L34:
 237 030c 06C197E7 		ldr	ip, [r7, r6, lsl #2]
 238 0310 010086E2 		add	r0, r6, #1
 239 0314 000053E1 		cmp	r3, r0
 240 0318 0601A0E1 		lsl	r0, r6, #2
 241 031c 9C0202E0 		mul	r2, ip, r2
 242 0320 060000DA 		ble	.L33
 243 0324 000087E0 		add	r0, r7, r0
 244 0328 02C086E2 		add	ip, r6, #2
 245 032c 04E090E5 		ldr	lr, [r0, #4]
 246 0330 0C0053E1 		cmp	r3, ip
 247 0334 9E0202E0 		mul	r2, lr, r2
 248 0338 080090C5 		ldrgt	r0, [r0, #8]
 249 033c 900202C0 		mulgt	r2, r0, r2
 250              	.L33:
 251 0340 000052E3 		cmp	r2, #0
 252 0344 2C0000DA 		ble	.L46
 253              	.L27:
 254 0348 100085E2 		add	r0, r5, #16
 255 034c 106081E2 		add	r6, r1, #16
 256 0350 10E084E2 		add	lr, r4, #16
 257 0354 060055E1 		cmp	r5, r6
 258 0358 00005131 		cmpcc	r1, r0
 259 035c 0100A023 		movcs	r0, #1
 260 0360 0000A033 		movcc	r0, #0
 261 0364 04C085E1 		orr	ip, r5, r4
 262 0368 060054E1 		cmp	r4, r6
 263 036c 0E005131 		cmpcc	r1, lr
 264 0370 01E0A023 		movcs	lr, #1
 265 0374 00E0A033 		movcc	lr, #0
 266 0378 0CC081E1 		orr	ip, r1, ip
 267 037c 0E0000E0 		and	r0, r0, lr
 268 0380 0F001CE3 		tst	ip, #15
 269 0384 0000A013 		movne	r0, #0
 270 0388 01000002 		andeq	r0, r0, #1
 271 038c 0F0052E3 		cmp	r2, #15
 272 0390 0000A093 		movls	r0, #0
 273 0394 01000082 		andhi	r0, r0, #1
 274 0398 000050E3 		cmp	r0, #0
 275 039c AA02000A 		beq	.L40
 276 03a0 10C042E2 		sub	ip, r2, #16
 277 03a4 0F0052E3 		cmp	r2, #15
 278 03a8 2CC2A0E1 		lsr	ip, ip, #4
 279 03ac 01C08CE2 		add	ip, ip, #1
 280 03b0 0C02A0E1 		lsl	r0, ip, #4
 281 03b4 3D0200DA 		ble	.L212
 282 03b8 0480A0E1 		mov	r8, r4
 283 03bc 0570A0E1 		mov	r7, r5
 284 03c0 0160A0E1 		mov	r6, r1
 285 03c4 00E0A0E3 		mov	lr, #0
 286              	.L43:
 287 03c8 DF2A68F4 		vld1.64	{d18-d19}, [r8:64]
 288 03cc 01E08EE2 		add	lr, lr, #1
 289 03d0 0E005CE1 		cmp	ip, lr
 290 03d4 108088E2 		add	r8, r8, #16
 291 03d8 DF0A67F4 		vld1.64	{d16-d17}, [r7:64]
 292 03dc 106086E2 		add	r6, r6, #16
 293 03e0 F00162F2 		vorr	q8, q9, q8
 294 03e4 107087E2 		add	r7, r7, #16
 295 03e8 040B46ED 		vstr	d16, [r6, #-16]
 296 03ec 021B46ED 		vstr	d17, [r6, #-8]
 297 03f0 F4FFFF8A 		bhi	.L43
 298 03f4 000052E1 		cmp	r2, r0
 299 03f8 2D02001A 		bne	.L41
 300              	.L46:
 301 03fc 050053E3 		cmp	r3, #5
 302 0400 0A0000DA 		ble	.L50
 303 0404 34019DE5 		ldr	r0, [sp, #308]
 304 0408 000050E3 		cmp	r0, #0
 305 040c 0300000A 		beq	.L186
 306 0410 FEFFFFEB 		bl	_ZdaPv
 307 0414 10319DE5 		ldr	r3, [sp, #272]
 308 0418 050053E3 		cmp	r3, #5
 309 041c 030000DA 		ble	.L50
 310              	.L186:
 311 0420 14019DE5 		ldr	r0, [sp, #276]
 312 0424 000050E3 		cmp	r0, #0
 313 0428 0000000A 		beq	.L50
 314 042c FEFFFFEB 		bl	_ZdaPv
 315              	.L50:
 316 0430 F8309DE5 		ldr	r3, [sp, #248]
 317 0434 050053E3 		cmp	r3, #5
 318 0438 030000DA 		ble	.L308
 319 043c FC009DE5 		ldr	r0, [sp, #252]
 320 0440 000050E3 		cmp	r0, #0
 321 0444 0000000A 		beq	.L308
 322              	.L392:
 323 0448 FEFFFFEB 		bl	_ZdaPv
 324              	.L308:
 325 044c 0000A0E3 		mov	r0, #0
 326 0450 55DF8DE2 		add	sp, sp, #340
 327              		@ sp needed
 328 0454 F08FBDE8 		pop	{r4, r5, r6, r7, r8, r9, r10, fp, pc}
 329              	.L4:
 330 0458 80008DE2 		add	r0, sp, #128
 331              	.LEHB3:
 332 045c FEFFFFEB 		bl	_ZN6tflite5micro14GetTensorShapeEPK16TfLiteEvalTensor
 333              	.LEHE3:
 334 0460 000057E3 		cmp	r7, #0
 335 0464 7603000A 		beq	.L457
 336 0468 0610A0E1 		mov	r1, r6
 337 046c 98008DE2 		add	r0, sp, #152
 338 0470 007097E5 		ldr	r7, [r7]
 339              	.LEHB4:
 340 0474 FEFFFFEB 		bl	_ZN6tflite5micro14GetTensorShapeEPK16TfLiteEvalTensor
 341              	.LEHE4:
 342 0478 000056E3 		cmp	r6, #0
 343 047c 4D03000A 		beq	.L458
 344 0480 0810A0E1 		mov	r1, r8
 345 0484 B0008DE2 		add	r0, sp, #176
 346 0488 005096E5 		ldr	r5, [r6]
 347              	.LEHB5:
 348 048c FEFFFFEB 		bl	_ZN6tflite5micro14GetTensorShapeEPK16TfLiteEvalTensor
 349              	.LEHE5:
 350 0490 80609DE5 		ldr	r6, [sp, #128]
 351 0494 000058E3 		cmp	r8, #0
 352 0498 00809815 		ldrne	r8, [r8]
 353 049c 040056E3 		cmp	r6, #4
 354 04a0 3B0300CA 		bgt	.L459
 355 04a4 98409DE5 		ldr	r4, [sp, #152]
 356 04a8 040054E3 		cmp	r4, #4
 357 04ac 370300CA 		bgt	.L460
 358 04b0 B0209DE5 		ldr	r2, [sp, #176]
 359 04b4 040052E3 		cmp	r2, #4
 360 04b8 380300CA 		bgt	.L461
 361 04bc 040072E2 		rsbs	r0, r2, #4
 362 04c0 0430A0E3 		mov	r3, #4
 363 04c4 C8308DE5 		str	r3, [sp, #200]
 364 04c8 0D00000A 		beq	.L62
 365 04cc 010050E3 		cmp	r0, #1
 366 04d0 0130A0E3 		mov	r3, #1
 367 04d4 CC308DE5 		str	r3, [sp, #204]
 368 04d8 0900000A 		beq	.L62
 369 04dc 020050E3 		cmp	r0, #2
 370 04e0 D0308DE5 		str	r3, [sp, #208]
 371 04e4 0600000A 		beq	.L62
 372 04e8 030050E3 		cmp	r0, #3
 373 04ec D4308DE5 		str	r3, [sp, #212]
 374 04f0 0300000A 		beq	.L62
 375 04f4 040050E3 		cmp	r0, #4
 376 04f8 D8308DE5 		str	r3, [sp, #216]
 377 04fc 0000000A 		beq	.L62
 378              	.LEHB6:
 379 0500 FEFFFFEB 		bl	abort
 380              	.LEHE6:
 381              	.L62:
 382 0504 CC308DE2 		add	r3, sp, #204
 383 0508 0221A0E1 		lsl	r2, r2, #2
 384 050c 000183E0 		add	r0, r3, r0, lsl #2
 385 0510 B4108DE2 		add	r1, sp, #180
 386 0514 FEFFFFEB 		bl	memcpy
 387 0518 040076E2 		rsbs	r0, r6, #4
 388 051c 0430A0E3 		mov	r3, #4
 389 0520 E0308DE5 		str	r3, [sp, #224]
 390 0524 0D00000A 		beq	.L60
 391 0528 010050E3 		cmp	r0, #1
 392 052c 0130A0E3 		mov	r3, #1
 393 0530 E4308DE5 		str	r3, [sp, #228]
 394 0534 0900000A 		beq	.L60
 395 0538 020050E3 		cmp	r0, #2
 396 053c E8308DE5 		str	r3, [sp, #232]
 397 0540 0600000A 		beq	.L60
 398 0544 030050E3 		cmp	r0, #3
 399 0548 EC308DE5 		str	r3, [sp, #236]
 400 054c 0300000A 		beq	.L60
 401 0550 040050E3 		cmp	r0, #4
 402 0554 F0308DE5 		str	r3, [sp, #240]
 403 0558 0000000A 		beq	.L60
 404              	.LEHB7:
 405 055c FEFFFFEB 		bl	abort
 406              	.LEHE7:
 407              	.L60:
 408 0560 E4308DE2 		add	r3, sp, #228
 409 0564 0621A0E1 		lsl	r2, r6, #2
 410 0568 000183E0 		add	r0, r3, r0, lsl #2
 411 056c 84108DE2 		add	r1, sp, #132
 412 0570 FEFFFFEB 		bl	memcpy
 413 0574 040074E2 		rsbs	r0, r4, #4
 414 0578 0430A0E3 		mov	r3, #4
 415 057c F8308DE5 		str	r3, [sp, #248]
 416 0580 0D00000A 		beq	.L64
 417 0584 010050E3 		cmp	r0, #1
 418 0588 0130A0E3 		mov	r3, #1
 419 058c FC308DE5 		str	r3, [sp, #252]
 420 0590 0900000A 		beq	.L64
 421 0594 020050E3 		cmp	r0, #2
 422 0598 00318DE5 		str	r3, [sp, #256]
 423 059c 0600000A 		beq	.L64
 424 05a0 030050E3 		cmp	r0, #3
 425 05a4 04318DE5 		str	r3, [sp, #260]
 426 05a8 0300000A 		beq	.L64
 427 05ac 040050E3 		cmp	r0, #4
 428 05b0 08318DE5 		str	r3, [sp, #264]
 429 05b4 0000000A 		beq	.L64
 430              	.LEHB8:
 431 05b8 FEFFFFEB 		bl	abort
 432              	.LEHE8:
 433              	.L64:
 434 05bc FC308DE2 		add	r3, sp, #252
 435 05c0 0421A0E1 		lsl	r2, r4, #2
 436 05c4 000183E0 		add	r0, r3, r0, lsl #2
 437 05c8 9C108DE2 		add	r1, sp, #156
 438 05cc FEFFFFEB 		bl	memcpy
 439 05d0 E0409DE5 		ldr	r4, [sp, #224]
 440 05d4 E4309DE5 		ldr	r3, [sp, #228]
 441 05d8 050054E3 		cmp	r4, #5
 442 05dc 820100CA 		bgt	.L462
 443 05e0 030054E3 		cmp	r4, #3
 444 05e4 510300DA 		ble	.L74
 445 05e8 F0109DE5 		ldr	r1, [sp, #240]
 446 05ec 01E0A0E3 		mov	lr, #1
 447 05f0 ECC09DE5 		ldr	ip, [sp, #236]
 448 05f4 E8209DE5 		ldr	r2, [sp, #232]
 449 05f8 10318DE5 		str	r3, [sp, #272]
 450 05fc 1C118DE5 		str	r1, [sp, #284]
 451 0600 9C0100E0 		mul	r0, ip, r1
 452 0604 14218DE5 		str	r2, [sp, #276]
 453 0608 28118DE5 		str	r1, [sp, #296]
 454 060c 18C18DE5 		str	ip, [sp, #280]
 455 0610 2CE18DE5 		str	lr, [sp, #300]
 456 0614 920002E0 		mul	r2, r2, r0
 457 0618 24018DE5 		str	r0, [sp, #292]
 458 061c 20218DE5 		str	r2, [sp, #288]
 459              	.L75:
 460 0620 F8609DE5 		ldr	r6, [sp, #248]
 461 0624 FC009DE5 		ldr	r0, [sp, #252]
 462 0628 050056E3 		cmp	r6, #5
 463 062c 1A0100CA 		bgt	.L76
 464 0630 030056E3 		cmp	r6, #3
 465 0634 3E0300DA 		ble	.L77
 466 0638 08219DE5 		ldr	r2, [sp, #264]
 467 063c 0190A0E3 		mov	r9, #1
 468 0640 04119DE5 		ldr	r1, [sp, #260]
 469 0644 050054E3 		cmp	r4, #5
 470 0648 00C19DE5 		ldr	ip, [sp, #256]
 471 064c 4C918DE5 		str	r9, [sp, #332]
 472 0650 30018DE5 		str	r0, [sp, #304]
 473 0654 91020EE0 		mul	lr, r1, r2
 474 0658 3C218DE5 		str	r2, [sp, #316]
 475 065c 48218DE5 		str	r2, [sp, #328]
 476 0660 38118DE5 		str	r1, [sp, #312]
 477 0664 34C18DE5 		str	ip, [sp, #308]
 478 0668 9C0E09E0 		mul	r9, ip, lr
 479 066c 44E18DE5 		str	lr, [sp, #324]
 480 0670 40918DE5 		str	r9, [sp, #320]
 481 0674 D90000CA 		bgt	.L463
 482 0678 000054E3 		cmp	r4, #0
 483 067c F10200DA 		ble	.L82
 484 0680 000053E1 		cmp	r3, r0
 485 0684 0600000A 		beq	.L83
 486 0688 010053E3 		cmp	r3, #1
 487 068c 7102000A 		beq	.L84
 488 0690 010050E3 		cmp	r0, #1
 489 0694 E002001A 		bne	.L85
 490 0698 0000A0E3 		mov	r0, #0
 491 069c 30318DE5 		str	r3, [sp, #304]
 492 06a0 40018DE5 		str	r0, [sp, #320]
 493              	.L83:
 494 06a4 010054E3 		cmp	r4, #1
 495 06a8 E602000A 		beq	.L82
 496 06ac E8309DE5 		ldr	r3, [sp, #232]
 497 06b0 03005CE1 		cmp	ip, r3
 498 06b4 0600000A 		beq	.L87
 499 06b8 010053E3 		cmp	r3, #1
 500 06bc 6D02000A 		beq	.L86
 501 06c0 01005CE3 		cmp	ip, #1
 502 06c4 D402001A 		bne	.L85
 503 06c8 0000A0E3 		mov	r0, #0
 504 06cc 34318DE5 		str	r3, [sp, #308]
 505 06d0 44018DE5 		str	r0, [sp, #324]
 506              	.L87:
 507 06d4 020054E3 		cmp	r4, #2
 508 06d8 DA02000A 		beq	.L82
 509 06dc EC309DE5 		ldr	r3, [sp, #236]
 510 06e0 030051E1 		cmp	r1, r3
 511 06e4 0600000A 		beq	.L89
 512 06e8 010053E3 		cmp	r3, #1
 513 06ec 5D02000A 		beq	.L88
 514 06f0 010051E3 		cmp	r1, #1
 515 06f4 C802001A 		bne	.L85
 516 06f8 0010A0E3 		mov	r1, #0
 517 06fc 38318DE5 		str	r3, [sp, #312]
 518 0700 48118DE5 		str	r1, [sp, #328]
 519              	.L89:
 520 0704 030054E3 		cmp	r4, #3
 521 0708 CE02000A 		beq	.L82
 522 070c F0309DE5 		ldr	r3, [sp, #240]
 523 0710 030052E1 		cmp	r2, r3
 524 0714 0600000A 		beq	.L188
 525              	.L403:
 526 0718 010053E3 		cmp	r3, #1
 527 071c FB01000A 		beq	.L100
 528 0720 010052E3 		cmp	r2, #1
 529 0724 BC02001A 		bne	.L85
 530 0728 0020A0E3 		mov	r2, #0
 531 072c 3C318DE5 		str	r3, [sp, #316]
 532 0730 4C218DE5 		str	r2, [sp, #332]
 533              	.L188:
 534 0734 050054E3 		cmp	r4, #5
 535 0738 030000DA 		ble	.L120
 536 073c E4009DE5 		ldr	r0, [sp, #228]
 537 0740 000050E3 		cmp	r0, #0
 538 0744 0000000A 		beq	.L120
 539 0748 FEFFFFEB 		bl	_ZdaPv
 540              	.L120:
 541 074c C8909DE5 		ldr	r9, [sp, #200]
 542 0750 000059E3 		cmp	r9, #0
 543 0754 BC0200DA 		ble	.L121
 544 0758 D4609DE5 		ldr	r6, [sp, #212]
 545 075c D0309DE5 		ldr	r3, [sp, #208]
 546 0760 5C708DE5 		str	r7, [sp, #92]
 547 0764 D8709DE5 		ldr	r7, [sp, #216]
 548 0768 08308DE5 		str	r3, [sp, #8]
 549 076c 960303E0 		mul	r3, r6, r3
 550 0770 2CB19DE5 		ldr	fp, [sp, #300]
 551 0774 4C219DE5 		ldr	r2, [sp, #332]
 552 0778 64808DE5 		str	r8, [sp, #100]
 553 077c 0080A0E3 		mov	r8, #0
 554 0780 00106BE2 		rsb	r1, fp, #0
 555 0784 60508DE5 		str	r5, [sp, #96]
 556 0788 970303E0 		mul	r3, r7, r3
 557 078c 28108DE5 		str	r1, [sp, #40]
 558 0790 10119DE5 		ldr	r1, [sp, #272]
 559 0794 20208DE5 		str	r2, [sp, #32]
 560 0798 002062E2 		rsb	r2, r2, #0
 561 079c 2C208DE5 		str	r2, [sp, #44]
 562 07a0 7C308DE5 		str	r3, [sp, #124]
 563 07a4 18319DE5 		ldr	r3, [sp, #280]
 564 07a8 0C108DE5 		str	r1, [sp, #12]
 565 07ac 970601E0 		mul	r1, r7, r6
 566 07b0 14219DE5 		ldr	r2, [sp, #276]
 567 07b4 14308DE5 		str	r3, [sp, #20]
 568 07b8 1C319DE5 		ldr	r3, [sp, #284]
 569 07bc 70108DE5 		str	r1, [sp, #112]
 570 07c0 0B118BE0 		add	r1, fp, fp, lsl #2
 571 07c4 CCA09DE5 		ldr	r10, [sp, #204]
 572 07c8 18308DE5 		str	r3, [sp, #24]
 573 07cc 24319DE5 		ldr	r3, [sp, #292]
 574 07d0 24108DE5 		str	r1, [sp, #36]
 575 07d4 10208DE5 		str	r2, [sp, #16]
 576 07d8 68308DE5 		str	r3, [sp, #104]
 577 07dc 28319DE5 		ldr	r3, [sp, #296]
 578 07e0 48308DE5 		str	r3, [sp, #72]
 579 07e4 30319DE5 		ldr	r3, [sp, #304]
 580 07e8 3C308DE5 		str	r3, [sp, #60]
 581 07ec 34319DE5 		ldr	r3, [sp, #308]
 582 07f0 40308DE5 		str	r3, [sp, #64]
 583 07f4 38319DE5 		ldr	r3, [sp, #312]
 584 07f8 44308DE5 		str	r3, [sp, #68]
 585 07fc 3C319DE5 		ldr	r3, [sp, #316]
 586 0800 1C308DE5 		str	r3, [sp, #28]
 587 0804 44319DE5 		ldr	r3, [sp, #324]
 588 0808 6C308DE5 		str	r3, [sp, #108]
 589 080c 48319DE5 		ldr	r3, [sp, #328]
 590 0810 4C308DE5 		str	r3, [sp, #76]
 591 0814 20319DE5 		ldr	r3, [sp, #288]
 592 0818 74308DE5 		str	r3, [sp, #116]
 593 081c 40319DE5 		ldr	r3, [sp, #320]
 594 0820 78308DE5 		str	r3, [sp, #120]
 595 0824 0B30A0E1 		mov	r3, fp
 596 0828 07B0A0E1 		mov	fp, r7
 597 082c 0670A0E1 		mov	r7, r6
 598 0830 0360A0E1 		mov	r6, r3
 599              	.L122:
 600 0834 050059E3 		cmp	r9, #5
 601 0838 00309AC5 		ldrgt	r3, [r10]
 602 083c 0A30A0D1 		movle	r3, r10
 603 0840 080053E1 		cmp	r3, r8
 604 0844 340200DA 		ble	.L128
 605 0848 010059E3 		cmp	r9, #1
 606 084c 5702000A 		beq	.L129
 607 0850 64309DE5 		ldr	r3, [sp, #100]
 608 0854 0040A0E3 		mov	r4, #0
 609 0858 58308DE5 		str	r3, [sp, #88]
 610 085c 60309DE5 		ldr	r3, [sp, #96]
 611 0860 54308DE5 		str	r3, [sp, #84]
 612 0864 5C309DE5 		ldr	r3, [sp, #92]
 613 0868 50308DE5 		str	r3, [sp, #80]
 614              	.L130:
 615 086c 050059E3 		cmp	r9, #5
 616 0870 04309AC5 		ldrgt	r3, [r10, #4]
 617 0874 08309DD5 		ldrle	r3, [sp, #8]
 618 0878 040053E1 		cmp	r3, r4
 619 087c 180200DA 		ble	.L132
 620 0880 020059E3 		cmp	r9, #2
 621 0884 6502000A 		beq	.L133
 622 0888 58309DE5 		ldr	r3, [sp, #88]
 623 088c 00E0A0E3 		mov	lr, #0
 624 0890 30308DE5 		str	r3, [sp, #48]
 625 0894 54309DE5 		ldr	r3, [sp, #84]
 626 0898 38308DE5 		str	r3, [sp, #56]
 627 089c 50309DE5 		ldr	r3, [sp, #80]
 628 08a0 34308DE5 		str	r3, [sp, #52]
 629              	.L134:
 630 08a4 050059E3 		cmp	r9, #5
 631 08a8 08309AC5 		ldrgt	r3, [r10, #8]
 632 08ac 0730A0D1 		movle	r3, r7
 633 08b0 0E0053E1 		cmp	r3, lr
 634 08b4 FB0100DA 		ble	.L136
 635 08b8 030059E3 		cmp	r9, #3
 636 08bc 0702000A 		beq	.L137
 637 08c0 050059E3 		cmp	r9, #5
 638 08c4 44309DE5 		ldr	r3, [sp, #68]
 639 08c8 6F0000CA 		bgt	.L138
 640 08cc 0E0053E1 		cmp	r3, lr
 641 08d0 40309DE5 		ldr	r3, [sp, #64]
 642 08d4 770200DA 		ble	.L464
 643 08d8 040053E1 		cmp	r3, r4
 644 08dc 3C309DE5 		ldr	r3, [sp, #60]
 645 08e0 5A0200DA 		ble	.L446
 646 08e4 080053E1 		cmp	r3, r8
 647 08e8 330200DA 		ble	.L442
 648 08ec 30509DE5 		ldr	r5, [sp, #48]
 649 08f0 0010A0E3 		mov	r1, #0
 650 08f4 38C09DE5 		ldr	ip, [sp, #56]
 651 08f8 34009DE5 		ldr	r0, [sp, #52]
 652 08fc 04508DE5 		str	r5, [sp, #4]
 653 0900 250000EA 		b	.L159
 654              	.L465:
 655 0904 040059E3 		cmp	r9, #4
 656 0908 6200001A 		bne	.L143
 657 090c 08005AE1 		cmp	r10, r8
 658 0910 E30100DA 		ble	.L144
 659 0914 08309DE5 		ldr	r3, [sp, #8]
 660 0918 040053E1 		cmp	r3, r4
 661 091c DF0100DA 		ble	.L145
 662 0920 0E0057E1 		cmp	r7, lr
 663 0924 DC0100DA 		ble	.L146
 664 0928 0C309DE5 		ldr	r3, [sp, #12]
 665 092c 080053E1 		cmp	r3, r8
 666 0930 D80100DA 		ble	.L147
 667 0934 10309DE5 		ldr	r3, [sp, #16]
 668 0938 040053E1 		cmp	r3, r4
 669 093c D40100DA 		ble	.L148
 670 0940 14309DE5 		ldr	r3, [sp, #20]
 671 0944 0E0053E1 		cmp	r3, lr
 672 0948 D00100DA 		ble	.L149
 673 094c 18309DE5 		ldr	r3, [sp, #24]
 674 0950 010053E1 		cmp	r3, r1
 675 0954 CC0100DA 		ble	.L151
 676 0958 1C309DE5 		ldr	r3, [sp, #28]
 677 095c 060080E0 		add	r0, r0, r6
 678 0960 010053E1 		cmp	r3, r1
 679 0964 20309DE5 		ldr	r3, [sp, #32]
 680 0968 03C08CE0 		add	ip, ip, r3
 681 096c C50100DA 		ble	.L158
 682 0970 28309DE5 		ldr	r3, [sp, #40]
 683 0974 011081E2 		add	r1, r1, #1
 684 0978 2C209DE5 		ldr	r2, [sp, #44]
 685 097c 24509DE5 		ldr	r5, [sp, #36]
 686 0980 0330D0E7 		ldrb	r3, [r0, r3]	@ zero_extendqisi2
 687 0984 0220DCE7 		ldrb	r2, [ip, r2]	@ zero_extendqisi2
 688 0988 05F0D0F7 		pld	[r0, r5]
 689 098c 023083E1 		orr	r3, r3, r2
 690 0990 04209DE5 		ldr	r2, [sp, #4]
 691 0994 0130C2E4 		strb	r3, [r2], #1
 692 0998 04208DE5 		str	r2, [sp, #4]
 693              	.L159:
 694 099c 01005BE1 		cmp	fp, r1
 695 09a0 D7FFFFCA 		bgt	.L465
 696              	.L142:
 697 09a4 34309DE5 		ldr	r3, [sp, #52]
 698 09a8 01E08EE2 		add	lr, lr, #1
 699 09ac 48209DE5 		ldr	r2, [sp, #72]
 700 09b0 023083E0 		add	r3, r3, r2
 701 09b4 4C209DE5 		ldr	r2, [sp, #76]
 702 09b8 34308DE5 		str	r3, [sp, #52]
 703 09bc 38309DE5 		ldr	r3, [sp, #56]
 704 09c0 023083E0 		add	r3, r3, r2
 705 09c4 38308DE5 		str	r3, [sp, #56]
 706 09c8 30309DE5 		ldr	r3, [sp, #48]
 707 09cc 0B3083E0 		add	r3, r3, fp
 708 09d0 30308DE5 		str	r3, [sp, #48]
 709 09d4 B2FFFFEA 		b	.L134
 710              	.L211:
 711 09d8 0060A0E1 		mov	r6, r0
 712 09dc 2CFEFFEA 		b	.L32
 713              	.L463:
 714 09e0 00E093E5 		ldr	lr, [r3]
 715 09e4 00005EE1 		cmp	lr, r0
 716 09e8 0900000A 		beq	.L93
 717 09ec 01005EE3 		cmp	lr, #1
 718 09f0 00E0A003 		moveq	lr, #0
 719 09f4 10018D05 		streq	r0, [sp, #272]
 720 09f8 20E18D05 		streq	lr, [sp, #288]
 721 09fc 0400000A 		beq	.L93
 722 0a00 010050E3 		cmp	r0, #1
 723 0a04 0402001A 		bne	.L85
 724 0a08 0000A0E3 		mov	r0, #0
 725 0a0c 30E18DE5 		str	lr, [sp, #304]
 726 0a10 40018DE5 		str	r0, [sp, #320]
 727              	.L93:
 728 0a14 040093E5 		ldr	r0, [r3, #4]
 729 0a18 0C0050E1 		cmp	r0, ip
 730 0a1c 0900000A 		beq	.L95
 731 0a20 010050E3 		cmp	r0, #1
 732 0a24 0000A003 		moveq	r0, #0
 733 0a28 14C18D05 		streq	ip, [sp, #276]
 734 0a2c 24018D05 		streq	r0, [sp, #292]
 735 0a30 0400000A 		beq	.L95
 736 0a34 01005CE3 		cmp	ip, #1
 737 0a38 F701001A 		bne	.L85
 738 0a3c 00C0A0E3 		mov	ip, #0
 739 0a40 34018DE5 		str	r0, [sp, #308]
 740 0a44 44C18DE5 		str	ip, [sp, #324]
 741              	.L95:
 742 0a48 080093E5 		ldr	r0, [r3, #8]
 743 0a4c 010050E1 		cmp	r0, r1
 744 0a50 0900000A 		beq	.L97
 745 0a54 010050E3 		cmp	r0, #1
 746 0a58 0000A003 		moveq	r0, #0
 747 0a5c 18118D05 		streq	r1, [sp, #280]
 748 0a60 28018D05 		streq	r0, [sp, #296]
 749 0a64 0400000A 		beq	.L97
 750 0a68 010051E3 		cmp	r1, #1
 751 0a6c EA01001A 		bne	.L85
 752 0a70 0010A0E3 		mov	r1, #0
 753 0a74 38018DE5 		str	r0, [sp, #312]
 754 0a78 48118DE5 		str	r1, [sp, #328]
 755              	.L97:
 756 0a7c 0C3093E5 		ldr	r3, [r3, #12]
 757 0a80 020053E1 		cmp	r3, r2
 758 0a84 23FFFF1A 		bne	.L403
 759 0a88 29FFFFEA 		b	.L188
 760              	.L138:
 761 0a8c 0C309AE5 		ldr	r3, [r10, #12]
 762 0a90 000053E3 		cmp	r3, #0
 763 0a94 C2FFFFDA 		ble	.L142
 764              	.L143:
 765              	.LEHB9:
 766 0a98 FEFFFFEB 		bl	abort
 767              	.LEHE9:
 768              	.L76:
 769 0a9c 08C090E5 		ldr	ip, [r0, #8]
 770 0aa0 050054E3 		cmp	r4, #5
 771 0aa4 0C2090E5 		ldr	r2, [r0, #12]
 772 0aa8 01E0A0E3 		mov	lr, #1
 773 0aac 041090E5 		ldr	r1, [r0, #4]
 774 0ab0 38C18DE5 		str	ip, [sp, #312]
 775 0ab4 3C218DE5 		str	r2, [sp, #316]
 776 0ab8 48218DE5 		str	r2, [sp, #328]
 777 0abc 9C0202E0 		mul	r2, ip, r2
 778 0ac0 00C090E5 		ldr	ip, [r0]
 779 0ac4 34118DE5 		str	r1, [sp, #308]
 780 0ac8 4CE18DE5 		str	lr, [sp, #332]
 781 0acc 910201E0 		mul	r1, r1, r2
 782 0ad0 44218DE5 		str	r2, [sp, #324]
 783 0ad4 30C18DE5 		str	ip, [sp, #304]
 784 0ad8 40118DE5 		str	r1, [sp, #320]
 785 0adc E50000CA 		bgt	.L466
 786 0ae0 000054E3 		cmp	r4, #0
 787 0ae4 D70100DA 		ble	.L82
 788 0ae8 002090E5 		ldr	r2, [r0]
 789 0aec 020053E1 		cmp	r3, r2
 790 0af0 0900000A 		beq	.L101
 791 0af4 010053E3 		cmp	r3, #1
 792 0af8 0030A003 		moveq	r3, #0
 793 0afc 10218D05 		streq	r2, [sp, #272]
 794 0b00 20318D05 		streq	r3, [sp, #288]
 795 0b04 0400000A 		beq	.L101
 796 0b08 010052E3 		cmp	r2, #1
 797 0b0c C201001A 		bne	.L85
 798 0b10 0020A0E3 		mov	r2, #0
 799 0b14 30318DE5 		str	r3, [sp, #304]
 800 0b18 40218DE5 		str	r2, [sp, #320]
 801              	.L101:
 802 0b1c 010054E3 		cmp	r4, #1
 803 0b20 C801000A 		beq	.L82
 804 0b24 E8309DE5 		ldr	r3, [sp, #232]
 805 0b28 042090E5 		ldr	r2, [r0, #4]
 806 0b2c 030052E1 		cmp	r2, r3
 807 0b30 0900000A 		beq	.L104
 808 0b34 010053E3 		cmp	r3, #1
 809 0b38 0030A003 		moveq	r3, #0
 810 0b3c 14218D05 		streq	r2, [sp, #276]
 811 0b40 24318D05 		streq	r3, [sp, #292]
 812 0b44 0400000A 		beq	.L104
 813 0b48 010052E3 		cmp	r2, #1
 814 0b4c B201001A 		bne	.L85
 815 0b50 0020A0E3 		mov	r2, #0
 816 0b54 34318DE5 		str	r3, [sp, #308]
 817 0b58 44218DE5 		str	r2, [sp, #324]
 818              	.L104:
 819 0b5c 020054E3 		cmp	r4, #2
 820 0b60 B801000A 		beq	.L82
 821 0b64 EC309DE5 		ldr	r3, [sp, #236]
 822 0b68 082090E5 		ldr	r2, [r0, #8]
 823 0b6c 030052E1 		cmp	r2, r3
 824 0b70 0900000A 		beq	.L106
 825 0b74 010053E3 		cmp	r3, #1
 826 0b78 0030A003 		moveq	r3, #0
 827 0b7c 18218D05 		streq	r2, [sp, #280]
 828 0b80 28318D05 		streq	r3, [sp, #296]
 829 0b84 0400000A 		beq	.L106
 830 0b88 010052E3 		cmp	r2, #1
 831 0b8c A201001A 		bne	.L85
 832 0b90 0020A0E3 		mov	r2, #0
 833 0b94 38318DE5 		str	r3, [sp, #312]
 834 0b98 48218DE5 		str	r2, [sp, #328]
 835              	.L106:
 836 0b9c 030054E3 		cmp	r4, #3
 837 0ba0 A801000A 		beq	.L82
 838 0ba4 F0309DE5 		ldr	r3, [sp, #240]
 839 0ba8 0C2090E5 		ldr	r2, [r0, #12]
 840 0bac 030052E1 		cmp	r2, r3
 841 0bb0 0900000A 		beq	.L109
 842              	.L116:
 843 0bb4 010053E3 		cmp	r3, #1
 844 0bb8 0030A003 		moveq	r3, #0
 845 0bbc 1C218D05 		streq	r2, [sp, #284]
 846 0bc0 2C318D05 		streq	r3, [sp, #300]
 847 0bc4 0400000A 		beq	.L109
 848 0bc8 010052E3 		cmp	r2, #1
 849 0bcc 0020A003 		moveq	r2, #0
 850 0bd0 3C318D05 		streq	r3, [sp, #316]
 851 0bd4 4C218D05 		streq	r2, [sp, #332]
 852 0bd8 8F01001A 		bne	.L85
 853              	.L109:
 854 0bdc 000050E3 		cmp	r0, #0
 855 0be0 D3FEFF0A 		beq	.L188
 856 0be4 FEFFFFEB 		bl	_ZdaPv
 857 0be8 D1FEFFEA 		b	.L188
 858              	.L462:
 859 0bec 080093E5 		ldr	r0, [r3, #8]
 860 0bf0 01C0A0E3 		mov	ip, #1
 861 0bf4 0C2093E5 		ldr	r2, [r3, #12]
 862 0bf8 041093E5 		ldr	r1, [r3, #4]
 863 0bfc 18018DE5 		str	r0, [sp, #280]
 864 0c00 1C218DE5 		str	r2, [sp, #284]
 865 0c04 28218DE5 		str	r2, [sp, #296]
 866 0c08 900202E0 		mul	r2, r0, r2
 867 0c0c 000093E5 		ldr	r0, [r3]
 868 0c10 14118DE5 		str	r1, [sp, #276]
 869 0c14 2CC18DE5 		str	ip, [sp, #300]
 870 0c18 910201E0 		mul	r1, r1, r2
 871 0c1c 24218DE5 		str	r2, [sp, #292]
 872 0c20 10018DE5 		str	r0, [sp, #272]
 873 0c24 20118DE5 		str	r1, [sp, #288]
 874 0c28 7CFEFFEA 		b	.L75
 875              	.L11:
 876 0c2c 040040E2 		sub	r0, r0, #4
 877 0c30 04C047E2 		sub	ip, r7, #4
 878 0c34 0020A0E3 		mov	r2, #0
 879 0c38 050000EA 		b	.L17
 880              	.L15:
 881 0c3c 04E0B0E5 		ldr	lr, [r0, #4]!
 882 0c40 0E0056E1 		cmp	r6, lr
 883 0c44 5001001A 		bne	.L13
 884 0c48 012082E2 		add	r2, r2, #1
 885 0c4c 020053E1 		cmp	r3, r2
 886 0c50 43FDFF0A 		beq	.L14
 887              	.L17:
 888 0c54 020058E1 		cmp	r8, r2
 889 0c58 0460BCE5 		ldr	r6, [ip, #4]!
 890 0c5c F6FFFFCA 		bgt	.L15
 891              	.L12:
 892              	.LEHB10:
 893 0c60 FEFFFFEB 		bl	abort
 894              	.L19:
 895 0c64 040040E2 		sub	r0, r0, #4
 896 0c68 04C047E2 		sub	ip, r7, #4
 897 0c6c 0020A0E3 		mov	r2, #0
 898 0c70 050000EA 		b	.L24
 899              	.L22:
 900 0c74 04E0B0E5 		ldr	lr, [r0, #4]!
 901 0c78 0E0056E1 		cmp	r6, lr
 902 0c7c 4101001A 		bne	.L20
 903 0c80 012082E2 		add	r2, r2, #1
 904 0c84 020053E1 		cmp	r3, r2
 905 0c88 56FDFF0A 		beq	.L21
 906              	.L24:
 907 0c8c 030052E1 		cmp	r2, r3
 908 0c90 0460BCE5 		ldr	r6, [ip, #4]!
 909 0c94 F6FFFF1A 		bne	.L22
 910 0c98 FEFFFFEB 		bl	abort
 911              	.LEHE10:
 912              	.L456:
 913 0c9c 000050E3 		cmp	r0, #0
 914 0ca0 0120A003 		moveq	r2, #1
 915 0ca4 0060A001 		moveq	r6, r0
 916 0ca8 7BFDFF0A 		beq	.L31
 917 0cac 5AFDFFEA 		b	.L30
 918              	.L212:
 919 0cb0 0000A0E3 		mov	r0, #0
 920              	.L41:
 921 0cb4 00E0D4E7 		ldrb	lr, [r4, r0]	@ zero_extendqisi2
 922 0cb8 01C080E2 		add	ip, r0, #1
 923 0cbc 0060D5E7 		ldrb	r6, [r5, r0]	@ zero_extendqisi2
 924 0cc0 0C0052E1 		cmp	r2, ip
 925 0cc4 06E08EE1 		orr	lr, lr, r6
 926 0cc8 00E0C1E7 		strb	lr, [r1, r0]
 927 0ccc CAFDFFDA 		ble	.L46
 928 0cd0 0C60D4E7 		ldrb	r6, [r4, ip]	@ zero_extendqisi2
 929 0cd4 02E080E2 		add	lr, r0, #2
 930 0cd8 0C70D5E7 		ldrb	r7, [r5, ip]	@ zero_extendqisi2
 931 0cdc 0E0052E1 		cmp	r2, lr
 932 0ce0 076086E1 		orr	r6, r6, r7
 933 0ce4 0C60C1E7 		strb	r6, [r1, ip]
 934 0ce8 C3FDFFDA 		ble	.L46
 935 0cec 0E60D5E7 		ldrb	r6, [r5, lr]	@ zero_extendqisi2
 936 0cf0 03C080E2 		add	ip, r0, #3
 937 0cf4 0E70D4E7 		ldrb	r7, [r4, lr]	@ zero_extendqisi2
 938 0cf8 0C0052E1 		cmp	r2, ip
 939 0cfc 076086E1 		orr	r6, r6, r7
 940 0d00 0E60C1E7 		strb	r6, [r1, lr]
 941 0d04 BCFDFFDA 		ble	.L46
 942 0d08 0C60D4E7 		ldrb	r6, [r4, ip]	@ zero_extendqisi2
 943 0d0c 04E080E2 		add	lr, r0, #4
 944 0d10 0C70D5E7 		ldrb	r7, [r5, ip]	@ zero_extendqisi2
 945 0d14 0E0052E1 		cmp	r2, lr
 946 0d18 076086E1 		orr	r6, r6, r7
 947 0d1c 0C60C1E7 		strb	r6, [r1, ip]
 948 0d20 B5FDFFDA 		ble	.L46
 949 0d24 0E60D5E7 		ldrb	r6, [r5, lr]	@ zero_extendqisi2
 950 0d28 05C080E2 		add	ip, r0, #5
 951 0d2c 0E70D4E7 		ldrb	r7, [r4, lr]	@ zero_extendqisi2
 952 0d30 0C0052E1 		cmp	r2, ip
 953 0d34 076086E1 		orr	r6, r6, r7
 954 0d38 0E60C1E7 		strb	r6, [r1, lr]
 955 0d3c AEFDFFDA 		ble	.L46
 956 0d40 0C60D4E7 		ldrb	r6, [r4, ip]	@ zero_extendqisi2
 957 0d44 06E080E2 		add	lr, r0, #6
 958 0d48 0C70D5E7 		ldrb	r7, [r5, ip]	@ zero_extendqisi2
 959 0d4c 0E0052E1 		cmp	r2, lr
 960 0d50 076086E1 		orr	r6, r6, r7
 961 0d54 0C60C1E7 		strb	r6, [r1, ip]
 962 0d58 A7FDFFDA 		ble	.L46
 963 0d5c 0E60D4E7 		ldrb	r6, [r4, lr]	@ zero_extendqisi2
 964 0d60 07C080E2 		add	ip, r0, #7
 965 0d64 0E70D5E7 		ldrb	r7, [r5, lr]	@ zero_extendqisi2
 966 0d68 0C0052E1 		cmp	r2, ip
 967 0d6c 076086E1 		orr	r6, r6, r7
 968 0d70 0E60C1E7 		strb	r6, [r1, lr]
 969 0d74 A0FDFFDA 		ble	.L46
 970 0d78 0C60D4E7 		ldrb	r6, [r4, ip]	@ zero_extendqisi2
 971 0d7c 08E080E2 		add	lr, r0, #8
 972 0d80 0C70D5E7 		ldrb	r7, [r5, ip]	@ zero_extendqisi2
 973 0d84 0E0052E1 		cmp	r2, lr
 974 0d88 076086E1 		orr	r6, r6, r7
 975 0d8c 0C60C1E7 		strb	r6, [r1, ip]
 976 0d90 99FDFFDA 		ble	.L46
 977 0d94 0E60D5E7 		ldrb	r6, [r5, lr]	@ zero_extendqisi2
 978 0d98 09C080E2 		add	ip, r0, #9
 979 0d9c 0E70D4E7 		ldrb	r7, [r4, lr]	@ zero_extendqisi2
 980 0da0 0C0052E1 		cmp	r2, ip
 981 0da4 076086E1 		orr	r6, r6, r7
 982 0da8 0E60C1E7 		strb	r6, [r1, lr]
 983 0dac 92FDFFDA 		ble	.L46
 984 0db0 0C60D4E7 		ldrb	r6, [r4, ip]	@ zero_extendqisi2
 985 0db4 0AE080E2 		add	lr, r0, #10
 986 0db8 0C70D5E7 		ldrb	r7, [r5, ip]	@ zero_extendqisi2
 987 0dbc 0E0052E1 		cmp	r2, lr
 988 0dc0 076086E1 		orr	r6, r6, r7
 989 0dc4 0C60C1E7 		strb	r6, [r1, ip]
 990 0dc8 8BFDFFDA 		ble	.L46
 991 0dcc 0E60D4E7 		ldrb	r6, [r4, lr]	@ zero_extendqisi2
 992 0dd0 0BC080E2 		add	ip, r0, #11
 993 0dd4 0E70D5E7 		ldrb	r7, [r5, lr]	@ zero_extendqisi2
 994 0dd8 0C0052E1 		cmp	r2, ip
 995 0ddc 076086E1 		orr	r6, r6, r7
 996 0de0 0E60C1E7 		strb	r6, [r1, lr]
 997 0de4 84FDFFDA 		ble	.L46
 998 0de8 0C60D4E7 		ldrb	r6, [r4, ip]	@ zero_extendqisi2
 999 0dec 0CE080E2 		add	lr, r0, #12
 1000 0df0 0C70D5E7 		ldrb	r7, [r5, ip]	@ zero_extendqisi2
 1001 0df4 0E0052E1 		cmp	r2, lr
 1002 0df8 076086E1 		orr	r6, r6, r7
 1003 0dfc 0C60C1E7 		strb	r6, [r1, ip]
 1004 0e00 7DFDFFDA 		ble	.L46
 1005 0e04 0E60D4E7 		ldrb	r6, [r4, lr]	@ zero_extendqisi2
 1006 0e08 0DC080E2 		add	ip, r0, #13
 1007 0e0c 0E70D5E7 		ldrb	r7, [r5, lr]	@ zero_extendqisi2
 1008 0e10 0C0052E1 		cmp	r2, ip
 1009 0e14 076086E1 		orr	r6, r6, r7
 1010 0e18 0E60C1E7 		strb	r6, [r1, lr]
 1011 0e1c 76FDFFDA 		ble	.L46
 1012 0e20 0CE0D5E7 		ldrb	lr, [r5, ip]	@ zero_extendqisi2
 1013 0e24 0E0080E2 		add	r0, r0, #14
 1014 0e28 0C60D4E7 		ldrb	r6, [r4, ip]	@ zero_extendqisi2
 1015 0e2c 020050E1 		cmp	r0, r2
 1016 0e30 06208EE1 		orr	r2, lr, r6
 1017 0e34 0C20C1E7 		strb	r2, [r1, ip]
 1018 0e38 0020D5B7 		ldrblt	r2, [r5, r0]	@ zero_extendqisi2
 1019 0e3c 00C0D4B7 		ldrblt	ip, [r4, r0]	@ zero_extendqisi2
 1020 0e40 0C2082B1 		orrlt	r2, r2, ip
 1021 0e44 0020C1B7 		strblt	r2, [r1, r0]
 1022 0e48 6BFDFFEA 		b	.L46
 1023              	.L40:
 1024 0e4c 014044E2 		sub	r4, r4, #1
 1025 0e50 015045E2 		sub	r5, r5, #1
 1026 0e54 011041E2 		sub	r1, r1, #1
 1027              	.L48:
 1028 0e58 01C0F5E5 		ldrb	ip, [r5, #1]!	@ zero_extendqisi2
 1029 0e5c 010080E2 		add	r0, r0, #1
 1030 0e60 01E0F4E5 		ldrb	lr, [r4, #1]!	@ zero_extendqisi2
 1031 0e64 000052E1 		cmp	r2, r0
 1032 0e68 0EC08CE1 		orr	ip, ip, lr
 1033 0e6c 01C0E1E5 		strb	ip, [r1, #1]!
 1034 0e70 F8FFFFCA 		bgt	.L48
 1035 0e74 60FDFFEA 		b	.L46
 1036              	.L466:
 1037 0e78 001093E5 		ldr	r1, [r3]
 1038 0e7c 002090E5 		ldr	r2, [r0]
 1039 0e80 020051E1 		cmp	r1, r2
 1040 0e84 0600000A 		beq	.L110
 1041 0e88 010051E3 		cmp	r1, #1
 1042 0e8c 5800000A 		beq	.L111
 1043 0e90 010052E3 		cmp	r2, #1
 1044 0e94 E000001A 		bne	.L85
 1045 0e98 0020A0E3 		mov	r2, #0
 1046 0e9c 30118DE5 		str	r1, [sp, #304]
 1047 0ea0 40218DE5 		str	r2, [sp, #320]
 1048              	.L110:
 1049 0ea4 041093E5 		ldr	r1, [r3, #4]
 1050 0ea8 042090E5 		ldr	r2, [r0, #4]
 1051 0eac 020051E1 		cmp	r1, r2
 1052 0eb0 0600000A 		beq	.L112
 1053 0eb4 010051E3 		cmp	r1, #1
 1054 0eb8 4500000A 		beq	.L113
 1055 0ebc 010052E3 		cmp	r2, #1
 1056 0ec0 D500001A 		bne	.L85
 1057 0ec4 0020A0E3 		mov	r2, #0
 1058 0ec8 34118DE5 		str	r1, [sp, #308]
 1059 0ecc 44218DE5 		str	r2, [sp, #324]
 1060              	.L112:
 1061 0ed0 081093E5 		ldr	r1, [r3, #8]
 1062 0ed4 082090E5 		ldr	r2, [r0, #8]
 1063 0ed8 020051E1 		cmp	r1, r2
 1064 0edc 0600000A 		beq	.L114
 1065 0ee0 010051E3 		cmp	r1, #1
 1066 0ee4 3E00000A 		beq	.L115
 1067 0ee8 010052E3 		cmp	r2, #1
 1068 0eec CA00001A 		bne	.L85
 1069 0ef0 0020A0E3 		mov	r2, #0
 1070 0ef4 38118DE5 		str	r1, [sp, #312]
 1071 0ef8 48218DE5 		str	r2, [sp, #328]
 1072              	.L114:
 1073 0efc 0C3093E5 		ldr	r3, [r3, #12]
 1074 0f00 0C2090E5 		ldr	r2, [r0, #12]
 1075 0f04 020053E1 		cmp	r3, r2
 1076 0f08 29FFFF1A 		bne	.L116
 1077 0f0c 32FFFFEA 		b	.L109
 1078              	.L100:
 1079 0f10 0030A0E3 		mov	r3, #0
 1080 0f14 1C218DE5 		str	r2, [sp, #284]
 1081 0f18 2C318DE5 		str	r3, [sp, #300]
 1082 0f1c 04FEFFEA 		b	.L188
 1083              	.L222:
 1084              	.L171:
 1085 0f20 B0309DE5 		ldr	r3, [sp, #176]
 1086 0f24 050053E3 		cmp	r3, #5
 1087 0f28 030000DA 		ble	.L181
 1088 0f2c B4009DE5 		ldr	r0, [sp, #180]
 1089 0f30 000050E3 		cmp	r0, #0
 1090 0f34 0000000A 		beq	.L181
 1091 0f38 FEFFFFEB 		bl	_ZdaPv
 1092              	.L181:
 1093 0f3c 98309DE5 		ldr	r3, [sp, #152]
 1094 0f40 050053E3 		cmp	r3, #5
 1095 0f44 030000DA 		ble	.L183
 1096 0f48 9C009DE5 		ldr	r0, [sp, #156]
 1097 0f4c 000050E3 		cmp	r0, #0
 1098 0f50 0000000A 		beq	.L183
 1099 0f54 FEFFFFEB 		bl	_ZdaPv
 1100              	.L183:
 1101 0f58 80309DE5 		ldr	r3, [sp, #128]
 1102 0f5c 050053E3 		cmp	r3, #5
 1103 0f60 030000DA 		ble	.L184
 1104 0f64 84009DE5 		ldr	r0, [sp, #132]
 1105 0f68 000050E3 		cmp	r0, #0
 1106 0f6c 0000000A 		beq	.L184
 1107              	.L402:
 1108 0f70 FEFFFFEB 		bl	_ZdaPv
 1109              	.L184:
 1110              	.LEHB11:
 1111 0f74 FEFFFFEB 		bl	__cxa_end_cleanup
 1112              	.LEHE11:
 1113              	.L225:
 1114              	.L126:
 1115 0f78 C8909DE5 		ldr	r9, [sp, #200]
 1116              	.L67:
 1117 0f7c 050059E3 		cmp	r9, #5
 1118 0f80 E6FFFFDA 		ble	.L171
 1119 0f84 CC009DE5 		ldr	r0, [sp, #204]
 1120 0f88 000050E3 		cmp	r0, #0
 1121 0f8c E3FFFF0A 		beq	.L171
 1122 0f90 FEFFFFEB 		bl	_ZdaPv
 1123 0f94 E1FFFFEA 		b	.L171
 1124              	.L226:
 1125 0f98 E0409DE5 		ldr	r4, [sp, #224]
 1126              	.L72:
 1127 0f9c 050054E3 		cmp	r4, #5
 1128 0fa0 F4FFFFDA 		ble	.L126
 1129 0fa4 E4009DE5 		ldr	r0, [sp, #228]
 1130 0fa8 000050E3 		cmp	r0, #0
 1131 0fac F1FFFF0A 		beq	.L126
 1132 0fb0 FEFFFFEB 		bl	_ZdaPv
 1133 0fb4 EFFFFFEA 		b	.L126
 1134              	.L202:
 1135 0fb8 0120A0E3 		mov	r2, #1
 1136 0fbc E1FCFFEA 		b	.L27
 1137              	.L455:
 1138 0fc0 30219DE5 		ldr	r2, [sp, #304]
 1139 0fc4 020053E1 		cmp	r3, r2
 1140 0fc8 88FCFF0A 		beq	.L25
 1141              	.L185:
 1142              	.LEHB12:
 1143 0fcc FEFFFFEB 		bl	abort
 1144              	.LEHE12:
 1145              	.L223:
 1146 0fd0 E9FFFFEA 		b	.L67
 1147              	.L113:
 1148 0fd4 0010A0E3 		mov	r1, #0
 1149 0fd8 14218DE5 		str	r2, [sp, #276]
 1150 0fdc 24118DE5 		str	r1, [sp, #292]
 1151 0fe0 BAFFFFEA 		b	.L112
 1152              	.L115:
 1153 0fe4 0010A0E3 		mov	r1, #0
 1154 0fe8 18218DE5 		str	r2, [sp, #280]
 1155 0fec 28118DE5 		str	r1, [sp, #296]
 1156 0ff0 C1FFFFEA 		b	.L114
 1157              	.L111:
 1158 0ff4 0010A0E3 		mov	r1, #0
 1159 0ff8 10218DE5 		str	r2, [sp, #272]
 1160 0ffc 20118DE5 		str	r1, [sp, #288]
 1161 1000 A7FFFFEA 		b	.L110
 1162              	.L219:
 1163 1004 30319DE5 		ldr	r3, [sp, #304]
 1164 1008 050053E3 		cmp	r3, #5
 1165 100c 030000DA 		ble	.L176
 1166 1010 34019DE5 		ldr	r0, [sp, #308]
 1167 1014 000050E3 		cmp	r0, #0
 1168 1018 0000000A 		beq	.L176
 1169 101c FEFFFFEB 		bl	_ZdaPv
 1170              	.L176:
 1171 1020 10319DE5 		ldr	r3, [sp, #272]
 1172 1024 050053E3 		cmp	r3, #5
 1173 1028 030000DA 		ble	.L178
 1174 102c 14019DE5 		ldr	r0, [sp, #276]
 1175 1030 000050E3 		cmp	r0, #0
 1176 1034 0000000A 		beq	.L178
 1177 1038 FEFFFFEB 		bl	_ZdaPv
 1178              	.L178:
 1179 103c F8309DE5 		ldr	r3, [sp, #248]
 1180 1040 050053E3 		cmp	r3, #5
 1181 1044 CAFFFFDA 		ble	.L184
 1182 1048 FC009DE5 		ldr	r0, [sp, #252]
 1183 104c 000050E3 		cmp	r0, #0
 1184 1050 C6FFFF1A 		bne	.L402
 1185 1054 C6FFFFEA 		b	.L184
 1186              	.L84:
 1187 1058 0030A0E3 		mov	r3, #0
 1188 105c 10018DE5 		str	r0, [sp, #272]
 1189 1060 20318DE5 		str	r3, [sp, #288]
 1190 1064 8EFDFFEA 		b	.L83
 1191              	.L88:
 1192 1068 0030A0E3 		mov	r3, #0
 1193 106c 18118DE5 		str	r1, [sp, #280]
 1194 1070 28318DE5 		str	r3, [sp, #296]
 1195 1074 A2FDFFEA 		b	.L89
 1196              	.L86:
 1197 1078 0030A0E3 		mov	r3, #0
 1198 107c 14C18DE5 		str	ip, [sp, #276]
 1199 1080 24318DE5 		str	r3, [sp, #292]
 1200 1084 92FDFFEA 		b	.L87
 1201              	.L158:
 1202              	.LEHB13:
 1203 1088 FEFFFFEB 		bl	abort
 1204              	.L151:
 1205 108c FEFFFFEB 		bl	abort
 1206              	.L149:
 1207 1090 FEFFFFEB 		bl	abort
 1208              	.L148:
 1209 1094 FEFFFFEB 		bl	abort
 1210              	.L147:
 1211 1098 FEFFFFEB 		bl	abort
 1212              	.L146:
 1213 109c FEFFFFEB 		bl	abort
 1214              	.L145:
 1215 10a0 FEFFFFEB 		bl	abort
 1216              	.L144:
 1217 10a4 FEFFFFEB 		bl	abort
 1218              	.LEHE13:
 1219              	.L136:
 1220 10a8 50309DE5 		ldr	r3, [sp, #80]
 1221 10ac 014084E2 		add	r4, r4, #1
 1222 10b0 68209DE5 		ldr	r2, [sp, #104]
 1223 10b4 023083E0 		add	r3, r3, r2
 1224 10b8 6C209DE5 		ldr	r2, [sp, #108]
 1225 10bc 50308DE5 		str	r3, [sp, #80]
 1226 10c0 54309DE5 		ldr	r3, [sp, #84]
 1227 10c4 023083E0 		add	r3, r3, r2
 1228 10c8 70209DE5 		ldr	r2, [sp, #112]
 1229 10cc 54308DE5 		str	r3, [sp, #84]
 1230 10d0 58309DE5 		ldr	r3, [sp, #88]
 1231 10d4 023083E0 		add	r3, r3, r2
 1232 10d8 58308DE5 		str	r3, [sp, #88]
 1233 10dc E2FDFFEA 		b	.L130
 1234              	.L137:
 1235              	.LEHB14:
 1236 10e0 FEFFFFEB 		bl	abort
 1237              	.LEHE14:
 1238              	.L132:
 1239 10e4 5C309DE5 		ldr	r3, [sp, #92]
 1240 10e8 018088E2 		add	r8, r8, #1
 1241 10ec 74209DE5 		ldr	r2, [sp, #116]
 1242 10f0 023083E0 		add	r3, r3, r2
 1243 10f4 78209DE5 		ldr	r2, [sp, #120]
 1244 10f8 5C308DE5 		str	r3, [sp, #92]
 1245 10fc 60309DE5 		ldr	r3, [sp, #96]
 1246 1100 023083E0 		add	r3, r3, r2
 1247 1104 7C209DE5 		ldr	r2, [sp, #124]
 1248 1108 60308DE5 		str	r3, [sp, #96]
 1249 110c 64309DE5 		ldr	r3, [sp, #100]
 1250 1110 023083E0 		add	r3, r3, r2
 1251 1114 64308DE5 		str	r3, [sp, #100]
 1252 1118 C5FDFFEA 		b	.L122
 1253              	.L128:
 1254 111c 050059E3 		cmp	r9, #5
 1255 1120 030000DA 		ble	.L167
 1256 1124 00005AE3 		cmp	r10, #0
 1257 1128 0100000A 		beq	.L167
 1258 112c 0A00A0E1 		mov	r0, r10
 1259 1130 FEFFFFEB 		bl	_ZdaPv
 1260              	.L167:
 1261 1134 B0309DE5 		ldr	r3, [sp, #176]
 1262 1138 050053E3 		cmp	r3, #5
 1263 113c 030000DA 		ble	.L169
 1264 1140 B4009DE5 		ldr	r0, [sp, #180]
 1265 1144 000050E3 		cmp	r0, #0
 1266 1148 0000000A 		beq	.L169
 1267 114c FEFFFFEB 		bl	_ZdaPv
 1268              	.L169:
 1269 1150 98309DE5 		ldr	r3, [sp, #152]
 1270 1154 050053E3 		cmp	r3, #5
 1271 1158 030000DA 		ble	.L172
 1272 115c 9C009DE5 		ldr	r0, [sp, #156]
 1273 1160 000050E3 		cmp	r0, #0
 1274 1164 0000000A 		beq	.L172
 1275 1168 FEFFFFEB 		bl	_ZdaPv
 1276              	.L172:
 1277 116c 80309DE5 		ldr	r3, [sp, #128]
 1278 1170 050053E3 		cmp	r3, #5
 1279 1174 B4FCFFDA 		ble	.L308
 1280 1178 84009DE5 		ldr	r0, [sp, #132]
 1281 117c 000050E3 		cmp	r0, #0
 1282 1180 B0FCFF1A 		bne	.L392
 1283 1184 B0FCFFEA 		b	.L308
 1284              	.L20:
 1285              	.LEHB15:
 1286 1188 FEFFFFEB 		bl	abort
 1287              	.L13:
 1288 118c FEFFFFEB 		bl	abort
 1289              	.LEHE15:
 1290              	.L460:
 1291              	.LEHB16:
 1292 1190 FEFFFFEB 		bl	abort
 1293              	.L459:
 1294 1194 FEFFFFEB 		bl	abort
 1295              	.LEHE16:
 1296              	.L217:
 1297 1198 A7FFFFEA 		b	.L178
 1298              	.L453:
 1299              	.LEHB17:
 1300 119c FEFFFFEB 		bl	abort
 1301              	.LEHE17:
 1302              	.L461:
 1303              	.LEHB18:
 1304 11a0 FEFFFFEB 		bl	abort
 1305              	.LEHE18:
 1306              	.L8:
 1307              	.LEHB19:
 1308 11a4 FEFFFFEB 		bl	abort
 1309              	.LEHE19:
 1310              	.L218:
 1311 11a8 9CFFFFEA 		b	.L176
 1312              	.L3:
 1313              	.LEHB20:
 1314 11ac FEFFFFEB 		bl	abort
 1315              	.LEHE20:
 1316              	.L129:
 1317              	.LEHB21:
 1318 11b0 FEFFFFEB 		bl	abort
 1319              	.LEHE21:
 1320              	.L454:
 1321              	.LEHB22:
 1322 11b4 FEFFFFEB 		bl	abort
 1323              	.LEHE22:
 1324              	.L458:
 1325              	.LEHB23:
 1326 11b8 FEFFFFEB 		bl	abort
 1327              	.LEHE23:
 1328              	.L442:
 1329 11bc 00005BE3 		cmp	fp, #0
 1330 11c0 F7FDFFDA 		ble	.L142
 1331 11c4 040059E3 		cmp	r9, #4
 1332 11c8 32FEFF1A 		bne	.L143
 1333 11cc 08005AE1 		cmp	r10, r8
 1334 11d0 B3FFFFDA 		ble	.L144
 1335 11d4 08309DE5 		ldr	r3, [sp, #8]
 1336 11d8 040053E1 		cmp	r3, r4
 1337 11dc AFFFFFDA 		ble	.L145
 1338 11e0 0E0057E1 		cmp	r7, lr
 1339 11e4 ACFFFFDA 		ble	.L146
 1340 11e8 0C309DE5 		ldr	r3, [sp, #12]
 1341 11ec 080053E1 		cmp	r3, r8
 1342 11f0 A8FFFFDA 		ble	.L147
 1343 11f4 10309DE5 		ldr	r3, [sp, #16]
 1344 11f8 040053E1 		cmp	r3, r4
 1345 11fc A4FFFFDA 		ble	.L148
 1346 1200 14309DE5 		ldr	r3, [sp, #20]
 1347 1204 0E0053E1 		cmp	r3, lr
 1348 1208 A0FFFFDA 		ble	.L149
 1349 120c 18309DE5 		ldr	r3, [sp, #24]
 1350 1210 000053E3 		cmp	r3, #0
 1351 1214 9CFFFFDA 		ble	.L151
 1352              	.LEHB24:
 1353 1218 FEFFFFEB 		bl	abort
 1354              	.LEHE24:
 1355              	.L85:
 1356              	.LEHB25:
 1357 121c FEFFFFEB 		bl	abort
 1358              	.LEHE25:
 1359              	.L133:
 1360              	.LEHB26:
 1361 1220 FEFFFFEB 		bl	abort
 1362              	.LEHE26:
 1363              	.L224:
 1364              	.L124:
 1365 1224 050056E3 		cmp	r6, #5
 1366 1228 5BFFFFDA 		ble	.L72
 1367 122c FC009DE5 		ldr	r0, [sp, #252]
 1368 1230 000050E3 		cmp	r0, #0
 1369 1234 58FFFF0A 		beq	.L72
 1370 1238 FEFFFFEB 		bl	_ZdaPv
 1371 123c 56FFFFEA 		b	.L72
 1372              	.L220:
 1373 1240 44FFFFEA 		b	.L183
 1374              	.L457:
 1375              	.LEHB27:
 1376 1244 FEFFFFEB 		bl	abort
 1377              	.LEHE27:
 1378              	.L82:
 1379              	.LEHB28:
 1380 1248 FEFFFFEB 		bl	abort
 1381              	.LEHE28:
 1382              	.L121:
 1383              	.LEHB29:
 1384 124c FEFFFFEB 		bl	abort
 1385              	.LEHE29:
 1386              	.L446:
 1387 1250 080053E1 		cmp	r3, r8
 1388 1254 D8FFFFDA 		ble	.L442
 1389 1258 00005BE3 		cmp	fp, #0
 1390 125c D0FDFFDA 		ble	.L142
 1391 1260 040059E3 		cmp	r9, #4
 1392 1264 0BFEFF1A 		bne	.L143
 1393 1268 08005AE1 		cmp	r10, r8
 1394 126c 8CFFFFDA 		ble	.L144
 1395 1270 08309DE5 		ldr	r3, [sp, #8]
 1396 1274 040053E1 		cmp	r3, r4
 1397 1278 88FFFFDA 		ble	.L145
 1398 127c 0E0057E1 		cmp	r7, lr
 1399 1280 85FFFFDA 		ble	.L146
 1400 1284 0C309DE5 		ldr	r3, [sp, #12]
 1401 1288 080053E1 		cmp	r3, r8
 1402 128c 81FFFFDA 		ble	.L147
 1403 1290 10309DE5 		ldr	r3, [sp, #16]
 1404 1294 040053E1 		cmp	r3, r4
 1405 1298 7DFFFFDA 		ble	.L148
 1406 129c 14309DE5 		ldr	r3, [sp, #20]
 1407 12a0 0E0053E1 		cmp	r3, lr
 1408 12a4 79FFFFDA 		ble	.L149
 1409 12a8 18309DE5 		ldr	r3, [sp, #24]
 1410 12ac 000053E3 		cmp	r3, #0
 1411 12b0 75FFFFDA 		ble	.L151
 1412              	.LEHB30:
 1413 12b4 FEFFFFEB 		bl	abort
 1414              	.L464:
 1415 12b8 040053E1 		cmp	r3, r4
 1416 12bc 3C309DE5 		ldr	r3, [sp, #60]
 1417 12c0 E2FFFFDA 		ble	.L446
 1418 12c4 080053E1 		cmp	r3, r8
 1419 12c8 BBFFFFDA 		ble	.L442
 1420 12cc 00005BE3 		cmp	fp, #0
 1421 12d0 B3FDFFDA 		ble	.L142
 1422 12d4 040059E3 		cmp	r9, #4
 1423 12d8 EEFDFF1A 		bne	.L143
 1424 12dc 08005AE1 		cmp	r10, r8
 1425 12e0 6FFFFFDA 		ble	.L144
 1426 12e4 08309DE5 		ldr	r3, [sp, #8]
 1427 12e8 040053E1 		cmp	r3, r4
 1428 12ec 6BFFFFDA 		ble	.L145
 1429 12f0 0E0057E1 		cmp	r7, lr
 1430 12f4 68FFFFDA 		ble	.L146
 1431 12f8 0C309DE5 		ldr	r3, [sp, #12]
 1432 12fc 080053E1 		cmp	r3, r8
 1433 1300 64FFFFDA 		ble	.L147
 1434 1304 10309DE5 		ldr	r3, [sp, #16]
 1435 1308 040053E1 		cmp	r3, r4
 1436 130c 60FFFFDA 		ble	.L148
 1437 1310 14309DE5 		ldr	r3, [sp, #20]
 1438 1314 0E0053E1 		cmp	r3, lr
 1439 1318 5CFFFFDA 		ble	.L149
 1440 131c 18309DE5 		ldr	r3, [sp, #24]
 1441 1320 000053E3 		cmp	r3, #0
 1442 1324 58FFFFDA 		ble	.L151
 1443 1328 FEFFFFEB 		bl	abort
 1444              	.LEHE30:
 1445              	.L221:
 1446 132c 02FFFFEA 		b	.L181
 1447              	.L74:
 1448              	.LEHB31:
 1449 1330 FEFFFFEB 		bl	abort
 1450              	.LEHE31:
 1451              	.L77:
 1452              	.LEHB32:
 1453 1334 FEFFFFEB 		bl	abort
 1454              	.LEHE32:
 1455              	.L227:
 1456 1338 F8609DE5 		ldr	r6, [sp, #248]
 1457 133c B8FFFFEA 		b	.L124
 1458              		.global	__gxx_personality_v0
 1459              		.personality	__gxx_personality_v0
 1460              		.handlerdata
 1461              	.LLSDA4155:
 1462 0008 FF       		.byte	0xff
 1463 0009 FF       		.byte	0xff
 1464 000a 01       		.byte	0x1
 1465 000b C101     		.uleb128 .LLSDACSE4155-.LLSDACSB4155
 1466              	.LLSDACSB4155:
 1467 000d 28       		.uleb128 .LEHB0-.LFB4155
 1468 000e 58       		.uleb128 .LEHE0-.LEHB0
 1469 000f 00       		.uleb128 0
 1470 0010 00       		.uleb128 0
 1471 0011 9401     		.uleb128 .LEHB1-.LFB4155
 1472 0013 04       		.uleb128 .LEHE1-.LEHB1
 1473 0014 9823     		.uleb128 .L217-.LFB4155
 1474 0016 00       		.uleb128 0
 1475 0017 AC01     		.uleb128 .LEHB2-.LFB4155
 1476 0019 04       		.uleb128 .LEHE2-.LEHB2
 1477 001a A823     		.uleb128 .L218-.LFB4155
 1478 001c 00       		.uleb128 0
 1479 001d DC08     		.uleb128 .LEHB3-.LFB4155
 1480 001f 04       		.uleb128 .LEHE3-.LEHB3
 1481 0020 00       		.uleb128 0
 1482 0021 00       		.uleb128 0
 1483 0022 F408     		.uleb128 .LEHB4-.LFB4155
 1484 0024 04       		.uleb128 .LEHE4-.LEHB4
 1485 0025 C024     		.uleb128 .L220-.LFB4155
 1486 0027 00       		.uleb128 0
 1487 0028 8C09     		.uleb128 .LEHB5-.LFB4155
 1488 002a 04       		.uleb128 .LEHE5-.LEHB5
 1489 002b AC26     		.uleb128 .L221-.LFB4155
 1490 002d 00       		.uleb128 0
 1491 002e 800A     		.uleb128 .LEHB6-.LFB4155
 1492 0030 04       		.uleb128 .LEHE6-.LEHB6
 1493 0031 A01E     		.uleb128 .L222-.LFB4155
 1494 0033 00       		.uleb128 0
 1495 0034 DC0A     		.uleb128 .LEHB7-.LFB4155
 1496 0036 04       		.uleb128 .LEHE7-.LEHB7
 1497 0037 F81E     		.uleb128 .L225-.LFB4155
 1498 0039 00       		.uleb128 0
 1499 003a B80B     		.uleb128 .LEHB8-.LFB4155
 1500 003c 04       		.uleb128 .LEHE8-.LEHB8
 1501 003d 981F     		.uleb128 .L226-.LFB4155
 1502 003f 00       		.uleb128 0
 1503 0040 9815     		.uleb128 .LEHB9-.LFB4155
 1504 0042 04       		.uleb128 .LEHE9-.LEHB9
 1505 0043 D01F     		.uleb128 .L223-.LFB4155
 1506 0045 00       		.uleb128 0
 1507 0046 E018     		.uleb128 .LEHB10-.LFB4155
 1508 0048 3C       		.uleb128 .LEHE10-.LEHB10
 1509 0049 8420     		.uleb128 .L219-.LFB4155
 1510 004b 00       		.uleb128 0
 1511 004c F41E     		.uleb128 .LEHB11-.LFB4155
 1512 004e 04       		.uleb128 .LEHE11-.LEHB11
 1513 004f 00       		.uleb128 0
 1514 0050 00       		.uleb128 0
 1515 0051 CC1F     		.uleb128 .LEHB12-.LFB4155
 1516 0053 04       		.uleb128 .LEHE12-.LEHB12
 1517 0054 8420     		.uleb128 .L219-.LFB4155
 1518 0056 00       		.uleb128 0
 1519 0057 8821     		.uleb128 .LEHB13-.LFB4155
 1520 0059 20       		.uleb128 .LEHE13-.LEHB13
 1521 005a D01F     		.uleb128 .L223-.LFB4155
 1522 005c 00       		.uleb128 0
 1523 005d E021     		.uleb128 .LEHB14-.LFB4155
 1524 005f 04       		.uleb128 .LEHE14-.LEHB14
 1525 0060 A01E     		.uleb128 .L222-.LFB4155
 1526 0062 00       		.uleb128 0
 1527 0063 8823     		.uleb128 .LEHB15-.LFB4155
 1528 0065 08       		.uleb128 .LEHE15-.LEHB15
 1529 0066 8420     		.uleb128 .L219-.LFB4155
 1530 0068 00       		.uleb128 0
 1531 0069 9023     		.uleb128 .LEHB16-.LFB4155
 1532 006b 08       		.uleb128 .LEHE16-.LEHB16
 1533 006c A01E     		.uleb128 .L222-.LFB4155
 1534 006e 00       		.uleb128 0
 1535 006f 9C23     		.uleb128 .LEHB17-.LFB4155
 1536 0071 04       		.uleb128 .LEHE17-.LEHB17
 1537 0072 9823     		.uleb128 .L217-.LFB4155
 1538 0074 00       		.uleb128 0
 1539 0075 A023     		.uleb128 .LEHB18-.LFB4155
 1540 0077 04       		.uleb128 .LEHE18-.LEHB18
 1541 0078 A01E     		.uleb128 .L222-.LFB4155
 1542 007a 00       		.uleb128 0
 1543 007b A423     		.uleb128 .LEHB19-.LFB4155
 1544 007d 04       		.uleb128 .LEHE19-.LEHB19
 1545 007e 8420     		.uleb128 .L219-.LFB4155
 1546 0080 00       		.uleb128 0
 1547 0081 AC23     		.uleb128 .LEHB20-.LFB4155
 1548 0083 04       		.uleb128 .LEHE20-.LEHB20
 1549 0084 00       		.uleb128 0
 1550 0085 00       		.uleb128 0
 1551 0086 B023     		.uleb128 .LEHB21-.LFB4155
 1552 0088 04       		.uleb128 .LEHE21-.LEHB21
 1553 0089 A01E     		.uleb128 .L222-.LFB4155
 1554 008b 00       		.uleb128 0
 1555 008c B423     		.uleb128 .LEHB22-.LFB4155
 1556 008e 04       		.uleb128 .LEHE22-.LEHB22
 1557 008f A823     		.uleb128 .L218-.LFB4155
 1558 0091 00       		.uleb128 0
 1559 0092 B823     		.uleb128 .LEHB23-.LFB4155
 1560 0094 04       		.uleb128 .LEHE23-.LEHB23
 1561 0095 AC26     		.uleb128 .L221-.LFB4155
 1562 0097 00       		.uleb128 0
 1563 0098 9824     		.uleb128 .LEHB24-.LFB4155
 1564 009a 04       		.uleb128 .LEHE24-.LEHB24
 1565 009b D01F     		.uleb128 .L223-.LFB4155
 1566 009d 00       		.uleb128 0
 1567 009e 9C24     		.uleb128 .LEHB25-.LFB4155
 1568 00a0 04       		.uleb128 .LEHE25-.LEHB25
 1569 00a1 A424     		.uleb128 .L224-.LFB4155
 1570 00a3 00       		.uleb128 0
 1571 00a4 A024     		.uleb128 .LEHB26-.LFB4155
 1572 00a6 04       		.uleb128 .LEHE26-.LEHB26
 1573 00a7 A01E     		.uleb128 .L222-.LFB4155
 1574 00a9 00       		.uleb128 0
 1575 00aa C424     		.uleb128 .LEHB27-.LFB4155
 1576 00ac 04       		.uleb128 .LEHE27-.LEHB27
 1577 00ad C024     		.uleb128 .L220-.LFB4155
 1578 00af 00       		.uleb128 0
 1579 00b0 C824     		.uleb128 .LEHB28-.LFB4155
 1580 00b2 04       		.uleb128 .LEHE28-.LEHB28
 1581 00b3 A424     		.uleb128 .L224-.LFB4155
 1582 00b5 00       		.uleb128 0
 1583 00b6 CC24     		.uleb128 .LEHB29-.LFB4155
 1584 00b8 04       		.uleb128 .LEHE29-.LEHB29
 1585 00b9 A01E     		.uleb128 .L222-.LFB4155
 1586 00bb 00       		.uleb128 0
 1587 00bc B425     		.uleb128 .LEHB30-.LFB4155
 1588 00be 78       		.uleb128 .LEHE30-.LEHB30
 1589 00bf D01F     		.uleb128 .L223-.LFB4155
 1590 00c1 00       		.uleb128 0
 1591 00c2 B026     		.uleb128 .LEHB31-.LFB4155
 1592 00c4 04       		.uleb128 .LEHE31-.LEHB31
 1593 00c5 B826     		.uleb128 .L227-.LFB4155
 1594 00c7 00       		.uleb128 0
 1595 00c8 B426     		.uleb128 .LEHB32-.LFB4155
 1596 00ca 04       		.uleb128 .LEHE32-.LEHB32
 1597 00cb A424     		.uleb128 .L224-.LFB4155
 1598 00cd 00       		.uleb128 0
 1599              	.LLSDACSE4155:
 1600              		.section	.text._ZN6tflite3ops5micro7logical12_GLOBAL__N_113LogicalOrEvalEP13TfLiteContextP10TfLite
 1601              		.fnend
 1603              		.section	.text._ZN6tflite3ops5micro7logical12_GLOBAL__N_114LogicalAndEvalEP13TfLiteContextP10TfLit
 1604              		.align	2
 1605              		.syntax unified
 1606              		.arm
 1607              		.fpu neon
 1609              	_ZN6tflite3ops5micro7logical12_GLOBAL__N_114LogicalAndEvalEP13TfLiteContextP10TfLiteNode:
 1610              		.fnstart
 1611              	.LFB4157:
 1612              		@ args = 0, pretend = 0, frame = 336
 1613              		@ frame_needed = 0, uses_anonymous_args = 0
 1614 0000 F04F2DE9 		push	{r4, r5, r6, r7, r8, r9, r10, fp, lr}
 1615              		.save {r4, r5, r6, r7, r8, r9, r10, fp, lr}
 1616 0004 004050E2 		subs	r4, r0, #0
 1617              		.pad #340
 1618 0008 55DF4DE2 		sub	sp, sp, #340
 1619 000c 6604000A 		beq	.L469
 1620 0010 000051E3 		cmp	r1, #0
 1621 0014 0150A0E1 		mov	r5, r1
 1622 0018 6304000A 		beq	.L469
 1623 001c 002091E5 		ldr	r2, [r1]
 1624 0020 543094E5 		ldr	r3, [r4, #84]
 1625 0024 041092E5 		ldr	r1, [r2, #4]
 1626              	.LEHB33:
 1627 0028 33FF2FE1 		blx	r3
 1628 002c 002095E5 		ldr	r2, [r5]
 1629 0030 0070A0E1 		mov	r7, r0
 1630 0034 543094E5 		ldr	r3, [r4, #84]
 1631 0038 0400A0E1 		mov	r0, r4
 1632 003c 081092E5 		ldr	r1, [r2, #8]
 1633 0040 33FF2FE1 		blx	r3
 1634 0044 042095E5 		ldr	r2, [r5, #4]
 1635 0048 0060A0E1 		mov	r6, r0
 1636 004c 543094E5 		ldr	r3, [r4, #84]
 1637 0050 0400A0E1 		mov	r0, r4
 1638 0054 041092E5 		ldr	r1, [r2, #4]
 1639 0058 33FF2FE1 		blx	r3
 1640 005c 0610A0E1 		mov	r1, r6
 1641 0060 0080A0E1 		mov	r8, r0
 1642 0064 0700A0E1 		mov	r0, r7
 1643 0068 FEFFFFEB 		bl	_ZN6tflite5micro14HaveSameShapesEPK16TfLiteEvalTensorS3_
 1644 006c 000050E3 		cmp	r0, #0
 1645 0070 0710A0E1 		mov	r1, r7
 1646 0074 F700000A 		beq	.L470
 1647 0078 F8008DE2 		add	r0, sp, #248
 1648 007c FEFFFFEB 		bl	_ZN6tflite5micro14GetTensorShapeEPK16TfLiteEvalTensor
 1649              	.LEHE33:
 1650 0080 000057E3 		cmp	r7, #0
 1651 0084 4404000A 		beq	.L918
 1652 0088 0610A0E1 		mov	r1, r6
 1653 008c 110E8DE2 		add	r0, sp, #272
 1654 0090 004097E5 		ldr	r4, [r7]
 1655              	.LEHB34:
 1656 0094 FEFFFFEB 		bl	_ZN6tflite5micro14GetTensorShapeEPK16TfLiteEvalTensor
 1657              	.LEHE34:
 1658 0098 000056E3 		cmp	r6, #0
 1659 009c 4404000A 		beq	.L919
 1660 00a0 0810A0E1 		mov	r1, r8
 1661 00a4 130E8DE2 		add	r0, sp, #304
 1662 00a8 005096E5 		ldr	r5, [r6]
 1663              	.LEHB35:
 1664 00ac FEFFFFEB 		bl	_ZN6tflite5micro14GetTensorShapeEPK16TfLiteEvalTensor
 1665              	.LEHE35:
 1666 00b0 000058E3 		cmp	r8, #0
 1667 00b4 F8309DE5 		ldr	r3, [sp, #248]
 1668 00b8 00109815 		ldrne	r1, [r8]
 1669 00bc 0810A001 		moveq	r1, r8
 1670 00c0 10819DE5 		ldr	r8, [sp, #272]
 1671 00c4 080053E1 		cmp	r3, r8
 1672 00c8 3504001A 		bne	.L474
 1673 00cc 000053E3 		cmp	r3, #0
 1674 00d0 BA0300DA 		ble	.L920
 1675 00d4 050053E3 		cmp	r3, #5
 1676 00d8 FC709DE5 		ldr	r7, [sp, #252]
 1677 00dc 14019DE5 		ldr	r0, [sp, #276]
 1678 00e0 D10200CA 		bgt	.L477
 1679 00e4 000053E3 		cmp	r3, #0
 1680 00e8 DC0200DA 		ble	.L478
 1681 00ec 000057E1 		cmp	r7, r0
 1682 00f0 2504001A 		bne	.L479
 1683 00f4 010053E3 		cmp	r3, #1
 1684 00f8 1900000A 		beq	.L480
 1685 00fc 00019DE5 		ldr	r0, [sp, #256]
 1686 0100 18219DE5 		ldr	r2, [sp, #280]
 1687 0104 020050E1 		cmp	r0, r2
 1688 0108 1F04001A 		bne	.L479
 1689 010c 020053E3 		cmp	r3, #2
 1690 0110 1300000A 		beq	.L480
 1691 0114 04019DE5 		ldr	r0, [sp, #260]
 1692 0118 1C219DE5 		ldr	r2, [sp, #284]
 1693 011c 020050E1 		cmp	r0, r2
 1694 0120 1904001A 		bne	.L479
 1695 0124 030053E3 		cmp	r3, #3
 1696 0128 0D00000A 		beq	.L480
 1697 012c 030058E3 		cmp	r8, #3
 1698 0130 08019DE5 		ldr	r0, [sp, #264]
 1699 0134 C902000A 		beq	.L478
 1700 0138 20219DE5 		ldr	r2, [sp, #288]
 1701 013c 020050E1 		cmp	r0, r2
 1702 0140 1104001A 		bne	.L479
 1703 0144 040053E3 		cmp	r3, #4
 1704 0148 0500000A 		beq	.L480
 1705 014c 040058E3 		cmp	r8, #4
 1706 0150 0C019DE5 		ldr	r0, [sp, #268]
 1707 0154 C102000A 		beq	.L478
 1708 0158 24219DE5 		ldr	r2, [sp, #292]
 1709 015c 020050E1 		cmp	r0, r2
 1710 0160 0904001A 		bne	.L479
 1711              	.L480:
 1712 0164 30219DE5 		ldr	r2, [sp, #304]
 1713 0168 020053E1 		cmp	r3, r2
 1714 016c 9603001A 		bne	.L651
 1715 0170 050053E3 		cmp	r3, #5
 1716 0174 34019DE5 		ldr	r0, [sp, #308]
 1717 0178 B90200CA 		bgt	.L485
 1718 017c FC209DE5 		ldr	r2, [sp, #252]
 1719 0180 020050E1 		cmp	r0, r2
 1720 0184 FF03001A 		bne	.L486
 1721 0188 010053E3 		cmp	r3, #1
 1722 018c 150000DA 		ble	.L487
 1723 0190 00019DE5 		ldr	r0, [sp, #256]
 1724 0194 38219DE5 		ldr	r2, [sp, #312]
 1725 0198 020050E1 		cmp	r0, r2
 1726 019c F903001A 		bne	.L486
 1727 01a0 020053E3 		cmp	r3, #2
 1728 01a4 1300000A 		beq	.L773
 1729 01a8 3C019DE5 		ldr	r0, [sp, #316]
 1730 01ac 04219DE5 		ldr	r2, [sp, #260]
 1731 01b0 020050E1 		cmp	r0, r2
 1732 01b4 F303001A 		bne	.L486
 1733 01b8 030053E3 		cmp	r3, #3
 1734 01bc 0D00000A 		beq	.L773
 1735 01c0 08019DE5 		ldr	r0, [sp, #264]
 1736 01c4 40219DE5 		ldr	r2, [sp, #320]
 1737 01c8 020050E1 		cmp	r0, r2
 1738 01cc ED03001A 		bne	.L486
 1739 01d0 040053E3 		cmp	r3, #4
 1740 01d4 0700000A 		beq	.L773
 1741 01d8 44019DE5 		ldr	r0, [sp, #324]
 1742 01dc 0C219DE5 		ldr	r2, [sp, #268]
 1743 01e0 020050E1 		cmp	r0, r2
 1744 01e4 E703001A 		bne	.L486
 1745              	.L487:
 1746 01e8 050053E3 		cmp	r3, #5
 1747 01ec 020000CA 		bgt	.L492
 1748              	.L491:
 1749 01f0 000053E3 		cmp	r3, #0
 1750 01f4 6F0300DA 		ble	.L668
 1751              	.L773:
 1752 01f8 FC708DE2 		add	r7, sp, #252
 1753              	.L492:
 1754 01fc 5721A0E7 		sbfx	r2, r7, #2, #1
 1755 0200 032002E2 		and	r2, r2, #3
 1756 0204 030052E1 		cmp	r2, r3
 1757 0208 0200A031 		movcc	r0, r2
 1758 020c 0300A021 		movcs	r0, r3
 1759 0210 080053E3 		cmp	r3, #8
 1760 0214 0300A0D1 		movle	r0, r3
 1761 0218 9F0200CA 		bgt	.L921
 1762              	.L496:
 1763 021c 010050E3 		cmp	r0, #1
 1764 0220 002097E5 		ldr	r2, [r7]
 1765 0224 EB01000A 		beq	.L677
 1766 0228 04C097E5 		ldr	ip, [r7, #4]
 1767 022c 020050E3 		cmp	r0, #2
 1768 0230 9C0202E0 		mul	r2, ip, r2
 1769 0234 E701000A 		beq	.L677
 1770 0238 08C097E5 		ldr	ip, [r7, #8]
 1771 023c 030050E3 		cmp	r0, #3
 1772 0240 9C0202E0 		mul	r2, ip, r2
 1773 0244 E301000A 		beq	.L677
 1774 0248 0CC097E5 		ldr	ip, [r7, #12]
 1775 024c 040050E3 		cmp	r0, #4
 1776 0250 9C0202E0 		mul	r2, ip, r2
 1777 0254 DF01000A 		beq	.L677
 1778 0258 10C097E5 		ldr	ip, [r7, #16]
 1779 025c 050050E3 		cmp	r0, #5
 1780 0260 9C0202E0 		mul	r2, ip, r2
 1781 0264 DB01000A 		beq	.L677
 1782 0268 14C097E5 		ldr	ip, [r7, #20]
 1783 026c 060050E3 		cmp	r0, #6
 1784 0270 9C0202E0 		mul	r2, ip, r2
 1785 0274 D701000A 		beq	.L677
 1786 0278 18C097E5 		ldr	ip, [r7, #24]
 1787 027c 070050E3 		cmp	r0, #7
 1788 0280 9C0202E0 		mul	r2, ip, r2
 1789 0284 D301000A 		beq	.L677
 1790 0288 1CC097E5 		ldr	ip, [r7, #28]
 1791 028c 0860A0E3 		mov	r6, #8
 1792 0290 9C0202E0 		mul	r2, ip, r2
 1793              	.L498:
 1794 0294 000053E1 		cmp	r3, r0
 1795 0298 2800000A 		beq	.L499
 1796              	.L497:
 1797 029c 008043E0 		sub	r8, r3, r0
 1798 02a0 01C043E2 		sub	ip, r3, #1
 1799 02a4 04E048E2 		sub	lr, r8, #4
 1800 02a8 00C04CE0 		sub	ip, ip, r0
 1801 02ac 2EE1A0E1 		lsr	lr, lr, #2
 1802 02b0 02005CE3 		cmp	ip, #2
 1803 02b4 01E08EE2 		add	lr, lr, #1
 1804 02b8 0E91A0E1 		lsl	r9, lr, #2
 1805 02bc 1200009A 		bls	.L500
 1806 02c0 000187E0 		add	r0, r7, r0, lsl #2
 1807 02c4 5100C0F2 		vmov.i32	q8, #1  @ v4si
 1808 02c8 00C0A0E3 		mov	ip, #0
 1809              	.L502:
 1810 02cc 01C08CE2 		add	ip, ip, #1
 1811 02d0 DF2A60F4 		vld1.64	{d18-d19}, [r0:64]
 1812 02d4 0C005EE1 		cmp	lr, ip
 1813 02d8 100080E2 		add	r0, r0, #16
 1814 02dc F20960F2 		vmul.i32	q8, q8, q9
 1815 02e0 F9FFFF8A 		bhi	.L502
 1816 02e4 080059E1 		cmp	r9, r8
 1817 02e8 096086E0 		add	r6, r6, r9
 1818 02ec 5020C0F2 		vmov.i32	q9, #0  @ v4si
 1819 02f0 E248F0F2 		vext.32	q10, q8, q9, #2
 1820 02f4 F40960F2 		vmul.i32	q8, q8, q10
 1821 02f8 E224F0F2 		vext.32	q9, q8, q9, #1
 1822 02fc F20960F2 		vmul.i32	q8, q8, q9
 1823 0300 90CB10EE 		vmov.32	ip, d16[0]
 1824 0304 9C0202E0 		mul	r2, ip, r2
 1825 0308 0C00000A 		beq	.L499
 1826              	.L500:
 1827 030c 06C197E7 		ldr	ip, [r7, r6, lsl #2]
 1828 0310 010086E2 		add	r0, r6, #1
 1829 0314 000053E1 		cmp	r3, r0
 1830 0318 0601A0E1 		lsl	r0, r6, #2
 1831 031c 9C0202E0 		mul	r2, ip, r2
 1832 0320 060000DA 		ble	.L499
 1833 0324 000087E0 		add	r0, r7, r0
 1834 0328 02C086E2 		add	ip, r6, #2
 1835 032c 04E090E5 		ldr	lr, [r0, #4]
 1836 0330 0C0053E1 		cmp	r3, ip
 1837 0334 9E0202E0 		mul	r2, lr, r2
 1838 0338 080090C5 		ldrgt	r0, [r0, #8]
 1839 033c 900202C0 		mulgt	r2, r0, r2
 1840              	.L499:
 1841 0340 000052E3 		cmp	r2, #0
 1842 0344 2C0000DA 		ble	.L512
 1843              	.L493:
 1844 0348 100085E2 		add	r0, r5, #16
 1845 034c 106081E2 		add	r6, r1, #16
 1846 0350 10E084E2 		add	lr, r4, #16
 1847 0354 060055E1 		cmp	r5, r6
 1848 0358 00005131 		cmpcc	r1, r0
 1849 035c 0100A023 		movcs	r0, #1
 1850 0360 0000A033 		movcc	r0, #0
 1851 0364 04C085E1 		orr	ip, r5, r4
 1852 0368 060054E1 		cmp	r4, r6
 1853 036c 0E005131 		cmpcc	r1, lr
 1854 0370 01E0A023 		movcs	lr, #1
 1855 0374 00E0A033 		movcc	lr, #0
 1856 0378 0CC081E1 		orr	ip, r1, ip
 1857 037c 0E0000E0 		and	r0, r0, lr
 1858 0380 0F001CE3 		tst	ip, #15
 1859 0384 0000A013 		movne	r0, #0
 1860 0388 01000002 		andeq	r0, r0, #1
 1861 038c 0F0052E3 		cmp	r2, #15
 1862 0390 0000A093 		movls	r0, #0
 1863 0394 01000082 		andhi	r0, r0, #1
 1864 0398 000050E3 		cmp	r0, #0
 1865 039c AA02000A 		beq	.L506
 1866 03a0 10C042E2 		sub	ip, r2, #16
 1867 03a4 0F0052E3 		cmp	r2, #15
 1868 03a8 2CC2A0E1 		lsr	ip, ip, #4
 1869 03ac 01C08CE2 		add	ip, ip, #1
 1870 03b0 0C02A0E1 		lsl	r0, ip, #4
 1871 03b4 3D0200DA 		ble	.L678
 1872 03b8 0480A0E1 		mov	r8, r4
 1873 03bc 0570A0E1 		mov	r7, r5
 1874 03c0 0160A0E1 		mov	r6, r1
 1875 03c4 00E0A0E3 		mov	lr, #0
 1876              	.L509:
 1877 03c8 DF2A68F4 		vld1.64	{d18-d19}, [r8:64]
 1878 03cc 01E08EE2 		add	lr, lr, #1
 1879 03d0 0E005CE1 		cmp	ip, lr
 1880 03d4 108088E2 		add	r8, r8, #16
 1881 03d8 DF0A67F4 		vld1.64	{d16-d17}, [r7:64]
 1882 03dc 106086E2 		add	r6, r6, #16
 1883 03e0 F00142F2 		vand	q8, q9, q8
 1884 03e4 107087E2 		add	r7, r7, #16
 1885 03e8 040B46ED 		vstr	d16, [r6, #-16]
 1886 03ec 021B46ED 		vstr	d17, [r6, #-8]
 1887 03f0 F4FFFF8A 		bhi	.L509
 1888 03f4 000052E1 		cmp	r2, r0
 1889 03f8 2D02001A 		bne	.L507
 1890              	.L512:
 1891 03fc 050053E3 		cmp	r3, #5
 1892 0400 0A0000DA 		ble	.L516
 1893 0404 34019DE5 		ldr	r0, [sp, #308]
 1894 0408 000050E3 		cmp	r0, #0
 1895 040c 0300000A 		beq	.L652
 1896 0410 FEFFFFEB 		bl	_ZdaPv
 1897 0414 10319DE5 		ldr	r3, [sp, #272]
 1898 0418 050053E3 		cmp	r3, #5
 1899 041c 030000DA 		ble	.L516
 1900              	.L652:
 1901 0420 14019DE5 		ldr	r0, [sp, #276]
 1902 0424 000050E3 		cmp	r0, #0
 1903 0428 0000000A 		beq	.L516
 1904 042c FEFFFFEB 		bl	_ZdaPv
 1905              	.L516:
 1906 0430 F8309DE5 		ldr	r3, [sp, #248]
 1907 0434 050053E3 		cmp	r3, #5
 1908 0438 030000DA 		ble	.L774
 1909 043c FC009DE5 		ldr	r0, [sp, #252]
 1910 0440 000050E3 		cmp	r0, #0
 1911 0444 0000000A 		beq	.L774
 1912              	.L858:
 1913 0448 FEFFFFEB 		bl	_ZdaPv
 1914              	.L774:
 1915 044c 0000A0E3 		mov	r0, #0
 1916 0450 55DF8DE2 		add	sp, sp, #340
 1917              		@ sp needed
 1918 0454 F08FBDE8 		pop	{r4, r5, r6, r7, r8, r9, r10, fp, pc}
 1919              	.L470:
 1920 0458 80008DE2 		add	r0, sp, #128
 1921              	.LEHB36:
 1922 045c FEFFFFEB 		bl	_ZN6tflite5micro14GetTensorShapeEPK16TfLiteEvalTensor
 1923              	.LEHE36:
 1924 0460 000057E3 		cmp	r7, #0
 1925 0464 7603000A 		beq	.L922
 1926 0468 0610A0E1 		mov	r1, r6
 1927 046c 98008DE2 		add	r0, sp, #152
 1928 0470 007097E5 		ldr	r7, [r7]
 1929              	.LEHB37:
 1930 0474 FEFFFFEB 		bl	_ZN6tflite5micro14GetTensorShapeEPK16TfLiteEvalTensor
 1931              	.LEHE37:
 1932 0478 000056E3 		cmp	r6, #0
 1933 047c 4D03000A 		beq	.L923
 1934 0480 0810A0E1 		mov	r1, r8
 1935 0484 B0008DE2 		add	r0, sp, #176
 1936 0488 005096E5 		ldr	r5, [r6]
 1937              	.LEHB38:
 1938 048c FEFFFFEB 		bl	_ZN6tflite5micro14GetTensorShapeEPK16TfLiteEvalTensor
 1939              	.LEHE38:
 1940 0490 80609DE5 		ldr	r6, [sp, #128]
 1941 0494 000058E3 		cmp	r8, #0
 1942 0498 00809815 		ldrne	r8, [r8]
 1943 049c 040056E3 		cmp	r6, #4
 1944 04a0 3B0300CA 		bgt	.L924
 1945 04a4 98409DE5 		ldr	r4, [sp, #152]
 1946 04a8 040054E3 		cmp	r4, #4
 1947 04ac 370300CA 		bgt	.L925
 1948 04b0 B0209DE5 		ldr	r2, [sp, #176]
 1949 04b4 040052E3 		cmp	r2, #4
 1950 04b8 380300CA 		bgt	.L926
 1951 04bc 040072E2 		rsbs	r0, r2, #4
 1952 04c0 0430A0E3 		mov	r3, #4
 1953 04c4 C8308DE5 		str	r3, [sp, #200]
 1954 04c8 0D00000A 		beq	.L528
 1955 04cc 010050E3 		cmp	r0, #1
 1956 04d0 0130A0E3 		mov	r3, #1
 1957 04d4 CC308DE5 		str	r3, [sp, #204]
 1958 04d8 0900000A 		beq	.L528
 1959 04dc 020050E3 		cmp	r0, #2
 1960 04e0 D0308DE5 		str	r3, [sp, #208]
 1961 04e4 0600000A 		beq	.L528
 1962 04e8 030050E3 		cmp	r0, #3
 1963 04ec D4308DE5 		str	r3, [sp, #212]
 1964 04f0 0300000A 		beq	.L528
 1965 04f4 040050E3 		cmp	r0, #4
 1966 04f8 D8308DE5 		str	r3, [sp, #216]
 1967 04fc 0000000A 		beq	.L528
 1968              	.LEHB39:
 1969 0500 FEFFFFEB 		bl	abort
 1970              	.LEHE39:
 1971              	.L528:
 1972 0504 CC308DE2 		add	r3, sp, #204
 1973 0508 0221A0E1 		lsl	r2, r2, #2
 1974 050c 000183E0 		add	r0, r3, r0, lsl #2
 1975 0510 B4108DE2 		add	r1, sp, #180
 1976 0514 FEFFFFEB 		bl	memcpy
 1977 0518 040076E2 		rsbs	r0, r6, #4
 1978 051c 0430A0E3 		mov	r3, #4
 1979 0520 E0308DE5 		str	r3, [sp, #224]
 1980 0524 0D00000A 		beq	.L526
 1981 0528 010050E3 		cmp	r0, #1
 1982 052c 0130A0E3 		mov	r3, #1
 1983 0530 E4308DE5 		str	r3, [sp, #228]
 1984 0534 0900000A 		beq	.L526
 1985 0538 020050E3 		cmp	r0, #2
 1986 053c E8308DE5 		str	r3, [sp, #232]
 1987 0540 0600000A 		beq	.L526
 1988 0544 030050E3 		cmp	r0, #3
 1989 0548 EC308DE5 		str	r3, [sp, #236]
 1990 054c 0300000A 		beq	.L526
 1991 0550 040050E3 		cmp	r0, #4
 1992 0554 F0308DE5 		str	r3, [sp, #240]
 1993 0558 0000000A 		beq	.L526
 1994              	.LEHB40:
 1995 055c FEFFFFEB 		bl	abort
 1996              	.LEHE40:
 1997              	.L526:
 1998 0560 E4308DE2 		add	r3, sp, #228
 1999 0564 0621A0E1 		lsl	r2, r6, #2
 2000 0568 000183E0 		add	r0, r3, r0, lsl #2
 2001 056c 84108DE2 		add	r1, sp, #132
 2002 0570 FEFFFFEB 		bl	memcpy
 2003 0574 040074E2 		rsbs	r0, r4, #4
 2004 0578 0430A0E3 		mov	r3, #4
 2005 057c F8308DE5 		str	r3, [sp, #248]
 2006 0580 0D00000A 		beq	.L530
 2007 0584 010050E3 		cmp	r0, #1
 2008 0588 0130A0E3 		mov	r3, #1
 2009 058c FC308DE5 		str	r3, [sp, #252]
 2010 0590 0900000A 		beq	.L530
 2011 0594 020050E3 		cmp	r0, #2
 2012 0598 00318DE5 		str	r3, [sp, #256]
 2013 059c 0600000A 		beq	.L530
 2014 05a0 030050E3 		cmp	r0, #3
 2015 05a4 04318DE5 		str	r3, [sp, #260]
 2016 05a8 0300000A 		beq	.L530
 2017 05ac 040050E3 		cmp	r0, #4
 2018 05b0 08318DE5 		str	r3, [sp, #264]
 2019 05b4 0000000A 		beq	.L530
 2020              	.LEHB41:
 2021 05b8 FEFFFFEB 		bl	abort
 2022              	.LEHE41:
 2023              	.L530:
 2024 05bc FC308DE2 		add	r3, sp, #252
 2025 05c0 0421A0E1 		lsl	r2, r4, #2
 2026 05c4 000183E0 		add	r0, r3, r0, lsl #2
 2027 05c8 9C108DE2 		add	r1, sp, #156
 2028 05cc FEFFFFEB 		bl	memcpy
 2029 05d0 E0409DE5 		ldr	r4, [sp, #224]
 2030 05d4 E4309DE5 		ldr	r3, [sp, #228]
 2031 05d8 050054E3 		cmp	r4, #5
 2032 05dc 820100CA 		bgt	.L927
 2033 05e0 030054E3 		cmp	r4, #3
 2034 05e4 510300DA 		ble	.L540
 2035 05e8 F0109DE5 		ldr	r1, [sp, #240]
 2036 05ec 01E0A0E3 		mov	lr, #1
 2037 05f0 ECC09DE5 		ldr	ip, [sp, #236]
 2038 05f4 E8209DE5 		ldr	r2, [sp, #232]
 2039 05f8 10318DE5 		str	r3, [sp, #272]
 2040 05fc 1C118DE5 		str	r1, [sp, #284]
 2041 0600 9C0100E0 		mul	r0, ip, r1
 2042 0604 14218DE5 		str	r2, [sp, #276]
 2043 0608 28118DE5 		str	r1, [sp, #296]
 2044 060c 18C18DE5 		str	ip, [sp, #280]
 2045 0610 2CE18DE5 		str	lr, [sp, #300]
 2046 0614 920002E0 		mul	r2, r2, r0
 2047 0618 24018DE5 		str	r0, [sp, #292]
 2048 061c 20218DE5 		str	r2, [sp, #288]
 2049              	.L541:
 2050 0620 F8609DE5 		ldr	r6, [sp, #248]
 2051 0624 FC009DE5 		ldr	r0, [sp, #252]
 2052 0628 050056E3 		cmp	r6, #5
 2053 062c 1A0100CA 		bgt	.L542
 2054 0630 030056E3 		cmp	r6, #3
 2055 0634 3E0300DA 		ble	.L543
 2056 0638 08219DE5 		ldr	r2, [sp, #264]
 2057 063c 0190A0E3 		mov	r9, #1
 2058 0640 04119DE5 		ldr	r1, [sp, #260]
 2059 0644 050054E3 		cmp	r4, #5
 2060 0648 00C19DE5 		ldr	ip, [sp, #256]
 2061 064c 4C918DE5 		str	r9, [sp, #332]
 2062 0650 30018DE5 		str	r0, [sp, #304]
 2063 0654 91020EE0 		mul	lr, r1, r2
 2064 0658 3C218DE5 		str	r2, [sp, #316]
 2065 065c 48218DE5 		str	r2, [sp, #328]
 2066 0660 38118DE5 		str	r1, [sp, #312]
 2067 0664 34C18DE5 		str	ip, [sp, #308]
 2068 0668 9C0E09E0 		mul	r9, ip, lr
 2069 066c 44E18DE5 		str	lr, [sp, #324]
 2070 0670 40918DE5 		str	r9, [sp, #320]
 2071 0674 D90000CA 		bgt	.L928
 2072 0678 000054E3 		cmp	r4, #0
 2073 067c F10200DA 		ble	.L548
 2074 0680 000053E1 		cmp	r3, r0
 2075 0684 0600000A 		beq	.L549
 2076 0688 010053E3 		cmp	r3, #1
 2077 068c 7102000A 		beq	.L550
 2078 0690 010050E3 		cmp	r0, #1
 2079 0694 E002001A 		bne	.L551
 2080 0698 0000A0E3 		mov	r0, #0
 2081 069c 30318DE5 		str	r3, [sp, #304]
 2082 06a0 40018DE5 		str	r0, [sp, #320]
 2083              	.L549:
 2084 06a4 010054E3 		cmp	r4, #1
 2085 06a8 E602000A 		beq	.L548
 2086 06ac E8309DE5 		ldr	r3, [sp, #232]
 2087 06b0 03005CE1 		cmp	ip, r3
 2088 06b4 0600000A 		beq	.L553
 2089 06b8 010053E3 		cmp	r3, #1
 2090 06bc 6D02000A 		beq	.L552
 2091 06c0 01005CE3 		cmp	ip, #1
 2092 06c4 D402001A 		bne	.L551
 2093 06c8 0000A0E3 		mov	r0, #0
 2094 06cc 34318DE5 		str	r3, [sp, #308]
 2095 06d0 44018DE5 		str	r0, [sp, #324]
 2096              	.L553:
 2097 06d4 020054E3 		cmp	r4, #2
 2098 06d8 DA02000A 		beq	.L548
 2099 06dc EC309DE5 		ldr	r3, [sp, #236]
 2100 06e0 030051E1 		cmp	r1, r3
 2101 06e4 0600000A 		beq	.L555
 2102 06e8 010053E3 		cmp	r3, #1
 2103 06ec 5D02000A 		beq	.L554
 2104 06f0 010051E3 		cmp	r1, #1
 2105 06f4 C802001A 		bne	.L551
 2106 06f8 0010A0E3 		mov	r1, #0
 2107 06fc 38318DE5 		str	r3, [sp, #312]
 2108 0700 48118DE5 		str	r1, [sp, #328]
 2109              	.L555:
 2110 0704 030054E3 		cmp	r4, #3
 2111 0708 CE02000A 		beq	.L548
 2112 070c F0309DE5 		ldr	r3, [sp, #240]
 2113 0710 030052E1 		cmp	r2, r3
 2114 0714 0600000A 		beq	.L654
 2115              	.L869:
 2116 0718 010053E3 		cmp	r3, #1
 2117 071c FB01000A 		beq	.L566
 2118 0720 010052E3 		cmp	r2, #1
 2119 0724 BC02001A 		bne	.L551
 2120 0728 0020A0E3 		mov	r2, #0
 2121 072c 3C318DE5 		str	r3, [sp, #316]
 2122 0730 4C218DE5 		str	r2, [sp, #332]
 2123              	.L654:
 2124 0734 050054E3 		cmp	r4, #5
 2125 0738 030000DA 		ble	.L586
 2126 073c E4009DE5 		ldr	r0, [sp, #228]
 2127 0740 000050E3 		cmp	r0, #0
 2128 0744 0000000A 		beq	.L586
 2129 0748 FEFFFFEB 		bl	_ZdaPv
 2130              	.L586:
 2131 074c C8909DE5 		ldr	r9, [sp, #200]
 2132 0750 000059E3 		cmp	r9, #0
 2133 0754 BC0200DA 		ble	.L587
 2134 0758 D4609DE5 		ldr	r6, [sp, #212]
 2135 075c D0309DE5 		ldr	r3, [sp, #208]
 2136 0760 5C708DE5 		str	r7, [sp, #92]
 2137 0764 D8709DE5 		ldr	r7, [sp, #216]
 2138 0768 08308DE5 		str	r3, [sp, #8]
 2139 076c 960303E0 		mul	r3, r6, r3
 2140 0770 2CB19DE5 		ldr	fp, [sp, #300]
 2141 0774 4C219DE5 		ldr	r2, [sp, #332]
 2142 0778 64808DE5 		str	r8, [sp, #100]
 2143 077c 0080A0E3 		mov	r8, #0
 2144 0780 00106BE2 		rsb	r1, fp, #0
 2145 0784 60508DE5 		str	r5, [sp, #96]
 2146 0788 970303E0 		mul	r3, r7, r3
 2147 078c 28108DE5 		str	r1, [sp, #40]
 2148 0790 10119DE5 		ldr	r1, [sp, #272]
 2149 0794 20208DE5 		str	r2, [sp, #32]
 2150 0798 002062E2 		rsb	r2, r2, #0
 2151 079c 2C208DE5 		str	r2, [sp, #44]
 2152 07a0 7C308DE5 		str	r3, [sp, #124]
 2153 07a4 18319DE5 		ldr	r3, [sp, #280]
 2154 07a8 0C108DE5 		str	r1, [sp, #12]
 2155 07ac 970601E0 		mul	r1, r7, r6
 2156 07b0 14219DE5 		ldr	r2, [sp, #276]
 2157 07b4 14308DE5 		str	r3, [sp, #20]
 2158 07b8 1C319DE5 		ldr	r3, [sp, #284]
 2159 07bc 70108DE5 		str	r1, [sp, #112]
 2160 07c0 0B118BE0 		add	r1, fp, fp, lsl #2
 2161 07c4 CCA09DE5 		ldr	r10, [sp, #204]
 2162 07c8 18308DE5 		str	r3, [sp, #24]
 2163 07cc 24319DE5 		ldr	r3, [sp, #292]
 2164 07d0 24108DE5 		str	r1, [sp, #36]
 2165 07d4 10208DE5 		str	r2, [sp, #16]
 2166 07d8 68308DE5 		str	r3, [sp, #104]
 2167 07dc 28319DE5 		ldr	r3, [sp, #296]
 2168 07e0 48308DE5 		str	r3, [sp, #72]
 2169 07e4 30319DE5 		ldr	r3, [sp, #304]
 2170 07e8 3C308DE5 		str	r3, [sp, #60]
 2171 07ec 34319DE5 		ldr	r3, [sp, #308]
 2172 07f0 40308DE5 		str	r3, [sp, #64]
 2173 07f4 38319DE5 		ldr	r3, [sp, #312]
 2174 07f8 44308DE5 		str	r3, [sp, #68]
 2175 07fc 3C319DE5 		ldr	r3, [sp, #316]
 2176 0800 1C308DE5 		str	r3, [sp, #28]
 2177 0804 44319DE5 		ldr	r3, [sp, #324]
 2178 0808 6C308DE5 		str	r3, [sp, #108]
 2179 080c 48319DE5 		ldr	r3, [sp, #328]
 2180 0810 4C308DE5 		str	r3, [sp, #76]
 2181 0814 20319DE5 		ldr	r3, [sp, #288]
 2182 0818 74308DE5 		str	r3, [sp, #116]
 2183 081c 40319DE5 		ldr	r3, [sp, #320]
 2184 0820 78308DE5 		str	r3, [sp, #120]
 2185 0824 0B30A0E1 		mov	r3, fp
 2186 0828 07B0A0E1 		mov	fp, r7
 2187 082c 0670A0E1 		mov	r7, r6
 2188 0830 0360A0E1 		mov	r6, r3
 2189              	.L588:
 2190 0834 050059E3 		cmp	r9, #5
 2191 0838 00309AC5 		ldrgt	r3, [r10]
 2192 083c 0A30A0D1 		movle	r3, r10
 2193 0840 080053E1 		cmp	r3, r8
 2194 0844 340200DA 		ble	.L594
 2195 0848 010059E3 		cmp	r9, #1
 2196 084c 5702000A 		beq	.L595
 2197 0850 64309DE5 		ldr	r3, [sp, #100]
 2198 0854 0040A0E3 		mov	r4, #0
 2199 0858 58308DE5 		str	r3, [sp, #88]
 2200 085c 60309DE5 		ldr	r3, [sp, #96]
 2201 0860 54308DE5 		str	r3, [sp, #84]
 2202 0864 5C309DE5 		ldr	r3, [sp, #92]
 2203 0868 50308DE5 		str	r3, [sp, #80]
 2204              	.L596:
 2205 086c 050059E3 		cmp	r9, #5
 2206 0870 04309AC5 		ldrgt	r3, [r10, #4]
 2207 0874 08309DD5 		ldrle	r3, [sp, #8]
 2208 0878 040053E1 		cmp	r3, r4
 2209 087c 180200DA 		ble	.L598
 2210 0880 020059E3 		cmp	r9, #2
 2211 0884 6502000A 		beq	.L599
 2212 0888 58309DE5 		ldr	r3, [sp, #88]
 2213 088c 00E0A0E3 		mov	lr, #0
 2214 0890 30308DE5 		str	r3, [sp, #48]
 2215 0894 54309DE5 		ldr	r3, [sp, #84]
 2216 0898 38308DE5 		str	r3, [sp, #56]
 2217 089c 50309DE5 		ldr	r3, [sp, #80]
 2218 08a0 34308DE5 		str	r3, [sp, #52]
 2219              	.L600:
 2220 08a4 050059E3 		cmp	r9, #5
 2221 08a8 08309AC5 		ldrgt	r3, [r10, #8]
 2222 08ac 0730A0D1 		movle	r3, r7
 2223 08b0 0E0053E1 		cmp	r3, lr
 2224 08b4 FB0100DA 		ble	.L602
 2225 08b8 030059E3 		cmp	r9, #3
 2226 08bc 0702000A 		beq	.L603
 2227 08c0 050059E3 		cmp	r9, #5
 2228 08c4 44309DE5 		ldr	r3, [sp, #68]
 2229 08c8 6F0000CA 		bgt	.L604
 2230 08cc 0E0053E1 		cmp	r3, lr
 2231 08d0 40309DE5 		ldr	r3, [sp, #64]
 2232 08d4 770200DA 		ble	.L929
 2233 08d8 040053E1 		cmp	r3, r4
 2234 08dc 3C309DE5 		ldr	r3, [sp, #60]
 2235 08e0 5A0200DA 		ble	.L912
 2236 08e4 080053E1 		cmp	r3, r8
 2237 08e8 330200DA 		ble	.L908
 2238 08ec 30509DE5 		ldr	r5, [sp, #48]
 2239 08f0 0010A0E3 		mov	r1, #0
 2240 08f4 38C09DE5 		ldr	ip, [sp, #56]
 2241 08f8 34009DE5 		ldr	r0, [sp, #52]
 2242 08fc 04508DE5 		str	r5, [sp, #4]
 2243 0900 250000EA 		b	.L625
 2244              	.L930:
 2245 0904 040059E3 		cmp	r9, #4
 2246 0908 6200001A 		bne	.L609
 2247 090c 08005AE1 		cmp	r10, r8
 2248 0910 E30100DA 		ble	.L610
 2249 0914 08309DE5 		ldr	r3, [sp, #8]
 2250 0918 040053E1 		cmp	r3, r4
 2251 091c DF0100DA 		ble	.L611
 2252 0920 0E0057E1 		cmp	r7, lr
 2253 0924 DC0100DA 		ble	.L612
 2254 0928 0C309DE5 		ldr	r3, [sp, #12]
 2255 092c 080053E1 		cmp	r3, r8
 2256 0930 D80100DA 		ble	.L613
 2257 0934 10309DE5 		ldr	r3, [sp, #16]
 2258 0938 040053E1 		cmp	r3, r4
 2259 093c D40100DA 		ble	.L614
 2260 0940 14309DE5 		ldr	r3, [sp, #20]
 2261 0944 0E0053E1 		cmp	r3, lr
 2262 0948 D00100DA 		ble	.L615
 2263 094c 18309DE5 		ldr	r3, [sp, #24]
 2264 0950 010053E1 		cmp	r3, r1
 2265 0954 CC0100DA 		ble	.L617
 2266 0958 1C309DE5 		ldr	r3, [sp, #28]
 2267 095c 060080E0 		add	r0, r0, r6
 2268 0960 010053E1 		cmp	r3, r1
 2269 0964 20309DE5 		ldr	r3, [sp, #32]
 2270 0968 03C08CE0 		add	ip, ip, r3
 2271 096c C50100DA 		ble	.L624
 2272 0970 28309DE5 		ldr	r3, [sp, #40]
 2273 0974 011081E2 		add	r1, r1, #1
 2274 0978 2C209DE5 		ldr	r2, [sp, #44]
 2275 097c 24509DE5 		ldr	r5, [sp, #36]
 2276 0980 0330D0E7 		ldrb	r3, [r0, r3]	@ zero_extendqisi2
 2277 0984 0220DCE7 		ldrb	r2, [ip, r2]	@ zero_extendqisi2
 2278 0988 05F0D0F7 		pld	[r0, r5]
 2279 098c 023003E0 		and	r3, r3, r2
 2280 0990 04209DE5 		ldr	r2, [sp, #4]
 2281 0994 0130C2E4 		strb	r3, [r2], #1
 2282 0998 04208DE5 		str	r2, [sp, #4]
 2283              	.L625:
 2284 099c 01005BE1 		cmp	fp, r1
 2285 09a0 D7FFFFCA 		bgt	.L930
 2286              	.L608:
 2287 09a4 34309DE5 		ldr	r3, [sp, #52]
 2288 09a8 01E08EE2 		add	lr, lr, #1
 2289 09ac 48209DE5 		ldr	r2, [sp, #72]
 2290 09b0 023083E0 		add	r3, r3, r2
 2291 09b4 4C209DE5 		ldr	r2, [sp, #76]
 2292 09b8 34308DE5 		str	r3, [sp, #52]
 2293 09bc 38309DE5 		ldr	r3, [sp, #56]
 2294 09c0 023083E0 		add	r3, r3, r2
 2295 09c4 38308DE5 		str	r3, [sp, #56]
 2296 09c8 30309DE5 		ldr	r3, [sp, #48]
 2297 09cc 0B3083E0 		add	r3, r3, fp
 2298 09d0 30308DE5 		str	r3, [sp, #48]
 2299 09d4 B2FFFFEA 		b	.L600
 2300              	.L677:
 2301 09d8 0060A0E1 		mov	r6, r0
 2302 09dc 2CFEFFEA 		b	.L498
 2303              	.L928:
 2304 09e0 00E093E5 		ldr	lr, [r3]
 2305 09e4 00005EE1 		cmp	lr, r0
 2306 09e8 0900000A 		beq	.L559
 2307 09ec 01005EE3 		cmp	lr, #1
 2308 09f0 00E0A003 		moveq	lr, #0
 2309 09f4 10018D05 		streq	r0, [sp, #272]
 2310 09f8 20E18D05 		streq	lr, [sp, #288]
 2311 09fc 0400000A 		beq	.L559
 2312 0a00 010050E3 		cmp	r0, #1
 2313 0a04 0402001A 		bne	.L551
 2314 0a08 0000A0E3 		mov	r0, #0
 2315 0a0c 30E18DE5 		str	lr, [sp, #304]
 2316 0a10 40018DE5 		str	r0, [sp, #320]
 2317              	.L559:
 2318 0a14 040093E5 		ldr	r0, [r3, #4]
 2319 0a18 0C0050E1 		cmp	r0, ip
 2320 0a1c 0900000A 		beq	.L561
 2321 0a20 010050E3 		cmp	r0, #1
 2322 0a24 0000A003 		moveq	r0, #0
 2323 0a28 14C18D05 		streq	ip, [sp, #276]
 2324 0a2c 24018D05 		streq	r0, [sp, #292]
 2325 0a30 0400000A 		beq	.L561
 2326 0a34 01005CE3 		cmp	ip, #1
 2327 0a38 F701001A 		bne	.L551
 2328 0a3c 00C0A0E3 		mov	ip, #0
 2329 0a40 34018DE5 		str	r0, [sp, #308]
 2330 0a44 44C18DE5 		str	ip, [sp, #324]
 2331              	.L561:
 2332 0a48 080093E5 		ldr	r0, [r3, #8]
 2333 0a4c 010050E1 		cmp	r0, r1
 2334 0a50 0900000A 		beq	.L563
 2335 0a54 010050E3 		cmp	r0, #1
 2336 0a58 0000A003 		moveq	r0, #0
 2337 0a5c 18118D05 		streq	r1, [sp, #280]
 2338 0a60 28018D05 		streq	r0, [sp, #296]
 2339 0a64 0400000A 		beq	.L563
 2340 0a68 010051E3 		cmp	r1, #1
 2341 0a6c EA01001A 		bne	.L551
 2342 0a70 0010A0E3 		mov	r1, #0
 2343 0a74 38018DE5 		str	r0, [sp, #312]
 2344 0a78 48118DE5 		str	r1, [sp, #328]
 2345              	.L563:
 2346 0a7c 0C3093E5 		ldr	r3, [r3, #12]
 2347 0a80 020053E1 		cmp	r3, r2
 2348 0a84 23FFFF1A 		bne	.L869
 2349 0a88 29FFFFEA 		b	.L654
 2350              	.L604:
 2351 0a8c 0C309AE5 		ldr	r3, [r10, #12]
 2352 0a90 000053E3 		cmp	r3, #0
 2353 0a94 C2FFFFDA 		ble	.L608
 2354              	.L609:
 2355              	.LEHB42:
 2356 0a98 FEFFFFEB 		bl	abort
 2357              	.LEHE42:
 2358              	.L542:
 2359 0a9c 08C090E5 		ldr	ip, [r0, #8]
 2360 0aa0 050054E3 		cmp	r4, #5
 2361 0aa4 0C2090E5 		ldr	r2, [r0, #12]
 2362 0aa8 01E0A0E3 		mov	lr, #1
 2363 0aac 041090E5 		ldr	r1, [r0, #4]
 2364 0ab0 38C18DE5 		str	ip, [sp, #312]
 2365 0ab4 3C218DE5 		str	r2, [sp, #316]
 2366 0ab8 48218DE5 		str	r2, [sp, #328]
 2367 0abc 9C0202E0 		mul	r2, ip, r2
 2368 0ac0 00C090E5 		ldr	ip, [r0]
 2369 0ac4 34118DE5 		str	r1, [sp, #308]
 2370 0ac8 4CE18DE5 		str	lr, [sp, #332]
 2371 0acc 910201E0 		mul	r1, r1, r2
 2372 0ad0 44218DE5 		str	r2, [sp, #324]
 2373 0ad4 30C18DE5 		str	ip, [sp, #304]
 2374 0ad8 40118DE5 		str	r1, [sp, #320]
 2375 0adc E50000CA 		bgt	.L931
 2376 0ae0 000054E3 		cmp	r4, #0
 2377 0ae4 D70100DA 		ble	.L548
 2378 0ae8 002090E5 		ldr	r2, [r0]
 2379 0aec 020053E1 		cmp	r3, r2
 2380 0af0 0900000A 		beq	.L567
 2381 0af4 010053E3 		cmp	r3, #1
 2382 0af8 0030A003 		moveq	r3, #0
 2383 0afc 10218D05 		streq	r2, [sp, #272]
 2384 0b00 20318D05 		streq	r3, [sp, #288]
 2385 0b04 0400000A 		beq	.L567
 2386 0b08 010052E3 		cmp	r2, #1
 2387 0b0c C201001A 		bne	.L551
 2388 0b10 0020A0E3 		mov	r2, #0
 2389 0b14 30318DE5 		str	r3, [sp, #304]
 2390 0b18 40218DE5 		str	r2, [sp, #320]
 2391              	.L567:
 2392 0b1c 010054E3 		cmp	r4, #1
 2393 0b20 C801000A 		beq	.L548
 2394 0b24 E8309DE5 		ldr	r3, [sp, #232]
 2395 0b28 042090E5 		ldr	r2, [r0, #4]
 2396 0b2c 030052E1 		cmp	r2, r3
 2397 0b30 0900000A 		beq	.L570
 2398 0b34 010053E3 		cmp	r3, #1
 2399 0b38 0030A003 		moveq	r3, #0
 2400 0b3c 14218D05 		streq	r2, [sp, #276]
 2401 0b40 24318D05 		streq	r3, [sp, #292]
 2402 0b44 0400000A 		beq	.L570
 2403 0b48 010052E3 		cmp	r2, #1
 2404 0b4c B201001A 		bne	.L551
 2405 0b50 0020A0E3 		mov	r2, #0
 2406 0b54 34318DE5 		str	r3, [sp, #308]
 2407 0b58 44218DE5 		str	r2, [sp, #324]
 2408              	.L570:
 2409 0b5c 020054E3 		cmp	r4, #2
 2410 0b60 B801000A 		beq	.L548
 2411 0b64 EC309DE5 		ldr	r3, [sp, #236]
 2412 0b68 082090E5 		ldr	r2, [r0, #8]
 2413 0b6c 030052E1 		cmp	r2, r3
 2414 0b70 0900000A 		beq	.L572
 2415 0b74 010053E3 		cmp	r3, #1
 2416 0b78 0030A003 		moveq	r3, #0
 2417 0b7c 18218D05 		streq	r2, [sp, #280]
 2418 0b80 28318D05 		streq	r3, [sp, #296]
 2419 0b84 0400000A 		beq	.L572
 2420 0b88 010052E3 		cmp	r2, #1
 2421 0b8c A201001A 		bne	.L551
 2422 0b90 0020A0E3 		mov	r2, #0
 2423 0b94 38318DE5 		str	r3, [sp, #312]
 2424 0b98 48218DE5 		str	r2, [sp, #328]
 2425              	.L572:
 2426 0b9c 030054E3 		cmp	r4, #3
 2427 0ba0 A801000A 		beq	.L548
 2428 0ba4 F0309DE5 		ldr	r3, [sp, #240]
 2429 0ba8 0C2090E5 		ldr	r2, [r0, #12]
 2430 0bac 030052E1 		cmp	r2, r3
 2431 0bb0 0900000A 		beq	.L575
 2432              	.L582:
 2433 0bb4 010053E3 		cmp	r3, #1
 2434 0bb8 0030A003 		moveq	r3, #0
 2435 0bbc 1C218D05 		streq	r2, [sp, #284]
 2436 0bc0 2C318D05 		streq	r3, [sp, #300]
 2437 0bc4 0400000A 		beq	.L575
 2438 0bc8 010052E3 		cmp	r2, #1
 2439 0bcc 0020A003 		moveq	r2, #0
 2440 0bd0 3C318D05 		streq	r3, [sp, #316]
 2441 0bd4 4C218D05 		streq	r2, [sp, #332]
 2442 0bd8 8F01001A 		bne	.L551
 2443              	.L575:
 2444 0bdc 000050E3 		cmp	r0, #0
 2445 0be0 D3FEFF0A 		beq	.L654
 2446 0be4 FEFFFFEB 		bl	_ZdaPv
 2447 0be8 D1FEFFEA 		b	.L654
 2448              	.L927:
 2449 0bec 080093E5 		ldr	r0, [r3, #8]
 2450 0bf0 01C0A0E3 		mov	ip, #1
 2451 0bf4 0C2093E5 		ldr	r2, [r3, #12]
 2452 0bf8 041093E5 		ldr	r1, [r3, #4]
 2453 0bfc 18018DE5 		str	r0, [sp, #280]
 2454 0c00 1C218DE5 		str	r2, [sp, #284]
 2455 0c04 28218DE5 		str	r2, [sp, #296]
 2456 0c08 900202E0 		mul	r2, r0, r2
 2457 0c0c 000093E5 		ldr	r0, [r3]
 2458 0c10 14118DE5 		str	r1, [sp, #276]
 2459 0c14 2CC18DE5 		str	ip, [sp, #300]
 2460 0c18 910201E0 		mul	r1, r1, r2
 2461 0c1c 24218DE5 		str	r2, [sp, #292]
 2462 0c20 10018DE5 		str	r0, [sp, #272]
 2463 0c24 20118DE5 		str	r1, [sp, #288]
 2464 0c28 7CFEFFEA 		b	.L541
 2465              	.L477:
 2466 0c2c 040040E2 		sub	r0, r0, #4
 2467 0c30 04C047E2 		sub	ip, r7, #4
 2468 0c34 0020A0E3 		mov	r2, #0
 2469 0c38 050000EA 		b	.L483
 2470              	.L481:
 2471 0c3c 04E0B0E5 		ldr	lr, [r0, #4]!
 2472 0c40 0E0056E1 		cmp	r6, lr
 2473 0c44 5001001A 		bne	.L479
 2474 0c48 012082E2 		add	r2, r2, #1
 2475 0c4c 020053E1 		cmp	r3, r2
 2476 0c50 43FDFF0A 		beq	.L480
 2477              	.L483:
 2478 0c54 020058E1 		cmp	r8, r2
 2479 0c58 0460BCE5 		ldr	r6, [ip, #4]!
 2480 0c5c F6FFFFCA 		bgt	.L481
 2481              	.L478:
 2482              	.LEHB43:
 2483 0c60 FEFFFFEB 		bl	abort
 2484              	.L485:
 2485 0c64 040040E2 		sub	r0, r0, #4
 2486 0c68 04C047E2 		sub	ip, r7, #4
 2487 0c6c 0020A0E3 		mov	r2, #0
 2488 0c70 050000EA 		b	.L490
 2489              	.L488:
 2490 0c74 04E0B0E5 		ldr	lr, [r0, #4]!
 2491 0c78 0E0056E1 		cmp	r6, lr
 2492 0c7c 4101001A 		bne	.L486
 2493 0c80 012082E2 		add	r2, r2, #1
 2494 0c84 020053E1 		cmp	r3, r2
 2495 0c88 56FDFF0A 		beq	.L487
 2496              	.L490:
 2497 0c8c 030052E1 		cmp	r2, r3
 2498 0c90 0460BCE5 		ldr	r6, [ip, #4]!
 2499 0c94 F6FFFF1A 		bne	.L488
 2500 0c98 FEFFFFEB 		bl	abort
 2501              	.LEHE43:
 2502              	.L921:
 2503 0c9c 000050E3 		cmp	r0, #0
 2504 0ca0 0120A003 		moveq	r2, #1
 2505 0ca4 0060A001 		moveq	r6, r0
 2506 0ca8 7BFDFF0A 		beq	.L497
 2507 0cac 5AFDFFEA 		b	.L496
 2508              	.L678:
 2509 0cb0 0000A0E3 		mov	r0, #0
 2510              	.L507:
 2511 0cb4 00E0D4E7 		ldrb	lr, [r4, r0]	@ zero_extendqisi2
 2512 0cb8 01C080E2 		add	ip, r0, #1
 2513 0cbc 0060D5E7 		ldrb	r6, [r5, r0]	@ zero_extendqisi2
 2514 0cc0 0C0052E1 		cmp	r2, ip
 2515 0cc4 06E00EE0 		and	lr, lr, r6
 2516 0cc8 00E0C1E7 		strb	lr, [r1, r0]
 2517 0ccc CAFDFFDA 		ble	.L512
 2518 0cd0 0C60D4E7 		ldrb	r6, [r4, ip]	@ zero_extendqisi2
 2519 0cd4 02E080E2 		add	lr, r0, #2
 2520 0cd8 0C70D5E7 		ldrb	r7, [r5, ip]	@ zero_extendqisi2
 2521 0cdc 0E0052E1 		cmp	r2, lr
 2522 0ce0 076006E0 		and	r6, r6, r7
 2523 0ce4 0C60C1E7 		strb	r6, [r1, ip]
 2524 0ce8 C3FDFFDA 		ble	.L512
 2525 0cec 0E60D5E7 		ldrb	r6, [r5, lr]	@ zero_extendqisi2
 2526 0cf0 03C080E2 		add	ip, r0, #3
 2527 0cf4 0E70D4E7 		ldrb	r7, [r4, lr]	@ zero_extendqisi2
 2528 0cf8 0C0052E1 		cmp	r2, ip
 2529 0cfc 076006E0 		and	r6, r6, r7
 2530 0d00 0E60C1E7 		strb	r6, [r1, lr]
 2531 0d04 BCFDFFDA 		ble	.L512
 2532 0d08 0C60D4E7 		ldrb	r6, [r4, ip]	@ zero_extendqisi2
 2533 0d0c 04E080E2 		add	lr, r0, #4
 2534 0d10 0C70D5E7 		ldrb	r7, [r5, ip]	@ zero_extendqisi2
 2535 0d14 0E0052E1 		cmp	r2, lr
 2536 0d18 076006E0 		and	r6, r6, r7
 2537 0d1c 0C60C1E7 		strb	r6, [r1, ip]
 2538 0d20 B5FDFFDA 		ble	.L512
 2539 0d24 0E60D5E7 		ldrb	r6, [r5, lr]	@ zero_extendqisi2
 2540 0d28 05C080E2 		add	ip, r0, #5
 2541 0d2c 0E70D4E7 		ldrb	r7, [r4, lr]	@ zero_extendqisi2
 2542 0d30 0C0052E1 		cmp	r2, ip
 2543 0d34 076006E0 		and	r6, r6, r7
 2544 0d38 0E60C1E7 		strb	r6, [r1, lr]
 2545 0d3c AEFDFFDA 		ble	.L512
 2546 0d40 0C60D4E7 		ldrb	r6, [r4, ip]	@ zero_extendqisi2
 2547 0d44 06E080E2 		add	lr, r0, #6
 2548 0d48 0C70D5E7 		ldrb	r7, [r5, ip]	@ zero_extendqisi2
 2549 0d4c 0E0052E1 		cmp	r2, lr
 2550 0d50 076006E0 		and	r6, r6, r7
 2551 0d54 0C60C1E7 		strb	r6, [r1, ip]
 2552 0d58 A7FDFFDA 		ble	.L512
 2553 0d5c 0E60D4E7 		ldrb	r6, [r4, lr]	@ zero_extendqisi2
 2554 0d60 07C080E2 		add	ip, r0, #7
 2555 0d64 0E70D5E7 		ldrb	r7, [r5, lr]	@ zero_extendqisi2
 2556 0d68 0C0052E1 		cmp	r2, ip
 2557 0d6c 076006E0 		and	r6, r6, r7
 2558 0d70 0E60C1E7 		strb	r6, [r1, lr]
 2559 0d74 A0FDFFDA 		ble	.L512
 2560 0d78 0C60D4E7 		ldrb	r6, [r4, ip]	@ zero_extendqisi2
 2561 0d7c 08E080E2 		add	lr, r0, #8
 2562 0d80 0C70D5E7 		ldrb	r7, [r5, ip]	@ zero_extendqisi2
 2563 0d84 0E0052E1 		cmp	r2, lr
 2564 0d88 076006E0 		and	r6, r6, r7
 2565 0d8c 0C60C1E7 		strb	r6, [r1, ip]
 2566 0d90 99FDFFDA 		ble	.L512
 2567 0d94 0E60D5E7 		ldrb	r6, [r5, lr]	@ zero_extendqisi2
 2568 0d98 09C080E2 		add	ip, r0, #9
 2569 0d9c 0E70D4E7 		ldrb	r7, [r4, lr]	@ zero_extendqisi2
 2570 0da0 0C0052E1 		cmp	r2, ip
 2571 0da4 076006E0 		and	r6, r6, r7
 2572 0da8 0E60C1E7 		strb	r6, [r1, lr]
 2573 0dac 92FDFFDA 		ble	.L512
 2574 0db0 0C60D4E7 		ldrb	r6, [r4, ip]	@ zero_extendqisi2
 2575 0db4 0AE080E2 		add	lr, r0, #10
 2576 0db8 0C70D5E7 		ldrb	r7, [r5, ip]	@ zero_extendqisi2
 2577 0dbc 0E0052E1 		cmp	r2, lr
 2578 0dc0 076006E0 		and	r6, r6, r7
 2579 0dc4 0C60C1E7 		strb	r6, [r1, ip]
 2580 0dc8 8BFDFFDA 		ble	.L512
 2581 0dcc 0E60D4E7 		ldrb	r6, [r4, lr]	@ zero_extendqisi2
 2582 0dd0 0BC080E2 		add	ip, r0, #11
 2583 0dd4 0E70D5E7 		ldrb	r7, [r5, lr]	@ zero_extendqisi2
 2584 0dd8 0C0052E1 		cmp	r2, ip
 2585 0ddc 076006E0 		and	r6, r6, r7
 2586 0de0 0E60C1E7 		strb	r6, [r1, lr]
 2587 0de4 84FDFFDA 		ble	.L512
 2588 0de8 0C60D4E7 		ldrb	r6, [r4, ip]	@ zero_extendqisi2
 2589 0dec 0CE080E2 		add	lr, r0, #12
 2590 0df0 0C70D5E7 		ldrb	r7, [r5, ip]	@ zero_extendqisi2
 2591 0df4 0E0052E1 		cmp	r2, lr
 2592 0df8 076006E0 		and	r6, r6, r7
 2593 0dfc 0C60C1E7 		strb	r6, [r1, ip]
 2594 0e00 7DFDFFDA 		ble	.L512
 2595 0e04 0E60D4E7 		ldrb	r6, [r4, lr]	@ zero_extendqisi2
 2596 0e08 0DC080E2 		add	ip, r0, #13
 2597 0e0c 0E70D5E7 		ldrb	r7, [r5, lr]	@ zero_extendqisi2
 2598 0e10 0C0052E1 		cmp	r2, ip
 2599 0e14 076006E0 		and	r6, r6, r7
 2600 0e18 0E60C1E7 		strb	r6, [r1, lr]
 2601 0e1c 76FDFFDA 		ble	.L512
 2602 0e20 0CE0D5E7 		ldrb	lr, [r5, ip]	@ zero_extendqisi2
 2603 0e24 0E0080E2 		add	r0, r0, #14
 2604 0e28 0C60D4E7 		ldrb	r6, [r4, ip]	@ zero_extendqisi2
 2605 0e2c 020050E1 		cmp	r0, r2
 2606 0e30 06200EE0 		and	r2, lr, r6
 2607 0e34 0C20C1E7 		strb	r2, [r1, ip]
 2608 0e38 0020D5B7 		ldrblt	r2, [r5, r0]	@ zero_extendqisi2
 2609 0e3c 00C0D4B7 		ldrblt	ip, [r4, r0]	@ zero_extendqisi2
 2610 0e40 0C2002B0 		andlt	r2, r2, ip
 2611 0e44 0020C1B7 		strblt	r2, [r1, r0]
 2612 0e48 6BFDFFEA 		b	.L512
 2613              	.L506:
 2614 0e4c 014044E2 		sub	r4, r4, #1
 2615 0e50 015045E2 		sub	r5, r5, #1
 2616 0e54 011041E2 		sub	r1, r1, #1
 2617              	.L514:
 2618 0e58 01C0F5E5 		ldrb	ip, [r5, #1]!	@ zero_extendqisi2
 2619 0e5c 010080E2 		add	r0, r0, #1
 2620 0e60 01E0F4E5 		ldrb	lr, [r4, #1]!	@ zero_extendqisi2
 2621 0e64 000052E1 		cmp	r2, r0
 2622 0e68 0EC00CE0 		and	ip, ip, lr
 2623 0e6c 01C0E1E5 		strb	ip, [r1, #1]!
 2624 0e70 F8FFFFCA 		bgt	.L514
 2625 0e74 60FDFFEA 		b	.L512
 2626              	.L931:
 2627 0e78 001093E5 		ldr	r1, [r3]
 2628 0e7c 002090E5 		ldr	r2, [r0]
 2629 0e80 020051E1 		cmp	r1, r2
 2630 0e84 0600000A 		beq	.L576
 2631 0e88 010051E3 		cmp	r1, #1
 2632 0e8c 5800000A 		beq	.L577
 2633 0e90 010052E3 		cmp	r2, #1
 2634 0e94 E000001A 		bne	.L551
 2635 0e98 0020A0E3 		mov	r2, #0
 2636 0e9c 30118DE5 		str	r1, [sp, #304]
 2637 0ea0 40218DE5 		str	r2, [sp, #320]
 2638              	.L576:
 2639 0ea4 041093E5 		ldr	r1, [r3, #4]
 2640 0ea8 042090E5 		ldr	r2, [r0, #4]
 2641 0eac 020051E1 		cmp	r1, r2
 2642 0eb0 0600000A 		beq	.L578
 2643 0eb4 010051E3 		cmp	r1, #1
 2644 0eb8 4500000A 		beq	.L579
 2645 0ebc 010052E3 		cmp	r2, #1
 2646 0ec0 D500001A 		bne	.L551
 2647 0ec4 0020A0E3 		mov	r2, #0
 2648 0ec8 34118DE5 		str	r1, [sp, #308]
 2649 0ecc 44218DE5 		str	r2, [sp, #324]
 2650              	.L578:
 2651 0ed0 081093E5 		ldr	r1, [r3, #8]
 2652 0ed4 082090E5 		ldr	r2, [r0, #8]
 2653 0ed8 020051E1 		cmp	r1, r2
 2654 0edc 0600000A 		beq	.L580
 2655 0ee0 010051E3 		cmp	r1, #1
 2656 0ee4 3E00000A 		beq	.L581
 2657 0ee8 010052E3 		cmp	r2, #1
 2658 0eec CA00001A 		bne	.L551
 2659 0ef0 0020A0E3 		mov	r2, #0
 2660 0ef4 38118DE5 		str	r1, [sp, #312]
 2661 0ef8 48218DE5 		str	r2, [sp, #328]
 2662              	.L580:
 2663 0efc 0C3093E5 		ldr	r3, [r3, #12]
 2664 0f00 0C2090E5 		ldr	r2, [r0, #12]
 2665 0f04 020053E1 		cmp	r3, r2
 2666 0f08 29FFFF1A 		bne	.L582
 2667 0f0c 32FFFFEA 		b	.L575
 2668              	.L566:
 2669 0f10 0030A0E3 		mov	r3, #0
 2670 0f14 1C218DE5 		str	r2, [sp, #284]
 2671 0f18 2C318DE5 		str	r3, [sp, #300]
 2672 0f1c 04FEFFEA 		b	.L654
 2673              	.L688:
 2674              	.L637:
 2675 0f20 B0309DE5 		ldr	r3, [sp, #176]
 2676 0f24 050053E3 		cmp	r3, #5
 2677 0f28 030000DA 		ble	.L647
 2678 0f2c B4009DE5 		ldr	r0, [sp, #180]
 2679 0f30 000050E3 		cmp	r0, #0
 2680 0f34 0000000A 		beq	.L647
 2681 0f38 FEFFFFEB 		bl	_ZdaPv
 2682              	.L647:
 2683 0f3c 98309DE5 		ldr	r3, [sp, #152]
 2684 0f40 050053E3 		cmp	r3, #5
 2685 0f44 030000DA 		ble	.L649
 2686 0f48 9C009DE5 		ldr	r0, [sp, #156]
 2687 0f4c 000050E3 		cmp	r0, #0
 2688 0f50 0000000A 		beq	.L649
 2689 0f54 FEFFFFEB 		bl	_ZdaPv
 2690              	.L649:
 2691 0f58 80309DE5 		ldr	r3, [sp, #128]
 2692 0f5c 050053E3 		cmp	r3, #5
 2693 0f60 030000DA 		ble	.L650
 2694 0f64 84009DE5 		ldr	r0, [sp, #132]
 2695 0f68 000050E3 		cmp	r0, #0
 2696 0f6c 0000000A 		beq	.L650
 2697              	.L868:
 2698 0f70 FEFFFFEB 		bl	_ZdaPv
 2699              	.L650:
 2700              	.LEHB44:
 2701 0f74 FEFFFFEB 		bl	__cxa_end_cleanup
 2702              	.LEHE44:
 2703              	.L691:
 2704              	.L592:
 2705 0f78 C8909DE5 		ldr	r9, [sp, #200]
 2706              	.L533:
 2707 0f7c 050059E3 		cmp	r9, #5
 2708 0f80 E6FFFFDA 		ble	.L637
 2709 0f84 CC009DE5 		ldr	r0, [sp, #204]
 2710 0f88 000050E3 		cmp	r0, #0
 2711 0f8c E3FFFF0A 		beq	.L637
 2712 0f90 FEFFFFEB 		bl	_ZdaPv
 2713 0f94 E1FFFFEA 		b	.L637
 2714              	.L692:
 2715 0f98 E0409DE5 		ldr	r4, [sp, #224]
 2716              	.L538:
 2717 0f9c 050054E3 		cmp	r4, #5
 2718 0fa0 F4FFFFDA 		ble	.L592
 2719 0fa4 E4009DE5 		ldr	r0, [sp, #228]
 2720 0fa8 000050E3 		cmp	r0, #0
 2721 0fac F1FFFF0A 		beq	.L592
 2722 0fb0 FEFFFFEB 		bl	_ZdaPv
 2723 0fb4 EFFFFFEA 		b	.L592
 2724              	.L668:
 2725 0fb8 0120A0E3 		mov	r2, #1
 2726 0fbc E1FCFFEA 		b	.L493
 2727              	.L920:
 2728 0fc0 30219DE5 		ldr	r2, [sp, #304]
 2729 0fc4 020053E1 		cmp	r3, r2
 2730 0fc8 88FCFF0A 		beq	.L491
 2731              	.L651:
 2732              	.LEHB45:
 2733 0fcc FEFFFFEB 		bl	abort
 2734              	.LEHE45:
 2735              	.L689:
 2736 0fd0 E9FFFFEA 		b	.L533
 2737              	.L579:
 2738 0fd4 0010A0E3 		mov	r1, #0
 2739 0fd8 14218DE5 		str	r2, [sp, #276]
 2740 0fdc 24118DE5 		str	r1, [sp, #292]
 2741 0fe0 BAFFFFEA 		b	.L578
 2742              	.L581:
 2743 0fe4 0010A0E3 		mov	r1, #0
 2744 0fe8 18218DE5 		str	r2, [sp, #280]
 2745 0fec 28118DE5 		str	r1, [sp, #296]
 2746 0ff0 C1FFFFEA 		b	.L580
 2747              	.L577:
 2748 0ff4 0010A0E3 		mov	r1, #0
 2749 0ff8 10218DE5 		str	r2, [sp, #272]
 2750 0ffc 20118DE5 		str	r1, [sp, #288]
 2751 1000 A7FFFFEA 		b	.L576
 2752              	.L685:
 2753 1004 30319DE5 		ldr	r3, [sp, #304]
 2754 1008 050053E3 		cmp	r3, #5
 2755 100c 030000DA 		ble	.L642
 2756 1010 34019DE5 		ldr	r0, [sp, #308]
 2757 1014 000050E3 		cmp	r0, #0
 2758 1018 0000000A 		beq	.L642
 2759 101c FEFFFFEB 		bl	_ZdaPv
 2760              	.L642:
 2761 1020 10319DE5 		ldr	r3, [sp, #272]
 2762 1024 050053E3 		cmp	r3, #5
 2763 1028 030000DA 		ble	.L644
 2764 102c 14019DE5 		ldr	r0, [sp, #276]
 2765 1030 000050E3 		cmp	r0, #0
 2766 1034 0000000A 		beq	.L644
 2767 1038 FEFFFFEB 		bl	_ZdaPv
 2768              	.L644:
 2769 103c F8309DE5 		ldr	r3, [sp, #248]
 2770 1040 050053E3 		cmp	r3, #5
 2771 1044 CAFFFFDA 		ble	.L650
 2772 1048 FC009DE5 		ldr	r0, [sp, #252]
 2773 104c 000050E3 		cmp	r0, #0
 2774 1050 C6FFFF1A 		bne	.L868
 2775 1054 C6FFFFEA 		b	.L650
 2776              	.L550:
 2777 1058 0030A0E3 		mov	r3, #0
 2778 105c 10018DE5 		str	r0, [sp, #272]
 2779 1060 20318DE5 		str	r3, [sp, #288]
 2780 1064 8EFDFFEA 		b	.L549
 2781              	.L554:
 2782 1068 0030A0E3 		mov	r3, #0
 2783 106c 18118DE5 		str	r1, [sp, #280]
 2784 1070 28318DE5 		str	r3, [sp, #296]
 2785 1074 A2FDFFEA 		b	.L555
 2786              	.L552:
 2787 1078 0030A0E3 		mov	r3, #0
 2788 107c 14C18DE5 		str	ip, [sp, #276]
 2789 1080 24318DE5 		str	r3, [sp, #292]
 2790 1084 92FDFFEA 		b	.L553
 2791              	.L624:
 2792              	.LEHB46:
 2793 1088 FEFFFFEB 		bl	abort
 2794              	.L617:
 2795 108c FEFFFFEB 		bl	abort
 2796              	.L615:
 2797 1090 FEFFFFEB 		bl	abort
 2798              	.L614:
 2799 1094 FEFFFFEB 		bl	abort
 2800              	.L613:
 2801 1098 FEFFFFEB 		bl	abort
 2802              	.L612:
 2803 109c FEFFFFEB 		bl	abort
 2804              	.L611:
 2805 10a0 FEFFFFEB 		bl	abort
 2806              	.L610:
 2807 10a4 FEFFFFEB 		bl	abort
 2808              	.LEHE46:
 2809              	.L602:
 2810 10a8 50309DE5 		ldr	r3, [sp, #80]
 2811 10ac 014084E2 		add	r4, r4, #1
 2812 10b0 68209DE5 		ldr	r2, [sp, #104]
 2813 10b4 023083E0 		add	r3, r3, r2
 2814 10b8 6C209DE5 		ldr	r2, [sp, #108]
 2815 10bc 50308DE5 		str	r3, [sp, #80]
 2816 10c0 54309DE5 		ldr	r3, [sp, #84]
 2817 10c4 023083E0 		add	r3, r3, r2
 2818 10c8 70209DE5 		ldr	r2, [sp, #112]
 2819 10cc 54308DE5 		str	r3, [sp, #84]
 2820 10d0 58309DE5 		ldr	r3, [sp, #88]
 2821 10d4 023083E0 		add	r3, r3, r2
 2822 10d8 58308DE5 		str	r3, [sp, #88]
 2823 10dc E2FDFFEA 		b	.L596
 2824              	.L603:
 2825              	.LEHB47:
 2826 10e0 FEFFFFEB 		bl	abort
 2827              	.LEHE47:
 2828              	.L598:
 2829 10e4 5C309DE5 		ldr	r3, [sp, #92]
 2830 10e8 018088E2 		add	r8, r8, #1
 2831 10ec 74209DE5 		ldr	r2, [sp, #116]
 2832 10f0 023083E0 		add	r3, r3, r2
 2833 10f4 78209DE5 		ldr	r2, [sp, #120]
 2834 10f8 5C308DE5 		str	r3, [sp, #92]
 2835 10fc 60309DE5 		ldr	r3, [sp, #96]
 2836 1100 023083E0 		add	r3, r3, r2
 2837 1104 7C209DE5 		ldr	r2, [sp, #124]
 2838 1108 60308DE5 		str	r3, [sp, #96]
 2839 110c 64309DE5 		ldr	r3, [sp, #100]
 2840 1110 023083E0 		add	r3, r3, r2
 2841 1114 64308DE5 		str	r3, [sp, #100]
 2842 1118 C5FDFFEA 		b	.L588
 2843              	.L594:
 2844 111c 050059E3 		cmp	r9, #5
 2845 1120 030000DA 		ble	.L633
 2846 1124 00005AE3 		cmp	r10, #0
 2847 1128 0100000A 		beq	.L633
 2848 112c 0A00A0E1 		mov	r0, r10
 2849 1130 FEFFFFEB 		bl	_ZdaPv
 2850              	.L633:
 2851 1134 B0309DE5 		ldr	r3, [sp, #176]
 2852 1138 050053E3 		cmp	r3, #5
 2853 113c 030000DA 		ble	.L635
 2854 1140 B4009DE5 		ldr	r0, [sp, #180]
 2855 1144 000050E3 		cmp	r0, #0
 2856 1148 0000000A 		beq	.L635
 2857 114c FEFFFFEB 		bl	_ZdaPv
 2858              	.L635:
 2859 1150 98309DE5 		ldr	r3, [sp, #152]
 2860 1154 050053E3 		cmp	r3, #5
 2861 1158 030000DA 		ble	.L638
 2862 115c 9C009DE5 		ldr	r0, [sp, #156]
 2863 1160 000050E3 		cmp	r0, #0
 2864 1164 0000000A 		beq	.L638
 2865 1168 FEFFFFEB 		bl	_ZdaPv
 2866              	.L638:
 2867 116c 80309DE5 		ldr	r3, [sp, #128]
 2868 1170 050053E3 		cmp	r3, #5
 2869 1174 B4FCFFDA 		ble	.L774
 2870 1178 84009DE5 		ldr	r0, [sp, #132]
 2871 117c 000050E3 		cmp	r0, #0
 2872 1180 B0FCFF1A 		bne	.L858
 2873 1184 B0FCFFEA 		b	.L774
 2874              	.L486:
 2875              	.LEHB48:
 2876 1188 FEFFFFEB 		bl	abort
 2877              	.L479:
 2878 118c FEFFFFEB 		bl	abort
 2879              	.LEHE48:
 2880              	.L925:
 2881              	.LEHB49:
 2882 1190 FEFFFFEB 		bl	abort
 2883              	.L924:
 2884 1194 FEFFFFEB 		bl	abort
 2885              	.LEHE49:
 2886              	.L683:
 2887 1198 A7FFFFEA 		b	.L644
 2888              	.L918:
 2889              	.LEHB50:
 2890 119c FEFFFFEB 		bl	abort
 2891              	.LEHE50:
 2892              	.L926:
 2893              	.LEHB51:
 2894 11a0 FEFFFFEB 		bl	abort
 2895              	.LEHE51:
 2896              	.L474:
 2897              	.LEHB52:
 2898 11a4 FEFFFFEB 		bl	abort
 2899              	.LEHE52:
 2900              	.L684:
 2901 11a8 9CFFFFEA 		b	.L642
 2902              	.L469:
 2903              	.LEHB53:
 2904 11ac FEFFFFEB 		bl	abort
 2905              	.LEHE53:
 2906              	.L595:
 2907              	.LEHB54:
 2908 11b0 FEFFFFEB 		bl	abort
 2909              	.LEHE54:
 2910              	.L919:
 2911              	.LEHB55:
 2912 11b4 FEFFFFEB 		bl	abort
 2913              	.LEHE55:
 2914              	.L923:
 2915              	.LEHB56:
 2916 11b8 FEFFFFEB 		bl	abort
 2917              	.LEHE56:
 2918              	.L908:
 2919 11bc 00005BE3 		cmp	fp, #0
 2920 11c0 F7FDFFDA 		ble	.L608
 2921 11c4 040059E3 		cmp	r9, #4
 2922 11c8 32FEFF1A 		bne	.L609
 2923 11cc 08005AE1 		cmp	r10, r8
 2924 11d0 B3FFFFDA 		ble	.L610
 2925 11d4 08309DE5 		ldr	r3, [sp, #8]
 2926 11d8 040053E1 		cmp	r3, r4
 2927 11dc AFFFFFDA 		ble	.L611
 2928 11e0 0E0057E1 		cmp	r7, lr
 2929 11e4 ACFFFFDA 		ble	.L612
 2930 11e8 0C309DE5 		ldr	r3, [sp, #12]
 2931 11ec 080053E1 		cmp	r3, r8
 2932 11f0 A8FFFFDA 		ble	.L613
 2933 11f4 10309DE5 		ldr	r3, [sp, #16]
 2934 11f8 040053E1 		cmp	r3, r4
 2935 11fc A4FFFFDA 		ble	.L614
 2936 1200 14309DE5 		ldr	r3, [sp, #20]
 2937 1204 0E0053E1 		cmp	r3, lr
 2938 1208 A0FFFFDA 		ble	.L615
 2939 120c 18309DE5 		ldr	r3, [sp, #24]
 2940 1210 000053E3 		cmp	r3, #0
 2941 1214 9CFFFFDA 		ble	.L617
 2942              	.LEHB57:
 2943 1218 FEFFFFEB 		bl	abort
 2944              	.LEHE57:
 2945              	.L551:
 2946              	.LEHB58:
 2947 121c FEFFFFEB 		bl	abort
 2948              	.LEHE58:
 2949              	.L599:
 2950              	.LEHB59:
 2951 1220 FEFFFFEB 		bl	abort
 2952              	.LEHE59:
 2953              	.L690:
 2954              	.L590:
 2955 1224 050056E3 		cmp	r6, #5
 2956 1228 5BFFFFDA 		ble	.L538
 2957 122c FC009DE5 		ldr	r0, [sp, #252]
 2958 1230 000050E3 		cmp	r0, #0
 2959 1234 58FFFF0A 		beq	.L538
 2960 1238 FEFFFFEB 		bl	_ZdaPv
 2961 123c 56FFFFEA 		b	.L538
 2962              	.L686:
 2963 1240 44FFFFEA 		b	.L649
 2964              	.L922:
 2965              	.LEHB60:
 2966 1244 FEFFFFEB 		bl	abort
 2967              	.LEHE60:
 2968              	.L548:
 2969              	.LEHB61:
 2970 1248 FEFFFFEB 		bl	abort
 2971              	.LEHE61:
 2972              	.L587:
 2973              	.LEHB62:
 2974 124c FEFFFFEB 		bl	abort
 2975              	.LEHE62:
 2976              	.L912:
 2977 1250 080053E1 		cmp	r3, r8
 2978 1254 D8FFFFDA 		ble	.L908
 2979 1258 00005BE3 		cmp	fp, #0
 2980 125c D0FDFFDA 		ble	.L608
 2981 1260 040059E3 		cmp	r9, #4
 2982 1264 0BFEFF1A 		bne	.L609
 2983 1268 08005AE1 		cmp	r10, r8
 2984 126c 8CFFFFDA 		ble	.L610
 2985 1270 08309DE5 		ldr	r3, [sp, #8]
 2986 1274 040053E1 		cmp	r3, r4
 2987 1278 88FFFFDA 		ble	.L611
 2988 127c 0E0057E1 		cmp	r7, lr
 2989 1280 85FFFFDA 		ble	.L612
 2990 1284 0C309DE5 		ldr	r3, [sp, #12]
 2991 1288 080053E1 		cmp	r3, r8
 2992 128c 81FFFFDA 		ble	.L613
 2993 1290 10309DE5 		ldr	r3, [sp, #16]
 2994 1294 040053E1 		cmp	r3, r4
 2995 1298 7DFFFFDA 		ble	.L614
 2996 129c 14309DE5 		ldr	r3, [sp, #20]
 2997 12a0 0E0053E1 		cmp	r3, lr
 2998 12a4 79FFFFDA 		ble	.L615
 2999 12a8 18309DE5 		ldr	r3, [sp, #24]
 3000 12ac 000053E3 		cmp	r3, #0
 3001 12b0 75FFFFDA 		ble	.L617
 3002              	.LEHB63:
 3003 12b4 FEFFFFEB 		bl	abort
 3004              	.L929:
 3005 12b8 040053E1 		cmp	r3, r4
 3006 12bc 3C309DE5 		ldr	r3, [sp, #60]
 3007 12c0 E2FFFFDA 		ble	.L912
 3008 12c4 080053E1 		cmp	r3, r8
 3009 12c8 BBFFFFDA 		ble	.L908
 3010 12cc 00005BE3 		cmp	fp, #0
 3011 12d0 B3FDFFDA 		ble	.L608
 3012 12d4 040059E3 		cmp	r9, #4
 3013 12d8 EEFDFF1A 		bne	.L609
 3014 12dc 08005AE1 		cmp	r10, r8
 3015 12e0 6FFFFFDA 		ble	.L610
 3016 12e4 08309DE5 		ldr	r3, [sp, #8]
 3017 12e8 040053E1 		cmp	r3, r4
 3018 12ec 6BFFFFDA 		ble	.L611
 3019 12f0 0E0057E1 		cmp	r7, lr
 3020 12f4 68FFFFDA 		ble	.L612
 3021 12f8 0C309DE5 		ldr	r3, [sp, #12]
 3022 12fc 080053E1 		cmp	r3, r8
 3023 1300 64FFFFDA 		ble	.L613
 3024 1304 10309DE5 		ldr	r3, [sp, #16]
 3025 1308 040053E1 		cmp	r3, r4
 3026 130c 60FFFFDA 		ble	.L614
 3027 1310 14309DE5 		ldr	r3, [sp, #20]
 3028 1314 0E0053E1 		cmp	r3, lr
 3029 1318 5CFFFFDA 		ble	.L615
 3030 131c 18309DE5 		ldr	r3, [sp, #24]
 3031 1320 000053E3 		cmp	r3, #0
 3032 1324 58FFFFDA 		ble	.L617
 3033 1328 FEFFFFEB 		bl	abort
 3034              	.LEHE63:
 3035              	.L687:
 3036 132c 02FFFFEA 		b	.L647
 3037              	.L540:
 3038              	.LEHB64:
 3039 1330 FEFFFFEB 		bl	abort
 3040              	.LEHE64:
 3041              	.L543:
 3042              	.LEHB65:
 3043 1334 FEFFFFEB 		bl	abort
 3044              	.LEHE65:
 3045              	.L693:
 3046 1338 F8609DE5 		ldr	r6, [sp, #248]
 3047 133c B8FFFFEA 		b	.L590
 3048              		.personality	__gxx_personality_v0
 3049              		.handlerdata
 3050              	.LLSDA4157:
 3051 0008 FF       		.byte	0xff
 3052 0009 FF       		.byte	0xff
 3053 000a 01       		.byte	0x1
 3054 000b C101     		.uleb128 .LLSDACSE4157-.LLSDACSB4157
 3055              	.LLSDACSB4157:
 3056 000d 28       		.uleb128 .LEHB33-.LFB4157
 3057 000e 58       		.uleb128 .LEHE33-.LEHB33
 3058 000f 00       		.uleb128 0
 3059 0010 00       		.uleb128 0
 3060 0011 9401     		.uleb128 .LEHB34-.LFB4157
 3061 0013 04       		.uleb128 .LEHE34-.LEHB34
 3062 0014 9823     		.uleb128 .L683-.LFB4157
 3063 0016 00       		.uleb128 0
 3064 0017 AC01     		.uleb128 .LEHB35-.LFB4157
 3065 0019 04       		.uleb128 .LEHE35-.LEHB35
 3066 001a A823     		.uleb128 .L684-.LFB4157
 3067 001c 00       		.uleb128 0
 3068 001d DC08     		.uleb128 .LEHB36-.LFB4157
 3069 001f 04       		.uleb128 .LEHE36-.LEHB36
 3070 0020 00       		.uleb128 0
 3071 0021 00       		.uleb128 0
 3072 0022 F408     		.uleb128 .LEHB37-.LFB4157
 3073 0024 04       		.uleb128 .LEHE37-.LEHB37
 3074 0025 C024     		.uleb128 .L686-.LFB4157
 3075 0027 00       		.uleb128 0
 3076 0028 8C09     		.uleb128 .LEHB38-.LFB4157
 3077 002a 04       		.uleb128 .LEHE38-.LEHB38
 3078 002b AC26     		.uleb128 .L687-.LFB4157
 3079 002d 00       		.uleb128 0
 3080 002e 800A     		.uleb128 .LEHB39-.LFB4157
 3081 0030 04       		.uleb128 .LEHE39-.LEHB39
 3082 0031 A01E     		.uleb128 .L688-.LFB4157
 3083 0033 00       		.uleb128 0
 3084 0034 DC0A     		.uleb128 .LEHB40-.LFB4157
 3085 0036 04       		.uleb128 .LEHE40-.LEHB40
 3086 0037 F81E     		.uleb128 .L691-.LFB4157
 3087 0039 00       		.uleb128 0
 3088 003a B80B     		.uleb128 .LEHB41-.LFB4157
 3089 003c 04       		.uleb128 .LEHE41-.LEHB41
 3090 003d 981F     		.uleb128 .L692-.LFB4157
 3091 003f 00       		.uleb128 0
 3092 0040 9815     		.uleb128 .LEHB42-.LFB4157
 3093 0042 04       		.uleb128 .LEHE42-.LEHB42
 3094 0043 D01F     		.uleb128 .L689-.LFB4157
 3095 0045 00       		.uleb128 0
 3096 0046 E018     		.uleb128 .LEHB43-.LFB4157
 3097 0048 3C       		.uleb128 .LEHE43-.LEHB43
 3098 0049 8420     		.uleb128 .L685-.LFB4157
 3099 004b 00       		.uleb128 0
 3100 004c F41E     		.uleb128 .LEHB44-.LFB4157
 3101 004e 04       		.uleb128 .LEHE44-.LEHB44
 3102 004f 00       		.uleb128 0
 3103 0050 00       		.uleb128 0
 3104 0051 CC1F     		.uleb128 .LEHB45-.LFB4157
 3105 0053 04       		.uleb128 .LEHE45-.LEHB45
 3106 0054 8420     		.uleb128 .L685-.LFB4157
 3107 0056 00       		.uleb128 0
 3108 0057 8821     		.uleb128 .LEHB46-.LFB4157
 3109 0059 20       		.uleb128 .LEHE46-.LEHB46
 3110 005a D01F     		.uleb128 .L689-.LFB4157
 3111 005c 00       		.uleb128 0
 3112 005d E021     		.uleb128 .LEHB47-.LFB4157
 3113 005f 04       		.uleb128 .LEHE47-.LEHB47
 3114 0060 A01E     		.uleb128 .L688-.LFB4157
 3115 0062 00       		.uleb128 0
 3116 0063 8823     		.uleb128 .LEHB48-.LFB4157
 3117 0065 08       		.uleb128 .LEHE48-.LEHB48
 3118 0066 8420     		.uleb128 .L685-.LFB4157
 3119 0068 00       		.uleb128 0
 3120 0069 9023     		.uleb128 .LEHB49-.LFB4157
 3121 006b 08       		.uleb128 .LEHE49-.LEHB49
 3122 006c A01E     		.uleb128 .L688-.LFB4157
 3123 006e 00       		.uleb128 0
 3124 006f 9C23     		.uleb128 .LEHB50-.LFB4157
 3125 0071 04       		.uleb128 .LEHE50-.LEHB50
 3126 0072 9823     		.uleb128 .L683-.LFB4157
 3127 0074 00       		.uleb128 0
 3128 0075 A023     		.uleb128 .LEHB51-.LFB4157
 3129 0077 04       		.uleb128 .LEHE51-.LEHB51
 3130 0078 A01E     		.uleb128 .L688-.LFB4157
 3131 007a 00       		.uleb128 0
 3132 007b A423     		.uleb128 .LEHB52-.LFB4157
 3133 007d 04       		.uleb128 .LEHE52-.LEHB52
 3134 007e 8420     		.uleb128 .L685-.LFB4157
 3135 0080 00       		.uleb128 0
 3136 0081 AC23     		.uleb128 .LEHB53-.LFB4157
 3137 0083 04       		.uleb128 .LEHE53-.LEHB53
 3138 0084 00       		.uleb128 0
 3139 0085 00       		.uleb128 0
 3140 0086 B023     		.uleb128 .LEHB54-.LFB4157
 3141 0088 04       		.uleb128 .LEHE54-.LEHB54
 3142 0089 A01E     		.uleb128 .L688-.LFB4157
 3143 008b 00       		.uleb128 0
 3144 008c B423     		.uleb128 .LEHB55-.LFB4157
 3145 008e 04       		.uleb128 .LEHE55-.LEHB55
 3146 008f A823     		.uleb128 .L684-.LFB4157
 3147 0091 00       		.uleb128 0
 3148 0092 B823     		.uleb128 .LEHB56-.LFB4157
 3149 0094 04       		.uleb128 .LEHE56-.LEHB56
 3150 0095 AC26     		.uleb128 .L687-.LFB4157
 3151 0097 00       		.uleb128 0
 3152 0098 9824     		.uleb128 .LEHB57-.LFB4157
 3153 009a 04       		.uleb128 .LEHE57-.LEHB57
 3154 009b D01F     		.uleb128 .L689-.LFB4157
 3155 009d 00       		.uleb128 0
 3156 009e 9C24     		.uleb128 .LEHB58-.LFB4157
 3157 00a0 04       		.uleb128 .LEHE58-.LEHB58
 3158 00a1 A424     		.uleb128 .L690-.LFB4157
 3159 00a3 00       		.uleb128 0
 3160 00a4 A024     		.uleb128 .LEHB59-.LFB4157
 3161 00a6 04       		.uleb128 .LEHE59-.LEHB59
 3162 00a7 A01E     		.uleb128 .L688-.LFB4157
 3163 00a9 00       		.uleb128 0
 3164 00aa C424     		.uleb128 .LEHB60-.LFB4157
 3165 00ac 04       		.uleb128 .LEHE60-.LEHB60
 3166 00ad C024     		.uleb128 .L686-.LFB4157
 3167 00af 00       		.uleb128 0
 3168 00b0 C824     		.uleb128 .LEHB61-.LFB4157
 3169 00b2 04       		.uleb128 .LEHE61-.LEHB61
 3170 00b3 A424     		.uleb128 .L690-.LFB4157
 3171 00b5 00       		.uleb128 0
 3172 00b6 CC24     		.uleb128 .LEHB62-.LFB4157
 3173 00b8 04       		.uleb128 .LEHE62-.LEHB62
 3174 00b9 A01E     		.uleb128 .L688-.LFB4157
 3175 00bb 00       		.uleb128 0
 3176 00bc B425     		.uleb128 .LEHB63-.LFB4157
 3177 00be 78       		.uleb128 .LEHE63-.LEHB63
 3178 00bf D01F     		.uleb128 .L689-.LFB4157
 3179 00c1 00       		.uleb128 0
 3180 00c2 B026     		.uleb128 .LEHB64-.LFB4157
 3181 00c4 04       		.uleb128 .LEHE64-.LEHB64
 3182 00c5 B826     		.uleb128 .L693-.LFB4157
 3183 00c7 00       		.uleb128 0
 3184 00c8 B426     		.uleb128 .LEHB65-.LFB4157
 3185 00ca 04       		.uleb128 .LEHE65-.LEHB65
 3186 00cb A424     		.uleb128 .L690-.LFB4157
 3187 00cd 00       		.uleb128 0
 3188              	.LLSDACSE4157:
 3189              		.section	.text._ZN6tflite3ops5micro7logical12_GLOBAL__N_114LogicalAndEvalEP13TfLiteContextP10TfLit
 3190              		.fnend
 3192              		.section	.text._ZN6tflite3ops5micro19Register_LOGICAL_OREv,"ax",%progbits
 3193              		.align	2
 3194              		.global	_ZN6tflite3ops5micro19Register_LOGICAL_OREv
 3195              		.syntax unified
 3196              		.arm
 3197              		.fpu neon
 3199              	_ZN6tflite3ops5micro19Register_LOGICAL_OREv:
 3200              		.fnstart
 3201              	.LFB4158:
 3202              		@ args = 0, pretend = 0, frame = 0
 3203              		@ frame_needed = 0, uses_anonymous_args = 0
 3204 0000 10402DE9 		push	{r4, lr}
 3205 0004 2020A0E3 		mov	r2, #32
 3206 0008 0010A0E3 		mov	r1, #0
 3207 000c 0040A0E1 		mov	r4, r0
 3208 0010 FEFFFFEB 		bl	memset
 3209 0014 003000E3 		movw	r3, #:lower16:_ZN6tflite3ops5micro7logical12_GLOBAL__N_113LogicalOrEvalEP13TfLiteContextP10Tf
 3210 0018 0400A0E1 		mov	r0, r4
 3211 001c 003040E3 		movt	r3, #:upper16:_ZN6tflite3ops5micro7logical12_GLOBAL__N_113LogicalOrEvalEP13TfLiteContextP10Tf
 3212 0020 0C3084E5 		str	r3, [r4, #12]
 3213 0024 1080BDE8 		pop	{r4, pc}
 3214              		.cantunwind
 3215              		.fnend
 3217              		.section	.text._ZN6tflite3ops5micro20Register_LOGICAL_ANDEv,"ax",%progbits
 3218              		.align	2
 3219              		.global	_ZN6tflite3ops5micro20Register_LOGICAL_ANDEv
 3220              		.syntax unified
 3221              		.arm
 3222              		.fpu neon
 3224              	_ZN6tflite3ops5micro20Register_LOGICAL_ANDEv:
 3225              		.fnstart
 3226              	.LFB4159:
 3227              		@ args = 0, pretend = 0, frame = 0
 3228              		@ frame_needed = 0, uses_anonymous_args = 0
 3229 0000 10402DE9 		push	{r4, lr}
 3230 0004 2020A0E3 		mov	r2, #32
 3231 0008 0010A0E3 		mov	r1, #0
 3232 000c 0040A0E1 		mov	r4, r0
 3233 0010 FEFFFFEB 		bl	memset
 3234 0014 003000E3 		movw	r3, #:lower16:_ZN6tflite3ops5micro7logical12_GLOBAL__N_114LogicalAndEvalEP13TfLiteContextP10T
 3235 0018 0400A0E1 		mov	r0, r4
 3236 001c 003040E3 		movt	r3, #:upper16:_ZN6tflite3ops5micro7logical12_GLOBAL__N_114LogicalAndEvalEP13TfLiteContextP10T
 3237 0020 0C3084E5 		str	r3, [r4, #12]
 3238 0024 1080BDE8 		pop	{r4, pc}
 3239              		.cantunwind
 3240              		.fnend
 3242              		.ident	"GCC: (GNU Tools for ARM Embedded Processors 6-2017-q2-update) 6.3.1 20170620 (release) [AR
DEFINED SYMBOLS
                            *ABS*:00000000 logical.cc
C:\Users\a5050395\AppData\Local\Temp\ccrsrEle.s:14     .text._ZN6tflite3ops5micro7logical12_GLOBAL__N_113LogicalOrEvalEP13TfLiteContextP10TfLiteNode:00000000 $a
C:\Users\a5050395\AppData\Local\Temp\ccrsrEle.s:19     .text._ZN6tflite3ops5micro7logical12_GLOBAL__N_113LogicalOrEvalEP13TfLiteContextP10TfLiteNode:00000000 _ZN6tflite3ops5micro7logical12_GLOBAL__N_113LogicalOrEvalEP13TfLiteContextP10TfLiteNode
.ARM.extab.text._ZN6tflite3ops5micro7logical12_GLOBAL__N_113LogicalOrEvalEP13TfLiteContextP10TfLiteNode:00000000 $d
.ARM.exidx.text._ZN6tflite3ops5micro7logical12_GLOBAL__N_113LogicalOrEvalEP13TfLiteContextP10TfLiteNode:00000000 $d
C:\Users\a5050395\AppData\Local\Temp\ccrsrEle.s:1604   .text._ZN6tflite3ops5micro7logical12_GLOBAL__N_114LogicalAndEvalEP13TfLiteContextP10TfLiteNode:00000000 $a
C:\Users\a5050395\AppData\Local\Temp\ccrsrEle.s:1609   .text._ZN6tflite3ops5micro7logical12_GLOBAL__N_114LogicalAndEvalEP13TfLiteContextP10TfLiteNode:00000000 _ZN6tflite3ops5micro7logical12_GLOBAL__N_114LogicalAndEvalEP13TfLiteContextP10TfLiteNode
.ARM.extab.text._ZN6tflite3ops5micro7logical12_GLOBAL__N_114LogicalAndEvalEP13TfLiteContextP10TfLiteNode:00000000 $d
.ARM.exidx.text._ZN6tflite3ops5micro7logical12_GLOBAL__N_114LogicalAndEvalEP13TfLiteContextP10TfLiteNode:00000000 $d
C:\Users\a5050395\AppData\Local\Temp\ccrsrEle.s:3193   .text._ZN6tflite3ops5micro19Register_LOGICAL_OREv:00000000 $a
C:\Users\a5050395\AppData\Local\Temp\ccrsrEle.s:3199   .text._ZN6tflite3ops5micro19Register_LOGICAL_OREv:00000000 _ZN6tflite3ops5micro19Register_LOGICAL_OREv
.ARM.exidx.text._ZN6tflite3ops5micro19Register_LOGICAL_OREv:00000000 $d
C:\Users\a5050395\AppData\Local\Temp\ccrsrEle.s:3218   .text._ZN6tflite3ops5micro20Register_LOGICAL_ANDEv:00000000 $a
C:\Users\a5050395\AppData\Local\Temp\ccrsrEle.s:3224   .text._ZN6tflite3ops5micro20Register_LOGICAL_ANDEv:00000000 _ZN6tflite3ops5micro20Register_LOGICAL_ANDEv
.ARM.exidx.text._ZN6tflite3ops5micro20Register_LOGICAL_ANDEv:00000000 $d

UNDEFINED SYMBOLS
_ZN6tflite5micro14HaveSameShapesEPK16TfLiteEvalTensorS3_
_ZN6tflite5micro14GetTensorShapeEPK16TfLiteEvalTensor
_ZdaPv
abort
memcpy
__cxa_end_cleanup
__gxx_personality_v0
memset
