   1              		.cpu cortex-a9
   2              		.eabi_attribute 28, 1
   3              		.eabi_attribute 20, 1
   4              		.eabi_attribute 21, 1
   5              		.eabi_attribute 23, 3
   6              		.eabi_attribute 24, 1
   7              		.eabi_attribute 25, 1
   8              		.eabi_attribute 26, 1
   9              		.eabi_attribute 30, 2
  10              		.eabi_attribute 34, 0
  11              		.eabi_attribute 18, 4
  12              		.file	"pad.cc"
  13              		.section	.text._ZN6tflite3ops5micro3pad4InitEP13TfLiteContextPKcj,"ax",%progbits
  14              		.align	2
  15              		.global	_ZN6tflite3ops5micro3pad4InitEP13TfLiteContextPKcj
  16              		.syntax unified
  17              		.arm
  18              		.fpu neon
  20              	_ZN6tflite3ops5micro3pad4InitEP13TfLiteContextPKcj:
  21              		.fnstart
  22              	.LFB1319:
  23              		@ args = 0, pretend = 0, frame = 0
  24              		@ frame_needed = 0, uses_anonymous_args = 0
  25 0000 383090E5 		ldr	r3, [r0, #56]
  26 0004 000053E3 		cmp	r3, #0
  27 0008 0100000A 		beq	.L7
  28 000c 3810A0E3 		mov	r1, #56
  29 0010 13FF2FE1 		bx	r3
  30              	.L7:
  31 0014 10402DE9 		push	{r4, lr}
  32              		.save {r4, lr}
  33 0018 FEFFFFEB 		bl	abort
  34              		.fnend
  36              		.section	.text._ZN6tflite3ops5micro3pad7PrepareEP13TfLiteContextP10TfLiteNode,"ax",%progbits
  37              		.align	2
  38              		.global	_ZN6tflite3ops5micro3pad7PrepareEP13TfLiteContextP10TfLiteNode
  39              		.syntax unified
  40              		.arm
  41              		.fpu neon
  43              	_ZN6tflite3ops5micro3pad7PrepareEP13TfLiteContextP10TfLiteNode:
  44              		.fnstart
  45              	.LFB1320:
  46              		@ args = 0, pretend = 0, frame = 80
  47              		@ frame_needed = 0, uses_anonymous_args = 0
  48 0000 F04F2DE9 		push	{r4, r5, r6, r7, r8, r9, r10, fp, lr}
  49              		.save {r4, r5, r6, r7, r8, r9, r10, fp, lr}
  50              		.pad #84
  51 0004 54D04DE2 		sub	sp, sp, #84
  52 0008 104091E5 		ldr	r4, [r1, #16]
  53 000c 000054E3 		cmp	r4, #0
  54 0010 BE01000A 		beq	.L111
  55 0014 003091E5 		ldr	r3, [r1]
  56 0018 0160A0E1 		mov	r6, r1
  57 001c 003093E5 		ldr	r3, [r3]
  58 0020 023043E2 		sub	r3, r3, #2
  59 0024 010053E3 		cmp	r3, #1
  60 0028 0200009A 		bls	.L10
  61              	.L12:
  62 002c 0100A0E3 		mov	r0, #1
  63              	.L100:
  64 0030 54D08DE2 		add	sp, sp, #84
  65              		@ sp needed
  66 0034 F08FBDE8 		pop	{r4, r5, r6, r7, r8, r9, r10, fp, pc}
  67              	.L10:
  68 0038 043091E5 		ldr	r3, [r1, #4]
  69 003c 005093E5 		ldr	r5, [r3]
  70 0040 010055E3 		cmp	r5, #1
  71 0044 F8FFFF1A 		bne	.L12
  72 0048 0020A0E3 		mov	r2, #0
  73 004c 0070A0E1 		mov	r7, r0
  74 0050 FEFFFFEB 		bl	_ZN6tflite8GetInputEPK13TfLiteContextPK10TfLiteNodei
  75 0054 00A050E2 		subs	r10, r0, #0
  76 0058 F3FFFF0A 		beq	.L12
  77 005c 0520A0E1 		mov	r2, r5
  78 0060 0610A0E1 		mov	r1, r6
  79 0064 0700A0E1 		mov	r0, r7
  80 0068 FEFFFFEB 		bl	_ZN6tflite8GetInputEPK13TfLiteContextPK10TfLiteNodei
  81 006c 003050E2 		subs	r3, r0, #0
  82 0070 04308DE5 		str	r3, [sp, #4]
  83 0074 ECFFFF0A 		beq	.L12
  84 0078 003096E5 		ldr	r3, [r6]
  85 007c 003093E5 		ldr	r3, [r3]
  86 0080 030053E3 		cmp	r3, #3
  87 0084 0030A013 		movne	r3, #0
  88 0088 00308D15 		strne	r3, [sp]
  89 008c 8401000A 		beq	.L112
  90              	.L13:
  91 0090 0610A0E1 		mov	r1, r6
  92 0094 0700A0E1 		mov	r0, r7
  93 0098 0020A0E3 		mov	r2, #0
  94 009c FEFFFFEB 		bl	_ZN6tflite9GetOutputEP13TfLiteContextPK10TfLiteNodei
  95 00a0 003050E2 		subs	r3, r0, #0
  96 00a4 08308DE5 		str	r3, [sp, #8]
  97 00a8 DFFFFF0A 		beq	.L12
  98 00ac 0020DAE5 		ldrb	r2, [r10]	@ zero_extendqisi2
  99 00b0 0030D3E5 		ldrb	r3, [r3]	@ zero_extendqisi2
 100 00b4 020053E1 		cmp	r3, r2
 101 00b8 DBFFFF1A 		bne	.L12
 102 00bc 08209AE5 		ldr	r2, [r10, #8]
 103 00c0 002092E5 		ldr	r2, [r2]
 104 00c4 050052E3 		cmp	r2, #5
 105 00c8 D7FFFFCA 		bgt	.L12
 106 00cc 00209DE5 		ldr	r2, [sp]
 107 00d0 000052E3 		cmp	r2, #0
 108 00d4 6200000A 		beq	.L14
 109 00d8 0020D2E5 		ldrb	r2, [r2]	@ zero_extendqisi2
 110 00dc 030052E1 		cmp	r2, r3
 111 00e0 D1FFFF1A 		bne	.L12
 112 00e4 00309DE5 		ldr	r3, [sp]
 113 00e8 083093E5 		ldr	r3, [r3, #8]
 114 00ec 0320A0E1 		mov	r2, r3
 115 00f0 0C308DE5 		str	r3, [sp, #12]
 116 00f4 003093E5 		ldr	r3, [r3]
 117 00f8 000053E3 		cmp	r3, #0
 118 00fc 10308DE5 		str	r3, [sp, #16]
 119 0100 570000DA 		ble	.L14
 120 0104 080053E3 		cmp	r3, #8
 121 0108 7C0100DA 		ble	.L62
 122 010c 093043E2 		sub	r3, r3, #9
 123 0110 A4B082E2 		add	fp, r2, #164
 124 0114 0730C3E3 		bic	r3, r3, #7
 125 0118 0020A0E3 		mov	r2, #0
 126 011c 083083E2 		add	r3, r3, #8
 127 0120 18A08DE5 		str	r10, [sp, #24]
 128 0124 0100A0E3 		mov	r0, #1
 129 0128 0010A0E3 		mov	r1, #0
 130 012c 02C0A0E1 		mov	ip, r2
 131 0130 03A0A0E1 		mov	r10, r3
 132 0134 14408DE5 		str	r4, [sp, #20]
 133 0138 1C508DE5 		str	r5, [sp, #28]
 134              	.L16:
 135 013c A0201BE5 		ldr	r2, [fp, #-160]
 136 0140 08C08CE2 		add	ip, ip, #8
 137 0144 9C801BE5 		ldr	r8, [fp, #-156]
 138 0148 0A005CE1 		cmp	ip, r10
 139 014c 98501BE5 		ldr	r5, [fp, #-152]
 140 0150 94401BE5 		ldr	r4, [fp, #-148]
 141 0154 920101E0 		mul	r1, r2, r1
 142 0158 C27FA0E1 		asr	r7, r2, #31
 143 015c 90E01BE5 		ldr	lr, [fp, #-144]
 144 0160 922083E0 		umull	r2, r3, r2, r0
 145 0164 00F0DBF5 		pld	[fp]
 146 0168 20B08BE2 		add	fp, fp, #32
 147 016c 901721E0 		mla	r1, r0, r7, r1
 148 0170 C87FA0E1 		asr	r7, r8, #31
 149 0174 033081E0 		add	r3, r1, r3
 150 0178 980281E0 		umull	r0, r1, r8, r2
 151 017c 980306E0 		mul	r6, r8, r3
 152 0180 C53FA0E1 		asr	r3, r5, #31
 153 0184 926726E0 		mla	r6, r2, r7, r6
 154 0188 AC201BE5 		ldr	r2, [fp, #-172]
 155 018c C47FA0E1 		asr	r7, r4, #31
 156 0190 011086E0 		add	r1, r6, r1
 157 0194 950108E0 		mul	r8, r5, r1
 158 0198 908328E0 		mla	r8, r0, r3, r8
 159 019c A8301BE5 		ldr	r3, [fp, #-168]
 160 01a0 950081E0 		umull	r0, r1, r5, r0
 161 01a4 C39FA0E1 		asr	r9, r3, #31
 162 01a8 011088E0 		add	r1, r8, r1
 163 01ac 940106E0 		mul	r6, r4, r1
 164 01b0 CE1FA0E1 		asr	r1, lr, #31
 165 01b4 944085E0 		umull	r4, r5, r4, r0
 166 01b8 906726E0 		mla	r6, r0, r7, r6
 167 01bc A4001BE5 		ldr	r0, [fp, #-164]
 168 01c0 C27FA0E1 		asr	r7, r2, #31
 169 01c4 055086E0 		add	r5, r6, r5
 170 01c8 9E0505E0 		mul	r5, lr, r5
 171 01cc 945121E0 		mla	r1, r4, r1, r5
 172 01d0 9E4485E0 		umull	r4, r5, lr, r4
 173 01d4 055081E0 		add	r5, r1, r5
 174 01d8 920501E0 		mul	r1, r2, r5
 175 01dc 941721E0 		mla	r1, r4, r7, r1
 176 01e0 924485E0 		umull	r4, r5, r2, r4
 177 01e4 C07FA0E1 		asr	r7, r0, #31
 178 01e8 055081E0 		add	r5, r1, r5
 179 01ec 930502E0 		mul	r2, r3, r5
 180 01f0 942922E0 		mla	r2, r4, r9, r2
 181 01f4 934485E0 		umull	r4, r5, r3, r4
 182 01f8 055082E0 		add	r5, r2, r5
 183 01fc 900503E0 		mul	r3, r0, r5
 184 0200 900481E0 		umull	r0, r1, r0, r4
 185 0204 943724E0 		mla	r4, r4, r7, r3
 186 0208 011084E0 		add	r1, r4, r1
 187 020c CAFFFF1A 		bne	.L16
 188 0210 14409DE5 		ldr	r4, [sp, #20]
 189 0214 0C30A0E1 		mov	r3, ip
 190 0218 18A09DE5 		ldr	r10, [sp, #24]
 191 021c 1C509DE5 		ldr	r5, [sp, #28]
 192              	.L15:
 193 0220 01E083E2 		add	lr, r3, #1
 194 0224 0C309DE5 		ldr	r3, [sp, #12]
 195 0228 10C09DE5 		ldr	ip, [sp, #16]
 196 022c 0E6183E0 		add	r6, r3, lr, lsl #2
 197 0230 000000EA 		b	.L17
 198              	.L113:
 199 0234 01E08EE2 		add	lr, lr, #1
 200              	.L17:
 201 0238 042096E4 		ldr	r2, [r6], #4
 202 023c 0E005CE1 		cmp	ip, lr
 203 0240 C29FA0E1 		asr	r9, r2, #31
 204 0244 900903E0 		mul	r3, r0, r9
 205 0248 923123E0 		mla	r3, r2, r1, r3
 206 024c 900281E0 		umull	r0, r1, r0, r2
 207 0250 011083E0 		add	r1, r3, r1
 208 0254 F6FFFFCA 		bgt	.L113
 209 0258 000051E3 		cmp	r1, #0
 210 025c 01005003 		cmpeq	r0, #1
 211 0260 71FFFF1A 		bne	.L12
 212              	.L14:
 213 0264 04309DE5 		ldr	r3, [sp, #4]
 214 0268 087093E5 		ldr	r7, [r3, #8]
 215 026c 002097E5 		ldr	r2, [r7]
 216 0270 050052E3 		cmp	r2, #5
 217 0274 20208DE5 		str	r2, [sp, #32]
 218 0278 110100DA 		ble	.L18
 219 027c 2E0272E3 		cmn	r2, #-536870910
 220 0280 420100CA 		bgt	.L19
 221 0284 0261A0E1 		lsl	r6, r2, #2
 222 0288 0600A0E1 		mov	r0, r6
 223 028c FEFFFFEB 		bl	_Znaj
 224 0290 24008DE5 		str	r0, [sp, #36]
 225              	.L20:
 226 0294 041087E2 		add	r1, r7, #4
 227 0298 0620A0E1 		mov	r2, r6
 228 029c FEFFFFEB 		bl	memcpy
 229 02a0 20109DE5 		ldr	r1, [sp, #32]
 230 02a4 050051E3 		cmp	r1, #5
 231 02a8 0D0100CA 		bgt	.L114
 232 02ac 000051E3 		cmp	r1, #0
 233 02b0 370100DA 		ble	.L55
 234 02b4 24008DE2 		add	r0, sp, #36
 235              	.L56:
 236 02b8 010051E3 		cmp	r1, #1
 237 02bc 5031A0E7 		sbfx	r3, r0, #2, #1
 238 02c0 01C0A0A1 		movge	ip, r1
 239 02c4 01C0A0B3 		movlt	ip, #1
 240 02c8 033003E2 		and	r3, r3, #3
 241 02cc 0C0053E1 		cmp	r3, ip
 242 02d0 0C30A021 		movcs	r3, ip
 243 02d4 08005CE3 		cmp	ip, #8
 244 02d8 0C30A0D1 		movle	r3, ip
 245 02dc 020100CA 		bgt	.L115
 246              	.L21:
 247 02e0 010053E3 		cmp	r3, #1
 248 02e4 006090E5 		ldr	r6, [r0]
 249 02e8 F300000A 		beq	.L71
 250 02ec 042090E5 		ldr	r2, [r0, #4]
 251 02f0 020053E3 		cmp	r3, #2
 252 02f4 920606E0 		mul	r6, r2, r6
 253 02f8 EF00000A 		beq	.L71
 254 02fc 082090E5 		ldr	r2, [r0, #8]
 255 0300 030053E3 		cmp	r3, #3
 256 0304 920606E0 		mul	r6, r2, r6
 257 0308 EB00000A 		beq	.L71
 258 030c 0C2090E5 		ldr	r2, [r0, #12]
 259 0310 040053E3 		cmp	r3, #4
 260 0314 920606E0 		mul	r6, r2, r6
 261 0318 E700000A 		beq	.L71
 262 031c 102090E5 		ldr	r2, [r0, #16]
 263 0320 050053E3 		cmp	r3, #5
 264 0324 920606E0 		mul	r6, r2, r6
 265 0328 E300000A 		beq	.L71
 266 032c 142090E5 		ldr	r2, [r0, #20]
 267 0330 060053E3 		cmp	r3, #6
 268 0334 920606E0 		mul	r6, r2, r6
 269 0338 DF00000A 		beq	.L71
 270 033c 182090E5 		ldr	r2, [r0, #24]
 271 0340 070053E3 		cmp	r3, #7
 272 0344 920606E0 		mul	r6, r2, r6
 273 0348 DB00000A 		beq	.L71
 274 034c 1CE090E5 		ldr	lr, [r0, #28]
 275 0350 0820A0E3 		mov	r2, #8
 276 0354 9E0606E0 		mul	r6, lr, r6
 277              	.L23:
 278 0358 03005CE1 		cmp	ip, r3
 279 035c 2A00000A 		beq	.L24
 280              	.L22:
 281 0360 000051E3 		cmp	r1, #0
 282 0364 03C04CE0 		sub	ip, ip, r3
 283 0368 017041C2 		subgt	r7, r1, #1
 284 036c 0070A0D3 		movle	r7, #0
 285 0370 04E04CE2 		sub	lr, ip, #4
 286 0374 2EE1A0E1 		lsr	lr, lr, #2
 287 0378 037047E0 		sub	r7, r7, r3
 288 037c 020057E3 		cmp	r7, #2
 289 0380 01E08EE2 		add	lr, lr, #1
 290 0384 0E81A0E1 		lsl	r8, lr, #2
 291 0388 1200009A 		bls	.L25
 292 038c 033180E0 		add	r3, r0, r3, lsl #2
 293 0390 5100C0F2 		vmov.i32	q8, #1  @ v4si
 294 0394 0070A0E3 		mov	r7, #0
 295              	.L27:
 296 0398 017087E2 		add	r7, r7, #1
 297 039c DF2A63F4 		vld1.64	{d18-d19}, [r3:64]
 298 03a0 07005EE1 		cmp	lr, r7
 299 03a4 103083E2 		add	r3, r3, #16
 300 03a8 F20960F2 		vmul.i32	q8, q8, q9
 301 03ac F9FFFF8A 		bhi	.L27
 302 03b0 08005CE1 		cmp	ip, r8
 303 03b4 082082E0 		add	r2, r2, r8
 304 03b8 5020C0F2 		vmov.i32	q9, #0  @ v4si
 305 03bc E248F0F2 		vext.32	q10, q8, q9, #2
 306 03c0 F40960F2 		vmul.i32	q8, q8, q10
 307 03c4 E224F0F2 		vext.32	q9, q8, q9, #1
 308 03c8 F20960F2 		vmul.i32	q8, q8, q9
 309 03cc 903B10EE 		vmov.32	r3, d16[0]
 310 03d0 930606E0 		mul	r6, r3, r6
 311 03d4 0C00000A 		beq	.L24
 312              	.L25:
 313 03d8 02C190E7 		ldr	ip, [r0, r2, lsl #2]
 314 03dc 013082E2 		add	r3, r2, #1
 315 03e0 010053E1 		cmp	r3, r1
 316 03e4 0231A0E1 		lsl	r3, r2, #2
 317 03e8 9C0606E0 		mul	r6, ip, r6
 318 03ec 060000AA 		bge	.L24
 319 03f0 030080E0 		add	r0, r0, r3
 320 03f4 022082E2 		add	r2, r2, #2
 321 03f8 043090E5 		ldr	r3, [r0, #4]
 322 03fc 010052E1 		cmp	r2, r1
 323 0400 930606E0 		mul	r6, r3, r6
 324 0404 083090B5 		ldrlt	r3, [r0, #8]
 325 0408 930606B0 		mullt	r6, r3, r6
 326              	.L24:
 327 040c 08309DE5 		ldr	r3, [sp, #8]
 328 0410 050051E3 		cmp	r1, #5
 329 0414 083093E5 		ldr	r3, [r3, #8]
 330 0418 007093E5 		ldr	r7, [r3]
 331 041c 8770A0E1 		lsl	r7, r7, #1
 332 0420 AA0000CA 		bgt	.L116
 333              	.L31:
 334 0424 070056E1 		cmp	r6, r7
 335 0428 FFFEFF1A 		bne	.L12
 336 042c 04309DE5 		ldr	r3, [sp, #4]
 337 0430 1430D3E5 		ldrb	r3, [r3, #20]	@ zero_extendqisi2
 338 0434 010053E3 		cmp	r3, #1
 339 0438 FBFEFF1A 		bne	.L12
 340 043c 08309DE5 		ldr	r3, [sp, #8]
 341 0440 080093E5 		ldr	r0, [r3, #8]
 342 0444 04309DE5 		ldr	r3, [sp, #4]
 343 0448 009090E5 		ldr	r9, [r0]
 344 044c 046093E5 		ldr	r6, [r3, #4]
 345 0450 000059E3 		cmp	r9, #0
 346 0454 1A0000DA 		ble	.L32
 347 0458 08809AE5 		ldr	r8, [r10, #8]
 348 045c 00C096E5 		ldr	ip, [r6]
 349 0460 041096E5 		ldr	r1, [r6, #4]
 350 0464 043098E5 		ldr	r3, [r8, #4]
 351 0468 042090E5 		ldr	r2, [r0, #4]
 352 046c 0C3083E0 		add	r3, r3, ip
 353 0470 013083E0 		add	r3, r3, r1
 354 0474 030052E1 		cmp	r2, r3
 355 0478 08008002 		addeq	r0, r0, #8
 356 047c 08808802 		addeq	r8, r8, #8
 357 0480 06E0A001 		moveq	lr, r6
 358 0484 00C0A003 		moveq	ip, #0
 359 0488 0A00000A 		beq	.L34
 360 048c E6FEFFEA 		b	.L12
 361              	.L35:
 362 0490 0E20A0E1 		mov	r2, lr
 363 0494 08709EE5 		ldr	r7, [lr, #8]
 364 0498 043098E4 		ldr	r3, [r8], #4
 365 049c 08E08EE2 		add	lr, lr, #8
 366 04a0 0C1092E5 		ldr	r1, [r2, #12]
 367 04a4 042090E4 		ldr	r2, [r0], #4
 368 04a8 073083E0 		add	r3, r3, r7
 369 04ac 013083E0 		add	r3, r3, r1
 370 04b0 030052E1 		cmp	r2, r3
 371 04b4 DCFEFF1A 		bne	.L12
 372              	.L34:
 373 04b8 01C08CE2 		add	ip, ip, #1
 374 04bc 09005CE1 		cmp	ip, r9
 375 04c0 F2FFFF1A 		bne	.L35
 376              	.L32:
 377 04c4 04309DE5 		ldr	r3, [sp, #4]
 378 04c8 088093E5 		ldr	r8, [r3, #8]
 379 04cc 0230A0E3 		mov	r3, #2
 380 04d0 3030C4E5 		strb	r3, [r4, #48]
 381 04d4 002098E5 		ldr	r2, [r8]
 382 04d8 050052E3 		cmp	r2, #5
 383 04dc 38208DE5 		str	r2, [sp, #56]
 384 04e0 8F0000DA 		ble	.L72
 385 04e4 2E0272E3 		cmn	r2, #-536870910
 386 04e8 A80000CA 		bgt	.L19
 387 04ec 1273A0E1 		lsl	r7, r2, r3
 388 04f0 0700A0E1 		mov	r0, r7
 389 04f4 FEFFFFEB 		bl	_Znaj
 390 04f8 3C008DE5 		str	r0, [sp, #60]
 391              	.L36:
 392 04fc 041088E2 		add	r1, r8, #4
 393 0500 0720A0E1 		mov	r2, r7
 394 0504 FEFFFFEB 		bl	memcpy
 395 0508 38109DE5 		ldr	r1, [sp, #56]
 396 050c 050051E3 		cmp	r1, #5
 397 0510 7F0000DA 		ble	.L37
 398 0514 3CC09DE5 		ldr	ip, [sp, #60]
 399              	.L58:
 400 0518 5C31A0E7 		sbfx	r3, ip, #2, #1
 401 051c 033003E2 		and	r3, r3, #3
 402 0520 010053E1 		cmp	r3, r1
 403 0524 0130A021 		movcs	r3, r1
 404 0528 080051E3 		cmp	r1, #8
 405 052c 0130A091 		movls	r3, r1
 406 0530 000053E3 		cmp	r3, #0
 407 0534 7D00000A 		beq	.L73
 408 0538 0020A0E3 		mov	r2, #0
 409              	.L40:
 410 053c 02019CE7 		ldr	r0, [ip, r2, lsl #2]
 411 0540 012082E2 		add	r2, r2, #1
 412 0544 030052E1 		cmp	r2, r3
 413 0548 900505E0 		mul	r5, r0, r5
 414 054c FAFFFF1A 		bne	.L40
 415 0550 010052E1 		cmp	r2, r1
 416 0554 2000000A 		beq	.L41
 417              	.L39:
 418 0558 03E041E0 		sub	lr, r1, r3
 419 055c 017041E2 		sub	r7, r1, #1
 420 0560 04004EE2 		sub	r0, lr, #4
 421 0564 037047E0 		sub	r7, r7, r3
 422 0568 2001A0E1 		lsr	r0, r0, #2
 423 056c 020057E3 		cmp	r7, #2
 424 0570 010080E2 		add	r0, r0, #1
 425 0574 0071A0E1 		lsl	r7, r0, #2
 426 0578 1200009A 		bls	.L46
 427 057c 03318CE0 		add	r3, ip, r3, lsl #2
 428 0580 5140C0F2 		vmov.i32	q10, #1  @ v4si
 429 0584 0080A0E3 		mov	r8, #0
 430              	.L44:
 431 0588 018088E2 		add	r8, r8, #1
 432 058c DF0A63F4 		vld1.64	{d16-d17}, [r3:64]
 433 0590 080050E1 		cmp	r0, r8
 434 0594 103083E2 		add	r3, r3, #16
 435 0598 F04964F2 		vmul.i32	q10, q10, q8
 436 059c F9FFFF8A 		bhi	.L44
 437 05a0 5000C0F2 		vmov.i32	q8, #0  @ v4si
 438 05a4 0E0057E1 		cmp	r7, lr
 439 05a8 072082E0 		add	r2, r2, r7
 440 05ac E028F4F2 		vext.32	q9, q10, q8, #2
 441 05b0 F42962F2 		vmul.i32	q9, q9, q10
 442 05b4 E004F2F2 		vext.32	q8, q9, q8, #1
 443 05b8 F20960F2 		vmul.i32	q8, q8, q9
 444 05bc 903B10EE 		vmov.32	r3, d16[0]
 445 05c0 930505E0 		mul	r5, r3, r5
 446 05c4 0400000A 		beq	.L41
 447              	.L46:
 448 05c8 02319CE7 		ldr	r3, [ip, r2, lsl #2]
 449 05cc 012082E2 		add	r2, r2, #1
 450 05d0 020051E1 		cmp	r1, r2
 451 05d4 930505E0 		mul	r5, r3, r5
 452 05d8 FAFFFFCA 		bgt	.L46
 453              	.L41:
 454 05dc 050051E3 		cmp	r1, #5
 455 05e0 030000DA 		ble	.L47
 456 05e4 3C009DE5 		ldr	r0, [sp, #60]
 457 05e8 000050E3 		cmp	r0, #0
 458 05ec 0000000A 		beq	.L47
 459 05f0 FEFFFFEB 		bl	_ZdaPv
 460              	.L47:
 461 05f4 080055E3 		cmp	r5, #8
 462 05f8 4E00000A 		beq	.L117
 463              	.L48:
 464 05fc 08309AE5 		ldr	r3, [r10, #8]
 465 0600 003093E5 		ldr	r3, [r3]
 466 0604 012043E2 		sub	r2, r3, #1
 467 0608 7310AFE6 		sxtb	r1, r3
 468 060c 836186E0 		add	r6, r6, r3, lsl #3
 469 0610 033184E0 		add	r3, r4, r3, lsl #2
 470 0614 0010C4E5 		strb	r1, [r4]
 471 0618 1810C4E5 		strb	r1, [r4, #24]
 472 061c 050000EA 		b	.L50
 473              	.L118:
 474 0620 081016E5 		ldr	r1, [r6, #-8]
 475 0624 012042E2 		sub	r2, r2, #1
 476 0628 086046E2 		sub	r6, r6, #8
 477 062c 041003E4 		str	r1, [r3], #-4
 478 0630 041096E5 		ldr	r1, [r6, #4]
 479 0634 1C1083E5 		str	r1, [r3, #28]
 480              	.L50:
 481 0638 000052E3 		cmp	r2, #0
 482 063c F7FFFFAA 		bge	.L118
 483 0640 0030DAE5 		ldrb	r3, [r10]	@ zero_extendqisi2
 484 0644 030053E3 		cmp	r3, #3
 485 0648 09005313 		cmpne	r3, #9
 486 064c 0100A003 		moveq	r0, #1
 487 0650 0000A013 		movne	r0, #0
 488 0654 75FEFF1A 		bne	.L100
 489 0658 00209DE5 		ldr	r2, [sp]
 490 065c 000052E3 		cmp	r2, #0
 491 0660 4200000A 		beq	.L119
 492 0664 08309DE5 		ldr	r3, [sp, #8]
 493 0668 00209DE5 		ldr	r2, [sp]
 494 066c 103093E5 		ldr	r3, [r3, #16]
 495 0670 102092E5 		ldr	r2, [r2, #16]
 496 0674 020053E1 		cmp	r3, r2
 497 0678 6BFEFF1A 		bne	.L12
 498 067c 08209DE5 		ldr	r2, [sp, #8]
 499 0680 037A92ED 		vldr.32	s14, [r2, #12]
 500 0684 00209DE5 		ldr	r2, [sp]
 501 0688 037AD2ED 		vldr.32	s15, [r2, #12]
 502 068c 677AB4EE 		vcmp.f32	s14, s15
 503 0690 10FAF1EE 		vmrs	APSR_nzcv, FPSCR
 504 0694 64FEFF1A 		bne	.L12
 505              	.L53:
 506 0698 343084E5 		str	r3, [r4, #52]
 507 069c 0000A0E3 		mov	r0, #0
 508 06a0 62FEFFEA 		b	.L100
 509              	.L112:
 510 06a4 0220A0E3 		mov	r2, #2
 511 06a8 0610A0E1 		mov	r1, r6
 512 06ac 0700A0E1 		mov	r0, r7
 513 06b0 FEFFFFEB 		bl	_ZN6tflite8GetInputEPK13TfLiteContextPK10TfLiteNodei
 514 06b4 00008DE5 		str	r0, [sp]
 515 06b8 74FEFFEA 		b	.L13
 516              	.L71:
 517 06bc 0320A0E1 		mov	r2, r3
 518 06c0 24FFFFEA 		b	.L23
 519              	.L18:
 520 06c4 0261A0E1 		lsl	r6, r2, #2
 521 06c8 24008DE2 		add	r0, sp, #36
 522 06cc F0FEFFEA 		b	.L20
 523              	.L116:
 524 06d0 24009DE5 		ldr	r0, [sp, #36]
 525 06d4 000050E3 		cmp	r0, #0
 526 06d8 51FFFF0A 		beq	.L31
 527 06dc FEFFFFEB 		bl	_ZdaPv
 528 06e0 4FFFFFEA 		b	.L31
 529              	.L114:
 530 06e4 24009DE5 		ldr	r0, [sp, #36]
 531 06e8 F2FEFFEA 		b	.L56
 532              	.L115:
 533 06ec 000053E3 		cmp	r3, #0
 534 06f0 0160A003 		moveq	r6, #1
 535 06f4 0320A001 		moveq	r2, r3
 536 06f8 18FFFF0A 		beq	.L22
 537 06fc F7FEFFEA 		b	.L21
 538              	.L62:
 539 0700 0100A0E3 		mov	r0, #1
 540 0704 0010A0E3 		mov	r1, #0
 541 0708 0030A0E3 		mov	r3, #0
 542 070c C3FEFFEA 		b	.L15
 543              	.L111:
 544 0710 FEFFFFEB 		bl	abort
 545              	.L37:
 546 0714 000051E3 		cmp	r1, #0
 547 0718 B7FFFFDA 		ble	.L48
 548 071c 3CC08DE2 		add	ip, sp, #60
 549 0720 7CFFFFEA 		b	.L58
 550              	.L72:
 551 0724 0271A0E1 		lsl	r7, r2, #2
 552 0728 3C008DE2 		add	r0, sp, #60
 553 072c 72FFFFEA 		b	.L36
 554              	.L73:
 555 0730 0320A0E1 		mov	r2, r3
 556 0734 87FFFFEA 		b	.L39
 557              	.L117:
 558 0738 003096E5 		ldr	r3, [r6]
 559 073c 000053E3 		cmp	r3, #0
 560 0740 ADFFFF1A 		bne	.L48
 561 0744 043096E5 		ldr	r3, [r6, #4]
 562 0748 000053E3 		cmp	r3, #0
 563 074c AAFFFF1A 		bne	.L48
 564 0750 183096E5 		ldr	r3, [r6, #24]
 565 0754 000053E3 		cmp	r3, #0
 566 0758 A7FFFF1A 		bne	.L48
 567 075c 1C3096E5 		ldr	r3, [r6, #28]
 568 0760 000053E3 		cmp	r3, #0
 569 0764 0130A003 		moveq	r3, #1
 570 0768 3030C405 		strbeq	r3, [r4, #48]
 571 076c A2FFFFEA 		b	.L48
 572              	.L119:
 573 0770 030053E3 		cmp	r3, #3
 574 0774 08309DE5 		ldr	r3, [sp, #8]
 575 0778 103093E5 		ldr	r3, [r3, #16]
 576 077c 0A00000A 		beq	.L120
 577 0780 802083E2 		add	r2, r3, #128
 578 0784 FF0052E3 		cmp	r2, #255
 579 0788 C2FFFF9A 		bls	.L53
 580 078c 26FEFFEA 		b	.L12
 581              	.L19:
 582 0790 FEFFFFEB 		bl	__cxa_throw_bad_array_new_length
 583              	.L55:
 584 0794 08309DE5 		ldr	r3, [sp, #8]
 585 0798 0160A0E3 		mov	r6, #1
 586 079c 083093E5 		ldr	r3, [r3, #8]
 587 07a0 007093E5 		ldr	r7, [r3]
 588 07a4 1776A0E1 		lsl	r7, r7, r6
 589 07a8 1DFFFFEA 		b	.L31
 590              	.L120:
 591 07ac FF0053E3 		cmp	r3, #255
 592 07b0 B8FFFF9A 		bls	.L53
 593 07b4 1CFEFFEA 		b	.L12
 594              		.fnend
 596              		.section	.text._ZN6tflite3ops5micro3pad4EvalEP13TfLiteContextP10TfLiteNode,"ax",%progbits
 597              		.align	2
 598              		.global	_ZN6tflite3ops5micro3pad4EvalEP13TfLiteContextP10TfLiteNode
 599              		.syntax unified
 600              		.arm
 601              		.fpu neon
 603              	_ZN6tflite3ops5micro3pad4EvalEP13TfLiteContextP10TfLiteNode:
 604              		.fnstart
 605              	.LFB1321:
 606              		@ args = 0, pretend = 0, frame = 232
 607              		@ frame_needed = 0, uses_anonymous_args = 0
 608 0000 F04F2DE9 		push	{r4, r5, r6, r7, r8, r9, r10, fp, lr}
 609              		.save {r4, r5, r6, r7, r8, r9, r10, fp, lr}
 610              		.pad #236
 611 0004 ECD04DE2 		sub	sp, sp, #236
 612 0008 105091E5 		ldr	r5, [r1, #16]
 613 000c 000055E3 		cmp	r5, #0
 614 0010 2000000A 		beq	.L123
 615 0014 000050E3 		cmp	r0, #0
 616 0018 0060A0E1 		mov	r6, r0
 617 001c 1D00000A 		beq	.L123
 618 0020 002091E5 		ldr	r2, [r1]
 619 0024 0180A0E1 		mov	r8, r1
 620 0028 543090E5 		ldr	r3, [r0, #84]
 621 002c 041092E5 		ldr	r1, [r2, #4]
 622              	.LEHB0:
 623 0030 33FF2FE1 		blx	r3
 624 0034 003098E5 		ldr	r3, [r8]
 625 0038 0070A0E1 		mov	r7, r0
 626 003c 002093E5 		ldr	r2, [r3]
 627 0040 030052E3 		cmp	r2, #3
 628 0044 4507000A 		beq	.L1383
 629 0048 042098E5 		ldr	r2, [r8, #4]
 630 004c 0600A0E1 		mov	r0, r6
 631 0050 543096E5 		ldr	r3, [r6, #84]
 632 0054 041092E5 		ldr	r1, [r2, #4]
 633 0058 33FF2FE1 		blx	r3
 634 005c 0830D7E5 		ldrb	r3, [r7, #8]	@ zero_extendqisi2
 635 0060 0090A0E1 		mov	r9, r0
 636 0064 013043E2 		sub	r3, r3, #1
 637 0068 080053E3 		cmp	r3, #8
 638 006c 03F19F97 		ldrls	pc, [pc, r3, asl #2]
 639 0070 380700EA 		b	.L682
 640              	.L607:
 641 0074 E00D0000 		.word	.L683
 642 0078 4C0D0000 		.word	.L684
 643 007c 40010000 		.word	.L281
 644 0080 581D0000 		.word	.L682
 645 0084 581D0000 		.word	.L682
 646 0088 581D0000 		.word	.L682
 647 008c 581D0000 		.word	.L682
 648 0090 581D0000 		.word	.L682
 649 0094 9C000000 		.word	.L392
 650              	.L123:
 651 0098 FEFFFFEB 		bl	abort
 652              	.L392:
 653 009c D4A3D5E1 		ldrsb	r10, [r5, #52]
 654              	.L393:
 655 00a0 3030D5E5 		ldrb	r3, [r5, #48]	@ zero_extendqisi2
 656 00a4 010053E3 		cmp	r3, #1
 657 00a8 0203000A 		beq	.L1384
 658 00ac 0710A0E1 		mov	r1, r7
 659 00b0 88008DE2 		add	r0, sp, #136
 660 00b4 FEFFFFEB 		bl	_ZN6tflite5micro14GetTensorShapeEPK16TfLiteEvalTensor
 661              	.LEHE0:
 662 00b8 003097E5 		ldr	r3, [r7]
 663 00bc 0910A0E1 		mov	r1, r9
 664 00c0 A0008DE2 		add	r0, sp, #160
 665 00c4 3C308DE5 		str	r3, [sp, #60]
 666              	.LEHB1:
 667 00c8 FEFFFFEB 		bl	_ZN6tflite5micro14GetTensorShapeEPK16TfLiteEvalTensor
 668              	.LEHE1:
 669 00cc 88209DE5 		ldr	r2, [sp, #136]
 670 00d0 000059E3 		cmp	r9, #0
 671 00d4 00409915 		ldrne	r4, [r9]
 672 00d8 0940A001 		moveq	r4, r9
 673 00dc 0030A0E3 		mov	r3, #0
 674 00e0 050052E3 		cmp	r2, #5
 675 00e4 B8308DE5 		str	r3, [sp, #184]
 676 00e8 E20100CA 		bgt	.L1385
 677 00ec 050072E2 		rsbs	r0, r2, #5
 678 00f0 0530A0E3 		mov	r3, #5
 679 00f4 B8308DE5 		str	r3, [sp, #184]
 680 00f8 BF01000A 		beq	.L453
 681 00fc 010050E3 		cmp	r0, #1
 682 0100 0130A0E3 		mov	r3, #1
 683 0104 BC308DE5 		str	r3, [sp, #188]
 684 0108 BB01000A 		beq	.L453
 685 010c 020050E3 		cmp	r0, #2
 686 0110 C0308DE5 		str	r3, [sp, #192]
 687 0114 B801000A 		beq	.L453
 688 0118 030050E3 		cmp	r0, #3
 689 011c C4308DE5 		str	r3, [sp, #196]
 690 0120 B501000A 		beq	.L453
 691 0124 040050E3 		cmp	r0, #4
 692 0128 C8308DE5 		str	r3, [sp, #200]
 693 012c B201000A 		beq	.L453
 694 0130 050050E3 		cmp	r0, #5
 695 0134 CC308DE5 		str	r3, [sp, #204]
 696 0138 AF01000A 		beq	.L453
 697              	.LEHB2:
 698 013c FEFFFFEB 		bl	abort
 699              	.LEHE2:
 700              	.L281:
 701 0140 34A0D5E5 		ldrb	r10, [r5, #52]	@ zero_extendqisi2
 702              	.L282:
 703 0144 3030D5E5 		ldrb	r3, [r5, #48]	@ zero_extendqisi2
 704 0148 010053E3 		cmp	r3, #1
 705 014c 8501000A 		beq	.L1386
 706 0150 0710A0E1 		mov	r1, r7
 707 0154 88008DE2 		add	r0, sp, #136
 708              	.LEHB3:
 709 0158 FEFFFFEB 		bl	_ZN6tflite5micro14GetTensorShapeEPK16TfLiteEvalTensor
 710              	.LEHE3:
 711 015c 003097E5 		ldr	r3, [r7]
 712 0160 0910A0E1 		mov	r1, r9
 713 0164 A0008DE2 		add	r0, sp, #160
 714 0168 3C308DE5 		str	r3, [sp, #60]
 715              	.LEHB4:
 716 016c FEFFFFEB 		bl	_ZN6tflite5micro14GetTensorShapeEPK16TfLiteEvalTensor
 717              	.LEHE4:
 718 0170 88209DE5 		ldr	r2, [sp, #136]
 719 0174 000059E3 		cmp	r9, #0
 720 0178 00409915 		ldrne	r4, [r9]
 721 017c 0940A001 		moveq	r4, r9
 722 0180 0030A0E3 		mov	r3, #0
 723 0184 050052E3 		cmp	r2, #5
 724 0188 B8308DE5 		str	r3, [sp, #184]
 725 018c 430000CA 		bgt	.L1387
 726 0190 050072E2 		rsbs	r0, r2, #5
 727 0194 0530A0E3 		mov	r3, #5
 728 0198 B8308DE5 		str	r3, [sp, #184]
 729 019c 2000000A 		beq	.L342
 730 01a0 010050E3 		cmp	r0, #1
 731 01a4 0130A0E3 		mov	r3, #1
 732 01a8 BC308DE5 		str	r3, [sp, #188]
 733 01ac 1C00000A 		beq	.L342
 734 01b0 020050E3 		cmp	r0, #2
 735 01b4 C0308DE5 		str	r3, [sp, #192]
 736 01b8 1900000A 		beq	.L342
 737 01bc 030050E3 		cmp	r0, #3
 738 01c0 C4308DE5 		str	r3, [sp, #196]
 739 01c4 1600000A 		beq	.L342
 740 01c8 040050E3 		cmp	r0, #4
 741 01cc C8308DE5 		str	r3, [sp, #200]
 742 01d0 1300000A 		beq	.L342
 743 01d4 050050E3 		cmp	r0, #5
 744 01d8 CC308DE5 		str	r3, [sp, #204]
 745 01dc 1000000A 		beq	.L342
 746              	.LEHB5:
 747 01e0 FEFFFFEB 		bl	abort
 748              	.LEHE5:
 749              	.L696:
 750              	.L575:
 751 01e4 A0309DE5 		ldr	r3, [sp, #160]
 752 01e8 050053E3 		cmp	r3, #5
 753 01ec 030000DA 		ble	.L596
 754 01f0 A4009DE5 		ldr	r0, [sp, #164]
 755 01f4 000050E3 		cmp	r0, #0
 756 01f8 0000000A 		beq	.L596
 757 01fc FEFFFFEB 		bl	_ZdaPv
 758              	.L596:
 759 0200 88309DE5 		ldr	r3, [sp, #136]
 760 0204 050053E3 		cmp	r3, #5
 761 0208 030000DA 		ble	.L597
 762 020c 8C009DE5 		ldr	r0, [sp, #140]
 763 0210 000050E3 		cmp	r0, #0
 764 0214 0000000A 		beq	.L597
 765 0218 FEFFFFEB 		bl	_ZdaPv
 766              	.L597:
 767              	.LEHB6:
 768 021c FEFFFFEB 		bl	__cxa_end_cleanup
 769              	.LEHE6:
 770              	.L692:
 771 0220 EFFFFFEA 		b	.L575
 772              	.L342:
 773 0224 BC308DE2 		add	r3, sp, #188
 774 0228 0221A0E1 		lsl	r2, r2, #2
 775 022c 000183E0 		add	r0, r3, r0, lsl #2
 776 0230 8C108DE2 		add	r1, sp, #140
 777 0234 FEFFFFEB 		bl	memcpy
 778 0238 A0209DE5 		ldr	r2, [sp, #160]
 779 023c 0030A0E3 		mov	r3, #0
 780 0240 D0308DE5 		str	r3, [sp, #208]
 781 0244 050052E3 		cmp	r2, #5
 782 0248 430100CA 		bgt	.L1388
 783 024c 050072E2 		rsbs	r0, r2, #5
 784 0250 0530A0E3 		mov	r3, #5
 785 0254 D0308DE5 		str	r3, [sp, #208]
 786 0258 1900000A 		beq	.L347
 787 025c 010050E3 		cmp	r0, #1
 788 0260 0130A0E3 		mov	r3, #1
 789 0264 D4308DE5 		str	r3, [sp, #212]
 790 0268 1500000A 		beq	.L347
 791 026c 020050E3 		cmp	r0, #2
 792 0270 D8308DE5 		str	r3, [sp, #216]
 793 0274 1200000A 		beq	.L347
 794 0278 030050E3 		cmp	r0, #3
 795 027c DC308DE5 		str	r3, [sp, #220]
 796 0280 0F00000A 		beq	.L347
 797 0284 040050E3 		cmp	r0, #4
 798 0288 E0308DE5 		str	r3, [sp, #224]
 799 028c 0C00000A 		beq	.L347
 800 0290 050050E3 		cmp	r0, #5
 801 0294 E4308DE5 		str	r3, [sp, #228]
 802 0298 0900000A 		beq	.L347
 803              	.LEHB7:
 804 029c FEFFFFEB 		bl	abort
 805              	.LEHE7:
 806              	.L1387:
 807              	.LEHB8:
 808 02a0 FEFFFFEB 		bl	abort
 809              	.LEHE8:
 810              	.L705:
 811              	.L573:
 812 02a4 B8309DE5 		ldr	r3, [sp, #184]
 813 02a8 050053E3 		cmp	r3, #5
 814 02ac CCFFFFDA 		ble	.L575
 815 02b0 BC009DE5 		ldr	r0, [sp, #188]
 816 02b4 000050E3 		cmp	r0, #0
 817 02b8 C9FFFF0A 		beq	.L575
 818 02bc FEFFFFEB 		bl	_ZdaPv
 819 02c0 C7FFFFEA 		b	.L575
 820              	.L347:
 821 02c4 D4308DE2 		add	r3, sp, #212
 822 02c8 0221A0E1 		lsl	r2, r2, #2
 823 02cc 000183E0 		add	r0, r3, r0, lsl #2
 824 02d0 A4108DE2 		add	r1, sp, #164
 825 02d4 FEFFFFEB 		bl	memcpy
 826 02d8 D020D5E1 		ldrsb	r2, [r5]
 827 02dc 050052E3 		cmp	r2, #5
 828 02e0 1C0100CA 		bgt	.L1389
 829 02e4 D861D5E1 		ldrsb	r6, [r5, #24]
 830 02e8 050056E3 		cmp	r6, #5
 831 02ec EA0000CA 		bgt	.L349
 832 02f0 000052E3 		cmp	r2, #0
 833 02f4 0030A0E3 		mov	r3, #0
 834 02f8 60308DE5 		str	r3, [sp, #96]
 835 02fc 64308DE5 		str	r3, [sp, #100]
 836 0300 68308DE5 		str	r3, [sp, #104]
 837 0304 6C308DE5 		str	r3, [sp, #108]
 838 0308 70308DE5 		str	r3, [sp, #112]
 839 030c 050000DA 		ble	.L350
 840 0310 E8308DE2 		add	r3, sp, #232
 841 0314 041085E2 		add	r1, r5, #4
 842 0318 020143E0 		sub	r0, r3, r2, lsl #2
 843 031c 0221A0E1 		lsl	r2, r2, #2
 844 0320 740040E2 		sub	r0, r0, #116
 845 0324 FEFFFFEB 		bl	memcpy
 846              	.L350:
 847 0328 000056E3 		cmp	r6, #0
 848 032c 0030A0E3 		mov	r3, #0
 849 0330 74308DE5 		str	r3, [sp, #116]
 850 0334 78308DE5 		str	r3, [sp, #120]
 851 0338 7C308DE5 		str	r3, [sp, #124]
 852 033c 80308DE5 		str	r3, [sp, #128]
 853 0340 84308DE5 		str	r3, [sp, #132]
 854 0344 050000DA 		ble	.L357
 855 0348 E8308DE2 		add	r3, sp, #232
 856 034c 1C1085E2 		add	r1, r5, #28
 857 0350 060143E0 		sub	r0, r3, r6, lsl #2
 858 0354 0621A0E1 		lsl	r2, r6, #2
 859 0358 600040E2 		sub	r0, r0, #96
 860 035c FEFFFFEB 		bl	memcpy
 861              	.L357:
 862 0360 D0309DE5 		ldr	r3, [sp, #208]
 863 0364 000053E3 		cmp	r3, #0
 864 0368 2C308DE5 		str	r3, [sp, #44]
 865 036c F80000DA 		ble	.L1390
 866 0370 050053E3 		cmp	r3, #5
 867 0374 D60000CA 		bgt	.L1391
 868 0378 010053E3 		cmp	r3, #1
 869 037c D4309DE5 		ldr	r3, [sp, #212]
 870 0380 30308DE5 		str	r3, [sp, #48]
 871 0384 D000000A 		beq	.L1392
 872 0388 2C309DE5 		ldr	r3, [sp, #44]
 873 038c D8209DE5 		ldr	r2, [sp, #216]
 874 0390 020053E3 		cmp	r3, #2
 875 0394 1C208DE5 		str	r2, [sp, #28]
 876 0398 C100000A 		beq	.L620
 877 039c DC209DE5 		ldr	r2, [sp, #220]
 878 03a0 030053E3 		cmp	r3, #3
 879 03a4 14208DE5 		str	r2, [sp, #20]
 880 03a8 BE00000A 		beq	.L621
 881 03ac 040053E3 		cmp	r3, #4
 882 03b0 E0709DE5 		ldr	r7, [sp, #224]
 883 03b4 B900000A 		beq	.L1393
 884 03b8 60209DE5 		ldr	r2, [sp, #96]
 885 03bc 30309DE5 		ldr	r3, [sp, #48]
 886 03c0 E4909DE5 		ldr	r9, [sp, #228]
 887 03c4 08208DE5 		str	r2, [sp, #8]
 888 03c8 64209DE5 		ldr	r2, [sp, #100]
 889 03cc 000053E3 		cmp	r3, #0
 890 03d0 48208DE5 		str	r2, [sp, #72]
 891 03d4 68209DE5 		ldr	r2, [sp, #104]
 892 03d8 20208DE5 		str	r2, [sp, #32]
 893 03dc 6C209DE5 		ldr	r2, [sp, #108]
 894 03e0 04208DE5 		str	r2, [sp, #4]
 895 03e4 70209DE5 		ldr	r2, [sp, #112]
 896 03e8 38208DE5 		str	r2, [sp, #56]
 897 03ec 74209DE5 		ldr	r2, [sp, #116]
 898 03f0 44208DE5 		str	r2, [sp, #68]
 899 03f4 78209DE5 		ldr	r2, [sp, #120]
 900 03f8 24208DE5 		str	r2, [sp, #36]
 901 03fc 7C209DE5 		ldr	r2, [sp, #124]
 902 0400 28208DE5 		str	r2, [sp, #40]
 903 0404 80209DE5 		ldr	r2, [sp, #128]
 904 0408 34208DE5 		str	r2, [sp, #52]
 905 040c 84209DE5 		ldr	r2, [sp, #132]
 906 0410 760000DA 		ble	.L528
 907 0414 40308DE5 		str	r3, [sp, #64]
 908              	.L360:
 909 0418 1C309DE5 		ldr	r3, [sp, #28]
 910 041c 000053E3 		cmp	r3, #0
 911 0420 6A0000DA 		ble	.L363
 912 0424 023049E0 		sub	r3, r9, r2
 913 0428 00B0A0E3 		mov	fp, #0
 914 042c 4C308DE5 		str	r3, [sp, #76]
 915 0430 0430A0E1 		mov	r3, r4
 916 0434 0B40A0E1 		mov	r4, fp
 917 0438 03B0A0E1 		mov	fp, r3
 918              	.L378:
 919 043c 0030A0E3 		mov	r3, #0
 920 0440 18308DE5 		str	r3, [sp, #24]
 921              	.L377:
 922 0444 14309DE5 		ldr	r3, [sp, #20]
 923 0448 000053E3 		cmp	r3, #0
 924 044c 550000DA 		ble	.L364
 925 0450 30309DE5 		ldr	r3, [sp, #48]
 926 0454 0060A0E3 		mov	r6, #0
 927 0458 44209DE5 		ldr	r2, [sp, #68]
 928 045c 48109DE5 		ldr	r1, [sp, #72]
 929 0460 022043E0 		sub	r2, r3, r2
 930 0464 18309DE5 		ldr	r3, [sp, #24]
 931 0468 010053E1 		cmp	r3, r1
 932 046c 0010A0A3 		movge	r1, #0
 933 0470 0110A0B3 		movlt	r1, #1
 934 0474 020054E1 		cmp	r4, r2
 935 0478 011081A3 		orrge	r1, r1, #1
 936 047c 0C108DE5 		str	r1, [sp, #12]
 937              	.L376:
 938 0480 000057E3 		cmp	r7, #0
 939 0484 430000DA 		ble	.L365
 940 0488 1C309DE5 		ldr	r3, [sp, #28]
 941 048c 0050A0E3 		mov	r5, #0
 942 0490 24209DE5 		ldr	r2, [sp, #36]
 943 0494 022043E0 		sub	r2, r3, r2
 944 0498 20309DE5 		ldr	r3, [sp, #32]
 945 049c 030056E1 		cmp	r6, r3
 946 04a0 18309DE5 		ldr	r3, [sp, #24]
 947 04a4 0010A0A3 		movge	r1, #0
 948 04a8 0110A0B3 		movlt	r1, #1
 949 04ac 020053E1 		cmp	r3, r2
 950 04b0 011081A3 		orrge	r1, r1, #1
 951 04b4 14309DE5 		ldr	r3, [sp, #20]
 952 04b8 28209DE5 		ldr	r2, [sp, #40]
 953 04bc 10108DE5 		str	r1, [sp, #16]
 954 04c0 028043E0 		sub	r8, r3, r2
 955 04c4 0830A0E1 		mov	r3, r8
 956 04c8 0B80A0E1 		mov	r8, fp
 957 04cc 03B0A0E1 		mov	fp, r3
 958              	.L375:
 959 04d0 000059E3 		cmp	r9, #0
 960 04d4 2B0000DA 		ble	.L366
 961 04d8 04309DE5 		ldr	r3, [sp, #4]
 962 04dc 030055E1 		cmp	r5, r3
 963 04e0 06005BA1 		cmpge	fp, r6
 964 04e4 08309DE5 		ldr	r3, [sp, #8]
 965 04e8 0120A0D3 		movle	r2, #1
 966 04ec 0020A0C3 		movgt	r2, #0
 967 04f0 030054E1 		cmp	r4, r3
 968 04f4 1E0000BA 		blt	.L367
 969 04f8 0C309DE5 		ldr	r3, [sp, #12]
 970 04fc 000053E3 		cmp	r3, #0
 971 0500 5200001A 		bne	.L368
 972 0504 000052E3 		cmp	r2, #0
 973 0508 10309DE5 		ldr	r3, [sp, #16]
 974 050c 5800001A 		bne	.L369
 975 0510 000053E3 		cmp	r3, #0
 976 0514 4D00001A 		bne	.L368
 977 0518 0320A0E1 		mov	r2, r3
 978 051c 34309DE5 		ldr	r3, [sp, #52]
 979 0520 011088E2 		add	r1, r8, #1
 980 0524 38009DE5 		ldr	r0, [sp, #56]
 981 0528 03C047E0 		sub	ip, r7, r3
 982 052c 0B0000EA 		b	.L372
 983              	.L1395:
 984 0530 4C309DE5 		ldr	r3, [sp, #76]
 985 0534 030052E1 		cmp	r2, r3
 986 0538 0B0000AA 		bge	.L663
 987 053c 3CE09DE5 		ldr	lr, [sp, #60]
 988 0540 0030DEE5 		ldrb	r3, [lr]	@ zero_extendqisi2
 989 0544 01E08EE2 		add	lr, lr, #1
 990 0548 3CE08DE5 		str	lr, [sp, #60]
 991              	.L371:
 992 054c 012082E2 		add	r2, r2, #1
 993 0550 013041E5 		strb	r3, [r1, #-1]
 994 0554 020059E1 		cmp	r9, r2
 995 0558 011081E2 		add	r1, r1, #1
 996 055c 4900000A 		beq	.L1394
 997              	.L372:
 998 0560 020050E1 		cmp	r0, r2
 999 0564 0C0055D1 		cmple	r5, ip
 1000 0568 F0FFFFBA 		blt	.L1395
 1001              	.L663:
 1002 056c 0A30A0E1 		mov	r3, r10
 1003 0570 F5FFFFEA 		b	.L371
 1004              	.L367:
 1005 0574 0800A0E1 		mov	r0, r8
 1006 0578 0920A0E1 		mov	r2, r9
 1007 057c 098088E0 		add	r8, r8, r9
 1008 0580 0A10A0E1 		mov	r1, r10
 1009              	.L1236:
 1010 0584 FEFFFFEB 		bl	memset
 1011              	.L366:
 1012 0588 015085E2 		add	r5, r5, #1
 1013 058c 070055E1 		cmp	r5, r7
 1014 0590 CEFFFF1A 		bne	.L375
 1015              	.L1396:
 1016 0594 08B0A0E1 		mov	fp, r8
 1017              	.L365:
 1018 0598 14309DE5 		ldr	r3, [sp, #20]
 1019 059c 016086E2 		add	r6, r6, #1
 1020 05a0 030056E1 		cmp	r6, r3
 1021 05a4 B5FFFF1A 		bne	.L376
 1022              	.L364:
 1023 05a8 18309DE5 		ldr	r3, [sp, #24]
 1024 05ac 1C209DE5 		ldr	r2, [sp, #28]
 1025 05b0 013083E2 		add	r3, r3, #1
 1026 05b4 020053E1 		cmp	r3, r2
 1027 05b8 18308DE5 		str	r3, [sp, #24]
 1028 05bc A0FFFF1A 		bne	.L377
 1029 05c0 30309DE5 		ldr	r3, [sp, #48]
 1030 05c4 014084E2 		add	r4, r4, #1
 1031 05c8 030054E1 		cmp	r4, r3
 1032 05cc 9AFFFFBA 		blt	.L378
 1033              	.L363:
 1034 05d0 2C309DE5 		ldr	r3, [sp, #44]
 1035 05d4 050053E3 		cmp	r3, #5
 1036 05d8 0400000A 		beq	.L528
 1037              	.L359:
 1038 05dc 40309DE5 		ldr	r3, [sp, #64]
 1039 05e0 000053E3 		cmp	r3, #0
 1040 05e4 0100000A 		beq	.L528
 1041              	.L1321:
 1042 05e8 0300A0E1 		mov	r0, r3
 1043 05ec FEFFFFEB 		bl	_ZdaPv
 1044              	.L528:
 1045 05f0 B8309DE5 		ldr	r3, [sp, #184]
 1046 05f4 050053E3 		cmp	r3, #5
 1047 05f8 030000DA 		ble	.L566
 1048 05fc BC009DE5 		ldr	r0, [sp, #188]
 1049 0600 000050E3 		cmp	r0, #0
 1050 0604 0000000A 		beq	.L566
 1051 0608 FEFFFFEB 		bl	_ZdaPv
 1052              	.L566:
 1053 060c A0309DE5 		ldr	r3, [sp, #160]
 1054 0610 050053E3 		cmp	r3, #5
 1055 0614 030000DA 		ble	.L568
 1056 0618 A4009DE5 		ldr	r0, [sp, #164]
 1057 061c 000050E3 		cmp	r0, #0
 1058 0620 0000000A 		beq	.L568
 1059 0624 FEFFFFEB 		bl	_ZdaPv
 1060              	.L568:
 1061 0628 88309DE5 		ldr	r3, [sp, #136]
 1062 062c 050053E3 		cmp	r3, #5
 1063 0630 030000DA 		ble	.L576
 1064 0634 8C009DE5 		ldr	r0, [sp, #140]
 1065 0638 000050E3 		cmp	r0, #0
 1066 063c 0000000A 		beq	.L576
 1067 0640 FEFFFFEB 		bl	_ZdaPv
 1068              	.L576:
 1069 0644 0000A0E3 		mov	r0, #0
 1070              	.L1179:
 1071 0648 ECD08DE2 		add	sp, sp, #236
 1072              		@ sp needed
 1073 064c F08FBDE8 		pop	{r4, r5, r6, r7, r8, r9, r10, fp, pc}
 1074              	.L368:
 1075 0650 0800A0E1 		mov	r0, r8
 1076 0654 0920A0E1 		mov	r2, r9
 1077 0658 0A10A0E1 		mov	r1, r10
 1078 065c 015085E2 		add	r5, r5, #1
 1079 0660 FEFFFFEB 		bl	memset
 1080 0664 070055E1 		cmp	r5, r7
 1081 0668 098088E0 		add	r8, r8, r9
 1082 066c 97FFFF1A 		bne	.L375
 1083 0670 C7FFFFEA 		b	.L1396
 1084              	.L369:
 1085 0674 0800A0E1 		mov	r0, r8
 1086 0678 0920A0E1 		mov	r2, r9
 1087 067c 0A10A0E1 		mov	r1, r10
 1088 0680 098088E0 		add	r8, r8, r9
 1089 0684 BEFFFFEA 		b	.L1236
 1090              	.L1394:
 1091 0688 015085E2 		add	r5, r5, #1
 1092 068c 098088E0 		add	r8, r8, r9
 1093 0690 070055E1 		cmp	r5, r7
 1094 0694 8DFFFF1A 		bne	.L375
 1095 0698 BDFFFFEA 		b	.L1396
 1096              	.L349:
 1097              	.LEHB9:
 1098 069c FEFFFFEB 		bl	abort
 1099              	.LEHE9:
 1100              	.L1393:
 1101              	.LEHB10:
 1102 06a0 FEFFFFEB 		bl	abort
 1103              	.L620:
 1104 06a4 FEFFFFEB 		bl	abort
 1105              	.L621:
 1106 06a8 FEFFFFEB 		bl	abort
 1107              	.L720:
 1108              	.L1243:
 1109 06ac D0309DE5 		ldr	r3, [sp, #208]
 1110 06b0 050053E3 		cmp	r3, #5
 1111 06b4 FAFEFFDA 		ble	.L573
 1112 06b8 D4009DE5 		ldr	r0, [sp, #212]
 1113 06bc 000050E3 		cmp	r0, #0
 1114 06c0 F7FEFF0A 		beq	.L573
 1115 06c4 FEFFFFEB 		bl	_ZdaPv
 1116 06c8 F5FEFFEA 		b	.L573
 1117              	.L1392:
 1118 06cc FEFFFFEB 		bl	abort
 1119              	.L706:
 1120 06d0 F3FEFFEA 		b	.L573
 1121              	.L1391:
 1122 06d4 60309DE5 		ldr	r3, [sp, #96]
 1123 06d8 D4209DE5 		ldr	r2, [sp, #212]
 1124 06dc 08308DE5 		str	r3, [sp, #8]
 1125 06e0 64309DE5 		ldr	r3, [sp, #100]
 1126 06e4 041092E5 		ldr	r1, [r2, #4]
 1127 06e8 40208DE5 		str	r2, [sp, #64]
 1128 06ec 48308DE5 		str	r3, [sp, #72]
 1129 06f0 003092E5 		ldr	r3, [r2]
 1130 06f4 109092E5 		ldr	r9, [r2, #16]
 1131 06f8 0C7092E5 		ldr	r7, [r2, #12]
 1132 06fc 30308DE5 		str	r3, [sp, #48]
 1133 0700 000053E3 		cmp	r3, #0
 1134 0704 083092E5 		ldr	r3, [r2, #8]
 1135 0708 1C108DE5 		str	r1, [sp, #28]
 1136 070c 84209DE5 		ldr	r2, [sp, #132]
 1137 0710 14308DE5 		str	r3, [sp, #20]
 1138 0714 68309DE5 		ldr	r3, [sp, #104]
 1139 0718 20308DE5 		str	r3, [sp, #32]
 1140 071c 6C309DE5 		ldr	r3, [sp, #108]
 1141 0720 04308DE5 		str	r3, [sp, #4]
 1142 0724 70309DE5 		ldr	r3, [sp, #112]
 1143 0728 38308DE5 		str	r3, [sp, #56]
 1144 072c 74309DE5 		ldr	r3, [sp, #116]
 1145 0730 44308DE5 		str	r3, [sp, #68]
 1146 0734 78309DE5 		ldr	r3, [sp, #120]
 1147 0738 24308DE5 		str	r3, [sp, #36]
 1148 073c 7C309DE5 		ldr	r3, [sp, #124]
 1149 0740 28308DE5 		str	r3, [sp, #40]
 1150 0744 80309DE5 		ldr	r3, [sp, #128]
 1151 0748 34308DE5 		str	r3, [sp, #52]
 1152 074c 31FFFFCA 		bgt	.L360
 1153 0750 A1FFFFEA 		b	.L359
 1154              	.L1390:
 1155 0754 FEFFFFEB 		bl	abort
 1156              	.LEHE10:
 1157              	.L1389:
 1158              	.LEHB11:
 1159 0758 FEFFFFEB 		bl	abort
 1160              	.LEHE11:
 1161              	.L1388:
 1162              	.LEHB12:
 1163 075c FEFFFFEB 		bl	abort
 1164              	.LEHE12:
 1165              	.L719:
 1166 0760 D1FFFFEA 		b	.L1243
 1167              	.L691:
 1168 0764 A5FEFFEA 		b	.L596
 1169              	.L1386:
 1170 0768 0710A0E1 		mov	r1, r7
 1171 076c 88008DE2 		add	r0, sp, #136
 1172              	.LEHB13:
 1173 0770 FEFFFFEB 		bl	_ZN6tflite5micro14GetTensorShapeEPK16TfLiteEvalTensor
 1174              	.LEHE13:
 1175 0774 003097E5 		ldr	r3, [r7]
 1176 0778 0910A0E1 		mov	r1, r9
 1177 077c A0008DE2 		add	r0, sp, #160
 1178 0780 44308DE5 		str	r3, [sp, #68]
 1179              	.LEHB14:
 1180 0784 FEFFFFEB 		bl	_ZN6tflite5micro14GetTensorShapeEPK16TfLiteEvalTensor
 1181              	.LEHE14:
 1182 0788 88209DE5 		ldr	r2, [sp, #136]
 1183 078c 000059E3 		cmp	r9, #0
 1184 0790 00409915 		ldrne	r4, [r9]
 1185 0794 0940A001 		moveq	r4, r9
 1186 0798 0030A0E3 		mov	r3, #0
 1187 079c 050052E3 		cmp	r2, #5
 1188 07a0 B8308DE5 		str	r3, [sp, #184]
 1189 07a4 8A0700CA 		bgt	.L1397
 1190 07a8 050072E2 		rsbs	r0, r2, #5
 1191 07ac 0530A0E3 		mov	r3, #5
 1192 07b0 B8308DE5 		str	r3, [sp, #184]
 1193 07b4 6707000A 		beq	.L288
 1194 07b8 010050E3 		cmp	r0, #1
 1195 07bc 0130A0E3 		mov	r3, #1
 1196 07c0 BC308DE5 		str	r3, [sp, #188]
 1197 07c4 6307000A 		beq	.L288
 1198 07c8 020050E3 		cmp	r0, #2
 1199 07cc C0308DE5 		str	r3, [sp, #192]
 1200 07d0 6007000A 		beq	.L288
 1201 07d4 030050E3 		cmp	r0, #3
 1202 07d8 C4308DE5 		str	r3, [sp, #196]
 1203 07dc 5D07000A 		beq	.L288
 1204 07e0 040050E3 		cmp	r0, #4
 1205 07e4 C8308DE5 		str	r3, [sp, #200]
 1206 07e8 5A07000A 		beq	.L288
 1207 07ec 050050E3 		cmp	r0, #5
 1208 07f0 CC308DE5 		str	r3, [sp, #204]
 1209 07f4 5707000A 		beq	.L288
 1210              	.LEHB15:
 1211 07f8 FEFFFFEB 		bl	abort
 1212              	.LEHE15:
 1213              	.L453:
 1214 07fc BC308DE2 		add	r3, sp, #188
 1215 0800 0221A0E1 		lsl	r2, r2, #2
 1216 0804 000183E0 		add	r0, r3, r0, lsl #2
 1217 0808 8C108DE2 		add	r1, sp, #140
 1218 080c FEFFFFEB 		bl	memcpy
 1219 0810 A0209DE5 		ldr	r2, [sp, #160]
 1220 0814 0030A0E3 		mov	r3, #0
 1221 0818 D0308DE5 		str	r3, [sp, #208]
 1222 081c 050052E3 		cmp	r2, #5
 1223 0820 210100CA 		bgt	.L1398
 1224 0824 050072E2 		rsbs	r0, r2, #5
 1225 0828 0530A0E3 		mov	r3, #5
 1226 082c D0308DE5 		str	r3, [sp, #208]
 1227 0830 1200000A 		beq	.L458
 1228 0834 010050E3 		cmp	r0, #1
 1229 0838 0130A0E3 		mov	r3, #1
 1230 083c D4308DE5 		str	r3, [sp, #212]
 1231 0840 0E00000A 		beq	.L458
 1232 0844 020050E3 		cmp	r0, #2
 1233 0848 D8308DE5 		str	r3, [sp, #216]
 1234 084c 0B00000A 		beq	.L458
 1235 0850 030050E3 		cmp	r0, #3
 1236 0854 DC308DE5 		str	r3, [sp, #220]
 1237 0858 0800000A 		beq	.L458
 1238 085c 040050E3 		cmp	r0, #4
 1239 0860 E0308DE5 		str	r3, [sp, #224]
 1240 0864 0500000A 		beq	.L458
 1241 0868 050050E3 		cmp	r0, #5
 1242 086c E4308DE5 		str	r3, [sp, #228]
 1243 0870 0200000A 		beq	.L458
 1244              	.LEHB16:
 1245 0874 FEFFFFEB 		bl	abort
 1246              	.LEHE16:
 1247              	.L1385:
 1248              	.LEHB17:
 1249 0878 FEFFFFEB 		bl	abort
 1250              	.LEHE17:
 1251              	.L709:
 1252 087c 88FEFFEA 		b	.L573
 1253              	.L458:
 1254 0880 D4308DE2 		add	r3, sp, #212
 1255 0884 0221A0E1 		lsl	r2, r2, #2
 1256 0888 000183E0 		add	r0, r3, r0, lsl #2
 1257 088c A4108DE2 		add	r1, sp, #164
 1258 0890 FEFFFFEB 		bl	memcpy
 1259 0894 D020D5E1 		ldrsb	r2, [r5]
 1260 0898 050052E3 		cmp	r2, #5
 1261 089c 010100CA 		bgt	.L1399
 1262 08a0 D861D5E1 		ldrsb	r6, [r5, #24]
 1263 08a4 050056E3 		cmp	r6, #5
 1264 08a8 DB0000CA 		bgt	.L460
 1265 08ac 000052E3 		cmp	r2, #0
 1266 08b0 0030A0E3 		mov	r3, #0
 1267 08b4 60308DE5 		str	r3, [sp, #96]
 1268 08b8 64308DE5 		str	r3, [sp, #100]
 1269 08bc 68308DE5 		str	r3, [sp, #104]
 1270 08c0 6C308DE5 		str	r3, [sp, #108]
 1271 08c4 70308DE5 		str	r3, [sp, #112]
 1272 08c8 050000DA 		ble	.L461
 1273 08cc E8308DE2 		add	r3, sp, #232
 1274 08d0 041085E2 		add	r1, r5, #4
 1275 08d4 020143E0 		sub	r0, r3, r2, lsl #2
 1276 08d8 0221A0E1 		lsl	r2, r2, #2
 1277 08dc 740040E2 		sub	r0, r0, #116
 1278 08e0 FEFFFFEB 		bl	memcpy
 1279              	.L461:
 1280 08e4 000056E3 		cmp	r6, #0
 1281 08e8 0030A0E3 		mov	r3, #0
 1282 08ec 74308DE5 		str	r3, [sp, #116]
 1283 08f0 78308DE5 		str	r3, [sp, #120]
 1284 08f4 7C308DE5 		str	r3, [sp, #124]
 1285 08f8 80308DE5 		str	r3, [sp, #128]
 1286 08fc 84308DE5 		str	r3, [sp, #132]
 1287 0900 050000DA 		ble	.L468
 1288 0904 E8308DE2 		add	r3, sp, #232
 1289 0908 1C1085E2 		add	r1, r5, #28
 1290 090c 060143E0 		sub	r0, r3, r6, lsl #2
 1291 0910 0621A0E1 		lsl	r2, r6, #2
 1292 0914 600040E2 		sub	r0, r0, #96
 1293 0918 FEFFFFEB 		bl	memcpy
 1294              	.L468:
 1295 091c D0309DE5 		ldr	r3, [sp, #208]
 1296 0920 000053E3 		cmp	r3, #0
 1297 0924 34308DE5 		str	r3, [sp, #52]
 1298 0928 DC0000DA 		ble	.L1400
 1299 092c 050053E3 		cmp	r3, #5
 1300 0930 BA0000CA 		bgt	.L1401
 1301 0934 010053E3 		cmp	r3, #1
 1302 0938 D4309DE5 		ldr	r3, [sp, #212]
 1303 093c 38308DE5 		str	r3, [sp, #56]
 1304 0940 B400000A 		beq	.L1402
 1305 0944 34309DE5 		ldr	r3, [sp, #52]
 1306 0948 D8209DE5 		ldr	r2, [sp, #216]
 1307 094c 020053E3 		cmp	r3, #2
 1308 0950 1C208DE5 		str	r2, [sp, #28]
 1309 0954 AE00000A 		beq	.L628
 1310 0958 DC209DE5 		ldr	r2, [sp, #220]
 1311 095c 030053E3 		cmp	r3, #3
 1312 0960 14208DE5 		str	r2, [sp, #20]
 1313 0964 A800000A 		beq	.L629
 1314 0968 040053E3 		cmp	r3, #4
 1315 096c E0709DE5 		ldr	r7, [sp, #224]
 1316 0970 A400000A 		beq	.L1403
 1317 0974 60209DE5 		ldr	r2, [sp, #96]
 1318 0978 38309DE5 		ldr	r3, [sp, #56]
 1319 097c E4909DE5 		ldr	r9, [sp, #228]
 1320 0980 04208DE5 		str	r2, [sp, #4]
 1321 0984 64209DE5 		ldr	r2, [sp, #100]
 1322 0988 000053E3 		cmp	r3, #0
 1323 098c 44208DE5 		str	r2, [sp, #68]
 1324 0990 68209DE5 		ldr	r2, [sp, #104]
 1325 0994 28208DE5 		str	r2, [sp, #40]
 1326 0998 6C209DE5 		ldr	r2, [sp, #108]
 1327 099c 08208DE5 		str	r2, [sp, #8]
 1328 09a0 70209DE5 		ldr	r2, [sp, #112]
 1329 09a4 2C208DE5 		str	r2, [sp, #44]
 1330 09a8 74209DE5 		ldr	r2, [sp, #116]
 1331 09ac 40208DE5 		str	r2, [sp, #64]
 1332 09b0 78209DE5 		ldr	r2, [sp, #120]
 1333 09b4 20208DE5 		str	r2, [sp, #32]
 1334 09b8 7C209DE5 		ldr	r2, [sp, #124]
 1335 09bc 24208DE5 		str	r2, [sp, #36]
 1336 09c0 80209DE5 		ldr	r2, [sp, #128]
 1337 09c4 30208DE5 		str	r2, [sp, #48]
 1338 09c8 84209DE5 		ldr	r2, [sp, #132]
 1339 09cc 07FFFFDA 		ble	.L528
 1340 09d0 48308DE5 		str	r3, [sp, #72]
 1341              	.L471:
 1342 09d4 1C309DE5 		ldr	r3, [sp, #28]
 1343 09d8 000053E3 		cmp	r3, #0
 1344 09dc 6F0000DA 		ble	.L474
 1345 09e0 023049E0 		sub	r3, r9, r2
 1346 09e4 00B0A0E3 		mov	fp, #0
 1347 09e8 4C308DE5 		str	r3, [sp, #76]
 1348 09ec 0430A0E1 		mov	r3, r4
 1349 09f0 0B40A0E1 		mov	r4, fp
 1350 09f4 03B0A0E1 		mov	fp, r3
 1351              	.L489:
 1352 09f8 0030A0E3 		mov	r3, #0
 1353 09fc 18308DE5 		str	r3, [sp, #24]
 1354              	.L488:
 1355 0a00 14309DE5 		ldr	r3, [sp, #20]
 1356 0a04 000053E3 		cmp	r3, #0
 1357 0a08 5A0000DA 		ble	.L475
 1358 0a0c 38309DE5 		ldr	r3, [sp, #56]
 1359 0a10 0060A0E3 		mov	r6, #0
 1360 0a14 40209DE5 		ldr	r2, [sp, #64]
 1361 0a18 44109DE5 		ldr	r1, [sp, #68]
 1362 0a1c 022043E0 		sub	r2, r3, r2
 1363 0a20 18309DE5 		ldr	r3, [sp, #24]
 1364 0a24 010053E1 		cmp	r3, r1
 1365 0a28 040052A1 		cmpge	r2, r4
 1366 0a2c 0130A0D3 		movle	r3, #1
 1367 0a30 0030A0C3 		movgt	r3, #0
 1368 0a34 0C308DE5 		str	r3, [sp, #12]
 1369 0a38 0B30A0E1 		mov	r3, fp
 1370 0a3c 04B0A0E1 		mov	fp, r4
 1371 0a40 0340A0E1 		mov	r4, r3
 1372              	.L487:
 1373 0a44 000057E3 		cmp	r7, #0
 1374 0a48 430000DA 		ble	.L476
 1375 0a4c 1C309DE5 		ldr	r3, [sp, #28]
 1376 0a50 0050A0E3 		mov	r5, #0
 1377 0a54 20209DE5 		ldr	r2, [sp, #32]
 1378 0a58 022043E0 		sub	r2, r3, r2
 1379 0a5c 28309DE5 		ldr	r3, [sp, #40]
 1380 0a60 030056E1 		cmp	r6, r3
 1381 0a64 18309DE5 		ldr	r3, [sp, #24]
 1382 0a68 0010A0A3 		movge	r1, #0
 1383 0a6c 0110A0B3 		movlt	r1, #1
 1384 0a70 020053E1 		cmp	r3, r2
 1385 0a74 011081A3 		orrge	r1, r1, #1
 1386 0a78 14309DE5 		ldr	r3, [sp, #20]
 1387 0a7c 24209DE5 		ldr	r2, [sp, #36]
 1388 0a80 10108DE5 		str	r1, [sp, #16]
 1389 0a84 028043E0 		sub	r8, r3, r2
 1390 0a88 0830A0E1 		mov	r3, r8
 1391 0a8c 0480A0E1 		mov	r8, r4
 1392 0a90 0340A0E1 		mov	r4, r3
 1393              	.L486:
 1394 0a94 000059E3 		cmp	r9, #0
 1395 0a98 2B0000DA 		ble	.L477
 1396 0a9c 08309DE5 		ldr	r3, [sp, #8]
 1397 0aa0 030055E1 		cmp	r5, r3
 1398 0aa4 060054A1 		cmpge	r4, r6
 1399 0aa8 04309DE5 		ldr	r3, [sp, #4]
 1400 0aac 0120A0D3 		movle	r2, #1
 1401 0ab0 0020A0C3 		movgt	r2, #0
 1402 0ab4 03005BE1 		cmp	fp, r3
 1403 0ab8 1E0000BA 		blt	.L478
 1404 0abc 0C309DE5 		ldr	r3, [sp, #12]
 1405 0ac0 000053E3 		cmp	r3, #0
 1406 0ac4 3C00001A 		bne	.L479
 1407 0ac8 000052E3 		cmp	r2, #0
 1408 0acc 10309DE5 		ldr	r3, [sp, #16]
 1409 0ad0 4200001A 		bne	.L480
 1410 0ad4 000053E3 		cmp	r3, #0
 1411 0ad8 3700001A 		bne	.L479
 1412 0adc 0320A0E1 		mov	r2, r3
 1413 0ae0 30309DE5 		ldr	r3, [sp, #48]
 1414 0ae4 011088E2 		add	r1, r8, #1
 1415 0ae8 2C009DE5 		ldr	r0, [sp, #44]
 1416 0aec 03C047E0 		sub	ip, r7, r3
 1417 0af0 0B0000EA 		b	.L483
 1418              	.L1405:
 1419 0af4 4C309DE5 		ldr	r3, [sp, #76]
 1420 0af8 030052E1 		cmp	r2, r3
 1421 0afc 0B0000AA 		bge	.L671
 1422 0b00 3CE09DE5 		ldr	lr, [sp, #60]
 1423 0b04 D030DEE1 		ldrsb	r3, [lr]
 1424 0b08 01E08EE2 		add	lr, lr, #1
 1425 0b0c 3CE08DE5 		str	lr, [sp, #60]
 1426              	.L482:
 1427 0b10 012082E2 		add	r2, r2, #1
 1428 0b14 013041E5 		strb	r3, [r1, #-1]
 1429 0b18 020059E1 		cmp	r9, r2
 1430 0b1c 011081E2 		add	r1, r1, #1
 1431 0b20 3300000A 		beq	.L1404
 1432              	.L483:
 1433 0b24 020050E1 		cmp	r0, r2
 1434 0b28 0C0055D1 		cmple	r5, ip
 1435 0b2c F0FFFFBA 		blt	.L1405
 1436              	.L671:
 1437 0b30 0A30A0E1 		mov	r3, r10
 1438 0b34 F5FFFFEA 		b	.L482
 1439              	.L478:
 1440 0b38 0800A0E1 		mov	r0, r8
 1441 0b3c 0920A0E1 		mov	r2, r9
 1442 0b40 098088E0 		add	r8, r8, r9
 1443 0b44 0A10A0E1 		mov	r1, r10
 1444              	.L1240:
 1445 0b48 FEFFFFEB 		bl	memset
 1446              	.L477:
 1447 0b4c 015085E2 		add	r5, r5, #1
 1448 0b50 070055E1 		cmp	r5, r7
 1449 0b54 CEFFFF1A 		bne	.L486
 1450              	.L1406:
 1451 0b58 0840A0E1 		mov	r4, r8
 1452              	.L476:
 1453 0b5c 14309DE5 		ldr	r3, [sp, #20]
 1454 0b60 016086E2 		add	r6, r6, #1
 1455 0b64 030056E1 		cmp	r6, r3
 1456 0b68 B5FFFF1A 		bne	.L487
 1457 0b6c 0430A0E1 		mov	r3, r4
 1458 0b70 0B40A0E1 		mov	r4, fp
 1459 0b74 03B0A0E1 		mov	fp, r3
 1460              	.L475:
 1461 0b78 18309DE5 		ldr	r3, [sp, #24]
 1462 0b7c 1C209DE5 		ldr	r2, [sp, #28]
 1463 0b80 013083E2 		add	r3, r3, #1
 1464 0b84 020053E1 		cmp	r3, r2
 1465 0b88 18308DE5 		str	r3, [sp, #24]
 1466 0b8c 9BFFFF1A 		bne	.L488
 1467 0b90 38309DE5 		ldr	r3, [sp, #56]
 1468 0b94 014084E2 		add	r4, r4, #1
 1469 0b98 030054E1 		cmp	r4, r3
 1470 0b9c 95FFFFBA 		blt	.L489
 1471              	.L474:
 1472 0ba0 34309DE5 		ldr	r3, [sp, #52]
 1473 0ba4 050053E3 		cmp	r3, #5
 1474 0ba8 90FEFF0A 		beq	.L528
 1475              	.L470:
 1476 0bac 48309DE5 		ldr	r3, [sp, #72]
 1477 0bb0 000053E3 		cmp	r3, #0
 1478 0bb4 8BFEFF1A 		bne	.L1321
 1479 0bb8 8CFEFFEA 		b	.L528
 1480              	.L479:
 1481 0bbc 0800A0E1 		mov	r0, r8
 1482 0bc0 0920A0E1 		mov	r2, r9
 1483 0bc4 0A10A0E1 		mov	r1, r10
 1484 0bc8 015085E2 		add	r5, r5, #1
 1485 0bcc FEFFFFEB 		bl	memset
 1486 0bd0 070055E1 		cmp	r5, r7
 1487 0bd4 098088E0 		add	r8, r8, r9
 1488 0bd8 ADFFFF1A 		bne	.L486
 1489 0bdc DDFFFFEA 		b	.L1406
 1490              	.L480:
 1491 0be0 0800A0E1 		mov	r0, r8
 1492 0be4 0920A0E1 		mov	r2, r9
 1493 0be8 0A10A0E1 		mov	r1, r10
 1494 0bec 098088E0 		add	r8, r8, r9
 1495 0bf0 D4FFFFEA 		b	.L1240
 1496              	.L1404:
 1497 0bf4 015085E2 		add	r5, r5, #1
 1498 0bf8 098088E0 		add	r8, r8, r9
 1499 0bfc 070055E1 		cmp	r5, r7
 1500 0c00 A3FFFF1A 		bne	.L486
 1501 0c04 D3FFFFEA 		b	.L1406
 1502              	.L1403:
 1503              	.LEHB18:
 1504 0c08 FEFFFFEB 		bl	abort
 1505              	.L629:
 1506 0c0c FEFFFFEB 		bl	abort
 1507              	.L710:
 1508 0c10 A3FDFFEA 		b	.L573
 1509              	.L628:
 1510 0c14 FEFFFFEB 		bl	abort
 1511              	.L1402:
 1512 0c18 FEFFFFEB 		bl	abort
 1513              	.LEHE18:
 1514              	.L460:
 1515              	.LEHB19:
 1516 0c1c FEFFFFEB 		bl	abort
 1517              	.LEHE19:
 1518              	.L1401:
 1519 0c20 60309DE5 		ldr	r3, [sp, #96]
 1520 0c24 D4209DE5 		ldr	r2, [sp, #212]
 1521 0c28 04308DE5 		str	r3, [sp, #4]
 1522 0c2c 64309DE5 		ldr	r3, [sp, #100]
 1523 0c30 041092E5 		ldr	r1, [r2, #4]
 1524 0c34 48208DE5 		str	r2, [sp, #72]
 1525 0c38 44308DE5 		str	r3, [sp, #68]
 1526 0c3c 003092E5 		ldr	r3, [r2]
 1527 0c40 109092E5 		ldr	r9, [r2, #16]
 1528 0c44 0C7092E5 		ldr	r7, [r2, #12]
 1529 0c48 38308DE5 		str	r3, [sp, #56]
 1530 0c4c 000053E3 		cmp	r3, #0
 1531 0c50 083092E5 		ldr	r3, [r2, #8]
 1532 0c54 1C108DE5 		str	r1, [sp, #28]
 1533 0c58 84209DE5 		ldr	r2, [sp, #132]
 1534 0c5c 14308DE5 		str	r3, [sp, #20]
 1535 0c60 68309DE5 		ldr	r3, [sp, #104]
 1536 0c64 28308DE5 		str	r3, [sp, #40]
 1537 0c68 6C309DE5 		ldr	r3, [sp, #108]
 1538 0c6c 08308DE5 		str	r3, [sp, #8]
 1539 0c70 70309DE5 		ldr	r3, [sp, #112]
 1540 0c74 2C308DE5 		str	r3, [sp, #44]
 1541 0c78 74309DE5 		ldr	r3, [sp, #116]
 1542 0c7c 40308DE5 		str	r3, [sp, #64]
 1543 0c80 78309DE5 		ldr	r3, [sp, #120]
 1544 0c84 20308DE5 		str	r3, [sp, #32]
 1545 0c88 7C309DE5 		ldr	r3, [sp, #124]
 1546 0c8c 24308DE5 		str	r3, [sp, #36]
 1547 0c90 80309DE5 		ldr	r3, [sp, #128]
 1548 0c94 30308DE5 		str	r3, [sp, #48]
 1549 0c98 4DFFFFCA 		bgt	.L471
 1550 0c9c C2FFFFEA 		b	.L470
 1551              	.L1400:
 1552              	.LEHB20:
 1553 0ca0 FEFFFFEB 		bl	abort
 1554              	.LEHE20:
 1555              	.L724:
 1556 0ca4 80FEFFEA 		b	.L1243
 1557              	.L1399:
 1558              	.LEHB21:
 1559 0ca8 FEFFFFEB 		bl	abort
 1560              	.LEHE21:
 1561              	.L1398:
 1562              	.LEHB22:
 1563 0cac FEFFFFEB 		bl	abort
 1564              	.LEHE22:
 1565              	.L723:
 1566 0cb0 7DFEFFEA 		b	.L1243
 1567              	.L695:
 1568 0cb4 51FDFFEA 		b	.L596
 1569              	.L1384:
 1570 0cb8 0710A0E1 		mov	r1, r7
 1571 0cbc 88008DE2 		add	r0, sp, #136
 1572              	.LEHB23:
 1573 0cc0 FEFFFFEB 		bl	_ZN6tflite5micro14GetTensorShapeEPK16TfLiteEvalTensor
 1574              	.LEHE23:
 1575 0cc4 003097E5 		ldr	r3, [r7]
 1576 0cc8 0910A0E1 		mov	r1, r9
 1577 0ccc A0008DE2 		add	r0, sp, #160
 1578 0cd0 48308DE5 		str	r3, [sp, #72]
 1579              	.LEHB24:
 1580 0cd4 FEFFFFEB 		bl	_ZN6tflite5micro14GetTensorShapeEPK16TfLiteEvalTensor
 1581              	.LEHE24:
 1582 0cd8 88209DE5 		ldr	r2, [sp, #136]
 1583 0cdc 000059E3 		cmp	r9, #0
 1584 0ce0 00609915 		ldrne	r6, [r9]
 1585 0ce4 0960A001 		moveq	r6, r9
 1586 0ce8 0030A0E3 		mov	r3, #0
 1587 0cec 050052E3 		cmp	r2, #5
 1588 0cf0 B8308DE5 		str	r3, [sp, #184]
 1589 0cf4 360700CA 		bgt	.L1407
 1590 0cf8 050072E2 		rsbs	r0, r2, #5
 1591 0cfc 0530A0E3 		mov	r3, #5
 1592 0d00 B8308DE5 		str	r3, [sp, #184]
 1593 0d04 1307000A 		beq	.L399
 1594 0d08 010050E3 		cmp	r0, #1
 1595 0d0c 0130A0E3 		mov	r3, #1
 1596 0d10 BC308DE5 		str	r3, [sp, #188]
 1597 0d14 0F07000A 		beq	.L399
 1598 0d18 020050E3 		cmp	r0, #2
 1599 0d1c C0308DE5 		str	r3, [sp, #192]
 1600 0d20 0C07000A 		beq	.L399
 1601 0d24 030050E3 		cmp	r0, #3
 1602 0d28 C4308DE5 		str	r3, [sp, #196]
 1603 0d2c 0907000A 		beq	.L399
 1604 0d30 040050E3 		cmp	r0, #4
 1605 0d34 C8308DE5 		str	r3, [sp, #200]
 1606 0d38 0607000A 		beq	.L399
 1607 0d3c 050050E3 		cmp	r0, #5
 1608 0d40 CC308DE5 		str	r3, [sp, #204]
 1609 0d44 0307000A 		beq	.L399
 1610              	.LEHB25:
 1611 0d48 FEFFFFEB 		bl	abort
 1612              	.LEHE25:
 1613              	.L684:
 1614 0d4c 0040A0E3 		mov	r4, #0
 1615              	.L502:
 1616 0d50 0710A0E1 		mov	r1, r7
 1617 0d54 88008DE2 		add	r0, sp, #136
 1618              	.LEHB26:
 1619 0d58 FEFFFFEB 		bl	_ZN6tflite5micro14GetTensorShapeEPK16TfLiteEvalTensor
 1620              	.LEHE26:
 1621 0d5c 003097E5 		ldr	r3, [r7]
 1622 0d60 0910A0E1 		mov	r1, r9
 1623 0d64 A0008DE2 		add	r0, sp, #160
 1624 0d68 50308DE5 		str	r3, [sp, #80]
 1625              	.LEHB27:
 1626 0d6c FEFFFFEB 		bl	_ZN6tflite5micro14GetTensorShapeEPK16TfLiteEvalTensor
 1627              	.LEHE27:
 1628 0d70 88209DE5 		ldr	r2, [sp, #136]
 1629 0d74 000059E3 		cmp	r9, #0
 1630 0d78 00909915 		ldrne	r9, [r9]
 1631 0d7c 0030A0E3 		mov	r3, #0
 1632 0d80 B8308DE5 		str	r3, [sp, #184]
 1633 0d84 050052E3 		cmp	r2, #5
 1634 0d88 F00300CA 		bgt	.L1408
 1635 0d8c 050072E2 		rsbs	r0, r2, #5
 1636 0d90 0530A0E3 		mov	r3, #5
 1637 0d94 B8308DE5 		str	r3, [sp, #184]
 1638 0d98 3900000A 		beq	.L508
 1639 0d9c 010050E3 		cmp	r0, #1
 1640 0da0 0130A0E3 		mov	r3, #1
 1641 0da4 BC308DE5 		str	r3, [sp, #188]
 1642 0da8 3500000A 		beq	.L508
 1643 0dac 020050E3 		cmp	r0, #2
 1644 0db0 C0308DE5 		str	r3, [sp, #192]
 1645 0db4 3200000A 		beq	.L508
 1646 0db8 030050E3 		cmp	r0, #3
 1647 0dbc C4308DE5 		str	r3, [sp, #196]
 1648 0dc0 2F00000A 		beq	.L508
 1649 0dc4 040050E3 		cmp	r0, #4
 1650 0dc8 C8308DE5 		str	r3, [sp, #200]
 1651 0dcc 2C00000A 		beq	.L508
 1652 0dd0 050050E3 		cmp	r0, #5
 1653 0dd4 CC308DE5 		str	r3, [sp, #204]
 1654 0dd8 2900000A 		beq	.L508
 1655              	.LEHB28:
 1656 0ddc FEFFFFEB 		bl	abort
 1657              	.LEHE28:
 1658              	.L683:
 1659 0de0 0040A0E3 		mov	r4, #0
 1660              	.L131:
 1661 0de4 3030D5E5 		ldrb	r3, [r5, #48]	@ zero_extendqisi2
 1662 0de8 010053E3 		cmp	r3, #1
 1663 0dec B303000A 		beq	.L1409
 1664 0df0 0710A0E1 		mov	r1, r7
 1665 0df4 88008DE2 		add	r0, sp, #136
 1666              	.LEHB29:
 1667 0df8 FEFFFFEB 		bl	_ZN6tflite5micro14GetTensorShapeEPK16TfLiteEvalTensor
 1668              	.LEHE29:
 1669 0dfc 003097E5 		ldr	r3, [r7]
 1670 0e00 0910A0E1 		mov	r1, r9
 1671 0e04 A0008DE2 		add	r0, sp, #160
 1672 0e08 50308DE5 		str	r3, [sp, #80]
 1673              	.LEHB30:
 1674 0e0c FEFFFFEB 		bl	_ZN6tflite5micro14GetTensorShapeEPK16TfLiteEvalTensor
 1675              	.LEHE30:
 1676 0e10 88209DE5 		ldr	r2, [sp, #136]
 1677 0e14 000059E3 		cmp	r9, #0
 1678 0e18 00909915 		ldrne	r9, [r9]
 1679 0e1c 0030A0E3 		mov	r3, #0
 1680 0e20 B8308DE5 		str	r3, [sp, #184]
 1681 0e24 050052E3 		cmp	r2, #5
 1682 0e28 FC0100CA 		bgt	.L1410
 1683 0e2c 050072E2 		rsbs	r0, r2, #5
 1684 0e30 0530A0E3 		mov	r3, #5
 1685 0e34 B8308DE5 		str	r3, [sp, #184]
 1686 0e38 D901000A 		beq	.L211
 1687 0e3c 010050E3 		cmp	r0, #1
 1688 0e40 0130A0E3 		mov	r3, #1
 1689 0e44 BC308DE5 		str	r3, [sp, #188]
 1690 0e48 D501000A 		beq	.L211
 1691 0e4c 020050E3 		cmp	r0, #2
 1692 0e50 C0308DE5 		str	r3, [sp, #192]
 1693 0e54 D201000A 		beq	.L211
 1694 0e58 030050E3 		cmp	r0, #3
 1695 0e5c C4308DE5 		str	r3, [sp, #196]
 1696 0e60 CF01000A 		beq	.L211
 1697 0e64 040050E3 		cmp	r0, #4
 1698 0e68 C8308DE5 		str	r3, [sp, #200]
 1699 0e6c CC01000A 		beq	.L211
 1700 0e70 050050E3 		cmp	r0, #5
 1701 0e74 CC308DE5 		str	r3, [sp, #204]
 1702 0e78 C901000A 		beq	.L211
 1703              	.LEHB31:
 1704 0e7c FEFFFFEB 		bl	abort
 1705              	.LEHE31:
 1706              	.L698:
 1707 0e80 D7FCFFEA 		b	.L575
 1708              	.L508:
 1709 0e84 BC308DE2 		add	r3, sp, #188
 1710 0e88 0221A0E1 		lsl	r2, r2, #2
 1711 0e8c 000183E0 		add	r0, r3, r0, lsl #2
 1712 0e90 8C108DE2 		add	r1, sp, #140
 1713 0e94 FEFFFFEB 		bl	memcpy
 1714 0e98 A0209DE5 		ldr	r2, [sp, #160]
 1715 0e9c 0030A0E3 		mov	r3, #0
 1716 0ea0 D0308DE5 		str	r3, [sp, #208]
 1717 0ea4 050052E3 		cmp	r2, #5
 1718 0ea8 B90100CA 		bgt	.L1411
 1719 0eac 050072E2 		rsbs	r0, r2, #5
 1720 0eb0 0530A0E3 		mov	r3, #5
 1721 0eb4 D0308DE5 		str	r3, [sp, #208]
 1722 0eb8 1200000A 		beq	.L513
 1723 0ebc 010050E3 		cmp	r0, #1
 1724 0ec0 0130A0E3 		mov	r3, #1
 1725 0ec4 D4308DE5 		str	r3, [sp, #212]
 1726 0ec8 0E00000A 		beq	.L513
 1727 0ecc 020050E3 		cmp	r0, #2
 1728 0ed0 D8308DE5 		str	r3, [sp, #216]
 1729 0ed4 0B00000A 		beq	.L513
 1730 0ed8 030050E3 		cmp	r0, #3
 1731 0edc DC308DE5 		str	r3, [sp, #220]
 1732 0ee0 0800000A 		beq	.L513
 1733 0ee4 040050E3 		cmp	r0, #4
 1734 0ee8 E0308DE5 		str	r3, [sp, #224]
 1735 0eec 0500000A 		beq	.L513
 1736 0ef0 050050E3 		cmp	r0, #5
 1737 0ef4 E4308DE5 		str	r3, [sp, #228]
 1738 0ef8 0200000A 		beq	.L513
 1739              	.LEHB32:
 1740 0efc FEFFFFEB 		bl	abort
 1741              	.LEHE32:
 1742              	.L688:
 1743 0f00 B7FCFFEA 		b	.L575
 1744              	.L711:
 1745 0f04 E6FCFFEA 		b	.L573
 1746              	.L513:
 1747 0f08 D4308DE2 		add	r3, sp, #212
 1748 0f0c 0221A0E1 		lsl	r2, r2, #2
 1749 0f10 000183E0 		add	r0, r3, r0, lsl #2
 1750 0f14 A4108DE2 		add	r1, sp, #164
 1751 0f18 FEFFFFEB 		bl	memcpy
 1752 0f1c D020D5E1 		ldrsb	r2, [r5]
 1753 0f20 050052E3 		cmp	r2, #5
 1754 0f24 990100CA 		bgt	.L1412
 1755 0f28 D861D5E1 		ldrsb	r6, [r5, #24]
 1756 0f2c 050056E3 		cmp	r6, #5
 1757 0f30 990100CA 		bgt	.L515
 1758 0f34 000052E3 		cmp	r2, #0
 1759 0f38 0030A0E3 		mov	r3, #0
 1760 0f3c 60308DE5 		str	r3, [sp, #96]
 1761 0f40 64308DE5 		str	r3, [sp, #100]
 1762 0f44 68308DE5 		str	r3, [sp, #104]
 1763 0f48 6C308DE5 		str	r3, [sp, #108]
 1764 0f4c 70308DE5 		str	r3, [sp, #112]
 1765 0f50 050000DA 		ble	.L516
 1766 0f54 E8308DE2 		add	r3, sp, #232
 1767 0f58 041085E2 		add	r1, r5, #4
 1768 0f5c 020143E0 		sub	r0, r3, r2, lsl #2
 1769 0f60 0221A0E1 		lsl	r2, r2, #2
 1770 0f64 740040E2 		sub	r0, r0, #116
 1771 0f68 FEFFFFEB 		bl	memcpy
 1772              	.L516:
 1773 0f6c 000056E3 		cmp	r6, #0
 1774 0f70 0030A0E3 		mov	r3, #0
 1775 0f74 74308DE5 		str	r3, [sp, #116]
 1776 0f78 78308DE5 		str	r3, [sp, #120]
 1777 0f7c 7C308DE5 		str	r3, [sp, #124]
 1778 0f80 80308DE5 		str	r3, [sp, #128]
 1779 0f84 84308DE5 		str	r3, [sp, #132]
 1780 0f88 050000DA 		ble	.L523
 1781 0f8c E8308DE2 		add	r3, sp, #232
 1782 0f90 1C1085E2 		add	r1, r5, #28
 1783 0f94 060143E0 		sub	r0, r3, r6, lsl #2
 1784 0f98 0621A0E1 		lsl	r2, r6, #2
 1785 0f9c 600040E2 		sub	r0, r0, #96
 1786 0fa0 FEFFFFEB 		bl	memcpy
 1787              	.L523:
 1788 0fa4 D0309DE5 		ldr	r3, [sp, #208]
 1789 0fa8 000053E3 		cmp	r3, #0
 1790 0fac 40308DE5 		str	r3, [sp, #64]
 1791 0fb0 750100DA 		ble	.L1413
 1792 0fb4 050053E3 		cmp	r3, #5
 1793 0fb8 540100CA 		bgt	.L1414
 1794 0fbc 010053E3 		cmp	r3, #1
 1795 0fc0 D4309DE5 		ldr	r3, [sp, #212]
 1796 0fc4 44308DE5 		str	r3, [sp, #68]
 1797 0fc8 4F01000A 		beq	.L1415
 1798 0fcc 40309DE5 		ldr	r3, [sp, #64]
 1799 0fd0 D8209DE5 		ldr	r2, [sp, #216]
 1800 0fd4 020053E3 		cmp	r3, #2
 1801 0fd8 1C208DE5 		str	r2, [sp, #28]
 1802 0fdc 4901000A 		beq	.L632
 1803 0fe0 DC209DE5 		ldr	r2, [sp, #220]
 1804 0fe4 030053E3 		cmp	r3, #3
 1805 0fe8 10208DE5 		str	r2, [sp, #16]
 1806 0fec 4301000A 		beq	.L633
 1807 0ff0 040053E3 		cmp	r3, #4
 1808 0ff4 E0A09DE5 		ldr	r10, [sp, #224]
 1809 0ff8 3F01000A 		beq	.L1416
 1810 0ffc 64209DE5 		ldr	r2, [sp, #100]
 1811 1000 44309DE5 		ldr	r3, [sp, #68]
 1812 1004 E4109DE5 		ldr	r1, [sp, #228]
 1813 1008 48208DE5 		str	r2, [sp, #72]
 1814 100c 68209DE5 		ldr	r2, [sp, #104]
 1815 1010 000053E3 		cmp	r3, #0
 1816 1014 60709DE5 		ldr	r7, [sp, #96]
 1817 1018 6C609DE5 		ldr	r6, [sp, #108]
 1818 101c 20208DE5 		str	r2, [sp, #32]
 1819 1020 70209DE5 		ldr	r2, [sp, #112]
 1820 1024 3C208DE5 		str	r2, [sp, #60]
 1821 1028 74209DE5 		ldr	r2, [sp, #116]
 1822 102c 4C208DE5 		str	r2, [sp, #76]
 1823 1030 78209DE5 		ldr	r2, [sp, #120]
 1824 1034 24208DE5 		str	r2, [sp, #36]
 1825 1038 7C209DE5 		ldr	r2, [sp, #124]
 1826 103c 2C208DE5 		str	r2, [sp, #44]
 1827 1040 80209DE5 		ldr	r2, [sp, #128]
 1828 1044 28208DE5 		str	r2, [sp, #40]
 1829 1048 84209DE5 		ldr	r2, [sp, #132]
 1830 104c 58208DE5 		str	r2, [sp, #88]
 1831 1050 66FDFFDA 		ble	.L528
 1832 1054 54308DE5 		str	r3, [sp, #84]
 1833              	.L526:
 1834 1058 1C309DE5 		ldr	r3, [sp, #28]
 1835 105c 000053E3 		cmp	r3, #0
 1836 1060 770000DA 		ble	.L529
 1837 1064 0131A0E1 		lsl	r3, r1, #2
 1838 1068 090041E2 		sub	r0, r1, #9
 1839 106c 0080A0E3 		mov	r8, #0
 1840 1070 04308DE5 		str	r3, [sp, #4]
 1841 1074 0700C0E3 		bic	r0, r0, #7
 1842 1078 0A30A0E1 		mov	r3, r10
 1843 107c 080080E2 		add	r0, r0, #8
 1844 1080 08A0A0E1 		mov	r10, r8
 1845 1084 0680A0E1 		mov	r8, r6
 1846 1088 0760A0E1 		mov	r6, r7
 1847 108c 0370A0E1 		mov	r7, r3
 1848              	.L564:
 1849 1090 0030A0E3 		mov	r3, #0
 1850 1094 18308DE5 		str	r3, [sp, #24]
 1851              	.L563:
 1852 1098 10309DE5 		ldr	r3, [sp, #16]
 1853 109c 000053E3 		cmp	r3, #0
 1854 10a0 5D0000DA 		ble	.L530
 1855 10a4 4C209DE5 		ldr	r2, [sp, #76]
 1856 10a8 00E0A0E3 		mov	lr, #0
 1857 10ac 44309DE5 		ldr	r3, [sp, #68]
 1858 10b0 48C09DE5 		ldr	ip, [sp, #72]
 1859 10b4 023043E0 		sub	r3, r3, r2
 1860 10b8 18209DE5 		ldr	r2, [sp, #24]
 1861 10bc 0C0052E1 		cmp	r2, ip
 1862 10c0 0020A0A3 		movge	r2, #0
 1863 10c4 0120A0B3 		movlt	r2, #1
 1864 10c8 03005AE1 		cmp	r10, r3
 1865 10cc 012082A3 		orrge	r2, r2, #1
 1866 10d0 58309DE5 		ldr	r3, [sp, #88]
 1867 10d4 08208DE5 		str	r2, [sp, #8]
 1868 10d8 033041E0 		sub	r3, r1, r3
 1869 10dc 5C308DE5 		str	r3, [sp, #92]
 1870              	.L562:
 1871 10e0 000057E3 		cmp	r7, #0
 1872 10e4 480000DA 		ble	.L531
 1873 10e8 24209DE5 		ldr	r2, [sp, #36]
 1874 10ec 1C309DE5 		ldr	r3, [sp, #28]
 1875 10f0 18C09DE5 		ldr	ip, [sp, #24]
 1876 10f4 023043E0 		sub	r3, r3, r2
 1877 10f8 20209DE5 		ldr	r2, [sp, #32]
 1878 10fc 02005EE1 		cmp	lr, r2
 1879 1100 0020A0A3 		movge	r2, #0
 1880 1104 0120A0B3 		movlt	r2, #1
 1881 1108 03005CE1 		cmp	ip, r3
 1882 110c 012082A3 		orrge	r2, r2, #1
 1883 1110 10309DE5 		ldr	r3, [sp, #16]
 1884 1114 0C208DE5 		str	r2, [sp, #12]
 1885 1118 00C0A0E3 		mov	ip, #0
 1886 111c 2C209DE5 		ldr	r2, [sp, #44]
 1887 1120 025043E0 		sub	r5, r3, r2
 1888 1124 28309DE5 		ldr	r3, [sp, #40]
 1889 1128 033047E0 		sub	r3, r7, r3
 1890 112c 14308DE5 		str	r3, [sp, #20]
 1891              	.L561:
 1892 1130 000051E3 		cmp	r1, #0
 1893 1134 310000DA 		ble	.L532
 1894 1138 08005CE1 		cmp	ip, r8
 1895 113c 0E0055A1 		cmpge	r5, lr
 1896 1140 0130A0D3 		movle	r3, #1
 1897 1144 0030A0C3 		movgt	r3, #0
 1898 1148 06005AE1 		cmp	r10, r6
 1899 114c 430000BA 		blt	.L533
 1900 1150 08209DE5 		ldr	r2, [sp, #8]
 1901 1154 000052E3 		cmp	r2, #0
 1902 1158 5700001A 		bne	.L534
 1903 115c 000053E3 		cmp	r3, #0
 1904 1160 7000001A 		bne	.L535
 1905 1164 0C309DE5 		ldr	r3, [sp, #12]
 1906 1168 000053E3 		cmp	r3, #0
 1907 116c A500001A 		bne	.L536
 1908 1170 04B089E2 		add	fp, r9, #4
 1909 1174 30A08DE5 		str	r10, [sp, #48]
 1910 1178 34908DE5 		str	r9, [sp, #52]
 1911 117c 14A09DE5 		ldr	r10, [sp, #20]
 1912 1180 3C909DE5 		ldr	r9, [sp, #60]
 1913 1184 38008DE5 		str	r0, [sp, #56]
 1914 1188 0B0000EA 		b	.L538
 1915              	.L1418:
 1916 118c 5C209DE5 		ldr	r2, [sp, #92]
 1917 1190 030052E1 		cmp	r2, r3
 1918 1194 0F0000DA 		ble	.L676
 1919 1198 50009DE5 		ldr	r0, [sp, #80]
 1920 119c 002090E5 		ldr	r2, [r0]
 1921 11a0 040080E2 		add	r0, r0, #4
 1922 11a4 50008DE5 		str	r0, [sp, #80]
 1923              	.L537:
 1924 11a8 013083E2 		add	r3, r3, #1
 1925 11ac 04200BE5 		str	r2, [fp, #-4]
 1926 11b0 010053E1 		cmp	r3, r1
 1927 11b4 04B08BE2 		add	fp, fp, #4
 1928 11b8 AC00000A 		beq	.L1417
 1929              	.L538:
 1930 11bc 090053E1 		cmp	r3, r9
 1931 11c0 0020A0A3 		movge	r2, #0
 1932 11c4 0120A0B3 		movlt	r2, #1
 1933 11c8 0A005CE1 		cmp	ip, r10
 1934 11cc 012082A3 		orrge	r2, r2, #1
 1935 11d0 000052E3 		cmp	r2, #0
 1936 11d4 ECFFFF0A 		beq	.L1418
 1937              	.L676:
 1938 11d8 0420A0E1 		mov	r2, r4
 1939 11dc F1FFFFEA 		b	.L537
 1940              	.L681:
 1941 11e0 09B0A0E1 		mov	fp, r9
 1942 11e4 0020A0E3 		mov	r2, #0
 1943              	.L560:
 1944 11e8 012082E2 		add	r2, r2, #1
 1945 11ec 04408BE4 		str	r4, [fp], #4
 1946 11f0 020051E1 		cmp	r1, r2
 1947 11f4 FBFFFFCA 		bgt	.L560
 1948              	.L1242:
 1949 11f8 04309DE5 		ldr	r3, [sp, #4]
 1950 11fc 039089E0 		add	r9, r9, r3
 1951              	.L532:
 1952 1200 01C08CE2 		add	ip, ip, #1
 1953 1204 07005CE1 		cmp	ip, r7
 1954 1208 C8FFFF1A 		bne	.L561
 1955              	.L531:
 1956 120c 10309DE5 		ldr	r3, [sp, #16]
 1957 1210 01E08EE2 		add	lr, lr, #1
 1958 1214 03005EE1 		cmp	lr, r3
 1959 1218 B0FFFF1A 		bne	.L562
 1960              	.L530:
 1961 121c 18309DE5 		ldr	r3, [sp, #24]
 1962 1220 1C209DE5 		ldr	r2, [sp, #28]
 1963 1224 013083E2 		add	r3, r3, #1
 1964 1228 020053E1 		cmp	r3, r2
 1965 122c 18308DE5 		str	r3, [sp, #24]
 1966 1230 98FFFF1A 		bne	.L563
 1967 1234 44309DE5 		ldr	r3, [sp, #68]
 1968 1238 01A08AE2 		add	r10, r10, #1
 1969 123c 03005AE1 		cmp	r10, r3
 1970 1240 92FFFFBA 		blt	.L564
 1971              	.L529:
 1972 1244 40309DE5 		ldr	r3, [sp, #64]
 1973 1248 050053E3 		cmp	r3, #5
 1974 124c E7FCFF0A 		beq	.L528
 1975              	.L525:
 1976 1250 54309DE5 		ldr	r3, [sp, #84]
 1977 1254 000053E3 		cmp	r3, #0
 1978 1258 E2FCFF1A 		bne	.L1321
 1979 125c E3FCFFEA 		b	.L528
 1980              	.L533:
 1981 1260 080051E3 		cmp	r1, #8
 1982 1264 DDFFFFDA 		ble	.L681
 1983 1268 203089E2 		add	r3, r9, #32
 1984 126c 0020A0E3 		mov	r2, #0
 1985              	.L558:
 1986 1270 082082E2 		add	r2, r2, #8
 1987 1274 80F0D3F5 		pld	[r3, #128]
 1988 1278 000052E1 		cmp	r2, r0
 1989 127c 204003E5 		str	r4, [r3, #-32]
 1990 1280 1C4003E5 		str	r4, [r3, #-28]
 1991 1284 03B0A0E1 		mov	fp, r3
 1992 1288 184003E5 		str	r4, [r3, #-24]
 1993 128c 203083E2 		add	r3, r3, #32
 1994 1290 344003E5 		str	r4, [r3, #-52]
 1995 1294 304003E5 		str	r4, [r3, #-48]
 1996 1298 2C4003E5 		str	r4, [r3, #-44]
 1997 129c 284003E5 		str	r4, [r3, #-40]
 1998 12a0 244003E5 		str	r4, [r3, #-36]
 1999 12a4 F1FFFF1A 		bne	.L558
 2000 12a8 012082E2 		add	r2, r2, #1
 2001 12ac 04408BE4 		str	r4, [fp], #4
 2002 12b0 020051E1 		cmp	r1, r2
 2003 12b4 CBFFFFCA 		bgt	.L560
 2004 12b8 CEFFFFEA 		b	.L1242
 2005              	.L534:
 2006 12bc 080051E3 		cmp	r1, #8
 2007 12c0 730000DA 		ble	.L680
 2008 12c4 203089E2 		add	r3, r9, #32
 2009 12c8 0020A0E3 		mov	r2, #0
 2010              	.L554:
 2011 12cc 082082E2 		add	r2, r2, #8
 2012 12d0 80F0D3F5 		pld	[r3, #128]
 2013 12d4 000052E1 		cmp	r2, r0
 2014 12d8 204003E5 		str	r4, [r3, #-32]
 2015 12dc 1C4003E5 		str	r4, [r3, #-28]
 2016 12e0 03B0A0E1 		mov	fp, r3
 2017 12e4 184003E5 		str	r4, [r3, #-24]
 2018 12e8 203083E2 		add	r3, r3, #32
 2019 12ec 344003E5 		str	r4, [r3, #-52]
 2020 12f0 304003E5 		str	r4, [r3, #-48]
 2021 12f4 2C4003E5 		str	r4, [r3, #-44]
 2022 12f8 284003E5 		str	r4, [r3, #-40]
 2023 12fc 244003E5 		str	r4, [r3, #-36]
 2024 1300 F1FFFF1A 		bne	.L554
 2025              	.L556:
 2026 1304 012082E2 		add	r2, r2, #1
 2027 1308 04408BE4 		str	r4, [fp], #4
 2028 130c 020051E1 		cmp	r1, r2
 2029 1310 B8FFFFDA 		ble	.L1242
 2030              	.L1371:
 2031 1314 012082E2 		add	r2, r2, #1
 2032 1318 04408BE4 		str	r4, [fp], #4
 2033 131c 020051E1 		cmp	r1, r2
 2034 1320 F7FFFFCA 		bgt	.L556
 2035 1324 B3FFFFEA 		b	.L1242
 2036              	.L535:
 2037 1328 0C209DE5 		ldr	r2, [sp, #12]
 2038 132c 000052E3 		cmp	r2, #0
 2039 1330 1900001A 		bne	.L544
 2040 1334 080051E3 		cmp	r1, #8
 2041 1338 690000DA 		ble	.L678
 2042 133c 203089E2 		add	r3, r9, #32
 2043              	.L546:
 2044 1340 082082E2 		add	r2, r2, #8
 2045 1344 80F0D3F5 		pld	[r3, #128]
 2046 1348 020050E1 		cmp	r0, r2
 2047 134c 204003E5 		str	r4, [r3, #-32]
 2048 1350 1C4003E5 		str	r4, [r3, #-28]
 2049 1354 03B0A0E1 		mov	fp, r3
 2050 1358 184003E5 		str	r4, [r3, #-24]
 2051 135c 203083E2 		add	r3, r3, #32
 2052 1360 344003E5 		str	r4, [r3, #-52]
 2053 1364 304003E5 		str	r4, [r3, #-48]
 2054 1368 2C4003E5 		str	r4, [r3, #-44]
 2055 136c 284003E5 		str	r4, [r3, #-40]
 2056 1370 244003E5 		str	r4, [r3, #-36]
 2057 1374 F1FFFF1A 		bne	.L546
 2058              	.L548:
 2059 1378 012082E2 		add	r2, r2, #1
 2060 137c 04408BE4 		str	r4, [fp], #4
 2061 1380 020051E1 		cmp	r1, r2
 2062 1384 9BFFFFDA 		ble	.L1242
 2063              	.L1372:
 2064 1388 012082E2 		add	r2, r2, #1
 2065 138c 04408BE4 		str	r4, [fp], #4
 2066 1390 020051E1 		cmp	r1, r2
 2067 1394 F7FFFFCA 		bgt	.L548
 2068 1398 96FFFFEA 		b	.L1242
 2069              	.L544:
 2070 139c 080051E3 		cmp	r1, #8
 2071 13a0 480000DA 		ble	.L679
 2072 13a4 08209DE5 		ldr	r2, [sp, #8]
 2073 13a8 203089E2 		add	r3, r9, #32
 2074              	.L550:
 2075 13ac 082082E2 		add	r2, r2, #8
 2076 13b0 80F0D3F5 		pld	[r3, #128]
 2077 13b4 000052E1 		cmp	r2, r0
 2078 13b8 204003E5 		str	r4, [r3, #-32]
 2079 13bc 1C4003E5 		str	r4, [r3, #-28]
 2080 13c0 03B0A0E1 		mov	fp, r3
 2081 13c4 184003E5 		str	r4, [r3, #-24]
 2082 13c8 203083E2 		add	r3, r3, #32
 2083 13cc 344003E5 		str	r4, [r3, #-52]
 2084 13d0 304003E5 		str	r4, [r3, #-48]
 2085 13d4 2C4003E5 		str	r4, [r3, #-44]
 2086 13d8 284003E5 		str	r4, [r3, #-40]
 2087 13dc 244003E5 		str	r4, [r3, #-36]
 2088 13e0 F1FFFF1A 		bne	.L550
 2089              	.L552:
 2090 13e4 012082E2 		add	r2, r2, #1
 2091 13e8 04408BE4 		str	r4, [fp], #4
 2092 13ec 020051E1 		cmp	r1, r2
 2093 13f0 80FFFFDA 		ble	.L1242
 2094              	.L1373:
 2095 13f4 012082E2 		add	r2, r2, #1
 2096 13f8 04408BE4 		str	r4, [fp], #4
 2097 13fc 020051E1 		cmp	r1, r2
 2098 1400 F7FFFFCA 		bgt	.L552
 2099 1404 7BFFFFEA 		b	.L1242
 2100              	.L536:
 2101 1408 080051E3 		cmp	r1, #8
 2102 140c 270000DA 		ble	.L677
 2103 1410 203089E2 		add	r3, r9, #32
 2104              	.L541:
 2105 1414 082082E2 		add	r2, r2, #8
 2106 1418 80F0D3F5 		pld	[r3, #128]
 2107 141c 020050E1 		cmp	r0, r2
 2108 1420 204003E5 		str	r4, [r3, #-32]
 2109 1424 1C4003E5 		str	r4, [r3, #-28]
 2110 1428 03B0A0E1 		mov	fp, r3
 2111 142c 184003E5 		str	r4, [r3, #-24]
 2112 1430 203083E2 		add	r3, r3, #32
 2113 1434 344003E5 		str	r4, [r3, #-52]
 2114 1438 304003E5 		str	r4, [r3, #-48]
 2115 143c 2C4003E5 		str	r4, [r3, #-44]
 2116 1440 284003E5 		str	r4, [r3, #-40]
 2117 1444 244003E5 		str	r4, [r3, #-36]
 2118 1448 F1FFFF1A 		bne	.L541
 2119              	.L543:
 2120 144c 012082E2 		add	r2, r2, #1
 2121 1450 04408BE4 		str	r4, [fp], #4
 2122 1454 020051E1 		cmp	r1, r2
 2123 1458 66FFFFDA 		ble	.L1242
 2124              	.L1374:
 2125 145c 012082E2 		add	r2, r2, #1
 2126 1460 04408BE4 		str	r4, [fp], #4
 2127 1464 020051E1 		cmp	r1, r2
 2128 1468 F7FFFFCA 		bgt	.L543
 2129 146c 61FFFFEA 		b	.L1242
 2130              	.L1417:
 2131 1470 34909DE5 		ldr	r9, [sp, #52]
 2132 1474 01C08CE2 		add	ip, ip, #1
 2133 1478 04309DE5 		ldr	r3, [sp, #4]
 2134 147c 07005CE1 		cmp	ip, r7
 2135 1480 30A09DE5 		ldr	r10, [sp, #48]
 2136 1484 38009DE5 		ldr	r0, [sp, #56]
 2137 1488 039089E0 		add	r9, r9, r3
 2138 148c 27FFFF1A 		bne	.L561
 2139 1490 5DFFFFEA 		b	.L531
 2140              	.L680:
 2141 1494 0020A0E3 		mov	r2, #0
 2142 1498 09B0A0E1 		mov	fp, r9
 2143 149c 012082E2 		add	r2, r2, #1
 2144 14a0 04408BE4 		str	r4, [fp], #4
 2145 14a4 020051E1 		cmp	r1, r2
 2146 14a8 99FFFFCA 		bgt	.L1371
 2147 14ac 51FFFFEA 		b	.L1242
 2148              	.L677:
 2149 14b0 012082E2 		add	r2, r2, #1
 2150 14b4 09B0A0E1 		mov	fp, r9
 2151 14b8 020051E1 		cmp	r1, r2
 2152 14bc 04408BE4 		str	r4, [fp], #4
 2153 14c0 E5FFFFCA 		bgt	.L1374
 2154 14c4 4BFFFFEA 		b	.L1242
 2155              	.L679:
 2156 14c8 08209DE5 		ldr	r2, [sp, #8]
 2157 14cc 09B0A0E1 		mov	fp, r9
 2158 14d0 04408BE4 		str	r4, [fp], #4
 2159 14d4 012082E2 		add	r2, r2, #1
 2160 14d8 020051E1 		cmp	r1, r2
 2161 14dc C4FFFFCA 		bgt	.L1373
 2162 14e0 44FFFFEA 		b	.L1242
 2163              	.L678:
 2164 14e4 012082E2 		add	r2, r2, #1
 2165 14e8 09B0A0E1 		mov	fp, r9
 2166 14ec 020051E1 		cmp	r1, r2
 2167 14f0 04408BE4 		str	r4, [fp], #4
 2168 14f4 A3FFFFCA 		bgt	.L1372
 2169 14f8 3EFFFFEA 		b	.L1242
 2170              	.L1416:
 2171              	.LEHB33:
 2172 14fc FEFFFFEB 		bl	abort
 2173              	.L633:
 2174 1500 FEFFFFEB 		bl	abort
 2175              	.L712:
 2176 1504 66FBFFEA 		b	.L573
 2177              	.L632:
 2178 1508 FEFFFFEB 		bl	abort
 2179              	.L1415:
 2180 150c FEFFFFEB 		bl	abort
 2181              	.L1414:
 2182 1510 D4309DE5 		ldr	r3, [sp, #212]
 2183 1514 64209DE5 		ldr	r2, [sp, #100]
 2184 1518 60709DE5 		ldr	r7, [sp, #96]
 2185 151c 040093E5 		ldr	r0, [r3, #4]
 2186 1520 48208DE5 		str	r2, [sp, #72]
 2187 1524 002093E5 		ldr	r2, [r3]
 2188 1528 54308DE5 		str	r3, [sp, #84]
 2189 152c 101093E5 		ldr	r1, [r3, #16]
 2190 1530 44208DE5 		str	r2, [sp, #68]
 2191 1534 000052E3 		cmp	r2, #0
 2192 1538 0CA093E5 		ldr	r10, [r3, #12]
 2193 153c 082093E5 		ldr	r2, [r3, #8]
 2194 1540 68309DE5 		ldr	r3, [sp, #104]
 2195 1544 1C008DE5 		str	r0, [sp, #28]
 2196 1548 10208DE5 		str	r2, [sp, #16]
 2197 154c 20308DE5 		str	r3, [sp, #32]
 2198 1550 70309DE5 		ldr	r3, [sp, #112]
 2199 1554 6C609DE5 		ldr	r6, [sp, #108]
 2200 1558 3C308DE5 		str	r3, [sp, #60]
 2201 155c 74309DE5 		ldr	r3, [sp, #116]
 2202 1560 4C308DE5 		str	r3, [sp, #76]
 2203 1564 78309DE5 		ldr	r3, [sp, #120]
 2204 1568 24308DE5 		str	r3, [sp, #36]
 2205 156c 7C309DE5 		ldr	r3, [sp, #124]
 2206 1570 2C308DE5 		str	r3, [sp, #44]
 2207 1574 80309DE5 		ldr	r3, [sp, #128]
 2208 1578 28308DE5 		str	r3, [sp, #40]
 2209 157c 84309DE5 		ldr	r3, [sp, #132]
 2210 1580 58308DE5 		str	r3, [sp, #88]
 2211 1584 B3FEFFCA 		bgt	.L526
 2212 1588 30FFFFEA 		b	.L525
 2213              	.L1413:
 2214 158c FEFFFFEB 		bl	abort
 2215              	.LEHE33:
 2216              	.L1412:
 2217              	.LEHB34:
 2218 1590 FEFFFFEB 		bl	abort
 2219              	.LEHE34:
 2220              	.L1411:
 2221              	.LEHB35:
 2222 1594 FEFFFFEB 		bl	abort
 2223              	.LEHE35:
 2224              	.L725:
 2225 1598 43FCFFEA 		b	.L1243
 2226              	.L515:
 2227              	.LEHB36:
 2228 159c FEFFFFEB 		bl	abort
 2229              	.LEHE36:
 2230              	.L726:
 2231 15a0 41FCFFEA 		b	.L1243
 2232              	.L211:
 2233 15a4 BC308DE2 		add	r3, sp, #188
 2234 15a8 0221A0E1 		lsl	r2, r2, #2
 2235 15ac 000183E0 		add	r0, r3, r0, lsl #2
 2236 15b0 8C108DE2 		add	r1, sp, #140
 2237 15b4 FEFFFFEB 		bl	memcpy
 2238 15b8 A0209DE5 		ldr	r2, [sp, #160]
 2239 15bc 0030A0E3 		mov	r3, #0
 2240 15c0 D0308DE5 		str	r3, [sp, #208]
 2241 15c4 050052E3 		cmp	r2, #5
 2242 15c8 B90100CA 		bgt	.L1419
 2243 15cc 050072E2 		rsbs	r0, r2, #5
 2244 15d0 0530A0E3 		mov	r3, #5
 2245 15d4 D0308DE5 		str	r3, [sp, #208]
 2246 15d8 1200000A 		beq	.L216
 2247 15dc 010050E3 		cmp	r0, #1
 2248 15e0 0130A0E3 		mov	r3, #1
 2249 15e4 D4308DE5 		str	r3, [sp, #212]
 2250 15e8 0E00000A 		beq	.L216
 2251 15ec 020050E3 		cmp	r0, #2
 2252 15f0 D8308DE5 		str	r3, [sp, #216]
 2253 15f4 0B00000A 		beq	.L216
 2254 15f8 030050E3 		cmp	r0, #3
 2255 15fc DC308DE5 		str	r3, [sp, #220]
 2256 1600 0800000A 		beq	.L216
 2257 1604 040050E3 		cmp	r0, #4
 2258 1608 E0308DE5 		str	r3, [sp, #224]
 2259 160c 0500000A 		beq	.L216
 2260 1610 050050E3 		cmp	r0, #5
 2261 1614 E4308DE5 		str	r3, [sp, #228]
 2262 1618 0200000A 		beq	.L216
 2263              	.LEHB37:
 2264 161c FEFFFFEB 		bl	abort
 2265              	.LEHE37:
 2266              	.L1410:
 2267              	.LEHB38:
 2268 1620 FEFFFFEB 		bl	abort
 2269              	.LEHE38:
 2270              	.L701:
 2271 1624 1EFBFFEA 		b	.L573
 2272              	.L216:
 2273 1628 D4308DE2 		add	r3, sp, #212
 2274 162c 0221A0E1 		lsl	r2, r2, #2
 2275 1630 000183E0 		add	r0, r3, r0, lsl #2
 2276 1634 A4108DE2 		add	r1, sp, #164
 2277 1638 FEFFFFEB 		bl	memcpy
 2278 163c D020D5E1 		ldrsb	r2, [r5]
 2279 1640 050052E3 		cmp	r2, #5
 2280 1644 990100CA 		bgt	.L1420
 2281 1648 D861D5E1 		ldrsb	r6, [r5, #24]
 2282 164c 050056E3 		cmp	r6, #5
 2283 1650 8F0100CA 		bgt	.L218
 2284 1654 000052E3 		cmp	r2, #0
 2285 1658 0030A0E3 		mov	r3, #0
 2286 165c 60308DE5 		str	r3, [sp, #96]
 2287 1660 64308DE5 		str	r3, [sp, #100]
 2288 1664 68308DE5 		str	r3, [sp, #104]
 2289 1668 6C308DE5 		str	r3, [sp, #108]
 2290 166c 70308DE5 		str	r3, [sp, #112]
 2291 1670 050000DA 		ble	.L219
 2292 1674 E8308DE2 		add	r3, sp, #232
 2293 1678 041085E2 		add	r1, r5, #4
 2294 167c 020143E0 		sub	r0, r3, r2, lsl #2
 2295 1680 0221A0E1 		lsl	r2, r2, #2
 2296 1684 740040E2 		sub	r0, r0, #116
 2297 1688 FEFFFFEB 		bl	memcpy
 2298              	.L219:
 2299 168c 000056E3 		cmp	r6, #0
 2300 1690 0030A0E3 		mov	r3, #0
 2301 1694 74308DE5 		str	r3, [sp, #116]
 2302 1698 78308DE5 		str	r3, [sp, #120]
 2303 169c 7C308DE5 		str	r3, [sp, #124]
 2304 16a0 80308DE5 		str	r3, [sp, #128]
 2305 16a4 84308DE5 		str	r3, [sp, #132]
 2306 16a8 050000DA 		ble	.L226
 2307 16ac E8308DE2 		add	r3, sp, #232
 2308 16b0 1C1085E2 		add	r1, r5, #28
 2309 16b4 060143E0 		sub	r0, r3, r6, lsl #2
 2310 16b8 0621A0E1 		lsl	r2, r6, #2
 2311 16bc 600040E2 		sub	r0, r0, #96
 2312 16c0 FEFFFFEB 		bl	memcpy
 2313              	.L226:
 2314 16c4 D0309DE5 		ldr	r3, [sp, #208]
 2315 16c8 000053E3 		cmp	r3, #0
 2316 16cc 3C308DE5 		str	r3, [sp, #60]
 2317 16d0 6E0100DA 		ble	.L1421
 2318 16d4 050053E3 		cmp	r3, #5
 2319 16d8 4D0100CA 		bgt	.L1422
 2320 16dc 010053E3 		cmp	r3, #1
 2321 16e0 D4309DE5 		ldr	r3, [sp, #212]
 2322 16e4 40308DE5 		str	r3, [sp, #64]
 2323 16e8 6F01000A 		beq	.L1423
 2324 16ec 3C309DE5 		ldr	r3, [sp, #60]
 2325 16f0 D8209DE5 		ldr	r2, [sp, #216]
 2326 16f4 020053E3 		cmp	r3, #2
 2327 16f8 18208DE5 		str	r2, [sp, #24]
 2328 16fc 6901000A 		beq	.L612
 2329 1700 DC209DE5 		ldr	r2, [sp, #220]
 2330 1704 030053E3 		cmp	r3, #3
 2331 1708 10208DE5 		str	r2, [sp, #16]
 2332 170c 6401000A 		beq	.L613
 2333 1710 040053E3 		cmp	r3, #4
 2334 1714 E0A09DE5 		ldr	r10, [sp, #224]
 2335 1718 6001000A 		beq	.L1424
 2336 171c 64209DE5 		ldr	r2, [sp, #100]
 2337 1720 40309DE5 		ldr	r3, [sp, #64]
 2338 1724 E4109DE5 		ldr	r1, [sp, #228]
 2339 1728 54208DE5 		str	r2, [sp, #84]
 2340 172c 68209DE5 		ldr	r2, [sp, #104]
 2341 1730 000053E3 		cmp	r3, #0
 2342 1734 60609DE5 		ldr	r6, [sp, #96]
 2343 1738 6C709DE5 		ldr	r7, [sp, #108]
 2344 173c 20208DE5 		str	r2, [sp, #32]
 2345 1740 70209DE5 		ldr	r2, [sp, #112]
 2346 1744 44208DE5 		str	r2, [sp, #68]
 2347 1748 74209DE5 		ldr	r2, [sp, #116]
 2348 174c 58208DE5 		str	r2, [sp, #88]
 2349 1750 78209DE5 		ldr	r2, [sp, #120]
 2350 1754 2C208DE5 		str	r2, [sp, #44]
 2351 1758 7C209DE5 		ldr	r2, [sp, #124]
 2352 175c 28208DE5 		str	r2, [sp, #40]
 2353 1760 80209DE5 		ldr	r2, [sp, #128]
 2354 1764 24208DE5 		str	r2, [sp, #36]
 2355 1768 84209DE5 		ldr	r2, [sp, #132]
 2356 176c 4C208DE5 		str	r2, [sp, #76]
 2357 1770 9EFBFFDA 		ble	.L528
 2358 1774 48308DE5 		str	r3, [sp, #72]
 2359              	.L229:
 2360 1778 18309DE5 		ldr	r3, [sp, #24]
 2361 177c 000053E3 		cmp	r3, #0
 2362 1780 750000DA 		ble	.L232
 2363 1784 0131A0E1 		lsl	r3, r1, #2
 2364 1788 090041E2 		sub	r0, r1, #9
 2365 178c 0700C0E3 		bic	r0, r0, #7
 2366 1790 04308DE5 		str	r3, [sp, #4]
 2367 1794 0630A0E1 		mov	r3, r6
 2368 1798 080080E2 		add	r0, r0, #8
 2369 179c 0A60A0E1 		mov	r6, r10
 2370 17a0 0080A0E3 		mov	r8, #0
 2371 17a4 07A0A0E1 		mov	r10, r7
 2372 17a8 0370A0E1 		mov	r7, r3
 2373              	.L267:
 2374 17ac 0030A0E3 		mov	r3, #0
 2375 17b0 14308DE5 		str	r3, [sp, #20]
 2376 17b4 0730A0E1 		mov	r3, r7
 2377 17b8 0A70A0E1 		mov	r7, r10
 2378 17bc 03A0A0E1 		mov	r10, r3
 2379              	.L266:
 2380 17c0 10309DE5 		ldr	r3, [sp, #16]
 2381 17c4 000053E3 		cmp	r3, #0
 2382 17c8 560000DA 		ble	.L233
 2383 17cc 58209DE5 		ldr	r2, [sp, #88]
 2384 17d0 00E0A0E3 		mov	lr, #0
 2385 17d4 40309DE5 		ldr	r3, [sp, #64]
 2386 17d8 54C09DE5 		ldr	ip, [sp, #84]
 2387 17dc 023043E0 		sub	r3, r3, r2
 2388 17e0 14209DE5 		ldr	r2, [sp, #20]
 2389 17e4 0C0052E1 		cmp	r2, ip
 2390 17e8 080053A1 		cmpge	r3, r8
 2391 17ec 0130A0D3 		movle	r3, #1
 2392 17f0 0030A0C3 		movgt	r3, #0
 2393 17f4 08308DE5 		str	r3, [sp, #8]
 2394 17f8 4C309DE5 		ldr	r3, [sp, #76]
 2395 17fc 033041E0 		sub	r3, r1, r3
 2396 1800 5C308DE5 		str	r3, [sp, #92]
 2397              	.L265:
 2398 1804 000056E3 		cmp	r6, #0
 2399 1808 420000DA 		ble	.L234
 2400 180c 2C209DE5 		ldr	r2, [sp, #44]
 2401 1810 00C0A0E3 		mov	ip, #0
 2402 1814 18309DE5 		ldr	r3, [sp, #24]
 2403 1818 20509DE5 		ldr	r5, [sp, #32]
 2404 181c 023043E0 		sub	r3, r3, r2
 2405 1820 14209DE5 		ldr	r2, [sp, #20]
 2406 1824 05005EE1 		cmp	lr, r5
 2407 1828 020053A1 		cmpge	r3, r2
 2408 182c 28209DE5 		ldr	r2, [sp, #40]
 2409 1830 0130A0D3 		movle	r3, #1
 2410 1834 0030A0C3 		movgt	r3, #0
 2411 1838 0C308DE5 		str	r3, [sp, #12]
 2412 183c 10309DE5 		ldr	r3, [sp, #16]
 2413 1840 025043E0 		sub	r5, r3, r2
 2414 1844 24309DE5 		ldr	r3, [sp, #36]
 2415 1848 033046E0 		sub	r3, r6, r3
 2416 184c 1C308DE5 		str	r3, [sp, #28]
 2417              	.L264:
 2418 1850 000051E3 		cmp	r1, #0
 2419 1854 2C0000DA 		ble	.L235
 2420 1858 07005CE1 		cmp	ip, r7
 2421 185c 0E0055A1 		cmpge	r5, lr
 2422 1860 0130A0D3 		movle	r3, #1
 2423 1864 0030A0C3 		movgt	r3, #0
 2424 1868 0A0058E1 		cmp	r8, r10
 2425 186c 3E0000BA 		blt	.L236
 2426 1870 08209DE5 		ldr	r2, [sp, #8]
 2427 1874 000052E3 		cmp	r2, #0
 2428 1878 5700001A 		bne	.L237
 2429 187c 000053E3 		cmp	r3, #0
 2430 1880 7000001A 		bne	.L238
 2431 1884 0C309DE5 		ldr	r3, [sp, #12]
 2432 1888 000053E3 		cmp	r3, #0
 2433 188c A500001A 		bne	.L239
 2434 1890 30708DE5 		str	r7, [sp, #48]
 2435 1894 0920A0E1 		mov	r2, r9
 2436 1898 34E08DE5 		str	lr, [sp, #52]
 2437 189c 44709DE5 		ldr	r7, [sp, #68]
 2438 18a0 1CB09DE5 		ldr	fp, [sp, #28]
 2439 18a4 38008DE5 		str	r0, [sp, #56]
 2440 18a8 0A0000EA 		b	.L241
 2441              	.L1426:
 2442 18ac 5C009DE5 		ldr	r0, [sp, #92]
 2443 18b0 030050E1 		cmp	r0, r3
 2444 18b4 0A0000DA 		ble	.L650
 2445 18b8 50009DE5 		ldr	r0, [sp, #80]
 2446 18bc 013083E2 		add	r3, r3, #1
 2447 18c0 010053E1 		cmp	r3, r1
 2448 18c4 00E090E5 		ldr	lr, [r0]	@ float
 2449 18c8 040080E2 		add	r0, r0, #4
 2450 18cc 50008DE5 		str	r0, [sp, #80]
 2451 18d0 04E082E4 		str	lr, [r2], #4	@ float
 2452 18d4 0700000A 		beq	.L1425
 2453              	.L241:
 2454 18d8 070053E1 		cmp	r3, r7
 2455 18dc 0C005BA1 		cmpge	fp, ip
 2456 18e0 F1FFFFCA 		bgt	.L1426
 2457              	.L650:
 2458 18e4 013083E2 		add	r3, r3, #1
 2459 18e8 04E0A0E1 		mov	lr, r4	@ float
 2460 18ec 010053E1 		cmp	r3, r1
 2461 18f0 04E082E4 		str	lr, [r2], #4	@ float
 2462 18f4 F7FFFF1A 		bne	.L241
 2463              	.L1425:
 2464 18f8 04309DE5 		ldr	r3, [sp, #4]
 2465 18fc 30709DE5 		ldr	r7, [sp, #48]
 2466 1900 34E09DE5 		ldr	lr, [sp, #52]
 2467 1904 38009DE5 		ldr	r0, [sp, #56]
 2468 1908 039089E0 		add	r9, r9, r3
 2469              	.L235:
 2470 190c 01C08CE2 		add	ip, ip, #1
 2471 1910 06005CE1 		cmp	ip, r6
 2472 1914 CDFFFF1A 		bne	.L264
 2473              	.L234:
 2474 1918 10309DE5 		ldr	r3, [sp, #16]
 2475 191c 01E08EE2 		add	lr, lr, #1
 2476 1920 03005EE1 		cmp	lr, r3
 2477 1924 B6FFFF1A 		bne	.L265
 2478              	.L233:
 2479 1928 14309DE5 		ldr	r3, [sp, #20]
 2480 192c 18209DE5 		ldr	r2, [sp, #24]
 2481 1930 013083E2 		add	r3, r3, #1
 2482 1934 020053E1 		cmp	r3, r2
 2483 1938 14308DE5 		str	r3, [sp, #20]
 2484 193c 9FFFFF1A 		bne	.L266
 2485 1940 0A30A0E1 		mov	r3, r10
 2486 1944 07A0A0E1 		mov	r10, r7
 2487 1948 0370A0E1 		mov	r7, r3
 2488 194c 40309DE5 		ldr	r3, [sp, #64]
 2489 1950 018088E2 		add	r8, r8, #1
 2490 1954 030058E1 		cmp	r8, r3
 2491 1958 93FFFFBA 		blt	.L267
 2492              	.L232:
 2493 195c 3C309DE5 		ldr	r3, [sp, #60]
 2494 1960 050053E3 		cmp	r3, #5
 2495 1964 21FBFF0A 		beq	.L528
 2496 1968 8FFCFFEA 		b	.L470
 2497              	.L236:
 2498 196c 080051E3 		cmp	r1, #8
 2499 1970 860000DA 		ble	.L655
 2500 1974 203089E2 		add	r3, r9, #32
 2501 1978 0020A0E3 		mov	r2, #0
 2502              	.L261:
 2503 197c 082082E2 		add	r2, r2, #8
 2504 1980 80F0D3F5 		pld	[r3, #128]
 2505 1984 020050E1 		cmp	r0, r2
 2506 1988 204003E5 		str	r4, [r3, #-32]	@ float
 2507 198c 1C4003E5 		str	r4, [r3, #-28]	@ float
 2508 1990 03B0A0E1 		mov	fp, r3
 2509 1994 184003E5 		str	r4, [r3, #-24]	@ float
 2510 1998 203083E2 		add	r3, r3, #32
 2511 199c 344003E5 		str	r4, [r3, #-52]	@ float
 2512 19a0 304003E5 		str	r4, [r3, #-48]	@ float
 2513 19a4 2C4003E5 		str	r4, [r3, #-44]	@ float
 2514 19a8 284003E5 		str	r4, [r3, #-40]	@ float
 2515 19ac 244003E5 		str	r4, [r3, #-36]	@ float
 2516 19b0 F1FFFF1A 		bne	.L261
 2517              	.L263:
 2518 19b4 012082E2 		add	r2, r2, #1
 2519 19b8 04408BE4 		str	r4, [fp], #4	@ float
 2520 19bc 020051E1 		cmp	r1, r2
 2521 19c0 FBFFFFCA 		bgt	.L263
 2522              	.L1232:
 2523 19c4 04309DE5 		ldr	r3, [sp, #4]
 2524 19c8 01C08CE2 		add	ip, ip, #1
 2525 19cc 06005CE1 		cmp	ip, r6
 2526 19d0 039089E0 		add	r9, r9, r3
 2527 19d4 9DFFFF1A 		bne	.L264
 2528 19d8 CEFFFFEA 		b	.L234
 2529              	.L237:
 2530 19dc 080051E3 		cmp	r1, #8
 2531 19e0 710000DA 		ble	.L654
 2532 19e4 203089E2 		add	r3, r9, #32
 2533 19e8 0020A0E3 		mov	r2, #0
 2534              	.L257:
 2535 19ec 082082E2 		add	r2, r2, #8
 2536 19f0 80F0D3F5 		pld	[r3, #128]
 2537 19f4 020050E1 		cmp	r0, r2
 2538 19f8 204003E5 		str	r4, [r3, #-32]	@ float
 2539 19fc 1C4003E5 		str	r4, [r3, #-28]	@ float
 2540 1a00 03B0A0E1 		mov	fp, r3
 2541 1a04 184003E5 		str	r4, [r3, #-24]	@ float
 2542 1a08 203083E2 		add	r3, r3, #32
 2543 1a0c 344003E5 		str	r4, [r3, #-52]	@ float
 2544 1a10 304003E5 		str	r4, [r3, #-48]	@ float
 2545 1a14 2C4003E5 		str	r4, [r3, #-44]	@ float
 2546 1a18 284003E5 		str	r4, [r3, #-40]	@ float
 2547 1a1c 244003E5 		str	r4, [r3, #-36]	@ float
 2548 1a20 F1FFFF1A 		bne	.L257
 2549              	.L259:
 2550 1a24 012082E2 		add	r2, r2, #1
 2551 1a28 04408BE4 		str	r4, [fp], #4	@ float
 2552 1a2c 020051E1 		cmp	r1, r2
 2553 1a30 E3FFFFDA 		ble	.L1232
 2554              	.L1375:
 2555 1a34 012082E2 		add	r2, r2, #1
 2556 1a38 04408BE4 		str	r4, [fp], #4	@ float
 2557 1a3c 020051E1 		cmp	r1, r2
 2558 1a40 F7FFFFCA 		bgt	.L259
 2559 1a44 DEFFFFEA 		b	.L1232
 2560              	.L238:
 2561 1a48 0C209DE5 		ldr	r2, [sp, #12]
 2562 1a4c 000052E3 		cmp	r2, #0
 2563 1a50 1900001A 		bne	.L247
 2564 1a54 080051E3 		cmp	r1, #8
 2565 1a58 670000DA 		ble	.L652
 2566 1a5c 203089E2 		add	r3, r9, #32
 2567              	.L249:
 2568 1a60 082082E2 		add	r2, r2, #8
 2569 1a64 80F0D3F5 		pld	[r3, #128]
 2570 1a68 020050E1 		cmp	r0, r2
 2571 1a6c 204003E5 		str	r4, [r3, #-32]	@ float
 2572 1a70 1C4003E5 		str	r4, [r3, #-28]	@ float
 2573 1a74 03B0A0E1 		mov	fp, r3
 2574 1a78 184003E5 		str	r4, [r3, #-24]	@ float
 2575 1a7c 203083E2 		add	r3, r3, #32
 2576 1a80 344003E5 		str	r4, [r3, #-52]	@ float
 2577 1a84 304003E5 		str	r4, [r3, #-48]	@ float
 2578 1a88 2C4003E5 		str	r4, [r3, #-44]	@ float
 2579 1a8c 284003E5 		str	r4, [r3, #-40]	@ float
 2580 1a90 244003E5 		str	r4, [r3, #-36]	@ float
 2581 1a94 F1FFFF1A 		bne	.L249
 2582              	.L251:
 2583 1a98 012082E2 		add	r2, r2, #1
 2584 1a9c 04408BE4 		str	r4, [fp], #4	@ float
 2585 1aa0 020051E1 		cmp	r1, r2
 2586 1aa4 C6FFFFDA 		ble	.L1232
 2587              	.L1376:
 2588 1aa8 012082E2 		add	r2, r2, #1
 2589 1aac 04408BE4 		str	r4, [fp], #4	@ float
 2590 1ab0 020051E1 		cmp	r1, r2
 2591 1ab4 F7FFFFCA 		bgt	.L251
 2592 1ab8 C1FFFFEA 		b	.L1232
 2593              	.L247:
 2594 1abc 080051E3 		cmp	r1, #8
 2595 1ac0 460000DA 		ble	.L653
 2596 1ac4 08209DE5 		ldr	r2, [sp, #8]
 2597 1ac8 203089E2 		add	r3, r9, #32
 2598              	.L253:
 2599 1acc 082082E2 		add	r2, r2, #8
 2600 1ad0 80F0D3F5 		pld	[r3, #128]
 2601 1ad4 020050E1 		cmp	r0, r2
 2602 1ad8 204003E5 		str	r4, [r3, #-32]	@ float
 2603 1adc 1C4003E5 		str	r4, [r3, #-28]	@ float
 2604 1ae0 03B0A0E1 		mov	fp, r3
 2605 1ae4 184003E5 		str	r4, [r3, #-24]	@ float
 2606 1ae8 203083E2 		add	r3, r3, #32
 2607 1aec 344003E5 		str	r4, [r3, #-52]	@ float
 2608 1af0 304003E5 		str	r4, [r3, #-48]	@ float
 2609 1af4 2C4003E5 		str	r4, [r3, #-44]	@ float
 2610 1af8 284003E5 		str	r4, [r3, #-40]	@ float
 2611 1afc 244003E5 		str	r4, [r3, #-36]	@ float
 2612 1b00 F1FFFF1A 		bne	.L253
 2613              	.L255:
 2614 1b04 012082E2 		add	r2, r2, #1
 2615 1b08 04408BE4 		str	r4, [fp], #4	@ float
 2616 1b0c 020051E1 		cmp	r1, r2
 2617 1b10 ABFFFFDA 		ble	.L1232
 2618              	.L1377:
 2619 1b14 012082E2 		add	r2, r2, #1
 2620 1b18 04408BE4 		str	r4, [fp], #4	@ float
 2621 1b1c 020051E1 		cmp	r1, r2
 2622 1b20 F7FFFFCA 		bgt	.L255
 2623 1b24 A6FFFFEA 		b	.L1232
 2624              	.L239:
 2625 1b28 080051E3 		cmp	r1, #8
 2626 1b2c 250000DA 		ble	.L651
 2627 1b30 203089E2 		add	r3, r9, #32
 2628              	.L244:
 2629 1b34 082082E2 		add	r2, r2, #8
 2630 1b38 80F0D3F5 		pld	[r3, #128]
 2631 1b3c 020050E1 		cmp	r0, r2
 2632 1b40 204003E5 		str	r4, [r3, #-32]	@ float
 2633 1b44 1C4003E5 		str	r4, [r3, #-28]	@ float
 2634 1b48 03B0A0E1 		mov	fp, r3
 2635 1b4c 184003E5 		str	r4, [r3, #-24]	@ float
 2636 1b50 203083E2 		add	r3, r3, #32
 2637 1b54 344003E5 		str	r4, [r3, #-52]	@ float
 2638 1b58 304003E5 		str	r4, [r3, #-48]	@ float
 2639 1b5c 2C4003E5 		str	r4, [r3, #-44]	@ float
 2640 1b60 284003E5 		str	r4, [r3, #-40]	@ float
 2641 1b64 244003E5 		str	r4, [r3, #-36]	@ float
 2642 1b68 F1FFFF1A 		bne	.L244
 2643              	.L246:
 2644 1b6c 012082E2 		add	r2, r2, #1
 2645 1b70 04408BE4 		str	r4, [fp], #4	@ float
 2646 1b74 020051E1 		cmp	r1, r2
 2647 1b78 91FFFFDA 		ble	.L1232
 2648              	.L1378:
 2649 1b7c 012082E2 		add	r2, r2, #1
 2650 1b80 04408BE4 		str	r4, [fp], #4	@ float
 2651 1b84 020051E1 		cmp	r1, r2
 2652 1b88 F7FFFFCA 		bgt	.L246
 2653 1b8c 8CFFFFEA 		b	.L1232
 2654              	.L655:
 2655 1b90 0020A0E3 		mov	r2, #0
 2656 1b94 09B0A0E1 		mov	fp, r9
 2657 1b98 012082E2 		add	r2, r2, #1
 2658 1b9c 04408BE4 		str	r4, [fp], #4	@ float
 2659 1ba0 020051E1 		cmp	r1, r2
 2660 1ba4 82FFFFCA 		bgt	.L263
 2661 1ba8 85FFFFEA 		b	.L1232
 2662              	.L654:
 2663 1bac 0020A0E3 		mov	r2, #0
 2664 1bb0 09B0A0E1 		mov	fp, r9
 2665 1bb4 012082E2 		add	r2, r2, #1
 2666 1bb8 04408BE4 		str	r4, [fp], #4	@ float
 2667 1bbc 020051E1 		cmp	r1, r2
 2668 1bc0 9BFFFFCA 		bgt	.L1375
 2669 1bc4 7EFFFFEA 		b	.L1232
 2670              	.L651:
 2671 1bc8 012082E2 		add	r2, r2, #1
 2672 1bcc 09B0A0E1 		mov	fp, r9
 2673 1bd0 020051E1 		cmp	r1, r2
 2674 1bd4 04408BE4 		str	r4, [fp], #4	@ float
 2675 1bd8 E7FFFFCA 		bgt	.L1378
 2676 1bdc 78FFFFEA 		b	.L1232
 2677              	.L653:
 2678 1be0 08209DE5 		ldr	r2, [sp, #8]
 2679 1be4 09B0A0E1 		mov	fp, r9
 2680 1be8 04408BE4 		str	r4, [fp], #4	@ float
 2681 1bec 012082E2 		add	r2, r2, #1
 2682 1bf0 020051E1 		cmp	r1, r2
 2683 1bf4 C6FFFFCA 		bgt	.L1377
 2684 1bf8 71FFFFEA 		b	.L1232
 2685              	.L652:
 2686 1bfc 012082E2 		add	r2, r2, #1
 2687 1c00 09B0A0E1 		mov	fp, r9
 2688 1c04 020051E1 		cmp	r1, r2
 2689 1c08 04408BE4 		str	r4, [fp], #4	@ float
 2690 1c0c A5FFFFCA 		bgt	.L1376
 2691 1c10 6BFFFFEA 		b	.L1232
 2692              	.L1422:
 2693 1c14 D4309DE5 		ldr	r3, [sp, #212]
 2694 1c18 64209DE5 		ldr	r2, [sp, #100]
 2695 1c1c 60609DE5 		ldr	r6, [sp, #96]
 2696 1c20 040093E5 		ldr	r0, [r3, #4]
 2697 1c24 54208DE5 		str	r2, [sp, #84]
 2698 1c28 002093E5 		ldr	r2, [r3]
 2699 1c2c 48308DE5 		str	r3, [sp, #72]
 2700 1c30 101093E5 		ldr	r1, [r3, #16]
 2701 1c34 40208DE5 		str	r2, [sp, #64]
 2702 1c38 000052E3 		cmp	r2, #0
 2703 1c3c 0CA093E5 		ldr	r10, [r3, #12]
 2704 1c40 082093E5 		ldr	r2, [r3, #8]
 2705 1c44 68309DE5 		ldr	r3, [sp, #104]
 2706 1c48 18008DE5 		str	r0, [sp, #24]
 2707 1c4c 10208DE5 		str	r2, [sp, #16]
 2708 1c50 20308DE5 		str	r3, [sp, #32]
 2709 1c54 70309DE5 		ldr	r3, [sp, #112]
 2710 1c58 6C709DE5 		ldr	r7, [sp, #108]
 2711 1c5c 44308DE5 		str	r3, [sp, #68]
 2712 1c60 74309DE5 		ldr	r3, [sp, #116]
 2713 1c64 58308DE5 		str	r3, [sp, #88]
 2714 1c68 78309DE5 		ldr	r3, [sp, #120]
 2715 1c6c 2C308DE5 		str	r3, [sp, #44]
 2716 1c70 7C309DE5 		ldr	r3, [sp, #124]
 2717 1c74 28308DE5 		str	r3, [sp, #40]
 2718 1c78 80309DE5 		ldr	r3, [sp, #128]
 2719 1c7c 24308DE5 		str	r3, [sp, #36]
 2720 1c80 84309DE5 		ldr	r3, [sp, #132]
 2721 1c84 4C308DE5 		str	r3, [sp, #76]
 2722 1c88 BAFEFFCA 		bgt	.L229
 2723 1c8c C6FBFFEA 		b	.L470
 2724              	.L1421:
 2725              	.LEHB39:
 2726 1c90 FEFFFFEB 		bl	abort
 2727              	.LEHE39:
 2728              	.L218:
 2729              	.LEHB40:
 2730 1c94 FEFFFFEB 		bl	abort
 2731              	.LEHE40:
 2732              	.L702:
 2733 1c98 81F9FFEA 		b	.L573
 2734              	.L716:
 2735 1c9c 82FAFFEA 		b	.L1243
 2736              	.L1424:
 2737              	.LEHB41:
 2738 1ca0 FEFFFFEB 		bl	abort
 2739              	.L613:
 2740 1ca4 FEFFFFEB 		bl	abort
 2741              	.L612:
 2742 1ca8 FEFFFFEB 		bl	abort
 2743              	.L1423:
 2744 1cac FEFFFFEB 		bl	abort
 2745              	.LEHE41:
 2746              	.L1420:
 2747              	.LEHB42:
 2748 1cb0 FEFFFFEB 		bl	abort
 2749              	.LEHE42:
 2750              	.L1419:
 2751              	.LEHB43:
 2752 1cb4 FEFFFFEB 		bl	abort
 2753              	.LEHE43:
 2754              	.L715:
 2755 1cb8 7BFAFFEA 		b	.L1243
 2756              	.L687:
 2757 1cbc 4FF9FFEA 		b	.L596
 2758              	.L1409:
 2759 1cc0 0710A0E1 		mov	r1, r7
 2760 1cc4 88008DE2 		add	r0, sp, #136
 2761              	.LEHB44:
 2762 1cc8 FEFFFFEB 		bl	_ZN6tflite5micro14GetTensorShapeEPK16TfLiteEvalTensor
 2763              	.LEHE44:
 2764 1ccc 003097E5 		ldr	r3, [r7]
 2765 1cd0 0910A0E1 		mov	r1, r9
 2766 1cd4 A0008DE2 		add	r0, sp, #160
 2767 1cd8 34308DE5 		str	r3, [sp, #52]
 2768              	.LEHB45:
 2769 1cdc FEFFFFEB 		bl	_ZN6tflite5micro14GetTensorShapeEPK16TfLiteEvalTensor
 2770              	.LEHE45:
 2771 1ce0 88209DE5 		ldr	r2, [sp, #136]
 2772 1ce4 000059E3 		cmp	r9, #0
 2773 1ce8 00909915 		ldrne	r9, [r9]
 2774 1cec 0030A0E3 		mov	r3, #0
 2775 1cf0 B8308DE5 		str	r3, [sp, #184]
 2776 1cf4 050052E3 		cmp	r2, #5
 2777 1cf8 510000CA 		bgt	.L1427
 2778 1cfc 050072E2 		rsbs	r0, r2, #5
 2779 1d00 0530A0E3 		mov	r3, #5
 2780 1d04 B8308DE5 		str	r3, [sp, #184]
 2781 1d08 2E00000A 		beq	.L137
 2782 1d0c 010050E3 		cmp	r0, #1
 2783 1d10 0130A0E3 		mov	r3, #1
 2784 1d14 BC308DE5 		str	r3, [sp, #188]
 2785 1d18 2A00000A 		beq	.L137
 2786 1d1c 020050E3 		cmp	r0, #2
 2787 1d20 C0308DE5 		str	r3, [sp, #192]
 2788 1d24 2700000A 		beq	.L137
 2789 1d28 030050E3 		cmp	r0, #3
 2790 1d2c C4308DE5 		str	r3, [sp, #196]
 2791 1d30 2400000A 		beq	.L137
 2792 1d34 040050E3 		cmp	r0, #4
 2793 1d38 C8308DE5 		str	r3, [sp, #200]
 2794 1d3c 2100000A 		beq	.L137
 2795 1d40 050050E3 		cmp	r0, #5
 2796 1d44 CC308DE5 		str	r3, [sp, #204]
 2797 1d48 1E00000A 		beq	.L137
 2798              	.LEHB46:
 2799 1d4c FEFFFFEB 		bl	abort
 2800              	.LEHE46:
 2801              	.L1408:
 2802              	.LEHB47:
 2803 1d50 FEFFFFEB 		bl	abort
 2804              	.LEHE47:
 2805              	.L697:
 2806 1d54 29F9FFEA 		b	.L596
 2807              	.L682:
 2808 1d58 0100A0E3 		mov	r0, #1
 2809 1d5c 39FAFFEA 		b	.L1179
 2810              	.L1383:
 2811 1d60 0C1093E5 		ldr	r1, [r3, #12]
 2812 1d64 0600A0E1 		mov	r0, r6
 2813 1d68 543096E5 		ldr	r3, [r6, #84]
 2814              	.LEHB48:
 2815 1d6c 33FF2FE1 		blx	r3
 2816 1d70 042098E5 		ldr	r2, [r8, #4]
 2817 1d74 0040A0E1 		mov	r4, r0
 2818 1d78 543096E5 		ldr	r3, [r6, #84]
 2819 1d7c 0600A0E1 		mov	r0, r6
 2820 1d80 041092E5 		ldr	r1, [r2, #4]
 2821 1d84 33FF2FE1 		blx	r3
 2822              	.LEHE48:
 2823 1d88 0830D7E5 		ldrb	r3, [r7, #8]	@ zero_extendqisi2
 2824 1d8c 0090A0E1 		mov	r9, r0
 2825 1d90 013043E2 		sub	r3, r3, #1
 2826 1d94 080053E3 		cmp	r3, #8
 2827 1d98 03F19F97 		ldrls	pc, [pc, r3, asl #2]
 2828 1d9c EDFFFFEA 		b	.L682
 2829              	.L127:
 2830 1da0 AC240000 		.word	.L126
 2831 1da4 9C240000 		.word	.L128
 2832 1da8 88240000 		.word	.L129
 2833 1dac 581D0000 		.word	.L682
 2834 1db0 581D0000 		.word	.L682
 2835 1db4 581D0000 		.word	.L682
 2836 1db8 581D0000 		.word	.L682
 2837 1dbc 581D0000 		.word	.L682
 2838 1dc0 74240000 		.word	.L130
 2839              	.L686:
 2840 1dc4 06F9FFEA 		b	.L575
 2841              	.L137:
 2842 1dc8 BC308DE2 		add	r3, sp, #188
 2843 1dcc 0221A0E1 		lsl	r2, r2, #2
 2844 1dd0 000183E0 		add	r0, r3, r0, lsl #2
 2845 1dd4 8C108DE2 		add	r1, sp, #140
 2846 1dd8 FEFFFFEB 		bl	memcpy
 2847 1ddc A0209DE5 		ldr	r2, [sp, #160]
 2848 1de0 0030A0E3 		mov	r3, #0
 2849 1de4 D0308DE5 		str	r3, [sp, #208]
 2850 1de8 050052E3 		cmp	r2, #5
 2851 1dec 9D0100CA 		bgt	.L1428
 2852 1df0 050072E2 		rsbs	r0, r2, #5
 2853 1df4 0530A0E3 		mov	r3, #5
 2854 1df8 D0308DE5 		str	r3, [sp, #208]
 2855 1dfc 1300000A 		beq	.L142
 2856 1e00 010050E3 		cmp	r0, #1
 2857 1e04 0130A0E3 		mov	r3, #1
 2858 1e08 D4308DE5 		str	r3, [sp, #212]
 2859 1e0c 0F00000A 		beq	.L142
 2860 1e10 020050E3 		cmp	r0, #2
 2861 1e14 D8308DE5 		str	r3, [sp, #216]
 2862 1e18 0C00000A 		beq	.L142
 2863 1e1c 030050E3 		cmp	r0, #3
 2864 1e20 DC308DE5 		str	r3, [sp, #220]
 2865 1e24 0900000A 		beq	.L142
 2866 1e28 040050E3 		cmp	r0, #4
 2867 1e2c E0308DE5 		str	r3, [sp, #224]
 2868 1e30 0600000A 		beq	.L142
 2869 1e34 050050E3 		cmp	r0, #5
 2870 1e38 E4308DE5 		str	r3, [sp, #228]
 2871 1e3c 0300000A 		beq	.L142
 2872              	.LEHB49:
 2873 1e40 FEFFFFEB 		bl	abort
 2874              	.LEHE49:
 2875              	.L1427:
 2876              	.LEHB50:
 2877 1e44 FEFFFFEB 		bl	abort
 2878              	.LEHE50:
 2879              	.L685:
 2880 1e48 ECF8FFEA 		b	.L596
 2881              	.L699:
 2882 1e4c 14F9FFEA 		b	.L573
 2883              	.L142:
 2884 1e50 D4308DE2 		add	r3, sp, #212
 2885 1e54 0221A0E1 		lsl	r2, r2, #2
 2886 1e58 000183E0 		add	r0, r3, r0, lsl #2
 2887 1e5c A4108DE2 		add	r1, sp, #164
 2888 1e60 FEFFFFEB 		bl	memcpy
 2889 1e64 D020D5E1 		ldrsb	r2, [r5]
 2890 1e68 050052E3 		cmp	r2, #5
 2891 1e6c 7C0100CA 		bgt	.L1429
 2892 1e70 D861D5E1 		ldrsb	r6, [r5, #24]
 2893 1e74 050056E3 		cmp	r6, #5
 2894 1e78 780100CA 		bgt	.L144
 2895 1e7c 000052E3 		cmp	r2, #0
 2896 1e80 0030A0E3 		mov	r3, #0
 2897 1e84 60308DE5 		str	r3, [sp, #96]
 2898 1e88 64308DE5 		str	r3, [sp, #100]
 2899 1e8c 68308DE5 		str	r3, [sp, #104]
 2900 1e90 6C308DE5 		str	r3, [sp, #108]
 2901 1e94 70308DE5 		str	r3, [sp, #112]
 2902 1e98 050000DA 		ble	.L145
 2903 1e9c E8308DE2 		add	r3, sp, #232
 2904 1ea0 041085E2 		add	r1, r5, #4
 2905 1ea4 020143E0 		sub	r0, r3, r2, lsl #2
 2906 1ea8 0221A0E1 		lsl	r2, r2, #2
 2907 1eac 740040E2 		sub	r0, r0, #116
 2908 1eb0 FEFFFFEB 		bl	memcpy
 2909              	.L145:
 2910 1eb4 000056E3 		cmp	r6, #0
 2911 1eb8 0030A0E3 		mov	r3, #0
 2912 1ebc 74308DE5 		str	r3, [sp, #116]
 2913 1ec0 78308DE5 		str	r3, [sp, #120]
 2914 1ec4 7C308DE5 		str	r3, [sp, #124]
 2915 1ec8 80308DE5 		str	r3, [sp, #128]
 2916 1ecc 84308DE5 		str	r3, [sp, #132]
 2917 1ed0 050000DA 		ble	.L152
 2918 1ed4 E8308DE2 		add	r3, sp, #232
 2919 1ed8 1C1085E2 		add	r1, r5, #28
 2920 1edc 060143E0 		sub	r0, r3, r6, lsl #2
 2921 1ee0 0621A0E1 		lsl	r2, r6, #2
 2922 1ee4 600040E2 		sub	r0, r0, #96
 2923 1ee8 FEFFFFEB 		bl	memcpy
 2924              	.L152:
 2925 1eec D0309DE5 		ldr	r3, [sp, #208]
 2926 1ef0 000053E3 		cmp	r3, #0
 2927 1ef4 1C308DE5 		str	r3, [sp, #28]
 2928 1ef8 940100DA 		ble	.L1430
 2929 1efc 050053E3 		cmp	r3, #5
 2930 1f00 730100CA 		bgt	.L1431
 2931 1f04 010053E3 		cmp	r3, #1
 2932 1f08 D4309DE5 		ldr	r3, [sp, #212]
 2933 1f0c 20308DE5 		str	r3, [sp, #32]
 2934 1f10 6E01000A 		beq	.L1432
 2935 1f14 1C309DE5 		ldr	r3, [sp, #28]
 2936 1f18 D8209DE5 		ldr	r2, [sp, #216]
 2937 1f1c 020053E3 		cmp	r3, #2
 2938 1f20 18208DE5 		str	r2, [sp, #24]
 2939 1f24 6801000A 		beq	.L608
 2940 1f28 DC209DE5 		ldr	r2, [sp, #220]
 2941 1f2c 030053E3 		cmp	r3, #3
 2942 1f30 0C208DE5 		str	r2, [sp, #12]
 2943 1f34 6201000A 		beq	.L609
 2944 1f38 040053E3 		cmp	r3, #4
 2945 1f3c E0A09DE5 		ldr	r10, [sp, #224]
 2946 1f40 5E01000A 		beq	.L1433
 2947 1f44 64209DE5 		ldr	r2, [sp, #100]
 2948 1f48 20309DE5 		ldr	r3, [sp, #32]
 2949 1f4c E4109DE5 		ldr	r1, [sp, #228]
 2950 1f50 48208DE5 		str	r2, [sp, #72]
 2951 1f54 68209DE5 		ldr	r2, [sp, #104]
 2952 1f58 000053E3 		cmp	r3, #0
 2953 1f5c 60609DE5 		ldr	r6, [sp, #96]
 2954 1f60 6C809DE5 		ldr	r8, [sp, #108]
 2955 1f64 30208DE5 		str	r2, [sp, #48]
 2956 1f68 70209DE5 		ldr	r2, [sp, #112]
 2957 1f6c 3C208DE5 		str	r2, [sp, #60]
 2958 1f70 74209DE5 		ldr	r2, [sp, #116]
 2959 1f74 44208DE5 		str	r2, [sp, #68]
 2960 1f78 78209DE5 		ldr	r2, [sp, #120]
 2961 1f7c 24208DE5 		str	r2, [sp, #36]
 2962 1f80 7C209DE5 		ldr	r2, [sp, #124]
 2963 1f84 2C208DE5 		str	r2, [sp, #44]
 2964 1f88 80209DE5 		ldr	r2, [sp, #128]
 2965 1f8c 28208DE5 		str	r2, [sp, #40]
 2966 1f90 84209DE5 		ldr	r2, [sp, #132]
 2967 1f94 40208DE5 		str	r2, [sp, #64]
 2968 1f98 94F9FFDA 		ble	.L528
 2969 1f9c 38308DE5 		str	r3, [sp, #56]
 2970              	.L155:
 2971 1fa0 18309DE5 		ldr	r3, [sp, #24]
 2972 1fa4 000053E3 		cmp	r3, #0
 2973 1fa8 7B0000DA 		ble	.L158
 2974 1fac 0131A0E1 		lsl	r3, r1, #2
 2975 1fb0 090041E2 		sub	r0, r1, #9
 2976 1fb4 0070A0E3 		mov	r7, #0
 2977 1fb8 0A20A0E1 		mov	r2, r10
 2978 1fbc 04308DE5 		str	r3, [sp, #4]
 2979 1fc0 0700C0E3 		bic	r0, r0, #7
 2980 1fc4 0830A0E1 		mov	r3, r8
 2981 1fc8 07A0A0E1 		mov	r10, r7
 2982 1fcc 0680A0E1 		mov	r8, r6
 2983 1fd0 080080E2 		add	r0, r0, #8
 2984 1fd4 0360A0E1 		mov	r6, r3
 2985 1fd8 0270A0E1 		mov	r7, r2
 2986              	.L193:
 2987 1fdc 0030A0E3 		mov	r3, #0
 2988 1fe0 14308DE5 		str	r3, [sp, #20]
 2989 1fe4 0630A0E1 		mov	r3, r6
 2990 1fe8 0860A0E1 		mov	r6, r8
 2991 1fec 0380A0E1 		mov	r8, r3
 2992              	.L192:
 2993 1ff0 0C309DE5 		ldr	r3, [sp, #12]
 2994 1ff4 000053E3 		cmp	r3, #0
 2995 1ff8 5A0000DA 		ble	.L159
 2996 1ffc 44209DE5 		ldr	r2, [sp, #68]
 2997 2000 00E0A0E3 		mov	lr, #0
 2998 2004 20309DE5 		ldr	r3, [sp, #32]
 2999 2008 48C09DE5 		ldr	ip, [sp, #72]
 3000 200c 023043E0 		sub	r3, r3, r2
 3001 2010 14209DE5 		ldr	r2, [sp, #20]
 3002 2014 0C0052E1 		cmp	r2, ip
 3003 2018 0A0053A1 		cmpge	r3, r10
 3004 201c 0130A0D3 		movle	r3, #1
 3005 2020 0030A0C3 		movgt	r3, #0
 3006 2024 08308DE5 		str	r3, [sp, #8]
 3007 2028 40309DE5 		ldr	r3, [sp, #64]
 3008 202c 033041E0 		sub	r3, r1, r3
 3009 2030 50308DE5 		str	r3, [sp, #80]
 3010              	.L191:
 3011 2034 000057E3 		cmp	r7, #0
 3012 2038 460000DA 		ble	.L160
 3013 203c 24209DE5 		ldr	r2, [sp, #36]
 3014 2040 00C0A0E3 		mov	ip, #0
 3015 2044 18309DE5 		ldr	r3, [sp, #24]
 3016 2048 30509DE5 		ldr	r5, [sp, #48]
 3017 204c 023043E0 		sub	r3, r3, r2
 3018 2050 14209DE5 		ldr	r2, [sp, #20]
 3019 2054 05005EE1 		cmp	lr, r5
 3020 2058 020053A1 		cmpge	r3, r2
 3021 205c 2C209DE5 		ldr	r2, [sp, #44]
 3022 2060 0130A0D3 		movle	r3, #1
 3023 2064 0030A0C3 		movgt	r3, #0
 3024 2068 10308DE5 		str	r3, [sp, #16]
 3025 206c 0C309DE5 		ldr	r3, [sp, #12]
 3026 2070 025043E0 		sub	r5, r3, r2
 3027 2074 28309DE5 		ldr	r3, [sp, #40]
 3028 2078 033047E0 		sub	r3, r7, r3
 3029 207c 4C308DE5 		str	r3, [sp, #76]
 3030              	.L190:
 3031 2080 000051E3 		cmp	r1, #0
 3032 2084 300000DA 		ble	.L161
 3033 2088 08005CE1 		cmp	ip, r8
 3034 208c 0E0055A1 		cmpge	r5, lr
 3035 2090 0130A0D3 		movle	r3, #1
 3036 2094 0030A0C3 		movgt	r3, #0
 3037 2098 06005AE1 		cmp	r10, r6
 3038 209c 450000BA 		blt	.L162
 3039 20a0 08209DE5 		ldr	r2, [sp, #8]
 3040 20a4 000052E3 		cmp	r2, #0
 3041 20a8 5E00001A 		bne	.L163
 3042 20ac 000053E3 		cmp	r3, #0
 3043 20b0 7700001A 		bne	.L164
 3044 20b4 10309DE5 		ldr	r3, [sp, #16]
 3045 20b8 000053E3 		cmp	r3, #0
 3046 20bc AC00001A 		bne	.L165
 3047 20c0 09B0A0E1 		mov	fp, r9
 3048 20c4 54908DE5 		str	r9, [sp, #84]
 3049 20c8 58E08DE5 		str	lr, [sp, #88]
 3050 20cc 4C909DE5 		ldr	r9, [sp, #76]
 3051 20d0 3CE09DE5 		ldr	lr, [sp, #60]
 3052 20d4 5C008DE5 		str	r0, [sp, #92]
 3053 20d8 0A0000EA 		b	.L167
 3054              	.L1435:
 3055 20dc 50209DE5 		ldr	r2, [sp, #80]
 3056 20e0 020053E1 		cmp	r3, r2
 3057 20e4 0E0000AA 		bge	.L641
 3058 20e8 34009DE5 		ldr	r0, [sp, #52]
 3059 20ec 013083E2 		add	r3, r3, #1
 3060 20f0 010053E1 		cmp	r3, r1
 3061 20f4 002090E5 		ldr	r2, [r0]	@ float
 3062 20f8 040080E2 		add	r0, r0, #4
 3063 20fc 34008DE5 		str	r0, [sp, #52]
 3064 2100 04208BE4 		str	r2, [fp], #4	@ float
 3065 2104 0B00000A 		beq	.L1434
 3066              	.L167:
 3067 2108 0E0053E1 		cmp	r3, lr
 3068 210c 0020A0A3 		movge	r2, #0
 3069 2110 0120A0B3 		movlt	r2, #1
 3070 2114 09005CE1 		cmp	ip, r9
 3071 2118 012082A3 		orrge	r2, r2, #1
 3072 211c 000052E3 		cmp	r2, #0
 3073 2120 EDFFFF0A 		beq	.L1435
 3074              	.L641:
 3075 2124 013083E2 		add	r3, r3, #1
 3076 2128 0420A0E1 		mov	r2, r4	@ float
 3077 212c 010053E1 		cmp	r3, r1
 3078 2130 04208BE4 		str	r2, [fp], #4	@ float
 3079 2134 F3FFFF1A 		bne	.L167
 3080              	.L1434:
 3081 2138 54909DE5 		ldr	r9, [sp, #84]
 3082 213c 04309DE5 		ldr	r3, [sp, #4]
 3083 2140 58E09DE5 		ldr	lr, [sp, #88]
 3084 2144 5C009DE5 		ldr	r0, [sp, #92]
 3085 2148 039089E0 		add	r9, r9, r3
 3086              	.L161:
 3087 214c 01C08CE2 		add	ip, ip, #1
 3088 2150 07005CE1 		cmp	ip, r7
 3089 2154 C9FFFF1A 		bne	.L190
 3090              	.L160:
 3091 2158 0C309DE5 		ldr	r3, [sp, #12]
 3092 215c 01E08EE2 		add	lr, lr, #1
 3093 2160 03005EE1 		cmp	lr, r3
 3094 2164 B2FFFF1A 		bne	.L191
 3095              	.L159:
 3096 2168 14309DE5 		ldr	r3, [sp, #20]
 3097 216c 18209DE5 		ldr	r2, [sp, #24]
 3098 2170 013083E2 		add	r3, r3, #1
 3099 2174 020053E1 		cmp	r3, r2
 3100 2178 14308DE5 		str	r3, [sp, #20]
 3101 217c 9BFFFF1A 		bne	.L192
 3102 2180 0830A0E1 		mov	r3, r8
 3103 2184 0680A0E1 		mov	r8, r6
 3104 2188 0360A0E1 		mov	r6, r3
 3105 218c 20309DE5 		ldr	r3, [sp, #32]
 3106 2190 01A08AE2 		add	r10, r10, #1
 3107 2194 03005AE1 		cmp	r10, r3
 3108 2198 8FFFFFBA 		blt	.L193
 3109              	.L158:
 3110 219c 1C309DE5 		ldr	r3, [sp, #28]
 3111 21a0 050053E3 		cmp	r3, #5
 3112 21a4 11F9FF0A 		beq	.L528
 3113              	.L154:
 3114 21a8 38309DE5 		ldr	r3, [sp, #56]
 3115 21ac 000053E3 		cmp	r3, #0
 3116 21b0 0CF9FF1A 		bne	.L1321
 3117 21b4 0DF9FFEA 		b	.L528
 3118              	.L162:
 3119 21b8 080051E3 		cmp	r1, #8
 3120 21bc 860000DA 		ble	.L646
 3121 21c0 203089E2 		add	r3, r9, #32
 3122 21c4 0020A0E3 		mov	r2, #0
 3123              	.L187:
 3124 21c8 082082E2 		add	r2, r2, #8
 3125 21cc 80F0D3F5 		pld	[r3, #128]
 3126 21d0 020050E1 		cmp	r0, r2
 3127 21d4 204003E5 		str	r4, [r3, #-32]	@ float
 3128 21d8 1C4003E5 		str	r4, [r3, #-28]	@ float
 3129 21dc 03B0A0E1 		mov	fp, r3
 3130 21e0 184003E5 		str	r4, [r3, #-24]	@ float
 3131 21e4 203083E2 		add	r3, r3, #32
 3132 21e8 344003E5 		str	r4, [r3, #-52]	@ float
 3133 21ec 304003E5 		str	r4, [r3, #-48]	@ float
 3134 21f0 2C4003E5 		str	r4, [r3, #-44]	@ float
 3135 21f4 284003E5 		str	r4, [r3, #-40]	@ float
 3136 21f8 244003E5 		str	r4, [r3, #-36]	@ float
 3137 21fc F1FFFF1A 		bne	.L187
 3138              	.L189:
 3139 2200 012082E2 		add	r2, r2, #1
 3140 2204 04408BE4 		str	r4, [fp], #4	@ float
 3141 2208 020051E1 		cmp	r1, r2
 3142 220c FBFFFFCA 		bgt	.L189
 3143              	.L1230:
 3144 2210 04309DE5 		ldr	r3, [sp, #4]
 3145 2214 01C08CE2 		add	ip, ip, #1
 3146 2218 07005CE1 		cmp	ip, r7
 3147 221c 039089E0 		add	r9, r9, r3
 3148 2220 96FFFF1A 		bne	.L190
 3149 2224 CBFFFFEA 		b	.L160
 3150              	.L163:
 3151 2228 080051E3 		cmp	r1, #8
 3152 222c 710000DA 		ble	.L645
 3153 2230 203089E2 		add	r3, r9, #32
 3154 2234 0020A0E3 		mov	r2, #0
 3155              	.L183:
 3156 2238 082082E2 		add	r2, r2, #8
 3157 223c 80F0D3F5 		pld	[r3, #128]
 3158 2240 020050E1 		cmp	r0, r2
 3159 2244 204003E5 		str	r4, [r3, #-32]	@ float
 3160 2248 1C4003E5 		str	r4, [r3, #-28]	@ float
 3161 224c 03B0A0E1 		mov	fp, r3
 3162 2250 184003E5 		str	r4, [r3, #-24]	@ float
 3163 2254 203083E2 		add	r3, r3, #32
 3164 2258 344003E5 		str	r4, [r3, #-52]	@ float
 3165 225c 304003E5 		str	r4, [r3, #-48]	@ float
 3166 2260 2C4003E5 		str	r4, [r3, #-44]	@ float
 3167 2264 284003E5 		str	r4, [r3, #-40]	@ float
 3168 2268 244003E5 		str	r4, [r3, #-36]	@ float
 3169 226c F1FFFF1A 		bne	.L183
 3170              	.L185:
 3171 2270 012082E2 		add	r2, r2, #1
 3172 2274 04408BE4 		str	r4, [fp], #4	@ float
 3173 2278 020051E1 		cmp	r1, r2
 3174 227c E3FFFFDA 		ble	.L1230
 3175              	.L1379:
 3176 2280 012082E2 		add	r2, r2, #1
 3177 2284 04408BE4 		str	r4, [fp], #4	@ float
 3178 2288 020051E1 		cmp	r1, r2
 3179 228c F7FFFFCA 		bgt	.L185
 3180 2290 DEFFFFEA 		b	.L1230
 3181              	.L164:
 3182 2294 10209DE5 		ldr	r2, [sp, #16]
 3183 2298 000052E3 		cmp	r2, #0
 3184 229c 1900001A 		bne	.L173
 3185 22a0 080051E3 		cmp	r1, #8
 3186 22a4 610000DA 		ble	.L643
 3187 22a8 203089E2 		add	r3, r9, #32
 3188              	.L175:
 3189 22ac 082082E2 		add	r2, r2, #8
 3190 22b0 80F0D3F5 		pld	[r3, #128]
 3191 22b4 020050E1 		cmp	r0, r2
 3192 22b8 204003E5 		str	r4, [r3, #-32]	@ float
 3193 22bc 1C4003E5 		str	r4, [r3, #-28]	@ float
 3194 22c0 03B0A0E1 		mov	fp, r3
 3195 22c4 184003E5 		str	r4, [r3, #-24]	@ float
 3196 22c8 203083E2 		add	r3, r3, #32
 3197 22cc 344003E5 		str	r4, [r3, #-52]	@ float
 3198 22d0 304003E5 		str	r4, [r3, #-48]	@ float
 3199 22d4 2C4003E5 		str	r4, [r3, #-44]	@ float
 3200 22d8 284003E5 		str	r4, [r3, #-40]	@ float
 3201 22dc 244003E5 		str	r4, [r3, #-36]	@ float
 3202 22e0 F1FFFF1A 		bne	.L175
 3203              	.L177:
 3204 22e4 012082E2 		add	r2, r2, #1
 3205 22e8 04408BE4 		str	r4, [fp], #4	@ float
 3206 22ec 010052E1 		cmp	r2, r1
 3207 22f0 C6FFFFAA 		bge	.L1230
 3208              	.L1380:
 3209 22f4 012082E2 		add	r2, r2, #1
 3210 22f8 04408BE4 		str	r4, [fp], #4	@ float
 3211 22fc 010052E1 		cmp	r2, r1
 3212 2300 F7FFFFBA 		blt	.L177
 3213 2304 C1FFFFEA 		b	.L1230
 3214              	.L173:
 3215 2308 080051E3 		cmp	r1, #8
 3216 230c 400000DA 		ble	.L644
 3217 2310 08209DE5 		ldr	r2, [sp, #8]
 3218 2314 203089E2 		add	r3, r9, #32
 3219              	.L179:
 3220 2318 082082E2 		add	r2, r2, #8
 3221 231c 80F0D3F5 		pld	[r3, #128]
 3222 2320 020050E1 		cmp	r0, r2
 3223 2324 204003E5 		str	r4, [r3, #-32]	@ float
 3224 2328 1C4003E5 		str	r4, [r3, #-28]	@ float
 3225 232c 03B0A0E1 		mov	fp, r3
 3226 2330 184003E5 		str	r4, [r3, #-24]	@ float
 3227 2334 203083E2 		add	r3, r3, #32
 3228 2338 344003E5 		str	r4, [r3, #-52]	@ float
 3229 233c 304003E5 		str	r4, [r3, #-48]	@ float
 3230 2340 2C4003E5 		str	r4, [r3, #-44]	@ float
 3231 2344 284003E5 		str	r4, [r3, #-40]	@ float
 3232 2348 244003E5 		str	r4, [r3, #-36]	@ float
 3233 234c F1FFFF1A 		bne	.L179
 3234              	.L181:
 3235 2350 012082E2 		add	r2, r2, #1
 3236 2354 04408BE4 		str	r4, [fp], #4	@ float
 3237 2358 020051E1 		cmp	r1, r2
 3238 235c ABFFFFDA 		ble	.L1230
 3239              	.L1381:
 3240 2360 012082E2 		add	r2, r2, #1
 3241 2364 04408BE4 		str	r4, [fp], #4	@ float
 3242 2368 020051E1 		cmp	r1, r2
 3243 236c F7FFFFCA 		bgt	.L181
 3244 2370 A6FFFFEA 		b	.L1230
 3245              	.L165:
 3246 2374 080051E3 		cmp	r1, #8
 3247 2378 320000DA 		ble	.L642
 3248 237c 203089E2 		add	r3, r9, #32
 3249              	.L170:
 3250 2380 082082E2 		add	r2, r2, #8
 3251 2384 80F0D3F5 		pld	[r3, #128]
 3252 2388 020050E1 		cmp	r0, r2
 3253 238c 204003E5 		str	r4, [r3, #-32]	@ float
 3254 2390 1C4003E5 		str	r4, [r3, #-28]	@ float
 3255 2394 03B0A0E1 		mov	fp, r3
 3256 2398 184003E5 		str	r4, [r3, #-24]	@ float
 3257 239c 203083E2 		add	r3, r3, #32
 3258 23a0 344003E5 		str	r4, [r3, #-52]	@ float
 3259 23a4 304003E5 		str	r4, [r3, #-48]	@ float
 3260 23a8 2C4003E5 		str	r4, [r3, #-44]	@ float
 3261 23ac 284003E5 		str	r4, [r3, #-40]	@ float
 3262 23b0 244003E5 		str	r4, [r3, #-36]	@ float
 3263 23b4 F1FFFF1A 		bne	.L170
 3264              	.L172:
 3265 23b8 012082E2 		add	r2, r2, #1
 3266 23bc 04408BE4 		str	r4, [fp], #4	@ float
 3267 23c0 020051E1 		cmp	r1, r2
 3268 23c4 91FFFFDA 		ble	.L1230
 3269              	.L1382:
 3270 23c8 012082E2 		add	r2, r2, #1
 3271 23cc 04408BE4 		str	r4, [fp], #4	@ float
 3272 23d0 020051E1 		cmp	r1, r2
 3273 23d4 F7FFFFCA 		bgt	.L172
 3274 23d8 8CFFFFEA 		b	.L1230
 3275              	.L646:
 3276 23dc 0020A0E3 		mov	r2, #0
 3277 23e0 09B0A0E1 		mov	fp, r9
 3278 23e4 012082E2 		add	r2, r2, #1
 3279 23e8 04408BE4 		str	r4, [fp], #4	@ float
 3280 23ec 020051E1 		cmp	r1, r2
 3281 23f0 82FFFFCA 		bgt	.L189
 3282 23f4 85FFFFEA 		b	.L1230
 3283              	.L645:
 3284 23f8 0020A0E3 		mov	r2, #0
 3285 23fc 09B0A0E1 		mov	fp, r9
 3286 2400 012082E2 		add	r2, r2, #1
 3287 2404 04408BE4 		str	r4, [fp], #4	@ float
 3288 2408 020051E1 		cmp	r1, r2
 3289 240c 9BFFFFCA 		bgt	.L1379
 3290 2410 7EFFFFEA 		b	.L1230
 3291              	.L644:
 3292 2414 08209DE5 		ldr	r2, [sp, #8]
 3293 2418 09B0A0E1 		mov	fp, r9
 3294 241c 04408BE4 		str	r4, [fp], #4	@ float
 3295 2420 012082E2 		add	r2, r2, #1
 3296 2424 020051E1 		cmp	r1, r2
 3297 2428 CCFFFFCA 		bgt	.L1381
 3298 242c 77FFFFEA 		b	.L1230
 3299              	.L643:
 3300 2430 012082E2 		add	r2, r2, #1
 3301 2434 09B0A0E1 		mov	fp, r9
 3302 2438 010052E1 		cmp	r2, r1
 3303 243c 04408BE4 		str	r4, [fp], #4	@ float
 3304 2440 ABFFFFBA 		blt	.L1380
 3305 2444 71FFFFEA 		b	.L1230
 3306              	.L642:
 3307 2448 012082E2 		add	r2, r2, #1
 3308 244c 09B0A0E1 		mov	fp, r9
 3309 2450 020051E1 		cmp	r1, r2
 3310 2454 04408BE4 		str	r4, [fp], #4	@ float
 3311 2458 DAFFFFCA 		bgt	.L1382
 3312 245c 6BFFFFEA 		b	.L1230
 3313              	.L144:
 3314              	.LEHB51:
 3315 2460 FEFFFFEB 		bl	abort
 3316              	.LEHE51:
 3317              	.L1429:
 3318              	.LEHB52:
 3319 2464 FEFFFFEB 		bl	abort
 3320              	.LEHE52:
 3321              	.L1428:
 3322              	.LEHB53:
 3323 2468 FEFFFFEB 		bl	abort
 3324              	.LEHE53:
 3325              	.L714:
 3326 246c 8EF8FFEA 		b	.L1243
 3327              	.L713:
 3328 2470 8DF8FFEA 		b	.L1243
 3329              	.L130:
 3330 2474 000054E3 		cmp	r4, #0
 3331 2478 07F7FF0A 		beq	.L392
 3332 247c 003094E5 		ldr	r3, [r4]
 3333 2480 D0A0D3E1 		ldrsb	r10, [r3]
 3334 2484 05F7FFEA 		b	.L393
 3335              	.L129:
 3336 2488 000054E3 		cmp	r4, #0
 3337 248c 2BF7FF0A 		beq	.L281
 3338 2490 003094E5 		ldr	r3, [r4]
 3339 2494 00A0D3E5 		ldrb	r10, [r3]	@ zero_extendqisi2
 3340 2498 29F7FFEA 		b	.L282
 3341              	.L128:
 3342 249c 000054E3 		cmp	r4, #0
 3343 24a0 00309415 		ldrne	r3, [r4]
 3344 24a4 00409315 		ldrne	r4, [r3]
 3345 24a8 28FAFFEA 		b	.L502
 3346              	.L126:
 3347 24ac 000054E3 		cmp	r4, #0
 3348 24b0 4AFAFF0A 		beq	.L683
 3349 24b4 003094E5 		ldr	r3, [r4]
 3350 24b8 004093E5 		ldr	r4, [r3]	@ float
 3351 24bc 48FAFFEA 		b	.L131
 3352              	.L1433:
 3353              	.LEHB54:
 3354 24c0 FEFFFFEB 		bl	abort
 3355              	.L609:
 3356 24c4 FEFFFFEB 		bl	abort
 3357              	.L700:
 3358 24c8 75F7FFEA 		b	.L573
 3359              	.L608:
 3360 24cc FEFFFFEB 		bl	abort
 3361              	.L1432:
 3362 24d0 FEFFFFEB 		bl	abort
 3363              	.L1431:
 3364 24d4 D4309DE5 		ldr	r3, [sp, #212]
 3365 24d8 64209DE5 		ldr	r2, [sp, #100]
 3366 24dc 60609DE5 		ldr	r6, [sp, #96]
 3367 24e0 040093E5 		ldr	r0, [r3, #4]
 3368 24e4 48208DE5 		str	r2, [sp, #72]
 3369 24e8 002093E5 		ldr	r2, [r3]
 3370 24ec 38308DE5 		str	r3, [sp, #56]
 3371 24f0 101093E5 		ldr	r1, [r3, #16]
 3372 24f4 20208DE5 		str	r2, [sp, #32]
 3373 24f8 000052E3 		cmp	r2, #0
 3374 24fc 0CA093E5 		ldr	r10, [r3, #12]
 3375 2500 082093E5 		ldr	r2, [r3, #8]
 3376 2504 68309DE5 		ldr	r3, [sp, #104]
 3377 2508 18008DE5 		str	r0, [sp, #24]
 3378 250c 0C208DE5 		str	r2, [sp, #12]
 3379 2510 30308DE5 		str	r3, [sp, #48]
 3380 2514 70309DE5 		ldr	r3, [sp, #112]
 3381 2518 6C809DE5 		ldr	r8, [sp, #108]
 3382 251c 3C308DE5 		str	r3, [sp, #60]
 3383 2520 74309DE5 		ldr	r3, [sp, #116]
 3384 2524 44308DE5 		str	r3, [sp, #68]
 3385 2528 78309DE5 		ldr	r3, [sp, #120]
 3386 252c 24308DE5 		str	r3, [sp, #36]
 3387 2530 7C309DE5 		ldr	r3, [sp, #124]
 3388 2534 2C308DE5 		str	r3, [sp, #44]
 3389 2538 80309DE5 		ldr	r3, [sp, #128]
 3390 253c 28308DE5 		str	r3, [sp, #40]
 3391 2540 84309DE5 		ldr	r3, [sp, #132]
 3392 2544 40308DE5 		str	r3, [sp, #64]
 3393 2548 94FEFFCA 		bgt	.L155
 3394 254c 15FFFFEA 		b	.L154
 3395              	.L1430:
 3396 2550 FEFFFFEB 		bl	abort
 3397              	.LEHE54:
 3398              	.L690:
 3399 2554 22F7FFEA 		b	.L575
 3400              	.L288:
 3401 2558 BC308DE2 		add	r3, sp, #188
 3402 255c 0221A0E1 		lsl	r2, r2, #2
 3403 2560 000183E0 		add	r0, r3, r0, lsl #2
 3404 2564 8C108DE2 		add	r1, sp, #140
 3405 2568 FEFFFFEB 		bl	memcpy
 3406 256c A0209DE5 		ldr	r2, [sp, #160]
 3407 2570 0030A0E3 		mov	r3, #0
 3408 2574 D0308DE5 		str	r3, [sp, #208]
 3409 2578 050052E3 		cmp	r2, #5
 3410 257c F10000CA 		bgt	.L1436
 3411 2580 050072E2 		rsbs	r0, r2, #5
 3412 2584 0530A0E3 		mov	r3, #5
 3413 2588 D0308DE5 		str	r3, [sp, #208]
 3414 258c 1300000A 		beq	.L293
 3415 2590 010050E3 		cmp	r0, #1
 3416 2594 0130A0E3 		mov	r3, #1
 3417 2598 D4308DE5 		str	r3, [sp, #212]
 3418 259c 0F00000A 		beq	.L293
 3419 25a0 020050E3 		cmp	r0, #2
 3420 25a4 D8308DE5 		str	r3, [sp, #216]
 3421 25a8 0C00000A 		beq	.L293
 3422 25ac 030050E3 		cmp	r0, #3
 3423 25b0 DC308DE5 		str	r3, [sp, #220]
 3424 25b4 0900000A 		beq	.L293
 3425 25b8 040050E3 		cmp	r0, #4
 3426 25bc E0308DE5 		str	r3, [sp, #224]
 3427 25c0 0600000A 		beq	.L293
 3428 25c4 050050E3 		cmp	r0, #5
 3429 25c8 E4308DE5 		str	r3, [sp, #228]
 3430 25cc 0300000A 		beq	.L293
 3431              	.LEHB55:
 3432 25d0 FEFFFFEB 		bl	abort
 3433              	.LEHE55:
 3434              	.L1397:
 3435              	.LEHB56:
 3436 25d4 FEFFFFEB 		bl	abort
 3437              	.LEHE56:
 3438              	.L689:
 3439 25d8 08F7FFEA 		b	.L596
 3440              	.L703:
 3441 25dc 30F7FFEA 		b	.L573
 3442              	.L293:
 3443 25e0 D4308DE2 		add	r3, sp, #212
 3444 25e4 0221A0E1 		lsl	r2, r2, #2
 3445 25e8 000183E0 		add	r0, r3, r0, lsl #2
 3446 25ec A4108DE2 		add	r1, sp, #164
 3447 25f0 FEFFFFEB 		bl	memcpy
 3448 25f4 D020D5E1 		ldrsb	r2, [r5]
 3449 25f8 050052E3 		cmp	r2, #5
 3450 25fc D00000CA 		bgt	.L1437
 3451 2600 D861D5E1 		ldrsb	r6, [r5, #24]
 3452 2604 050056E3 		cmp	r6, #5
 3453 2608 CC0000CA 		bgt	.L295
 3454 260c 000052E3 		cmp	r2, #0
 3455 2610 0030A0E3 		mov	r3, #0
 3456 2614 60308DE5 		str	r3, [sp, #96]
 3457 2618 64308DE5 		str	r3, [sp, #100]
 3458 261c 68308DE5 		str	r3, [sp, #104]
 3459 2620 6C308DE5 		str	r3, [sp, #108]
 3460 2624 70308DE5 		str	r3, [sp, #112]
 3461 2628 050000DA 		ble	.L296
 3462 262c E8308DE2 		add	r3, sp, #232
 3463 2630 041085E2 		add	r1, r5, #4
 3464 2634 020143E0 		sub	r0, r3, r2, lsl #2
 3465 2638 0221A0E1 		lsl	r2, r2, #2
 3466 263c 740040E2 		sub	r0, r0, #116
 3467 2640 FEFFFFEB 		bl	memcpy
 3468              	.L296:
 3469 2644 000056E3 		cmp	r6, #0
 3470 2648 0030A0E3 		mov	r3, #0
 3471 264c 74308DE5 		str	r3, [sp, #116]
 3472 2650 78308DE5 		str	r3, [sp, #120]
 3473 2654 7C308DE5 		str	r3, [sp, #124]
 3474 2658 80308DE5 		str	r3, [sp, #128]
 3475 265c 84308DE5 		str	r3, [sp, #132]
 3476 2660 050000DA 		ble	.L303
 3477 2664 E8308DE2 		add	r3, sp, #232
 3478 2668 1C1085E2 		add	r1, r5, #28
 3479 266c 060143E0 		sub	r0, r3, r6, lsl #2
 3480 2670 0621A0E1 		lsl	r2, r6, #2
 3481 2674 600040E2 		sub	r0, r0, #96
 3482 2678 FEFFFFEB 		bl	memcpy
 3483              	.L303:
 3484 267c D0309DE5 		ldr	r3, [sp, #208]
 3485 2680 000053E3 		cmp	r3, #0
 3486 2684 20308DE5 		str	r3, [sp, #32]
 3487 2688 050200DA 		ble	.L1438
 3488 268c 050053E3 		cmp	r3, #5
 3489 2690 E30100CA 		bgt	.L1439
 3490 2694 010053E3 		cmp	r3, #1
 3491 2698 D4309DE5 		ldr	r3, [sp, #212]
 3492 269c 24308DE5 		str	r3, [sp, #36]
 3493 26a0 DE01000A 		beq	.L1440
 3494 26a4 20309DE5 		ldr	r3, [sp, #32]
 3495 26a8 D8209DE5 		ldr	r2, [sp, #216]
 3496 26ac 020053E3 		cmp	r3, #2
 3497 26b0 1C208DE5 		str	r2, [sp, #28]
 3498 26b4 D801000A 		beq	.L616
 3499 26b8 DC209DE5 		ldr	r2, [sp, #220]
 3500 26bc 030053E3 		cmp	r3, #3
 3501 26c0 10208DE5 		str	r2, [sp, #16]
 3502 26c4 D201000A 		beq	.L617
 3503 26c8 040053E3 		cmp	r3, #4
 3504 26cc E0909DE5 		ldr	r9, [sp, #224]
 3505 26d0 CE01000A 		beq	.L1441
 3506 26d4 60309DE5 		ldr	r3, [sp, #96]
 3507 26d8 24209DE5 		ldr	r2, [sp, #36]
 3508 26dc E4B09DE5 		ldr	fp, [sp, #228]
 3509 26e0 04308DE5 		str	r3, [sp, #4]
 3510 26e4 64309DE5 		ldr	r3, [sp, #100]
 3511 26e8 000052E3 		cmp	r2, #0
 3512 26ec 48308DE5 		str	r3, [sp, #72]
 3513 26f0 68309DE5 		ldr	r3, [sp, #104]
 3514 26f4 30308DE5 		str	r3, [sp, #48]
 3515 26f8 6C309DE5 		ldr	r3, [sp, #108]
 3516 26fc 08308DE5 		str	r3, [sp, #8]
 3517 2700 70309DE5 		ldr	r3, [sp, #112]
 3518 2704 34308DE5 		str	r3, [sp, #52]
 3519 2708 74309DE5 		ldr	r3, [sp, #116]
 3520 270c 40308DE5 		str	r3, [sp, #64]
 3521 2710 78309DE5 		ldr	r3, [sp, #120]
 3522 2714 28308DE5 		str	r3, [sp, #40]
 3523 2718 7C309DE5 		ldr	r3, [sp, #124]
 3524 271c 2C308DE5 		str	r3, [sp, #44]
 3525 2720 80309DE5 		ldr	r3, [sp, #128]
 3526 2724 38308DE5 		str	r3, [sp, #56]
 3527 2728 84309DE5 		ldr	r3, [sp, #132]
 3528 272c AFF7FFDA 		ble	.L528
 3529 2730 3C208DE5 		str	r2, [sp, #60]
 3530              	.L306:
 3531 2734 1C209DE5 		ldr	r2, [sp, #28]
 3532 2738 000052E3 		cmp	r2, #0
 3533 273c 640000DA 		ble	.L309
 3534 2740 0080A0E3 		mov	r8, #0
 3535 2744 03304BE0 		sub	r3, fp, r3
 3536 2748 4C308DE5 		str	r3, [sp, #76]
 3537              	.L324:
 3538 274c 0030A0E3 		mov	r3, #0
 3539 2750 18308DE5 		str	r3, [sp, #24]
 3540              	.L323:
 3541 2754 10309DE5 		ldr	r3, [sp, #16]
 3542 2758 000053E3 		cmp	r3, #0
 3543 275c 520000DA 		ble	.L310
 3544 2760 24309DE5 		ldr	r3, [sp, #36]
 3545 2764 0060A0E3 		mov	r6, #0
 3546 2768 40209DE5 		ldr	r2, [sp, #64]
 3547 276c 48109DE5 		ldr	r1, [sp, #72]
 3548 2770 022043E0 		sub	r2, r3, r2
 3549 2774 18309DE5 		ldr	r3, [sp, #24]
 3550 2778 010053E1 		cmp	r3, r1
 3551 277c 080052A1 		cmpge	r2, r8
 3552 2780 0130A0D3 		movle	r3, #1
 3553 2784 0030A0C3 		movgt	r3, #0
 3554 2788 0C308DE5 		str	r3, [sp, #12]
 3555              	.L322:
 3556 278c 000059E3 		cmp	r9, #0
 3557 2790 410000DA 		ble	.L311
 3558 2794 1C309DE5 		ldr	r3, [sp, #28]
 3559 2798 0050A0E3 		mov	r5, #0
 3560 279c 28209DE5 		ldr	r2, [sp, #40]
 3561 27a0 30109DE5 		ldr	r1, [sp, #48]
 3562 27a4 022043E0 		sub	r2, r3, r2
 3563 27a8 18309DE5 		ldr	r3, [sp, #24]
 3564 27ac 010056E1 		cmp	r6, r1
 3565 27b0 030052A1 		cmpge	r2, r3
 3566 27b4 2C209DE5 		ldr	r2, [sp, #44]
 3567 27b8 0130A0D3 		movle	r3, #1
 3568 27bc 0030A0C3 		movgt	r3, #0
 3569 27c0 14308DE5 		str	r3, [sp, #20]
 3570 27c4 10309DE5 		ldr	r3, [sp, #16]
 3571 27c8 027043E0 		sub	r7, r3, r2
 3572 27cc 0730A0E1 		mov	r3, r7
 3573 27d0 0470A0E1 		mov	r7, r4
 3574 27d4 0340A0E1 		mov	r4, r3
 3575              	.L321:
 3576 27d8 00005BE3 		cmp	fp, #0
 3577 27dc 2A0000DA 		ble	.L312
 3578 27e0 08309DE5 		ldr	r3, [sp, #8]
 3579 27e4 030055E1 		cmp	r5, r3
 3580 27e8 060054A1 		cmpge	r4, r6
 3581 27ec 04309DE5 		ldr	r3, [sp, #4]
 3582 27f0 0120A0D3 		movle	r2, #1
 3583 27f4 0020A0C3 		movgt	r2, #0
 3584 27f8 030058E1 		cmp	r8, r3
 3585 27fc 1D0000BA 		blt	.L313
 3586 2800 0C309DE5 		ldr	r3, [sp, #12]
 3587 2804 000053E3 		cmp	r3, #0
 3588 2808 3800001A 		bne	.L314
 3589 280c 000052E3 		cmp	r2, #0
 3590 2810 14309DE5 		ldr	r3, [sp, #20]
 3591 2814 3E00001A 		bne	.L315
 3592 2818 000053E3 		cmp	r3, #0
 3593 281c 3300001A 		bne	.L314
 3594 2820 0320A0E1 		mov	r2, r3
 3595 2824 38309DE5 		ldr	r3, [sp, #56]
 3596 2828 011087E2 		add	r1, r7, #1
 3597 282c 34009DE5 		ldr	r0, [sp, #52]
 3598 2830 44E09DE5 		ldr	lr, [sp, #68]
 3599 2834 03C049E0 		sub	ip, r9, r3
 3600 2838 090000EA 		b	.L318
 3601              	.L1443:
 3602 283c 4C309DE5 		ldr	r3, [sp, #76]
 3603 2840 020053E1 		cmp	r3, r2
 3604 2844 090000DA 		ble	.L659
 3605 2848 0030DEE5 		ldrb	r3, [lr]	@ zero_extendqisi2
 3606 284c 01E08EE2 		add	lr, lr, #1
 3607              	.L317:
 3608 2850 012082E2 		add	r2, r2, #1
 3609 2854 013041E5 		strb	r3, [r1, #-1]
 3610 2858 0B0052E1 		cmp	r2, fp
 3611 285c 011081E2 		add	r1, r1, #1
 3612 2860 3000000A 		beq	.L1442
 3613              	.L318:
 3614 2864 000052E1 		cmp	r2, r0
 3615 2868 05005CA1 		cmpge	ip, r5
 3616 286c F2FFFFCA 		bgt	.L1443
 3617              	.L659:
 3618 2870 0A30A0E1 		mov	r3, r10
 3619 2874 F5FFFFEA 		b	.L317
 3620              	.L313:
 3621 2878 0700A0E1 		mov	r0, r7
 3622 287c 0B20A0E1 		mov	r2, fp
 3623 2880 0B7087E0 		add	r7, r7, fp
 3624 2884 0A10A0E1 		mov	r1, r10
 3625              	.L1234:
 3626 2888 FEFFFFEB 		bl	memset
 3627              	.L312:
 3628 288c 015085E2 		add	r5, r5, #1
 3629 2890 090055E1 		cmp	r5, r9
 3630 2894 CFFFFF1A 		bne	.L321
 3631              	.L1444:
 3632 2898 0740A0E1 		mov	r4, r7
 3633              	.L311:
 3634 289c 10309DE5 		ldr	r3, [sp, #16]
 3635 28a0 016086E2 		add	r6, r6, #1
 3636 28a4 030056E1 		cmp	r6, r3
 3637 28a8 B7FFFF1A 		bne	.L322
 3638              	.L310:
 3639 28ac 18309DE5 		ldr	r3, [sp, #24]
 3640 28b0 1C209DE5 		ldr	r2, [sp, #28]
 3641 28b4 013083E2 		add	r3, r3, #1
 3642 28b8 020053E1 		cmp	r3, r2
 3643 28bc 18308DE5 		str	r3, [sp, #24]
 3644 28c0 A3FFFF1A 		bne	.L323
 3645 28c4 24309DE5 		ldr	r3, [sp, #36]
 3646 28c8 018088E2 		add	r8, r8, #1
 3647 28cc 030058E1 		cmp	r8, r3
 3648 28d0 9DFFFFBA 		blt	.L324
 3649              	.L309:
 3650 28d4 20309DE5 		ldr	r3, [sp, #32]
 3651 28d8 050053E3 		cmp	r3, #5
 3652 28dc 43F7FF0A 		beq	.L528
 3653              	.L305:
 3654 28e0 3C309DE5 		ldr	r3, [sp, #60]
 3655 28e4 000053E3 		cmp	r3, #0
 3656 28e8 3EF7FF1A 		bne	.L1321
 3657 28ec 3FF7FFEA 		b	.L528
 3658              	.L314:
 3659 28f0 0700A0E1 		mov	r0, r7
 3660 28f4 0B20A0E1 		mov	r2, fp
 3661 28f8 0A10A0E1 		mov	r1, r10
 3662 28fc 015085E2 		add	r5, r5, #1
 3663 2900 FEFFFFEB 		bl	memset
 3664 2904 090055E1 		cmp	r5, r9
 3665 2908 0B7087E0 		add	r7, r7, fp
 3666 290c B1FFFF1A 		bne	.L321
 3667 2910 E0FFFFEA 		b	.L1444
 3668              	.L315:
 3669 2914 0700A0E1 		mov	r0, r7
 3670 2918 0B20A0E1 		mov	r2, fp
 3671 291c 0A10A0E1 		mov	r1, r10
 3672 2920 0B7087E0 		add	r7, r7, fp
 3673 2924 D7FFFFEA 		b	.L1234
 3674              	.L1442:
 3675 2928 015085E2 		add	r5, r5, #1
 3676 292c 44E08DE5 		str	lr, [sp, #68]
 3677 2930 090055E1 		cmp	r5, r9
 3678 2934 0B7087E0 		add	r7, r7, fp
 3679 2938 A6FFFF1A 		bne	.L321
 3680 293c D5FFFFEA 		b	.L1444
 3681              	.L295:
 3682              	.LEHB57:
 3683 2940 FEFFFFEB 		bl	abort
 3684              	.LEHE57:
 3685              	.L1437:
 3686              	.LEHB58:
 3687 2944 FEFFFFEB 		bl	abort
 3688              	.LEHE58:
 3689              	.L1436:
 3690              	.LEHB59:
 3691 2948 FEFFFFEB 		bl	abort
 3692              	.LEHE59:
 3693              	.L718:
 3694 294c 56F7FFEA 		b	.L1243
 3695              	.L717:
 3696 2950 55F7FFEA 		b	.L1243
 3697              	.L694:
 3698 2954 22F6FFEA 		b	.L575
 3699              	.L399:
 3700 2958 BC308DE2 		add	r3, sp, #188
 3701 295c 0221A0E1 		lsl	r2, r2, #2
 3702 2960 000183E0 		add	r0, r3, r0, lsl #2
 3703 2964 8C108DE2 		add	r1, sp, #140
 3704 2968 FEFFFFEB 		bl	memcpy
 3705 296c A0209DE5 		ldr	r2, [sp, #160]
 3706 2970 0030A0E3 		mov	r3, #0
 3707 2974 D0308DE5 		str	r3, [sp, #208]
 3708 2978 050052E3 		cmp	r2, #5
 3709 297c FA0000CA 		bgt	.L1445
 3710 2980 050072E2 		rsbs	r0, r2, #5
 3711 2984 0530A0E3 		mov	r3, #5
 3712 2988 D0308DE5 		str	r3, [sp, #208]
 3713 298c 1300000A 		beq	.L404
 3714 2990 010050E3 		cmp	r0, #1
 3715 2994 0130A0E3 		mov	r3, #1
 3716 2998 D4308DE5 		str	r3, [sp, #212]
 3717 299c 0F00000A 		beq	.L404
 3718 29a0 020050E3 		cmp	r0, #2
 3719 29a4 D8308DE5 		str	r3, [sp, #216]
 3720 29a8 0C00000A 		beq	.L404
 3721 29ac 030050E3 		cmp	r0, #3
 3722 29b0 DC308DE5 		str	r3, [sp, #220]
 3723 29b4 0900000A 		beq	.L404
 3724 29b8 040050E3 		cmp	r0, #4
 3725 29bc E0308DE5 		str	r3, [sp, #224]
 3726 29c0 0600000A 		beq	.L404
 3727 29c4 050050E3 		cmp	r0, #5
 3728 29c8 E4308DE5 		str	r3, [sp, #228]
 3729 29cc 0300000A 		beq	.L404
 3730              	.LEHB60:
 3731 29d0 FEFFFFEB 		bl	abort
 3732              	.LEHE60:
 3733              	.L1407:
 3734              	.LEHB61:
 3735 29d4 FEFFFFEB 		bl	abort
 3736              	.LEHE61:
 3737              	.L693:
 3738 29d8 08F6FFEA 		b	.L596
 3739              	.L707:
 3740 29dc 30F6FFEA 		b	.L573
 3741              	.L404:
 3742 29e0 D4308DE2 		add	r3, sp, #212
 3743 29e4 0221A0E1 		lsl	r2, r2, #2
 3744 29e8 000183E0 		add	r0, r3, r0, lsl #2
 3745 29ec A4108DE2 		add	r1, sp, #164
 3746 29f0 FEFFFFEB 		bl	memcpy
 3747 29f4 D020D5E1 		ldrsb	r2, [r5]
 3748 29f8 050052E3 		cmp	r2, #5
 3749 29fc D90000CA 		bgt	.L1446
 3750 2a00 D841D5E1 		ldrsb	r4, [r5, #24]
 3751 2a04 050054E3 		cmp	r4, #5
 3752 2a08 D50000CA 		bgt	.L406
 3753 2a0c 000052E3 		cmp	r2, #0
 3754 2a10 0030A0E3 		mov	r3, #0
 3755 2a14 60308DE5 		str	r3, [sp, #96]
 3756 2a18 64308DE5 		str	r3, [sp, #100]
 3757 2a1c 68308DE5 		str	r3, [sp, #104]
 3758 2a20 6C308DE5 		str	r3, [sp, #108]
 3759 2a24 70308DE5 		str	r3, [sp, #112]
 3760 2a28 050000DA 		ble	.L407
 3761 2a2c E8308DE2 		add	r3, sp, #232
 3762 2a30 041085E2 		add	r1, r5, #4
 3763 2a34 020143E0 		sub	r0, r3, r2, lsl #2
 3764 2a38 0221A0E1 		lsl	r2, r2, #2
 3765 2a3c 740040E2 		sub	r0, r0, #116
 3766 2a40 FEFFFFEB 		bl	memcpy
 3767              	.L407:
 3768 2a44 000054E3 		cmp	r4, #0
 3769 2a48 0030A0E3 		mov	r3, #0
 3770 2a4c 74308DE5 		str	r3, [sp, #116]
 3771 2a50 78308DE5 		str	r3, [sp, #120]
 3772 2a54 7C308DE5 		str	r3, [sp, #124]
 3773 2a58 80308DE5 		str	r3, [sp, #128]
 3774 2a5c 84308DE5 		str	r3, [sp, #132]
 3775 2a60 050000DA 		ble	.L414
 3776 2a64 E8308DE2 		add	r3, sp, #232
 3777 2a68 1C1085E2 		add	r1, r5, #28
 3778 2a6c 040143E0 		sub	r0, r3, r4, lsl #2
 3779 2a70 0421A0E1 		lsl	r2, r4, #2
 3780 2a74 600040E2 		sub	r0, r0, #96
 3781 2a78 FEFFFFEB 		bl	memcpy
 3782              	.L414:
 3783 2a7c D0309DE5 		ldr	r3, [sp, #208]
 3784 2a80 000053E3 		cmp	r3, #0
 3785 2a84 20308DE5 		str	r3, [sp, #32]
 3786 2a88 DF0000DA 		ble	.L1447
 3787 2a8c 050053E3 		cmp	r3, #5
 3788 2a90 BD0000CA 		bgt	.L1448
 3789 2a94 010053E3 		cmp	r3, #1
 3790 2a98 D4309DE5 		ldr	r3, [sp, #212]
 3791 2a9c 24308DE5 		str	r3, [sp, #36]
 3792 2aa0 B800000A 		beq	.L1449
 3793 2aa4 20309DE5 		ldr	r3, [sp, #32]
 3794 2aa8 D8209DE5 		ldr	r2, [sp, #216]
 3795 2aac 020053E3 		cmp	r3, #2
 3796 2ab0 1C208DE5 		str	r2, [sp, #28]
 3797 2ab4 B200000A 		beq	.L624
 3798 2ab8 DC209DE5 		ldr	r2, [sp, #220]
 3799 2abc 030053E3 		cmp	r3, #3
 3800 2ac0 10208DE5 		str	r2, [sp, #16]
 3801 2ac4 AC00000A 		beq	.L625
 3802 2ac8 040053E3 		cmp	r3, #4
 3803 2acc E0909DE5 		ldr	r9, [sp, #224]
 3804 2ad0 A800000A 		beq	.L1450
 3805 2ad4 60309DE5 		ldr	r3, [sp, #96]
 3806 2ad8 24209DE5 		ldr	r2, [sp, #36]
 3807 2adc E4B09DE5 		ldr	fp, [sp, #228]
 3808 2ae0 08308DE5 		str	r3, [sp, #8]
 3809 2ae4 64309DE5 		ldr	r3, [sp, #100]
 3810 2ae8 000052E3 		cmp	r2, #0
 3811 2aec 3C308DE5 		str	r3, [sp, #60]
 3812 2af0 68309DE5 		ldr	r3, [sp, #104]
 3813 2af4 30308DE5 		str	r3, [sp, #48]
 3814 2af8 6C309DE5 		ldr	r3, [sp, #108]
 3815 2afc 04308DE5 		str	r3, [sp, #4]
 3816 2b00 70309DE5 		ldr	r3, [sp, #112]
 3817 2b04 40308DE5 		str	r3, [sp, #64]
 3818 2b08 74309DE5 		ldr	r3, [sp, #116]
 3819 2b0c 34308DE5 		str	r3, [sp, #52]
 3820 2b10 78309DE5 		ldr	r3, [sp, #120]
 3821 2b14 28308DE5 		str	r3, [sp, #40]
 3822 2b18 7C309DE5 		ldr	r3, [sp, #124]
 3823 2b1c 2C308DE5 		str	r3, [sp, #44]
 3824 2b20 80309DE5 		ldr	r3, [sp, #128]
 3825 2b24 38308DE5 		str	r3, [sp, #56]
 3826 2b28 84309DE5 		ldr	r3, [sp, #132]
 3827 2b2c AFF6FFDA 		ble	.L528
 3828 2b30 44208DE5 		str	r2, [sp, #68]
 3829              	.L417:
 3830 2b34 1C209DE5 		ldr	r2, [sp, #28]
 3831 2b38 000052E3 		cmp	r2, #0
 3832 2b3c 6D0000DA 		ble	.L420
 3833 2b40 03304BE0 		sub	r3, fp, r3
 3834 2b44 0080A0E3 		mov	r8, #0
 3835 2b48 4C308DE5 		str	r3, [sp, #76]
 3836 2b4c 0630A0E1 		mov	r3, r6
 3837 2b50 0860A0E1 		mov	r6, r8
 3838 2b54 0380A0E1 		mov	r8, r3
 3839              	.L435:
 3840 2b58 0030A0E3 		mov	r3, #0
 3841 2b5c 18308DE5 		str	r3, [sp, #24]
 3842              	.L434:
 3843 2b60 10309DE5 		ldr	r3, [sp, #16]
 3844 2b64 000053E3 		cmp	r3, #0
 3845 2b68 580000DA 		ble	.L421
 3846 2b6c 24309DE5 		ldr	r3, [sp, #36]
 3847 2b70 0050A0E3 		mov	r5, #0
 3848 2b74 34209DE5 		ldr	r2, [sp, #52]
 3849 2b78 3C109DE5 		ldr	r1, [sp, #60]
 3850 2b7c 022043E0 		sub	r2, r3, r2
 3851 2b80 18309DE5 		ldr	r3, [sp, #24]
 3852 2b84 010053E1 		cmp	r3, r1
 3853 2b88 060052A1 		cmpge	r2, r6
 3854 2b8c 0130A0D3 		movle	r3, #1
 3855 2b90 0030A0C3 		movgt	r3, #0
 3856 2b94 0C308DE5 		str	r3, [sp, #12]
 3857 2b98 0830A0E1 		mov	r3, r8
 3858 2b9c 0680A0E1 		mov	r8, r6
 3859 2ba0 0360A0E1 		mov	r6, r3
 3860              	.L433:
 3861 2ba4 000059E3 		cmp	r9, #0
 3862 2ba8 410000DA 		ble	.L422
 3863 2bac 1C309DE5 		ldr	r3, [sp, #28]
 3864 2bb0 0040A0E3 		mov	r4, #0
 3865 2bb4 28209DE5 		ldr	r2, [sp, #40]
 3866 2bb8 30109DE5 		ldr	r1, [sp, #48]
 3867 2bbc 022043E0 		sub	r2, r3, r2
 3868 2bc0 18309DE5 		ldr	r3, [sp, #24]
 3869 2bc4 010055E1 		cmp	r5, r1
 3870 2bc8 030052A1 		cmpge	r2, r3
 3871 2bcc 2C209DE5 		ldr	r2, [sp, #44]
 3872 2bd0 0130A0D3 		movle	r3, #1
 3873 2bd4 0030A0C3 		movgt	r3, #0
 3874 2bd8 14308DE5 		str	r3, [sp, #20]
 3875 2bdc 10309DE5 		ldr	r3, [sp, #16]
 3876 2be0 027043E0 		sub	r7, r3, r2
 3877 2be4 0730A0E1 		mov	r3, r7
 3878 2be8 0670A0E1 		mov	r7, r6
 3879 2bec 0360A0E1 		mov	r6, r3
 3880              	.L432:
 3881 2bf0 00005BE3 		cmp	fp, #0
 3882 2bf4 2A0000DA 		ble	.L423
 3883 2bf8 04309DE5 		ldr	r3, [sp, #4]
 3884 2bfc 030054E1 		cmp	r4, r3
 3885 2c00 050056A1 		cmpge	r6, r5
 3886 2c04 08309DE5 		ldr	r3, [sp, #8]
 3887 2c08 0120A0D3 		movle	r2, #1
 3888 2c0c 0020A0C3 		movgt	r2, #0
 3889 2c10 030058E1 		cmp	r8, r3
 3890 2c14 1D0000BA 		blt	.L424
 3891 2c18 0C309DE5 		ldr	r3, [sp, #12]
 3892 2c1c 000053E3 		cmp	r3, #0
 3893 2c20 3B00001A 		bne	.L425
 3894 2c24 000052E3 		cmp	r2, #0
 3895 2c28 14309DE5 		ldr	r3, [sp, #20]
 3896 2c2c 4100001A 		bne	.L426
 3897 2c30 000053E3 		cmp	r3, #0
 3898 2c34 3600001A 		bne	.L425
 3899 2c38 0320A0E1 		mov	r2, r3
 3900 2c3c 38309DE5 		ldr	r3, [sp, #56]
 3901 2c40 011087E2 		add	r1, r7, #1
 3902 2c44 40009DE5 		ldr	r0, [sp, #64]
 3903 2c48 48E09DE5 		ldr	lr, [sp, #72]
 3904 2c4c 03C049E0 		sub	ip, r9, r3
 3905 2c50 090000EA 		b	.L429
 3906              	.L1452:
 3907 2c54 4C309DE5 		ldr	r3, [sp, #76]
 3908 2c58 030052E1 		cmp	r2, r3
 3909 2c5c 090000AA 		bge	.L667
 3910 2c60 D030DEE1 		ldrsb	r3, [lr]
 3911 2c64 01E08EE2 		add	lr, lr, #1
 3912              	.L428:
 3913 2c68 012082E2 		add	r2, r2, #1
 3914 2c6c 013041E5 		strb	r3, [r1, #-1]
 3915 2c70 02005BE1 		cmp	fp, r2
 3916 2c74 011081E2 		add	r1, r1, #1
 3917 2c78 3300000A 		beq	.L1451
 3918              	.L429:
 3919 2c7c 020050E1 		cmp	r0, r2
 3920 2c80 0C0054D1 		cmple	r4, ip
 3921 2c84 F2FFFFBA 		blt	.L1452
 3922              	.L667:
 3923 2c88 0A30A0E1 		mov	r3, r10
 3924 2c8c F5FFFFEA 		b	.L428
 3925              	.L424:
 3926 2c90 0700A0E1 		mov	r0, r7
 3927 2c94 0B20A0E1 		mov	r2, fp
 3928 2c98 0B7087E0 		add	r7, r7, fp
 3929 2c9c 0A10A0E1 		mov	r1, r10
 3930              	.L1238:
 3931 2ca0 FEFFFFEB 		bl	memset
 3932              	.L423:
 3933 2ca4 014084E2 		add	r4, r4, #1
 3934 2ca8 090054E1 		cmp	r4, r9
 3935 2cac CFFFFF1A 		bne	.L432
 3936              	.L1453:
 3937 2cb0 0760A0E1 		mov	r6, r7
 3938              	.L422:
 3939 2cb4 10309DE5 		ldr	r3, [sp, #16]
 3940 2cb8 015085E2 		add	r5, r5, #1
 3941 2cbc 030055E1 		cmp	r5, r3
 3942 2cc0 B7FFFF1A 		bne	.L433
 3943 2cc4 0630A0E1 		mov	r3, r6
 3944 2cc8 0860A0E1 		mov	r6, r8
 3945 2ccc 0380A0E1 		mov	r8, r3
 3946              	.L421:
 3947 2cd0 18309DE5 		ldr	r3, [sp, #24]
 3948 2cd4 1C209DE5 		ldr	r2, [sp, #28]
 3949 2cd8 013083E2 		add	r3, r3, #1
 3950 2cdc 020053E1 		cmp	r3, r2
 3951 2ce0 18308DE5 		str	r3, [sp, #24]
 3952 2ce4 9DFFFF1A 		bne	.L434
 3953 2ce8 24309DE5 		ldr	r3, [sp, #36]
 3954 2cec 016086E2 		add	r6, r6, #1
 3955 2cf0 030056E1 		cmp	r6, r3
 3956 2cf4 97FFFFBA 		blt	.L435
 3957              	.L420:
 3958 2cf8 20309DE5 		ldr	r3, [sp, #32]
 3959 2cfc 050053E3 		cmp	r3, #5
 3960 2d00 3AF6FF0A 		beq	.L528
 3961              	.L416:
 3962 2d04 44309DE5 		ldr	r3, [sp, #68]
 3963 2d08 000053E3 		cmp	r3, #0
 3964 2d0c 35F6FF1A 		bne	.L1321
 3965 2d10 36F6FFEA 		b	.L528
 3966              	.L425:
 3967 2d14 0700A0E1 		mov	r0, r7
 3968 2d18 0B20A0E1 		mov	r2, fp
 3969 2d1c 0A10A0E1 		mov	r1, r10
 3970 2d20 014084E2 		add	r4, r4, #1
 3971 2d24 FEFFFFEB 		bl	memset
 3972 2d28 090054E1 		cmp	r4, r9
 3973 2d2c 0B7087E0 		add	r7, r7, fp
 3974 2d30 AEFFFF1A 		bne	.L432
 3975 2d34 DDFFFFEA 		b	.L1453
 3976              	.L426:
 3977 2d38 0700A0E1 		mov	r0, r7
 3978 2d3c 0B20A0E1 		mov	r2, fp
 3979 2d40 0A10A0E1 		mov	r1, r10
 3980 2d44 0B7087E0 		add	r7, r7, fp
 3981 2d48 D4FFFFEA 		b	.L1238
 3982              	.L1451:
 3983 2d4c 014084E2 		add	r4, r4, #1
 3984 2d50 48E08DE5 		str	lr, [sp, #72]
 3985 2d54 090054E1 		cmp	r4, r9
 3986 2d58 0B7087E0 		add	r7, r7, fp
 3987 2d5c A3FFFF1A 		bne	.L432
 3988 2d60 D2FFFFEA 		b	.L1453
 3989              	.L406:
 3990              	.LEHB62:
 3991 2d64 FEFFFFEB 		bl	abort
 3992              	.LEHE62:
 3993              	.L1446:
 3994              	.LEHB63:
 3995 2d68 FEFFFFEB 		bl	abort
 3996              	.LEHE63:
 3997              	.L1445:
 3998              	.LEHB64:
 3999 2d6c FEFFFFEB 		bl	abort
 4000              	.LEHE64:
 4001              	.L722:
 4002 2d70 4DF6FFEA 		b	.L1243
 4003              	.L721:
 4004 2d74 4CF6FFEA 		b	.L1243
 4005              	.L1450:
 4006              	.LEHB65:
 4007 2d78 FEFFFFEB 		bl	abort
 4008              	.L625:
 4009 2d7c FEFFFFEB 		bl	abort
 4010              	.L708:
 4011 2d80 47F5FFEA 		b	.L573
 4012              	.L624:
 4013 2d84 FEFFFFEB 		bl	abort
 4014              	.L1449:
 4015 2d88 FEFFFFEB 		bl	abort
 4016              	.L1448:
 4017 2d8c 60209DE5 		ldr	r2, [sp, #96]
 4018 2d90 D4309DE5 		ldr	r3, [sp, #212]
 4019 2d94 08208DE5 		str	r2, [sp, #8]
 4020 2d98 64209DE5 		ldr	r2, [sp, #100]
 4021 2d9c 041093E5 		ldr	r1, [r3, #4]
 4022 2da0 44308DE5 		str	r3, [sp, #68]
 4023 2da4 3C208DE5 		str	r2, [sp, #60]
 4024 2da8 002093E5 		ldr	r2, [r3]
 4025 2dac 10B093E5 		ldr	fp, [r3, #16]
 4026 2db0 0C9093E5 		ldr	r9, [r3, #12]
 4027 2db4 24208DE5 		str	r2, [sp, #36]
 4028 2db8 000052E3 		cmp	r2, #0
 4029 2dbc 082093E5 		ldr	r2, [r3, #8]
 4030 2dc0 68309DE5 		ldr	r3, [sp, #104]
 4031 2dc4 1C108DE5 		str	r1, [sp, #28]
 4032 2dc8 10208DE5 		str	r2, [sp, #16]
 4033 2dcc 30308DE5 		str	r3, [sp, #48]
 4034 2dd0 6C309DE5 		ldr	r3, [sp, #108]
 4035 2dd4 04308DE5 		str	r3, [sp, #4]
 4036 2dd8 70309DE5 		ldr	r3, [sp, #112]
 4037 2ddc 40308DE5 		str	r3, [sp, #64]
 4038 2de0 74309DE5 		ldr	r3, [sp, #116]
 4039 2de4 34308DE5 		str	r3, [sp, #52]
 4040 2de8 78309DE5 		ldr	r3, [sp, #120]
 4041 2dec 28308DE5 		str	r3, [sp, #40]
 4042 2df0 7C309DE5 		ldr	r3, [sp, #124]
 4043 2df4 2C308DE5 		str	r3, [sp, #44]
 4044 2df8 80309DE5 		ldr	r3, [sp, #128]
 4045 2dfc 38308DE5 		str	r3, [sp, #56]
 4046 2e00 84309DE5 		ldr	r3, [sp, #132]
 4047 2e04 4AFFFFCA 		bgt	.L417
 4048 2e08 BDFFFFEA 		b	.L416
 4049              	.L1447:
 4050 2e0c FEFFFFEB 		bl	abort
 4051              	.LEHE65:
 4052              	.L1441:
 4053              	.LEHB66:
 4054 2e10 FEFFFFEB 		bl	abort
 4055              	.L617:
 4056 2e14 FEFFFFEB 		bl	abort
 4057              	.L704:
 4058 2e18 21F5FFEA 		b	.L573
 4059              	.L616:
 4060 2e1c FEFFFFEB 		bl	abort
 4061              	.L1440:
 4062 2e20 FEFFFFEB 		bl	abort
 4063              	.L1439:
 4064 2e24 60209DE5 		ldr	r2, [sp, #96]
 4065 2e28 D4309DE5 		ldr	r3, [sp, #212]
 4066 2e2c 04208DE5 		str	r2, [sp, #4]
 4067 2e30 64209DE5 		ldr	r2, [sp, #100]
 4068 2e34 041093E5 		ldr	r1, [r3, #4]
 4069 2e38 3C308DE5 		str	r3, [sp, #60]
 4070 2e3c 48208DE5 		str	r2, [sp, #72]
 4071 2e40 002093E5 		ldr	r2, [r3]
 4072 2e44 10B093E5 		ldr	fp, [r3, #16]
 4073 2e48 0C9093E5 		ldr	r9, [r3, #12]
 4074 2e4c 24208DE5 		str	r2, [sp, #36]
 4075 2e50 000052E3 		cmp	r2, #0
 4076 2e54 082093E5 		ldr	r2, [r3, #8]
 4077 2e58 68309DE5 		ldr	r3, [sp, #104]
 4078 2e5c 1C108DE5 		str	r1, [sp, #28]
 4079 2e60 10208DE5 		str	r2, [sp, #16]
 4080 2e64 30308DE5 		str	r3, [sp, #48]
 4081 2e68 6C309DE5 		ldr	r3, [sp, #108]
 4082 2e6c 08308DE5 		str	r3, [sp, #8]
 4083 2e70 70309DE5 		ldr	r3, [sp, #112]
 4084 2e74 34308DE5 		str	r3, [sp, #52]
 4085 2e78 74309DE5 		ldr	r3, [sp, #116]
 4086 2e7c 40308DE5 		str	r3, [sp, #64]
 4087 2e80 78309DE5 		ldr	r3, [sp, #120]
 4088 2e84 28308DE5 		str	r3, [sp, #40]
 4089 2e88 7C309DE5 		ldr	r3, [sp, #124]
 4090 2e8c 2C308DE5 		str	r3, [sp, #44]
 4091 2e90 80309DE5 		ldr	r3, [sp, #128]
 4092 2e94 38308DE5 		str	r3, [sp, #56]
 4093 2e98 84309DE5 		ldr	r3, [sp, #132]
 4094 2e9c 24FEFFCA 		bgt	.L306
 4095 2ea0 8EFEFFEA 		b	.L305
 4096              	.L1438:
 4097 2ea4 FEFFFFEB 		bl	abort
 4098              	.LEHE66:
 4099              		.global	__gxx_personality_v0
 4100              		.personality	__gxx_personality_v0
 4101              		.handlerdata
 4102              	.LLSDA1321:
 4103 0008 FF       		.byte	0xff
 4104 0009 FF       		.byte	0xff
 4105 000a 01       		.byte	0x1
 4106 000b 8E03     		.uleb128 .LLSDACSE1321-.LLSDACSB1321
 4107              	.LLSDACSB1321:
 4108 000d 30       		.uleb128 .LEHB0-.LFB1321
 4109 000e 8801     		.uleb128 .LEHE0-.LEHB0
 4110 0010 00       		.uleb128 0
 4111 0011 00       		.uleb128 0
 4112 0012 C801     		.uleb128 .LEHB1-.LFB1321
 4113 0014 04       		.uleb128 .LEHE1-.LEHB1
 4114 0015 B419     		.uleb128 .L695-.LFB1321
 4115 0017 00       		.uleb128 0
 4116 0018 BC02     		.uleb128 .LEHB2-.LFB1321
 4117 001a 04       		.uleb128 .LEHE2-.LEHB2
 4118 001b E403     		.uleb128 .L696-.LFB1321
 4119 001d 00       		.uleb128 0
 4120 001e D802     		.uleb128 .LEHB3-.LFB1321
 4121 0020 04       		.uleb128 .LEHE3-.LEHB3
 4122 0021 00       		.uleb128 0
 4123 0022 00       		.uleb128 0
 4124 0023 EC02     		.uleb128 .LEHB4-.LFB1321
 4125 0025 04       		.uleb128 .LEHE4-.LEHB4
 4126 0026 E40E     		.uleb128 .L691-.LFB1321
 4127 0028 00       		.uleb128 0
 4128 0029 E003     		.uleb128 .LEHB5-.LFB1321
 4129 002b 04       		.uleb128 .LEHE5-.LEHB5
 4130 002c A004     		.uleb128 .L692-.LFB1321
 4131 002e 00       		.uleb128 0
 4132 002f 9C04     		.uleb128 .LEHB6-.LFB1321
 4133 0031 04       		.uleb128 .LEHE6-.LEHB6
 4134 0032 00       		.uleb128 0
 4135 0033 00       		.uleb128 0
 4136 0034 9C05     		.uleb128 .LEHB7-.LFB1321
 4137 0036 04       		.uleb128 .LEHE7-.LEHB7
 4138 0037 A405     		.uleb128 .L705-.LFB1321
 4139 0039 00       		.uleb128 0
 4140 003a A005     		.uleb128 .LEHB8-.LFB1321
 4141 003c 04       		.uleb128 .LEHE8-.LEHB8
 4142 003d A004     		.uleb128 .L692-.LFB1321
 4143 003f 00       		.uleb128 0
 4144 0040 9C0D     		.uleb128 .LEHB9-.LFB1321
 4145 0042 04       		.uleb128 .LEHE9-.LEHB9
 4146 0043 AC0D     		.uleb128 .L720-.LFB1321
 4147 0045 00       		.uleb128 0
 4148 0046 A00D     		.uleb128 .LEHB10-.LFB1321
 4149 0048 B801     		.uleb128 .LEHE10-.LEHB10
 4150 004a D00D     		.uleb128 .L706-.LFB1321
 4151 004c 00       		.uleb128 0
 4152 004d D80E     		.uleb128 .LEHB11-.LFB1321
 4153 004f 04       		.uleb128 .LEHE11-.LEHB11
 4154 0050 E00E     		.uleb128 .L719-.LFB1321
 4155 0052 00       		.uleb128 0
 4156 0053 DC0E     		.uleb128 .LEHB12-.LFB1321
 4157 0055 04       		.uleb128 .LEHE12-.LEHB12
 4158 0056 A405     		.uleb128 .L705-.LFB1321
 4159 0058 00       		.uleb128 0
 4160 0059 F00E     		.uleb128 .LEHB13-.LFB1321
 4161 005b 04       		.uleb128 .LEHE13-.LEHB13
 4162 005c 00       		.uleb128 0
 4163 005d 00       		.uleb128 0
 4164 005e 840F     		.uleb128 .LEHB14-.LFB1321
 4165 0060 04       		.uleb128 .LEHE14-.LEHB14
 4166 0061 D84B     		.uleb128 .L689-.LFB1321
 4167 0063 00       		.uleb128 0
 4168 0064 F80F     		.uleb128 .LEHB15-.LFB1321
 4169 0066 04       		.uleb128 .LEHE15-.LEHB15
 4170 0067 D44A     		.uleb128 .L690-.LFB1321
 4171 0069 00       		.uleb128 0
 4172 006a F410     		.uleb128 .LEHB16-.LFB1321
 4173 006c 04       		.uleb128 .LEHE16-.LEHB16
 4174 006d FC10     		.uleb128 .L709-.LFB1321
 4175 006f 00       		.uleb128 0
 4176 0070 F810     		.uleb128 .LEHB17-.LFB1321
 4177 0072 04       		.uleb128 .LEHE17-.LEHB17
 4178 0073 E403     		.uleb128 .L696-.LFB1321
 4179 0075 00       		.uleb128 0
 4180 0076 8818     		.uleb128 .LEHB18-.LFB1321
 4181 0078 14       		.uleb128 .LEHE18-.LEHB18
 4182 0079 9018     		.uleb128 .L710-.LFB1321
 4183 007b 00       		.uleb128 0
 4184 007c 9C18     		.uleb128 .LEHB19-.LFB1321
 4185 007e 04       		.uleb128 .LEHE19-.LEHB19
 4186 007f A419     		.uleb128 .L724-.LFB1321
 4187 0081 00       		.uleb128 0
 4188 0082 A019     		.uleb128 .LEHB20-.LFB1321
 4189 0084 04       		.uleb128 .LEHE20-.LEHB20
 4190 0085 9018     		.uleb128 .L710-.LFB1321
 4191 0087 00       		.uleb128 0
 4192 0088 A819     		.uleb128 .LEHB21-.LFB1321
 4193 008a 04       		.uleb128 .LEHE21-.LEHB21
 4194 008b B019     		.uleb128 .L723-.LFB1321
 4195 008d 00       		.uleb128 0
 4196 008e AC19     		.uleb128 .LEHB22-.LFB1321
 4197 0090 04       		.uleb128 .LEHE22-.LEHB22
 4198 0091 FC10     		.uleb128 .L709-.LFB1321
 4199 0093 00       		.uleb128 0
 4200 0094 C019     		.uleb128 .LEHB23-.LFB1321
 4201 0096 04       		.uleb128 .LEHE23-.LEHB23
 4202 0097 00       		.uleb128 0
 4203 0098 00       		.uleb128 0
 4204 0099 D419     		.uleb128 .LEHB24-.LFB1321
 4205 009b 04       		.uleb128 .LEHE24-.LEHB24
 4206 009c D853     		.uleb128 .L693-.LFB1321
 4207 009e 00       		.uleb128 0
 4208 009f C81A     		.uleb128 .LEHB25-.LFB1321
 4209 00a1 04       		.uleb128 .LEHE25-.LEHB25
 4210 00a2 D452     		.uleb128 .L694-.LFB1321
 4211 00a4 00       		.uleb128 0
 4212 00a5 D81A     		.uleb128 .LEHB26-.LFB1321
 4213 00a7 04       		.uleb128 .LEHE26-.LEHB26
 4214 00a8 00       		.uleb128 0
 4215 00a9 00       		.uleb128 0
 4216 00aa EC1A     		.uleb128 .LEHB27-.LFB1321
 4217 00ac 04       		.uleb128 .LEHE27-.LEHB27
 4218 00ad D43A     		.uleb128 .L697-.LFB1321
 4219 00af 00       		.uleb128 0
 4220 00b0 DC1B     		.uleb128 .LEHB28-.LFB1321
 4221 00b2 04       		.uleb128 .LEHE28-.LEHB28
 4222 00b3 801D     		.uleb128 .L698-.LFB1321
 4223 00b5 00       		.uleb128 0
 4224 00b6 F81B     		.uleb128 .LEHB29-.LFB1321
 4225 00b8 04       		.uleb128 .LEHE29-.LEHB29
 4226 00b9 00       		.uleb128 0
 4227 00ba 00       		.uleb128 0
 4228 00bb 8C1C     		.uleb128 .LEHB30-.LFB1321
 4229 00bd 04       		.uleb128 .LEHE30-.LEHB30
 4230 00be BC39     		.uleb128 .L687-.LFB1321
 4231 00c0 00       		.uleb128 0
 4232 00c1 FC1C     		.uleb128 .LEHB31-.LFB1321
 4233 00c3 04       		.uleb128 .LEHE31-.LEHB31
 4234 00c4 801E     		.uleb128 .L688-.LFB1321
 4235 00c6 00       		.uleb128 0
 4236 00c7 FC1D     		.uleb128 .LEHB32-.LFB1321
 4237 00c9 04       		.uleb128 .LEHE32-.LEHB32
 4238 00ca 841E     		.uleb128 .L711-.LFB1321
 4239 00cc 00       		.uleb128 0
 4240 00cd FC29     		.uleb128 .LEHB33-.LFB1321
 4241 00cf 9401     		.uleb128 .LEHE33-.LEHB33
 4242 00d1 842A     		.uleb128 .L712-.LFB1321
 4243 00d3 00       		.uleb128 0
 4244 00d4 902B     		.uleb128 .LEHB34-.LFB1321
 4245 00d6 04       		.uleb128 .LEHE34-.LEHB34
 4246 00d7 982B     		.uleb128 .L725-.LFB1321
 4247 00d9 00       		.uleb128 0
 4248 00da 942B     		.uleb128 .LEHB35-.LFB1321
 4249 00dc 04       		.uleb128 .LEHE35-.LEHB35
 4250 00dd 841E     		.uleb128 .L711-.LFB1321
 4251 00df 00       		.uleb128 0
 4252 00e0 9C2B     		.uleb128 .LEHB36-.LFB1321
 4253 00e2 04       		.uleb128 .LEHE36-.LEHB36
 4254 00e3 A02B     		.uleb128 .L726-.LFB1321
 4255 00e5 00       		.uleb128 0
 4256 00e6 9C2C     		.uleb128 .LEHB37-.LFB1321
 4257 00e8 04       		.uleb128 .LEHE37-.LEHB37
 4258 00e9 A42C     		.uleb128 .L701-.LFB1321
 4259 00eb 00       		.uleb128 0
 4260 00ec A02C     		.uleb128 .LEHB38-.LFB1321
 4261 00ee 04       		.uleb128 .LEHE38-.LEHB38
 4262 00ef 801E     		.uleb128 .L688-.LFB1321
 4263 00f1 00       		.uleb128 0
 4264 00f2 9039     		.uleb128 .LEHB39-.LFB1321
 4265 00f4 04       		.uleb128 .LEHE39-.LEHB39
 4266 00f5 9839     		.uleb128 .L702-.LFB1321
 4267 00f7 00       		.uleb128 0
 4268 00f8 9439     		.uleb128 .LEHB40-.LFB1321
 4269 00fa 04       		.uleb128 .LEHE40-.LEHB40
 4270 00fb 9C39     		.uleb128 .L716-.LFB1321
 4271 00fd 00       		.uleb128 0
 4272 00fe A039     		.uleb128 .LEHB41-.LFB1321
 4273 0100 10       		.uleb128 .LEHE41-.LEHB41
 4274 0101 9839     		.uleb128 .L702-.LFB1321
 4275 0103 00       		.uleb128 0
 4276 0104 B039     		.uleb128 .LEHB42-.LFB1321
 4277 0106 04       		.uleb128 .LEHE42-.LEHB42
 4278 0107 B839     		.uleb128 .L715-.LFB1321
 4279 0109 00       		.uleb128 0
 4280 010a B439     		.uleb128 .LEHB43-.LFB1321
 4281 010c 04       		.uleb128 .LEHE43-.LEHB43
 4282 010d A42C     		.uleb128 .L701-.LFB1321
 4283 010f 00       		.uleb128 0
 4284 0110 C839     		.uleb128 .LEHB44-.LFB1321
 4285 0112 04       		.uleb128 .LEHE44-.LEHB44
 4286 0113 00       		.uleb128 0
 4287 0114 00       		.uleb128 0
 4288 0115 DC39     		.uleb128 .LEHB45-.LFB1321
 4289 0117 04       		.uleb128 .LEHE45-.LEHB45
 4290 0118 C83C     		.uleb128 .L685-.LFB1321
 4291 011a 00       		.uleb128 0
 4292 011b CC3A     		.uleb128 .LEHB46-.LFB1321
 4293 011d 04       		.uleb128 .LEHE46-.LEHB46
 4294 011e C43B     		.uleb128 .L686-.LFB1321
 4295 0120 00       		.uleb128 0
 4296 0121 D03A     		.uleb128 .LEHB47-.LFB1321
 4297 0123 04       		.uleb128 .LEHE47-.LEHB47
 4298 0124 801D     		.uleb128 .L698-.LFB1321
 4299 0126 00       		.uleb128 0
 4300 0127 EC3A     		.uleb128 .LEHB48-.LFB1321
 4301 0129 1C       		.uleb128 .LEHE48-.LEHB48
 4302 012a 00       		.uleb128 0
 4303 012b 00       		.uleb128 0
 4304 012c C03C     		.uleb128 .LEHB49-.LFB1321
 4305 012e 04       		.uleb128 .LEHE49-.LEHB49
 4306 012f CC3C     		.uleb128 .L699-.LFB1321
 4307 0131 00       		.uleb128 0
 4308 0132 C43C     		.uleb128 .LEHB50-.LFB1321
 4309 0134 04       		.uleb128 .LEHE50-.LEHB50
 4310 0135 C43B     		.uleb128 .L686-.LFB1321
 4311 0137 00       		.uleb128 0
 4312 0138 E048     		.uleb128 .LEHB51-.LFB1321
 4313 013a 04       		.uleb128 .LEHE51-.LEHB51
 4314 013b EC48     		.uleb128 .L714-.LFB1321
 4315 013d 00       		.uleb128 0
 4316 013e E448     		.uleb128 .LEHB52-.LFB1321
 4317 0140 04       		.uleb128 .LEHE52-.LEHB52
 4318 0141 F048     		.uleb128 .L713-.LFB1321
 4319 0143 00       		.uleb128 0
 4320 0144 E848     		.uleb128 .LEHB53-.LFB1321
 4321 0146 04       		.uleb128 .LEHE53-.LEHB53
 4322 0147 CC3C     		.uleb128 .L699-.LFB1321
 4323 0149 00       		.uleb128 0
 4324 014a C049     		.uleb128 .LEHB54-.LFB1321
 4325 014c 9401     		.uleb128 .LEHE54-.LEHB54
 4326 014e C849     		.uleb128 .L700-.LFB1321
 4327 0150 00       		.uleb128 0
 4328 0151 D04B     		.uleb128 .LEHB55-.LFB1321
 4329 0153 04       		.uleb128 .LEHE55-.LEHB55
 4330 0154 DC4B     		.uleb128 .L703-.LFB1321
 4331 0156 00       		.uleb128 0
 4332 0157 D44B     		.uleb128 .LEHB56-.LFB1321
 4333 0159 04       		.uleb128 .LEHE56-.LEHB56
 4334 015a D44A     		.uleb128 .L690-.LFB1321
 4335 015c 00       		.uleb128 0
 4336 015d C052     		.uleb128 .LEHB57-.LFB1321
 4337 015f 04       		.uleb128 .LEHE57-.LEHB57
 4338 0160 CC52     		.uleb128 .L718-.LFB1321
 4339 0162 00       		.uleb128 0
 4340 0163 C452     		.uleb128 .LEHB58-.LFB1321
 4341 0165 04       		.uleb128 .LEHE58-.LEHB58
 4342 0166 D052     		.uleb128 .L717-.LFB1321
 4343 0168 00       		.uleb128 0
 4344 0169 C852     		.uleb128 .LEHB59-.LFB1321
 4345 016b 04       		.uleb128 .LEHE59-.LEHB59
 4346 016c DC4B     		.uleb128 .L703-.LFB1321
 4347 016e 00       		.uleb128 0
 4348 016f D053     		.uleb128 .LEHB60-.LFB1321
 4349 0171 04       		.uleb128 .LEHE60-.LEHB60
 4350 0172 DC53     		.uleb128 .L707-.LFB1321
 4351 0174 00       		.uleb128 0
 4352 0175 D453     		.uleb128 .LEHB61-.LFB1321
 4353 0177 04       		.uleb128 .LEHE61-.LEHB61
 4354 0178 D452     		.uleb128 .L694-.LFB1321
 4355 017a 00       		.uleb128 0
 4356 017b E45A     		.uleb128 .LEHB62-.LFB1321
 4357 017d 04       		.uleb128 .LEHE62-.LEHB62
 4358 017e F05A     		.uleb128 .L722-.LFB1321
 4359 0180 00       		.uleb128 0
 4360 0181 E85A     		.uleb128 .LEHB63-.LFB1321
 4361 0183 04       		.uleb128 .LEHE63-.LEHB63
 4362 0184 F45A     		.uleb128 .L721-.LFB1321
 4363 0186 00       		.uleb128 0
 4364 0187 EC5A     		.uleb128 .LEHB64-.LFB1321
 4365 0189 04       		.uleb128 .LEHE64-.LEHB64
 4366 018a DC53     		.uleb128 .L707-.LFB1321
 4367 018c 00       		.uleb128 0
 4368 018d F85A     		.uleb128 .LEHB65-.LFB1321
 4369 018f 9801     		.uleb128 .LEHE65-.LEHB65
 4370 0191 805B     		.uleb128 .L708-.LFB1321
 4371 0193 00       		.uleb128 0
 4372 0194 905C     		.uleb128 .LEHB66-.LFB1321
 4373 0196 9801     		.uleb128 .LEHE66-.LEHB66
 4374 0198 985C     		.uleb128 .L704-.LFB1321
 4375 019a 00       		.uleb128 0
 4376              	.LLSDACSE1321:
 4377              		.section	.text._ZN6tflite3ops5micro3pad4EvalEP13TfLiteContextP10TfLiteNode
 4378              		.fnend
 4380              		.section	.text._ZN6tflite3ops5micro12Register_PADEv,"ax",%progbits
 4381              		.align	2
 4382              		.global	_ZN6tflite3ops5micro12Register_PADEv
 4383              		.syntax unified
 4384              		.arm
 4385              		.fpu neon
 4387              	_ZN6tflite3ops5micro12Register_PADEv:
 4388              		.fnstart
 4389              	.LFB1730:
 4390              		@ args = 0, pretend = 0, frame = 0
 4391              		@ frame_needed = 0, uses_anonymous_args = 0
 4392 0000 00C000E3 		movw	ip, #:lower16:.LANCHOR0
 4393 0004 10402DE9 		push	{r4, lr}
 4394 0008 00C040E3 		movt	ip, #:upper16:.LANCHOR0
 4395 000c 0040A0E1 		mov	r4, r0
 4396 0010 00E0A0E1 		mov	lr, r0
 4397 0014 0F00BCE8 		ldmia	ip!, {r0, r1, r2, r3}
 4398 0018 0F00AEE8 		stmia	lr!, {r0, r1, r2, r3}
 4399 001c 0F009CE8 		ldm	ip, {r0, r1, r2, r3}
 4400 0020 0F008EE8 		stm	lr, {r0, r1, r2, r3}
 4401 0024 0400A0E1 		mov	r0, r4
 4402 0028 1080BDE8 		pop	{r4, pc}
 4403              		.cantunwind
 4404              		.fnend
 4406              		.section	.text._ZN6tflite3ops5micro14Register_PADV2Ev,"ax",%progbits
 4407              		.align	2
 4408              		.global	_ZN6tflite3ops5micro14Register_PADV2Ev
 4409              		.syntax unified
 4410              		.arm
 4411              		.fpu neon
 4413              	_ZN6tflite3ops5micro14Register_PADV2Ev:
 4414              		.fnstart
 4415              	.LFB1323:
 4416              		@ args = 0, pretend = 0, frame = 0
 4417              		@ frame_needed = 0, uses_anonymous_args = 0
 4418 0000 00C000E3 		movw	ip, #:lower16:.LANCHOR0
 4419 0004 10402DE9 		push	{r4, lr}
 4420 0008 00C040E3 		movt	ip, #:upper16:.LANCHOR0
 4421 000c 0040A0E1 		mov	r4, r0
 4422 0010 00E0A0E1 		mov	lr, r0
 4423 0014 0F00BCE8 		ldmia	ip!, {r0, r1, r2, r3}
 4424 0018 0F00AEE8 		stmia	lr!, {r0, r1, r2, r3}
 4425 001c 0F009CE8 		ldm	ip, {r0, r1, r2, r3}
 4426 0020 0F008EE8 		stm	lr, {r0, r1, r2, r3}
 4427 0024 0400A0E1 		mov	r0, r4
 4428 0028 1080BDE8 		pop	{r4, pc}
 4429              		.cantunwind
 4430              		.fnend
 4432              		.section	.rodata
 4433              		.align	2
 4434              		.set	.LANCHOR0,. + 0
 4435              	.LC0:
 4436 0000 00000000 		.word	_ZN6tflite3ops5micro3pad4InitEP13TfLiteContextPKcj
 4437 0004 00000000 		.word	0
 4438 0008 00000000 		.word	_ZN6tflite3ops5micro3pad7PrepareEP13TfLiteContextP10TfLiteNode
 4439 000c 00000000 		.word	_ZN6tflite3ops5micro3pad4EvalEP13TfLiteContextP10TfLiteNode
 4440 0010 00000000 		.word	0
 4441 0014 00000000 		.word	0
 4442 0018 00000000 		.word	0
 4443 001c 00000000 		.word	0
 4444              		.ident	"GCC: (GNU Tools for ARM Embedded Processors 6-2017-q2-update) 6.3.1 20170620 (release) [AR