   1              		.cpu cortex-a9
   2              		.eabi_attribute 28, 1
   3              		.eabi_attribute 20, 1
   4              		.eabi_attribute 21, 1
   5              		.eabi_attribute 23, 3
   6              		.eabi_attribute 24, 1
   7              		.eabi_attribute 25, 1
   8              		.eabi_attribute 26, 1
   9              		.eabi_attribute 30, 2
  10              		.eabi_attribute 34, 0
  11              		.eabi_attribute 18, 4
  12              		.file	"reduce.cc"
  13              		.section	.text._ZN6tflite3ops5micro6reduce10InitReduceEP13TfLiteContextPKcj,"ax",%progbits
  14              		.align	2
  15              		.global	_ZN6tflite3ops5micro6reduce10InitReduceEP13TfLiteContextPKcj
  16              		.syntax unified
  17              		.arm
  18              		.fpu neon
  20              	_ZN6tflite3ops5micro6reduce10InitReduceEP13TfLiteContextPKcj:
  21              		.fnstart
  22              	.LFB4191:
  23              		@ args = 0, pretend = 0, frame = 0
  24              		@ frame_needed = 0, uses_anonymous_args = 0
  25              		@ link register save eliminated.
  26 0000 383090E5 		ldr	r3, [r0, #56]
  27 0004 2410A0E3 		mov	r1, #36
  28 0008 13FF2FE1 		bx	r3
  29              		.cantunwind
  30              		.fnend
  32              		.section	.text._ZN6tflite3ops5micro6reduce10PrepareMaxEP13TfLiteContextP10TfLiteNode,"ax",%progbit
  33              		.align	2
  34              		.global	_ZN6tflite3ops5micro6reduce10PrepareMaxEP13TfLiteContextP10TfLiteNode
  35              		.syntax unified
  36              		.arm
  37              		.fpu neon
  39              	_ZN6tflite3ops5micro6reduce10PrepareMaxEP13TfLiteContextP10TfLiteNode:
  40              		.fnstart
  41              	.LFB4193:
  42              		@ args = 0, pretend = 0, frame = 32
  43              		@ frame_needed = 0, uses_anonymous_args = 0
  44 0000 F04F2DE9 		push	{r4, r5, r6, r7, r8, r9, r10, fp, lr}
  45              		.save {r4, r5, r6, r7, r8, r9, r10, fp, lr}
  46 0004 0020A0E3 		mov	r2, #0
  47              		.pad #36
  48 0008 24D04DE2 		sub	sp, sp, #36
  49 000c 0140A0E1 		mov	r4, r1
  50 0010 08008DE5 		str	r0, [sp, #8]
  51 0014 FEFFFFEB 		bl	_ZN6tflite8GetInputEPK13TfLiteContextPK10TfLiteNodei
  52 0018 003094E5 		ldr	r3, [r4]
  53 001c 003093E5 		ldr	r3, [r3]
  54 0020 020053E3 		cmp	r3, #2
  55 0024 0200000A 		beq	.L3
  56              	.L5:
  57 0028 0100A0E3 		mov	r0, #1
  58 002c 24D08DE2 		add	sp, sp, #36
  59              		@ sp needed
  60 0030 F08FBDE8 		pop	{r4, r5, r6, r7, r8, r9, r10, fp, pc}
  61              	.L3:
  62 0034 043094E5 		ldr	r3, [r4, #4]
  63 0038 005093E5 		ldr	r5, [r3]
  64 003c 010055E3 		cmp	r5, #1
  65 0040 F8FFFF1A 		bne	.L5
  66 0044 0060A0E1 		mov	r6, r0
  67 0048 0520A0E1 		mov	r2, r5
  68 004c 0410A0E1 		mov	r1, r4
  69 0050 08009DE5 		ldr	r0, [sp, #8]
  70 0054 FEFFFFEB 		bl	_ZN6tflite8GetInputEPK13TfLiteContextPK10TfLiteNodei
  71 0058 000050E3 		cmp	r0, #0
  72 005c F1FFFF0A 		beq	.L5
  73 0060 0030D0E5 		ldrb	r3, [r0]	@ zero_extendqisi2
  74 0064 020053E3 		cmp	r3, #2
  75 0068 EEFFFF1A 		bne	.L5
  76 006c 0030D6E5 		ldrb	r3, [r6]	@ zero_extendqisi2
  77 0070 090053E3 		cmp	r3, #9
  78 0074 8C00000A 		beq	.L23
  79              	.L6:
  80 0078 08809DE5 		ldr	r8, [sp, #8]
  81 007c 0020A0E3 		mov	r2, #0
  82 0080 103094E5 		ldr	r3, [r4, #16]
  83 0084 0410A0E1 		mov	r1, r4
  84 0088 0800A0E1 		mov	r0, r8
  85 008c 0370A0E1 		mov	r7, r3
  86 0090 14308DE5 		str	r3, [sp, #20]
  87 0094 FEFFFFEB 		bl	_ZN6tflite8GetInputEPK13TfLiteContextPK10TfLiteNodei
  88 0098 0020A0E3 		mov	r2, #0
  89 009c 0090A0E1 		mov	r9, r0
  90 00a0 18008DE5 		str	r0, [sp, #24]
  91 00a4 0410A0E1 		mov	r1, r4
  92 00a8 0800A0E1 		mov	r0, r8
  93 00ac FEFFFFEB 		bl	_ZN6tflite9GetOutputEP13TfLiteContextPK10TfLiteNodei
  94 00b0 0410A0E1 		mov	r1, r4
  95 00b4 0060A0E1 		mov	r6, r0
  96 00b8 0120A0E3 		mov	r2, #1
  97 00bc 0800A0E1 		mov	r0, r8
  98 00c0 FEFFFFEB 		bl	_ZN6tflite8GetInputEPK13TfLiteContextPK10TfLiteNodei
  99 00c4 083096E5 		ldr	r3, [r6, #8]
 100 00c8 0C2099E5 		ldr	r2, [r9, #12]	@ float
 101 00cc 1C008DE5 		str	r0, [sp, #28]
 102 00d0 0310A0E1 		mov	r1, r3
 103 00d4 10308DE5 		str	r3, [sp, #16]
 104 00d8 001091E5 		ldr	r1, [r1]
 105 00dc 0C3096E5 		ldr	r3, [r6, #12]	@ float
 106 00e0 142087E5 		str	r2, [r7, #20]	@ float
 107 00e4 0100A0E1 		mov	r0, r1
 108 00e8 0C108DE5 		str	r1, [sp, #12]
 109 00ec 000050E3 		cmp	r0, #0
 110 00f0 1C3087E5 		str	r3, [r7, #28]	@ float
 111 00f4 510000DA 		ble	.L10
 112 00f8 080050E3 		cmp	r0, #8
 113 00fc 0030A0E1 		mov	r3, r0
 114 0100 640000DA 		ble	.L12
 115 0104 10209DE5 		ldr	r2, [sp, #16]
 116 0108 093040E2 		sub	r3, r0, #9
 117 010c 0080A0E3 		mov	r8, #0
 118 0110 0730C3E3 		bic	r3, r3, #7
 119 0114 0100A0E3 		mov	r0, #1
 120 0118 0010A0E3 		mov	r1, #0
 121 011c A4E082E2 		add	lr, r2, #164
 122 0120 08C0A0E1 		mov	ip, r8
 123 0124 083083E2 		add	r3, r3, #8
 124 0128 04308DE5 		str	r3, [sp, #4]
 125              	.L8:
 126 012c A0801EE5 		ldr	r8, [lr, #-160]
 127 0130 08C08CE2 		add	ip, ip, #8
 128 0134 04309DE5 		ldr	r3, [sp, #4]
 129 0138 9C601EE5 		ldr	r6, [lr, #-156]
 130 013c 98401EE5 		ldr	r4, [lr, #-152]
 131 0140 03005CE1 		cmp	ip, r3
 132 0144 980103E0 		mul	r3, r8, r1
 133 0148 C8BFA0E1 		asr	fp, r8, #31
 134 014c 94501EE5 		ldr	r5, [lr, #-148]
 135 0150 988089E0 		umull	r8, r9, r8, r0
 136 0154 8C201EE5 		ldr	r2, [lr, #-140]
 137 0158 00F0DEF5 		pld	[lr]
 138 015c 20E08EE2 		add	lr, lr, #32
 139 0160 903B23E0 		mla	r3, r0, fp, r3
 140 0164 C6BFA0E1 		asr	fp, r6, #31
 141 0168 960881E0 		umull	r0, r1, r6, r8
 142 016c 099083E0 		add	r9, r3, r9
 143 0170 B0301EE5 		ldr	r3, [lr, #-176]
 144 0174 960907E0 		mul	r7, r6, r9
 145 0178 C49FA0E1 		asr	r9, r4, #31
 146 017c 987B27E0 		mla	r7, r8, fp, r7
 147 0180 011087E0 		add	r1, r7, r1
 148 0184 946087E0 		umull	r6, r7, r4, r0
 149 0188 94010AE0 		mul	r10, r4, r1
 150 018c A8101EE5 		ldr	r1, [lr, #-168]
 151 0190 90A92AE0 		mla	r10, r0, r9, r10
 152 0194 A4001EE5 		ldr	r0, [lr, #-164]
 153 0198 C59FA0E1 		asr	r9, r5, #31
 154 019c 07708AE0 		add	r7, r10, r7
 155 01a0 950708E0 		mul	r8, r5, r7
 156 01a4 C37FA0E1 		asr	r7, r3, #31
 157 01a8 954685E0 		umull	r4, r5, r5, r6
 158 01ac 968928E0 		mla	r8, r6, r9, r8
 159 01b0 C29FA0E1 		asr	r9, r2, #31
 160 01b4 055088E0 		add	r5, r8, r5
 161 01b8 93050AE0 		mul	r10, r3, r5
 162 01bc 94A72AE0 		mla	r10, r4, r7, r10
 163 01c0 934485E0 		umull	r4, r5, r3, r4
 164 01c4 C17FA0E1 		asr	r7, r1, #31
 165 01c8 05508AE0 		add	r5, r10, r5
 166 01cc 920506E0 		mul	r6, r2, r5
 167 01d0 C05FA0E1 		asr	r5, r0, #31
 168 01d4 922483E0 		umull	r2, r3, r2, r4
 169 01d8 946926E0 		mla	r6, r4, r9, r6
 170 01dc 033086E0 		add	r3, r6, r3
 171 01e0 910304E0 		mul	r4, r1, r3
 172 01e4 924724E0 		mla	r4, r2, r7, r4
 173 01e8 912283E0 		umull	r2, r3, r1, r2
 174 01ec 033084E0 		add	r3, r4, r3
 175 01f0 900303E0 		mul	r3, r0, r3
 176 01f4 900281E0 		umull	r0, r1, r0, r2
 177 01f8 923522E0 		mla	r2, r2, r5, r3
 178 01fc 011082E0 		add	r1, r2, r1
 179 0200 C9FFFF1A 		bne	.L8
 180 0204 0C80A0E1 		mov	r8, ip
 181 0208 0CC09DE5 		ldr	ip, [sp, #12]
 182              	.L7:
 183 020c 10309DE5 		ldr	r3, [sp, #16]
 184 0210 018088E2 		add	r8, r8, #1
 185 0214 08E183E0 		add	lr, r3, r8, lsl #2
 186              	.L9:
 187 0218 04209EE4 		ldr	r2, [lr], #4
 188 021c 0C0058E1 		cmp	r8, ip
 189 0220 018088E2 		add	r8, r8, #1
 190 0224 C25FA0E1 		asr	r5, r2, #31
 191 0228 900503E0 		mul	r3, r0, r5
 192 022c 923123E0 		mla	r3, r2, r1, r3
 193 0230 900281E0 		umull	r0, r1, r0, r2
 194 0234 011083E0 		add	r1, r3, r1
 195 0238 F6FFFFBA 		blt	.L9
 196 023c 0050A0E1 		mov	r5, r0
 197              	.L10:
 198 0240 18309DE5 		ldr	r3, [sp, #24]
 199 0244 14609DE5 		ldr	r6, [sp, #20]
 200 0248 081093E5 		ldr	r1, [r3, #8]
 201 024c 205086E5 		str	r5, [r6, #32]
 202 0250 082086E2 		add	r2, r6, #8
 203 0254 08509DE5 		ldr	r5, [sp, #8]
 204 0258 001091E5 		ldr	r1, [r1]
 205 025c 403095E5 		ldr	r3, [r5, #64]
 206 0260 0500A0E1 		mov	r0, r5
 207 0264 0111A0E1 		lsl	r1, r1, #2
 208 0268 33FF2FE1 		blx	r3
 209 026c 1C309DE5 		ldr	r3, [sp, #28]
 210 0270 404095E5 		ldr	r4, [r5, #64]
 211 0274 080093E5 		ldr	r0, [r3, #8]
 212 0278 FEFFFFEB 		bl	_ZN6tflite12ElementCountERK14TfLiteIntArray
 213 027c 0C2086E2 		add	r2, r6, #12
 214 0280 0011A0E1 		lsl	r1, r0, #2
 215 0284 0500A0E1 		mov	r0, r5
 216 0288 34FF2FE1 		blx	r4
 217 028c 0000A0E3 		mov	r0, #0
 218 0290 24D08DE2 		add	sp, sp, #36
 219              		@ sp needed
 220 0294 F08FBDE8 		pop	{r4, r5, r6, r7, r8, r9, r10, fp, pc}
 221              	.L12:
 222 0298 0100A0E3 		mov	r0, #1
 223 029c 0010A0E3 		mov	r1, #0
 224 02a0 0080A0E3 		mov	r8, #0
 225 02a4 03C0A0E1 		mov	ip, r3
 226 02a8 D7FFFFEA 		b	.L7
 227              	.L23:
 228 02ac 0410A0E1 		mov	r1, r4
 229 02b0 0020A0E3 		mov	r2, #0
 230 02b4 08009DE5 		ldr	r0, [sp, #8]
 231 02b8 107094E5 		ldr	r7, [r4, #16]
 232 02bc FEFFFFEB 		bl	_ZN6tflite9GetOutputEP13TfLiteContextPK10TfLiteNodei
 233 02c0 030A96ED 		vldr.32	s0, [r6, #12]
 234 02c4 037AD0ED 		vldr.32	s15, [r0, #12]
 235 02c8 041087E2 		add	r1, r7, #4
 236 02cc 0700A0E1 		mov	r0, r7
 237 02d0 C00AB7EE 		vcvt.f64.f32	d0, s0
 238 02d4 E70AF7EE 		vcvt.f64.f32	d16, s15
 239 02d8 200B80EE 		vdiv.f64	d0, d0, d16
 240 02dc FEFFFFEB 		bl	_ZN6tflite18QuantizeMultiplierEdPlPi
 241 02e0 64FFFFEA 		b	.L6
 242              		.fnend
 244              		.section	.text._ZN6tflite3ops5micro6reduce16PrepareMeanOrSumEP13TfLiteContextP10TfLiteNode,"ax",%p
 245              		.align	2
 246              		.global	_ZN6tflite3ops5micro6reduce16PrepareMeanOrSumEP13TfLiteContextP10TfLiteNode
 247              		.syntax unified
 248              		.arm
 249              		.fpu neon
 251              	_ZN6tflite3ops5micro6reduce16PrepareMeanOrSumEP13TfLiteContextP10TfLiteNode:
 252              		.fnstart
 253              	.LFB4194:
 254              		@ args = 0, pretend = 0, frame = 40
 255              		@ frame_needed = 0, uses_anonymous_args = 0
 256 0000 F04F2DE9 		push	{r4, r5, r6, r7, r8, r9, r10, fp, lr}
 257              		.save {r4, r5, r6, r7, r8, r9, r10, fp, lr}
 258 0004 0020A0E3 		mov	r2, #0
 259              		.pad #44
 260 0008 2CD04DE2 		sub	sp, sp, #44
 261 000c 0140A0E1 		mov	r4, r1
 262 0010 0060A0E1 		mov	r6, r0
 263 0014 08108DE5 		str	r1, [sp, #8]
 264 0018 10008DE5 		str	r0, [sp, #16]
 265 001c FEFFFFEB 		bl	_ZN6tflite8GetInputEPK13TfLiteContextPK10TfLiteNodei
 266 0020 103094E5 		ldr	r3, [r4, #16]
 267 0024 0050A0E1 		mov	r5, r0
 268 0028 20008DE5 		str	r0, [sp, #32]
 269 002c 0410A0E1 		mov	r1, r4
 270 0030 0600A0E1 		mov	r0, r6
 271 0034 0020A0E3 		mov	r2, #0
 272 0038 24308DE5 		str	r3, [sp, #36]
 273 003c FEFFFFEB 		bl	_ZN6tflite9GetOutputEP13TfLiteContextPK10TfLiteNodei
 274 0040 0030D5E5 		ldrb	r3, [r5]	@ zero_extendqisi2
 275 0044 0C008DE5 		str	r0, [sp, #12]
 276 0048 090053E3 		cmp	r3, #9
 277 004c 14308DE5 		str	r3, [sp, #20]
 278 0050 9700000A 		beq	.L47
 279              	.L25:
 280 0054 0C309DE5 		ldr	r3, [sp, #12]
 281 0058 083093E5 		ldr	r3, [r3, #8]
 282 005c 0320A0E1 		mov	r2, r3
 283 0060 18308DE5 		str	r3, [sp, #24]
 284 0064 003093E5 		ldr	r3, [r3]
 285 0068 000053E3 		cmp	r3, #0
 286 006c 1C308DE5 		str	r3, [sp, #28]
 287 0070 A10000DA 		ble	.L34
 288 0074 080053E3 		cmp	r3, #8
 289 0078 9A0000DA 		ble	.L35
 290 007c 093043E2 		sub	r3, r3, #9
 291 0080 A4E082E2 		add	lr, r2, #164
 292 0084 0730C3E3 		bic	r3, r3, #7
 293 0088 01A0A0E3 		mov	r10, #1
 294 008c 00B0A0E3 		mov	fp, #0
 295 0090 0080A0E3 		mov	r8, #0
 296 0094 083083E2 		add	r3, r3, #8
 297 0098 04308DE5 		str	r3, [sp, #4]
 298              	.L28:
 299 009c A0601EE5 		ldr	r6, [lr, #-160]
 300 00a0 088088E2 		add	r8, r8, #8
 301 00a4 04309DE5 		ldr	r3, [sp, #4]
 302 00a8 9C401EE5 		ldr	r4, [lr, #-156]
 303 00ac 98001EE5 		ldr	r0, [lr, #-152]
 304 00b0 960B02E0 		mul	r2, r6, fp
 305 00b4 030058E1 		cmp	r8, r3
 306 00b8 C63FA0E1 		asr	r3, r6, #31
 307 00bc 94101EE5 		ldr	r1, [lr, #-148]
 308 00c0 966A87E0 		umull	r6, r7, r6, r10
 309 00c4 C4BFA0E1 		asr	fp, r4, #31
 310 00c8 00F0DEF5 		pld	[lr]
 311 00cc 20E08EE2 		add	lr, lr, #32
 312 00d0 9A2322E0 		mla	r2, r10, r3, r2
 313 00d4 B0301EE5 		ldr	r3, [lr, #-176]
 314 00d8 A4A01EE5 		ldr	r10, [lr, #-164]
 315 00dc 077082E0 		add	r7, r2, r7
 316 00e0 AC201EE5 		ldr	r2, [lr, #-172]
 317 00e4 94070CE0 		mul	ip, r4, r7
 318 00e8 C07FA0E1 		asr	r7, r0, #31
 319 00ec 944685E0 		umull	r4, r5, r4, r6
 320 00f0 96CB2CE0 		mla	ip, r6, fp, ip
 321 00f4 05508CE0 		add	r5, ip, r5
 322 00f8 A8C01EE5 		ldr	ip, [lr, #-168]
 323 00fc 900509E0 		mul	r9, r0, r5
 324 0100 949729E0 		mla	r9, r4, r7, r9
 325 0104 904485E0 		umull	r4, r5, r0, r4
 326 0108 C17FA0E1 		asr	r7, r1, #31
 327 010c 055089E0 		add	r5, r9, r5
 328 0110 910506E0 		mul	r6, r1, r5
 329 0114 C35FA0E1 		asr	r5, r3, #31
 330 0118 910481E0 		umull	r0, r1, r1, r4
 331 011c 946726E0 		mla	r6, r4, r7, r6
 332 0120 C27FA0E1 		asr	r7, r2, #31
 333 0124 011086E0 		add	r1, r6, r1
 334 0128 930109E0 		mul	r9, r3, r1
 335 012c 909529E0 		mla	r9, r0, r5, r9
 336 0130 930081E0 		umull	r0, r1, r3, r0
 337 0134 CC5FA0E1 		asr	r5, ip, #31
 338 0138 011089E0 		add	r1, r9, r1
 339 013c 920104E0 		mul	r4, r2, r1
 340 0140 CA1FA0E1 		asr	r1, r10, #31
 341 0144 922083E0 		umull	r2, r3, r2, r0
 342 0148 904724E0 		mla	r4, r0, r7, r4
 343 014c 033084E0 		add	r3, r4, r3
 344 0150 9C0300E0 		mul	r0, ip, r3
 345 0154 920520E0 		mla	r0, r2, r5, r0
 346 0158 9C2283E0 		umull	r2, r3, ip, r2
 347 015c 033080E0 		add	r3, r0, r3
 348 0160 9A030CE0 		mul	ip, r10, r3
 349 0164 9AA28BE0 		umull	r10, fp, r10, r2
 350 0168 92C122E0 		mla	r2, r2, r1, ip
 351 016c 0BB082E0 		add	fp, r2, fp
 352 0170 C9FFFF1A 		bne	.L28
 353 0174 18309DE5 		ldr	r3, [sp, #24]
 354              	.L27:
 355 0178 018088E2 		add	r8, r8, #1
 356 017c 1C109DE5 		ldr	r1, [sp, #28]
 357 0180 080183E0 		add	r0, r3, r8, lsl #2
 358              	.L29:
 359 0184 042090E4 		ldr	r2, [r0], #4
 360 0188 080051E1 		cmp	r1, r8
 361 018c 018088E2 		add	r8, r8, #1
 362 0190 C25FA0E1 		asr	r5, r2, #31
 363 0194 9A0503E0 		mul	r3, r10, r5
 364 0198 923B23E0 		mla	r3, r2, fp, r3
 365 019c 9AA28BE0 		umull	r10, fp, r10, r2
 366 01a0 0BB083E0 		add	fp, r3, fp
 367 01a4 F6FFFFCA 		bgt	.L29
 368              	.L26:
 369 01a8 14309DE5 		ldr	r3, [sp, #20]
 370 01ac 030053E3 		cmp	r3, #3
 371 01b0 09005313 		cmpne	r3, #9
 372 01b4 2D00000A 		beq	.L48
 373              	.L30:
 374 01b8 08509DE5 		ldr	r5, [sp, #8]
 375 01bc 0020A0E3 		mov	r2, #0
 376 01c0 10009DE5 		ldr	r0, [sp, #16]
 377 01c4 0510A0E1 		mov	r1, r5
 378 01c8 FEFFFFEB 		bl	_ZN6tflite8GetInputEPK13TfLiteContextPK10TfLiteNodei
 379 01cc 003095E5 		ldr	r3, [r5]
 380 01d0 0040A0E1 		mov	r4, r0
 381 01d4 003093E5 		ldr	r3, [r3]
 382 01d8 020053E3 		cmp	r3, #2
 383 01dc 0200000A 		beq	.L31
 384              	.L33:
 385 01e0 0100A0E3 		mov	r0, #1
 386              	.L32:
 387 01e4 2CD08DE2 		add	sp, sp, #44
 388              		@ sp needed
 389 01e8 F08FBDE8 		pop	{r4, r5, r6, r7, r8, r9, r10, fp, pc}
 390              	.L31:
 391 01ec 08309DE5 		ldr	r3, [sp, #8]
 392 01f0 043093E5 		ldr	r3, [r3, #4]
 393 01f4 002093E5 		ldr	r2, [r3]
 394 01f8 010052E3 		cmp	r2, #1
 395 01fc F7FFFF1A 		bne	.L33
 396 0200 08109DE5 		ldr	r1, [sp, #8]
 397 0204 10009DE5 		ldr	r0, [sp, #16]
 398 0208 FEFFFFEB 		bl	_ZN6tflite8GetInputEPK13TfLiteContextPK10TfLiteNodei
 399 020c 000050E3 		cmp	r0, #0
 400 0210 F2FFFF0A 		beq	.L33
 401 0214 0030D0E5 		ldrb	r3, [r0]	@ zero_extendqisi2
 402 0218 020053E3 		cmp	r3, #2
 403 021c EFFFFF1A 		bne	.L33
 404 0220 0030D4E5 		ldrb	r3, [r4]	@ zero_extendqisi2
 405 0224 090053E3 		cmp	r3, #9
 406 0228 0000A013 		movne	r0, #0
 407 022c ECFFFF1A 		bne	.L32
 408 0230 08309DE5 		ldr	r3, [sp, #8]
 409 0234 0020A0E3 		mov	r2, #0
 410 0238 10009DE5 		ldr	r0, [sp, #16]
 411 023c 0310A0E1 		mov	r1, r3
 412 0240 105093E5 		ldr	r5, [r3, #16]
 413 0244 FEFFFFEB 		bl	_ZN6tflite9GetOutputEP13TfLiteContextPK10TfLiteNodei
 414 0248 030A94ED 		vldr.32	s0, [r4, #12]
 415 024c 037AD0ED 		vldr.32	s15, [r0, #12]
 416 0250 041085E2 		add	r1, r5, #4
 417 0254 0500A0E1 		mov	r0, r5
 418 0258 C00AB7EE 		vcvt.f64.f32	d0, s0
 419 025c E70AF7EE 		vcvt.f64.f32	d16, s15
 420 0260 200B80EE 		vdiv.f64	d0, d0, d16
 421 0264 FEFFFFEB 		bl	_ZN6tflite18QuantizeMultiplierEdPlPi
 422 0268 0000A0E3 		mov	r0, #0
 423 026c DCFFFFEA 		b	.L32
 424              	.L48:
 425 0270 24409DE5 		ldr	r4, [sp, #36]
 426 0274 0A11A0E1 		lsl	r1, r10, #2
 427 0278 10009DE5 		ldr	r0, [sp, #16]
 428 027c 082084E2 		add	r2, r4, #8
 429 0280 403090E5 		ldr	r3, [r0, #64]
 430 0284 33FF2FE1 		blx	r3
 431 0288 20309DE5 		ldr	r3, [sp, #32]
 432 028c 100093E5 		ldr	r0, [r3, #16]
 433 0290 0C1093E5 		ldr	r1, [r3, #12]	@ float
 434 0294 0C309DE5 		ldr	r3, [sp, #12]
 435 0298 102093E5 		ldr	r2, [r3, #16]
 436 029c 0C3093E5 		ldr	r3, [r3, #12]	@ float
 437 02a0 100084E5 		str	r0, [r4, #16]
 438 02a4 141084E5 		str	r1, [r4, #20]	@ float
 439 02a8 182084E5 		str	r2, [r4, #24]
 440 02ac 1C3084E5 		str	r3, [r4, #28]	@ float
 441 02b0 C0FFFFEA 		b	.L30
 442              	.L47:
 443 02b4 20409DE5 		ldr	r4, [sp, #32]
 444 02b8 037AD0ED 		vldr.32	s15, [r0, #12]
 445 02bc 24309DE5 		ldr	r3, [sp, #36]
 446 02c0 030A94ED 		vldr.32	s0, [r4, #12]
 447 02c4 E70AF7EE 		vcvt.f64.f32	d16, s15
 448 02c8 041083E2 		add	r1, r3, #4
 449 02cc 0300A0E1 		mov	r0, r3
 450 02d0 C00AB7EE 		vcvt.f64.f32	d0, s0
 451 02d4 200B80EE 		vdiv.f64	d0, d0, d16
 452 02d8 FEFFFFEB 		bl	_ZN6tflite18QuantizeMultiplierEdPlPi
 453 02dc 0030D4E5 		ldrb	r3, [r4]	@ zero_extendqisi2
 454 02e0 14308DE5 		str	r3, [sp, #20]
 455 02e4 5AFFFFEA 		b	.L25
 456              	.L35:
 457 02e8 01A0A0E3 		mov	r10, #1
 458 02ec 00B0A0E3 		mov	fp, #0
 459 02f0 0080A0E3 		mov	r8, #0
 460 02f4 0230A0E1 		mov	r3, r2
 461 02f8 9EFFFFEA 		b	.L27
 462              	.L34:
 463 02fc 01A0A0E3 		mov	r10, #1
 464 0300 A8FFFFEA 		b	.L26
 465              		.fnend
 467              		.global	__aeabi_uidiv
 468              		.section	.text._ZN6tflite3ops5micro6reduce7EvalMaxEP13TfLiteContextP10TfLiteNode,"ax",%progbits
 469              		.align	2
 470              		.global	_ZN6tflite3ops5micro6reduce7EvalMaxEP13TfLiteContextP10TfLiteNode
 471              		.syntax unified
 472              		.arm
 473              		.fpu neon
 475              	_ZN6tflite3ops5micro6reduce7EvalMaxEP13TfLiteContextP10TfLiteNode:
 476              		.fnstart
 477              	.LFB4197:
 478              		@ args = 0, pretend = 0, frame = 48
 479              		@ frame_needed = 0, uses_anonymous_args = 0
 480 0000 F04F2DE9 		push	{r4, r5, r6, r7, r8, r9, r10, fp, lr}
 481              		.save {r4, r5, r6, r7, r8, r9, r10, fp, lr}
 482 0004 004050E2 		subs	r4, r0, #0
 483              		.pad #52
 484 0008 34D04DE2 		sub	sp, sp, #52
 485 000c 5C02000A 		beq	.L51
 486 0010 000051E3 		cmp	r1, #0
 487 0014 0160A0E1 		mov	r6, r1
 488 0018 5902000A 		beq	.L51
 489 001c 002091E5 		ldr	r2, [r1]
 490 0020 543094E5 		ldr	r3, [r4, #84]
 491 0024 041092E5 		ldr	r1, [r2, #4]
 492 0028 33FF2FE1 		blx	r3
 493 002c 002096E5 		ldr	r2, [r6]
 494 0030 0090A0E1 		mov	r9, r0
 495 0034 543094E5 		ldr	r3, [r4, #84]
 496 0038 0400A0E1 		mov	r0, r4
 497 003c 081092E5 		ldr	r1, [r2, #8]
 498 0040 33FF2FE1 		blx	r3
 499 0044 042096E5 		ldr	r2, [r6, #4]
 500 0048 0050A0E1 		mov	r5, r0
 501 004c 543094E5 		ldr	r3, [r4, #84]
 502 0050 0400A0E1 		mov	r0, r4
 503 0054 041092E5 		ldr	r1, [r2, #4]
 504 0058 33FF2FE1 		blx	r3
 505 005c 0810D9E5 		ldrb	r1, [r9, #8]	@ zero_extendqisi2
 506 0060 00B0A0E1 		mov	fp, r0
 507 0064 0820D0E5 		ldrb	r2, [r0, #8]	@ zero_extendqisi2
 508 0068 020051E1 		cmp	r1, r2
 509 006c 0200000A 		beq	.L278
 510              	.L241:
 511 0070 0100A0E3 		mov	r0, #1
 512              	.L240:
 513 0074 34D08DE2 		add	sp, sp, #52
 514              		@ sp needed
 515 0078 F08FBDE8 		pop	{r4, r5, r6, r7, r8, r9, r10, fp, pc}
 516              	.L278:
 517 007c 107096E5 		ldr	r7, [r6, #16]
 518 0080 040095E5 		ldr	r0, [r5, #4]
 519 0084 FEFFFFEB 		bl	_ZN6tflite12ElementCountERK14TfLiteIntArray
 520 0088 081097E5 		ldr	r1, [r7, #8]
 521 008c 08008DE5 		str	r0, [sp, #8]
 522 0090 0400A0E1 		mov	r0, r4
 523 0094 442094E5 		ldr	r2, [r4, #68]
 524 0098 32FF2FE1 		blx	r2
 525 009c 442094E5 		ldr	r2, [r4, #68]
 526 00a0 0060A0E1 		mov	r6, r0
 527 00a4 0C1097E5 		ldr	r1, [r7, #12]
 528 00a8 0400A0E1 		mov	r0, r4
 529 00ac 32FF2FE1 		blx	r2
 530 00b0 0820D9E5 		ldrb	r2, [r9, #8]	@ zero_extendqisi2
 531 00b4 0080A0E1 		mov	r8, r0
 532 00b8 010052E3 		cmp	r2, #1
 533 00bc 6200000A 		beq	.L54
 534 00c0 090052E3 		cmp	r2, #9
 535 00c4 E9FFFF1A 		bne	.L241
 536 00c8 057A97ED 		vldr.32	s14, [r7, #20]
 537 00cc 077AD7ED 		vldr.32	s15, [r7, #28]
 538 00d0 677AB4EE 		vcmp.f32	s14, s15
 539 00d4 10FAF1EE 		vmrs	APSR_nzcv, FPSCR
 540 00d8 E4FFFF1A 		bne	.L241
 541 00dc 101097E5 		ldr	r1, [r7, #16]
 542 00e0 182097E5 		ldr	r2, [r7, #24]
 543 00e4 020051E1 		cmp	r1, r2
 544 00e8 E0FFFF1A 		bne	.L241
 545 00ec 043099E5 		ldr	r3, [r9, #4]
 546 00f0 004093E5 		ldr	r4, [r3]
 547 00f4 042083E2 		add	r2, r3, #4
 548 00f8 1C308DE5 		str	r3, [sp, #28]
 549 00fc 18208DE5 		str	r2, [sp, #24]
 550 0100 000054E3 		cmp	r4, #0
 551 0104 0B0000DA 		ble	.L105
 552 0108 042093E5 		ldr	r2, [r3, #4]
 553 010c 000052E3 		cmp	r2, #0
 554 0110 18109D15 		ldrne	r1, [sp, #24]
 555 0114 0020A013 		movne	r2, #0
 556 0118 0300001A 		bne	.L109
 557 011c 5C0100EA 		b	.L57
 558              	.L255:
 559 0120 0430B1E5 		ldr	r3, [r1, #4]!
 560 0124 000053E3 		cmp	r3, #0
 561 0128 5901000A 		beq	.L57
 562              	.L109:
 563 012c 012082E2 		add	r2, r2, #1
 564 0130 020054E1 		cmp	r4, r2
 565 0134 F9FFFF1A 		bne	.L255
 566              	.L105:
 567 0138 003099E5 		ldr	r3, [r9]
 568 013c 04209BE5 		ldr	r2, [fp, #4]
 569 0140 00109BE5 		ldr	r1, [fp]
 570 0144 10308DE5 		str	r3, [sp, #16]
 571 0148 003095E5 		ldr	r3, [r5]
 572 014c 04108DE5 		str	r1, [sp, #4]
 573 0150 14308DE5 		str	r3, [sp, #20]
 574 0154 003092E5 		ldr	r3, [r2]
 575 0158 000053E3 		cmp	r3, #0
 576 015c 450200DA 		ble	.L279
 577 0160 0290A0E1 		mov	r9, r2
 578 0164 0150A0E3 		mov	r5, #1
 579 0168 04A0B9E5 		ldr	r10, [r9, #4]!
 580 016c 0070A0E3 		mov	r7, #0
 581 0170 03B0A0E1 		mov	fp, r3
 582 0174 050000EA 		b	.L111
 583              	.L256:
 584 0178 04A0B9E5 		ldr	r10, [r9, #4]!
 585 017c 0000E0E3 		mvn	r0, #0
 586 0180 0A10A0E1 		mov	r1, r10
 587 0184 FEFFFFEB 		bl	__aeabi_uidiv
 588 0188 050050E1 		cmp	r0, r5
 589 018c B7FFFF3A 		bcc	.L241
 590              	.L111:
 591 0190 017087E2 		add	r7, r7, #1
 592 0194 9A0505E0 		mul	r5, r10, r5
 593 0198 07005BE1 		cmp	fp, r7
 594 019c F5FFFF1A 		bne	.L256
 595 01a0 000055E3 		cmp	r5, #0
 596 01a4 0500000A 		beq	.L112
 597              	.L107:
 598 01a8 000055E3 		cmp	r5, #0
 599 01ac 8010A0E3 		mov	r1, #128
 600 01b0 0520A011 		movne	r2, r5
 601 01b4 0120A003 		moveq	r2, #1
 602 01b8 04009DE5 		ldr	r0, [sp, #4]
 603 01bc FEFFFFEB 		bl	memset
 604              	.L112:
 605 01c0 000054E3 		cmp	r4, #0
 606 01c4 0450A001 		moveq	r5, r4
 607 01c8 EE01001A 		bne	.L280
 608              	.L143:
 609 01cc 013044E2 		sub	r3, r4, #1
 610 01d0 18C09DE5 		ldr	ip, [sp, #24]
 611 01d4 0321A0E1 		lsl	r2, r3, #2
 612 01d8 0B1144E2 		sub	r1, r4, #-1073741822
 613 01dc 0111A0E1 		lsl	r1, r1, #2
 614 01e0 14308DE5 		str	r3, [sp, #20]
 615 01e4 02B086E0 		add	fp, r6, r2
 616 01e8 093044E2 		sub	r3, r4, #9
 617 01ec 040081E2 		add	r0, r1, #4
 618 01f0 0730C3E3 		bic	r3, r3, #7
 619 01f4 08B08DE5 		str	fp, [sp, #8]
 620 01f8 0090A0E3 		mov	r9, #0
 621 01fc 0CB0A0E1 		mov	fp, ip
 622 0200 00008CE0 		add	r0, ip, r0
 623 0204 011086E0 		add	r1, r6, r1
 624 0208 02208CE0 		add	r2, ip, r2
 625 020c 083083E2 		add	r3, r3, #8
 626 0210 24008DE5 		str	r0, [sp, #36]
 627 0214 20108DE5 		str	r1, [sp, #32]
 628 0218 18208DE5 		str	r2, [sp, #24]
 629 021c 2C308DE5 		str	r3, [sp, #44]
 630              	.L139:
 631 0220 000054E3 		cmp	r4, #0
 632 0224 5701001A 		bne	.L281
 633 0228 10309DE5 		ldr	r3, [sp, #16]
 634 022c 0400A0E1 		mov	r0, r4
 635 0230 04109DE5 		ldr	r1, [sp, #4]
 636 0234 D020D3E1 		ldrsb	r2, [r3]
 637 0238 D030D1E1 		ldrsb	r3, [r1]
 638 023c 020053E1 		cmp	r3, r2
 639 0240 0230A0B1 		movlt	r3, r2
 640 0244 0030C1E5 		strb	r3, [r1]
 641 0248 89FFFFEA 		b	.L240
 642              	.L54:
 643 024c 043099E5 		ldr	r3, [r9, #4]
 644 0250 004093E5 		ldr	r4, [r3]
 645 0254 047083E2 		add	r7, r3, #4
 646 0258 18308DE5 		str	r3, [sp, #24]
 647 025c 000054E3 		cmp	r4, #0
 648 0260 0B0000DA 		ble	.L56
 649 0264 042093E5 		ldr	r2, [r3, #4]
 650 0268 000052E3 		cmp	r2, #0
 651 026c 0710A011 		movne	r1, r7
 652 0270 0020A013 		movne	r2, #0
 653 0274 0300001A 		bne	.L61
 654 0278 050100EA 		b	.L57
 655              	.L244:
 656 027c 0430B1E5 		ldr	r3, [r1, #4]!
 657 0280 000053E3 		cmp	r3, #0
 658 0284 0201000A 		beq	.L57
 659              	.L61:
 660 0288 012082E2 		add	r2, r2, #1
 661 028c 020054E1 		cmp	r4, r2
 662 0290 F9FFFF1A 		bne	.L244
 663              	.L56:
 664 0294 003099E5 		ldr	r3, [r9]
 665 0298 04209BE5 		ldr	r2, [fp, #4]
 666 029c 00109BE5 		ldr	r1, [fp]
 667 02a0 10308DE5 		str	r3, [sp, #16]
 668 02a4 003095E5 		ldr	r3, [r5]
 669 02a8 04108DE5 		str	r1, [sp, #4]
 670 02ac 1C308DE5 		str	r3, [sp, #28]
 671 02b0 003092E5 		ldr	r3, [r2]
 672 02b4 000053E3 		cmp	r3, #0
 673 02b8 E60100DA 		ble	.L282
 674 02bc 02A0A0E1 		mov	r10, r2
 675 02c0 14408DE5 		str	r4, [sp, #20]
 676 02c4 04B0BAE5 		ldr	fp, [r10, #4]!
 677 02c8 0150A0E3 		mov	r5, #1
 678 02cc 0090A0E3 		mov	r9, #0
 679 02d0 0A40A0E1 		mov	r4, r10
 680 02d4 03A0A0E1 		mov	r10, r3
 681 02d8 050000EA 		b	.L63
 682              	.L246:
 683 02dc 04B0B4E5 		ldr	fp, [r4, #4]!
 684 02e0 0000E0E3 		mvn	r0, #0
 685 02e4 0B10A0E1 		mov	r1, fp
 686 02e8 FEFFFFEB 		bl	__aeabi_uidiv
 687 02ec 050050E1 		cmp	r0, r5
 688 02f0 5EFFFF3A 		bcc	.L241
 689              	.L63:
 690 02f4 019089E2 		add	r9, r9, #1
 691 02f8 9B0505E0 		mul	r5, fp, r5
 692 02fc 09005AE1 		cmp	r10, r9
 693 0300 F5FFFF1A 		bne	.L246
 694 0304 000055E3 		cmp	r5, #0
 695 0308 14409DE5 		ldr	r4, [sp, #20]
 696 030c 4400000A 		beq	.L64
 697 0310 04309DE5 		ldr	r3, [sp, #4]
 698 0314 0510A0E1 		mov	r1, r5
 699 0318 5331A0E7 		sbfx	r3, r3, #2, #1
 700 031c 033003E2 		and	r3, r3, #3
 701 0320 050053E1 		cmp	r3, r5
 702 0324 0530A021 		movcs	r3, r5
 703 0328 060055E3 		cmp	r5, #6
 704 032c 0530A091 		movls	r3, r5
 705 0330 8B01008A 		bhi	.L283
 706              	.L59:
 707 0334 0120A0E1 		mov	r2, r1
 708 0338 0310A0E1 		mov	r1, r3
 709              	.L154:
 710 033c 04009DE5 		ldr	r0, [sp, #4]
 711 0340 010052E3 		cmp	r2, #1
 712 0344 0235E0E3 		mvn	r3, #8388608
 713 0348 003080E5 		str	r3, [r0]	@ float
 714 034c D400000A 		beq	.L163
 715 0350 020052E3 		cmp	r2, #2
 716 0354 043080E5 		str	r3, [r0, #4]	@ float
 717 0358 D100000A 		beq	.L163
 718 035c 030052E3 		cmp	r2, #3
 719 0360 083080E5 		str	r3, [r0, #8]	@ float
 720 0364 CE00000A 		beq	.L163
 721 0368 040052E3 		cmp	r2, #4
 722 036c 0C3080E5 		str	r3, [r0, #12]	@ float
 723 0370 CB00000A 		beq	.L163
 724 0374 050052E3 		cmp	r2, #5
 725 0378 103080E5 		str	r3, [r0, #16]	@ float
 726 037c C800000A 		beq	.L163
 727 0380 143080E5 		str	r3, [r0, #20]	@ float
 728 0384 0630A0E3 		mov	r3, #6
 729              	.L70:
 730 0388 010052E1 		cmp	r2, r1
 731 038c 2400000A 		beq	.L64
 732              	.L69:
 733 0390 000055E3 		cmp	r5, #0
 734 0394 021041E0 		sub	r1, r1, r2
 735 0398 01C04512 		subne	ip, r5, #1
 736 039c 00C0A003 		moveq	ip, #0
 737 03a0 040041E2 		sub	r0, r1, #4
 738 03a4 2001A0E1 		lsr	r0, r0, #2
 739 03a8 02C04CE0 		sub	ip, ip, r2
 740 03ac 02005CE3 		cmp	ip, #2
 741 03b0 010080E2 		add	r0, r0, #1
 742 03b4 00E1A0E1 		lsl	lr, r0, #2
 743 03b8 0C00009A 		bls	.L72
 744 03bc 04C09DE5 		ldr	ip, [sp, #4]
 745 03c0 EC0BDFED 		vldr	d16, .L289
 746 03c4 ED1BDFED 		vldr	d17, .L289+8
 747 03c8 02218CE0 		add	r2, ip, r2, lsl #2
 748 03cc 00C0A0E3 		mov	ip, #0
 749              	.L74:
 750 03d0 01C08CE2 		add	ip, ip, #1
 751 03d4 DF0A42F4 		vst1.64	{d16-d17}, [r2:64]
 752 03d8 0C0050E1 		cmp	r0, ip
 753 03dc 102082E2 		add	r2, r2, #16
 754 03e0 FAFFFF8A 		bhi	.L74
 755 03e4 0E0051E1 		cmp	r1, lr
 756 03e8 0E3083E0 		add	r3, r3, lr
 757 03ec 0C00000A 		beq	.L64
 758              	.L72:
 759 03f0 04C09DE5 		ldr	ip, [sp, #4]
 760 03f4 011083E2 		add	r1, r3, #1
 761 03f8 050051E1 		cmp	r1, r5
 762 03fc 0225E0E3 		mvn	r2, #8388608
 763 0400 03018CE0 		add	r0, ip, r3, lsl #2
 764 0404 002080E5 		str	r2, [r0]	@ float
 765 0408 0500002A 		bcs	.L64
 766 040c 023083E2 		add	r3, r3, #2
 767 0410 01118CE0 		add	r1, ip, r1, lsl #2
 768 0414 050053E1 		cmp	r3, r5
 769 0418 002081E5 		str	r2, [r1]	@ float
 770 041c 03318C30 		addcc	r3, ip, r3, lsl #2
 771 0420 00208335 		strcc	r2, [r3]	@ float
 772              	.L64:
 773 0424 000054E3 		cmp	r4, #0
 774 0428 0450A001 		moveq	r5, r4
 775 042c A200001A 		bne	.L284
 776              	.L140:
 777 0430 0B1144E2 		sub	r1, r4, #-1073741822
 778 0434 013044E2 		sub	r3, r4, #1
 779 0438 0111A0E1 		lsl	r1, r1, #2
 780 043c 0321A0E1 		lsl	r2, r3, #2
 781 0440 14308DE5 		str	r3, [sp, #20]
 782 0444 093044E2 		sub	r3, r4, #9
 783 0448 040081E2 		add	r0, r1, #4
 784 044c 0730C3E3 		bic	r3, r3, #7
 785 0450 011086E0 		add	r1, r6, r1
 786 0454 0090A0E3 		mov	r9, #0
 787 0458 000087E0 		add	r0, r7, r0
 788 045c 24108DE5 		str	r1, [sp, #36]
 789 0460 083083E2 		add	r3, r3, #8
 790 0464 021086E0 		add	r1, r6, r2
 791 0468 022087E0 		add	r2, r7, r2
 792 046c 1C008DE5 		str	r0, [sp, #28]
 793 0470 08108DE5 		str	r1, [sp, #8]
 794 0474 20208DE5 		str	r2, [sp, #32]
 795 0478 2C308DE5 		str	r3, [sp, #44]
 796              	.L103:
 797 047c 000054E3 		cmp	r4, #0
 798 0480 0A00001A 		bne	.L285
 799 0484 04309DE5 		ldr	r3, [sp, #4]
 800 0488 007AD3ED 		vldr.32	s15, [r3]
 801 048c 10309DE5 		ldr	r3, [sp, #16]
 802 0490 007A93ED 		vldr.32	s14, [r3]
 803 0494 E77AB4EE 		vcmpe.f32	s14, s15
 804 0498 10FAF1EE 		vmrs	APSR_nzcv, FPSCR
 805 049c 820000CA 		bgt	.L286
 806 04a0 04309DE5 		ldr	r3, [sp, #4]
 807 04a4 0400A0E1 		mov	r0, r4
 808 04a8 007AC3ED 		vstr.32	s15, [r3]
 809 04ac F0FEFFEA 		b	.L240
 810              	.L285:
 811 04b0 000057E3 		cmp	r7, #0
 812 04b4 3201000A 		beq	.L51
 813 04b8 000056E3 		cmp	r6, #0
 814 04bc 3001000A 		beq	.L51
 815 04c0 000054E3 		cmp	r4, #0
 816 04c4 2B0100DA 		ble	.L164
 817 04c8 080054E3 		cmp	r4, #8
 818 04cc 0030A0E3 		mov	r3, #0
 819 04d0 260100DA 		ble	.L165
 820 04d4 18209DE5 		ldr	r2, [sp, #24]
 821 04d8 03B0A0E1 		mov	fp, r3
 822 04dc 28408DE5 		str	r4, [sp, #40]
 823 04e0 06A0A0E1 		mov	r10, r6
 824 04e4 2C409DE5 		ldr	r4, [sp, #44]
 825 04e8 54E082E2 		add	lr, r2, #84
 826              	.L88:
 827 04ec 50101EE5 		ldr	r1, [lr, #-80]
 828 04f0 08B08BE2 		add	fp, fp, #8
 829 04f4 00209AE5 		ldr	r2, [r10]
 830 04f8 04005BE1 		cmp	fp, r4
 831 04fc 08009AE5 		ldr	r0, [r10, #8]
 832 0500 20A08AE2 		add	r10, r10, #32
 833 0504 44C01EE5 		ldr	ip, [lr, #-68]
 834 0508 00F0DEF5 		pld	[lr]
 835 050c 20E08EE2 		add	lr, lr, #32
 836 0510 912322E0 		mla	r2, r1, r3, r2
 837 0514 1C101AE5 		ldr	r1, [r10, #-28]
 838 0518 6C301EE5 		ldr	r3, [lr, #-108]
 839 051c 931222E0 		mla	r2, r3, r2, r1
 840 0520 68101EE5 		ldr	r1, [lr, #-104]
 841 0524 14301AE5 		ldr	r3, [r10, #-20]
 842 0528 910222E0 		mla	r2, r1, r2, r0
 843 052c 60101EE5 		ldr	r1, [lr, #-96]
 844 0530 10001AE5 		ldr	r0, [r10, #-16]
 845 0534 9C3223E0 		mla	r3, ip, r2, r3
 846 0538 0C201AE5 		ldr	r2, [r10, #-12]
 847 053c 58C01EE5 		ldr	ip, [lr, #-88]
 848 0540 910323E0 		mla	r3, r1, r3, r0
 849 0544 5C101EE5 		ldr	r1, [lr, #-92]
 850 0548 08001AE5 		ldr	r0, [r10, #-8]
 851 054c 912323E0 		mla	r3, r1, r3, r2
 852 0550 54101EE5 		ldr	r1, [lr, #-84]
 853 0554 04201AE5 		ldr	r2, [r10, #-4]
 854 0558 9C0323E0 		mla	r3, ip, r3, r0
 855 055c 912323E0 		mla	r3, r1, r3, r2
 856 0560 E1FFFF1A 		bne	.L88
 857 0564 28409DE5 		ldr	r4, [sp, #40]
 858              	.L87:
 859 0568 0B21A0E1 		lsl	r2, fp, #2
 860 056c 021087E0 		add	r1, r7, r2
 861 0570 022086E0 		add	r2, r6, r2
 862              	.L89:
 863 0574 04C091E4 		ldr	ip, [r1], #4
 864 0578 01B08BE2 		add	fp, fp, #1
 865 057c 040092E4 		ldr	r0, [r2], #4
 866 0580 0B0054E1 		cmp	r4, fp
 867 0584 930C23E0 		mla	r3, r3, ip, r0
 868 0588 F9FFFFCA 		bgt	.L89
 869 058c 00E0A0E3 		mov	lr, #0
 870 0590 0321A0E1 		lsl	r2, r3, #2
 871 0594 0EC0A0E1 		mov	ip, lr
 872              	.L95:
 873 0598 000058E3 		cmp	r8, #0
 874 059c 0D00000A 		beq	.L90
 875 05a0 000055E3 		cmp	r5, #0
 876 05a4 0B0000DA 		ble	.L90
 877 05a8 003098E5 		ldr	r3, [r8]
 878 05ac 03005CE1 		cmp	ip, r3
 879 05b0 0810A011 		movne	r1, r8
 880 05b4 0030A013 		movne	r3, #0
 881 05b8 0300001A 		bne	.L93
 882 05bc 080000EA 		b	.L91
 883              	.L251:
 884 05c0 0400B1E5 		ldr	r0, [r1, #4]!
 885 05c4 0C0050E1 		cmp	r0, ip
 886 05c8 0500000A 		beq	.L91
 887              	.L93:
 888 05cc 013083E2 		add	r3, r3, #1
 889 05d0 050053E1 		cmp	r3, r5
 890 05d4 F9FFFF1A 		bne	.L251
 891              	.L90:
 892 05d8 0C1197E7 		ldr	r1, [r7, ip, lsl #2]
 893 05dc 0C3196E7 		ldr	r3, [r6, ip, lsl #2]
 894 05e0 913E2EE0 		mla	lr, r1, lr, r3
 895              	.L91:
 896 05e4 01C08CE2 		add	ip, ip, #1
 897 05e8 0C0054E1 		cmp	r4, ip
 898 05ec E9FFFF1A 		bne	.L95
 899 05f0 0E11A0E1 		lsl	r1, lr, #2
 900              	.L86:
 901 05f4 04309DE5 		ldr	r3, [sp, #4]
 902 05f8 011083E0 		add	r1, r3, r1
 903 05fc 10309DE5 		ldr	r3, [sp, #16]
 904 0600 007AD1ED 		vldr.32	s15, [r1]
 905 0604 023083E0 		add	r3, r3, r2
 906 0608 007A93ED 		vldr.32	s14, [r3]
 907 060c 14309DE5 		ldr	r3, [sp, #20]
 908 0610 C77AF4EE 		vcmpe.f32	s15, s14
 909 0614 10FAF1EE 		vmrs	APSR_nzcv, FPSCR
 910 0618 477AF04E 		vmovmi.f32	s15, s14
 911 061c 000053E3 		cmp	r3, #0
 912 0620 007AC1ED 		vstr.32	s15, [r1]
 913 0624 1A0000BA 		blt	.L57
 914 0628 08309DE5 		ldr	r3, [sp, #8]
 915 062c 20209DE5 		ldr	r2, [sp, #32]
 916 0630 003093E5 		ldr	r3, [r3]
 917 0634 002092E5 		ldr	r2, [r2]
 918 0638 013083E2 		add	r3, r3, #1
 919 063c 030052E1 		cmp	r2, r3
 920 0640 CF0000BA 		blt	.L51
 921 0644 08E09D15 		ldrne	lr, [sp, #8]
 922 0648 1300001A 		bne	.L99
 923 064c 08309DE5 		ldr	r3, [sp, #8]
 924 0650 1CC09DE5 		ldr	ip, [sp, #28]
 925 0654 24109DE5 		ldr	r1, [sp, #36]
 926 0658 040083E2 		add	r0, r3, #4
 927 065c 14209DE5 		ldr	r2, [sp, #20]
 928 0660 070000EA 		b	.L101
 929              	.L252:
 930 0664 003091E5 		ldr	r3, [r1]
 931 0668 01E0A0E1 		mov	lr, r1
 932 066c 04A03CE5 		ldr	r10, [ip, #-4]!
 933 0670 041041E2 		sub	r1, r1, #4
 934 0674 013083E2 		add	r3, r3, #1
 935 0678 0A0053E1 		cmp	r3, r10
 936 067c C00000CA 		bgt	.L51
 937 0680 0500001A 		bne	.L99
 938              	.L101:
 939 0684 012042E2 		sub	r2, r2, #1
 940 0688 049020E5 		str	r9, [r0, #-4]!
 941 068c 010072E3 		cmn	r2, #1
 942 0690 F3FFFF1A 		bne	.L252
 943              	.L57:
 944 0694 0000A0E3 		mov	r0, #0
 945 0698 75FEFFEA 		b	.L240
 946              	.L99:
 947 069c 00308EE5 		str	r3, [lr]
 948 06a0 75FFFFEA 		b	.L103
 949              	.L163:
 950 06a4 0230A0E1 		mov	r3, r2
 951 06a8 36FFFFEA 		b	.L70
 952              	.L286:
 953 06ac 04309DE5 		ldr	r3, [sp, #4]
 954 06b0 0400A0E1 		mov	r0, r4
 955 06b4 007A83ED 		vstr.32	s14, [r3]
 956 06b8 6DFEFFEA 		b	.L240
 957              	.L284:
 958 06bc 08209DE5 		ldr	r2, [sp, #8]
 959 06c0 010052E3 		cmp	r2, #1
 960 06c4 C23FA0E1 		asr	r3, r2, #31
 961 06c8 0010D3E2 		sbcs	r1, r3, #0
 962 06cc EB0000BA 		blt	.L287
 963 06d0 1CC09DE5 		ldr	ip, [sp, #28]
 964 06d4 0000A0E3 		mov	r0, #0
 965 06d8 0010A0E3 		mov	r1, #0
 966 06dc 0050A0E3 		mov	r5, #0
 967 06e0 04B04CE2 		sub	fp, ip, #4
 968              	.L84:
 969 06e4 04A0BBE5 		ldr	r10, [fp, #4]!
 970 06e8 00005AE3 		cmp	r10, #0
 971 06ec 04A08AB0 		addlt	r10, r10, r4
 972 06f0 00005AE3 		cmp	r10, #0
 973 06f4 0A0054A1 		cmpge	r4, r10
 974 06f8 A10000DA 		ble	.L51
 975 06fc 0A0054E1 		cmp	r4, r10
 976 0700 5AFEFFDA 		ble	.L241
 977 0704 000055E3 		cmp	r5, #0
 978 0708 0B0000DA 		ble	.L78
 979 070c 00C098E5 		ldr	ip, [r8]
 980 0710 0C005AE1 		cmp	r10, ip
 981 0714 08E0A011 		movne	lr, r8
 982 0718 00C0A013 		movne	ip, #0
 983 071c 0300001A 		bne	.L81
 984 0720 070000EA 		b	.L79
 985              	.L249:
 986 0724 0490BEE5 		ldr	r9, [lr, #4]!
 987 0728 09005AE1 		cmp	r10, r9
 988 072c 0400000A 		beq	.L79
 989              	.L81:
 990 0730 01C08CE2 		add	ip, ip, #1
 991 0734 05005CE1 		cmp	ip, r5
 992 0738 F9FFFF1A 		bne	.L249
 993              	.L78:
 994 073c 05A188E7 		str	r10, [r8, r5, lsl #2]
 995 0740 015085E2 		add	r5, r5, #1
 996              	.L79:
 997 0744 010090E2 		adds	r0, r0, #1
 998 0748 0010A1E2 		adc	r1, r1, #0
 999 074c 020050E1 		cmp	r0, r2
 1000 0750 03C0D1E0 		sbcs	ip, r1, r3
 1001 0754 E2FFFFBA 		blt	.L84
 1002              	.L83:
 1003 0758 000054E3 		cmp	r4, #0
 1004 075c 33FFFFDA 		ble	.L140
 1005 0760 0421A0E1 		lsl	r2, r4, #2
 1006 0764 0010A0E3 		mov	r1, #0
 1007 0768 0600A0E1 		mov	r0, r6
 1008 076c FEFFFFEB 		bl	memset
 1009 0770 2EFFFFEA 		b	.L140
 1010              	.L290:
 1011 0774 00F020E3 		.align	3
 1012              	.L289:
 1013 0778 FFFF7FFF 		.word	-8388609
 1014 077c FFFF7FFF 		.word	-8388609
 1015 0780 FFFF7FFF 		.word	-8388609
 1016 0784 FFFF7FFF 		.word	-8388609
 1017              	.L281:
 1018 0788 00005BE3 		cmp	fp, #0
 1019 078c 7C00000A 		beq	.L51
 1020 0790 000056E3 		cmp	r6, #0
 1021 0794 7A00000A 		beq	.L51
 1022 0798 000054E3 		cmp	r4, #0
 1023 079c 0030A0E3 		mov	r3, #0
 1024 07a0 B20000DA 		ble	.L167
 1025 07a4 080054E3 		cmp	r4, #8
 1026 07a8 AE0000DA 		ble	.L168
 1027 07ac 1C209DE5 		ldr	r2, [sp, #28]
 1028 07b0 03A0A0E1 		mov	r10, r3
 1029 07b4 28408DE5 		str	r4, [sp, #40]
 1030 07b8 0670A0E1 		mov	r7, r6
 1031 07bc 2C409DE5 		ldr	r4, [sp, #44]
 1032 07c0 54E082E2 		add	lr, r2, #84
 1033              	.L127:
 1034 07c4 50101EE5 		ldr	r1, [lr, #-80]
 1035 07c8 08A08AE2 		add	r10, r10, #8
 1036 07cc 002097E5 		ldr	r2, [r7]
 1037 07d0 04005AE1 		cmp	r10, r4
 1038 07d4 4C001EE5 		ldr	r0, [lr, #-76]
 1039 07d8 207087E2 		add	r7, r7, #32
 1040 07dc 18C017E5 		ldr	ip, [r7, #-24]
 1041 07e0 00F0DEF5 		pld	[lr]
 1042 07e4 20E08EE2 		add	lr, lr, #32
 1043 07e8 912323E0 		mla	r3, r1, r3, r2
 1044 07ec 1C1017E5 		ldr	r1, [r7, #-28]
 1045 07f0 68201EE5 		ldr	r2, [lr, #-104]
 1046 07f4 901323E0 		mla	r3, r0, r3, r1
 1047 07f8 60101EE5 		ldr	r1, [lr, #-96]
 1048 07fc 100017E5 		ldr	r0, [r7, #-16]
 1049 0800 92C323E0 		mla	r3, r2, r3, ip
 1050 0804 64201EE5 		ldr	r2, [lr, #-100]
 1051 0808 14C017E5 		ldr	ip, [r7, #-20]
 1052 080c 92C323E0 		mla	r3, r2, r3, ip
 1053 0810 0C2017E5 		ldr	r2, [r7, #-12]
 1054 0814 58C01EE5 		ldr	ip, [lr, #-88]
 1055 0818 910323E0 		mla	r3, r1, r3, r0
 1056 081c 5C101EE5 		ldr	r1, [lr, #-92]
 1057 0820 080017E5 		ldr	r0, [r7, #-8]
 1058 0824 912323E0 		mla	r3, r1, r3, r2
 1059 0828 54101EE5 		ldr	r1, [lr, #-84]
 1060 082c 042017E5 		ldr	r2, [r7, #-4]
 1061 0830 9C0323E0 		mla	r3, ip, r3, r0
 1062 0834 912323E0 		mla	r3, r1, r3, r2
 1063 0838 E1FFFF1A 		bne	.L127
 1064 083c 28409DE5 		ldr	r4, [sp, #40]
 1065              	.L126:
 1066 0840 0A21A0E1 		lsl	r2, r10, #2
 1067 0844 02108BE0 		add	r1, fp, r2
 1068 0848 022086E0 		add	r2, r6, r2
 1069              	.L128:
 1070 084c 04C091E4 		ldr	ip, [r1], #4
 1071 0850 01A08AE2 		add	r10, r10, #1
 1072 0854 040092E4 		ldr	r0, [r2], #4
 1073 0858 0A0054E1 		cmp	r4, r10
 1074 085c 930C23E0 		mla	r3, r3, ip, r0
 1075 0860 F9FFFFCA 		bgt	.L128
 1076 0864 00E0A0E3 		mov	lr, #0
 1077 0868 0EC0A0E1 		mov	ip, lr
 1078              	.L134:
 1079 086c 000058E3 		cmp	r8, #0
 1080 0870 0D00000A 		beq	.L129
 1081 0874 000055E3 		cmp	r5, #0
 1082 0878 0B0000DA 		ble	.L129
 1083 087c 002098E5 		ldr	r2, [r8]
 1084 0880 0C0052E1 		cmp	r2, ip
 1085 0884 0810A011 		movne	r1, r8
 1086 0888 0020A013 		movne	r2, #0
 1087 088c 0300001A 		bne	.L132
 1088 0890 080000EA 		b	.L130
 1089              	.L260:
 1090 0894 0400B1E5 		ldr	r0, [r1, #4]!
 1091 0898 0C0050E1 		cmp	r0, ip
 1092 089c 0500000A 		beq	.L130
 1093              	.L132:
 1094 08a0 012082E2 		add	r2, r2, #1
 1095 08a4 020055E1 		cmp	r5, r2
 1096 08a8 F9FFFF1A 		bne	.L260
 1097              	.L129:
 1098 08ac 0C119BE7 		ldr	r1, [fp, ip, lsl #2]
 1099 08b0 0C2196E7 		ldr	r2, [r6, ip, lsl #2]
 1100 08b4 912E2EE0 		mla	lr, r1, lr, r2
 1101              	.L130:
 1102 08b8 01C08CE2 		add	ip, ip, #1
 1103 08bc 0C0054E1 		cmp	r4, ip
 1104 08c0 E9FFFF1A 		bne	.L134
 1105              	.L125:
 1106 08c4 10209DE5 		ldr	r2, [sp, #16]
 1107 08c8 04109DE5 		ldr	r1, [sp, #4]
 1108 08cc D33092E1 		ldrsb	r3, [r2, r3]
 1109 08d0 DE2091E1 		ldrsb	r2, [r1, lr]
 1110 08d4 020053E1 		cmp	r3, r2
 1111 08d8 0230A0B1 		movlt	r3, r2
 1112 08dc 14209DE5 		ldr	r2, [sp, #20]
 1113 08e0 0E30C1E7 		strb	r3, [r1, lr]
 1114 08e4 000052E3 		cmp	r2, #0
 1115 08e8 69FFFFBA 		blt	.L57
 1116 08ec 08309DE5 		ldr	r3, [sp, #8]
 1117 08f0 18209DE5 		ldr	r2, [sp, #24]
 1118 08f4 003093E5 		ldr	r3, [r3]
 1119 08f8 002092E5 		ldr	r2, [r2]
 1120 08fc 013083E2 		add	r3, r3, #1
 1121 0900 030052E1 		cmp	r2, r3
 1122 0904 1E0000BA 		blt	.L51
 1123 0908 08E09D15 		ldrne	lr, [sp, #8]
 1124 090c 1200001A 		bne	.L136
 1125 0910 08309DE5 		ldr	r3, [sp, #8]
 1126 0914 24C09DE5 		ldr	ip, [sp, #36]
 1127 0918 20109DE5 		ldr	r1, [sp, #32]
 1128 091c 040083E2 		add	r0, r3, #4
 1129 0920 14209DE5 		ldr	r2, [sp, #20]
 1130 0924 070000EA 		b	.L137
 1131              	.L261:
 1132 0928 003091E5 		ldr	r3, [r1]
 1133 092c 01E0A0E1 		mov	lr, r1
 1134 0930 04703CE5 		ldr	r7, [ip, #-4]!
 1135 0934 041041E2 		sub	r1, r1, #4
 1136 0938 013083E2 		add	r3, r3, #1
 1137 093c 070053E1 		cmp	r3, r7
 1138 0940 0F0000CA 		bgt	.L51
 1139 0944 0400001A 		bne	.L136
 1140              	.L137:
 1141 0948 012042E2 		sub	r2, r2, #1
 1142 094c 049020E5 		str	r9, [r0, #-4]!
 1143 0950 010072E3 		cmn	r2, #1
 1144 0954 F3FFFF1A 		bne	.L261
 1145 0958 4DFFFFEA 		b	.L57
 1146              	.L136:
 1147 095c 00308EE5 		str	r3, [lr]
 1148 0960 2EFEFFEA 		b	.L139
 1149              	.L283:
 1150 0964 002053E2 		subs	r2, r3, #0
 1151 0968 88FEFF0A 		beq	.L69
 1152 096c 72FEFFEA 		b	.L154
 1153              	.L165:
 1154 0970 03B0A0E1 		mov	fp, r3
 1155 0974 FBFEFFEA 		b	.L87
 1156              	.L164:
 1157 0978 0020A0E3 		mov	r2, #0
 1158 097c 0210A0E1 		mov	r1, r2
 1159 0980 1BFFFFEA 		b	.L86
 1160              	.L51:
 1161 0984 FEFFFFEB 		bl	abort
 1162              	.L280:
 1163 0988 08209DE5 		ldr	r2, [sp, #8]
 1164 098c 010052E3 		cmp	r2, #1
 1165 0990 C23FA0E1 		asr	r3, r2, #31
 1166 0994 F820CDE1 		strd	r2, [sp, #8]
 1167 0998 0030D3E2 		sbcs	r3, r3, #0
 1168 099c 390000BA 		blt	.L288
 1169 09a0 0050A0E3 		mov	r5, #0
 1170 09a4 14309DE5 		ldr	r3, [sp, #20]
 1171 09a8 0490A0E1 		mov	r9, r4
 1172 09ac 0570A0E1 		mov	r7, r5
 1173 09b0 D840CDE1 		ldrd	r4, [sp, #8]
 1174 09b4 0000A0E3 		mov	r0, #0
 1175 09b8 0010A0E3 		mov	r1, #0
 1176 09bc 04A043E2 		sub	r10, r3, #4
 1177              	.L123:
 1178 09c0 04E0BAE5 		ldr	lr, [r10, #4]!
 1179 09c4 00005EE3 		cmp	lr, #0
 1180 09c8 09E08EB0 		addlt	lr, lr, r9
 1181 09cc 00005EE3 		cmp	lr, #0
 1182 09d0 0E0059A1 		cmpge	r9, lr
 1183 09d4 EAFFFFDA 		ble	.L51
 1184 09d8 0E0059E1 		cmp	r9, lr
 1185 09dc A3FDFFDA 		ble	.L241
 1186 09e0 000057E3 		cmp	r7, #0
 1187 09e4 0B0000DA 		ble	.L117
 1188 09e8 003098E5 		ldr	r3, [r8]
 1189 09ec 0E0053E1 		cmp	r3, lr
 1190 09f0 0820A011 		movne	r2, r8
 1191 09f4 0030A013 		movne	r3, #0
 1192 09f8 0300001A 		bne	.L120
 1193 09fc 070000EA 		b	.L118
 1194              	.L258:
 1195 0a00 04C0B2E5 		ldr	ip, [r2, #4]!
 1196 0a04 0C005EE1 		cmp	lr, ip
 1197 0a08 0400000A 		beq	.L118
 1198              	.L120:
 1199 0a0c 013083E2 		add	r3, r3, #1
 1200 0a10 030057E1 		cmp	r7, r3
 1201 0a14 F9FFFF1A 		bne	.L258
 1202              	.L117:
 1203 0a18 07E188E7 		str	lr, [r8, r7, lsl #2]
 1204 0a1c 017087E2 		add	r7, r7, #1
 1205              	.L118:
 1206 0a20 010090E2 		adds	r0, r0, #1
 1207 0a24 0010A1E2 		adc	r1, r1, #0
 1208 0a28 040050E1 		cmp	r0, r4
 1209 0a2c 0530D1E0 		sbcs	r3, r1, r5
 1210 0a30 E2FFFFBA 		blt	.L123
 1211 0a34 0940A0E1 		mov	r4, r9
 1212 0a38 0750A0E1 		mov	r5, r7
 1213              	.L122:
 1214 0a3c 000054E3 		cmp	r4, #0
 1215 0a40 E1FDFFDA 		ble	.L143
 1216 0a44 0421A0E1 		lsl	r2, r4, #2
 1217 0a48 0010A0E3 		mov	r1, #0
 1218 0a4c 0600A0E1 		mov	r0, r6
 1219 0a50 FEFFFFEB 		bl	memset
 1220 0a54 DCFDFFEA 		b	.L143
 1221              	.L282:
 1222 0a58 0130A0E3 		mov	r3, #1
 1223 0a5c 0350A0E1 		mov	r5, r3
 1224 0a60 0310A0E1 		mov	r1, r3
 1225 0a64 32FEFFEA 		b	.L59
 1226              	.L168:
 1227 0a68 03A0A0E1 		mov	r10, r3
 1228 0a6c 73FFFFEA 		b	.L126
 1229              	.L167:
 1230 0a70 03E0A0E1 		mov	lr, r3
 1231 0a74 92FFFFEA 		b	.L125
 1232              	.L279:
 1233 0a78 0150A0E3 		mov	r5, #1
 1234 0a7c C9FDFFEA 		b	.L107
 1235              	.L287:
 1236 0a80 0050A0E3 		mov	r5, #0
 1237 0a84 33FFFFEA 		b	.L83
 1238              	.L288:
 1239 0a88 0050A0E3 		mov	r5, #0
 1240 0a8c EAFFFFEA 		b	.L122
 1241              		.fnend
 1243              		.global	__aeabi_idiv
 1244              		.section	.text._ZN6tflite3ops5micro6reduce8EvalMeanEP13TfLiteContextP10TfLiteNode,"ax",%progbits
 1245              		.align	2
 1246              		.global	_ZN6tflite3ops5micro6reduce8EvalMeanEP13TfLiteContextP10TfLiteNode
 1247              		.syntax unified
 1248              		.arm
 1249              		.fpu neon
 1251              	_ZN6tflite3ops5micro6reduce8EvalMeanEP13TfLiteContextP10TfLiteNode:
 1252              		.fnstart
 1253              	.LFB4196:
 1254              		@ args = 0, pretend = 0, frame = 264
 1255              		@ frame_needed = 0, uses_anonymous_args = 0
 1256 0000 F04F2DE9 		push	{r4, r5, r6, r7, r8, r9, r10, fp, lr}
 1257              		.save {r4, r5, r6, r7, r8, r9, r10, fp, lr}
 1258 0004 009050E2 		subs	r9, r0, #0
 1259 0008 068B2DED 		vpush.64	{d8, d9, d10}
 1260              		.vsave {d8, d9, d10}
 1261              		.pad #268
 1262 000c 43DF4DE2 		sub	sp, sp, #268
 1263 0010 0809000A 		beq	.L634
 1264 0014 000051E3 		cmp	r1, #0
 1265 0018 0140A0E1 		mov	r4, r1
 1266 001c 0509000A 		beq	.L634
 1267 0020 001091E5 		ldr	r1, [r1]
 1268 0024 542099E5 		ldr	r2, [r9, #84]
 1269 0028 041091E5 		ldr	r1, [r1, #4]
 1270              	.LEHB0:
 1271 002c 32FF2FE1 		blx	r2
 1272 0030 001094E5 		ldr	r1, [r4]
 1273 0034 00A0A0E1 		mov	r10, r0
 1274 0038 545099E5 		ldr	r5, [r9, #84]
 1275 003c 0900A0E1 		mov	r0, r9
 1276 0040 081091E5 		ldr	r1, [r1, #8]
 1277 0044 35FF2FE1 		blx	r5
 1278 0048 041094E5 		ldr	r1, [r4, #4]
 1279 004c 0080A0E1 		mov	r8, r0
 1280 0050 545099E5 		ldr	r5, [r9, #84]
 1281 0054 0900A0E1 		mov	r0, r9
 1282 0058 041091E5 		ldr	r1, [r1, #4]
 1283 005c 35FF2FE1 		blx	r5
 1284 0060 143094E5 		ldr	r3, [r4, #20]
 1285 0064 0070A0E1 		mov	r7, r0
 1286 0068 040098E5 		ldr	r0, [r8, #4]
 1287 006c 105094E5 		ldr	r5, [r4, #16]
 1288 0070 08308DE5 		str	r3, [sp, #8]
 1289 0074 FEFFFFEB 		bl	_ZN6tflite12ElementCountERK14TfLiteIntArray
 1290 0078 004050E2 		subs	r4, r0, #0
 1291 007c 006098E5 		ldr	r6, [r8]
 1292 0080 590300DA 		ble	.L1212
 1293 0084 001096E5 		ldr	r1, [r6]
 1294 0088 010054E3 		cmp	r4, #1
 1295 008c BE19CDE1 		strh	r1, [sp, #158]	@ movhi
 1296 0090 0300000A 		beq	.L298
 1297 0094 041096E5 		ldr	r1, [r6, #4]
 1298 0098 040054E3 		cmp	r4, #4
 1299 009c B01ACDE1 		strh	r1, [sp, #160]	@ movhi
 1300 00a0 8501000A 		beq	.L299
 1301              	.L298:
 1302 00a4 01C0A0E3 		mov	ip, #1
 1303 00a8 010084E2 		add	r0, r4, #1
 1304 00ac 423F8DE2 		add	r3, sp, #264
 1305 00b0 040050E3 		cmp	r0, #4
 1306 00b4 141C83E0 		add	r1, r3, r4, lsl ip
 1307 00b8 BAC641E1 		strh	ip, [r1, #-106]	@ movhi
 1308 00bc 0800000A 		beq	.L300
 1309 00c0 021084E2 		add	r1, r4, #2
 1310 00c4 100C83E0 		add	r0, r3, r0, lsl ip
 1311 00c8 040051E3 		cmp	r1, #4
 1312 00cc BAC640E1 		strh	ip, [r0, #-106]	@ movhi
 1313 00d0 0300000A 		beq	.L300
 1314              	.L745:
 1315 00d4 423F8DE2 		add	r3, sp, #264
 1316 00d8 0100A0E3 		mov	r0, #1
 1317 00dc 811083E0 		add	r1, r3, r1, lsl #1
 1318 00e0 BA0641E1 		strh	r0, [r1, #-106]	@ movhi
 1319              	.L300:
 1320 00e4 04309AE5 		ldr	r3, [r10, #4]
 1321 00e8 7410AFE6 		sxtb	r1, r4
 1322 00ec 00B093E5 		ldr	fp, [r3]
 1323 00f0 04308DE5 		str	r3, [sp, #4]
 1324 00f4 020051E3 		cmp	r1, #2
 1325 00f8 04005B03 		cmpeq	fp, #4
 1326 00fc 0110A003 		moveq	r1, #1
 1327 0100 0010A013 		movne	r1, #0
 1328 0104 1505000A 		beq	.L1213
 1329              	.L297:
 1330 0108 0810DAE5 		ldrb	r1, [r10, #8]	@ zero_extendqisi2
 1331 010c 030051E3 		cmp	r1, #3
 1332 0110 6F01000A 		beq	.L540
 1333              	.L1182:
 1334 0114 090051E3 		cmp	r1, #9
 1335 0118 0500000A 		beq	.L393
 1336 011c 010051E3 		cmp	r1, #1
 1337 0120 D202000A 		beq	.L307
 1338              	.L1147:
 1339 0124 0100A0E3 		mov	r0, #1
 1340              	.L1088:
 1341 0128 43DF8DE2 		add	sp, sp, #268
 1342              		@ sp needed
 1343 012c 068BBDEC 		vldm	sp!, {d8-d10}
 1344 0130 F08FBDE8 		pop	{r4, r5, r6, r7, r8, r9, r10, fp, pc}
 1345              	.L393:
 1346 0134 100095E5 		ldr	r0, [r5, #16]
 1347 0138 181095E5 		ldr	r1, [r5, #24]
 1348 013c 010050E1 		cmp	r0, r1
 1349 0140 1B04000A 		beq	.L1214
 1350              	.L445:
 1351 0144 446099E5 		ldr	r6, [r9, #68]
 1352 0148 0900A0E1 		mov	r0, r9
 1353 014c 081095E5 		ldr	r1, [r5, #8]
 1354 0150 36FF2FE1 		blx	r6
 1355 0154 04309AE5 		ldr	r3, [r10, #4]
 1356 0158 000057E3 		cmp	r7, #0
 1357 015c 00209AE5 		ldr	r2, [r10]
 1358 0160 18708D05 		streq	r7, [sp, #24]
 1359 0164 20308DE5 		str	r3, [sp, #32]
 1360 0168 006093E5 		ldr	r6, [r3]
 1361 016c 00309715 		ldrne	r3, [r7]
 1362 0170 08208DE5 		str	r2, [sp, #8]
 1363 0174 102095E5 		ldr	r2, [r5, #16]
 1364 0178 18308D15 		strne	r3, [sp, #24]
 1365 017c 043097E5 		ldr	r3, [r7, #4]
 1366 0180 24208DE5 		str	r2, [sp, #36]
 1367 0184 182095E5 		ldr	r2, [r5, #24]
 1368 0188 007093E5 		ldr	r7, [r3]
 1369 018c 04A083E2 		add	r10, r3, #4
 1370 0190 04008DE5 		str	r0, [sp, #4]
 1371 0194 058A95ED 		vldr.32	s16, [r5, #20]
 1372 0198 000057E3 		cmp	r7, #0
 1373 019c 00B098E5 		ldr	fp, [r8]
 1374 01a0 28208DE5 		str	r2, [sp, #40]
 1375 01a4 078AD5ED 		vldr.32	s17, [r5, #28]
 1376 01a8 9E0800DA 		ble	.L771
 1377 01ac 049093E5 		ldr	r9, [r3, #4]
 1378 01b0 0150A0E3 		mov	r5, #1
 1379 01b4 0080A0E3 		mov	r8, #0
 1380 01b8 050000EA 		b	.L495
 1381              	.L1105:
 1382 01bc 0490BAE5 		ldr	r9, [r10, #4]!
 1383 01c0 0000E0E3 		mvn	r0, #0
 1384 01c4 0910A0E1 		mov	r1, r9
 1385 01c8 FEFFFFEB 		bl	__aeabi_uidiv
 1386 01cc 050050E1 		cmp	r0, r5
 1387 01d0 D3FFFF3A 		bcc	.L1147
 1388              	.L495:
 1389 01d4 018088E2 		add	r8, r8, #1
 1390 01d8 990505E0 		mul	r5, r9, r5
 1391 01dc 080057E1 		cmp	r7, r8
 1392 01e0 F5FFFF1A 		bne	.L1105
 1393 01e4 000055E3 		cmp	r5, #0
 1394 01e8 7E00000A 		beq	.L496
 1395              	.L494:
 1396 01ec 04C09DE5 		ldr	ip, [sp, #4]
 1397 01f0 000055E3 		cmp	r5, #0
 1398 01f4 18E09DE5 		ldr	lr, [sp, #24]
 1399 01f8 0510A011 		movne	r1, r5
 1400 01fc 0110A003 		moveq	r1, #1
 1401 0200 0430A003 		moveq	r3, #4
 1402 0204 0531A011 		movne	r3, r5, lsl #2
 1403 0208 03308CE0 		add	r3, ip, r3
 1404 020c 01008EE0 		add	r0, lr, r1
 1405 0210 0E208CE1 		orr	r2, ip, lr
 1406 0214 00005CE1 		cmp	ip, r0
 1407 0218 03005E31 		cmpcc	lr, r3
 1408 021c 5220E3E7 		ubfx	r2, r2, #0, #4
 1409 0220 0130A023 		movcs	r3, #1
 1410 0224 0030A033 		movcc	r3, #0
 1411 0228 0F0055E3 		cmp	r5, #15
 1412 022c 0000A093 		movls	r0, #0
 1413 0230 0100A083 		movhi	r0, #1
 1414 0234 000052E3 		cmp	r2, #0
 1415 0238 0000A013 		movne	r0, #0
 1416 023c 003013E0 		ands	r3, r3, r0
 1417 0240 3208000A 		beq	.L499
 1418 0244 102041E2 		sub	r2, r1, #16
 1419 0248 5020C0F2 		vmov.i32	q9, #0  @ v16qi
 1420 024c 2222A0E1 		lsr	r2, r2, #4
 1421 0250 5000C0F2 		vmov.i32	q8, #0  @ v4si
 1422 0254 40008CE2 		add	r0, ip, #64
 1423 0258 012082E2 		add	r2, r2, #1
 1424 025c 00C0A0E3 		mov	ip, #0
 1425 0260 0232A0E1 		lsl	r3, r2, #4
 1426              	.L501:
 1427 0264 01C08CE2 		add	ip, ip, #1
 1428 0268 DF2A4EF4 		vst1.64	{d18-d19}, [lr:64]
 1429 026c 0C0052E1 		cmp	r2, ip
 1430 0270 10E08EE2 		add	lr, lr, #16
 1431 0274 100B40ED 		vstr	d16, [r0, #-64]
 1432 0278 0E1B40ED 		vstr	d17, [r0, #-56]
 1433 027c 400080E2 		add	r0, r0, #64
 1434 0280 1C0B40ED 		vstr	d16, [r0, #-112]
 1435 0284 1A1B40ED 		vstr	d17, [r0, #-104]
 1436 0288 180B40ED 		vstr	d16, [r0, #-96]
 1437 028c 161B40ED 		vstr	d17, [r0, #-88]
 1438 0290 140B40ED 		vstr	d16, [r0, #-80]
 1439 0294 121B40ED 		vstr	d17, [r0, #-72]
 1440 0298 F1FFFF8A 		bhi	.L501
 1441 029c 010053E1 		cmp	r3, r1
 1442 02a0 5000000A 		beq	.L496
 1443 02a4 04709DE5 		ldr	r7, [sp, #4]
 1444 02a8 01C083E2 		add	ip, r3, #1
 1445 02ac 18E09DE5 		ldr	lr, [sp, #24]
 1446 02b0 05005CE1 		cmp	ip, r5
 1447 02b4 0010A0E3 		mov	r1, #0
 1448 02b8 0212CEE7 		strb	r1, [lr, r2, lsl #4]
 1449 02bc 0720A0E1 		mov	r2, r7
 1450 02c0 031187E7 		str	r1, [r7, r3, lsl #2]
 1451 02c4 4700002A 		bcs	.L496
 1452 02c8 020083E2 		add	r0, r3, #2
 1453 02cc 0C10CEE7 		strb	r1, [lr, ip]
 1454 02d0 050050E1 		cmp	r0, r5
 1455 02d4 0720A0E1 		mov	r2, r7
 1456 02d8 0C1187E7 		str	r1, [r7, ip, lsl #2]
 1457 02dc 4100002A 		bcs	.L496
 1458 02e0 032083E2 		add	r2, r3, #3
 1459 02e4 0010CEE7 		strb	r1, [lr, r0]
 1460 02e8 050052E1 		cmp	r2, r5
 1461 02ec 0EC0A0E1 		mov	ip, lr
 1462 02f0 001187E7 		str	r1, [r7, r0, lsl #2]
 1463 02f4 07E0A0E1 		mov	lr, r7
 1464 02f8 3A00002A 		bcs	.L496
 1465 02fc 040083E2 		add	r0, r3, #4
 1466 0300 0210CCE7 		strb	r1, [ip, r2]
 1467 0304 050050E1 		cmp	r0, r5
 1468 0308 021187E7 		str	r1, [r7, r2, lsl #2]
 1469 030c 3500002A 		bcs	.L496
 1470 0310 052083E2 		add	r2, r3, #5
 1471 0314 0010CCE7 		strb	r1, [ip, r0]
 1472 0318 050052E1 		cmp	r2, r5
 1473 031c 001187E7 		str	r1, [r7, r0, lsl #2]
 1474 0320 3000002A 		bcs	.L496
 1475 0324 060083E2 		add	r0, r3, #6
 1476 0328 0210CCE7 		strb	r1, [ip, r2]
 1477 032c 050050E1 		cmp	r0, r5
 1478 0330 021187E7 		str	r1, [r7, r2, lsl #2]
 1479 0334 2B00002A 		bcs	.L496
 1480 0338 072083E2 		add	r2, r3, #7
 1481 033c 0010CCE7 		strb	r1, [ip, r0]
 1482 0340 050052E1 		cmp	r2, r5
 1483 0344 001187E7 		str	r1, [r7, r0, lsl #2]
 1484 0348 2600002A 		bcs	.L496
 1485 034c 080083E2 		add	r0, r3, #8
 1486 0350 0210CCE7 		strb	r1, [ip, r2]
 1487 0354 050050E1 		cmp	r0, r5
 1488 0358 021187E7 		str	r1, [r7, r2, lsl #2]
 1489 035c 2100002A 		bcs	.L496
 1490 0360 091083E2 		add	r1, r3, #9
 1491 0364 0020A0E3 		mov	r2, #0
 1492 0368 050051E1 		cmp	r1, r5
 1493 036c 0020CCE7 		strb	r2, [ip, r0]
 1494 0370 002187E7 		str	r2, [r7, r0, lsl #2]
 1495 0374 1B00002A 		bcs	.L496
 1496 0378 0A0083E2 		add	r0, r3, #10
 1497 037c 0120CCE7 		strb	r2, [ip, r1]
 1498 0380 050050E1 		cmp	r0, r5
 1499 0384 012187E7 		str	r2, [r7, r1, lsl #2]
 1500 0388 1600002A 		bcs	.L496
 1501 038c 0B1083E2 		add	r1, r3, #11
 1502 0390 0020CCE7 		strb	r2, [ip, r0]
 1503 0394 050051E1 		cmp	r1, r5
 1504 0398 002187E7 		str	r2, [r7, r0, lsl #2]
 1505 039c 1100002A 		bcs	.L496
 1506 03a0 0C0083E2 		add	r0, r3, #12
 1507 03a4 0120CCE7 		strb	r2, [ip, r1]
 1508 03a8 050050E1 		cmp	r0, r5
 1509 03ac 012187E7 		str	r2, [r7, r1, lsl #2]
 1510 03b0 0C00002A 		bcs	.L496
 1511 03b4 0D1083E2 		add	r1, r3, #13
 1512 03b8 0020CCE7 		strb	r2, [ip, r0]
 1513 03bc 050051E1 		cmp	r1, r5
 1514 03c0 002187E7 		str	r2, [r7, r0, lsl #2]
 1515 03c4 0700002A 		bcs	.L496
 1516 03c8 0E3083E2 		add	r3, r3, #14
 1517 03cc 0120CCE7 		strb	r2, [ip, r1]
 1518 03d0 050053E1 		cmp	r3, r5
 1519 03d4 012187E7 		str	r2, [r7, r1, lsl #2]
 1520 03d8 18109D35 		ldrcc	r1, [sp, #24]
 1521 03dc 0320C137 		strbcc	r2, [r1, r3]
 1522 03e0 04109D35 		ldrcc	r1, [sp, #4]
 1523 03e4 03218137 		strcc	r2, [r1, r3, lsl #2]
 1524              	.L496:
 1525 03e8 20309DE5 		ldr	r3, [sp, #32]
 1526 03ec 000056E3 		cmp	r6, #0
 1527 03f0 043083E2 		add	r3, r3, #4
 1528 03f4 34308DE5 		str	r3, [sp, #52]
 1529 03f8 0606001A 		bne	.L1215
 1530 03fc 08309DE5 		ldr	r3, [sp, #8]
 1531 0400 0140A0E3 		mov	r4, #1
 1532 0404 04109DE5 		ldr	r1, [sp, #4]
 1533 0408 D020D3E1 		ldrsb	r2, [r3]
 1534 040c 003091E5 		ldr	r3, [r1]
 1535 0410 023083E0 		add	r3, r3, r2
 1536 0414 003081E5 		str	r3, [r1]
 1537              	.L709:
 1538 0418 289A88EE 		vdiv.f32	s18, s16, s17
 1539 041c 000055E3 		cmp	r5, #0
 1540 0420 24309DE5 		ldr	r3, [sp, #36]
 1541 0424 003063E2 		rsb	r3, r3, #0
 1542 0428 103A08EE 		vmov	s16, r3	@ int
 1543 042c C88AB8EE 		vcvt.f32.s32	s16, s16
 1544 0430 098A28EE 		vmul.f32	s16, s16, s18
 1545 0434 9E00000A 		beq	.L595
 1546 0438 904A07EE 		vmov	s15, r4	@ int
 1547 043c 080055E3 		cmp	r5, #8
 1548 0440 678AF8EE 		vcvt.f32.u32	s17, s15
 1549 0444 0A7ADDED 		vldr.32	s15, [sp, #40]	@ int
 1550 0448 E79AF8EE 		vcvt.f32.s32	s19, s15
 1551 044c 0D0A009A 		bls	.L777
 1552 0450 04309DE5 		ldr	r3, [sp, #4]
 1553 0454 094045E2 		sub	r4, r5, #9
 1554 0458 0740C4E3 		bic	r4, r4, #7
 1555 045c BEAADFED 		vldr.32	s21, .L1271
 1556 0460 086084E2 		add	r6, r4, #8
 1557 0464 BDAA9FED 		vldr.32	s20, .L1271+4
 1558 0468 104083E2 		add	r4, r3, #16
 1559 046c 18309DE5 		ldr	r3, [sp, #24]
 1560 0470 0070A0E3 		mov	r7, #0
 1561 0474 048083E2 		add	r8, r3, #4
 1562              	.L538:
 1563 0478 047A54ED 		vldr.32	s15, [r4, #-16]	@ int
 1564 047c 087087E2 		add	r7, r7, #8
 1565 0480 480AB0EE 		vmov.f32	s0, s16
 1566 0484 00F0D4F5 		pld	[r4]
 1567 0488 204084E2 		add	r4, r4, #32
 1568 048c 00F0D8F5 		pld	[r8]
 1569 0490 088088E2 		add	r8, r8, #8
 1570 0494 E77AF8EE 		vcvt.f32.s32	s15, s15
 1571 0498 A87A87EE 		vdiv.f32	s14, s15, s17
 1572 049c 090A07EE 		vmla.f32	s0, s14, s18
 1573 04a0 FEFFFFEB 		bl	roundf
 1574 04a4 6A0AF0EE 		vmov.f32	s1, s21
 1575 04a8 290A30EE 		vadd.f32	s0, s0, s19
 1576 04ac FEFFFFEB 		bl	fminf
 1577 04b0 4A0AF0EE 		vmov.f32	s1, s20
 1578 04b4 FEFFFFEB 		bl	fmaxf
 1579 04b8 C07AFDEE 		vcvt.s32.f32	s15, s0
 1580 04bc 480AB0EE 		vmov.f32	s0, s16
 1581 04c0 903A17EE 		vmov	r3, s15	@ int
 1582 04c4 0C3048E5 		strb	r3, [r8, #-12]
 1583 04c8 0B7A54ED 		vldr.32	s15, [r4, #-44]	@ int
 1584 04cc E77AF8EE 		vcvt.f32.s32	s15, s15
 1585 04d0 A87A87EE 		vdiv.f32	s14, s15, s17
 1586 04d4 090A07EE 		vmla.f32	s0, s14, s18
 1587 04d8 FEFFFFEB 		bl	roundf
 1588 04dc 6A0AF0EE 		vmov.f32	s1, s21
 1589 04e0 800A39EE 		vadd.f32	s0, s19, s0
 1590 04e4 FEFFFFEB 		bl	fminf
 1591 04e8 4A0AF0EE 		vmov.f32	s1, s20
 1592 04ec FEFFFFEB 		bl	fmaxf
 1593 04f0 C07AFDEE 		vcvt.s32.f32	s15, s0
 1594 04f4 480AB0EE 		vmov.f32	s0, s16
 1595 04f8 903A17EE 		vmov	r3, s15	@ int
 1596 04fc 0B3048E5 		strb	r3, [r8, #-11]
 1597 0500 0A7A54ED 		vldr.32	s15, [r4, #-40]	@ int
 1598 0504 E77AF8EE 		vcvt.f32.s32	s15, s15
 1599 0508 A87A87EE 		vdiv.f32	s14, s15, s17
 1600 050c 090A07EE 		vmla.f32	s0, s14, s18
 1601 0510 FEFFFFEB 		bl	roundf
 1602 0514 6A0AF0EE 		vmov.f32	s1, s21
 1603 0518 800A39EE 		vadd.f32	s0, s19, s0
 1604 051c FEFFFFEB 		bl	fminf
 1605 0520 4A0AF0EE 		vmov.f32	s1, s20
 1606 0524 FEFFFFEB 		bl	fmaxf
 1607 0528 C07AFDEE 		vcvt.s32.f32	s15, s0
 1608 052c 480AB0EE 		vmov.f32	s0, s16
 1609 0530 903A17EE 		vmov	r3, s15	@ int
 1610 0534 0A3048E5 		strb	r3, [r8, #-10]
 1611 0538 097A54ED 		vldr.32	s15, [r4, #-36]	@ int
 1612 053c E77AF8EE 		vcvt.f32.s32	s15, s15
 1613 0540 A87A87EE 		vdiv.f32	s14, s15, s17
 1614 0544 090A07EE 		vmla.f32	s0, s14, s18
 1615 0548 FEFFFFEB 		bl	roundf
 1616 054c 6A0AF0EE 		vmov.f32	s1, s21
 1617 0550 800A39EE 		vadd.f32	s0, s19, s0
 1618 0554 FEFFFFEB 		bl	fminf
 1619 0558 4A0AF0EE 		vmov.f32	s1, s20
 1620 055c FEFFFFEB 		bl	fmaxf
 1621 0560 C07AFDEE 		vcvt.s32.f32	s15, s0
 1622 0564 480AB0EE 		vmov.f32	s0, s16
 1623 0568 903A17EE 		vmov	r3, s15	@ int
 1624 056c 093048E5 		strb	r3, [r8, #-9]
 1625 0570 087A54ED 		vldr.32	s15, [r4, #-32]	@ int
 1626 0574 E77AF8EE 		vcvt.f32.s32	s15, s15
 1627 0578 A87A87EE 		vdiv.f32	s14, s15, s17
 1628 057c 090A07EE 		vmla.f32	s0, s14, s18
 1629 0580 FEFFFFEB 		bl	roundf
 1630 0584 6A0AF0EE 		vmov.f32	s1, s21
 1631 0588 800A39EE 		vadd.f32	s0, s19, s0
 1632 058c FEFFFFEB 		bl	fminf
 1633 0590 4A0AF0EE 		vmov.f32	s1, s20
 1634 0594 FEFFFFEB 		bl	fmaxf
 1635 0598 C07AFDEE 		vcvt.s32.f32	s15, s0
 1636 059c 480AB0EE 		vmov.f32	s0, s16
 1637 05a0 903A17EE 		vmov	r3, s15	@ int
 1638 05a4 083048E5 		strb	r3, [r8, #-8]
 1639 05a8 077A54ED 		vldr.32	s15, [r4, #-28]	@ int
 1640 05ac E77AF8EE 		vcvt.f32.s32	s15, s15
 1641 05b0 A87A87EE 		vdiv.f32	s14, s15, s17
 1642 05b4 090A07EE 		vmla.f32	s0, s14, s18
 1643 05b8 FEFFFFEB 		bl	roundf
 1644 05bc 6A0AF0EE 		vmov.f32	s1, s21
 1645 05c0 800A39EE 		vadd.f32	s0, s19, s0
 1646 05c4 FEFFFFEB 		bl	fminf
 1647 05c8 4A0AF0EE 		vmov.f32	s1, s20
 1648 05cc FEFFFFEB 		bl	fmaxf
 1649 05d0 C07AFDEE 		vcvt.s32.f32	s15, s0
 1650 05d4 480AB0EE 		vmov.f32	s0, s16
 1651 05d8 903A17EE 		vmov	r3, s15	@ int
 1652 05dc 073048E5 		strb	r3, [r8, #-7]
 1653 05e0 067A54ED 		vldr.32	s15, [r4, #-24]	@ int
 1654 05e4 E77AF8EE 		vcvt.f32.s32	s15, s15
 1655 05e8 A87A87EE 		vdiv.f32	s14, s15, s17
 1656 05ec 090A07EE 		vmla.f32	s0, s14, s18
 1657 05f0 FEFFFFEB 		bl	roundf
 1658 05f4 6A0AF0EE 		vmov.f32	s1, s21
 1659 05f8 800A39EE 		vadd.f32	s0, s19, s0
 1660 05fc FEFFFFEB 		bl	fminf
 1661 0600 4A0AF0EE 		vmov.f32	s1, s20
 1662 0604 FEFFFFEB 		bl	fmaxf
 1663 0608 C07AFDEE 		vcvt.s32.f32	s15, s0
 1664 060c 480AB0EE 		vmov.f32	s0, s16
 1665 0610 903A17EE 		vmov	r3, s15	@ int
 1666 0614 063048E5 		strb	r3, [r8, #-6]
 1667 0618 057A54ED 		vldr.32	s15, [r4, #-20]	@ int
 1668 061c E77AF8EE 		vcvt.f32.s32	s15, s15
 1669 0620 A87A87EE 		vdiv.f32	s14, s15, s17
 1670 0624 090A07EE 		vmla.f32	s0, s14, s18
 1671 0628 FEFFFFEB 		bl	roundf
 1672 062c 6A0AF0EE 		vmov.f32	s1, s21
 1673 0630 800A39EE 		vadd.f32	s0, s19, s0
 1674 0634 FEFFFFEB 		bl	fminf
 1675 0638 4A0AF0EE 		vmov.f32	s1, s20
 1676 063c FEFFFFEB 		bl	fmaxf
 1677 0640 C07AFDEE 		vcvt.s32.f32	s15, s0
 1678 0644 060057E1 		cmp	r7, r6
 1679 0648 903A17EE 		vmov	r3, s15	@ int
 1680 064c 053048E5 		strb	r3, [r8, #-5]
 1681 0650 88FFFF1A 		bne	.L538
 1682              	.L537:
 1683 0654 04309DE5 		ldr	r3, [sp, #4]
 1684 0658 3FAADFED 		vldr.32	s21, .L1271
 1685 065c 3FAA9FED 		vldr.32	s20, .L1271+4
 1686 0660 067183E0 		add	r7, r3, r6, lsl #2
 1687 0664 18309DE5 		ldr	r3, [sp, #24]
 1688 0668 066083E0 		add	r6, r3, r6
 1689 066c 0340A0E1 		mov	r4, r3
 1690              	.L539:
 1691 0670 017AF7EC 		vldmia.32	r7!, {s15}	@ int
 1692 0674 480AB0EE 		vmov.f32	s0, s16
 1693 0678 E77AF8EE 		vcvt.f32.s32	s15, s15
 1694 067c A87A87EE 		vdiv.f32	s14, s15, s17
 1695 0680 090A07EE 		vmla.f32	s0, s14, s18
 1696 0684 FEFFFFEB 		bl	roundf
 1697 0688 6A0AF0EE 		vmov.f32	s1, s21
 1698 068c 800A39EE 		vadd.f32	s0, s19, s0
 1699 0690 FEFFFFEB 		bl	fminf
 1700 0694 4A0AF0EE 		vmov.f32	s1, s20
 1701 0698 FEFFFFEB 		bl	fmaxf
 1702 069c C07AFDEE 		vcvt.s32.f32	s15, s0
 1703 06a0 903A17EE 		vmov	r3, s15	@ int
 1704 06a4 0130C6E4 		strb	r3, [r6], #1
 1705 06a8 043046E0 		sub	r3, r6, r4
 1706 06ac 030055E1 		cmp	r5, r3
 1707 06b0 EEFFFF8A 		bhi	.L539
 1708              	.L595:
 1709 06b4 0000A0E3 		mov	r0, #0
 1710 06b8 9AFEFFEA 		b	.L1088
 1711              	.L299:
 1712 06bc 0810DAE5 		ldrb	r1, [r10, #8]	@ zero_extendqisi2
 1713 06c0 04309AE5 		ldr	r3, [r10, #4]
 1714 06c4 030051E3 		cmp	r1, #3
 1715 06c8 04308DE5 		str	r3, [sp, #4]
 1716 06cc 00B093E5 		ldr	fp, [r3]
 1717 06d0 8FFEFF1A 		bne	.L1182
 1718              	.L540:
 1719 06d4 100095E5 		ldr	r0, [r5, #16]
 1720 06d8 181095E5 		ldr	r1, [r5, #24]
 1721 06dc 010050E1 		cmp	r0, r1
 1722 06e0 C601000A 		beq	.L1216
 1723              	.L596:
 1724 06e4 446099E5 		ldr	r6, [r9, #68]
 1725 06e8 0900A0E1 		mov	r0, r9
 1726 06ec 081095E5 		ldr	r1, [r5, #8]
 1727 06f0 36FF2FE1 		blx	r6
 1728 06f4 04309AE5 		ldr	r3, [r10, #4]
 1729 06f8 000057E3 		cmp	r7, #0
 1730 06fc 00209AE5 		ldr	r2, [r10]
 1731 0700 18708D05 		streq	r7, [sp, #24]
 1732 0704 20308DE5 		str	r3, [sp, #32]
 1733 0708 006093E5 		ldr	r6, [r3]
 1734 070c 00309715 		ldrne	r3, [r7]
 1735 0710 08208DE5 		str	r2, [sp, #8]
 1736 0714 102095E5 		ldr	r2, [r5, #16]
 1737 0718 18308D15 		strne	r3, [sp, #24]
 1738 071c 043097E5 		ldr	r3, [r7, #4]
 1739 0720 24208DE5 		str	r2, [sp, #36]
 1740 0724 182095E5 		ldr	r2, [r5, #24]
 1741 0728 007093E5 		ldr	r7, [r3]
 1742 072c 04A083E2 		add	r10, r3, #4
 1743 0730 04008DE5 		str	r0, [sp, #4]
 1744 0734 058A95ED 		vldr.32	s16, [r5, #20]
 1745 0738 000057E3 		cmp	r7, #0
 1746 073c 00B098E5 		ldr	fp, [r8]
 1747 0740 28208DE5 		str	r2, [sp, #40]
 1748 0744 078AD5ED 		vldr.32	s17, [r5, #28]
 1749 0748 380700DA 		ble	.L792
 1750 074c 049093E5 		ldr	r9, [r3, #4]
 1751 0750 0150A0E3 		mov	r5, #1
 1752 0754 0080A0E3 		mov	r8, #0
 1753 0758 090000EA 		b	.L646
 1754              	.L1272:
 1755              		.align	2
 1756              	.L1271:
 1757 075c 0000FE42 		.word	1123942400
 1758 0760 000000C3 		.word	-1023410176
 1759 0764 00007F43 		.word	1132396544
 1760 0768 00000000 		.word	0
 1761              	.L1123:
 1762 076c 0490BAE5 		ldr	r9, [r10, #4]!
 1763 0770 0000E0E3 		mvn	r0, #0
 1764 0774 0910A0E1 		mov	r1, r9
 1765 0778 FEFFFFEB 		bl	__aeabi_uidiv
 1766 077c 050050E1 		cmp	r0, r5
 1767 0780 67FEFF3A 		bcc	.L1147
 1768              	.L646:
 1769 0784 018088E2 		add	r8, r8, #1
 1770 0788 990505E0 		mul	r5, r9, r5
 1771 078c 080057E1 		cmp	r7, r8
 1772 0790 F5FFFF1A 		bne	.L1123
 1773 0794 000055E3 		cmp	r5, #0
 1774 0798 7F00000A 		beq	.L647
 1775              	.L645:
 1776 079c 18C09DE5 		ldr	ip, [sp, #24]
 1777 07a0 000055E3 		cmp	r5, #0
 1778 07a4 04E09DE5 		ldr	lr, [sp, #4]
 1779 07a8 0510A011 		movne	r1, r5
 1780 07ac 0110A003 		moveq	r1, #1
 1781 07b0 0430A003 		moveq	r3, #4
 1782 07b4 0531A011 		movne	r3, r5, lsl #2
 1783 07b8 01008CE0 		add	r0, ip, r1
 1784 07bc 03308EE0 		add	r3, lr, r3
 1785 07c0 0E208CE1 		orr	r2, ip, lr
 1786 07c4 00005EE1 		cmp	lr, r0
 1787 07c8 03005C31 		cmpcc	ip, r3
 1788 07cc 5220E3E7 		ubfx	r2, r2, #0, #4
 1789 07d0 0130A023 		movcs	r3, #1
 1790 07d4 0030A033 		movcc	r3, #0
 1791 07d8 0F0055E3 		cmp	r5, #15
 1792 07dc 0000A093 		movls	r0, #0
 1793 07e0 0100A083 		movhi	r0, #1
 1794 07e4 000052E3 		cmp	r2, #0
 1795 07e8 0000A013 		movne	r0, #0
 1796 07ec 003013E0 		ands	r3, r3, r0
 1797 07f0 9C06000A 		beq	.L650
 1798 07f4 102041E2 		sub	r2, r1, #16
 1799 07f8 5020C0F2 		vmov.i32	q9, #0  @ v16qi
 1800 07fc 2222A0E1 		lsr	r2, r2, #4
 1801 0800 5000C0F2 		vmov.i32	q8, #0  @ v4si
 1802 0804 40008EE2 		add	r0, lr, #64
 1803 0808 012082E2 		add	r2, r2, #1
 1804 080c 0CE0A0E1 		mov	lr, ip
 1805 0810 0232A0E1 		lsl	r3, r2, #4
 1806 0814 00C0A0E3 		mov	ip, #0
 1807              	.L652:
 1808 0818 01C08CE2 		add	ip, ip, #1
 1809 081c DF2A4EF4 		vst1.64	{d18-d19}, [lr:64]
 1810 0820 0C0052E1 		cmp	r2, ip
 1811 0824 10E08EE2 		add	lr, lr, #16
 1812 0828 100B40ED 		vstr	d16, [r0, #-64]
 1813 082c 0E1B40ED 		vstr	d17, [r0, #-56]
 1814 0830 400080E2 		add	r0, r0, #64
 1815 0834 1C0B40ED 		vstr	d16, [r0, #-112]
 1816 0838 1A1B40ED 		vstr	d17, [r0, #-104]
 1817 083c 180B40ED 		vstr	d16, [r0, #-96]
 1818 0840 161B40ED 		vstr	d17, [r0, #-88]
 1819 0844 140B40ED 		vstr	d16, [r0, #-80]
 1820 0848 121B40ED 		vstr	d17, [r0, #-72]
 1821 084c F1FFFF8A 		bhi	.L652
 1822 0850 010053E1 		cmp	r3, r1
 1823 0854 5000000A 		beq	.L647
 1824 0858 04709DE5 		ldr	r7, [sp, #4]
 1825 085c 01C083E2 		add	ip, r3, #1
 1826 0860 18E09DE5 		ldr	lr, [sp, #24]
 1827 0864 0C0055E1 		cmp	r5, ip
 1828 0868 0010A0E3 		mov	r1, #0
 1829 086c 0212CEE7 		strb	r1, [lr, r2, lsl #4]
 1830 0870 0720A0E1 		mov	r2, r7
 1831 0874 031187E7 		str	r1, [r7, r3, lsl #2]
 1832 0878 4700009A 		bls	.L647
 1833 087c 020083E2 		add	r0, r3, #2
 1834 0880 0C10CEE7 		strb	r1, [lr, ip]
 1835 0884 000055E1 		cmp	r5, r0
 1836 0888 0720A0E1 		mov	r2, r7
 1837 088c 0C1187E7 		str	r1, [r7, ip, lsl #2]
 1838 0890 4100009A 		bls	.L647
 1839 0894 032083E2 		add	r2, r3, #3
 1840 0898 0010CEE7 		strb	r1, [lr, r0]
 1841 089c 020055E1 		cmp	r5, r2
 1842 08a0 0EC0A0E1 		mov	ip, lr
 1843 08a4 001187E7 		str	r1, [r7, r0, lsl #2]
 1844 08a8 07E0A0E1 		mov	lr, r7
 1845 08ac 3A00009A 		bls	.L647
 1846 08b0 040083E2 		add	r0, r3, #4
 1847 08b4 0210CCE7 		strb	r1, [ip, r2]
 1848 08b8 000055E1 		cmp	r5, r0
 1849 08bc 021187E7 		str	r1, [r7, r2, lsl #2]
 1850 08c0 3500009A 		bls	.L647
 1851 08c4 052083E2 		add	r2, r3, #5
 1852 08c8 0010CCE7 		strb	r1, [ip, r0]
 1853 08cc 020055E1 		cmp	r5, r2
 1854 08d0 001187E7 		str	r1, [r7, r0, lsl #2]
 1855 08d4 3000009A 		bls	.L647
 1856 08d8 060083E2 		add	r0, r3, #6
 1857 08dc 0210CCE7 		strb	r1, [ip, r2]
 1858 08e0 000055E1 		cmp	r5, r0
 1859 08e4 021187E7 		str	r1, [r7, r2, lsl #2]
 1860 08e8 2B00009A 		bls	.L647
 1861 08ec 072083E2 		add	r2, r3, #7
 1862 08f0 0010CCE7 		strb	r1, [ip, r0]
 1863 08f4 020055E1 		cmp	r5, r2
 1864 08f8 001187E7 		str	r1, [r7, r0, lsl #2]
 1865 08fc 2600009A 		bls	.L647
 1866 0900 080083E2 		add	r0, r3, #8
 1867 0904 0210CCE7 		strb	r1, [ip, r2]
 1868 0908 000055E1 		cmp	r5, r0
 1869 090c 021187E7 		str	r1, [r7, r2, lsl #2]
 1870 0910 2100009A 		bls	.L647
 1871 0914 091083E2 		add	r1, r3, #9
 1872 0918 0020A0E3 		mov	r2, #0
 1873 091c 010055E1 		cmp	r5, r1
 1874 0920 0020CCE7 		strb	r2, [ip, r0]
 1875 0924 002187E7 		str	r2, [r7, r0, lsl #2]
 1876 0928 1B00009A 		bls	.L647
 1877 092c 0A0083E2 		add	r0, r3, #10
 1878 0930 0120CCE7 		strb	r2, [ip, r1]
 1879 0934 000055E1 		cmp	r5, r0
 1880 0938 012187E7 		str	r2, [r7, r1, lsl #2]
 1881 093c 1600009A 		bls	.L647
 1882 0940 0B1083E2 		add	r1, r3, #11
 1883 0944 0020CCE7 		strb	r2, [ip, r0]
 1884 0948 010055E1 		cmp	r5, r1
 1885 094c 002187E7 		str	r2, [r7, r0, lsl #2]
 1886 0950 1100009A 		bls	.L647
 1887 0954 0C0083E2 		add	r0, r3, #12
 1888 0958 0120CCE7 		strb	r2, [ip, r1]
 1889 095c 000055E1 		cmp	r5, r0
 1890 0960 012187E7 		str	r2, [r7, r1, lsl #2]
 1891 0964 0C00009A 		bls	.L647
 1892 0968 0D1083E2 		add	r1, r3, #13
 1893 096c 0020CCE7 		strb	r2, [ip, r0]
 1894 0970 010055E1 		cmp	r5, r1
 1895 0974 002187E7 		str	r2, [r7, r0, lsl #2]
 1896 0978 0700009A 		bls	.L647
 1897 097c 0E3083E2 		add	r3, r3, #14
 1898 0980 0120CCE7 		strb	r2, [ip, r1]
 1899 0984 030055E1 		cmp	r5, r3
 1900 0988 012187E7 		str	r2, [r7, r1, lsl #2]
 1901 098c 18109D85 		ldrhi	r1, [sp, #24]
 1902 0990 0320C187 		strbhi	r2, [r1, r3]
 1903 0994 04109D85 		ldrhi	r1, [sp, #4]
 1904 0998 03218187 		strhi	r2, [r1, r3, lsl #2]
 1905              	.L647:
 1906 099c 20309DE5 		ldr	r3, [sp, #32]
 1907 09a0 000056E3 		cmp	r6, #0
 1908 09a4 043083E2 		add	r3, r3, #4
 1909 09a8 34308DE5 		str	r3, [sp, #52]
 1910 09ac 6005001A 		bne	.L1217
 1911 09b0 08309DE5 		ldr	r3, [sp, #8]
 1912 09b4 0140A0E3 		mov	r4, #1
 1913 09b8 04109DE5 		ldr	r1, [sp, #4]
 1914 09bc 0020D3E5 		ldrb	r2, [r3]	@ zero_extendqisi2
 1915 09c0 003091E5 		ldr	r3, [r1]
 1916 09c4 023083E0 		add	r3, r3, r2
 1917 09c8 003081E5 		str	r3, [r1]
 1918              	.L721:
 1919 09cc 289A88EE 		vdiv.f32	s18, s16, s17
 1920 09d0 000055E3 		cmp	r5, #0
 1921 09d4 24309DE5 		ldr	r3, [sp, #36]
 1922 09d8 003063E2 		rsb	r3, r3, #0
 1923 09dc 103A08EE 		vmov	s16, r3	@ int
 1924 09e0 C88AB8EE 		vcvt.f32.s32	s16, s16
 1925 09e4 098A28EE 		vmul.f32	s16, s16, s18
 1926 09e8 31FFFF0A 		beq	.L595
 1927 09ec 0A7ADDED 		vldr.32	s15, [sp, #40]	@ int
 1928 09f0 080055E3 		cmp	r5, #8
 1929 09f4 E78AF8EE 		vcvt.f32.s32	s17, s15
 1930 09f8 904A07EE 		vmov	s15, r4	@ int
 1931 09fc 679AF8EE 		vcvt.f32.u32	s19, s15
 1932 0a00 A608009A 		bls	.L798
 1933 0a04 04309DE5 		ldr	r3, [sp, #4]
 1934 0a08 094045E2 		sub	r4, r5, #9
 1935 0a0c ACAA5FED 		vldr.32	s21, .L1271+8
 1936 0a10 0740C4E3 		bic	r4, r4, #7
 1937 0a14 ADAA1FED 		vldr.32	s20, .L1271+12
 1938 0a18 084084E2 		add	r4, r4, #8
 1939 0a1c 107083E2 		add	r7, r3, #16
 1940 0a20 18309DE5 		ldr	r3, [sp, #24]
 1941 0a24 0080A0E3 		mov	r8, #0
 1942 0a28 046083E2 		add	r6, r3, #4
 1943              	.L687:
 1944 0a2c 047A57ED 		vldr.32	s15, [r7, #-16]	@ int
 1945 0a30 088088E2 		add	r8, r8, #8
 1946 0a34 480AB0EE 		vmov.f32	s0, s16
 1947 0a38 00F0D7F5 		pld	[r7]
 1948 0a3c 207087E2 		add	r7, r7, #32
 1949 0a40 00F0D6F5 		pld	[r6]
 1950 0a44 086086E2 		add	r6, r6, #8
 1951 0a48 677AF8EE 		vcvt.f32.u32	s15, s15
 1952 0a4c A97A87EE 		vdiv.f32	s14, s15, s19
 1953 0a50 090A07EE 		vmla.f32	s0, s14, s18
 1954 0a54 FEFFFFEB 		bl	roundf
 1955 0a58 6A0AF0EE 		vmov.f32	s1, s21
 1956 0a5c 800A38EE 		vadd.f32	s0, s17, s0
 1957 0a60 FEFFFFEB 		bl	fminf
 1958 0a64 4A0AF0EE 		vmov.f32	s1, s20
 1959 0a68 FEFFFFEB 		bl	fmaxf
 1960 0a6c C07AFCEE 		vcvt.u32.f32	s15, s0
 1961 0a70 480AB0EE 		vmov.f32	s0, s16
 1962 0a74 903A17EE 		vmov	r3, s15	@ int
 1963 0a78 0C3046E5 		strb	r3, [r6, #-12]
 1964 0a7c 0B7A57ED 		vldr.32	s15, [r7, #-44]	@ int
 1965 0a80 677AF8EE 		vcvt.f32.u32	s15, s15
 1966 0a84 A97A87EE 		vdiv.f32	s14, s15, s19
 1967 0a88 090A07EE 		vmla.f32	s0, s14, s18
 1968 0a8c FEFFFFEB 		bl	roundf
 1969 0a90 6A0AF0EE 		vmov.f32	s1, s21
 1970 0a94 800A38EE 		vadd.f32	s0, s17, s0
 1971 0a98 FEFFFFEB 		bl	fminf
 1972 0a9c 4A0AF0EE 		vmov.f32	s1, s20
 1973 0aa0 FEFFFFEB 		bl	fmaxf
 1974 0aa4 C07AFCEE 		vcvt.u32.f32	s15, s0
 1975 0aa8 480AB0EE 		vmov.f32	s0, s16
 1976 0aac 903A17EE 		vmov	r3, s15	@ int
 1977 0ab0 0B3046E5 		strb	r3, [r6, #-11]
 1978 0ab4 0A7A57ED 		vldr.32	s15, [r7, #-40]	@ int
 1979 0ab8 677AF8EE 		vcvt.f32.u32	s15, s15
 1980 0abc A97A87EE 		vdiv.f32	s14, s15, s19
 1981 0ac0 090A07EE 		vmla.f32	s0, s14, s18
 1982 0ac4 FEFFFFEB 		bl	roundf
 1983 0ac8 6A0AF0EE 		vmov.f32	s1, s21
 1984 0acc 800A38EE 		vadd.f32	s0, s17, s0
 1985 0ad0 FEFFFFEB 		bl	fminf
 1986 0ad4 4A0AF0EE 		vmov.f32	s1, s20
 1987 0ad8 FEFFFFEB 		bl	fmaxf
 1988 0adc C07AFCEE 		vcvt.u32.f32	s15, s0
 1989 0ae0 480AB0EE 		vmov.f32	s0, s16
 1990 0ae4 903A17EE 		vmov	r3, s15	@ int
 1991 0ae8 0A3046E5 		strb	r3, [r6, #-10]
 1992 0aec 097A57ED 		vldr.32	s15, [r7, #-36]	@ int
 1993 0af0 677AF8EE 		vcvt.f32.u32	s15, s15
 1994 0af4 A97A87EE 		vdiv.f32	s14, s15, s19
 1995 0af8 090A07EE 		vmla.f32	s0, s14, s18
 1996 0afc FEFFFFEB 		bl	roundf
 1997 0b00 6A0AF0EE 		vmov.f32	s1, s21
 1998 0b04 800A38EE 		vadd.f32	s0, s17, s0
 1999 0b08 FEFFFFEB 		bl	fminf
 2000 0b0c 4A0AF0EE 		vmov.f32	s1, s20
 2001 0b10 FEFFFFEB 		bl	fmaxf
 2002 0b14 C07AFCEE 		vcvt.u32.f32	s15, s0
 2003 0b18 480AB0EE 		vmov.f32	s0, s16
 2004 0b1c 903A17EE 		vmov	r3, s15	@ int
 2005 0b20 093046E5 		strb	r3, [r6, #-9]
 2006 0b24 087A57ED 		vldr.32	s15, [r7, #-32]	@ int
 2007 0b28 677AF8EE 		vcvt.f32.u32	s15, s15
 2008 0b2c A97A87EE 		vdiv.f32	s14, s15, s19
 2009 0b30 090A07EE 		vmla.f32	s0, s14, s18
 2010 0b34 FEFFFFEB 		bl	roundf
 2011 0b38 6A0AF0EE 		vmov.f32	s1, s21
 2012 0b3c 800A38EE 		vadd.f32	s0, s17, s0
 2013 0b40 FEFFFFEB 		bl	fminf
 2014 0b44 4A0AF0EE 		vmov.f32	s1, s20
 2015 0b48 FEFFFFEB 		bl	fmaxf
 2016 0b4c C07AFCEE 		vcvt.u32.f32	s15, s0
 2017 0b50 480AB0EE 		vmov.f32	s0, s16
 2018 0b54 903A17EE 		vmov	r3, s15	@ int
 2019 0b58 083046E5 		strb	r3, [r6, #-8]
 2020 0b5c 077A57ED 		vldr.32	s15, [r7, #-28]	@ int
 2021 0b60 677AF8EE 		vcvt.f32.u32	s15, s15
 2022 0b64 A97A87EE 		vdiv.f32	s14, s15, s19
 2023 0b68 090A07EE 		vmla.f32	s0, s14, s18
 2024 0b6c FEFFFFEB 		bl	roundf
 2025 0b70 6A0AF0EE 		vmov.f32	s1, s21
 2026 0b74 800A38EE 		vadd.f32	s0, s17, s0
 2027 0b78 FEFFFFEB 		bl	fminf
 2028 0b7c 4A0AF0EE 		vmov.f32	s1, s20
 2029 0b80 FEFFFFEB 		bl	fmaxf
 2030 0b84 C07AFCEE 		vcvt.u32.f32	s15, s0
 2031 0b88 480AB0EE 		vmov.f32	s0, s16
 2032 0b8c 903A17EE 		vmov	r3, s15	@ int
 2033 0b90 073046E5 		strb	r3, [r6, #-7]
 2034 0b94 067A57ED 		vldr.32	s15, [r7, #-24]	@ int
 2035 0b98 677AF8EE 		vcvt.f32.u32	s15, s15
 2036 0b9c A97A87EE 		vdiv.f32	s14, s15, s19
 2037 0ba0 090A07EE 		vmla.f32	s0, s14, s18
 2038 0ba4 FEFFFFEB 		bl	roundf
 2039 0ba8 6A0AF0EE 		vmov.f32	s1, s21
 2040 0bac 800A38EE 		vadd.f32	s0, s17, s0
 2041 0bb0 FEFFFFEB 		bl	fminf
 2042 0bb4 4A0AF0EE 		vmov.f32	s1, s20
 2043 0bb8 FEFFFFEB 		bl	fmaxf
 2044 0bbc C07AFCEE 		vcvt.u32.f32	s15, s0
 2045 0bc0 480AB0EE 		vmov.f32	s0, s16
 2046 0bc4 903A17EE 		vmov	r3, s15	@ int
 2047 0bc8 063046E5 		strb	r3, [r6, #-6]
 2048 0bcc 057A57ED 		vldr.32	s15, [r7, #-20]	@ int
 2049 0bd0 677AF8EE 		vcvt.f32.u32	s15, s15
 2050 0bd4 A97A87EE 		vdiv.f32	s14, s15, s19
 2051 0bd8 090A07EE 		vmla.f32	s0, s14, s18
 2052 0bdc FEFFFFEB 		bl	roundf
 2053 0be0 6A0AF0EE 		vmov.f32	s1, s21
 2054 0be4 800A38EE 		vadd.f32	s0, s17, s0
 2055 0be8 FEFFFFEB 		bl	fminf
 2056 0bec 4A0AF0EE 		vmov.f32	s1, s20
 2057 0bf0 FEFFFFEB 		bl	fmaxf
 2058 0bf4 C07AFCEE 		vcvt.u32.f32	s15, s0
 2059 0bf8 040058E1 		cmp	r8, r4
 2060 0bfc 903A17EE 		vmov	r3, s15	@ int
 2061 0c00 053046E5 		strb	r3, [r6, #-5]
 2062 0c04 88FFFF1A 		bne	.L687
 2063              	.L686:
 2064 0c08 04309DE5 		ldr	r3, [sp, #4]
 2065 0c0c 99AADFED 		vldr.32	s21, .L1273
 2066 0c10 99AA9FED 		vldr.32	s20, .L1273+4
 2067 0c14 046183E0 		add	r6, r3, r4, lsl #2
 2068 0c18 18309DE5 		ldr	r3, [sp, #24]
 2069 0c1c 044083E0 		add	r4, r3, r4
 2070 0c20 0370A0E1 		mov	r7, r3
 2071              	.L688:
 2072 0c24 017AF6EC 		vldmia.32	r6!, {s15}	@ int
 2073 0c28 480AB0EE 		vmov.f32	s0, s16
 2074 0c2c 677AF8EE 		vcvt.f32.u32	s15, s15
 2075 0c30 A97A87EE 		vdiv.f32	s14, s15, s19
 2076 0c34 090A07EE 		vmla.f32	s0, s14, s18
 2077 0c38 FEFFFFEB 		bl	roundf
 2078 0c3c 6A0AF0EE 		vmov.f32	s1, s21
 2079 0c40 800A38EE 		vadd.f32	s0, s17, s0
 2080 0c44 FEFFFFEB 		bl	fminf
 2081 0c48 4A0AF0EE 		vmov.f32	s1, s20
 2082 0c4c FEFFFFEB 		bl	fmaxf
 2083 0c50 C07AFCEE 		vcvt.u32.f32	s15, s0
 2084 0c54 903A17EE 		vmov	r3, s15	@ int
 2085 0c58 0130C4E4 		strb	r3, [r4], #1
 2086 0c5c 073044E0 		sub	r3, r4, r7
 2087 0c60 030055E1 		cmp	r5, r3
 2088 0c64 EEFFFF8A 		bhi	.L688
 2089 0c68 91FEFFEA 		b	.L595
 2090              	.L748:
 2091 0c6c 04B0A0E3 		mov	fp, #4
 2092              	.L307:
 2093 0c70 00309AE5 		ldr	r3, [r10]
 2094 0c74 000057E3 		cmp	r7, #0
 2095 0c78 08708D05 		streq	r7, [sp, #8]
 2096 0c7c 0C308DE5 		str	r3, [sp, #12]
 2097 0c80 00309715 		ldrne	r3, [r7]
 2098 0c84 08308D15 		strne	r3, [sp, #8]
 2099 0c88 043097E5 		ldr	r3, [r7, #4]
 2100 0c8c 008093E5 		ldr	r8, [r3]
 2101 0c90 04A083E2 		add	r10, r3, #4
 2102 0c94 000058E3 		cmp	r8, #0
 2103 0c98 D60500DA 		ble	.L754
 2104 0c9c 049093E5 		ldr	r9, [r3, #4]
 2105 0ca0 0150A0E3 		mov	r5, #1
 2106 0ca4 0070A0E3 		mov	r7, #0
 2107 0ca8 050000EA 		b	.L353
 2108              	.L1089:
 2109 0cac 0490BAE5 		ldr	r9, [r10, #4]!
 2110 0cb0 0000E0E3 		mvn	r0, #0
 2111 0cb4 0910A0E1 		mov	r1, r9
 2112 0cb8 FEFFFFEB 		bl	__aeabi_uidiv
 2113 0cbc 050050E1 		cmp	r0, r5
 2114 0cc0 17FDFF3A 		bcc	.L1147
 2115              	.L353:
 2116 0cc4 017087E2 		add	r7, r7, #1
 2117 0cc8 990505E0 		mul	r5, r9, r5
 2118 0ccc 070058E1 		cmp	r8, r7
 2119 0cd0 F5FFFF1A 		bne	.L1089
 2120 0cd4 000055E3 		cmp	r5, #0
 2121 0cd8 0500000A 		beq	.L354
 2122              	.L352:
 2123 0cdc 000055E3 		cmp	r5, #0
 2124 0ce0 0010A0E3 		mov	r1, #0
 2125 0ce4 0420A003 		moveq	r2, #4
 2126 0ce8 0521A011 		movne	r2, r5, lsl #2
 2127 0cec 08009DE5 		ldr	r0, [sp, #8]
 2128 0cf0 FEFFFFEB 		bl	memset
 2129              	.L354:
 2130 0cf4 04309DE5 		ldr	r3, [sp, #4]
 2131 0cf8 00005BE3 		cmp	fp, #0
 2132 0cfc 043083E2 		add	r3, r3, #4
 2133 0d00 28308DE5 		str	r3, [sp, #40]
 2134 0d04 F702001A 		bne	.L1218
 2135 0d08 08309DE5 		ldr	r3, [sp, #8]
 2136 0d0c 0140A0E3 		mov	r4, #1
 2137 0d10 0C209DE5 		ldr	r2, [sp, #12]
 2138 0d14 007AD3ED 		vldr.32	s15, [r3]
 2139 0d18 007A92ED 		vldr.32	s14, [r2]
 2140 0d1c 877A77EE 		vadd.f32	s15, s15, s14
 2141 0d20 007AC3ED 		vstr.32	s15, [r3]
 2142              	.L388:
 2143 0d24 000055E3 		cmp	r5, #0
 2144 0d28 61FEFF0A 		beq	.L595
 2145 0d2c 904A07EE 		vmov	s15, r4	@ int
 2146 0d30 080055E3 		cmp	r5, #8
 2147 0d34 677AF8EE 		vcvt.f32.u32	s15, s15
 2148 0d38 CE07009A 		bls	.L758
 2149 0d3c 08309DE5 		ldr	r3, [sp, #8]
 2150 0d40 092045E2 		sub	r2, r5, #9
 2151 0d44 0720C2E3 		bic	r2, r2, #7
 2152 0d48 0010A0E3 		mov	r1, #0
 2153 0d4c 082082E2 		add	r2, r2, #8
 2154 0d50 303083E2 		add	r3, r3, #48
 2155              	.L391:
 2156 0d54 0C4A13ED 		vldr.32	s8, [r3, #-48]
 2157 0d58 081081E2 		add	r1, r1, #8
 2158 0d5c 0B4A53ED 		vldr.32	s9, [r3, #-44]
 2159 0d60 020051E1 		cmp	r1, r2
 2160 0d64 0A5A13ED 		vldr.32	s10, [r3, #-40]
 2161 0d68 095A53ED 		vldr.32	s11, [r3, #-36]
 2162 0d6c 086A13ED 		vldr.32	s12, [r3, #-32]
 2163 0d70 076A53ED 		vldr.32	s13, [r3, #-28]
 2164 0d74 067A13ED 		vldr.32	s14, [r3, #-24]
 2165 0d78 053A13ED 		vldr.32	s6, [r3, #-20]
 2166 0d7c 273AC4EE 		vdiv.f32	s7, s8, s15
 2167 0d80 A74A84EE 		vdiv.f32	s8, s9, s15
 2168 0d84 274AC5EE 		vdiv.f32	s9, s10, s15
 2169 0d88 A75A85EE 		vdiv.f32	s10, s11, s15
 2170 0d8c 275AC6EE 		vdiv.f32	s11, s12, s15
 2171 0d90 A76A86EE 		vdiv.f32	s12, s13, s15
 2172 0d94 276AC7EE 		vdiv.f32	s13, s14, s15
 2173 0d98 277A83EE 		vdiv.f32	s14, s6, s15
 2174 0d9c 00F0D3F5 		pld	[r3]
 2175 0da0 203083E2 		add	r3, r3, #32
 2176 0da4 143A43ED 		vstr.32	s7, [r3, #-80]
 2177 0da8 134A03ED 		vstr.32	s8, [r3, #-76]
 2178 0dac 124A43ED 		vstr.32	s9, [r3, #-72]
 2179 0db0 115A03ED 		vstr.32	s10, [r3, #-68]
 2180 0db4 105A43ED 		vstr.32	s11, [r3, #-64]
 2181 0db8 0F6A03ED 		vstr.32	s12, [r3, #-60]
 2182 0dbc 0E6A43ED 		vstr.32	s13, [r3, #-56]
 2183 0dc0 0D7A03ED 		vstr.32	s14, [r3, #-52]
 2184 0dc4 E2FFFF1A 		bne	.L391
 2185              	.L390:
 2186 0dc8 08309DE5 		ldr	r3, [sp, #8]
 2187 0dcc 023183E0 		add	r3, r3, r2, lsl #2
 2188              	.L392:
 2189 0dd0 006AD3ED 		vldr.32	s13, [r3]
 2190 0dd4 012082E2 		add	r2, r2, #1
 2191 0dd8 050052E1 		cmp	r2, r5
 2192 0ddc A77A86EE 		vdiv.f32	s14, s13, s15
 2193 0de0 017AA3EC 		vstmia.32	r3!, {s14}
 2194 0de4 F9FFFF3A 		bcc	.L392
 2195 0de8 31FEFFEA 		b	.L595
 2196              	.L1212:
 2197 0dec 0100A0E3 		mov	r0, #1
 2198 0df0 0210A0E3 		mov	r1, #2
 2199 0df4 BE09CDE1 		strh	r0, [sp, #158]	@ movhi
 2200 0df8 B00ACDE1 		strh	r0, [sp, #160]	@ movhi
 2201 0dfc B4FCFFEA 		b	.L745
 2202              	.L1216:
 2203 0e00 057A95ED 		vldr.32	s14, [r5, #20]
 2204 0e04 077AD5ED 		vldr.32	s15, [r5, #28]
 2205 0e08 677AB4EE 		vcmp.f32	s14, s15
 2206 0e0c 10FAF1EE 		vmrs	APSR_nzcv, FPSCR
 2207 0e10 33FEFF1A 		bne	.L596
 2208 0e14 443099E5 		ldr	r3, [r9, #68]
 2209 0e18 0900A0E1 		mov	r0, r9
 2210 0e1c 081095E5 		ldr	r1, [r5, #8]
 2211 0e20 33FF2FE1 		blx	r3
 2212 0e24 04309AE5 		ldr	r3, [r10, #4]
 2213 0e28 000057E3 		cmp	r7, #0
 2214 0e2c 04708D05 		streq	r7, [sp, #4]
 2215 0e30 00B0A0E1 		mov	fp, r0
 2216 0e34 00209AE5 		ldr	r2, [r10]
 2217 0e38 20308DE5 		str	r3, [sp, #32]
 2218 0e3c 003093E5 		ldr	r3, [r3]
 2219 0e40 08208DE5 		str	r2, [sp, #8]
 2220 0e44 0C308DE5 		str	r3, [sp, #12]
 2221 0e48 00309715 		ldrne	r3, [r7]
 2222 0e4c 04308D15 		strne	r3, [sp, #4]
 2223 0e50 043097E5 		ldr	r3, [r7, #4]
 2224 0e54 007098E5 		ldr	r7, [r8]
 2225 0e58 008093E5 		ldr	r8, [r3]
 2226 0e5c 04A083E2 		add	r10, r3, #4
 2227 0e60 000058E3 		cmp	r8, #0
 2228 0e64 730700DA 		ble	.L784
 2229 0e68 049093E5 		ldr	r9, [r3, #4]
 2230 0e6c 0150A0E3 		mov	r5, #1
 2231 0e70 0060A0E3 		mov	r6, #0
 2232 0e74 070000EA 		b	.L599
 2233              	.L1274:
 2234              		.align	2
 2235              	.L1273:
 2236 0e78 00007F43 		.word	1132396544
 2237 0e7c 00000000 		.word	0
 2238              	.L1116:
 2239 0e80 0490BAE5 		ldr	r9, [r10, #4]!
 2240 0e84 0000E0E3 		mvn	r0, #0
 2241 0e88 0910A0E1 		mov	r1, r9
 2242 0e8c FEFFFFEB 		bl	__aeabi_uidiv
 2243 0e90 050050E1 		cmp	r0, r5
 2244 0e94 A2FCFF3A 		bcc	.L1147
 2245              	.L599:
 2246 0e98 016086E2 		add	r6, r6, #1
 2247 0e9c 990505E0 		mul	r5, r9, r5
 2248 0ea0 060058E1 		cmp	r8, r6
 2249 0ea4 F5FFFF1A 		bne	.L1116
 2250 0ea8 000055E3 		cmp	r5, #0
 2251 0eac 7600000A 		beq	.L600
 2252              	.L598:
 2253 0eb0 04E09DE5 		ldr	lr, [sp, #4]
 2254 0eb4 000055E3 		cmp	r5, #0
 2255 0eb8 0520A011 		movne	r2, r5
 2256 0ebc 0120A003 		moveq	r2, #1
 2257 0ec0 0430A003 		moveq	r3, #4
 2258 0ec4 0531A011 		movne	r3, r5, lsl #2
 2259 0ec8 02008EE0 		add	r0, lr, r2
 2260 0ecc 03308BE0 		add	r3, fp, r3
 2261 0ed0 00005BE1 		cmp	fp, r0
 2262 0ed4 03005E31 		cmpcc	lr, r3
 2263 0ed8 0E108BE1 		orr	r1, fp, lr
 2264 0edc 0130A023 		movcs	r3, #1
 2265 0ee0 0030A033 		movcc	r3, #0
 2266 0ee4 5110E3E7 		ubfx	r1, r1, #0, #4
 2267 0ee8 0F0055E3 		cmp	r5, #15
 2268 0eec 0000A093 		movls	r0, #0
 2269 0ef0 0100A083 		movhi	r0, #1
 2270 0ef4 000051E3 		cmp	r1, #0
 2271 0ef8 0000A013 		movne	r0, #0
 2272 0efc 003013E0 		ands	r3, r3, r0
 2273 0f00 EF06000A 		beq	.L603
 2274 0f04 103042E2 		sub	r3, r2, #16
 2275 0f08 5020C0F2 		vmov.i32	q9, #0  @ v16qi
 2276 0f0c 2332A0E1 		lsr	r3, r3, #4
 2277 0f10 5000C0F2 		vmov.i32	q8, #0  @ v4si
 2278 0f14 40008BE2 		add	r0, fp, #64
 2279 0f18 011083E2 		add	r1, r3, #1
 2280 0f1c 00C0A0E3 		mov	ip, #0
 2281 0f20 0132A0E1 		lsl	r3, r1, #4
 2282              	.L605:
 2283 0f24 01C08CE2 		add	ip, ip, #1
 2284 0f28 DF2A4EF4 		vst1.64	{d18-d19}, [lr:64]
 2285 0f2c 0C0051E1 		cmp	r1, ip
 2286 0f30 10E08EE2 		add	lr, lr, #16
 2287 0f34 100B40ED 		vstr	d16, [r0, #-64]
 2288 0f38 0E1B40ED 		vstr	d17, [r0, #-56]
 2289 0f3c 400080E2 		add	r0, r0, #64
 2290 0f40 1C0B40ED 		vstr	d16, [r0, #-112]
 2291 0f44 1A1B40ED 		vstr	d17, [r0, #-104]
 2292 0f48 180B40ED 		vstr	d16, [r0, #-96]
 2293 0f4c 161B40ED 		vstr	d17, [r0, #-88]
 2294 0f50 140B40ED 		vstr	d16, [r0, #-80]
 2295 0f54 121B40ED 		vstr	d17, [r0, #-72]
 2296 0f58 F1FFFF8A 		bhi	.L605
 2297 0f5c 030052E1 		cmp	r2, r3
 2298 0f60 4900000A 		beq	.L600
 2299 0f64 01C083E2 		add	ip, r3, #1
 2300 0f68 04E09DE5 		ldr	lr, [sp, #4]
 2301 0f6c 05005CE1 		cmp	ip, r5
 2302 0f70 0020A0E3 		mov	r2, #0
 2303 0f74 0122CEE7 		strb	r2, [lr, r1, lsl #4]
 2304 0f78 03218BE7 		str	r2, [fp, r3, lsl #2]
 2305 0f7c 4200002A 		bcs	.L600
 2306 0f80 020083E2 		add	r0, r3, #2
 2307 0f84 0C20CEE7 		strb	r2, [lr, ip]
 2308 0f88 050050E1 		cmp	r0, r5
 2309 0f8c 0C218BE7 		str	r2, [fp, ip, lsl #2]
 2310 0f90 3D00002A 		bcs	.L600
 2311 0f94 031083E2 		add	r1, r3, #3
 2312 0f98 0020CEE7 		strb	r2, [lr, r0]
 2313 0f9c 050051E1 		cmp	r1, r5
 2314 0fa0 00218BE7 		str	r2, [fp, r0, lsl #2]
 2315 0fa4 3800002A 		bcs	.L600
 2316 0fa8 040083E2 		add	r0, r3, #4
 2317 0fac 0120CEE7 		strb	r2, [lr, r1]
 2318 0fb0 050050E1 		cmp	r0, r5
 2319 0fb4 01218BE7 		str	r2, [fp, r1, lsl #2]
 2320 0fb8 3300002A 		bcs	.L600
 2321 0fbc 051083E2 		add	r1, r3, #5
 2322 0fc0 0020CEE7 		strb	r2, [lr, r0]
 2323 0fc4 050051E1 		cmp	r1, r5
 2324 0fc8 00218BE7 		str	r2, [fp, r0, lsl #2]
 2325 0fcc 2E00002A 		bcs	.L600
 2326 0fd0 060083E2 		add	r0, r3, #6
 2327 0fd4 0120CEE7 		strb	r2, [lr, r1]
 2328 0fd8 050050E1 		cmp	r0, r5
 2329 0fdc 01218BE7 		str	r2, [fp, r1, lsl #2]
 2330 0fe0 2900002A 		bcs	.L600
 2331 0fe4 071083E2 		add	r1, r3, #7
 2332 0fe8 0020CEE7 		strb	r2, [lr, r0]
 2333 0fec 050051E1 		cmp	r1, r5
 2334 0ff0 00218BE7 		str	r2, [fp, r0, lsl #2]
 2335 0ff4 2400002A 		bcs	.L600
 2336 0ff8 080083E2 		add	r0, r3, #8
 2337 0ffc 0120CEE7 		strb	r2, [lr, r1]
 2338 1000 050050E1 		cmp	r0, r5
 2339 1004 01218BE7 		str	r2, [fp, r1, lsl #2]
 2340 1008 1F00002A 		bcs	.L600
 2341 100c 091083E2 		add	r1, r3, #9
 2342 1010 0020CEE7 		strb	r2, [lr, r0]
 2343 1014 050051E1 		cmp	r1, r5
 2344 1018 00218BE7 		str	r2, [fp, r0, lsl #2]
 2345 101c 1A00002A 		bcs	.L600
 2346 1020 0A0083E2 		add	r0, r3, #10
 2347 1024 0120CEE7 		strb	r2, [lr, r1]
 2348 1028 050050E1 		cmp	r0, r5
 2349 102c 01218BE7 		str	r2, [fp, r1, lsl #2]
 2350 1030 1500002A 		bcs	.L600
 2351 1034 0B1083E2 		add	r1, r3, #11
 2352 1038 0020CEE7 		strb	r2, [lr, r0]
 2353 103c 050051E1 		cmp	r1, r5
 2354 1040 00218BE7 		str	r2, [fp, r0, lsl #2]
 2355 1044 1000002A 		bcs	.L600
 2356 1048 0C0083E2 		add	r0, r3, #12
 2357 104c 0120CEE7 		strb	r2, [lr, r1]
 2358 1050 050050E1 		cmp	r0, r5
 2359 1054 01218BE7 		str	r2, [fp, r1, lsl #2]
 2360 1058 0B00002A 		bcs	.L600
 2361 105c 0D1083E2 		add	r1, r3, #13
 2362 1060 0020CEE7 		strb	r2, [lr, r0]
 2363 1064 050051E1 		cmp	r1, r5
 2364 1068 00218BE7 		str	r2, [fp, r0, lsl #2]
 2365 106c 0600002A 		bcs	.L600
 2366 1070 0E3083E2 		add	r3, r3, #14
 2367 1074 0120CEE7 		strb	r2, [lr, r1]
 2368 1078 050053E1 		cmp	r3, r5
 2369 107c 01218BE7 		str	r2, [fp, r1, lsl #2]
 2370 1080 0E10A031 		movcc	r1, lr
 2371 1084 0320C137 		strbcc	r2, [r1, r3]
 2372 1088 03218B37 		strcc	r2, [fp, r3, lsl #2]
 2373              	.L600:
 2374 108c 0C309DE5 		ldr	r3, [sp, #12]
 2375 1090 000053E3 		cmp	r3, #0
 2376 1094 20309DE5 		ldr	r3, [sp, #32]
 2377 1098 043083E2 		add	r3, r3, #4
 2378 109c 18308DE5 		str	r3, [sp, #24]
 2379 10a0 BB05001A 		bne	.L1219
 2380 10a4 08309DE5 		ldr	r3, [sp, #8]
 2381 10a8 0140A0E3 		mov	r4, #1
 2382 10ac 0020D3E5 		ldrb	r2, [r3]	@ zero_extendqisi2
 2383 10b0 00309BE5 		ldr	r3, [fp]
 2384 10b4 023083E0 		add	r3, r3, r2
 2385 10b8 00308BE5 		str	r3, [fp]
 2386              	.L718:
 2387 10bc 000055E3 		cmp	r5, #0
 2388 10c0 7BFDFF0A 		beq	.L595
 2389 10c4 080055E3 		cmp	r5, #8
 2390 10c8 590A009A 		bls	.L790
 2391 10cc 04309DE5 		ldr	r3, [sp, #4]
 2392 10d0 096045E2 		sub	r6, r5, #9
 2393 10d4 0760C6E3 		bic	r6, r6, #7
 2394 10d8 30708BE2 		add	r7, fp, #48
 2395 10dc 086086E2 		add	r6, r6, #8
 2396 10e0 0090A0E3 		mov	r9, #0
 2397 10e4 0C8083E2 		add	r8, r3, #12
 2398              	.L642:
 2399 10e8 300017E5 		ldr	r0, [r7, #-48]
 2400 10ec 0410A0E1 		mov	r1, r4
 2401 10f0 FEFFFFEB 		bl	__aeabi_uidiv
 2402 10f4 00F0D7F5 		pld	[r7]
 2403 10f8 0410A0E1 		mov	r1, r4
 2404 10fc 0C0048E5 		strb	r0, [r8, #-12]
 2405 1100 089089E2 		add	r9, r9, #8
 2406 1104 2C0017E5 		ldr	r0, [r7, #-44]
 2407 1108 207087E2 		add	r7, r7, #32
 2408 110c FEFFFFEB 		bl	__aeabi_uidiv
 2409 1110 0410A0E1 		mov	r1, r4
 2410 1114 0B0048E5 		strb	r0, [r8, #-11]
 2411 1118 480017E5 		ldr	r0, [r7, #-72]
 2412 111c FEFFFFEB 		bl	__aeabi_uidiv
 2413 1120 0410A0E1 		mov	r1, r4
 2414 1124 0A0048E5 		strb	r0, [r8, #-10]
 2415 1128 440017E5 		ldr	r0, [r7, #-68]
 2416 112c FEFFFFEB 		bl	__aeabi_uidiv
 2417 1130 0410A0E1 		mov	r1, r4
 2418 1134 090048E5 		strb	r0, [r8, #-9]
 2419 1138 400017E5 		ldr	r0, [r7, #-64]
 2420 113c FEFFFFEB 		bl	__aeabi_uidiv
 2421 1140 0410A0E1 		mov	r1, r4
 2422 1144 080048E5 		strb	r0, [r8, #-8]
 2423 1148 3C0017E5 		ldr	r0, [r7, #-60]
 2424 114c FEFFFFEB 		bl	__aeabi_uidiv
 2425 1150 0410A0E1 		mov	r1, r4
 2426 1154 070048E5 		strb	r0, [r8, #-7]
 2427 1158 380017E5 		ldr	r0, [r7, #-56]
 2428 115c FEFFFFEB 		bl	__aeabi_uidiv
 2429 1160 0410A0E1 		mov	r1, r4
 2430 1164 060048E5 		strb	r0, [r8, #-6]
 2431 1168 340017E5 		ldr	r0, [r7, #-52]
 2432 116c FEFFFFEB 		bl	__aeabi_uidiv
 2433 1170 060059E1 		cmp	r9, r6
 2434 1174 00F0D8F5 		pld	[r8]
 2435 1178 050048E5 		strb	r0, [r8, #-5]
 2436 117c 088088E2 		add	r8, r8, #8
 2437 1180 D8FFFF1A 		bne	.L642
 2438              	.L641:
 2439 1184 04309DE5 		ldr	r3, [sp, #4]
 2440 1188 06B18BE0 		add	fp, fp, r6, lsl #2
 2441 118c 066083E0 		add	r6, r3, r6
 2442              	.L643:
 2443 1190 04009BE4 		ldr	r0, [fp], #4
 2444 1194 0410A0E1 		mov	r1, r4
 2445 1198 FEFFFFEB 		bl	__aeabi_uidiv
 2446 119c 04309DE5 		ldr	r3, [sp, #4]
 2447 11a0 0100C6E4 		strb	r0, [r6], #1
 2448 11a4 033046E0 		sub	r3, r6, r3
 2449 11a8 030055E1 		cmp	r5, r3
 2450 11ac F7FFFF8A 		bhi	.L643
 2451 11b0 3FFDFFEA 		b	.L595
 2452              	.L1214:
 2453 11b4 057A95ED 		vldr.32	s14, [r5, #20]
 2454 11b8 077AD5ED 		vldr.32	s15, [r5, #28]
 2455 11bc 677AB4EE 		vcmp.f32	s14, s15
 2456 11c0 10FAF1EE 		vmrs	APSR_nzcv, FPSCR
 2457 11c4 DEFBFF1A 		bne	.L445
 2458 11c8 443099E5 		ldr	r3, [r9, #68]
 2459 11cc 0900A0E1 		mov	r0, r9
 2460 11d0 081095E5 		ldr	r1, [r5, #8]
 2461 11d4 33FF2FE1 		blx	r3
 2462 11d8 04309AE5 		ldr	r3, [r10, #4]
 2463 11dc 000057E3 		cmp	r7, #0
 2464 11e0 04708D05 		streq	r7, [sp, #4]
 2465 11e4 00B0A0E1 		mov	fp, r0
 2466 11e8 00209AE5 		ldr	r2, [r10]
 2467 11ec 20308DE5 		str	r3, [sp, #32]
 2468 11f0 003093E5 		ldr	r3, [r3]
 2469 11f4 08208DE5 		str	r2, [sp, #8]
 2470 11f8 0C308DE5 		str	r3, [sp, #12]
 2471 11fc 00309715 		ldrne	r3, [r7]
 2472 1200 04308D15 		strne	r3, [sp, #4]
 2473 1204 043097E5 		ldr	r3, [r7, #4]
 2474 1208 007098E5 		ldr	r7, [r8]
 2475 120c 008093E5 		ldr	r8, [r3]
 2476 1210 04A083E2 		add	r10, r3, #4
 2477 1214 000058E3 		cmp	r8, #0
 2478 1218 7B0600DA 		ble	.L763
 2479 121c 049093E5 		ldr	r9, [r3, #4]
 2480 1220 0150A0E3 		mov	r5, #1
 2481 1224 0060A0E3 		mov	r6, #0
 2482 1228 050000EA 		b	.L448
 2483              	.L1098:
 2484 122c 0490BAE5 		ldr	r9, [r10, #4]!
 2485 1230 0000E0E3 		mvn	r0, #0
 2486 1234 0910A0E1 		mov	r1, r9
 2487 1238 FEFFFFEB 		bl	__aeabi_uidiv
 2488 123c 050050E1 		cmp	r0, r5
 2489 1240 B7FBFF3A 		bcc	.L1147
 2490              	.L448:
 2491 1244 016086E2 		add	r6, r6, #1
 2492 1248 990505E0 		mul	r5, r9, r5
 2493 124c 060058E1 		cmp	r8, r6
 2494 1250 F5FFFF1A 		bne	.L1098
 2495 1254 000055E3 		cmp	r5, #0
 2496 1258 7600000A 		beq	.L449
 2497              	.L447:
 2498 125c 04E09DE5 		ldr	lr, [sp, #4]
 2499 1260 000055E3 		cmp	r5, #0
 2500 1264 0520A011 		movne	r2, r5
 2501 1268 0120A003 		moveq	r2, #1
 2502 126c 0430A003 		moveq	r3, #4
 2503 1270 0531A011 		movne	r3, r5, lsl #2
 2504 1274 02008EE0 		add	r0, lr, r2
 2505 1278 03308BE0 		add	r3, fp, r3
 2506 127c 00005BE1 		cmp	fp, r0
 2507 1280 03005E31 		cmpcc	lr, r3
 2508 1284 0E108BE1 		orr	r1, fp, lr
 2509 1288 0130A023 		movcs	r3, #1
 2510 128c 0030A033 		movcc	r3, #0
 2511 1290 5110E3E7 		ubfx	r1, r1, #0, #4
 2512 1294 0F0055E3 		cmp	r5, #15
 2513 1298 0000A093 		movls	r0, #0
 2514 129c 0100A083 		movhi	r0, #1
 2515 12a0 000051E3 		cmp	r1, #0
 2516 12a4 0000A013 		movne	r0, #0
 2517 12a8 003013E0 		ands	r3, r3, r0
 2518 12ac 2D06000A 		beq	.L452
 2519 12b0 101042E2 		sub	r1, r2, #16
 2520 12b4 5020C0F2 		vmov.i32	q9, #0  @ v16qi
 2521 12b8 2112A0E1 		lsr	r1, r1, #4
 2522 12bc 5000C0F2 		vmov.i32	q8, #0  @ v4si
 2523 12c0 40008BE2 		add	r0, fp, #64
 2524 12c4 011081E2 		add	r1, r1, #1
 2525 12c8 00C0A0E3 		mov	ip, #0
 2526 12cc 0132A0E1 		lsl	r3, r1, #4
 2527              	.L454:
 2528 12d0 01C08CE2 		add	ip, ip, #1
 2529 12d4 DF2A4EF4 		vst1.64	{d18-d19}, [lr:64]
 2530 12d8 0C0051E1 		cmp	r1, ip
 2531 12dc 10E08EE2 		add	lr, lr, #16
 2532 12e0 100B40ED 		vstr	d16, [r0, #-64]
 2533 12e4 0E1B40ED 		vstr	d17, [r0, #-56]
 2534 12e8 400080E2 		add	r0, r0, #64
 2535 12ec 1C0B40ED 		vstr	d16, [r0, #-112]
 2536 12f0 1A1B40ED 		vstr	d17, [r0, #-104]
 2537 12f4 180B40ED 		vstr	d16, [r0, #-96]
 2538 12f8 161B40ED 		vstr	d17, [r0, #-88]
 2539 12fc 140B40ED 		vstr	d16, [r0, #-80]
 2540 1300 121B40ED 		vstr	d17, [r0, #-72]
 2541 1304 F1FFFF8A 		bhi	.L454
 2542 1308 020053E1 		cmp	r3, r2
 2543 130c 4900000A 		beq	.L449
 2544 1310 01C083E2 		add	ip, r3, #1
 2545 1314 04E09DE5 		ldr	lr, [sp, #4]
 2546 1318 05005CE1 		cmp	ip, r5
 2547 131c 0020A0E3 		mov	r2, #0
 2548 1320 0122CEE7 		strb	r2, [lr, r1, lsl #4]
 2549 1324 03218BE7 		str	r2, [fp, r3, lsl #2]
 2550 1328 4200002A 		bcs	.L449
 2551 132c 020083E2 		add	r0, r3, #2
 2552 1330 0C20CEE7 		strb	r2, [lr, ip]
 2553 1334 050050E1 		cmp	r0, r5
 2554 1338 0C218BE7 		str	r2, [fp, ip, lsl #2]
 2555 133c 3D00002A 		bcs	.L449
 2556 1340 031083E2 		add	r1, r3, #3
 2557 1344 0020CEE7 		strb	r2, [lr, r0]
 2558 1348 050051E1 		cmp	r1, r5
 2559 134c 00218BE7 		str	r2, [fp, r0, lsl #2]
 2560 1350 3800002A 		bcs	.L449
 2561 1354 040083E2 		add	r0, r3, #4
 2562 1358 0120CEE7 		strb	r2, [lr, r1]
 2563 135c 050050E1 		cmp	r0, r5
 2564 1360 01218BE7 		str	r2, [fp, r1, lsl #2]
 2565 1364 3300002A 		bcs	.L449
 2566 1368 051083E2 		add	r1, r3, #5
 2567 136c 0020CEE7 		strb	r2, [lr, r0]
 2568 1370 050051E1 		cmp	r1, r5
 2569 1374 00218BE7 		str	r2, [fp, r0, lsl #2]
 2570 1378 2E00002A 		bcs	.L449
 2571 137c 060083E2 		add	r0, r3, #6
 2572 1380 0120CEE7 		strb	r2, [lr, r1]
 2573 1384 050050E1 		cmp	r0, r5
 2574 1388 01218BE7 		str	r2, [fp, r1, lsl #2]
 2575 138c 2900002A 		bcs	.L449
 2576 1390 071083E2 		add	r1, r3, #7
 2577 1394 0020CEE7 		strb	r2, [lr, r0]
 2578 1398 050051E1 		cmp	r1, r5
 2579 139c 00218BE7 		str	r2, [fp, r0, lsl #2]
 2580 13a0 2400002A 		bcs	.L449
 2581 13a4 080083E2 		add	r0, r3, #8
 2582 13a8 0120CEE7 		strb	r2, [lr, r1]
 2583 13ac 050050E1 		cmp	r0, r5
 2584 13b0 01218BE7 		str	r2, [fp, r1, lsl #2]
 2585 13b4 1F00002A 		bcs	.L449
 2586 13b8 091083E2 		add	r1, r3, #9
 2587 13bc 0020CEE7 		strb	r2, [lr, r0]
 2588 13c0 050051E1 		cmp	r1, r5
 2589 13c4 00218BE7 		str	r2, [fp, r0, lsl #2]
 2590 13c8 1A00002A 		bcs	.L449
 2591 13cc 0A0083E2 		add	r0, r3, #10
 2592 13d0 0120CEE7 		strb	r2, [lr, r1]
 2593 13d4 050050E1 		cmp	r0, r5
 2594 13d8 01218BE7 		str	r2, [fp, r1, lsl #2]
 2595 13dc 1500002A 		bcs	.L449
 2596 13e0 0B1083E2 		add	r1, r3, #11
 2597 13e4 0020CEE7 		strb	r2, [lr, r0]
 2598 13e8 050051E1 		cmp	r1, r5
 2599 13ec 00218BE7 		str	r2, [fp, r0, lsl #2]
 2600 13f0 1000002A 		bcs	.L449
 2601 13f4 0C0083E2 		add	r0, r3, #12
 2602 13f8 0120CEE7 		strb	r2, [lr, r1]
 2603 13fc 050050E1 		cmp	r0, r5
 2604 1400 01218BE7 		str	r2, [fp, r1, lsl #2]
 2605 1404 0B00002A 		bcs	.L449
 2606 1408 0D1083E2 		add	r1, r3, #13
 2607 140c 0020CEE7 		strb	r2, [lr, r0]
 2608 1410 050051E1 		cmp	r1, r5
 2609 1414 00218BE7 		str	r2, [fp, r0, lsl #2]
 2610 1418 0600002A 		bcs	.L449
 2611 141c 0E3083E2 		add	r3, r3, #14
 2612 1420 0120CEE7 		strb	r2, [lr, r1]
 2613 1424 050053E1 		cmp	r3, r5
 2614 1428 01218BE7 		str	r2, [fp, r1, lsl #2]
 2615 142c 0E10A031 		movcc	r1, lr
 2616 1430 0320C137 		strbcc	r2, [r1, r3]
 2617 1434 03218B37 		strcc	r2, [fp, r3, lsl #2]
 2618              	.L449:
 2619 1438 0C309DE5 		ldr	r3, [sp, #12]
 2620 143c 000053E3 		cmp	r3, #0
 2621 1440 20309DE5 		ldr	r3, [sp, #32]
 2622 1444 043083E2 		add	r3, r3, #4
 2623 1448 18308DE5 		str	r3, [sp, #24]
 2624 144c 0404001A 		bne	.L1220
 2625 1450 08309DE5 		ldr	r3, [sp, #8]
 2626 1454 0140A0E3 		mov	r4, #1
 2627 1458 D020D3E1 		ldrsb	r2, [r3]
 2628 145c 00309BE5 		ldr	r3, [fp]
 2629 1460 023083E0 		add	r3, r3, r2
 2630 1464 00308BE5 		str	r3, [fp]
 2631              	.L706:
 2632 1468 000055E3 		cmp	r5, #0
 2633 146c 90FCFF0A 		beq	.L595
 2634 1470 080055E3 		cmp	r5, #8
 2635 1474 6609009A 		bls	.L769
 2636 1478 04309DE5 		ldr	r3, [sp, #4]
 2637 147c 096045E2 		sub	r6, r5, #9
 2638 1480 0760C6E3 		bic	r6, r6, #7
 2639 1484 30708BE2 		add	r7, fp, #48
 2640 1488 086086E2 		add	r6, r6, #8
 2641 148c 0090A0E3 		mov	r9, #0
 2642 1490 0C8083E2 		add	r8, r3, #12
 2643              	.L491:
 2644 1494 300017E5 		ldr	r0, [r7, #-48]
 2645 1498 0410A0E1 		mov	r1, r4
 2646 149c FEFFFFEB 		bl	__aeabi_idiv
 2647 14a0 00F0D7F5 		pld	[r7]
 2648 14a4 0410A0E1 		mov	r1, r4
 2649 14a8 0C0048E5 		strb	r0, [r8, #-12]
 2650 14ac 089089E2 		add	r9, r9, #8
 2651 14b0 2C0017E5 		ldr	r0, [r7, #-44]
 2652 14b4 207087E2 		add	r7, r7, #32
 2653 14b8 FEFFFFEB 		bl	__aeabi_idiv
 2654 14bc 0410A0E1 		mov	r1, r4
 2655 14c0 0B0048E5 		strb	r0, [r8, #-11]
 2656 14c4 480017E5 		ldr	r0, [r7, #-72]
 2657 14c8 FEFFFFEB 		bl	__aeabi_idiv
 2658 14cc 0410A0E1 		mov	r1, r4
 2659 14d0 0A0048E5 		strb	r0, [r8, #-10]
 2660 14d4 440017E5 		ldr	r0, [r7, #-68]
 2661 14d8 FEFFFFEB 		bl	__aeabi_idiv
 2662 14dc 0410A0E1 		mov	r1, r4
 2663 14e0 090048E5 		strb	r0, [r8, #-9]
 2664 14e4 400017E5 		ldr	r0, [r7, #-64]
 2665 14e8 FEFFFFEB 		bl	__aeabi_idiv
 2666 14ec 0410A0E1 		mov	r1, r4
 2667 14f0 080048E5 		strb	r0, [r8, #-8]
 2668 14f4 3C0017E5 		ldr	r0, [r7, #-60]
 2669 14f8 FEFFFFEB 		bl	__aeabi_idiv
 2670 14fc 0410A0E1 		mov	r1, r4
 2671 1500 070048E5 		strb	r0, [r8, #-7]
 2672 1504 380017E5 		ldr	r0, [r7, #-56]
 2673 1508 FEFFFFEB 		bl	__aeabi_idiv
 2674 150c 0410A0E1 		mov	r1, r4
 2675 1510 060048E5 		strb	r0, [r8, #-6]
 2676 1514 340017E5 		ldr	r0, [r7, #-52]
 2677 1518 FEFFFFEB 		bl	__aeabi_idiv
 2678 151c 060059E1 		cmp	r9, r6
 2679 1520 00F0D8F5 		pld	[r8]
 2680 1524 050048E5 		strb	r0, [r8, #-5]
 2681 1528 088088E2 		add	r8, r8, #8
 2682 152c D8FFFF1A 		bne	.L491
 2683              	.L490:
 2684 1530 04309DE5 		ldr	r3, [sp, #4]
 2685 1534 06B18BE0 		add	fp, fp, r6, lsl #2
 2686 1538 066083E0 		add	r6, r3, r6
 2687              	.L492:
 2688 153c 04009BE4 		ldr	r0, [fp], #4
 2689 1540 0410A0E1 		mov	r1, r4
 2690 1544 FEFFFFEB 		bl	__aeabi_idiv
 2691 1548 04309DE5 		ldr	r3, [sp, #4]
 2692 154c 0100C6E4 		strb	r0, [r6], #1
 2693 1550 033046E0 		sub	r3, r6, r3
 2694 1554 030055E1 		cmp	r5, r3
 2695 1558 F7FFFF8A 		bhi	.L492
 2696 155c 54FCFFEA 		b	.L595
 2697              	.L1213:
 2698 1560 FE39DDE1 		ldrsh	r3, [sp, #158]
 2699 1564 010053E3 		cmp	r3, #1
 2700 1568 0C308DE5 		str	r3, [sp, #12]
 2701 156c 3703000A 		beq	.L1221
 2702 1570 020053E3 		cmp	r3, #2
 2703 1574 E3FAFF1A 		bne	.L297
 2704 1578 F03ADDE1 		ldrsh	r3, [sp, #160]
 2705 157c 010053E3 		cmp	r3, #1
 2706 1580 10308DE5 		str	r3, [sp, #16]
 2707 1584 DFFAFF1A 		bne	.L297
 2708              	.L302:
 2709 1588 0800DAE5 		ldrb	r0, [r10, #8]	@ zero_extendqisi2
 2710 158c 030050E3 		cmp	r0, #3
 2711 1590 0C07000A 		beq	.L304
 2712 1594 090050E3 		cmp	r0, #9
 2713 1598 D005000A 		beq	.L305
 2714 159c 010050E3 		cmp	r0, #1
 2715 15a0 DFFAFF1A 		bne	.L1147
 2716 15a4 08309DE5 		ldr	r3, [sp, #8]
 2717 15a8 0030D3E5 		ldrb	r3, [r3]	@ zero_extendqisi2
 2718 15ac 030011E1 		tst	r1, r3
 2719 15b0 ADFDFF0A 		beq	.L748
 2720 15b4 0A10A0E1 		mov	r1, r10
 2721 15b8 A8008DE2 		add	r0, sp, #168
 2722 15bc FEFFFFEB 		bl	_ZN6tflite5micro14GetTensorShapeEPK16TfLiteEvalTensor
 2723              	.LEHE0:
 2724 15c0 0710A0E1 		mov	r1, r7
 2725 15c4 C0008DE2 		add	r0, sp, #192
 2726 15c8 00609AE5 		ldr	r6, [r10]
 2727              	.LEHB1:
 2728 15cc FEFFFFEB 		bl	_ZN6tflite5micro14GetTensorShapeEPK16TfLiteEvalTensor
 2729              	.LEHE1:
 2730 15d0 A8509DE5 		ldr	r5, [sp, #168]
 2731 15d4 000057E3 		cmp	r7, #0
 2732 15d8 00709715 		ldrne	r7, [r7]
 2733 15dc 040055E3 		cmp	r5, #4
 2734 15e0 0E09001A 		bne	.L1222
 2735 15e4 C0C09DE5 		ldr	ip, [sp, #192]
 2736 15e8 04005CE3 		cmp	ip, #4
 2737 15ec 0A0900CA 		bgt	.L1223
 2738 15f0 AC308DE2 		add	r3, sp, #172
 2739 15f4 04E07CE2 		rsbs	lr, ip, #4
 2740 15f8 0F0093E8 		ldm	r3, {r0, r1, r2, r3}
 2741 15fc DC408DE2 		add	r4, sp, #220
 2742 1600 D8508DE5 		str	r5, [sp, #216]
 2743 1604 F0508DE5 		str	r5, [sp, #240]
 2744 1608 0F0084E8 		stm	r4, {r0, r1, r2, r3}
 2745 160c 1C00000A 		beq	.L314
 2746 1610 01005EE3 		cmp	lr, #1
 2747 1614 0130A0E3 		mov	r3, #1
 2748 1618 F4308DE5 		str	r3, [sp, #244]
 2749 161c 1800000A 		beq	.L314
 2750 1620 02005EE3 		cmp	lr, #2
 2751 1624 F8308DE5 		str	r3, [sp, #248]
 2752 1628 1500000A 		beq	.L314
 2753 162c 03005EE3 		cmp	lr, #3
 2754 1630 FC308DE5 		str	r3, [sp, #252]
 2755 1634 1200000A 		beq	.L314
 2756 1638 04005EE3 		cmp	lr, #4
 2757 163c 00318DE5 		str	r3, [sp, #256]
 2758 1640 0F00000A 		beq	.L314
 2759              	.LEHB2:
 2760 1644 FEFFFFEB 		bl	abort
 2761              	.LEHE2:
 2762              	.L815:
 2763              	.L443:
 2764 1648 C0309DE5 		ldr	r3, [sp, #192]
 2765 164c 050053E3 		cmp	r3, #5
 2766 1650 030000DA 		ble	.L694
 2767 1654 C4009DE5 		ldr	r0, [sp, #196]
 2768 1658 000050E3 		cmp	r0, #0
 2769 165c 0000000A 		beq	.L694
 2770 1660 FEFFFFEB 		bl	_ZdaPv
 2771              	.L694:
 2772 1664 A8309DE5 		ldr	r3, [sp, #168]
 2773 1668 050053E3 		cmp	r3, #5
 2774 166c 030000DA 		ble	.L695
 2775 1670 AC009DE5 		ldr	r0, [sp, #172]
 2776 1674 000050E3 		cmp	r0, #0
 2777 1678 0000000A 		beq	.L695
 2778 167c FEFFFFEB 		bl	_ZdaPv
 2779              	.L695:
 2780              	.LEHB3:
 2781 1680 FEFFFFEB 		bl	__cxa_end_cleanup
 2782              	.LEHE3:
 2783              	.L314:
 2784 1684 F4308DE2 		add	r3, sp, #244
 2785 1688 0C21A0E1 		lsl	r2, ip, #2
 2786 168c 0E0183E0 		add	r0, r3, lr, lsl #2
 2787 1690 C4108DE2 		add	r1, sp, #196
 2788 1694 FEFFFFEB 		bl	memcpy
 2789 1698 F0B09DE5 		ldr	fp, [sp, #240]
 2790 169c 00005BE3 		cmp	fp, #0
 2791 16a0 DF0800DA 		ble	.L1224
 2792 16a4 05005BE3 		cmp	fp, #5
 2793 16a8 430300CA 		bgt	.L1225
 2794 16ac F4309DE5 		ldr	r3, [sp, #244]
 2795 16b0 01005BE3 		cmp	fp, #1
 2796 16b4 14308DE5 		str	r3, [sp, #20]
 2797 16b8 8205000A 		beq	.L1226
 2798 16bc 02005BE3 		cmp	fp, #2
 2799 16c0 F8209DE5 		ldr	r2, [sp, #248]
 2800 16c4 7E05000A 		beq	.L723
 2801 16c8 03005BE3 		cmp	fp, #3
 2802 16cc FC009DE5 		ldr	r0, [sp, #252]
 2803 16d0 D408000A 		beq	.L724
 2804 16d4 00319DE5 		ldr	r3, [sp, #256]
 2805 16d8 18308DE5 		str	r3, [sp, #24]
 2806              	.L317:
 2807 16dc 0C309DE5 		ldr	r3, [sp, #12]
 2808 16e0 E0409DE5 		ldr	r4, [sp, #224]
 2809 16e4 E4109DE5 		ldr	r1, [sp, #228]
 2810 16e8 010053E3 		cmp	r3, #1
 2811 16ec 4303000A 		beq	.L1227
 2812 16f0 020053E3 		cmp	r3, #2
 2813 16f4 4403001A 		bne	.L321
 2814 16f8 10309DE5 		ldr	r3, [sp, #16]
 2815 16fc 010053E3 		cmp	r3, #1
 2816 1700 4103001A 		bne	.L321
 2817              	.L320:
 2818 1704 010052E3 		cmp	r2, #1
 2819 1708 6B05001A 		bne	.L1228
 2820 170c 010050E3 		cmp	r0, #1
 2821 1710 6A05001A 		bne	.L323
 2822 1714 14309DE5 		ldr	r3, [sp, #20]
 2823 1718 000053E3 		cmp	r3, #0
 2824 171c 5C0000DA 		ble	.L328
 2825 1720 FC009DE5 		ldr	r0, [sp, #252]
 2826 1724 910402E0 		mul	r2, r1, r4
 2827 1728 F8309DE5 		ldr	r3, [sp, #248]
 2828 172c E8509DE5 		ldr	r5, [sp, #232]
 2829 1730 00C19DE5 		ldr	ip, [sp, #256]
 2830 1734 20308DE5 		str	r3, [sp, #32]
 2831 1738 900303E0 		mul	r3, r0, r3
 2832 173c 10208DE5 		str	r2, [sp, #16]
 2833 1740 24008DE5 		str	r0, [sp, #36]
 2834 1744 0221A0E1 		lsl	r2, r2, #2
 2835 1748 950108E0 		mul	r8, r5, r1
 2836 174c F4009DE5 		ldr	r0, [sp, #244]
 2837 1750 DC909DE5 		ldr	r9, [sp, #220]
 2838 1754 0331A0E1 		lsl	r3, r3, #2
 2839 1758 950202E0 		mul	r2, r5, r2
 2840 175c 1C008DE5 		str	r0, [sp, #28]
 2841 1760 0501A0E1 		lsl	r0, r5, #2
 2842 1764 9C0303E0 		mul	r3, ip, r3
 2843 1768 0881A0E1 		lsl	r8, r8, #2
 2844 176c 08608DE5 		str	r6, [sp, #8]
 2845 1770 0060A0E3 		mov	r6, #0
 2846 1774 04708DE5 		str	r7, [sp, #4]
 2847 1778 28C08DE5 		str	ip, [sp, #40]
 2848 177c 30208DE5 		str	r2, [sp, #48]
 2849 1780 2C308DE5 		str	r3, [sp, #44]
 2850              	.L329:
 2851 1784 18309DE5 		ldr	r3, [sp, #24]
 2852 1788 000053E3 		cmp	r3, #0
 2853 178c 340000DA 		ble	.L342
 2854 1790 08049DE9 		ldmib	sp, {r3, r10}
 2855 1794 0070A0E3 		mov	r7, #0
 2856 1798 0C308DE5 		str	r3, [sp, #12]
 2857              	.L327:
 2858 179c 000054E3 		cmp	r4, #0
 2859 17a0 F47ADFED 		vldr.32	s15, .L1275
 2860 17a4 150000DA 		ble	.L330
 2861 17a8 0AE0A0E1 		mov	lr, r10
 2862 17ac 00C0A0E3 		mov	ip, #0
 2863              	.L336:
 2864 17b0 000051E3 		cmp	r1, #0
 2865 17b4 0D0000DA 		ble	.L331
 2866 17b8 090056E1 		cmp	r6, r9
 2867 17bc 270300AA 		bge	.L332
 2868 17c0 0C0054E1 		cmp	r4, ip
 2869 17c4 240300DA 		ble	.L333
 2870 17c8 050057E1 		cmp	r7, r5
 2871 17cc 1A0300AA 		bge	.L1229
 2872 17d0 0E20A0E1 		mov	r2, lr
 2873 17d4 0030A0E3 		mov	r3, #0
 2874              	.L334:
 2875 17d8 007A92ED 		vldr.32	s14, [r2]
 2876 17dc 013083E2 		add	r3, r3, #1
 2877 17e0 010053E1 		cmp	r3, r1
 2878 17e4 002082E0 		add	r2, r2, r0
 2879 17e8 877A77EE 		vadd.f32	s15, s15, s14
 2880 17ec F9FFFF1A 		bne	.L334
 2881              	.L331:
 2882 17f0 01C08CE2 		add	ip, ip, #1
 2883 17f4 08E08EE0 		add	lr, lr, r8
 2884 17f8 04005CE1 		cmp	ip, r4
 2885 17fc EBFFFF1A 		bne	.L336
 2886              	.L330:
 2887 1800 04005BE3 		cmp	fp, #4
 2888 1804 2A05001A 		bne	.L1230
 2889 1808 1C309DE5 		ldr	r3, [sp, #28]
 2890 180c 030056E1 		cmp	r6, r3
 2891 1810 260500AA 		bge	.L1231
 2892 1814 20309DE5 		ldr	r3, [sp, #32]
 2893 1818 000053E3 		cmp	r3, #0
 2894 181c 220500DA 		ble	.L1232
 2895 1820 24309DE5 		ldr	r3, [sp, #36]
 2896 1824 000053E3 		cmp	r3, #0
 2897 1828 1E0500DA 		ble	.L1233
 2898 182c 28309DE5 		ldr	r3, [sp, #40]
 2899 1830 030057E1 		cmp	r7, r3
 2900 1834 1F0500AA 		bge	.L1234
 2901 1838 047A9DED 		vldr.32	s14, [sp, #16]	@ int
 2902 183c 017087E2 		add	r7, r7, #1
 2903 1840 18309DE5 		ldr	r3, [sp, #24]
 2904 1844 04A08AE2 		add	r10, r10, #4
 2905 1848 C77AB8EE 		vcvt.f32.s32	s14, s14
 2906 184c 030057E1 		cmp	r7, r3
 2907 1850 0C309DE5 		ldr	r3, [sp, #12]
 2908 1854 876AC7EE 		vdiv.f32	s13, s15, s14
 2909 1858 016AE3EC 		vstmia.32	r3!, {s13}
 2910 185c 0C308DE5 		str	r3, [sp, #12]
 2911 1860 CDFFFF1A 		bne	.L327
 2912              	.L342:
 2913 1864 04309DE5 		ldr	r3, [sp, #4]
 2914 1868 016086E2 		add	r6, r6, #1
 2915 186c 2C209DE5 		ldr	r2, [sp, #44]
 2916 1870 023083E0 		add	r3, r3, r2
 2917 1874 30209DE5 		ldr	r2, [sp, #48]
 2918 1878 04308DE5 		str	r3, [sp, #4]
 2919 187c 14309DE5 		ldr	r3, [sp, #20]
 2920 1880 060053E1 		cmp	r3, r6
 2921 1884 08309DE5 		ldr	r3, [sp, #8]
 2922 1888 023083E0 		add	r3, r3, r2
 2923 188c 08308DE5 		str	r3, [sp, #8]
 2924 1890 BBFFFF1A 		bne	.L329
 2925              	.L328:
 2926 1894 05005BE3 		cmp	fp, #5
 2927 1898 0A0000DA 		ble	.L589
 2928 189c F4009DE5 		ldr	r0, [sp, #244]
 2929 18a0 000050E3 		cmp	r0, #0
 2930 18a4 0700000A 		beq	.L589
 2931              	.L1173:
 2932 18a8 FEFFFFEB 		bl	_ZdaPv
 2933              	.L562:
 2934 18ac C0309DE5 		ldr	r3, [sp, #192]
 2935 18b0 050053E3 		cmp	r3, #5
 2936 18b4 030000DA 		ble	.L589
 2937 18b8 C4009DE5 		ldr	r0, [sp, #196]
 2938 18bc 000050E3 		cmp	r0, #0
 2939 18c0 0000000A 		beq	.L589
 2940 18c4 FEFFFFEB 		bl	_ZdaPv
 2941              	.L589:
 2942 18c8 A8309DE5 		ldr	r3, [sp, #168]
 2943 18cc 050053E3 		cmp	r3, #5
 2944 18d0 77FBFFDA 		ble	.L595
 2945 18d4 AC009DE5 		ldr	r0, [sp, #172]
 2946 18d8 000050E3 		cmp	r0, #0
 2947 18dc 74FBFF0A 		beq	.L595
 2948 18e0 FEFFFFEB 		bl	_ZdaPv
 2949 18e4 72FBFFEA 		b	.L595
 2950              	.L1218:
 2951 18e8 C41FA0E1 		asr	r1, r4, #31
 2952 18ec 010054E3 		cmp	r4, #1
 2953 18f0 0400A0E1 		mov	r0, r4
 2954 18f4 0030D1E2 		sbcs	r3, r1, #0
 2955 18f8 D90400BA 		blt	.L359
 2956 18fc 0020A0E3 		mov	r2, #0
 2957 1900 0030A0E3 		mov	r3, #0
 2958 1904 046046E2 		sub	r6, r6, #4
 2959 1908 0070A0E3 		mov	r7, #0
 2960              	.L366:
 2961 190c 0480B6E5 		ldr	r8, [r6, #4]!
 2962 1910 000058E3 		cmp	r8, #0
 2963 1914 0B8088B0 		addlt	r8, r8, fp
 2964 1918 08C0E0E1 		mvn	ip, r8
 2965 191c 0B0058E1 		cmp	r8, fp
 2966 1920 ACCFA0E1 		lsr	ip, ip, #31
 2967 1924 00C0A0A3 		movge	ip, #0
 2968 1928 00005CE3 		cmp	ip, #0
 2969 192c C102000A 		beq	.L634
 2970 1930 000057E3 		cmp	r7, #0
 2971 1934 0B0000DA 		ble	.L364
 2972 1938 D8C09DE5 		ldr	ip, [sp, #216]
 2973 193c 08005CE1 		cmp	ip, r8
 2974 1940 D8E08D12 		addne	lr, sp, #216
 2975 1944 00C0A013 		movne	ip, #0
 2976 1948 0300001A 		bne	.L363
 2977 194c 090000EA 		b	.L361
 2978              	.L1091:
 2979 1950 0440BEE5 		ldr	r4, [lr, #4]!
 2980 1954 080054E1 		cmp	r4, r8
 2981 1958 0600000A 		beq	.L361
 2982              	.L363:
 2983 195c 01C08CE2 		add	ip, ip, #1
 2984 1960 07005CE1 		cmp	ip, r7
 2985 1964 F9FFFF1A 		bne	.L1091
 2986              	.L364:
 2987 1968 42CF8DE2 		add	ip, sp, #264
 2988 196c 07C18CE0 		add	ip, ip, r7, lsl #2
 2989 1970 017087E2 		add	r7, r7, #1
 2990 1974 30800CE5 		str	r8, [ip, #-48]
 2991              	.L361:
 2992 1978 012092E2 		adds	r2, r2, #1
 2993 197c 0030A3E2 		adc	r3, r3, #0
 2994 1980 000052E1 		cmp	r2, r0
 2995 1984 01C0D3E0 		sbcs	ip, r3, r1
 2996 1988 DFFFFFBA 		blt	.L366
 2997              	.L726:
 2998 198c F0408DE2 		add	r4, sp, #240
 2999 1990 0B21A0E1 		lsl	r2, fp, #2
 3000 1994 0400A0E1 		mov	r0, r4
 3001 1998 0010A0E3 		mov	r1, #0
 3002 199c FEFFFFEB 		bl	memset
 3003              	.L725:
 3004 19a0 01304BE2 		sub	r3, fp, #1
 3005 19a4 28009DE5 		ldr	r0, [sp, #40]
 3006 19a8 0311A0E1 		lsl	r1, r3, #2
 3007 19ac 14308DE5 		str	r3, [sp, #20]
 3008 19b0 D8309DE5 		ldr	r3, [sp, #216]
 3009 19b4 09204BE2 		sub	r2, fp, #9
 3010 19b8 0720C2E3 		bic	r2, r2, #7
 3011 19bc 0060A0E3 		mov	r6, #0
 3012 19c0 00A0A0E1 		mov	r10, r0
 3013 19c4 01C080E0 		add	ip, r0, r1
 3014 19c8 1C308DE5 		str	r3, [sp, #28]
 3015 19cc 043064E2 		rsb	r3, r4, #4
 3016 19d0 089043E2 		sub	r9, r3, #8
 3017 19d4 011084E0 		add	r1, r4, r1
 3018 19d8 082082E2 		add	r2, r2, #8
 3019 19dc 18C08DE5 		str	ip, [sp, #24]
 3020 19e0 10108DE5 		str	r1, [sp, #16]
 3021 19e4 2C208DE5 		str	r2, [sp, #44]
 3022 19e8 20508DE5 		str	r5, [sp, #32]
 3023              	.L385:
 3024 19ec 00005BE3 		cmp	fp, #0
 3025 19f0 7B0200DA 		ble	.L755
 3026 19f4 08005BE3 		cmp	fp, #8
 3027 19f8 0030A0E3 		mov	r3, #0
 3028 19fc 760200DA 		ble	.L756
 3029 1a00 04209DE5 		ldr	r2, [sp, #4]
 3030 1a04 0450A0E1 		mov	r5, r4
 3031 1a08 24408DE5 		str	r4, [sp, #36]
 3032 1a0c 0380A0E1 		mov	r8, r3
 3033 1a10 2C409DE5 		ldr	r4, [sp, #44]
 3034 1a14 54E082E2 		add	lr, r2, #84
 3035              	.L369:
 3036 1a18 50101EE5 		ldr	r1, [lr, #-80]
 3037 1a1c 088088E2 		add	r8, r8, #8
 3038 1a20 002095E5 		ldr	r2, [r5]
 3039 1a24 040058E1 		cmp	r8, r4
 3040 1a28 080095E5 		ldr	r0, [r5, #8]
 3041 1a2c 205085E2 		add	r5, r5, #32
 3042 1a30 44C01EE5 		ldr	ip, [lr, #-68]
 3043 1a34 00F0DEF5 		pld	[lr]
 3044 1a38 20E08EE2 		add	lr, lr, #32
 3045 1a3c 912322E0 		mla	r2, r1, r3, r2
 3046 1a40 1C1015E5 		ldr	r1, [r5, #-28]
 3047 1a44 6C301EE5 		ldr	r3, [lr, #-108]
 3048 1a48 931222E0 		mla	r2, r3, r2, r1
 3049 1a4c 68101EE5 		ldr	r1, [lr, #-104]
 3050 1a50 143015E5 		ldr	r3, [r5, #-20]
 3051 1a54 910222E0 		mla	r2, r1, r2, r0
 3052 1a58 60101EE5 		ldr	r1, [lr, #-96]
 3053 1a5c 100015E5 		ldr	r0, [r5, #-16]
 3054 1a60 9C3223E0 		mla	r3, ip, r2, r3
 3055 1a64 0C2015E5 		ldr	r2, [r5, #-12]
 3056 1a68 58C01EE5 		ldr	ip, [lr, #-88]
 3057 1a6c 910323E0 		mla	r3, r1, r3, r0
 3058 1a70 5C101EE5 		ldr	r1, [lr, #-92]
 3059 1a74 080015E5 		ldr	r0, [r5, #-8]
 3060 1a78 912323E0 		mla	r3, r1, r3, r2
 3061 1a7c 54101EE5 		ldr	r1, [lr, #-84]
 3062 1a80 042015E5 		ldr	r2, [r5, #-4]
 3063 1a84 9C0323E0 		mla	r3, ip, r3, r0
 3064 1a88 912323E0 		mla	r3, r1, r3, r2
 3065 1a8c E1FFFF1A 		bne	.L369
 3066 1a90 24409DE5 		ldr	r4, [sp, #36]
 3067              	.L368:
 3068 1a94 0821A0E1 		lsl	r2, r8, #2
 3069 1a98 02108AE0 		add	r1, r10, r2
 3070 1a9c 022084E0 		add	r2, r4, r2
 3071              	.L370:
 3072 1aa0 04C091E4 		ldr	ip, [r1], #4
 3073 1aa4 018088E2 		add	r8, r8, #1
 3074 1aa8 040092E4 		ldr	r0, [r2], #4
 3075 1aac 0B0058E1 		cmp	r8, fp
 3076 1ab0 930C23E0 		mla	r3, r3, ip, r0
 3077 1ab4 F9FFFFBA 		blt	.L370
 3078 1ab8 1C509DE5 		ldr	r5, [sp, #28]
 3079 1abc 00E0A0E3 		mov	lr, #0
 3080 1ac0 0321A0E1 		lsl	r2, r3, #2
 3081 1ac4 0EC0A0E1 		mov	ip, lr
 3082              	.L377:
 3083 1ac8 000057E3 		cmp	r7, #0
 3084 1acc 0A0000DA 		ble	.L371
 3085 1ad0 05005CE1 		cmp	ip, r5
 3086 1ad4 D8108D12 		addne	r1, sp, #216
 3087 1ad8 0030A013 		movne	r3, #0
 3088 1adc 0300001A 		bne	.L374
 3089 1ae0 080000EA 		b	.L372
 3090              	.L1093:
 3091 1ae4 0400B1E5 		ldr	r0, [r1, #4]!
 3092 1ae8 0C0050E1 		cmp	r0, ip
 3093 1aec 0500000A 		beq	.L372
 3094              	.L374:
 3095 1af0 013083E2 		add	r3, r3, #1
 3096 1af4 070053E1 		cmp	r3, r7
 3097 1af8 F9FFFF1A 		bne	.L1093
 3098              	.L371:
 3099 1afc 0C119AE7 		ldr	r1, [r10, ip, lsl #2]
 3100 1b00 0C3194E7 		ldr	r3, [r4, ip, lsl #2]
 3101 1b04 913E2EE0 		mla	lr, r1, lr, r3
 3102              	.L372:
 3103 1b08 01C08CE2 		add	ip, ip, #1
 3104 1b0c 0B005CE1 		cmp	ip, fp
 3105 1b10 ECFFFF1A 		bne	.L377
 3106 1b14 0EE1A0E1 		lsl	lr, lr, #2
 3107              	.L367:
 3108 1b18 08309DE5 		ldr	r3, [sp, #8]
 3109 1b1c 0EE083E0 		add	lr, r3, lr
 3110 1b20 0C309DE5 		ldr	r3, [sp, #12]
 3111 1b24 007A9EED 		vldr.32	s14, [lr]
 3112 1b28 023083E0 		add	r3, r3, r2
 3113 1b2c 14209DE5 		ldr	r2, [sp, #20]
 3114 1b30 007AD3ED 		vldr.32	s15, [r3]
 3115 1b34 000052E3 		cmp	r2, #0
 3116 1b38 277A77EE 		vadd.f32	s15, s14, s15
 3117 1b3c 007ACEED 		vstr.32	s15, [lr]
 3118 1b40 190000BA 		blt	.L1150
 3119 1b44 10309DE5 		ldr	r3, [sp, #16]
 3120 1b48 002093E5 		ldr	r2, [r3]
 3121 1b4c 18309DE5 		ldr	r3, [sp, #24]
 3122 1b50 012082E2 		add	r2, r2, #1
 3123 1b54 003093E5 		ldr	r3, [r3]
 3124 1b58 020053E1 		cmp	r3, r2
 3125 1b5c 350200BA 		blt	.L634
 3126 1b60 10309D15 		ldrne	r3, [sp, #16]
 3127 1b64 2900001A 		bne	.L380
 3128 1b68 18009DE5 		ldr	r0, [sp, #24]
 3129 1b6c 10309DE5 		ldr	r3, [sp, #16]
 3130 1b70 14109DE5 		ldr	r1, [sp, #20]
 3131 1b74 080000EA 		b	.L382
 3132              	.L1276:
 3133              		.align	2
 3134              	.L1275:
 3135 1b78 00000000 		.word	0
 3136              	.L1094:
 3137 1b7c 012194E7 		ldr	r2, [r4, r1, lsl #2]
 3138 1b80 093083E0 		add	r3, r3, r9
 3139 1b84 04C030E5 		ldr	ip, [r0, #-4]!
 3140 1b88 033084E0 		add	r3, r4, r3
 3141 1b8c 012082E2 		add	r2, r2, #1
 3142 1b90 0C0052E1 		cmp	r2, ip
 3143 1b94 270200CA 		bgt	.L634
 3144 1b98 1C00001A 		bne	.L380
 3145              	.L382:
 3146 1b9c 011041E2 		sub	r1, r1, #1
 3147 1ba0 006083E5 		str	r6, [r3]
 3148 1ba4 010071E3 		cmn	r1, #1
 3149 1ba8 F3FFFF1A 		bne	.L1094
 3150              	.L1150:
 3151 1bac 000057E3 		cmp	r7, #0
 3152 1bb0 20509DE5 		ldr	r5, [sp, #32]
 3153 1bb4 460400DA 		ble	.L1235
 3154 1bb8 28309DE5 		ldr	r3, [sp, #40]
 3155 1bbc D8908DE2 		add	r9, sp, #216
 3156 1bc0 1C209DE5 		ldr	r2, [sp, #28]
 3157 1bc4 0140A0E3 		mov	r4, #1
 3158 1bc8 0060A0E3 		mov	r6, #0
 3159 1bcc 03A0A0E1 		mov	r10, r3
 3160 1bd0 028193E7 		ldr	r8, [r3, r2, lsl #2]
 3161 1bd4 060000EA 		b	.L386
 3162              	.L387:
 3163 1bd8 0430B9E5 		ldr	r3, [r9, #4]!
 3164 1bdc 0410A0E1 		mov	r1, r4
 3165 1be0 0000E0E3 		mvn	r0, #0
 3166 1be4 03819AE7 		ldr	r8, [r10, r3, lsl #2]
 3167 1be8 FEFFFFEB 		bl	__aeabi_uidiv
 3168 1bec 000058E1 		cmp	r8, r0
 3169 1bf0 4BF9FF8A 		bhi	.L1147
 3170              	.L386:
 3171 1bf4 016086E2 		add	r6, r6, #1
 3172 1bf8 980404E0 		mul	r4, r8, r4
 3173 1bfc 070056E1 		cmp	r6, r7
 3174 1c00 F4FFFF1A 		bne	.L387
 3175 1c04 000054E3 		cmp	r4, #0
 3176 1c08 45FCFF1A 		bne	.L388
 3177 1c0c A8FAFFEA 		b	.L595
 3178              	.L380:
 3179 1c10 002083E5 		str	r2, [r3]
 3180 1c14 74FFFFEA 		b	.L385
 3181              	.L1215:
 3182 1c18 C49FA0E1 		asr	r9, r4, #31
 3183 1c1c 010054E3 		cmp	r4, #1
 3184 1c20 0480A0E1 		mov	r8, r4
 3185 1c24 0030D9E2 		sbcs	r3, r9, #0
 3186 1c28 000400BA 		blt	.L773
 3187 1c2c 0000A0E3 		mov	r0, #0
 3188 1c30 0010A0E3 		mov	r1, #0
 3189 1c34 04B04BE2 		sub	fp, fp, #4
 3190 1c38 0070A0E3 		mov	r7, #0
 3191              	.L516:
 3192 1c3c 04E0BBE5 		ldr	lr, [fp, #4]!
 3193 1c40 00005EE3 		cmp	lr, #0
 3194 1c44 06E08EB0 		addlt	lr, lr, r6
 3195 1c48 00005EE3 		cmp	lr, #0
 3196 1c4c 0E0056A1 		cmpge	r6, lr
 3197 1c50 F80100DA 		ble	.L634
 3198 1c54 000057E3 		cmp	r7, #0
 3199 1c58 0B0000DA 		ble	.L514
 3200 1c5c D8309DE5 		ldr	r3, [sp, #216]
 3201 1c60 0E0053E1 		cmp	r3, lr
 3202 1c64 D8208D12 		addne	r2, sp, #216
 3203 1c68 0030A013 		movne	r3, #0
 3204 1c6c 0300001A 		bne	.L513
 3205 1c70 090000EA 		b	.L511
 3206              	.L1108:
 3207 1c74 04C0B2E5 		ldr	ip, [r2, #4]!
 3208 1c78 0E005CE1 		cmp	ip, lr
 3209 1c7c 0600000A 		beq	.L511
 3210              	.L513:
 3211 1c80 013083E2 		add	r3, r3, #1
 3212 1c84 070053E1 		cmp	r3, r7
 3213 1c88 F9FFFF1A 		bne	.L1108
 3214              	.L514:
 3215 1c8c 423F8DE2 		add	r3, sp, #264
 3216 1c90 073183E0 		add	r3, r3, r7, lsl #2
 3217 1c94 017087E2 		add	r7, r7, #1
 3218 1c98 30E003E5 		str	lr, [r3, #-48]
 3219              	.L511:
 3220 1c9c 010090E2 		adds	r0, r0, #1
 3221 1ca0 0010A1E2 		adc	r1, r1, #0
 3222 1ca4 080050E1 		cmp	r0, r8
 3223 1ca8 0930D1E0 		sbcs	r3, r1, r9
 3224 1cac E2FFFFBA 		blt	.L516
 3225              	.L509:
 3226 1cb0 000056E3 		cmp	r6, #0
 3227 1cb4 F0408DE2 		add	r4, sp, #240
 3228 1cb8 030000DA 		ble	.L733
 3229 1cbc 0621A0E1 		lsl	r2, r6, #2
 3230 1cc0 0400A0E1 		mov	r0, r4
 3231 1cc4 0010A0E3 		mov	r1, #0
 3232 1cc8 FEFFFFEB 		bl	memset
 3233              	.L733:
 3234 1ccc 013046E2 		sub	r3, r6, #1
 3235 1cd0 34009DE5 		ldr	r0, [sp, #52]
 3236 1cd4 0311A0E1 		lsl	r1, r3, #2
 3237 1cd8 10308DE5 		str	r3, [sp, #16]
 3238 1cdc D8309DE5 		ldr	r3, [sp, #216]
 3239 1ce0 092046E2 		sub	r2, r6, #9
 3240 1ce4 0720C2E3 		bic	r2, r2, #7
 3241 1ce8 0080A0E3 		mov	r8, #0
 3242 1cec 00B0A0E1 		mov	fp, r0
 3243 1cf0 01C080E0 		add	ip, r0, r1
 3244 1cf4 1C308DE5 		str	r3, [sp, #28]
 3245 1cf8 043064E2 		rsb	r3, r4, #4
 3246 1cfc 08A043E2 		sub	r10, r3, #8
 3247 1d00 011084E0 		add	r1, r4, r1
 3248 1d04 082082E2 		add	r2, r2, #8
 3249 1d08 14C08DE5 		str	ip, [sp, #20]
 3250 1d0c 0C108DE5 		str	r1, [sp, #12]
 3251 1d10 38208DE5 		str	r2, [sp, #56]
 3252 1d14 2C508DE5 		str	r5, [sp, #44]
 3253              	.L534:
 3254 1d18 000056E3 		cmp	r6, #0
 3255 1d1c 0030A0E3 		mov	r3, #0
 3256 1d20 B20100DA 		ble	.L774
 3257 1d24 080056E3 		cmp	r6, #8
 3258 1d28 B80100DA 		ble	.L775
 3259 1d2c 20209DE5 		ldr	r2, [sp, #32]
 3260 1d30 0450A0E1 		mov	r5, r4
 3261 1d34 30408DE5 		str	r4, [sp, #48]
 3262 1d38 0390A0E1 		mov	r9, r3
 3263 1d3c 38409DE5 		ldr	r4, [sp, #56]
 3264 1d40 54E082E2 		add	lr, r2, #84
 3265              	.L519:
 3266 1d44 50101EE5 		ldr	r1, [lr, #-80]
 3267 1d48 089089E2 		add	r9, r9, #8
 3268 1d4c 002095E5 		ldr	r2, [r5]
 3269 1d50 040059E1 		cmp	r9, r4
 3270 1d54 080095E5 		ldr	r0, [r5, #8]
 3271 1d58 205085E2 		add	r5, r5, #32
 3272 1d5c 44C01EE5 		ldr	ip, [lr, #-68]
 3273 1d60 00F0DEF5 		pld	[lr]
 3274 1d64 20E08EE2 		add	lr, lr, #32
 3275 1d68 912322E0 		mla	r2, r1, r3, r2
 3276 1d6c 1C1015E5 		ldr	r1, [r5, #-28]
 3277 1d70 6C301EE5 		ldr	r3, [lr, #-108]
 3278 1d74 931222E0 		mla	r2, r3, r2, r1
 3279 1d78 68101EE5 		ldr	r1, [lr, #-104]
 3280 1d7c 143015E5 		ldr	r3, [r5, #-20]
 3281 1d80 910222E0 		mla	r2, r1, r2, r0
 3282 1d84 60101EE5 		ldr	r1, [lr, #-96]
 3283 1d88 100015E5 		ldr	r0, [r5, #-16]
 3284 1d8c 9C3223E0 		mla	r3, ip, r2, r3
 3285 1d90 0C2015E5 		ldr	r2, [r5, #-12]
 3286 1d94 58C01EE5 		ldr	ip, [lr, #-88]
 3287 1d98 910323E0 		mla	r3, r1, r3, r0
 3288 1d9c 5C101EE5 		ldr	r1, [lr, #-92]
 3289 1da0 080015E5 		ldr	r0, [r5, #-8]
 3290 1da4 912323E0 		mla	r3, r1, r3, r2
 3291 1da8 54101EE5 		ldr	r1, [lr, #-84]
 3292 1dac 042015E5 		ldr	r2, [r5, #-4]
 3293 1db0 9C0323E0 		mla	r3, ip, r3, r0
 3294 1db4 912323E0 		mla	r3, r1, r3, r2
 3295 1db8 E1FFFF1A 		bne	.L519
 3296 1dbc 30409DE5 		ldr	r4, [sp, #48]
 3297              	.L518:
 3298 1dc0 0921A0E1 		lsl	r2, r9, #2
 3299 1dc4 02108BE0 		add	r1, fp, r2
 3300 1dc8 022084E0 		add	r2, r4, r2
 3301              	.L520:
 3302 1dcc 04C091E4 		ldr	ip, [r1], #4
 3303 1dd0 019089E2 		add	r9, r9, #1
 3304 1dd4 040092E4 		ldr	r0, [r2], #4
 3305 1dd8 090056E1 		cmp	r6, r9
 3306 1ddc 930C23E0 		mla	r3, r3, ip, r0
 3307 1de0 F9FFFFCA 		bgt	.L520
 3308 1de4 1C509DE5 		ldr	r5, [sp, #28]
 3309 1de8 00C0A0E3 		mov	ip, #0
 3310 1dec 0C00A0E1 		mov	r0, ip
 3311              	.L526:
 3312 1df0 000057E3 		cmp	r7, #0
 3313 1df4 0A0000DA 		ble	.L521
 3314 1df8 050050E1 		cmp	r0, r5
 3315 1dfc D8108D12 		addne	r1, sp, #216
 3316 1e00 0020A013 		movne	r2, #0
 3317 1e04 0300001A 		bne	.L524
 3318 1e08 080000EA 		b	.L522
 3319              	.L1110:
 3320 1e0c 04E0B1E5 		ldr	lr, [r1, #4]!
 3321 1e10 0E0050E1 		cmp	r0, lr
 3322 1e14 0500000A 		beq	.L522
 3323              	.L524:
 3324 1e18 012082E2 		add	r2, r2, #1
 3325 1e1c 070052E1 		cmp	r2, r7
 3326 1e20 F9FFFF1A 		bne	.L1110
 3327              	.L521:
 3328 1e24 00119BE7 		ldr	r1, [fp, r0, lsl #2]
 3329 1e28 002194E7 		ldr	r2, [r4, r0, lsl #2]
 3330 1e2c 912C2CE0 		mla	ip, r1, ip, r2
 3331              	.L522:
 3332 1e30 010080E2 		add	r0, r0, #1
 3333 1e34 000056E1 		cmp	r6, r0
 3334 1e38 ECFFFF1A 		bne	.L526
 3335 1e3c 0CC1A0E1 		lsl	ip, ip, #2
 3336              	.L517:
 3337 1e40 08209DE5 		ldr	r2, [sp, #8]
 3338 1e44 04109DE5 		ldr	r1, [sp, #4]
 3339 1e48 D32092E1 		ldrsb	r2, [r2, r3]
 3340 1e4c 10309DE5 		ldr	r3, [sp, #16]
 3341 1e50 000053E3 		cmp	r3, #0
 3342 1e54 0C3091E7 		ldr	r3, [r1, ip]
 3343 1e58 023083E0 		add	r3, r3, r2
 3344 1e5c 0C3081E7 		str	r3, [r1, ip]
 3345 1e60 180000BA 		blt	.L1152
 3346 1e64 0C309DE5 		ldr	r3, [sp, #12]
 3347 1e68 002093E5 		ldr	r2, [r3]
 3348 1e6c 14309DE5 		ldr	r3, [sp, #20]
 3349 1e70 012082E2 		add	r2, r2, #1
 3350 1e74 003093E5 		ldr	r3, [r3]
 3351 1e78 020053E1 		cmp	r3, r2
 3352 1e7c 6D0100BA 		blt	.L634
 3353 1e80 0C309D15 		ldrne	r3, [sp, #12]
 3354 1e84 2800001A 		bne	.L529
 3355 1e88 14009DE5 		ldr	r0, [sp, #20]
 3356 1e8c 0C309DE5 		ldr	r3, [sp, #12]
 3357 1e90 10109DE5 		ldr	r1, [sp, #16]
 3358 1e94 070000EA 		b	.L531
 3359              	.L1111:
 3360 1e98 012194E7 		ldr	r2, [r4, r1, lsl #2]
 3361 1e9c 0A3083E0 		add	r3, r3, r10
 3362 1ea0 04C030E5 		ldr	ip, [r0, #-4]!
 3363 1ea4 033084E0 		add	r3, r4, r3
 3364 1ea8 012082E2 		add	r2, r2, #1
 3365 1eac 0C0052E1 		cmp	r2, ip
 3366 1eb0 600100CA 		bgt	.L634
 3367 1eb4 1C00001A 		bne	.L529
 3368              	.L531:
 3369 1eb8 011041E2 		sub	r1, r1, #1
 3370 1ebc 008083E5 		str	r8, [r3]
 3371 1ec0 010071E3 		cmn	r1, #1
 3372 1ec4 F3FFFF1A 		bne	.L1111
 3373              	.L1152:
 3374 1ec8 000057E3 		cmp	r7, #0
 3375 1ecc 2C509DE5 		ldr	r5, [sp, #44]
 3376 1ed0 7D0300DA 		ble	.L1236
 3377 1ed4 34309DE5 		ldr	r3, [sp, #52]
 3378 1ed8 D8908DE2 		add	r9, sp, #216
 3379 1edc 1C209DE5 		ldr	r2, [sp, #28]
 3380 1ee0 0140A0E3 		mov	r4, #1
 3381 1ee4 0060A0E3 		mov	r6, #0
 3382 1ee8 03A0A0E1 		mov	r10, r3
 3383 1eec 028193E7 		ldr	r8, [r3, r2, lsl #2]
 3384 1ef0 060000EA 		b	.L535
 3385              	.L536:
 3386 1ef4 0430B9E5 		ldr	r3, [r9, #4]!
 3387 1ef8 0410A0E1 		mov	r1, r4
 3388 1efc 0000E0E3 		mvn	r0, #0
 3389 1f00 03819AE7 		ldr	r8, [r10, r3, lsl #2]
 3390 1f04 FEFFFFEB 		bl	__aeabi_uidiv
 3391 1f08 000058E1 		cmp	r8, r0
 3392 1f0c 84F8FF8A 		bhi	.L1147
 3393              	.L535:
 3394 1f10 016086E2 		add	r6, r6, #1
 3395 1f14 980404E0 		mul	r4, r8, r4
 3396 1f18 070056E1 		cmp	r6, r7
 3397 1f1c F4FFFF1A 		bne	.L536
 3398 1f20 000054E3 		cmp	r4, #0
 3399 1f24 3BF9FF1A 		bne	.L709
 3400 1f28 E1F9FFEA 		b	.L595
 3401              	.L529:
 3402 1f2c 002083E5 		str	r2, [r3]
 3403 1f30 78FFFFEA 		b	.L534
 3404              	.L1217:
 3405 1f34 C49FA0E1 		asr	r9, r4, #31
 3406 1f38 010054E3 		cmp	r4, #1
 3407 1f3c 0480A0E1 		mov	r8, r4
 3408 1f40 0030D9E2 		sbcs	r3, r9, #0
 3409 1f44 3D0300BA 		blt	.L794
 3410 1f48 0000A0E3 		mov	r0, #0
 3411 1f4c 0010A0E3 		mov	r1, #0
 3412 1f50 04B04BE2 		sub	fp, fp, #4
 3413 1f54 0070A0E3 		mov	r7, #0
 3414              	.L667:
 3415 1f58 04E0BBE5 		ldr	lr, [fp, #4]!
 3416 1f5c 00005EE3 		cmp	lr, #0
 3417 1f60 06E08EB0 		addlt	lr, lr, r6
 3418 1f64 00005EE3 		cmp	lr, #0
 3419 1f68 0E0056A1 		cmpge	r6, lr
 3420 1f6c 310100DA 		ble	.L634
 3421 1f70 000057E3 		cmp	r7, #0
 3422 1f74 0B0000DA 		ble	.L665
 3423 1f78 D8309DE5 		ldr	r3, [sp, #216]
 3424 1f7c 0E0053E1 		cmp	r3, lr
 3425 1f80 D8208D12 		addne	r2, sp, #216
 3426 1f84 0030A013 		movne	r3, #0
 3427 1f88 0300001A 		bne	.L664
 3428 1f8c 090000EA 		b	.L662
 3429              	.L1126:
 3430 1f90 04C0B2E5 		ldr	ip, [r2, #4]!
 3431 1f94 0E005CE1 		cmp	ip, lr
 3432 1f98 0600000A 		beq	.L662
 3433              	.L664:
 3434 1f9c 013083E2 		add	r3, r3, #1
 3435 1fa0 070053E1 		cmp	r3, r7
 3436 1fa4 F9FFFF1A 		bne	.L1126
 3437              	.L665:
 3438 1fa8 423F8DE2 		add	r3, sp, #264
 3439 1fac 073183E0 		add	r3, r3, r7, lsl #2
 3440 1fb0 017087E2 		add	r7, r7, #1
 3441 1fb4 30E003E5 		str	lr, [r3, #-48]
 3442              	.L662:
 3443 1fb8 010090E2 		adds	r0, r0, #1
 3444 1fbc 0010A1E2 		adc	r1, r1, #0
 3445 1fc0 080050E1 		cmp	r0, r8
 3446 1fc4 0930D1E0 		sbcs	r3, r1, r9
 3447 1fc8 E2FFFFBA 		blt	.L667
 3448              	.L660:
 3449 1fcc 000056E3 		cmp	r6, #0
 3450 1fd0 F0408DE2 		add	r4, sp, #240
 3451 1fd4 030000DA 		ble	.L741
 3452 1fd8 0621A0E1 		lsl	r2, r6, #2
 3453 1fdc 0400A0E1 		mov	r0, r4
 3454 1fe0 0010A0E3 		mov	r1, #0
 3455 1fe4 FEFFFFEB 		bl	memset
 3456              	.L741:
 3457 1fe8 013046E2 		sub	r3, r6, #1
 3458 1fec 34009DE5 		ldr	r0, [sp, #52]
 3459 1ff0 0311A0E1 		lsl	r1, r3, #2
 3460 1ff4 10308DE5 		str	r3, [sp, #16]
 3461 1ff8 D8309DE5 		ldr	r3, [sp, #216]
 3462 1ffc 092046E2 		sub	r2, r6, #9
 3463 2000 0720C2E3 		bic	r2, r2, #7
 3464 2004 0080A0E3 		mov	r8, #0
 3465 2008 00B0A0E1 		mov	fp, r0
 3466 200c 01C080E0 		add	ip, r0, r1
 3467 2010 1C308DE5 		str	r3, [sp, #28]
 3468 2014 043064E2 		rsb	r3, r4, #4
 3469 2018 08A043E2 		sub	r10, r3, #8
 3470 201c 011084E0 		add	r1, r4, r1
 3471 2020 082082E2 		add	r2, r2, #8
 3472 2024 14C08DE5 		str	ip, [sp, #20]
 3473 2028 0C108DE5 		str	r1, [sp, #12]
 3474 202c 38208DE5 		str	r2, [sp, #56]
 3475 2030 2C508DE5 		str	r5, [sp, #44]
 3476              	.L683:
 3477 2034 000056E3 		cmp	r6, #0
 3478 2038 0030A0E3 		mov	r3, #0
 3479 203c F70000DA 		ble	.L795
 3480 2040 080056E3 		cmp	r6, #8
 3481 2044 F30000DA 		ble	.L796
 3482 2048 20209DE5 		ldr	r2, [sp, #32]
 3483 204c 0450A0E1 		mov	r5, r4
 3484 2050 30408DE5 		str	r4, [sp, #48]
 3485 2054 0390A0E1 		mov	r9, r3
 3486 2058 38409DE5 		ldr	r4, [sp, #56]
 3487 205c 54E082E2 		add	lr, r2, #84
 3488              	.L670:
 3489 2060 50101EE5 		ldr	r1, [lr, #-80]
 3490 2064 089089E2 		add	r9, r9, #8
 3491 2068 002095E5 		ldr	r2, [r5]
 3492 206c 040059E1 		cmp	r9, r4
 3493 2070 080095E5 		ldr	r0, [r5, #8]
 3494 2074 205085E2 		add	r5, r5, #32
 3495 2078 44C01EE5 		ldr	ip, [lr, #-68]
 3496 207c 00F0DEF5 		pld	[lr]
 3497 2080 20E08EE2 		add	lr, lr, #32
 3498 2084 912322E0 		mla	r2, r1, r3, r2
 3499 2088 1C1015E5 		ldr	r1, [r5, #-28]
 3500 208c 6C301EE5 		ldr	r3, [lr, #-108]
 3501 2090 931222E0 		mla	r2, r3, r2, r1
 3502 2094 68101EE5 		ldr	r1, [lr, #-104]
 3503 2098 143015E5 		ldr	r3, [r5, #-20]
 3504 209c 910222E0 		mla	r2, r1, r2, r0
 3505 20a0 60101EE5 		ldr	r1, [lr, #-96]
 3506 20a4 100015E5 		ldr	r0, [r5, #-16]
 3507 20a8 9C3223E0 		mla	r3, ip, r2, r3
 3508 20ac 0C2015E5 		ldr	r2, [r5, #-12]
 3509 20b0 58C01EE5 		ldr	ip, [lr, #-88]
 3510 20b4 910323E0 		mla	r3, r1, r3, r0
 3511 20b8 5C101EE5 		ldr	r1, [lr, #-92]
 3512 20bc 080015E5 		ldr	r0, [r5, #-8]
 3513 20c0 912323E0 		mla	r3, r1, r3, r2
 3514 20c4 54101EE5 		ldr	r1, [lr, #-84]
 3515 20c8 042015E5 		ldr	r2, [r5, #-4]
 3516 20cc 9C0323E0 		mla	r3, ip, r3, r0
 3517 20d0 912323E0 		mla	r3, r1, r3, r2
 3518 20d4 E1FFFF1A 		bne	.L670
 3519 20d8 30409DE5 		ldr	r4, [sp, #48]
 3520              	.L669:
 3521 20dc 0921A0E1 		lsl	r2, r9, #2
 3522 20e0 02108BE0 		add	r1, fp, r2
 3523 20e4 022084E0 		add	r2, r4, r2
 3524              	.L671:
 3525 20e8 04C091E4 		ldr	ip, [r1], #4
 3526 20ec 019089E2 		add	r9, r9, #1
 3527 20f0 040092E4 		ldr	r0, [r2], #4
 3528 20f4 090056E1 		cmp	r6, r9
 3529 20f8 930C23E0 		mla	r3, r3, ip, r0
 3530 20fc F9FFFFCA 		bgt	.L671
 3531 2100 1C509DE5 		ldr	r5, [sp, #28]
 3532 2104 00C0A0E3 		mov	ip, #0
 3533 2108 0C00A0E1 		mov	r0, ip
 3534              	.L677:
 3535 210c 000057E3 		cmp	r7, #0
 3536 2110 0A0000DA 		ble	.L672
 3537 2114 000055E1 		cmp	r5, r0
 3538 2118 D8108D12 		addne	r1, sp, #216
 3539 211c 0020A013 		movne	r2, #0
 3540 2120 0300001A 		bne	.L675
 3541 2124 080000EA 		b	.L673
 3542              	.L1128:
 3543 2128 04E0B1E5 		ldr	lr, [r1, #4]!
 3544 212c 0E0050E1 		cmp	r0, lr
 3545 2130 0500000A 		beq	.L673
 3546              	.L675:
 3547 2134 012082E2 		add	r2, r2, #1
 3548 2138 020057E1 		cmp	r7, r2
 3549 213c F9FFFF1A 		bne	.L1128
 3550              	.L672:
 3551 2140 00119BE7 		ldr	r1, [fp, r0, lsl #2]
 3552 2144 002194E7 		ldr	r2, [r4, r0, lsl #2]
 3553 2148 912C2CE0 		mla	ip, r1, ip, r2
 3554              	.L673:
 3555 214c 010080E2 		add	r0, r0, #1
 3556 2150 000056E1 		cmp	r6, r0
 3557 2154 ECFFFF1A 		bne	.L677
 3558 2158 0CC1A0E1 		lsl	ip, ip, #2
 3559              	.L668:
 3560 215c 08209DE5 		ldr	r2, [sp, #8]
 3561 2160 04109DE5 		ldr	r1, [sp, #4]
 3562 2164 0320D2E7 		ldrb	r2, [r2, r3]	@ zero_extendqisi2
 3563 2168 10309DE5 		ldr	r3, [sp, #16]
 3564 216c 000053E3 		cmp	r3, #0
 3565 2170 0C3091E7 		ldr	r3, [r1, ip]
 3566 2174 023083E0 		add	r3, r3, r2
 3567 2178 0C3081E7 		str	r3, [r1, ip]
 3568 217c 180000BA 		blt	.L1154
 3569 2180 0C309DE5 		ldr	r3, [sp, #12]
 3570 2184 002093E5 		ldr	r2, [r3]
 3571 2188 14309DE5 		ldr	r3, [sp, #20]
 3572 218c 012082E2 		add	r2, r2, #1
 3573 2190 003093E5 		ldr	r3, [r3]
 3574 2194 030052E1 		cmp	r2, r3
 3575 2198 A60000CA 		bgt	.L634
 3576 219c 0C309D15 		ldrne	r3, [sp, #12]
 3577 21a0 2800001A 		bne	.L679
 3578 21a4 14009DE5 		ldr	r0, [sp, #20]
 3579 21a8 0C309DE5 		ldr	r3, [sp, #12]
 3580 21ac 10109DE5 		ldr	r1, [sp, #16]
 3581 21b0 070000EA 		b	.L680
 3582              	.L1129:
 3583 21b4 012194E7 		ldr	r2, [r4, r1, lsl #2]
 3584 21b8 0A3083E0 		add	r3, r3, r10
 3585 21bc 04C030E5 		ldr	ip, [r0, #-4]!
 3586 21c0 033084E0 		add	r3, r4, r3
 3587 21c4 012082E2 		add	r2, r2, #1
 3588 21c8 0C0052E1 		cmp	r2, ip
 3589 21cc 990000CA 		bgt	.L634
 3590 21d0 1C00001A 		bne	.L679
 3591              	.L680:
 3592 21d4 011041E2 		sub	r1, r1, #1
 3593 21d8 008083E5 		str	r8, [r3]
 3594 21dc 010071E3 		cmn	r1, #1
 3595 21e0 F3FFFF1A 		bne	.L1129
 3596              	.L1154:
 3597 21e4 000057E3 		cmp	r7, #0
 3598 21e8 2C509DE5 		ldr	r5, [sp, #44]
 3599 21ec A90200DA 		ble	.L1237
 3600 21f0 34309DE5 		ldr	r3, [sp, #52]
 3601 21f4 0140A0E3 		mov	r4, #1
 3602 21f8 1C209DE5 		ldr	r2, [sp, #28]
 3603 21fc D8908DE2 		add	r9, sp, #216
 3604 2200 0060A0E3 		mov	r6, #0
 3605 2204 03A0A0E1 		mov	r10, r3
 3606 2208 028193E7 		ldr	r8, [r3, r2, lsl #2]
 3607 220c 060000EA 		b	.L684
 3608              	.L685:
 3609 2210 0430B9E5 		ldr	r3, [r9, #4]!
 3610 2214 0410A0E1 		mov	r1, r4
 3611 2218 0000E0E3 		mvn	r0, #0
 3612 221c 03819AE7 		ldr	r8, [r10, r3, lsl #2]
 3613 2220 FEFFFFEB 		bl	__aeabi_uidiv
 3614 2224 000058E1 		cmp	r8, r0
 3615 2228 BDF7FF8A 		bhi	.L1147
 3616              	.L684:
 3617 222c 016086E2 		add	r6, r6, #1
 3618 2230 980404E0 		mul	r4, r8, r4
 3619 2234 070056E1 		cmp	r6, r7
 3620 2238 F4FFFF1A 		bne	.L685
 3621 223c 000054E3 		cmp	r4, #0
 3622 2240 E1F9FF1A 		bne	.L721
 3623 2244 1AF9FFEA 		b	.L595
 3624              	.L679:
 3625 2248 002083E5 		str	r2, [r3]
 3626 224c 78FFFFEA 		b	.L683
 3627              	.L1221:
 3628 2250 F03ADDE1 		ldrsh	r3, [sp, #160]
 3629 2254 021043E2 		sub	r1, r3, #2
 3630 2258 10308DE5 		str	r3, [sp, #16]
 3631 225c 111F6FE1 		clz	r1, r1
 3632 2260 A112A0E1 		lsr	r1, r1, #5
 3633 2264 C7FCFFEA 		b	.L302
 3634              	.L650:
 3635 2268 080055E3 		cmp	r5, #8
 3636 226c 7502009A 		bls	.L793
 3637 2270 0C10A0E1 		mov	r1, ip
 3638 2274 09C045E2 		sub	ip, r5, #9
 3639 2278 07C0CCE3 		bic	ip, ip, #7
 3640 227c 0300A0E1 		mov	r0, r3
 3641 2280 08C08CE2 		add	ip, ip, #8
 3642 2284 64208EE2 		add	r2, lr, #100
 3643              	.L656:
 3644 2288 080080E2 		add	r0, r0, #8
 3645 228c 0030C1E5 		strb	r3, [r1]
 3646 2290 0C0050E1 		cmp	r0, ip
 3647 2294 00F0D2F5 		pld	[r2]
 3648 2298 643002E5 		str	r3, [r2, #-100]
 3649 229c 081081E2 		add	r1, r1, #8
 3650 22a0 073041E5 		strb	r3, [r1, #-7]
 3651 22a4 202082E2 		add	r2, r2, #32
 3652 22a8 803002E5 		str	r3, [r2, #-128]
 3653 22ac 063041E5 		strb	r3, [r1, #-6]
 3654 22b0 7C3002E5 		str	r3, [r2, #-124]
 3655 22b4 053041E5 		strb	r3, [r1, #-5]
 3656 22b8 783002E5 		str	r3, [r2, #-120]
 3657 22bc 043041E5 		strb	r3, [r1, #-4]
 3658 22c0 743002E5 		str	r3, [r2, #-116]
 3659 22c4 033041E5 		strb	r3, [r1, #-3]
 3660 22c8 703002E5 		str	r3, [r2, #-112]
 3661 22cc 023041E5 		strb	r3, [r1, #-2]
 3662 22d0 6C3002E5 		str	r3, [r2, #-108]
 3663 22d4 013041E5 		strb	r3, [r1, #-1]
 3664 22d8 683002E5 		str	r3, [r2, #-104]
 3665 22dc E9FFFF1A 		bne	.L656
 3666 22e0 04309DE5 		ldr	r3, [sp, #4]
 3667              	.L655:
 3668 22e4 18009DE5 		ldr	r0, [sp, #24]
 3669 22e8 0C1183E0 		add	r1, r3, ip, lsl #2
 3670 22ec 0020A0E3 		mov	r2, #0
 3671 22f0 0C3080E0 		add	r3, r0, ip
 3672 22f4 00C0A0E1 		mov	ip, r0
 3673              	.L658:
 3674 22f8 0120C3E4 		strb	r2, [r3], #1
 3675 22fc 0C0043E0 		sub	r0, r3, ip
 3676 2300 000055E1 		cmp	r5, r0
 3677 2304 042081E4 		str	r2, [r1], #4
 3678 2308 FAFFFF8A 		bhi	.L658
 3679 230c A2F9FFEA 		b	.L647
 3680              	.L499:
 3681 2310 080055E3 		cmp	r5, #8
 3682 2314 3E02009A 		bls	.L772
 3683 2318 0C20A0E1 		mov	r2, ip
 3684 231c 09C045E2 		sub	ip, r5, #9
 3685 2320 07C0CCE3 		bic	ip, ip, #7
 3686 2324 0E10A0E1 		mov	r1, lr
 3687 2328 0300A0E1 		mov	r0, r3
 3688 232c 08C08CE2 		add	ip, ip, #8
 3689 2330 642082E2 		add	r2, r2, #100
 3690              	.L505:
 3691 2334 080080E2 		add	r0, r0, #8
 3692 2338 0030C1E5 		strb	r3, [r1]
 3693 233c 0C0050E1 		cmp	r0, ip
 3694 2340 00F0D2F5 		pld	[r2]
 3695 2344 643002E5 		str	r3, [r2, #-100]
 3696 2348 081081E2 		add	r1, r1, #8
 3697 234c 073041E5 		strb	r3, [r1, #-7]
 3698 2350 202082E2 		add	r2, r2, #32
 3699 2354 803002E5 		str	r3, [r2, #-128]
 3700 2358 063041E5 		strb	r3, [r1, #-6]
 3701 235c 7C3002E5 		str	r3, [r2, #-124]
 3702 2360 053041E5 		strb	r3, [r1, #-5]
 3703 2364 783002E5 		str	r3, [r2, #-120]
 3704 2368 043041E5 		strb	r3, [r1, #-4]
 3705 236c 743002E5 		str	r3, [r2, #-116]
 3706 2370 033041E5 		strb	r3, [r1, #-3]
 3707 2374 703002E5 		str	r3, [r2, #-112]
 3708 2378 023041E5 		strb	r3, [r1, #-2]
 3709 237c 6C3002E5 		str	r3, [r2, #-108]
 3710 2380 013041E5 		strb	r3, [r1, #-1]
 3711 2384 683002E5 		str	r3, [r2, #-104]
 3712 2388 E9FFFF1A 		bne	.L505
 3713 238c 18009DE5 		ldr	r0, [sp, #24]
 3714              	.L504:
 3715 2390 04309DE5 		ldr	r3, [sp, #4]
 3716 2394 0020A0E3 		mov	r2, #0
 3717 2398 0C1183E0 		add	r1, r3, ip, lsl #2
 3718 239c 0C3080E0 		add	r3, r0, ip
 3719 23a0 00C0A0E1 		mov	ip, r0
 3720              	.L507:
 3721 23a4 0120C3E4 		strb	r2, [r3], #1
 3722 23a8 0C0043E0 		sub	r0, r3, ip
 3723 23ac 000055E1 		cmp	r5, r0
 3724 23b0 042081E4 		str	r2, [r1], #4
 3725 23b4 FAFFFF8A 		bhi	.L507
 3726 23b8 0AF8FFEA 		b	.L496
 3727              	.L1225:
 3728 23bc F4309DE5 		ldr	r3, [sp, #244]
 3729 23c0 002093E5 		ldr	r2, [r3]
 3730 23c4 080093E5 		ldr	r0, [r3, #8]
 3731 23c8 14208DE5 		str	r2, [sp, #20]
 3732 23cc 042093E5 		ldr	r2, [r3, #4]
 3733 23d0 0C3093E5 		ldr	r3, [r3, #12]
 3734 23d4 18308DE5 		str	r3, [sp, #24]
 3735 23d8 BFFCFFEA 		b	.L317
 3736              	.L756:
 3737 23dc 0380A0E1 		mov	r8, r3
 3738 23e0 ABFDFFEA 		b	.L368
 3739              	.L755:
 3740 23e4 0020A0E3 		mov	r2, #0
 3741 23e8 02E0A0E1 		mov	lr, r2
 3742 23ec C9FDFFEA 		b	.L367
 3743              	.L774:
 3744 23f0 03C0A0E1 		mov	ip, r3
 3745 23f4 91FEFFEA 		b	.L517
 3746              	.L754:
 3747 23f8 0150A0E3 		mov	r5, #1
 3748 23fc 36FAFFEA 		b	.L352
 3749              	.L1227:
 3750 2400 10309DE5 		ldr	r3, [sp, #16]
 3751 2404 020053E3 		cmp	r3, #2
 3752 2408 BDFCFF0A 		beq	.L320
 3753              	.L321:
 3754              	.LEHB4:
 3755 240c FEFFFFEB 		bl	abort
 3756              	.LEHE4:
 3757              	.L775:
 3758 2410 0390A0E1 		mov	r9, r3
 3759 2414 69FEFFEA 		b	.L518
 3760              	.L796:
 3761 2418 0390A0E1 		mov	r9, r3
 3762 241c 2EFFFFEA 		b	.L669
 3763              	.L795:
 3764 2420 03C0A0E1 		mov	ip, r3
 3765 2424 4CFFFFEA 		b	.L668
 3766              	.L771:
 3767 2428 0150A0E3 		mov	r5, #1
 3768 242c 6EF7FFEA 		b	.L494
 3769              	.L792:
 3770 2430 0150A0E3 		mov	r5, #1
 3771 2434 D8F8FFEA 		b	.L645
 3772              	.L634:
 3773              	.LEHB5:
 3774 2438 FEFFFFEB 		bl	abort
 3775              	.LEHE5:
 3776              	.L1229:
 3777              	.LEHB6:
 3778 243c FEFFFFEB 		bl	abort
 3779              	.L816:
 3780 2440 05005BE3 		cmp	fp, #5
 3781 2444 7FFCFFDA 		ble	.L443
 3782              	.L1178:
 3783 2448 F4009DE5 		ldr	r0, [sp, #244]
 3784 244c 000050E3 		cmp	r0, #0
 3785 2450 7CFCFF0A 		beq	.L443
 3786 2454 FEFFFFEB 		bl	_ZdaPv
 3787 2458 7AFCFFEA 		b	.L443
 3788              	.L333:
 3789 245c FEFFFFEB 		bl	abort
 3790              	.L332:
 3791 2460 FEFFFFEB 		bl	abort
 3792              	.LEHE6:
 3793              	.L1220:
 3794 2464 C49FA0E1 		asr	r9, r4, #31
 3795 2468 010054E3 		cmp	r4, #1
 3796 246c 0480A0E1 		mov	r8, r4
 3797 2470 0030D9E2 		sbcs	r3, r9, #0
 3798 2474 640500BA 		blt	.L765
 3799 2478 0C409DE5 		ldr	r4, [sp, #12]
 3800 247c 0000A0E3 		mov	r0, #0
 3801 2480 0010A0E3 		mov	r1, #0
 3802 2484 047047E2 		sub	r7, r7, #4
 3803 2488 0060A0E3 		mov	r6, #0
 3804              	.L469:
 3805 248c 04E0B7E5 		ldr	lr, [r7, #4]!
 3806 2490 00005EE3 		cmp	lr, #0
 3807 2494 04E08EB0 		addlt	lr, lr, r4
 3808 2498 00005EE3 		cmp	lr, #0
 3809 249c 0E0054A1 		cmpge	r4, lr
 3810 24a0 E4FFFFDA 		ble	.L634
 3811 24a4 000056E3 		cmp	r6, #0
 3812 24a8 0B0000DA 		ble	.L467
 3813 24ac D8309DE5 		ldr	r3, [sp, #216]
 3814 24b0 0E0053E1 		cmp	r3, lr
 3815 24b4 D8208D12 		addne	r2, sp, #216
 3816 24b8 0030A013 		movne	r3, #0
 3817 24bc 0300001A 		bne	.L466
 3818 24c0 090000EA 		b	.L464
 3819              	.L1101:
 3820 24c4 04C0B2E5 		ldr	ip, [r2, #4]!
 3821 24c8 0E005CE1 		cmp	ip, lr
 3822 24cc 0600000A 		beq	.L464
 3823              	.L466:
 3824 24d0 013083E2 		add	r3, r3, #1
 3825 24d4 030056E1 		cmp	r6, r3
 3826 24d8 F9FFFF1A 		bne	.L1101
 3827              	.L467:
 3828 24dc 423F8DE2 		add	r3, sp, #264
 3829 24e0 063183E0 		add	r3, r3, r6, lsl #2
 3830 24e4 016086E2 		add	r6, r6, #1
 3831 24e8 30E003E5 		str	lr, [r3, #-48]
 3832              	.L464:
 3833 24ec 010090E2 		adds	r0, r0, #1
 3834 24f0 0010A1E2 		adc	r1, r1, #0
 3835 24f4 080050E1 		cmp	r0, r8
 3836 24f8 0930D1E0 		sbcs	r3, r1, r9
 3837 24fc E2FFFFBA 		blt	.L469
 3838              	.L462:
 3839 2500 0C309DE5 		ldr	r3, [sp, #12]
 3840 2504 F0408DE2 		add	r4, sp, #240
 3841 2508 000053E3 		cmp	r3, #0
 3842 250c 03A0A0D1 		movle	r10, r3
 3843 2510 040000DA 		ble	.L730
 3844 2514 0321A0E1 		lsl	r2, r3, #2
 3845 2518 0400A0E1 		mov	r0, r4
 3846 251c 0010A0E3 		mov	r1, #0
 3847 2520 FEFFFFEB 		bl	memset
 3848 2524 0CA09DE5 		ldr	r10, [sp, #12]
 3849              	.L730:
 3850 2528 D8309DE5 		ldr	r3, [sp, #216]
 3851 252c 01204AE2 		sub	r2, r10, #1
 3852 2530 0210A0E1 		mov	r1, r2
 3853 2534 18009DE5 		ldr	r0, [sp, #24]
 3854 2538 0111A0E1 		lsl	r1, r1, #2
 3855 253c 14208DE5 		str	r2, [sp, #20]
 3856 2540 1C308DE5 		str	r3, [sp, #28]
 3857 2544 09204AE2 		sub	r2, r10, #9
 3858 2548 043064E2 		rsb	r3, r4, #4
 3859 254c 0720C2E3 		bic	r2, r2, #7
 3860 2550 087043E2 		sub	r7, r3, #8
 3861 2554 0080A0E3 		mov	r8, #0
 3862 2558 010080E0 		add	r0, r0, r1
 3863 255c 082082E2 		add	r2, r2, #8
 3864 2560 011084E0 		add	r1, r4, r1
 3865 2564 10008DE5 		str	r0, [sp, #16]
 3866 2568 0C108DE5 		str	r1, [sp, #12]
 3867 256c 28208DE5 		str	r2, [sp, #40]
 3868 2570 24508DE5 		str	r5, [sp, #36]
 3869              	.L487:
 3870 2574 00005AE3 		cmp	r10, #0
 3871 2578 0030A0E3 		mov	r3, #0
 3872 257c A90100DA 		ble	.L766
 3873 2580 08005AE3 		cmp	r10, #8
 3874 2584 A50100DA 		ble	.L767
 3875 2588 20209DE5 		ldr	r2, [sp, #32]
 3876 258c 0450A0E1 		mov	r5, r4
 3877 2590 2C408DE5 		str	r4, [sp, #44]
 3878 2594 0390A0E1 		mov	r9, r3
 3879 2598 28409DE5 		ldr	r4, [sp, #40]
 3880 259c 54E082E2 		add	lr, r2, #84
 3881              	.L472:
 3882 25a0 50101EE5 		ldr	r1, [lr, #-80]
 3883 25a4 089089E2 		add	r9, r9, #8
 3884 25a8 002095E5 		ldr	r2, [r5]
 3885 25ac 040059E1 		cmp	r9, r4
 3886 25b0 4C001EE5 		ldr	r0, [lr, #-76]
 3887 25b4 205085E2 		add	r5, r5, #32
 3888 25b8 18C015E5 		ldr	ip, [r5, #-24]
 3889 25bc 00F0DEF5 		pld	[lr]
 3890 25c0 20E08EE2 		add	lr, lr, #32
 3891 25c4 912323E0 		mla	r3, r1, r3, r2
 3892 25c8 1C1015E5 		ldr	r1, [r5, #-28]
 3893 25cc 68201EE5 		ldr	r2, [lr, #-104]
 3894 25d0 901323E0 		mla	r3, r0, r3, r1
 3895 25d4 60101EE5 		ldr	r1, [lr, #-96]
 3896 25d8 100015E5 		ldr	r0, [r5, #-16]
 3897 25dc 92C323E0 		mla	r3, r2, r3, ip
 3898 25e0 64201EE5 		ldr	r2, [lr, #-100]
 3899 25e4 14C015E5 		ldr	ip, [r5, #-20]
 3900 25e8 92C323E0 		mla	r3, r2, r3, ip
 3901 25ec 0C2015E5 		ldr	r2, [r5, #-12]
 3902 25f0 58C01EE5 		ldr	ip, [lr, #-88]
 3903 25f4 910323E0 		mla	r3, r1, r3, r0
 3904 25f8 5C101EE5 		ldr	r1, [lr, #-92]
 3905 25fc 080015E5 		ldr	r0, [r5, #-8]
 3906 2600 912323E0 		mla	r3, r1, r3, r2
 3907 2604 54101EE5 		ldr	r1, [lr, #-84]
 3908 2608 042015E5 		ldr	r2, [r5, #-4]
 3909 260c 9C0323E0 		mla	r3, ip, r3, r0
 3910 2610 912323E0 		mla	r3, r1, r3, r2
 3911 2614 E1FFFF1A 		bne	.L472
 3912 2618 2C409DE5 		ldr	r4, [sp, #44]
 3913              	.L471:
 3914 261c 18109DE5 		ldr	r1, [sp, #24]
 3915 2620 0921A0E1 		lsl	r2, r9, #2
 3916 2624 021081E0 		add	r1, r1, r2
 3917 2628 022084E0 		add	r2, r4, r2
 3918              	.L473:
 3919 262c 04C091E4 		ldr	ip, [r1], #4
 3920 2630 019089E2 		add	r9, r9, #1
 3921 2634 040092E4 		ldr	r0, [r2], #4
 3922 2638 09005AE1 		cmp	r10, r9
 3923 263c 930C23E0 		mla	r3, r3, ip, r0
 3924 2640 F9FFFFCA 		bgt	.L473
 3925 2644 18909DE5 		ldr	r9, [sp, #24]
 3926 2648 00E0A0E3 		mov	lr, #0
 3927 264c 1C509DE5 		ldr	r5, [sp, #28]
 3928 2650 0EC0A0E1 		mov	ip, lr
 3929              	.L479:
 3930 2654 000056E3 		cmp	r6, #0
 3931 2658 0A0000DA 		ble	.L474
 3932 265c 05005CE1 		cmp	ip, r5
 3933 2660 D8108D12 		addne	r1, sp, #216
 3934 2664 0020A013 		movne	r2, #0
 3935 2668 0300001A 		bne	.L477
 3936 266c 080000EA 		b	.L475
 3937              	.L1103:
 3938 2670 0400B1E5 		ldr	r0, [r1, #4]!
 3939 2674 0C0050E1 		cmp	r0, ip
 3940 2678 0500000A 		beq	.L475
 3941              	.L477:
 3942 267c 012082E2 		add	r2, r2, #1
 3943 2680 020056E1 		cmp	r6, r2
 3944 2684 F9FFFF1A 		bne	.L1103
 3945              	.L474:
 3946 2688 0C1199E7 		ldr	r1, [r9, ip, lsl #2]
 3947 268c 0C2194E7 		ldr	r2, [r4, ip, lsl #2]
 3948 2690 912E2EE0 		mla	lr, r1, lr, r2
 3949              	.L475:
 3950 2694 01C08CE2 		add	ip, ip, #1
 3951 2698 0C005AE1 		cmp	r10, ip
 3952 269c ECFFFF1A 		bne	.L479
 3953 26a0 0EE1A0E1 		lsl	lr, lr, #2
 3954              	.L470:
 3955 26a4 08209DE5 		ldr	r2, [sp, #8]
 3956 26a8 D32092E1 		ldrsb	r2, [r2, r3]
 3957 26ac 14309DE5 		ldr	r3, [sp, #20]
 3958 26b0 000053E3 		cmp	r3, #0
 3959 26b4 0E309BE7 		ldr	r3, [fp, lr]
 3960 26b8 023083E0 		add	r3, r3, r2
 3961 26bc 0E308BE7 		str	r3, [fp, lr]
 3962 26c0 180000BA 		blt	.L1151
 3963 26c4 0C309DE5 		ldr	r3, [sp, #12]
 3964 26c8 002093E5 		ldr	r2, [r3]
 3965 26cc 10309DE5 		ldr	r3, [sp, #16]
 3966 26d0 012082E2 		add	r2, r2, #1
 3967 26d4 003093E5 		ldr	r3, [r3]
 3968 26d8 020053E1 		cmp	r3, r2
 3969 26dc 55FFFFBA 		blt	.L634
 3970 26e0 0C309D15 		ldrne	r3, [sp, #12]
 3971 26e4 2800001A 		bne	.L482
 3972 26e8 10009DE5 		ldr	r0, [sp, #16]
 3973 26ec 0C309DE5 		ldr	r3, [sp, #12]
 3974 26f0 14109DE5 		ldr	r1, [sp, #20]
 3975 26f4 070000EA 		b	.L484
 3976              	.L1104:
 3977 26f8 012194E7 		ldr	r2, [r4, r1, lsl #2]
 3978 26fc 073083E0 		add	r3, r3, r7
 3979 2700 04C030E5 		ldr	ip, [r0, #-4]!
 3980 2704 033084E0 		add	r3, r4, r3
 3981 2708 012082E2 		add	r2, r2, #1
 3982 270c 0C0052E1 		cmp	r2, ip
 3983 2710 48FFFFCA 		bgt	.L634
 3984 2714 1C00001A 		bne	.L482
 3985              	.L484:
 3986 2718 011041E2 		sub	r1, r1, #1
 3987 271c 008083E5 		str	r8, [r3]
 3988 2720 010071E3 		cmn	r1, #1
 3989 2724 F3FFFF1A 		bne	.L1104
 3990              	.L1151:
 3991 2728 000056E3 		cmp	r6, #0
 3992 272c 24509DE5 		ldr	r5, [sp, #36]
 3993 2730 BD0400DA 		ble	.L1238
 3994 2734 18309DE5 		ldr	r3, [sp, #24]
 3995 2738 D8908DE2 		add	r9, sp, #216
 3996 273c 1C209DE5 		ldr	r2, [sp, #28]
 3997 2740 0140A0E3 		mov	r4, #1
 3998 2744 0070A0E3 		mov	r7, #0
 3999 2748 03A0A0E1 		mov	r10, r3
 4000 274c 028193E7 		ldr	r8, [r3, r2, lsl #2]
 4001 2750 060000EA 		b	.L488
 4002              	.L489:
 4003 2754 0430B9E5 		ldr	r3, [r9, #4]!
 4004 2758 0410A0E1 		mov	r1, r4
 4005 275c 0000E0E3 		mvn	r0, #0
 4006 2760 03819AE7 		ldr	r8, [r10, r3, lsl #2]
 4007 2764 FEFFFFEB 		bl	__aeabi_uidiv
 4008 2768 000058E1 		cmp	r8, r0
 4009 276c 6CF6FF8A 		bhi	.L1147
 4010              	.L488:
 4011 2770 017087E2 		add	r7, r7, #1
 4012 2774 980404E0 		mul	r4, r8, r4
 4013 2778 070056E1 		cmp	r6, r7
 4014 277c F4FFFF1A 		bne	.L489
 4015 2780 000054E3 		cmp	r4, #0
 4016 2784 37FBFF1A 		bne	.L706
 4017 2788 C9F7FFEA 		b	.L595
 4018              	.L482:
 4019 278c 002083E5 		str	r2, [r3]
 4020 2790 77FFFFEA 		b	.L487
 4021              	.L1219:
 4022 2794 C49FA0E1 		asr	r9, r4, #31
 4023 2798 010054E3 		cmp	r4, #1
 4024 279c 0480A0E1 		mov	r8, r4
 4025 27a0 0030D9E2 		sbcs	r3, r9, #0
 4026 27a4 350100BA 		blt	.L786
 4027 27a8 0C409DE5 		ldr	r4, [sp, #12]
 4028 27ac 0000A0E3 		mov	r0, #0
 4029 27b0 0010A0E3 		mov	r1, #0
 4030 27b4 047047E2 		sub	r7, r7, #4
 4031 27b8 0060A0E3 		mov	r6, #0
 4032              	.L620:
 4033 27bc 04E0B7E5 		ldr	lr, [r7, #4]!
 4034 27c0 00005EE3 		cmp	lr, #0
 4035 27c4 04E08EB0 		addlt	lr, lr, r4
 4036 27c8 00005EE3 		cmp	lr, #0
 4037 27cc 0E0054A1 		cmpge	r4, lr
 4038 27d0 18FFFFDA 		ble	.L634
 4039 27d4 000056E3 		cmp	r6, #0
 4040 27d8 0B0000DA 		ble	.L618
 4041 27dc D8309DE5 		ldr	r3, [sp, #216]
 4042 27e0 0E0053E1 		cmp	r3, lr
 4043 27e4 D8208D12 		addne	r2, sp, #216
 4044 27e8 0030A013 		movne	r3, #0
 4045 27ec 0300001A 		bne	.L617
 4046 27f0 090000EA 		b	.L615
 4047              	.L1119:
 4048 27f4 04C0B2E5 		ldr	ip, [r2, #4]!
 4049 27f8 0E005CE1 		cmp	ip, lr
 4050 27fc 0600000A 		beq	.L615
 4051              	.L617:
 4052 2800 013083E2 		add	r3, r3, #1
 4053 2804 030056E1 		cmp	r6, r3
 4054 2808 F9FFFF1A 		bne	.L1119
 4055              	.L618:
 4056 280c 423F8DE2 		add	r3, sp, #264
 4057 2810 063183E0 		add	r3, r3, r6, lsl #2
 4058 2814 016086E2 		add	r6, r6, #1
 4059 2818 30E003E5 		str	lr, [r3, #-48]
 4060              	.L615:
 4061 281c 010090E2 		adds	r0, r0, #1
 4062 2820 0010A1E2 		adc	r1, r1, #0
 4063 2824 080050E1 		cmp	r0, r8
 4064 2828 0930D1E0 		sbcs	r3, r1, r9
 4065 282c E2FFFFBA 		blt	.L620
 4066              	.L613:
 4067 2830 0C309DE5 		ldr	r3, [sp, #12]
 4068 2834 F0408DE2 		add	r4, sp, #240
 4069 2838 000053E3 		cmp	r3, #0
 4070 283c 03A0A0D1 		movle	r10, r3
 4071 2840 040000DA 		ble	.L738
 4072 2844 0321A0E1 		lsl	r2, r3, #2
 4073 2848 0400A0E1 		mov	r0, r4
 4074 284c 0010A0E3 		mov	r1, #0
 4075 2850 FEFFFFEB 		bl	memset
 4076 2854 0CA09DE5 		ldr	r10, [sp, #12]
 4077              	.L738:
 4078 2858 D8309DE5 		ldr	r3, [sp, #216]
 4079 285c 01204AE2 		sub	r2, r10, #1
 4080 2860 0210A0E1 		mov	r1, r2
 4081 2864 18009DE5 		ldr	r0, [sp, #24]
 4082 2868 0111A0E1 		lsl	r1, r1, #2
 4083 286c 14208DE5 		str	r2, [sp, #20]
 4084 2870 1C308DE5 		str	r3, [sp, #28]
 4085 2874 09204AE2 		sub	r2, r10, #9
 4086 2878 043064E2 		rsb	r3, r4, #4
 4087 287c 0720C2E3 		bic	r2, r2, #7
 4088 2880 087043E2 		sub	r7, r3, #8
 4089 2884 0080A0E3 		mov	r8, #0
 4090 2888 010080E0 		add	r0, r0, r1
 4091 288c 082082E2 		add	r2, r2, #8
 4092 2890 011084E0 		add	r1, r4, r1
 4093 2894 10008DE5 		str	r0, [sp, #16]
 4094 2898 0C108DE5 		str	r1, [sp, #12]
 4095 289c 28208DE5 		str	r2, [sp, #40]
 4096 28a0 24508DE5 		str	r5, [sp, #36]
 4097              	.L638:
 4098 28a4 00005AE3 		cmp	r10, #0
 4099 28a8 0030A0E3 		mov	r3, #0
 4100 28ac EA0000DA 		ble	.L787
 4101 28b0 08005AE3 		cmp	r10, #8
 4102 28b4 E60000DA 		ble	.L788
 4103 28b8 20209DE5 		ldr	r2, [sp, #32]
 4104 28bc 0450A0E1 		mov	r5, r4
 4105 28c0 2C408DE5 		str	r4, [sp, #44]
 4106 28c4 0390A0E1 		mov	r9, r3
 4107 28c8 28409DE5 		ldr	r4, [sp, #40]
 4108 28cc 54E082E2 		add	lr, r2, #84
 4109              	.L623:
 4110 28d0 50101EE5 		ldr	r1, [lr, #-80]
 4111 28d4 089089E2 		add	r9, r9, #8
 4112 28d8 002095E5 		ldr	r2, [r5]
 4113 28dc 040059E1 		cmp	r9, r4
 4114 28e0 4C001EE5 		ldr	r0, [lr, #-76]
 4115 28e4 205085E2 		add	r5, r5, #32
 4116 28e8 18C015E5 		ldr	ip, [r5, #-24]
 4117 28ec 00F0DEF5 		pld	[lr]
 4118 28f0 20E08EE2 		add	lr, lr, #32
 4119 28f4 912323E0 		mla	r3, r1, r3, r2
 4120 28f8 1C1015E5 		ldr	r1, [r5, #-28]
 4121 28fc 68201EE5 		ldr	r2, [lr, #-104]
 4122 2900 901323E0 		mla	r3, r0, r3, r1
 4123 2904 60101EE5 		ldr	r1, [lr, #-96]
 4124 2908 100015E5 		ldr	r0, [r5, #-16]
 4125 290c 92C323E0 		mla	r3, r2, r3, ip
 4126 2910 64201EE5 		ldr	r2, [lr, #-100]
 4127 2914 14C015E5 		ldr	ip, [r5, #-20]
 4128 2918 92C323E0 		mla	r3, r2, r3, ip
 4129 291c 0C2015E5 		ldr	r2, [r5, #-12]
 4130 2920 58C01EE5 		ldr	ip, [lr, #-88]
 4131 2924 910323E0 		mla	r3, r1, r3, r0
 4132 2928 5C101EE5 		ldr	r1, [lr, #-92]
 4133 292c 080015E5 		ldr	r0, [r5, #-8]
 4134 2930 912323E0 		mla	r3, r1, r3, r2
 4135 2934 54101EE5 		ldr	r1, [lr, #-84]
 4136 2938 042015E5 		ldr	r2, [r5, #-4]
 4137 293c 9C0323E0 		mla	r3, ip, r3, r0
 4138 2940 912323E0 		mla	r3, r1, r3, r2
 4139 2944 E1FFFF1A 		bne	.L623
 4140 2948 2C409DE5 		ldr	r4, [sp, #44]
 4141              	.L622:
 4142 294c 18109DE5 		ldr	r1, [sp, #24]
 4143 2950 0921A0E1 		lsl	r2, r9, #2
 4144 2954 021081E0 		add	r1, r1, r2
 4145 2958 022084E0 		add	r2, r4, r2
 4146              	.L624:
 4147 295c 04C091E4 		ldr	ip, [r1], #4
 4148 2960 019089E2 		add	r9, r9, #1
 4149 2964 040092E4 		ldr	r0, [r2], #4
 4150 2968 09005AE1 		cmp	r10, r9
 4151 296c 930C23E0 		mla	r3, r3, ip, r0
 4152 2970 F9FFFFCA 		bgt	.L624
 4153 2974 18909DE5 		ldr	r9, [sp, #24]
 4154 2978 00E0A0E3 		mov	lr, #0
 4155 297c 1C509DE5 		ldr	r5, [sp, #28]
 4156 2980 0EC0A0E1 		mov	ip, lr
 4157              	.L630:
 4158 2984 000056E3 		cmp	r6, #0
 4159 2988 0A0000DA 		ble	.L625
 4160 298c 0C0055E1 		cmp	r5, ip
 4161 2990 D8108D12 		addne	r1, sp, #216
 4162 2994 0020A013 		movne	r2, #0
 4163 2998 0300001A 		bne	.L628
 4164 299c 080000EA 		b	.L626
 4165              	.L1121:
 4166 29a0 0400B1E5 		ldr	r0, [r1, #4]!
 4167 29a4 00005CE1 		cmp	ip, r0
 4168 29a8 0500000A 		beq	.L626
 4169              	.L628:
 4170 29ac 012082E2 		add	r2, r2, #1
 4171 29b0 020056E1 		cmp	r6, r2
 4172 29b4 F9FFFF1A 		bne	.L1121
 4173              	.L625:
 4174 29b8 0C1199E7 		ldr	r1, [r9, ip, lsl #2]
 4175 29bc 0C2194E7 		ldr	r2, [r4, ip, lsl #2]
 4176 29c0 912E2EE0 		mla	lr, r1, lr, r2
 4177              	.L626:
 4178 29c4 01C08CE2 		add	ip, ip, #1
 4179 29c8 0C005AE1 		cmp	r10, ip
 4180 29cc ECFFFF1A 		bne	.L630
 4181 29d0 0EE1A0E1 		lsl	lr, lr, #2
 4182              	.L621:
 4183 29d4 08209DE5 		ldr	r2, [sp, #8]
 4184 29d8 0320D2E7 		ldrb	r2, [r2, r3]	@ zero_extendqisi2
 4185 29dc 14309DE5 		ldr	r3, [sp, #20]
 4186 29e0 000053E3 		cmp	r3, #0
 4187 29e4 0E309BE7 		ldr	r3, [fp, lr]
 4188 29e8 023083E0 		add	r3, r3, r2
 4189 29ec 0E308BE7 		str	r3, [fp, lr]
 4190 29f0 180000BA 		blt	.L1153
 4191 29f4 0C309DE5 		ldr	r3, [sp, #12]
 4192 29f8 002093E5 		ldr	r2, [r3]
 4193 29fc 10309DE5 		ldr	r3, [sp, #16]
 4194 2a00 012082E2 		add	r2, r2, #1
 4195 2a04 003093E5 		ldr	r3, [r3]
 4196 2a08 020053E1 		cmp	r3, r2
 4197 2a0c 89FEFFBA 		blt	.L634
 4198 2a10 0C309D15 		ldrne	r3, [sp, #12]
 4199 2a14 2800001A 		bne	.L633
 4200 2a18 10009DE5 		ldr	r0, [sp, #16]
 4201 2a1c 0C309DE5 		ldr	r3, [sp, #12]
 4202 2a20 14109DE5 		ldr	r1, [sp, #20]
 4203 2a24 070000EA 		b	.L635
 4204              	.L1122:
 4205 2a28 012194E7 		ldr	r2, [r4, r1, lsl #2]
 4206 2a2c 073083E0 		add	r3, r3, r7
 4207 2a30 04C030E5 		ldr	ip, [r0, #-4]!
 4208 2a34 033084E0 		add	r3, r4, r3
 4209 2a38 012082E2 		add	r2, r2, #1
 4210 2a3c 0C0052E1 		cmp	r2, ip
 4211 2a40 7CFEFFCA 		bgt	.L634
 4212 2a44 1C00001A 		bne	.L633
 4213              	.L635:
 4214 2a48 011041E2 		sub	r1, r1, #1
 4215 2a4c 008083E5 		str	r8, [r3]
 4216 2a50 010071E3 		cmn	r1, #1
 4217 2a54 F3FFFF1A 		bne	.L1122
 4218              	.L1153:
 4219 2a58 000056E3 		cmp	r6, #0
 4220 2a5c 24509DE5 		ldr	r5, [sp, #36]
 4221 2a60 8A0000DA 		ble	.L1239
 4222 2a64 18309DE5 		ldr	r3, [sp, #24]
 4223 2a68 D8908DE2 		add	r9, sp, #216
 4224 2a6c 1C209DE5 		ldr	r2, [sp, #28]
 4225 2a70 0140A0E3 		mov	r4, #1
 4226 2a74 0070A0E3 		mov	r7, #0
 4227 2a78 03A0A0E1 		mov	r10, r3
 4228 2a7c 028193E7 		ldr	r8, [r3, r2, lsl #2]
 4229 2a80 060000EA 		b	.L639
 4230              	.L640:
 4231 2a84 0430B9E5 		ldr	r3, [r9, #4]!
 4232 2a88 0410A0E1 		mov	r1, r4
 4233 2a8c 0000E0E3 		mvn	r0, #0
 4234 2a90 03819AE7 		ldr	r8, [r10, r3, lsl #2]
 4235 2a94 FEFFFFEB 		bl	__aeabi_uidiv
 4236 2a98 000058E1 		cmp	r8, r0
 4237 2a9c A0F5FF8A 		bhi	.L1147
 4238              	.L639:
 4239 2aa0 017087E2 		add	r7, r7, #1
 4240 2aa4 980404E0 		mul	r4, r8, r4
 4241 2aa8 070056E1 		cmp	r6, r7
 4242 2aac F4FFFF1A 		bne	.L640
 4243 2ab0 000054E3 		cmp	r4, #0
 4244 2ab4 80F9FF1A 		bne	.L718
 4245 2ab8 FDF6FFEA 		b	.L595
 4246              	.L633:
 4247 2abc 002083E5 		str	r2, [r3]
 4248 2ac0 77FFFFEA 		b	.L638
 4249              	.L603:
 4250 2ac4 080055E3 		cmp	r5, #8
 4251 2ac8 1C00009A 		bls	.L608
 4252 2acc 092045E2 		sub	r2, r5, #9
 4253 2ad0 03C0A0E1 		mov	ip, r3
 4254 2ad4 0730C2E3 		bic	r3, r2, #7
 4255 2ad8 0E00A0E1 		mov	r0, lr
 4256 2adc 0C20A0E1 		mov	r2, ip
 4257 2ae0 083083E2 		add	r3, r3, #8
 4258 2ae4 64108BE2 		add	r1, fp, #100
 4259              	.L609:
 4260 2ae8 08C08CE2 		add	ip, ip, #8
 4261 2aec 0020C0E5 		strb	r2, [r0]
 4262 2af0 03005CE1 		cmp	ip, r3
 4263 2af4 00F0D1F5 		pld	[r1]
 4264 2af8 642001E5 		str	r2, [r1, #-100]
 4265 2afc 080080E2 		add	r0, r0, #8
 4266 2b00 072040E5 		strb	r2, [r0, #-7]
 4267 2b04 201081E2 		add	r1, r1, #32
 4268 2b08 802001E5 		str	r2, [r1, #-128]
 4269 2b0c 062040E5 		strb	r2, [r0, #-6]
 4270 2b10 7C2001E5 		str	r2, [r1, #-124]
 4271 2b14 052040E5 		strb	r2, [r0, #-5]
 4272 2b18 782001E5 		str	r2, [r1, #-120]
 4273 2b1c 042040E5 		strb	r2, [r0, #-4]
 4274 2b20 742001E5 		str	r2, [r1, #-116]
 4275 2b24 032040E5 		strb	r2, [r0, #-3]
 4276 2b28 702001E5 		str	r2, [r1, #-112]
 4277 2b2c 022040E5 		strb	r2, [r0, #-2]
 4278 2b30 6C2001E5 		str	r2, [r1, #-108]
 4279 2b34 012040E5 		strb	r2, [r0, #-1]
 4280 2b38 682001E5 		str	r2, [r1, #-104]
 4281 2b3c E9FFFF1A 		bne	.L609
 4282              	.L608:
 4283 2b40 04C09DE5 		ldr	ip, [sp, #4]
 4284 2b44 03118BE0 		add	r1, fp, r3, lsl #2
 4285 2b48 0020A0E3 		mov	r2, #0
 4286 2b4c 03308CE0 		add	r3, ip, r3
 4287              	.L611:
 4288 2b50 0120C3E4 		strb	r2, [r3], #1
 4289 2b54 0C0043E0 		sub	r0, r3, ip
 4290 2b58 000055E1 		cmp	r5, r0
 4291 2b5c 042081E4 		str	r2, [r1], #4
 4292 2b60 FAFFFF8A 		bhi	.L611
 4293 2b64 48F9FFEA 		b	.L600
 4294              	.L452:
 4295 2b68 080055E3 		cmp	r5, #8
 4296 2b6c 1C00009A 		bls	.L457
 4297 2b70 092045E2 		sub	r2, r5, #9
 4298 2b74 03C0A0E1 		mov	ip, r3
 4299 2b78 0730C2E3 		bic	r3, r2, #7
 4300 2b7c 0E00A0E1 		mov	r0, lr
 4301 2b80 0C20A0E1 		mov	r2, ip
 4302 2b84 083083E2 		add	r3, r3, #8
 4303 2b88 64108BE2 		add	r1, fp, #100
 4304              	.L458:
 4305 2b8c 08C08CE2 		add	ip, ip, #8
 4306 2b90 0020C0E5 		strb	r2, [r0]
 4307 2b94 03005CE1 		cmp	ip, r3
 4308 2b98 00F0D1F5 		pld	[r1]
 4309 2b9c 642001E5 		str	r2, [r1, #-100]
 4310 2ba0 080080E2 		add	r0, r0, #8
 4311 2ba4 072040E5 		strb	r2, [r0, #-7]
 4312 2ba8 201081E2 		add	r1, r1, #32
 4313 2bac 802001E5 		str	r2, [r1, #-128]
 4314 2bb0 062040E5 		strb	r2, [r0, #-6]
 4315 2bb4 7C2001E5 		str	r2, [r1, #-124]
 4316 2bb8 052040E5 		strb	r2, [r0, #-5]
 4317 2bbc 782001E5 		str	r2, [r1, #-120]
 4318 2bc0 042040E5 		strb	r2, [r0, #-4]
 4319 2bc4 742001E5 		str	r2, [r1, #-116]
 4320 2bc8 032040E5 		strb	r2, [r0, #-3]
 4321 2bcc 702001E5 		str	r2, [r1, #-112]
 4322 2bd0 022040E5 		strb	r2, [r0, #-2]
 4323 2bd4 6C2001E5 		str	r2, [r1, #-108]
 4324 2bd8 012040E5 		strb	r2, [r0, #-1]
 4325 2bdc 682001E5 		str	r2, [r1, #-104]
 4326 2be0 E9FFFF1A 		bne	.L458
 4327              	.L457:
 4328 2be4 04C09DE5 		ldr	ip, [sp, #4]
 4329 2be8 03118BE0 		add	r1, fp, r3, lsl #2
 4330 2bec 0020A0E3 		mov	r2, #0
 4331 2bf0 03308CE0 		add	r3, ip, r3
 4332              	.L460:
 4333 2bf4 0120C3E4 		strb	r2, [r3], #1
 4334 2bf8 0C0043E0 		sub	r0, r3, ip
 4335 2bfc 000055E1 		cmp	r5, r0
 4336 2c00 042081E4 		str	r2, [r1], #4
 4337 2c04 FAFFFF8A 		bhi	.L460
 4338 2c08 0AFAFFEA 		b	.L449
 4339              	.L763:
 4340 2c0c 0150A0E3 		mov	r5, #1
 4341 2c10 91F9FFEA 		b	.L447
 4342              	.L772:
 4343 2c14 03C0A0E1 		mov	ip, r3
 4344 2c18 0E00A0E1 		mov	r0, lr
 4345 2c1c DBFDFFEA 		b	.L504
 4346              	.L767:
 4347 2c20 0390A0E1 		mov	r9, r3
 4348 2c24 7CFEFFEA 		b	.L471
 4349              	.L766:
 4350 2c28 03E0A0E1 		mov	lr, r3
 4351 2c2c 9CFEFFEA 		b	.L470
 4352              	.L773:
 4353 2c30 0070A0E3 		mov	r7, #0
 4354 2c34 1DFCFFEA 		b	.L509
 4355              	.L784:
 4356 2c38 0150A0E3 		mov	r5, #1
 4357 2c3c 9BF8FFEA 		b	.L598
 4358              	.L794:
 4359 2c40 0070A0E3 		mov	r7, #0
 4360 2c44 E0FCFFEA 		b	.L660
 4361              	.L793:
 4362 2c48 03C0A0E1 		mov	ip, r3
 4363 2c4c 0E30A0E1 		mov	r3, lr
 4364 2c50 A3FDFFEA 		b	.L655
 4365              	.L788:
 4366 2c54 0390A0E1 		mov	r9, r3
 4367 2c58 3BFFFFEA 		b	.L622
 4368              	.L787:
 4369 2c5c 03E0A0E1 		mov	lr, r3
 4370 2c60 5BFFFFEA 		b	.L621
 4371              	.L359:
 4372 2c64 00005BE3 		cmp	fp, #0
 4373 2c68 0070A0E3 		mov	r7, #0
 4374 2c6c 46FBFFCA 		bgt	.L726
 4375 2c70 F0408DE2 		add	r4, sp, #240
 4376 2c74 49FBFFEA 		b	.L725
 4377              	.L758:
 4378 2c78 0020A0E3 		mov	r2, #0
 4379 2c7c 51F8FFEA 		b	.L390
 4380              	.L786:
 4381 2c80 0060A0E3 		mov	r6, #0
 4382 2c84 E9FEFFEA 		b	.L613
 4383              	.L777:
 4384 2c88 0060A0E3 		mov	r6, #0
 4385 2c8c 70F6FFEA 		b	.L537
 4386              	.L1239:
 4387 2c90 0140A0E3 		mov	r4, #1
 4388 2c94 08F9FFEA 		b	.L718
 4389              	.L1237:
 4390 2c98 0140A0E3 		mov	r4, #1
 4391 2c9c 4AF7FFEA 		b	.L721
 4392              	.L798:
 4393 2ca0 0040A0E3 		mov	r4, #0
 4394 2ca4 D7F7FFEA 		b	.L686
 4395              	.L1233:
 4396              	.LEHB7:
 4397 2ca8 FEFFFFEB 		bl	abort
 4398              	.L1232:
 4399 2cac FEFFFFEB 		bl	abort
 4400              	.L1231:
 4401 2cb0 FEFFFFEB 		bl	abort
 4402              	.LEHE7:
 4403              	.L1230:
 4404              	.LEHB8:
 4405 2cb4 FEFFFFEB 		bl	abort
 4406              	.LEHE8:
 4407              	.L1234:
 4408              	.LEHB9:
 4409 2cb8 FEFFFFEB 		bl	abort
 4410              	.LEHE9:
 4411              	.L1228:
 4412              	.LEHB10:
 4413 2cbc FEFFFFEB 		bl	abort
 4414              	.L323:
 4415 2cc0 FEFFFFEB 		bl	abort
 4416              	.LEHE10:
 4417              	.L723:
 4418              	.LEHB11:
 4419 2cc4 FEFFFFEB 		bl	abort
 4420              	.L1226:
 4421 2cc8 FEFFFFEB 		bl	abort
 4422              	.LEHE11:
 4423              	.L1236:
 4424 2ccc 0140A0E3 		mov	r4, #1
 4425 2cd0 D0F5FFEA 		b	.L709
 4426              	.L1235:
 4427 2cd4 0140A0E3 		mov	r4, #1
 4428 2cd8 11F8FFEA 		b	.L388
 4429              	.L811:
 4430 2cdc 60FAFFEA 		b	.L694
 4431              	.L305:
 4432 2ce0 08309DE5 		ldr	r3, [sp, #8]
 4433 2ce4 0000D3E5 		ldrb	r0, [r3]	@ zero_extendqisi2
 4434 2ce8 000011E1 		tst	r1, r0
 4435 2cec 10F5FF0A 		beq	.L393
 4436 2cf0 003095E5 		ldr	r3, [r5]
 4437 2cf4 0A10A0E1 		mov	r1, r10
 4438 2cf8 A8008DE2 		add	r0, sp, #168
 4439 2cfc 20308DE5 		str	r3, [sp, #32]
 4440 2d00 043095E5 		ldr	r3, [r5, #4]
 4441 2d04 08308DE5 		str	r3, [sp, #8]
 4442              	.LEHB12:
 4443 2d08 FEFFFFEB 		bl	_ZN6tflite5micro14GetTensorShapeEPK16TfLiteEvalTensor
 4444              	.LEHE12:
 4445 2d0c 00309AE5 		ldr	r3, [r10]
 4446 2d10 0710A0E1 		mov	r1, r7
 4447 2d14 C0008DE2 		add	r0, sp, #192
 4448 2d18 109095E5 		ldr	r9, [r5, #16]
 4449 2d1c 14308DE5 		str	r3, [sp, #20]
 4450              	.LEHB13:
 4451 2d20 FEFFFFEB 		bl	_ZN6tflite5micro14GetTensorShapeEPK16TfLiteEvalTensor
 4452              	.LEHE13:
 4453 2d24 A8609DE5 		ldr	r6, [sp, #168]
 4454 2d28 000057E3 		cmp	r7, #0
 4455 2d2c 183095E5 		ldr	r3, [r5, #24]
 4456 2d30 0740A001 		moveq	r4, r7
 4457 2d34 00409715 		ldrne	r4, [r7]
 4458 2d38 040056E3 		cmp	r6, #4
 4459 2d3c 34308DE5 		str	r3, [sp, #52]
 4460 2d40 2803001A 		bne	.L1240
 4461 2d44 C0C09DE5 		ldr	ip, [sp, #192]
 4462 2d48 04005CE3 		cmp	ip, #4
 4463 2d4c 180100CA 		bgt	.L1241
 4464 2d50 AC308DE2 		add	r3, sp, #172
 4465 2d54 04E07CE2 		rsbs	lr, ip, #4
 4466 2d58 0F0093E8 		ldm	r3, {r0, r1, r2, r3}
 4467 2d5c DC508DE2 		add	r5, sp, #220
 4468 2d60 D8608DE5 		str	r6, [sp, #216]
 4469 2d64 F0608DE5 		str	r6, [sp, #240]
 4470 2d68 0F0085E8 		stm	r5, {r0, r1, r2, r3}
 4471 2d6c 0E00000A 		beq	.L400
 4472 2d70 01005EE3 		cmp	lr, #1
 4473 2d74 0130A0E3 		mov	r3, #1
 4474 2d78 F4308DE5 		str	r3, [sp, #244]
 4475 2d7c 0A00000A 		beq	.L400
 4476 2d80 02005EE3 		cmp	lr, #2
 4477 2d84 F8308DE5 		str	r3, [sp, #248]
 4478 2d88 0700000A 		beq	.L400
 4479 2d8c 03005EE3 		cmp	lr, #3
 4480 2d90 FC308DE5 		str	r3, [sp, #252]
 4481 2d94 0400000A 		beq	.L400
 4482 2d98 04005EE3 		cmp	lr, #4
 4483 2d9c 00318DE5 		str	r3, [sp, #256]
 4484 2da0 0100000A 		beq	.L400
 4485              	.LEHB14:
 4486 2da4 FEFFFFEB 		bl	abort
 4487              	.LEHE14:
 4488              	.L813:
 4489 2da8 26FAFFEA 		b	.L443
 4490              	.L400:
 4491 2dac F4308DE2 		add	r3, sp, #244
 4492 2db0 0C21A0E1 		lsl	r2, ip, #2
 4493 2db4 0E0183E0 		add	r0, r3, lr, lsl #2
 4494 2db8 C4108DE2 		add	r1, sp, #196
 4495 2dbc FEFFFFEB 		bl	memcpy
 4496 2dc0 F0309DE5 		ldr	r3, [sp, #240]
 4497 2dc4 000053E3 		cmp	r3, #0
 4498 2dc8 04308DE5 		str	r3, [sp, #4]
 4499 2dcc F70000DA 		ble	.L1242
 4500 2dd0 050053E3 		cmp	r3, #5
 4501 2dd4 BF0000CA 		bgt	.L1243
 4502 2dd8 010053E3 		cmp	r3, #1
 4503 2ddc F4309DE5 		ldr	r3, [sp, #244]
 4504 2de0 18308DE5 		str	r3, [sp, #24]
 4505 2de4 1403000A 		beq	.L1244
 4506 2de8 04309DE5 		ldr	r3, [sp, #4]
 4507 2dec F8209DE5 		ldr	r2, [sp, #248]
 4508 2df0 020053E3 		cmp	r3, #2
 4509 2df4 2103000A 		beq	.L728
 4510 2df8 030053E3 		cmp	r3, #3
 4511 2dfc FC109DE5 		ldr	r1, [sp, #252]
 4512 2e00 1D03000A 		beq	.L729
 4513 2e04 00319DE5 		ldr	r3, [sp, #256]
 4514 2e08 1C308DE5 		str	r3, [sp, #28]
 4515              	.L403:
 4516 2e0c E0A09DE5 		ldr	r10, [sp, #224]
 4517 2e10 E4709DE5 		ldr	r7, [sp, #228]
 4518 2e14 FE39DDE1 		ldrsh	r3, [sp, #158]
 4519 2e18 970A00E0 		mul	r0, r7, r10
 4520 2e1c 010053E3 		cmp	r3, #1
 4521 2e20 28008DE5 		str	r0, [sp, #40]
 4522 2e24 B300000A 		beq	.L1245
 4523 2e28 020053E3 		cmp	r3, #2
 4524 2e2c B400001A 		bne	.L407
 4525 2e30 F03ADDE1 		ldrsh	r3, [sp, #160]
 4526 2e34 010053E3 		cmp	r3, #1
 4527 2e38 B100001A 		bne	.L407
 4528              	.L406:
 4529 2e3c 010052E3 		cmp	r2, #1
 4530 2e40 FF02001A 		bne	.L1246
 4531 2e44 010051E3 		cmp	r1, #1
 4532 2e48 FC02001A 		bne	.L409
 4533 2e4c 18309DE5 		ldr	r3, [sp, #24]
 4534 2e50 000053E3 		cmp	r3, #0
 4535 2e54 980000DA 		ble	.L414
 4536 2e58 970A01E0 		mul	r1, r7, r10
 4537 2e5c F8309DE5 		ldr	r3, [sp, #248]
 4538 2e60 FC009DE5 		ldr	r0, [sp, #252]
 4539 2e64 00C0A0E3 		mov	ip, #0
 4540 2e68 00E19DE5 		ldr	lr, [sp, #256]
 4541 2e6c 0CB0A0E1 		mov	fp, ip
 4542 2e70 0320A0E1 		mov	r2, r3
 4543 2e74 40308DE5 		str	r3, [sp, #64]
 4544 2e78 A13F81E0 		add	r3, r1, r1, lsr #31
 4545 2e7c E8809DE5 		ldr	r8, [sp, #232]
 4546 2e80 44008DE5 		str	r0, [sp, #68]
 4547 2e84 C330A0E1 		asr	r3, r3, #1
 4548 2e88 CC8B9FED 		vldr.64	d8, .L1277	@ int
 4549 2e8c 0CC08DE5 		str	ip, [sp, #12]
 4550 2e90 0350A0E1 		mov	r5, r3
 4551 2e94 54308DE5 		str	r3, [sp, #84]
 4552 2e98 08309DE5 		ldr	r3, [sp, #8]
 4553 2e9c 980101E0 		mul	r1, r8, r1
 4554 2ea0 48E08DE5 		str	lr, [sp, #72]
 4555 2ea4 10408DE5 		str	r4, [sp, #16]
 4556 2ea8 C36FC3E1 		bic	r6, r3, r3, asr #31
 4557 2eac 900203E0 		mul	r3, r0, r2
 4558 2eb0 F4009DE5 		ldr	r0, [sp, #244]
 4559 2eb4 30608DE5 		str	r6, [sp, #48]
 4560 2eb8 08209DE5 		ldr	r2, [sp, #8]
 4561 2ebc 3C008DE5 		str	r0, [sp, #60]
 4562 2ec0 9E0303E0 		mul	r3, lr, r3
 4563 2ec4 000065E2 		rsb	r0, r5, #0
 4564 2ec8 DC609DE5 		ldr	r6, [sp, #220]
 4565 2ecc 980705E0 		mul	r5, r8, r7
 4566 2ed0 002062E2 		rsb	r2, r2, #0
 4567 2ed4 38008DE5 		str	r0, [sp, #56]
 4568 2ed8 50108DE5 		str	r1, [sp, #80]
 4569 2edc 2C208DE5 		str	r2, [sp, #44]
 4570 2ee0 4C308DE5 		str	r3, [sp, #76]
 4571              	.L415:
 4572 2ee4 1C309DE5 		ldr	r3, [sp, #28]
 4573 2ee8 000053E3 		cmp	r3, #0
 4574 2eec 660000DA 		ble	.L436
 4575 2ef0 10309DE5 		ldr	r3, [sp, #16]
 4576 2ef4 0040A0E3 		mov	r4, #0
 4577 2ef8 24308DE5 		str	r3, [sp, #36]
 4578              	.L413:
 4579 2efc 00005AE3 		cmp	r10, #0
 4580 2f00 9F0000DA 		ble	.L416
 4581 2f04 0C309DE5 		ldr	r3, [sp, #12]
 4582 2f08 0000A0E3 		mov	r0, #0
 4583 2f0c 00C0A0E1 		mov	ip, r0
 4584 2f10 03E084E0 		add	lr, r4, r3
 4585 2f14 14309DE5 		ldr	r3, [sp, #20]
 4586 2f18 0EE083E0 		add	lr, r3, lr
 4587              	.L423:
 4588 2f1c 000057E3 		cmp	r7, #0
 4589 2f20 0F0000DA 		ble	.L417
 4590 2f24 06005BE1 		cmp	fp, r6
 4591 2f28 7C0000AA 		bge	.L418
 4592 2f2c 0A005CE1 		cmp	ip, r10
 4593 2f30 790000AA 		bge	.L419
 4594 2f34 040058E1 		cmp	r8, r4
 4595 2f38 720000DA 		ble	.L1247
 4596 2f3c 0E10A0E1 		mov	r1, lr
 4597 2f40 0020A0E3 		mov	r2, #0
 4598 2f44 000000EA 		b	.L420
 4599              	.L422:
 4600 2f48 081081E0 		add	r1, r1, r8
 4601              	.L420:
 4602 2f4c D030D1E1 		ldrsb	r3, [r1]
 4603 2f50 012082E2 		add	r2, r2, #1
 4604 2f54 070052E1 		cmp	r2, r7
 4605 2f58 093043E0 		sub	r3, r3, r9
 4606 2f5c 030080E0 		add	r0, r0, r3
 4607 2f60 F8FFFF1A 		bne	.L422
 4608              	.L417:
 4609 2f64 01C08CE2 		add	ip, ip, #1
 4610 2f68 05E08EE0 		add	lr, lr, r5
 4611 2f6c 0A005CE1 		cmp	ip, r10
 4612 2f70 E9FFFF1A 		bne	.L423
 4613 2f74 08309DE5 		ldr	r3, [sp, #8]
 4614 2f78 000053E3 		cmp	r3, #0
 4615 2f7c 30309DE5 		ldr	r3, [sp, #48]
 4616 2f80 670000DA 		ble	.L424
 4617 2f84 1003A0E1 		lsl	r0, r0, r3
 4618 2f88 20309DE5 		ldr	r3, [sp, #32]
 4619 2f8c 00C0A0E3 		mov	ip, #0
 4620 2f90 020150E3 		cmp	r0, #-2147483648
 4621 2f94 00005301 		cmpeq	r3, r0
 4622 2f98 9023C3E0 		smull	r2, r3, r0, r3
 4623 2f9c 01E0A003 		moveq	lr, #1
 4624 2fa0 00E0A013 		movne	lr, #0
 4625 2fa4 0200A0E1 		mov	r0, r2
 4626 2fa8 0310A0E1 		mov	r1, r3
 4627              	.L425:
 4628 2fac 000050E3 		cmp	r0, #0
 4629 2fb0 0030D1E2 		sbcs	r3, r1, #0
 4630 2fb4 630000BA 		blt	.L426
 4631 2fb8 010190E2 		adds	r0, r0, #1073741824
 4632 2fbc A00FA0E1 		lsr	r0, r0, #31
 4633 2fc0 0010A1E2 		adc	r1, r1, #0
 4634 2fc4 810080E1 		orr	r0, r0, r1, lsl #1
 4635 2fc8 0020A0E1 		mov	r2, r0
 4636              	.L427:
 4637 2fcc 00005EE3 		cmp	lr, #0
 4638 2fd0 0221E013 		mvnne	r2, #-2147483648
 4639              	.L699:
 4640 2fd4 1F005CE3 		cmp	ip, #31
 4641 2fd8 9D0200CA 		bgt	.L1248
 4642 2fdc 90CB00EE 		vmov.32	d16[0], ip
 4643 2fe0 520CA0E1 		asr	r0, r2, ip
 4644 2fe4 887430F3 		vshl.u64	d7, d8, d16
 4645 2fe8 103A17EE 		vmov	r3, s14	@ int
 4646 2fec 013043E2 		sub	r3, r3, #1
 4647 2ff0 C310A0E1 		asr	r1, r3, #1
 4648 2ff4 023003E0 		and	r3, r3, r2
 4649 2ff8 A22F81E0 		add	r2, r1, r2, lsr #31
 4650 2ffc 28109DE5 		ldr	r1, [sp, #40]
 4651 3000 020053E1 		cmp	r3, r2
 4652 3004 010080C2 		addgt	r0, r0, #1
 4653 3008 000050E3 		cmp	r0, #0
 4654 300c 54309DC5 		ldrgt	r3, [sp, #84]
 4655 3010 38309DD5 		ldrle	r3, [sp, #56]
 4656 3014 000083E0 		add	r0, r3, r0
 4657 3018 FEFFFFEB 		bl	__aeabi_idiv
 4658 301c 34309DE5 		ldr	r3, [sp, #52]
 4659 3020 04209DE5 		ldr	r2, [sp, #4]
 4660 3024 003083E0 		add	r3, r3, r0
 4661 3028 7F0053E3 		cmp	r3, #127
 4662 302c 7F30A0A3 		movge	r3, #127
 4663 3030 800073E3 		cmn	r3, #128
 4664 3034 7F30E0B3 		mvnlt	r3, #127
 4665 3038 040052E3 		cmp	r2, #4
 4666 303c 8302001A 		bne	.L1249
 4667 3040 3C209DE5 		ldr	r2, [sp, #60]
 4668 3044 02005BE1 		cmp	fp, r2
 4669 3048 7F0200AA 		bge	.L1250
 4670 304c 40209DE5 		ldr	r2, [sp, #64]
 4671 3050 000052E3 		cmp	r2, #0
 4672 3054 7B0200DA 		ble	.L1251
 4673 3058 44209DE5 		ldr	r2, [sp, #68]
 4674 305c 000052E3 		cmp	r2, #0
 4675 3060 840200DA 		ble	.L1252
 4676 3064 48209DE5 		ldr	r2, [sp, #72]
 4677 3068 040052E1 		cmp	r2, r4
 4678 306c 800200DA 		ble	.L1253
 4679 3070 24209DE5 		ldr	r2, [sp, #36]
 4680 3074 014084E2 		add	r4, r4, #1
 4681 3078 0130C2E4 		strb	r3, [r2], #1
 4682 307c 1C309DE5 		ldr	r3, [sp, #28]
 4683 3080 24208DE5 		str	r2, [sp, #36]
 4684 3084 030054E1 		cmp	r4, r3
 4685 3088 9BFFFF1A 		bne	.L413
 4686              	.L436:
 4687 308c 10309DE5 		ldr	r3, [sp, #16]
 4688 3090 01B08BE2 		add	fp, fp, #1
 4689 3094 4C209DE5 		ldr	r2, [sp, #76]
 4690 3098 023083E0 		add	r3, r3, r2
 4691 309c 50209DE5 		ldr	r2, [sp, #80]
 4692 30a0 10308DE5 		str	r3, [sp, #16]
 4693 30a4 18309DE5 		ldr	r3, [sp, #24]
 4694 30a8 03005BE1 		cmp	fp, r3
 4695 30ac 0C309DE5 		ldr	r3, [sp, #12]
 4696 30b0 023083E0 		add	r3, r3, r2
 4697 30b4 0C308DE5 		str	r3, [sp, #12]
 4698 30b8 89FFFF1A 		bne	.L415
 4699              	.L414:
 4700 30bc 04309DE5 		ldr	r3, [sp, #4]
 4701 30c0 050053E3 		cmp	r3, #5
 4702 30c4 F8F9FFDA 		ble	.L562
 4703              	.L561:
 4704 30c8 F4009DE5 		ldr	r0, [sp, #244]
 4705 30cc 000050E3 		cmp	r0, #0
 4706 30d0 F4F9FF1A 		bne	.L1173
 4707 30d4 F4F9FFEA 		b	.L562
 4708              	.L1243:
 4709 30d8 F4309DE5 		ldr	r3, [sp, #244]
 4710 30dc 002093E5 		ldr	r2, [r3]
 4711 30e0 081093E5 		ldr	r1, [r3, #8]
 4712 30e4 18208DE5 		str	r2, [sp, #24]
 4713 30e8 042093E5 		ldr	r2, [r3, #4]
 4714 30ec 0C3093E5 		ldr	r3, [r3, #12]
 4715 30f0 1C308DE5 		str	r3, [sp, #28]
 4716 30f4 44FFFFEA 		b	.L403
 4717              	.L1245:
 4718 30f8 F03ADDE1 		ldrsh	r3, [sp, #160]
 4719 30fc 020053E3 		cmp	r3, #2
 4720 3100 4DFFFF0A 		beq	.L406
 4721              	.L407:
 4722              	.LEHB15:
 4723 3104 FEFFFFEB 		bl	abort
 4724              	.L1247:
 4725 3108 FEFFFFEB 		bl	abort
 4726              	.L817:
 4727 310c 04309DE5 		ldr	r3, [sp, #4]
 4728 3110 050053E3 		cmp	r3, #5
 4729 3114 4BF9FFDA 		ble	.L443
 4730 3118 CAFCFFEA 		b	.L1178
 4731              	.L419:
 4732 311c FEFFFFEB 		bl	abort
 4733              	.L418:
 4734 3120 FEFFFFEB 		bl	abort
 4735              	.LEHE15:
 4736              	.L424:
 4737 3124 10E3A0E1 		lsl	lr, r0, r3
 4738 3128 20309DE5 		ldr	r3, [sp, #32]
 4739 312c 2CC09DE5 		ldr	ip, [sp, #44]
 4740 3130 02015EE3 		cmp	lr, #-2147483648
 4741 3134 0E005301 		cmpeq	r3, lr
 4742 3138 9E03C1E0 		smull	r0, r1, lr, r3
 4743 313c 01E0A003 		moveq	lr, #1
 4744 3140 00E0A013 		movne	lr, #0
 4745 3144 98FFFFEA 		b	.L425
 4746              	.L426:
 4747 3148 070190E2 		adds	r0, r0, #-1073741823
 4748 314c 0010C1E2 		sbc	r1, r1, #0
 4749 3150 F805CDE1 		strd	r0, [sp, #88]
 4750 3154 0010A0E3 		mov	r1, #0
 4751 3158 5C309DE5 		ldr	r3, [sp, #92]
 4752 315c C32FA0E1 		asr	r2, r3, #31
 4753 3160 0130A0E1 		mov	r3, r1
 4754 3164 0201C2E3 		bic	r0, r2, #-2147483648
 4755 3168 0020A0E1 		mov	r2, r0
 4756 316c D805CDE1 		ldrd	r0, [sp, #88]
 4757 3170 020090E0 		adds	r0, r0, r2
 4758 3174 A02FA0E1 		lsr	r2, r0, #31
 4759 3178 0310A1E0 		adc	r1, r1, r3
 4760 317c 812082E1 		orr	r2, r2, r1, lsl #1
 4761 3180 91FFFFEA 		b	.L427
 4762              	.L416:
 4763 3184 08309DE5 		ldr	r3, [sp, #8]
 4764 3188 000053E3 		cmp	r3, #0
 4765 318c 030000DA 		ble	.L1254
 4766 3190 1000C0F2 		vmov.i32	d16, #0  @ di
 4767 3194 00C0A0E3 		mov	ip, #0
 4768 3198 302B53EC 		vmov	r2, r3, d16	@ int
 4769 319c 8CFFFFEA 		b	.L699
 4770              	.L1254:
 4771 31a0 1000C0F2 		vmov.i32	d16, #0  @ di
 4772 31a4 2CC09DE5 		ldr	ip, [sp, #44]
 4773 31a8 302B53EC 		vmov	r2, r3, d16	@ int
 4774 31ac 88FFFFEA 		b	.L699
 4775              	.L1242:
 4776              	.LEHB16:
 4777 31b0 FEFFFFEB 		bl	abort
 4778              	.LEHE16:
 4779              	.L1241:
 4780              	.LEHB17:
 4781 31b4 FEFFFFEB 		bl	abort
 4782              	.LEHE17:
 4783              	.L812:
 4784 31b8 29F9FFEA 		b	.L694
 4785              	.L1278:
 4786 31bc 00F020E3 		.align	3
 4787              	.L1277:
 4788 31c0 01000000 		.word	1
 4789 31c4 00000000 		.word	0
 4790              	.L304:
 4791 31c8 08309DE5 		ldr	r3, [sp, #8]
 4792 31cc 0000D3E5 		ldrb	r0, [r3]	@ zero_extendqisi2
 4793 31d0 000011E1 		tst	r1, r0
 4794 31d4 3EF5FF0A 		beq	.L540
 4795 31d8 0A10A0E1 		mov	r1, r10
 4796 31dc A8008DE2 		add	r0, sp, #168
 4797              	.LEHB18:
 4798 31e0 FEFFFFEB 		bl	_ZN6tflite5micro14GetTensorShapeEPK16TfLiteEvalTensor
 4799              	.LEHE18:
 4800 31e4 00309AE5 		ldr	r3, [r10]
 4801 31e8 0710A0E1 		mov	r1, r7
 4802 31ec C0008DE2 		add	r0, sp, #192
 4803 31f0 106095E5 		ldr	r6, [r5, #16]
 4804 31f4 058AD5ED 		vldr.32	s17, [r5, #20]
 4805 31f8 4C308DE5 		str	r3, [sp, #76]
 4806              	.LEHB19:
 4807 31fc FEFFFFEB 		bl	_ZN6tflite5micro14GetTensorShapeEPK16TfLiteEvalTensor
 4808              	.LEHE19:
 4809 3200 A8809DE5 		ldr	r8, [sp, #168]
 4810 3204 000057E3 		cmp	r7, #0
 4811 3208 00709715 		ldrne	r7, [r7]
 4812 320c 184095E5 		ldr	r4, [r5, #24]
 4813 3210 040058E3 		cmp	r8, #4
 4814 3214 078A95ED 		vldr.32	s16, [r5, #28]
 4815 3218 F001001A 		bne	.L1255
 4816 321c C0C09DE5 		ldr	ip, [sp, #192]
 4817 3220 04005CE3 		cmp	ip, #4
 4818 3224 F20100CA 		bgt	.L1256
 4819 3228 AC308DE2 		add	r3, sp, #172
 4820 322c 04E07CE2 		rsbs	lr, ip, #4
 4821 3230 0F0093E8 		ldm	r3, {r0, r1, r2, r3}
 4822 3234 DC508DE2 		add	r5, sp, #220
 4823 3238 D8808DE5 		str	r8, [sp, #216]
 4824 323c F0808DE5 		str	r8, [sp, #240]
 4825 3240 0F0085E8 		stm	r5, {r0, r1, r2, r3}
 4826 3244 0E00000A 		beq	.L547
 4827 3248 01005EE3 		cmp	lr, #1
 4828 324c 0130A0E3 		mov	r3, #1
 4829 3250 F4308DE5 		str	r3, [sp, #244]
 4830 3254 0A00000A 		beq	.L547
 4831 3258 02005EE3 		cmp	lr, #2
 4832 325c F8308DE5 		str	r3, [sp, #248]
 4833 3260 0700000A 		beq	.L547
 4834 3264 03005EE3 		cmp	lr, #3
 4835 3268 FC308DE5 		str	r3, [sp, #252]
 4836 326c 0400000A 		beq	.L547
 4837 3270 04005EE3 		cmp	lr, #4
 4838 3274 00318DE5 		str	r3, [sp, #256]
 4839 3278 0100000A 		beq	.L547
 4840              	.LEHB20:
 4841 327c FEFFFFEB 		bl	abort
 4842              	.LEHE20:
 4843              	.L818:
 4844 3280 F0F8FFEA 		b	.L443
 4845              	.L547:
 4846 3284 F4308DE2 		add	r3, sp, #244
 4847 3288 0C21A0E1 		lsl	r2, ip, #2
 4848 328c 0E0183E0 		add	r0, r3, lr, lsl #2
 4849 3290 C4108DE2 		add	r1, sp, #196
 4850 3294 FEFFFFEB 		bl	memcpy
 4851 3298 F0309DE5 		ldr	r3, [sp, #240]
 4852 329c 000053E3 		cmp	r3, #0
 4853 32a0 3C308DE5 		str	r3, [sp, #60]
 4854 32a4 D10100DA 		ble	.L1257
 4855 32a8 050053E3 		cmp	r3, #5
 4856 32ac 980100CA 		bgt	.L1258
 4857 32b0 010053E3 		cmp	r3, #1
 4858 32b4 F4309DE5 		ldr	r3, [sp, #244]
 4859 32b8 50308DE5 		str	r3, [sp, #80]
 4860 32bc C401000A 		beq	.L1259
 4861 32c0 3C309DE5 		ldr	r3, [sp, #60]
 4862 32c4 F8209DE5 		ldr	r2, [sp, #248]
 4863 32c8 020053E3 		cmp	r3, #2
 4864 32cc C201000A 		beq	.L736
 4865 32d0 030053E3 		cmp	r3, #3
 4866 32d4 FC109DE5 		ldr	r1, [sp, #252]
 4867 32d8 BE01000A 		beq	.L737
 4868 32dc 00319DE5 		ldr	r3, [sp, #256]
 4869 32e0 54308DE5 		str	r3, [sp, #84]
 4870              	.L550:
 4871 32e4 E0309DE5 		ldr	r3, [sp, #224]
 4872 32e8 E4509DE5 		ldr	r5, [sp, #228]
 4873 32ec 0300A0E1 		mov	r0, r3
 4874 32f0 0380A0E1 		mov	r8, r3
 4875 32f4 FE39DDE1 		ldrsh	r3, [sp, #158]
 4876 32f8 950000E0 		mul	r0, r5, r0
 4877 32fc 010053E3 		cmp	r3, #1
 4878 3300 900A07EE 		vmov	s15, r0	@ int
 4879 3304 58008DE5 		str	r0, [sp, #88]
 4880 3308 E76AF8EE 		vcvt.f32.s32	s13, s15
 4881 330c 8801000A 		beq	.L1260
 4882 3310 020053E3 		cmp	r3, #2
 4883 3314 8901001A 		bne	.L554
 4884 3318 F03ADDE1 		ldrsh	r3, [sp, #160]
 4885 331c 010053E3 		cmp	r3, #1
 4886 3320 8601001A 		bne	.L554
 4887              	.L553:
 4888 3324 010052E3 		cmp	r2, #1
 4889 3328 B601001A 		bne	.L1261
 4890 332c 010051E3 		cmp	r1, #1
 4891 3330 B301001A 		bne	.L1262
 4892 3334 906A07EE 		vmov	s15, r6	@ int
 4893 3338 98108DE2 		add	r1, sp, #152
 4894 333c E77AB8EE 		vcvt.f32.s32	s14, s15
 4895 3340 94008DE2 		add	r0, sp, #148
 4896 3344 287A27EE 		vmul.f32	s14, s14, s17
 4897 3348 087AC7EE 		vdiv.f32	s15, s14, s16
 4898 334c 268A28EE 		vmul.f32	s16, s16, s13
 4899 3350 007AB6EE 		vmov.f32	s14, #5.0e-1
 4900 3354 880A88EE 		vdiv.f32	s0, s17, s16
 4901 3358 C07AF5EE 		vcmpe.f32	s15, #0
 4902 335c 10FAF1EE 		vmrs	APSR_nzcv, FPSCR
 4903 3360 877A77CE 		vaddgt.f32	s15, s15, s14
 4904 3364 C77A77DE 		vsuble.f32	s15, s15, s14
 4905 3368 C00AB7EE 		vcvt.f64.f32	d0, s0
 4906 336c E77AFDEE 		vcvt.s32.f32	s15, s15
 4907 3370 903A17EE 		vmov	r3, s15	@ int
 4908 3374 033044E0 		sub	r3, r4, r3
 4909 3378 64308DE5 		str	r3, [sp, #100]
 4910              	.LEHB21:
 4911 337c FEFFFFEB 		bl	_ZN6tflite18QuantizeMultiplierEdPlPi
 4912 3380 50309DE5 		ldr	r3, [sp, #80]
 4913 3384 000053E3 		cmp	r3, #0
 4914 3388 5B0100DA 		ble	.L564
 4915 338c F8309DE5 		ldr	r3, [sp, #248]
 4916 3390 00C0A0E3 		mov	ip, #0
 4917 3394 FC109DE5 		ldr	r1, [sp, #252]
 4918 3398 00019DE5 		ldr	r0, [sp, #256]
 4919 339c 0320A0E1 		mov	r2, r3
 4920 33a0 6C308DE5 		str	r3, [sp, #108]
 4921 33a4 103045E2 		sub	r3, r5, #16
 4922 33a8 E8609DE5 		ldr	r6, [sp, #232]
 4923 33ac 2332A0E1 		lsr	r3, r3, #4
 4924 33b0 70108DE5 		str	r1, [sp, #112]
 4925 33b4 DCE09DE5 		ldr	lr, [sp, #220]
 4926 33b8 013083E2 		add	r3, r3, #1
 4927 33bc 40C08DE5 		str	ip, [sp, #64]
 4928 33c0 2C308DE5 		str	r3, [sp, #44]
 4929 33c4 0332A0E1 		lsl	r3, r3, #4
 4930 33c8 10E08DE5 		str	lr, [sp, #16]
 4931 33cc 06E186E0 		add	lr, r6, r6, lsl #2
 4932 33d0 1C308DE5 		str	r3, [sp, #28]
 4933 33d4 910203E0 		mul	r3, r1, r2
 4934 33d8 F4209DE5 		ldr	r2, [sp, #244]
 4935 33dc 58109DE5 		ldr	r1, [sp, #88]
 4936 33e0 0CC08DE5 		str	ip, [sp, #12]
 4937 33e4 06C2A0E1 		lsl	ip, r6, #4
 4938 33e8 900303E0 		mul	r3, r0, r3
 4939 33ec 68208DE5 		str	r2, [sp, #104]
 4940 33f0 8620A0E1 		lsl	r2, r6, #1
 4941 33f4 28E08DE5 		str	lr, [sp, #40]
 4942 33f8 960101E0 		mul	r1, r6, r1
 4943 33fc 74008DE5 		str	r0, [sp, #116]
 4944 3400 0C40A0E1 		mov	r4, ip
 4945 3404 08E0A0E1 		mov	lr, r8
 4946 3408 78308DE5 		str	r3, [sp, #120]
 4947 340c 8631A0E1 		lsl	r3, r6, #3
 4948 3410 48708DE5 		str	r7, [sp, #72]
 4949 3414 24308DE5 		str	r3, [sp, #36]
 4950 3418 003062E2 		rsb	r3, r2, #0
 4951 341c 20308DE5 		str	r3, [sp, #32]
 4952 3420 960503E0 		mul	r3, r6, r5
 4953 3424 7C108DE5 		str	r1, [sp, #124]
 4954 3428 011045E2 		sub	r1, r5, #1
 4955 342c 44208DE5 		str	r2, [sp, #68]
 4956 3430 14108DE5 		str	r1, [sp, #20]
 4957 3434 18308DE5 		str	r3, [sp, #24]
 4958 3438 063082E0 		add	r3, r2, r6
 4959 343c 04308DE5 		str	r3, [sp, #4]
 4960              	.L565:
 4961 3440 54309DE5 		ldr	r3, [sp, #84]
 4962 3444 000053E3 		cmp	r3, #0
 4963 3448 190100DA 		ble	.L587
 4964 344c 48309DE5 		ldr	r3, [sp, #72]
 4965 3450 60308DE5 		str	r3, [sp, #96]
 4966 3454 0030A0E3 		mov	r3, #0
 4967 3458 08308DE5 		str	r3, [sp, #8]
 4968 345c 003066E2 		rsb	r3, r6, #0
 4969 3460 30308DE5 		str	r3, [sp, #48]
 4970              	.L563:
 4971 3464 00005EE3 		cmp	lr, #0
 4972 3468 440100DA 		ble	.L566
 4973 346c 08109DE5 		ldr	r1, [sp, #8]
 4974 3470 0030A0E3 		mov	r3, #0
 4975 3474 44209DE5 		ldr	r2, [sp, #68]
 4976 3478 0380A0E1 		mov	r8, r3
 4977 347c 4C009DE5 		ldr	r0, [sp, #76]
 4978 3480 027081E0 		add	r7, r1, r2
 4979 3484 40209DE5 		ldr	r2, [sp, #64]
 4980 3488 077080E0 		add	r7, r0, r7
 4981 348c 011080E0 		add	r1, r0, r1
 4982              	.L578:
 4983 3490 000055E3 		cmp	r5, #0
 4984 3494 BA0000DA 		ble	.L567
 4985 3498 10009DE5 		ldr	r0, [sp, #16]
 4986 349c 0CC09DE5 		ldr	ip, [sp, #12]
 4987 34a0 0C0050E1 		cmp	r0, ip
 4988 34a4 280100DA 		ble	.L568
 4989 34a8 0E0058E1 		cmp	r8, lr
 4990 34ac 2C0100AA 		bge	.L569
 4991 34b0 08009DE5 		ldr	r0, [sp, #8]
 4992 34b4 000056E1 		cmp	r6, r0
 4993 34b8 280100DA 		ble	.L1263
 4994 34bc 14009DE5 		ldr	r0, [sp, #20]
 4995 34c0 0E0050E3 		cmp	r0, #14
 4996 34c4 1001009A 		bls	.L780
 4997 34c8 20009DE5 		ldr	r0, [sp, #32]
 4998 34cc 0790A0E1 		mov	r9, r7
 4999 34d0 24C09DE5 		ldr	ip, [sp, #36]
 5000 34d4 00A0A0E3 		mov	r10, #0
 5001 34d8 34308DE5 		str	r3, [sp, #52]
 5002 34dc 28309DE5 		ldr	r3, [sp, #40]
 5003 34e0 000087E0 		add	r0, r7, r0
 5004 34e4 5000C0F2 		vmov.i32	q8, #0  @ v4si
 5005 34e8 0CC087E0 		add	ip, r7, ip
 5006 34ec 38208DE5 		str	r2, [sp, #56]
 5007              	.L574:
 5008 34f0 00B0D0E5 		ldrb	fp, [r0]	@ zero_extendqisi2
 5009 34f4 01A08AE2 		add	r10, r10, #1
 5010 34f8 2C209DE5 		ldr	r2, [sp, #44]
 5011 34fc 80B0CDE5 		strb	fp, [sp, #128]
 5012 3500 06B0D0E7 		ldrb	fp, [r0, r6]	@ zero_extendqisi2
 5013 3504 02005AE1 		cmp	r10, r2
 5014 3508 30209DE5 		ldr	r2, [sp, #48]
 5015 350c 81B0CDE5 		strb	fp, [sp, #129]
 5016 3510 86B0D0E7 		ldrb	fp, [r0, r6, lsl #1]	@ zero_extendqisi2
 5017 3514 82B0CDE5 		strb	fp, [sp, #130]
 5018 3518 04B09DE5 		ldr	fp, [sp, #4]
 5019 351c 0BB0D0E7 		ldrb	fp, [r0, fp]	@ zero_extendqisi2
 5020 3520 83B0CDE5 		strb	fp, [sp, #131]
 5021 3524 06B1D0E7 		ldrb	fp, [r0, r6, lsl #2]	@ zero_extendqisi2
 5022 3528 84B0CDE5 		strb	fp, [sp, #132]
 5023 352c 03B0D0E7 		ldrb	fp, [r0, r3]	@ zero_extendqisi2
 5024 3530 85B0CDE5 		strb	fp, [sp, #133]
 5025 3534 06B1D9E7 		ldrb	fp, [r9, r6, lsl #2]	@ zero_extendqisi2
 5026 3538 86B0CDE5 		strb	fp, [sp, #134]
 5027 353c 03B0D9E7 		ldrb	fp, [r9, r3]	@ zero_extendqisi2
 5028 3540 87B0CDE5 		strb	fp, [sp, #135]
 5029 3544 86B1D0E7 		ldrb	fp, [r0, r6, lsl #3]	@ zero_extendqisi2
 5030 3548 040080E0 		add	r0, r0, r4
 5031 354c 88B0CDE5 		strb	fp, [sp, #136]
 5032 3550 02B0DCE7 		ldrb	fp, [ip, r2]	@ zero_extendqisi2
 5033 3554 89B0CDE5 		strb	fp, [sp, #137]
 5034 3558 86B1D9E7 		ldrb	fp, [r9, r6, lsl #3]	@ zero_extendqisi2
 5035 355c 049089E0 		add	r9, r9, r4
 5036 3560 8AB0CDE5 		strb	fp, [sp, #138]
 5037 3564 06B0DCE7 		ldrb	fp, [ip, r6]	@ zero_extendqisi2
 5038 3568 8BB0CDE5 		strb	fp, [sp, #139]
 5039 356c 86B0DCE7 		ldrb	fp, [ip, r6, lsl #1]	@ zero_extendqisi2
 5040 3570 8CB0CDE5 		strb	fp, [sp, #140]
 5041 3574 04B09DE5 		ldr	fp, [sp, #4]
 5042 3578 0BB0DCE7 		ldrb	fp, [ip, fp]	@ zero_extendqisi2
 5043 357c 8DB0CDE5 		strb	fp, [sp, #141]
 5044 3580 06B1DCE7 		ldrb	fp, [ip, r6, lsl #2]	@ zero_extendqisi2
 5045 3584 8EB0CDE5 		strb	fp, [sp, #142]
 5046 3588 03B0DCE7 		ldrb	fp, [ip, r3]	@ zero_extendqisi2
 5047 358c 04C08CE0 		add	ip, ip, r4
 5048 3590 8FB0CDE5 		strb	fp, [sp, #143]
 5049 3594 202BDDED 		vldr	d18, [sp, #128]
 5050 3598 223BDDED 		vldr	d19, [sp, #136]
 5051 359c 324AC8F3 		vmovl.u8 q10, d18
 5052 35a0 332AC8F3 		vmovl.u8 q9, d19
 5053 35a4 346AD0F3 		vmovl.u16 q11, d20
 5054 35a8 354AD0F3 		vmovl.u16 q10, d21
 5055 35ac E00866F2 		vadd.i32	q8, q11, q8
 5056 35b0 326AD0F3 		vmovl.u16 q11, d18
 5057 35b4 E00864F2 		vadd.i32	q8, q10, q8
 5058 35b8 332AD0F3 		vmovl.u16 q9, d19
 5059 35bc E00866F2 		vadd.i32	q8, q11, q8
 5060 35c0 E00862F2 		vadd.i32	q8, q9, q8
 5061 35c4 C9FFFF3A 		bcc	.L574
 5062 35c8 A10860F2 		vadd.i32	d16, d16, d17
 5063 35cc 1CC09DE5 		ldr	ip, [sp, #28]
 5064 35d0 34309DE5 		ldr	r3, [sp, #52]
 5065 35d4 B00B60F2 		vpadd.i32	d16, d16, d16
 5066 35d8 05005CE1 		cmp	ip, r5
 5067 35dc 38209DE5 		ldr	r2, [sp, #56]
 5068 35e0 900B10EE 		vmov.32	r0, d16[0]
 5069 35e4 003083E0 		add	r3, r3, r0
 5070 35e8 0C00A011 		movne	r0, ip
 5071 35ec 6400000A 		beq	.L567
 5072              	.L572:
 5073 35f0 029080E0 		add	r9, r0, r2
 5074 35f4 01C080E2 		add	ip, r0, #1
 5075 35f8 960909E0 		mul	r9, r6, r9
 5076 35fc 05005CE1 		cmp	ip, r5
 5077 3600 0990D1E7 		ldrb	r9, [r1, r9]	@ zero_extendqisi2
 5078 3604 093083E0 		add	r3, r3, r9
 5079 3608 5D0000AA 		bge	.L567
 5080 360c 02908CE0 		add	r9, ip, r2
 5081 3610 02C080E2 		add	ip, r0, #2
 5082 3614 960909E0 		mul	r9, r6, r9
 5083 3618 0C0055E1 		cmp	r5, ip
 5084 361c 0990D1E7 		ldrb	r9, [r1, r9]	@ zero_extendqisi2
 5085 3620 093083E0 		add	r3, r3, r9
 5086 3624 560000DA 		ble	.L567
 5087 3628 02908CE0 		add	r9, ip, r2
 5088 362c 03C080E2 		add	ip, r0, #3
 5089 3630 960909E0 		mul	r9, r6, r9
 5090 3634 05005CE1 		cmp	ip, r5
 5091 3638 0990D1E7 		ldrb	r9, [r1, r9]	@ zero_extendqisi2
 5092 363c 093083E0 		add	r3, r3, r9
 5093 3640 4F0000AA 		bge	.L567
 5094 3644 02908CE0 		add	r9, ip, r2
 5095 3648 04C080E2 		add	ip, r0, #4
 5096 364c 960909E0 		mul	r9, r6, r9
 5097 3650 0C0055E1 		cmp	r5, ip
 5098 3654 0990D1E7 		ldrb	r9, [r1, r9]	@ zero_extendqisi2
 5099 3658 093083E0 		add	r3, r3, r9
 5100 365c 480000DA 		ble	.L567
 5101 3660 02908CE0 		add	r9, ip, r2
 5102 3664 05C080E2 		add	ip, r0, #5
 5103 3668 960909E0 		mul	r9, r6, r9
 5104 366c 0C0055E1 		cmp	r5, ip
 5105 3670 0990D1E7 		ldrb	r9, [r1, r9]	@ zero_extendqisi2
 5106 3674 093083E0 		add	r3, r3, r9
 5107 3678 410000DA 		ble	.L567
 5108 367c 02908CE0 		add	r9, ip, r2
 5109 3680 06C080E2 		add	ip, r0, #6
 5110 3684 960909E0 		mul	r9, r6, r9
 5111 3688 0C0055E1 		cmp	r5, ip
 5112 368c 0990D1E7 		ldrb	r9, [r1, r9]	@ zero_extendqisi2
 5113 3690 093083E0 		add	r3, r3, r9
 5114 3694 3A0000DA 		ble	.L567
 5115 3698 02908CE0 		add	r9, ip, r2
 5116 369c 07C080E2 		add	ip, r0, #7
 5117 36a0 960909E0 		mul	r9, r6, r9
 5118 36a4 0C0055E1 		cmp	r5, ip
 5119 36a8 0990D1E7 		ldrb	r9, [r1, r9]	@ zero_extendqisi2
 5120 36ac 093083E0 		add	r3, r3, r9
 5121 36b0 330000DA 		ble	.L567
 5122 36b4 02908CE0 		add	r9, ip, r2
 5123 36b8 08C080E2 		add	ip, r0, #8
 5124 36bc 960909E0 		mul	r9, r6, r9
 5125 36c0 0C0055E1 		cmp	r5, ip
 5126 36c4 0990D1E7 		ldrb	r9, [r1, r9]	@ zero_extendqisi2
 5127 36c8 093083E0 		add	r3, r3, r9
 5128 36cc 2C0000DA 		ble	.L567
 5129 36d0 02908CE0 		add	r9, ip, r2
 5130 36d4 09C080E2 		add	ip, r0, #9
 5131 36d8 960909E0 		mul	r9, r6, r9
 5132 36dc 0C0055E1 		cmp	r5, ip
 5133 36e0 0990D1E7 		ldrb	r9, [r1, r9]	@ zero_extendqisi2
 5134 36e4 093083E0 		add	r3, r3, r9
 5135 36e8 250000DA 		ble	.L567
 5136 36ec 02908CE0 		add	r9, ip, r2
 5137 36f0 0AC080E2 		add	ip, r0, #10
 5138 36f4 960909E0 		mul	r9, r6, r9
 5139 36f8 0C0055E1 		cmp	r5, ip
 5140 36fc 0990D1E7 		ldrb	r9, [r1, r9]	@ zero_extendqisi2
 5141 3700 093083E0 		add	r3, r3, r9
 5142 3704 1E0000DA 		ble	.L567
 5143 3708 02908CE0 		add	r9, ip, r2
 5144 370c 0BC080E2 		add	ip, r0, #11
 5145 3710 960909E0 		mul	r9, r6, r9
 5146 3714 0C0055E1 		cmp	r5, ip
 5147 3718 0990D1E7 		ldrb	r9, [r1, r9]	@ zero_extendqisi2
 5148 371c 093083E0 		add	r3, r3, r9
 5149 3720 170000DA 		ble	.L567
 5150 3724 02908CE0 		add	r9, ip, r2
 5151 3728 0CC080E2 		add	ip, r0, #12
 5152 372c 960909E0 		mul	r9, r6, r9
 5153 3730 0C0055E1 		cmp	r5, ip
 5154 3734 0990D1E7 		ldrb	r9, [r1, r9]	@ zero_extendqisi2
 5155 3738 093083E0 		add	r3, r3, r9
 5156 373c 100000DA 		ble	.L567
 5157 3740 02908CE0 		add	r9, ip, r2
 5158 3744 0DC080E2 		add	ip, r0, #13
 5159 3748 960909E0 		mul	r9, r6, r9
 5160 374c 0C0055E1 		cmp	r5, ip
 5161 3750 0990D1E7 		ldrb	r9, [r1, r9]	@ zero_extendqisi2
 5162 3754 093083E0 		add	r3, r3, r9
 5163 3758 090000DA 		ble	.L567
 5164 375c 02C08CE0 		add	ip, ip, r2
 5165 3760 0E0080E2 		add	r0, r0, #14
 5166 3764 960C0CE0 		mul	ip, r6, ip
 5167 3768 000055E1 		cmp	r5, r0
 5168 376c 0CC0D1E7 		ldrb	ip, [r1, ip]	@ zero_extendqisi2
 5169 3770 0C3083E0 		add	r3, r3, ip
 5170 3774 020080C0 		addgt	r0, r0, r2
 5171 3778 960000C0 		mulgt	r0, r6, r0
 5172 377c 0000D1C7 		ldrbgt	r0, [r1, r0]	@ zero_extendqisi2
 5173 3780 003083C0 		addgt	r3, r3, r0
 5174              	.L567:
 5175 3784 018088E2 		add	r8, r8, #1
 5176 3788 18009DE5 		ldr	r0, [sp, #24]
 5177 378c 0E0058E1 		cmp	r8, lr
 5178 3790 052082E0 		add	r2, r2, r5
 5179 3794 007087E0 		add	r7, r7, r0
 5180 3798 3CFFFF1A 		bne	.L578
 5181 379c 98209DE5 		ldr	r2, [sp, #152]
 5182 37a0 94109DE5 		ldr	r1, [sp, #148]
 5183 37a4 000052E3 		cmp	r2, #0
 5184 37a8 C20FC2E1 		bic	r0, r2, r2, asr #31
 5185 37ac 00C0A0C3 		movgt	ip, #0
 5186 37b0 700000DA 		ble	.L746
 5187              	.L579:
 5188 37b4 1330A0E1 		lsl	r3, r3, r0
 5189 37b8 93A1CBE0 		smull	r10, fp, r3, r1
 5190 37bc 030051E1 		cmp	r1, r3
 5191 37c0 02015303 		cmpeq	r3, #-2147483648
 5192 37c4 0110A003 		moveq	r1, #1
 5193 37c8 0010A013 		movne	r1, #0
 5194 37cc 00005AE3 		cmp	r10, #0
 5195 37d0 0030DBE2 		sbcs	r3, fp, #0
 5196 37d4 630000BA 		blt	.L782
 5197 37d8 0121A0E3 		mov	r2, #1073741824
 5198 37dc 0030A0E3 		mov	r3, #0
 5199              	.L580:
 5200 37e0 000051E3 		cmp	r1, #0
 5201 37e4 5600001A 		bne	.L1264
 5202              	.L712:
 5203 37e8 02809AE0 		adds	r8, r10, r2
 5204 37ec 0390ABE0 		adc	r9, fp, r3
 5205 37f0 0030A0E3 		mov	r3, #0
 5206 37f4 C92FA0E1 		asr	r2, r9, #31
 5207 37f8 0221C2E3 		bic	r2, r2, #-2147483648
 5208 37fc 080092E0 		adds	r0, r2, r8
 5209 3800 A02FA0E1 		lsr	r2, r0, #31
 5210 3804 0910A3E0 		adc	r1, r3, r9
 5211 3808 812082E1 		orr	r2, r2, r1, lsl #1
 5212              	.L711:
 5213 380c 1F005CE3 		cmp	ip, #31
 5214 3810 650000CA 		bgt	.L1265
 5215 3814 9B0BDFED 		vldr.64	d16, .L1279	@ int
 5216 3818 521CA0E1 		asr	r1, r2, ip
 5217 381c 90CB01EE 		vmov.32	d17[0], ip
 5218 3820 A00471F3 		vshl.u64	d16, d16, d17
 5219 3824 308B59EC 		vmov	r8, r9, d16	@ int
 5220 3828 013048E2 		sub	r3, r8, #1
 5221 382c C300A0E1 		asr	r0, r3, #1
 5222 3830 023003E0 		and	r3, r3, r2
 5223 3834 A22F80E0 		add	r2, r0, r2, lsr #31
 5224 3838 020053E1 		cmp	r3, r2
 5225 383c 0130A0D1 		movle	r3, r1
 5226 3840 013081C2 		addgt	r3, r1, #1
 5227 3844 3C209DE5 		ldr	r2, [sp, #60]
 5228 3848 040052E3 		cmp	r2, #4
 5229 384c 64209DE5 		ldr	r2, [sp, #100]
 5230 3850 023083E0 		add	r3, r3, r2
 5231 3854 1330E8E6 		usat	r3, #8, r3
 5232 3858 6800001A 		bne	.L1266
 5233 385c 0C209DE5 		ldr	r2, [sp, #12]
 5234 3860 68109DE5 		ldr	r1, [sp, #104]
 5235 3864 010052E1 		cmp	r2, r1
 5236 3868 630000AA 		bge	.L1267
 5237 386c 6C209DE5 		ldr	r2, [sp, #108]
 5238 3870 000052E3 		cmp	r2, #0
 5239 3874 550000DA 		ble	.L1268
 5240 3878 70209DE5 		ldr	r2, [sp, #112]
 5241 387c 000052E3 		cmp	r2, #0
 5242 3880 510000DA 		ble	.L1269
 5243 3884 08209DE5 		ldr	r2, [sp, #8]
 5244 3888 74109DE5 		ldr	r1, [sp, #116]
 5245 388c 010052E1 		cmp	r2, r1
 5246 3890 580000AA 		bge	.L1270
 5247 3894 60109DE5 		ldr	r1, [sp, #96]
 5248 3898 012082E2 		add	r2, r2, #1
 5249 389c 08208DE5 		str	r2, [sp, #8]
 5250 38a0 0130C1E4 		strb	r3, [r1], #1
 5251 38a4 54309DE5 		ldr	r3, [sp, #84]
 5252 38a8 60108DE5 		str	r1, [sp, #96]
 5253 38ac 030052E1 		cmp	r2, r3
 5254 38b0 EBFEFF1A 		bne	.L563
 5255              	.L587:
 5256 38b4 48209DE5 		ldr	r2, [sp, #72]
 5257 38b8 78109DE5 		ldr	r1, [sp, #120]
 5258 38bc 0C309DE5 		ldr	r3, [sp, #12]
 5259 38c0 012082E0 		add	r2, r2, r1
 5260 38c4 48208DE5 		str	r2, [sp, #72]
 5261 38c8 013083E2 		add	r3, r3, #1
 5262 38cc 50209DE5 		ldr	r2, [sp, #80]
 5263 38d0 0C308DE5 		str	r3, [sp, #12]
 5264 38d4 020053E1 		cmp	r3, r2
 5265 38d8 40309DE5 		ldr	r3, [sp, #64]
 5266 38dc 58209DE5 		ldr	r2, [sp, #88]
 5267 38e0 023083E0 		add	r3, r3, r2
 5268 38e4 7C209DE5 		ldr	r2, [sp, #124]
 5269 38e8 40308DE5 		str	r3, [sp, #64]
 5270 38ec 44309DE5 		ldr	r3, [sp, #68]
 5271 38f0 023083E0 		add	r3, r3, r2
 5272 38f4 44308DE5 		str	r3, [sp, #68]
 5273 38f8 D0FEFF1A 		bne	.L565
 5274              	.L564:
 5275 38fc 3C309DE5 		ldr	r3, [sp, #60]
 5276 3900 050053E3 		cmp	r3, #5
 5277 3904 EFFDFFCA 		bgt	.L561
 5278 3908 E7F7FFEA 		b	.L562
 5279              	.L780:
 5280 390c 0000A0E3 		mov	r0, #0
 5281 3910 36FFFFEA 		b	.L572
 5282              	.L1258:
 5283 3914 F4309DE5 		ldr	r3, [sp, #244]
 5284 3918 002093E5 		ldr	r2, [r3]
 5285 391c 081093E5 		ldr	r1, [r3, #8]
 5286 3920 50208DE5 		str	r2, [sp, #80]
 5287 3924 042093E5 		ldr	r2, [r3, #4]
 5288 3928 0C3093E5 		ldr	r3, [r3, #12]
 5289 392c 54308DE5 		str	r3, [sp, #84]
 5290 3930 6BFEFFEA 		b	.L550
 5291              	.L1260:
 5292 3934 F03ADDE1 		ldrsh	r3, [sp, #160]
 5293 3938 020053E3 		cmp	r3, #2
 5294 393c 78FEFF0A 		beq	.L553
 5295              	.L554:
 5296 3940 FEFFFFEB 		bl	abort
 5297              	.L1264:
 5298 3944 0221E0E3 		mvn	r2, #-2147483648
 5299 3948 AFFFFFEA 		b	.L711
 5300              	.L568:
 5301 394c FEFFFFEB 		bl	abort
 5302              	.L819:
 5303 3950 3C309DE5 		ldr	r3, [sp, #60]
 5304 3954 050053E3 		cmp	r3, #5
 5305 3958 3AF7FFDA 		ble	.L443
 5306 395c B9FAFFEA 		b	.L1178
 5307              	.L1263:
 5308 3960 FEFFFFEB 		bl	abort
 5309              	.L569:
 5310 3964 FEFFFFEB 		bl	abort
 5311              	.L782:
 5312 3968 0721A0E3 		mov	r2, #-1073741823
 5313 396c 0030E0E3 		mvn	r3, #0
 5314 3970 9AFFFFEA 		b	.L580
 5315              	.L809:
 5316 3974 0030A0E3 		mov	r3, #0
 5317              	.L746:
 5318 3978 00C062E2 		rsb	ip, r2, #0
 5319 397c 8CFFFFEA 		b	.L579
 5320              	.L566:
 5321 3980 98209DE5 		ldr	r2, [sp, #152]
 5322 3984 94109DE5 		ldr	r1, [sp, #148]
 5323 3988 000052E3 		cmp	r2, #0
 5324 398c C20FC2E1 		bic	r0, r2, r2, asr #31
 5325 3990 F7FFFFDA 		ble	.L809
 5326 3994 0121A0E3 		mov	r2, #1073741824
 5327 3998 0030A0E3 		mov	r3, #0
 5328 399c 00C0A0E3 		mov	ip, #0
 5329 39a0 00A0A0E3 		mov	r10, #0
 5330 39a4 00B0A0E3 		mov	fp, #0
 5331 39a8 8EFFFFEA 		b	.L712
 5332              	.L1265:
 5333 39ac 003000E3 		movw	r3, #:lower16:.LC2
 5334 39b0 002000E3 		movw	r2, #:lower16:.LANCHOR0
 5335 39b4 000000E3 		movw	r0, #:lower16:.LC3
 5336 39b8 003040E3 		movt	r3, #:upper16:.LC2
 5337 39bc 002040E3 		movt	r2, #:upper16:.LANCHOR0
 5338 39c0 000040E3 		movt	r0, #:upper16:.LC3
 5339 39c4 671100E3 		movw	r1, #359
 5340 39c8 FEFFFFEB 		bl	__assert_func
 5341              	.LEHE21:
 5342              	.L1269:
 5343              	.LEHB22:
 5344 39cc FEFFFFEB 		bl	abort
 5345              	.L1268:
 5346 39d0 FEFFFFEB 		bl	abort
 5347              	.L1259:
 5348 39d4 FEFFFFEB 		bl	abort
 5349              	.L737:
 5350 39d8 FEFFFFEB 		bl	abort
 5351              	.L736:
 5352 39dc FEFFFFEB 		bl	abort
 5353              	.L1255:
 5354 39e0 FEFFFFEB 		bl	abort
 5355              	.LEHE22:
 5356              	.L814:
 5357 39e4 1EF7FFEA 		b	.L694
 5358              	.L1240:
 5359              	.LEHB23:
 5360 39e8 FEFFFFEB 		bl	abort
 5361              	.LEHE23:
 5362              	.L820:
 5363 39ec 15F7FFEA 		b	.L443
 5364              	.L1257:
 5365              	.LEHB24:
 5366 39f0 FEFFFFEB 		bl	abort
 5367              	.L1256:
 5368 39f4 FEFFFFEB 		bl	abort
 5369              	.L1270:
 5370 39f8 FEFFFFEB 		bl	abort
 5371              	.L1267:
 5372 39fc FEFFFFEB 		bl	abort
 5373              	.LEHE24:
 5374              	.L1266:
 5375              	.LEHB25:
 5376 3a00 FEFFFFEB 		bl	abort
 5377              	.L1262:
 5378 3a04 FEFFFFEB 		bl	abort
 5379              	.L1261:
 5380 3a08 FEFFFFEB 		bl	abort
 5381              	.LEHE25:
 5382              	.L765:
 5383 3a0c 0060A0E3 		mov	r6, #0
 5384 3a10 BAFAFFEA 		b	.L462
 5385              	.L769:
 5386 3a14 0060A0E3 		mov	r6, #0
 5387 3a18 C4F6FFEA 		b	.L490
 5388              	.L1223:
 5389              	.LEHB26:
 5390 3a1c FEFFFFEB 		bl	abort
 5391              	.L1222:
 5392 3a20 FEFFFFEB 		bl	abort
 5393              	.L1224:
 5394 3a24 FEFFFFEB 		bl	abort
 5395              	.L724:
 5396 3a28 FEFFFFEB 		bl	abort
 5397              	.LEHE26:
 5398              	.L1238:
 5399 3a2c 0140A0E3 		mov	r4, #1
 5400 3a30 8CF6FFEA 		b	.L706
 5401              	.L790:
 5402 3a34 0060A0E3 		mov	r6, #0
 5403 3a38 D1F5FFEA 		b	.L641
 5404              	.L1244:
 5405              	.LEHB27:
 5406 3a3c FEFFFFEB 		bl	abort
 5407              	.LEHE27:
 5408              	.L409:
 5409              	.LEHB28:
 5410 3a40 FEFFFFEB 		bl	abort
 5411              	.L1246:
 5412 3a44 FEFFFFEB 		bl	abort
 5413              	.LEHE28:
 5414              	.L1251:
 5415              	.LEHB29:
 5416 3a48 FEFFFFEB 		bl	abort
 5417              	.L1250:
 5418 3a4c FEFFFFEB 		bl	abort
 5419              	.LEHE29:
 5420              	.L1249:
 5421              	.LEHB30:
 5422 3a50 FEFFFFEB 		bl	abort
 5423              	.L1248:
 5424 3a54 003000E3 		movw	r3, #:lower16:.LC2
 5425 3a58 002000E3 		movw	r2, #:lower16:.LANCHOR0
 5426 3a5c 000000E3 		movw	r0, #:lower16:.LC3
 5427 3a60 003040E3 		movt	r3, #:upper16:.LC2
 5428 3a64 002040E3 		movt	r2, #:upper16:.LANCHOR0
 5429 3a68 000040E3 		movt	r0, #:upper16:.LC3
 5430 3a6c 671100E3 		movw	r1, #359
 5431 3a70 FEFFFFEB 		bl	__assert_func
 5432              	.LEHE30:
 5433              	.L1253:
 5434              	.LEHB31:
 5435 3a74 FEFFFFEB 		bl	abort
 5436              	.L1252:
 5437 3a78 FEFFFFEB 		bl	abort
 5438              	.L729:
 5439 3a7c FEFFFFEB 		bl	abort
 5440              	.L728:
 5441 3a80 FEFFFFEB 		bl	abort
 5442              	.LEHE31:
 5443              	.L1280:
 5444 3a84 00F020E3 		.align	3
 5445              	.L1279:
 5446 3a88 01000000 		.word	1
 5447 3a8c 00000000 		.word	0
 5448              		.global	__gxx_personality_v0
 5449              		.personality	__gxx_personality_v0
 5450              		.handlerdata
 5451              	.LLSDA4196:
 5452 000c FF       		.byte	0xff
 5453 000d FF       		.byte	0xff
 5454 000e 01       		.byte	0x1
 5455 000f BC01     		.uleb128 .LLSDACSE4196-.LLSDACSB4196
 5456              	.LLSDACSB4196:
 5457 0011 2C       		.uleb128 .LEHB0-.LFB4196
 5458 0012 942B     		.uleb128 .LEHE0-.LEHB0
 5459 0014 00       		.uleb128 0
 5460 0015 00       		.uleb128 0
 5461 0016 CC2B     		.uleb128 .LEHB1-.LFB4196
 5462 0018 04       		.uleb128 .LEHE1-.LEHB1
 5463 0019 DC59     		.uleb128 .L811-.LFB4196
 5464 001b 00       		.uleb128 0
 5465 001c C42C     		.uleb128 .LEHB2-.LFB4196
 5466 001e 04       		.uleb128 .LEHE2-.LEHB2
 5467 001f C82C     		.uleb128 .L815-.LFB4196
 5468 0021 00       		.uleb128 0
 5469 0022 802D     		.uleb128 .LEHB3-.LFB4196
 5470 0024 04       		.uleb128 .LEHE3-.LEHB3
 5471 0025 00       		.uleb128 0
 5472 0026 00       		.uleb128 0
 5473 0027 8C48     		.uleb128 .LEHB4-.LFB4196
 5474 0029 04       		.uleb128 .LEHE4-.LEHB4
 5475 002a C048     		.uleb128 .L816-.LFB4196
 5476 002c 00       		.uleb128 0
 5477 002d B848     		.uleb128 .LEHB5-.LFB4196
 5478 002f 04       		.uleb128 .LEHE5-.LEHB5
 5479 0030 00       		.uleb128 0
 5480 0031 00       		.uleb128 0
 5481 0032 BC48     		.uleb128 .LEHB6-.LFB4196
 5482 0034 28       		.uleb128 .LEHE6-.LEHB6
 5483 0035 C048     		.uleb128 .L816-.LFB4196
 5484 0037 00       		.uleb128 0
 5485 0038 A859     		.uleb128 .LEHB7-.LFB4196
 5486 003a 0C       		.uleb128 .LEHE7-.LEHB7
 5487 003b C82C     		.uleb128 .L815-.LFB4196
 5488 003d 00       		.uleb128 0
 5489 003e B459     		.uleb128 .LEHB8-.LFB4196
 5490 0040 04       		.uleb128 .LEHE8-.LEHB8
 5491 0041 C048     		.uleb128 .L816-.LFB4196
 5492 0043 00       		.uleb128 0
 5493 0044 B859     		.uleb128 .LEHB9-.LFB4196
 5494 0046 04       		.uleb128 .LEHE9-.LEHB9
 5495 0047 C82C     		.uleb128 .L815-.LFB4196
 5496 0049 00       		.uleb128 0
 5497 004a BC59     		.uleb128 .LEHB10-.LFB4196
 5498 004c 08       		.uleb128 .LEHE10-.LEHB10
 5499 004d C048     		.uleb128 .L816-.LFB4196
 5500 004f 00       		.uleb128 0
 5501 0050 C459     		.uleb128 .LEHB11-.LFB4196
 5502 0052 08       		.uleb128 .LEHE11-.LEHB11
 5503 0053 C82C     		.uleb128 .L815-.LFB4196
 5504 0055 00       		.uleb128 0
 5505 0056 885A     		.uleb128 .LEHB12-.LFB4196
 5506 0058 04       		.uleb128 .LEHE12-.LEHB12
 5507 0059 00       		.uleb128 0
 5508 005a 00       		.uleb128 0
 5509 005b A05A     		.uleb128 .LEHB13-.LFB4196
 5510 005d 04       		.uleb128 .LEHE13-.LEHB13
 5511 005e B863     		.uleb128 .L812-.LFB4196
 5512 0060 00       		.uleb128 0
 5513 0061 A45B     		.uleb128 .LEHB14-.LFB4196
 5514 0063 04       		.uleb128 .LEHE14-.LEHB14
 5515 0064 A85B     		.uleb128 .L813-.LFB4196
 5516 0066 00       		.uleb128 0
 5517 0067 8462     		.uleb128 .LEHB15-.LFB4196
 5518 0069 20       		.uleb128 .LEHE15-.LEHB15
 5519 006a 8C62     		.uleb128 .L817-.LFB4196
 5520 006c 00       		.uleb128 0
 5521 006d B063     		.uleb128 .LEHB16-.LFB4196
 5522 006f 04       		.uleb128 .LEHE16-.LEHB16
 5523 0070 EC73     		.uleb128 .L820-.LFB4196
 5524 0072 00       		.uleb128 0
 5525 0073 B463     		.uleb128 .LEHB17-.LFB4196
 5526 0075 04       		.uleb128 .LEHE17-.LEHB17
 5527 0076 A85B     		.uleb128 .L813-.LFB4196
 5528 0078 00       		.uleb128 0
 5529 0079 E063     		.uleb128 .LEHB18-.LFB4196
 5530 007b 04       		.uleb128 .LEHE18-.LEHB18
 5531 007c 00       		.uleb128 0
 5532 007d 00       		.uleb128 0
 5533 007e FC63     		.uleb128 .LEHB19-.LFB4196
 5534 0080 04       		.uleb128 .LEHE19-.LEHB19
 5535 0081 E473     		.uleb128 .L814-.LFB4196
 5536 0083 00       		.uleb128 0
 5537 0084 FC64     		.uleb128 .LEHB20-.LFB4196
 5538 0086 04       		.uleb128 .LEHE20-.LEHB20
 5539 0087 8065     		.uleb128 .L818-.LFB4196
 5540 0089 00       		.uleb128 0
 5541 008a FC66     		.uleb128 .LEHB21-.LFB4196
 5542 008c D00C     		.uleb128 .LEHE21-.LEHB21
 5543 008e D072     		.uleb128 .L819-.LFB4196
 5544 0090 00       		.uleb128 0
 5545 0091 CC73     		.uleb128 .LEHB22-.LFB4196
 5546 0093 18       		.uleb128 .LEHE22-.LEHB22
 5547 0094 8065     		.uleb128 .L818-.LFB4196
 5548 0096 00       		.uleb128 0
 5549 0097 E873     		.uleb128 .LEHB23-.LFB4196
 5550 0099 04       		.uleb128 .LEHE23-.LEHB23
 5551 009a A85B     		.uleb128 .L813-.LFB4196
 5552 009c 00       		.uleb128 0
 5553 009d F073     		.uleb128 .LEHB24-.LFB4196
 5554 009f 10       		.uleb128 .LEHE24-.LEHB24
 5555 00a0 8065     		.uleb128 .L818-.LFB4196
 5556 00a2 00       		.uleb128 0
 5557 00a3 8074     		.uleb128 .LEHB25-.LFB4196
 5558 00a5 0C       		.uleb128 .LEHE25-.LEHB25
 5559 00a6 D072     		.uleb128 .L819-.LFB4196
 5560 00a8 00       		.uleb128 0
 5561 00a9 9C74     		.uleb128 .LEHB26-.LFB4196
 5562 00ab 10       		.uleb128 .LEHE26-.LEHB26
 5563 00ac C82C     		.uleb128 .L815-.LFB4196
 5564 00ae 00       		.uleb128 0
 5565 00af BC74     		.uleb128 .LEHB27-.LFB4196
 5566 00b1 04       		.uleb128 .LEHE27-.LEHB27
 5567 00b2 EC73     		.uleb128 .L820-.LFB4196
 5568 00b4 00       		.uleb128 0
 5569 00b5 C074     		.uleb128 .LEHB28-.LFB4196
 5570 00b7 08       		.uleb128 .LEHE28-.LEHB28
 5571 00b8 8C62     		.uleb128 .L817-.LFB4196
 5572 00ba 00       		.uleb128 0
 5573 00bb C874     		.uleb128 .LEHB29-.LFB4196
 5574 00bd 08       		.uleb128 .LEHE29-.LEHB29
 5575 00be EC73     		.uleb128 .L820-.LFB4196
 5576 00c0 00       		.uleb128 0
 5577 00c1 D074     		.uleb128 .LEHB30-.LFB4196
 5578 00c3 24       		.uleb128 .LEHE30-.LEHB30
 5579 00c4 8C62     		.uleb128 .L817-.LFB4196
 5580 00c6 00       		.uleb128 0
 5581 00c7 F474     		.uleb128 .LEHB31-.LFB4196
 5582 00c9 10       		.uleb128 .LEHE31-.LEHB31
 5583 00ca EC73     		.uleb128 .L820-.LFB4196
 5584 00cc 00       		.uleb128 0
 5585              	.LLSDACSE4196:
 5586              		.section	.text._ZN6tflite3ops5micro6reduce8EvalMeanEP13TfLiteContextP10TfLiteNode
 5587              		.fnend
 5589              		.section	.text._ZN6tflite3ops5micro6reduce13PrepareSimpleEP13TfLiteContextP10TfLiteNode,"ax",%prog
 5590              		.align	2
 5591              		.global	_ZN6tflite3ops5micro6reduce13PrepareSimpleEP13TfLiteContextP10TfLiteNode
 5592              		.syntax unified
 5593              		.arm
 5594              		.fpu neon
 5596              	_ZN6tflite3ops5micro6reduce13PrepareSimpleEP13TfLiteContextP10TfLiteNode:
 5597              		.fnstart
 5598              	.LFB4192:
 5599              		@ args = 0, pretend = 0, frame = 0
 5600              		@ frame_needed = 0, uses_anonymous_args = 0
 5601 0000 70402DE9 		push	{r4, r5, r6, lr}
 5602              		.save {r4, r5, r6, lr}
 5603 0004 0020A0E3 		mov	r2, #0
 5604 0008 0140A0E1 		mov	r4, r1
 5605 000c 0050A0E1 		mov	r5, r0
 5606 0010 FEFFFFEB 		bl	_ZN6tflite8GetInputEPK13TfLiteContextPK10TfLiteNodei
 5607 0014 003094E5 		ldr	r3, [r4]
 5608 0018 003093E5 		ldr	r3, [r3]
 5609 001c 020053E3 		cmp	r3, #2
 5610 0020 0100000A 		beq	.L1282
 5611              	.L1284:
 5612 0024 0100A0E3 		mov	r0, #1
 5613 0028 7080BDE8 		pop	{r4, r5, r6, pc}
 5614              	.L1282:
 5615 002c 043094E5 		ldr	r3, [r4, #4]
 5616 0030 002093E5 		ldr	r2, [r3]
 5617 0034 010052E3 		cmp	r2, #1
 5618 0038 F9FFFF1A 		bne	.L1284
 5619 003c 0060A0E1 		mov	r6, r0
 5620 0040 0410A0E1 		mov	r1, r4
 5621 0044 0500A0E1 		mov	r0, r5
 5622 0048 FEFFFFEB 		bl	_ZN6tflite8GetInputEPK13TfLiteContextPK10TfLiteNodei
 5623 004c 000050E3 		cmp	r0, #0
 5624 0050 F3FFFF0A 		beq	.L1284
 5625 0054 0030D0E5 		ldrb	r3, [r0]	@ zero_extendqisi2
 5626 0058 020053E3 		cmp	r3, #2
 5627 005c F0FFFF1A 		bne	.L1284
 5628 0060 0030D6E5 		ldrb	r3, [r6]	@ zero_extendqisi2
 5629 0064 090053E3 		cmp	r3, #9
 5630 0068 0100000A 		beq	.L1290
 5631 006c 0000A0E3 		mov	r0, #0
 5632 0070 7080BDE8 		pop	{r4, r5, r6, pc}
 5633              	.L1290:
 5634 0074 0020A0E3 		mov	r2, #0
 5635 0078 0410A0E1 		mov	r1, r4
 5636 007c 0500A0E1 		mov	r0, r5
 5637 0080 104094E5 		ldr	r4, [r4, #16]
 5638 0084 FEFFFFEB 		bl	_ZN6tflite9GetOutputEP13TfLiteContextPK10TfLiteNodei
 5639 0088 030A96ED 		vldr.32	s0, [r6, #12]
 5640 008c 037AD0ED 		vldr.32	s15, [r0, #12]
 5641 0090 041084E2 		add	r1, r4, #4
 5642 0094 0400A0E1 		mov	r0, r4
 5643 0098 C00AB7EE 		vcvt.f64.f32	d0, s0
 5644 009c E70AF7EE 		vcvt.f64.f32	d16, s15
 5645 00a0 200B80EE 		vdiv.f64	d0, d0, d16
 5646 00a4 FEFFFFEB 		bl	_ZN6tflite18QuantizeMultiplierEdPlPi
 5647 00a8 0000A0E3 		mov	r0, #0
 5648 00ac 7080BDE8 		pop	{r4, r5, r6, pc}
 5649              		.fnend
 5651              		.section	.text._ZN6tflite3ops5micro6reduce11ResolveAxisEPKiiPNS_10MeanParamsE,"ax",%progbits
 5652              		.align	2
 5653              		.global	_ZN6tflite3ops5micro6reduce11ResolveAxisEPKiiPNS_10MeanParamsE
 5654              		.syntax unified
 5655              		.arm
 5656              		.fpu neon
 5658              	_ZN6tflite3ops5micro6reduce11ResolveAxisEPKiiPNS_10MeanParamsE:
 5659              		.fnstart
 5660              	.LFB4195:
 5661              		@ args = 0, pretend = 0, frame = 0
 5662              		@ frame_needed = 0, uses_anonymous_args = 0
 5663 0000 000051E3 		cmp	r1, #0
 5664 0004 110000DA 		ble	.L1316
 5665 0008 04E02DE5 		str	lr, [sp, #-4]!
 5666 000c 01E180E0 		add	lr, r0, r1, lsl #2
 5667 0010 023082E2 		add	r3, r2, #2
 5668              	.L1295:
 5669 0014 04C090E4 		ldr	ip, [r0], #4
 5670 0018 0E0050E1 		cmp	r0, lr
 5671 001c B2C0C3E0 		strh	ip, [r3], #2	@ movhi
 5672 0020 FBFFFF1A 		bne	.L1295
 5673 0024 030051E3 		cmp	r1, #3
 5674 0028 060000CA 		bgt	.L1296
 5675 002c 013081E2 		add	r3, r1, #1
 5676 0030 01C0A0E3 		mov	ip, #1
 5677 0034 130C82E0 		add	r0, r2, r3, lsl ip
 5678              	.L1297:
 5679 0038 040053E3 		cmp	r3, #4
 5680 003c B2C0C0E0 		strh	ip, [r0], #2	@ movhi
 5681 0040 013083E2 		add	r3, r3, #1
 5682 0044 FBFFFF1A 		bne	.L1297
 5683              	.L1296:
 5684 0048 0010C2E5 		strb	r1, [r2]
 5685 004c 04F09DE4 		ldr	pc, [sp], #4
 5686              	.L1316:
 5687 0050 0030A0E3 		mov	r3, #0
 5688 0054 01C0A0E3 		mov	ip, #1
 5689 0058 013083E2 		add	r3, r3, #1
 5690 005c 130C82E0 		add	r0, r2, r3, lsl ip
 5691              	.L1310:
 5692 0060 040053E3 		cmp	r3, #4
 5693 0064 B2C0C0E0 		strh	ip, [r0], #2	@ movhi
 5694 0068 013083E2 		add	r3, r3, #1
 5695 006c FBFFFF1A 		bne	.L1310
 5696 0070 0010C2E5 		strb	r1, [r2]
 5697 0074 1EFF2FE1 		bx	lr
 5698              		.cantunwind
 5699              		.fnend
 5701              		.section	.text._ZN6tflite3ops5micro13Register_MEANEv,"ax",%progbits
 5702              		.align	2
 5703              		.global	_ZN6tflite3ops5micro13Register_MEANEv
 5704              		.syntax unified
 5705              		.arm
 5706              		.fpu neon
 5708              	_ZN6tflite3ops5micro13Register_MEANEv:
 5709              		.fnstart
 5710              	.LFB4204:
 5711              		@ args = 0, pretend = 0, frame = 0
 5712              		@ frame_needed = 0, uses_anonymous_args = 0
 5713 0000 00C000E3 		movw	ip, #:lower16:.LANCHOR1
 5714 0004 10402DE9 		push	{r4, lr}
 5715 0008 00C040E3 		movt	ip, #:upper16:.LANCHOR1
 5716 000c 0040A0E1 		mov	r4, r0
 5717 0010 00E0A0E1 		mov	lr, r0
 5718 0014 0F00BCE8 		ldmia	ip!, {r0, r1, r2, r3}
 5719 0018 0F00AEE8 		stmia	lr!, {r0, r1, r2, r3}
 5720 001c 0F009CE8 		ldm	ip, {r0, r1, r2, r3}
 5721 0020 0F008EE8 		stm	lr, {r0, r1, r2, r3}
 5722 0024 0400A0E1 		mov	r0, r4
 5723 0028 1080BDE8 		pop	{r4, pc}
 5724              		.cantunwind
 5725              		.fnend
 5727              		.section	.text._ZN6tflite3ops5micro19Register_REDUCE_MAXEv,"ax",%progbits
 5728              		.align	2
 5729              		.global	_ZN6tflite3ops5micro19Register_REDUCE_MAXEv
 5730              		.syntax unified
 5731              		.arm
 5732              		.fpu neon
 5734              	_ZN6tflite3ops5micro19Register_REDUCE_MAXEv:
 5735              		.fnstart
 5736              	.LFB4205:
 5737              		@ args = 0, pretend = 0, frame = 0
 5738              		@ frame_needed = 0, uses_anonymous_args = 0
 5739 0000 10402DE9 		push	{r4, lr}
 5740 0004 00C0A0E1 		mov	ip, r0
 5741 0008 18E09FE5 		ldr	lr, .L1321
 5742 000c 0040A0E1 		mov	r4, r0
 5743 0010 0F00BEE8 		ldmia	lr!, {r0, r1, r2, r3}
 5744 0014 0F00ACE8 		stmia	ip!, {r0, r1, r2, r3}
 5745 0018 0F009EE8 		ldm	lr, {r0, r1, r2, r3}
 5746 001c 0F008CE8 		stm	ip, {r0, r1, r2, r3}
 5747 0020 0400A0E1 		mov	r0, r4
 5748 0024 1080BDE8 		pop	{r4, pc}
 5749              	.L1322:
 5750              		.align	2
 5751              	.L1321:
 5752 0028 20000000 		.word	.LANCHOR1+32
 5753              		.cantunwind
 5754              		.fnend
 5756              		.section	.rodata
 5757              		.align	2
 5758              		.set	.LANCHOR1,. + 0
 5759              	.LC0:
 5760 0000 00000000 		.word	_ZN6tflite3ops5micro6reduce10InitReduceEP13TfLiteContextPKcj
 5761 0004 00000000 		.word	0
 5762 0008 00000000 		.word	_ZN6tflite3ops5micro6reduce16PrepareMeanOrSumEP13TfLiteContextP10TfLiteNode
 5763 000c 00000000 		.word	_ZN6tflite3ops5micro6reduce8EvalMeanEP13TfLiteContextP10TfLiteNode
 5764 0010 00000000 		.word	0
 5765 0014 00000000 		.word	0
 5766 0018 00000000 		.word	0
 5767 001c 00000000 		.word	0
 5768              	.LC1:
 5769 0020 00000000 		.word	_ZN6tflite3ops5micro6reduce10InitReduceEP13TfLiteContextPKcj
 5770 0024 00000000 		.word	0
 5771 0028 00000000 		.word	_ZN6tflite3ops5micro6reduce10PrepareMaxEP13TfLiteContextP10TfLiteNode
 5772 002c 00000000 		.word	_ZN6tflite3ops5micro6reduce7EvalMaxEP13TfLiteContextP10TfLiteNode
 5773 0030 00000000 		.word	0
 5774 0034 00000000 		.word	0
 5775 0038 00000000 		.word	0
 5776 003c 00000000 		.word	0
 5777              		.section	.rodata._ZN6tflite3ops5micro6reduce8EvalMeanEP13TfLiteContextP10TfLiteNode.str1.4,"aMS",%
 5778              		.align	2
 5779              	.LC2:
 5780 0000 6578706F 		.ascii	"exponent <= 31\000"
 5780      6E656E74 
 5780      203C3D20 
 5780      333100
 5781 000f 00       		.space	1
 5782              	.LC3:
 5783 0010 433A2F52 		.ascii	"C:/Renesas/e2studio_2021_01_workspace_RZA2M_ANPR/AN"
 5783      656E6573 
 5783      61732F65 
 5783      32737475 
 5783      64696F5F 
 5784 0043 50525F52 		.ascii	"PR_RZA2M_EBK/src/tensorflow_lite/third_party/gemmlo"
 5784      5A41324D 
 5784      5F45424B 
 5784      2F737263 
 5784      2F74656E 
 5785 0076 77702F66 		.ascii	"wp/fixedpoint/fixedpoint.h\000"
 5785      69786564 
 5785      706F696E 
 5785      742F6669 
 5785      78656470 
 5786              		.section	.rodata._ZZN8gemmlowp19RoundingDivideByPOTIlEET_S1_iE19__PRETTY_FUNCTION__,"a",%progbits
 5787              		.align	3
 5788              		.set	.LANCHOR0,. + 0
 5791              	_ZZN8gemmlowp19RoundingDivideByPOTIlEET_S1_iE19__PRETTY_FUNCTION__:
 5792 0000 496E7465 		.ascii	"IntegerType gemmlowp::RoundingDivideByPOT(IntegerTy"
 5792      67657254 
 5792      79706520 
 5792      67656D6D 
 5792      6C6F7770 
 5793 0033 70652C20 		.ascii	"pe, int) [with IntegerType = long int]\000"
 5793      696E7429 
 5793      205B7769 
 5793      74682049 
 5793      6E746567 
 5794              		.ident	"GCC: (GNU Tools for ARM Embedded Processors 6-2017-q2-update) 6.3.1 20170620 (release) [AR