   1              		.cpu cortex-a9
   2              		.eabi_attribute 28, 1
   3              		.eabi_attribute 20, 1
   4              		.eabi_attribute 21, 1
   5              		.eabi_attribute 23, 3
   6              		.eabi_attribute 24, 1
   7              		.eabi_attribute 25, 1
   8              		.eabi_attribute 26, 1
   9              		.eabi_attribute 30, 2
  10              		.eabi_attribute 34, 0
  11              		.eabi_attribute 18, 4
  12              		.file	"split.cc"
  13              		.section	.text._ZN6tflite3ops5micro5split7PrepareEP13TfLiteContextP10TfLiteNode,"ax",%progbits
  14              		.align	2
  15              		.global	_ZN6tflite3ops5micro5split7PrepareEP13TfLiteContextP10TfLiteNode
  16              		.syntax unified
  17              		.arm
  18              		.fpu neon
  20              	_ZN6tflite3ops5micro5split7PrepareEP13TfLiteContextP10TfLiteNode:
  21              		.fnstart
  22              	.LFB916:
  23              		@ args = 0, pretend = 0, frame = 0
  24              		@ frame_needed = 0, uses_anonymous_args = 0
  25 0000 10402DE9 		push	{r4, lr}
  26              		.save {r4, lr}
  27 0004 0020A0E3 		mov	r2, #0
  28 0008 FEFFFFEB 		bl	_ZN6tflite8GetInputEPK13TfLiteContextPK10TfLiteNodei
  29 000c 000050E3 		cmp	r0, #0
  30 0010 0300000A 		beq	.L3
  31 0014 1400D0E5 		ldrb	r0, [r0, #20]	@ zero_extendqisi2
  32 0018 010050E2 		subs	r0, r0, #1
  33 001c 0100A013 		movne	r0, #1
  34 0020 1080BDE8 		pop	{r4, pc}
  35              	.L3:
  36 0024 0100A0E3 		mov	r0, #1
  37 0028 1080BDE8 		pop	{r4, pc}
  38              		.fnend
  40              		.section	.text._ZN6tflite3ops5micro14Register_SPLITEv,"ax",%progbits
  41              		.align	2
  42              		.global	_ZN6tflite3ops5micro14Register_SPLITEv
  43              		.syntax unified
  44              		.arm
  45              		.fpu neon
  47              	_ZN6tflite3ops5micro14Register_SPLITEv:
  48              		.fnstart
  49              	.LFB918:
  50              		@ args = 0, pretend = 0, frame = 0
  51              		@ frame_needed = 0, uses_anonymous_args = 0
  52 0000 00C000E3 		movw	ip, #:lower16:.LANCHOR0
  53 0004 10402DE9 		push	{r4, lr}
  54 0008 00C040E3 		movt	ip, #:upper16:.LANCHOR0
  55 000c 0040A0E1 		mov	r4, r0
  56 0010 00E0A0E1 		mov	lr, r0
  57 0014 0F00BCE8 		ldmia	ip!, {r0, r1, r2, r3}
  58 0018 0F00AEE8 		stmia	lr!, {r0, r1, r2, r3}
  59 001c 0F009CE8 		ldm	ip, {r0, r1, r2, r3}
  60 0020 0F008EE8 		stm	lr, {r0, r1, r2, r3}
  61 0024 0400A0E1 		mov	r0, r4
  62 0028 1080BDE8 		pop	{r4, pc}
  63              		.cantunwind
  64              		.fnend
  66              		.section	.text._ZN6tflite3ops5micro5split9SplitImplIfEE12TfLiteStatusP13TfLiteContextP10TfLiteNode
  67              		.align	2
  68              		.weak	_ZN6tflite3ops5micro5split9SplitImplIfEE12TfLiteStatusP13TfLiteContextP10TfLiteNodePK16TfLit
  69              		.syntax unified
  70              		.arm
  71              		.fpu neon
  73              	_ZN6tflite3ops5micro5split9SplitImplIfEE12TfLiteStatusP13TfLiteContextP10TfLiteNodePK16TfLiteEvalTe
  74              		.fnstart
  75              	.LFB926:
  76              		@ args = 0, pretend = 0, frame = 64
  77              		@ frame_needed = 0, uses_anonymous_args = 0
  78 0000 F04F2DE9 		push	{r4, r5, r6, r7, r8, r9, r10, fp, lr}
  79              		.save {r4, r5, r6, r7, r8, r9, r10, fp, lr}
  80 0004 0150A0E1 		mov	r5, r1
  81 0008 03A0A0E1 		mov	r10, r3
  82 000c 041091E5 		ldr	r1, [r1, #4]
  83              		.pad #68
  84 0010 44D04DE2 		sub	sp, sp, #68
  85 0014 004050E2 		subs	r4, r0, #0
  86 0018 043092E5 		ldr	r3, [r2, #4]
  87 001c 30208DE5 		str	r2, [sp, #48]
  88 0020 2C308DE5 		str	r3, [sp, #44]
  89 0024 003091E5 		ldr	r3, [r1]
  90 0028 0C308DE5 		str	r3, [sp, #12]
  91 002c 8901000A 		beq	.L11
  92 0030 543094E5 		ldr	r3, [r4, #84]
  93 0034 041091E5 		ldr	r1, [r1, #4]
  94 0038 33FF2FE1 		blx	r3
  95 003c 2C309DE5 		ldr	r3, [sp, #44]
  96 0040 00005AE3 		cmp	r10, #0
  97 0044 04B090E5 		ldr	fp, [r0, #4]
  98 0048 003093E5 		ldr	r3, [r3]
  99 004c 28308DE5 		str	r3, [sp, #40]
 100 0050 03A08AB0 		addlt	r10, r10, r3
 101 0054 28209DE5 		ldr	r2, [sp, #40]
 102 0058 02005AE1 		cmp	r10, r2
 103 005c 7D0100AA 		bge	.L11
 104 0060 00309BE5 		ldr	r3, [fp]
 105 0064 030052E1 		cmp	r2, r3
 106 0068 7A01001A 		bne	.L11
 107 006c 2C009DE5 		ldr	r0, [sp, #44]
 108 0070 0A31A0E1 		lsl	r3, r10, #2
 109 0074 03B08BE0 		add	fp, fp, r3
 110 0078 033080E0 		add	r3, r0, r3
 111 007c 04209BE5 		ldr	r2, [fp, #4]
 112 0080 041093E5 		ldr	r1, [r3, #4]
 113 0084 0C309DE5 		ldr	r3, [sp, #12]
 114 0088 920303E0 		mul	r3, r2, r3
 115 008c 010053E1 		cmp	r3, r1
 116 0090 7001001A 		bne	.L11
 117 0094 00005AE3 		cmp	r10, #0
 118 0098 570100DA 		ble	.L12
 119 009c 08005AE3 		cmp	r10, #8
 120 00a0 5E0100DA 		ble	.L38
 121 00a4 09304AE2 		sub	r3, r10, #9
 122 00a8 0020A0E3 		mov	r2, #0
 123 00ac 0730C3E3 		bic	r3, r3, #7
 124 00b0 0280A0E1 		mov	r8, r2
 125 00b4 083083E2 		add	r3, r3, #8
 126 00b8 0120A0E3 		mov	r2, #1
 127 00bc 10308DE5 		str	r3, [sp, #16]
 128 00c0 0030A0E3 		mov	r3, #0
 129 00c4 20B08DE5 		str	fp, [sp, #32]
 130 00c8 A4E080E2 		add	lr, r0, #164
 131 00cc 3CA08DE5 		str	r10, [sp, #60]
 132 00d0 03B0A0E1 		mov	fp, r3
 133 00d4 02A0A0E1 		mov	r10, r2
 134 00d8 34408DE5 		str	r4, [sp, #52]
 135 00dc 38508DE5 		str	r5, [sp, #56]
 136              	.L14:
 137 00e0 A0601EE5 		ldr	r6, [lr, #-160]
 138 00e4 088088E2 		add	r8, r8, #8
 139 00e8 9C401EE5 		ldr	r4, [lr, #-156]
 140 00ec 10309DE5 		ldr	r3, [sp, #16]
 141 00f0 94001EE5 		ldr	r0, [lr, #-148]
 142 00f4 960B02E0 		mul	r2, r6, fp
 143 00f8 C61FA0E1 		asr	r1, r6, #31
 144 00fc C4BFA0E1 		asr	fp, r4, #31
 145 0100 030058E1 		cmp	r8, r3
 146 0104 966A87E0 		umull	r6, r7, r6, r10
 147 0108 00F0DEF5 		pld	[lr]
 148 010c 900B80EE 		vdup.32	d16, r0
 149 0110 20E08EE2 		add	lr, lr, #32
 150 0114 B0901EE5 		ldr	r9, [lr, #-176]
 151 0118 B000E0F2 		vshr.s64	d16, d16, #32
 152 011c 9A2122E0 		mla	r2, r10, r1, r2
 153 0120 B8101EE5 		ldr	r1, [lr, #-184]
 154 0124 ACC01EE5 		ldr	ip, [lr, #-172]
 155 0128 000BCDED 		vstr.64	d16, [sp]	@ int
 156 012c 077082E0 		add	r7, r2, r7
 157 0130 942683E0 		umull	r2, r3, r4, r6
 158 0134 940705E0 		mul	r5, r4, r7
 159 0138 C17FA0E1 		asr	r7, r1, #31
 160 013c 965B25E0 		mla	r5, r6, fp, r5
 161 0140 033085E0 		add	r3, r5, r3
 162 0144 914285E0 		umull	r4, r5, r1, r2
 163 0148 91030AE0 		mul	r10, r1, r3
 164 014c A8301EE5 		ldr	r3, [lr, #-168]
 165 0150 92A72AE0 		mla	r10, r2, r7, r10
 166 0154 04209DE5 		ldr	r2, [sp, #4]
 167 0158 CC7FA0E1 		asr	r7, ip, #31
 168 015c 05508AE0 		add	r5, r10, r5
 169 0160 900506E0 		mul	r6, r0, r5
 170 0164 C95FA0E1 		asr	r5, r9, #31
 171 0168 900481E0 		umull	r0, r1, r0, r4
 172 016c 946226E0 		mla	r6, r4, r2, r6
 173 0170 A4201EE5 		ldr	r2, [lr, #-164]
 174 0174 011086E0 		add	r1, r6, r1
 175 0178 99010AE0 		mul	r10, r9, r1
 176 017c 90A52AE0 		mla	r10, r0, r5, r10
 177 0180 990081E0 		umull	r0, r1, r9, r0
 178 0184 C35FA0E1 		asr	r5, r3, #31
 179 0188 01108AE0 		add	r1, r10, r1
 180 018c 9C0109E0 		mul	r9, ip, r1
 181 0190 909729E0 		mla	r9, r0, r7, r9
 182 0194 9C0081E0 		umull	r0, r1, ip, r0
 183 0198 C27FA0E1 		asr	r7, r2, #31
 184 019c 011089E0 		add	r1, r9, r1
 185 01a0 93010CE0 		mul	ip, r3, r1
 186 01a4 90C52CE0 		mla	ip, r0, r5, ip
 187 01a8 930081E0 		umull	r0, r1, r3, r0
 188 01ac 01108CE0 		add	r1, ip, r1
 189 01b0 92A08BE0 		umull	r10, fp, r2, r0
 190 01b4 920103E0 		mul	r3, r2, r1
 191 01b8 903720E0 		mla	r0, r0, r7, r3
 192 01bc 0BB080E0 		add	fp, r0, fp
 193 01c0 C6FFFF1A 		bne	.L14
 194 01c4 34408DE2 		add	r4, sp, #52
 195 01c8 F8A1CDE1 		strd	r10, [sp, #24]
 196 01cc 300494E8 		ldm	r4, {r4, r5, r10}
 197 01d0 0810A0E1 		mov	r1, r8
 198 01d4 20B09DE5 		ldr	fp, [sp, #32]
 199              	.L13:
 200 01d8 2C309DE5 		ldr	r3, [sp, #44]
 201 01dc 011081E2 		add	r1, r1, #1
 202 01e0 01C183E0 		add	ip, r3, r1, lsl #2
 203 01e4 D821CDE1 		ldrd	r2, [sp, #24]
 204 01e8 000000EA 		b	.L15
 205              	.L55:
 206 01ec 011081E2 		add	r1, r1, #1
 207              	.L15:
 208 01f0 04E09CE4 		ldr	lr, [ip], #4
 209 01f4 01005AE1 		cmp	r10, r1
 210 01f8 CE7FA0E1 		asr	r7, lr, #31
 211 01fc 920700E0 		mul	r0, r2, r7
 212 0200 9E0320E0 		mla	r0, lr, r3, r0
 213 0204 922E83E0 		umull	r2, r3, r2, lr
 214 0208 033080E0 		add	r3, r0, r3
 215 020c F6FFFFCA 		bgt	.L55
 216 0210 F821CDE1 		strd	r2, [sp, #24]
 217 0214 01308AE2 		add	r3, r10, #1
 218 0218 28209DE5 		ldr	r2, [sp, #40]
 219 021c 03C0A0E1 		mov	ip, r3
 220 0220 030052E1 		cmp	r2, r3
 221 0224 030100DA 		ble	.L39
 222              	.L37:
 223 0228 28109DE5 		ldr	r1, [sp, #40]
 224 022c 1E0151E3 		cmp	r1, #-2147483641
 225 0230 0C0051A1 		cmpge	r1, ip
 226 0234 073041E2 		sub	r3, r1, #7
 227 0238 0300A0E1 		mov	r0, r3
 228 023c 20308DE5 		str	r3, [sp, #32]
 229 0240 01108CE2 		add	r1, ip, #1
 230 0244 0C30A0E1 		mov	r3, ip
 231 0248 0130A0C3 		movgt	r3, #1
 232 024c 0030A0D3 		movle	r3, #0
 233 0250 000051E1 		cmp	r1, r0
 234 0254 0030A0A3 		movge	r3, #0
 235 0258 013003B2 		andlt	r3, r3, #1
 236 025c 000053E3 		cmp	r3, #0
 237 0260 F800000A 		beq	.L40
 238 0264 2C209DE5 		ldr	r2, [sp, #44]
 239 0268 29A08CE2 		add	r10, ip, #41
 240 026c 0100A0E3 		mov	r0, #1
 241 0270 0010A0E3 		mov	r1, #0
 242 0274 34B08DE5 		str	fp, [sp, #52]
 243 0278 0CE0A0E1 		mov	lr, ip
 244 027c 0080A0E1 		mov	r8, r0
 245 0280 0190A0E1 		mov	r9, r1
 246 0284 0AA182E0 		add	r10, r2, r10, lsl #2
 247 0288 05B0A0E1 		mov	fp, r5
 248 028c 38408DE5 		str	r4, [sp, #56]
 249              	.L18:
 250 0290 A0601AE5 		ldr	r6, [r10, #-160]
 251 0294 09108EE2 		add	r1, lr, #9
 252 0298 20309DE5 		ldr	r3, [sp, #32]
 253 029c 08E08EE2 		add	lr, lr, #8
 254 02a0 9C401AE5 		ldr	r4, [r10, #-156]
 255 02a4 00F0DAF5 		pld	[r10]
 256 02a8 20A08AE2 		add	r10, r10, #32
 257 02ac 010053E1 		cmp	r3, r1
 258 02b0 960903E0 		mul	r3, r6, r9
 259 02b4 C61FA0E1 		asr	r1, r6, #31
 260 02b8 B4001AE5 		ldr	r0, [r10, #-180]
 261 02bc 966887E0 		umull	r6, r7, r6, r8
 262 02c0 C49FA0E1 		asr	r9, r4, #31
 263 02c4 ACC01AE5 		ldr	ip, [r10, #-172]
 264 02c8 900B80EE 		vdup.32	d16, r0
 265 02cc 983122E0 		mla	r2, r8, r1, r3
 266 02d0 B0301AE5 		ldr	r3, [r10, #-176]
 267 02d4 B8101AE5 		ldr	r1, [r10, #-184]
 268 02d8 B000E0F2 		vshr.s64	d16, d16, #32
 269 02dc 10308DE5 		str	r3, [sp, #16]
 270 02e0 077082E0 		add	r7, r2, r7
 271 02e4 942683E0 		umull	r2, r3, r4, r6
 272 02e8 000BCDED 		vstr.64	d16, [sp]	@ int
 273 02ec 940705E0 		mul	r5, r4, r7
 274 02f0 C17FA0E1 		asr	r7, r1, #31
 275 02f4 965925E0 		mla	r5, r6, r9, r5
 276 02f8 033085E0 		add	r3, r5, r3
 277 02fc 914285E0 		umull	r4, r5, r1, r2
 278 0300 910309E0 		mul	r9, r1, r3
 279 0304 A8301AE5 		ldr	r3, [r10, #-168]
 280 0308 929729E0 		mla	r9, r2, r7, r9
 281 030c 04209DE5 		ldr	r2, [sp, #4]
 282 0310 10709DE5 		ldr	r7, [sp, #16]
 283 0314 055089E0 		add	r5, r9, r5
 284 0318 900506E0 		mul	r6, r0, r5
 285 031c C75FA0E1 		asr	r5, r7, #31
 286 0320 900481E0 		umull	r0, r1, r0, r4
 287 0324 946226E0 		mla	r6, r4, r2, r6
 288 0328 A4201AE5 		ldr	r2, [r10, #-164]
 289 032c 011086E0 		add	r1, r6, r1
 290 0330 970109E0 		mul	r9, r7, r1
 291 0334 909529E0 		mla	r9, r0, r5, r9
 292 0338 970081E0 		umull	r0, r1, r7, r0
 293 033c CC7FA0E1 		asr	r7, ip, #31
 294 0340 C35FA0E1 		asr	r5, r3, #31
 295 0344 011089E0 		add	r1, r9, r1
 296 0348 9C0108E0 		mul	r8, ip, r1
 297 034c 908728E0 		mla	r8, r0, r7, r8
 298 0350 9C0081E0 		umull	r0, r1, ip, r0
 299 0354 C27FA0E1 		asr	r7, r2, #31
 300 0358 011088E0 		add	r1, r8, r1
 301 035c 93010CE0 		mul	ip, r3, r1
 302 0360 90C52CE0 		mla	ip, r0, r5, ip
 303 0364 934085E0 		umull	r4, r5, r3, r0
 304 0368 05508CE0 		add	r5, ip, r5
 305 036c 928489E0 		umull	r8, r9, r2, r4
 306 0370 920501E0 		mul	r1, r2, r5
 307 0374 941720E0 		mla	r0, r4, r7, r1
 308 0378 099080E0 		add	r9, r0, r9
 309 037c C3FFFFCA 		bgt	.L18
 310 0380 0B50A0E1 		mov	r5, fp
 311 0384 38409DE5 		ldr	r4, [sp, #56]
 312 0388 34B09DE5 		ldr	fp, [sp, #52]
 313 038c 01108EE2 		add	r1, lr, #1
 314 0390 F082CDE1 		strd	r8, [sp, #32]
 315              	.L17:
 316 0394 2C309DE5 		ldr	r3, [sp, #44]
 317 0398 28809DE5 		ldr	r8, [sp, #40]
 318 039c 01C183E0 		add	ip, r3, r1, lsl #2
 319 03a0 D022CDE1 		ldrd	r2, [sp, #32]
 320 03a4 000000EA 		b	.L19
 321              	.L56:
 322 03a8 011081E2 		add	r1, r1, #1
 323              	.L19:
 324 03ac 04E09CE4 		ldr	lr, [ip], #4
 325 03b0 010058E1 		cmp	r8, r1
 326 03b4 CE7FA0E1 		asr	r7, lr, #31
 327 03b8 920700E0 		mul	r0, r2, r7
 328 03bc 9E0320E0 		mla	r0, lr, r3, r0
 329 03c0 922E83E0 		umull	r2, r3, r2, lr
 330 03c4 033080E0 		add	r3, r0, r3
 331 03c8 F6FFFFCA 		bgt	.L56
 332 03cc F022CDE1 		strd	r2, [sp, #32]
 333              	.L16:
 334 03d0 D821CDE1 		ldrd	r2, [sp, #24]
 335 03d4 010052E3 		cmp	r2, #1
 336 03d8 0030D3E2 		sbcs	r3, r3, #0
 337 03dc 30309DE5 		ldr	r3, [sp, #48]
 338 03e0 007093E5 		ldr	r7, [r3]
 339 03e4 810000BA 		blt	.L45
 340              	.L20:
 341 03e8 0C309DE5 		ldr	r3, [sp, #12]
 342 03ec 000053E3 		cmp	r3, #0
 343 03f0 7E0000DA 		ble	.L45
 344 03f4 1000C0F2 		vmov.i32	d16, #0  @ di
 345 03f8 040BCDED 		vstr.64	d16, [sp, #16]	@ int
 346              	.L25:
 347 03fc 20309DE5 		ldr	r3, [sp, #32]
 348 0400 0060A0E3 		mov	r6, #0
 349 0404 10809DE5 		ldr	r8, [sp, #16]
 350 0408 00308DE5 		str	r3, [sp]
 351 040c 280000EA 		b	.L24
 352              	.L58:
 353 0410 043041E2 		sub	r3, r1, #4
 354 0414 0790A0E1 		mov	r9, r7
 355 0418 2331A0E1 		lsr	r3, r3, #2
 356 041c 00E0A0E3 		mov	lr, #0
 357 0420 013083E2 		add	r3, r3, #1
 358 0424 0301A0E1 		lsl	r0, r3, #2
 359              	.L28:
 360 0428 01E08EE2 		add	lr, lr, #1
 361 042c DF0A69F4 		vld1.64	{d16-d17}, [r9:64]
 362 0430 0E0053E1 		cmp	r3, lr
 363 0434 109089E2 		add	r9, r9, #16
 364 0438 DF0A4CF4 		vst1.64	{d16-d17}, [ip:64]
 365 043c 10C08CE2 		add	ip, ip, #16
 366 0440 F8FFFF8A 		bhi	.L28
 367 0444 000051E1 		cmp	r1, r0
 368 0448 1400000A 		beq	.L31
 369 044c 0031A0E1 		lsl	r3, r0, #2
 370 0450 01C080E2 		add	ip, r0, #1
 371 0454 0C0051E1 		cmp	r1, ip
 372 0458 03E087E0 		add	lr, r7, r3
 373 045c 03C082E0 		add	ip, r2, r3
 374 0460 00E09EE5 		ldr	lr, [lr]	@ float
 375 0464 00E08CE5 		str	lr, [ip]	@ float
 376 0468 0C0000DA 		ble	.L31
 377 046c 020080E2 		add	r0, r0, #2
 378 0470 04C083E2 		add	ip, r3, #4
 379 0474 0CE087E0 		add	lr, r7, ip
 380 0478 000051E1 		cmp	r1, r0
 381 047c 0CC082E0 		add	ip, r2, ip
 382 0480 00009EE5 		ldr	r0, [lr]	@ float
 383 0484 00008CE5 		str	r0, [ip]	@ float
 384 0488 040000DA 		ble	.L31
 385 048c 083083E2 		add	r3, r3, #8
 386 0490 030087E0 		add	r0, r7, r3
 387 0494 032082E0 		add	r2, r2, r3
 388 0498 003090E5 		ldr	r3, [r0]	@ float
 389 049c 003082E5 		str	r3, [r2]	@ float
 390              	.L31:
 391 04a0 0C309DE5 		ldr	r3, [sp, #12]
 392 04a4 016086E2 		add	r6, r6, #1
 393 04a8 017187E0 		add	r7, r7, r1, lsl #2
 394 04ac 060053E1 		cmp	r3, r6
 395 04b0 4600000A 		beq	.L57
 396              	.L24:
 397 04b4 043095E5 		ldr	r3, [r5, #4]
 398 04b8 0400A0E1 		mov	r0, r4
 399 04bc 542094E5 		ldr	r2, [r4, #84]
 400 04c0 063183E0 		add	r3, r3, r6, lsl #2
 401 04c4 041093E5 		ldr	r1, [r3, #4]
 402 04c8 32FF2FE1 		blx	r2
 403 04cc 00309DE5 		ldr	r3, [sp]
 404 04d0 000050E3 		cmp	r0, #0
 405 04d4 04109BE5 		ldr	r1, [fp, #4]
 406 04d8 00009015 		ldrne	r0, [r0]
 407 04dc 910301E0 		mul	r1, r1, r3
 408 04e0 980103E0 		mul	r3, r8, r1
 409 04e4 000051E3 		cmp	r1, #0
 410 04e8 0391A0E1 		lsl	r9, r3, #2
 411 04ec EBFFFFDA 		ble	.L31
 412 04f0 043083E2 		add	r3, r3, #4
 413 04f4 092080E0 		add	r2, r0, r9
 414 04f8 03C180E0 		add	ip, r0, r3, lsl #2
 415 04fc 103087E2 		add	r3, r7, #16
 416 0500 020053E1 		cmp	r3, r2
 417 0504 0030A083 		movhi	r3, #0
 418 0508 0130A093 		movls	r3, #1
 419 050c 0C0057E1 		cmp	r7, ip
 420 0510 01308323 		orrcs	r3, r3, #1
 421 0514 02C087E1 		orr	ip, r7, r2
 422 0518 090051E3 		cmp	r1, #9
 423 051c 0030A093 		movls	r3, #0
 424 0520 01300382 		andhi	r3, r3, #1
 425 0524 0F001CE3 		tst	ip, #15
 426 0528 0030A013 		movne	r3, #0
 427 052c 01300302 		andeq	r3, r3, #1
 428 0530 000053E3 		cmp	r3, #0
 429 0534 02C0A0E1 		mov	ip, r2
 430 0538 B4FFFF1A 		bne	.L58
 431 053c 080051E3 		cmp	r1, #8
 432 0540 07A041E2 		sub	r10, r1, #7
 433 0544 170000DA 		ble	.L32
 434 0548 5CC087E2 		add	ip, r7, #92
 435              	.L33:
 436 054c 177A5CED 		vldr.32	s15, [ip, #-92]
 437 0550 09E083E2 		add	lr, r3, #9
 438 0554 00F0DCF5 		pld	[ip]
 439 0558 0E005AE1 		cmp	r10, lr
 440 055c 083083E2 		add	r3, r3, #8
 441 0560 20C08CE2 		add	ip, ip, #32
 442 0564 007AC2ED 		vstr.32	s15, [r2]
 443 0568 202082E2 		add	r2, r2, #32
 444 056c 78E01CE5 		ldr	lr, [ip, #-120]	@ float
 445 0570 1CE002E5 		str	lr, [r2, #-28]	@ float
 446 0574 74E01CE5 		ldr	lr, [ip, #-116]	@ float
 447 0578 18E002E5 		str	lr, [r2, #-24]	@ float
 448 057c 70E01CE5 		ldr	lr, [ip, #-112]	@ float
 449 0580 14E002E5 		str	lr, [r2, #-20]	@ float
 450 0584 6CE01CE5 		ldr	lr, [ip, #-108]	@ float
 451 0588 10E002E5 		str	lr, [r2, #-16]	@ float
 452 058c 68E01CE5 		ldr	lr, [ip, #-104]	@ float
 453 0590 0CE002E5 		str	lr, [r2, #-12]	@ float
 454 0594 64E01CE5 		ldr	lr, [ip, #-100]	@ float
 455 0598 08E002E5 		str	lr, [r2, #-8]	@ float
 456 059c 60E01CE5 		ldr	lr, [ip, #-96]	@ float
 457 05a0 04E002E5 		str	lr, [r2, #-4]	@ float
 458 05a4 E8FFFFCA 		bgt	.L33
 459              	.L32:
 460 05a8 03C1A0E1 		lsl	ip, r3, #2
 461 05ac 0C9089E0 		add	r9, r9, ip
 462 05b0 0CC087E0 		add	ip, r7, ip
 463 05b4 090080E0 		add	r0, r0, r9
 464              	.L35:
 465 05b8 013083E2 		add	r3, r3, #1
 466 05bc 04209CE4 		ldr	r2, [ip], #4	@ float
 467 05c0 030051E1 		cmp	r1, r3
 468 05c4 042080E4 		str	r2, [r0], #4	@ float
 469 05c8 FAFFFFCA 		bgt	.L35
 470 05cc B3FFFFEA 		b	.L31
 471              	.L57:
 472 05d0 D021CDE1 		ldrd	r2, [sp, #16]
 473 05d4 D801CDE1 		ldrd	r0, [sp, #24]
 474 05d8 012092E2 		adds	r2, r2, #1
 475 05dc 0030A3E2 		adc	r3, r3, #0
 476 05e0 000052E1 		cmp	r2, r0
 477 05e4 F021CDE1 		strd	r2, [sp, #16]
 478 05e8 0130D3E0 		sbcs	r3, r3, r1
 479 05ec 82FFFFBA 		blt	.L25
 480              	.L45:
 481 05f0 0000A0E3 		mov	r0, #0
 482 05f4 44D08DE2 		add	sp, sp, #68
 483              		@ sp needed
 484 05f8 F08FBDE8 		pop	{r4, r5, r6, r7, r8, r9, r10, fp, pc}
 485              	.L12:
 486 05fc 28209DE5 		ldr	r2, [sp, #40]
 487 0600 01308AE2 		add	r3, r10, #1
 488 0604 03C0A0E1 		mov	ip, r3
 489 0608 020053E1 		cmp	r3, r2
 490 060c 0120A0E3 		mov	r2, #1
 491 0610 0030A0E3 		mov	r3, #0
 492 0614 100000AA 		bge	.L36
 493 0618 F821CDE1 		strd	r2, [sp, #24]
 494 061c 01FFFFEA 		b	.L37
 495              	.L38:
 496 0620 0030A0E3 		mov	r3, #0
 497 0624 0120A0E3 		mov	r2, #1
 498 0628 0310A0E1 		mov	r1, r3
 499 062c 0030A0E3 		mov	r3, #0
 500 0630 F821CDE1 		strd	r2, [sp, #24]
 501 0634 E7FEFFEA 		b	.L13
 502              	.L39:
 503 0638 0120A0E3 		mov	r2, #1
 504 063c 0030A0E3 		mov	r3, #0
 505 0640 F022CDE1 		strd	r2, [sp, #32]
 506 0644 61FFFFEA 		b	.L16
 507              	.L40:
 508 0648 0120A0E3 		mov	r2, #1
 509 064c 0030A0E3 		mov	r3, #0
 510 0650 F022CDE1 		strd	r2, [sp, #32]
 511 0654 4EFFFFEA 		b	.L17
 512              	.L11:
 513 0658 FEFFFFEB 		bl	abort
 514              	.L36:
 515 065c 30109DE5 		ldr	r1, [sp, #48]
 516 0660 F022CDE1 		strd	r2, [sp, #32]
 517 0664 F821CDE1 		strd	r2, [sp, #24]
 518 0668 007091E5 		ldr	r7, [r1]
 519 066c 5DFFFFEA 		b	.L20
 520              		.fnend
 522              		.section	.text._ZN6tflite3ops5micro5split9SplitImplIhEE12TfLiteStatusP13TfLiteContextP10TfLiteNode
 523              		.align	2
 524              		.weak	_ZN6tflite3ops5micro5split9SplitImplIhEE12TfLiteStatusP13TfLiteContextP10TfLiteNodePK16TfLit
 525              		.syntax unified
 526              		.arm
 527              		.fpu neon
 529              	_ZN6tflite3ops5micro5split9SplitImplIhEE12TfLiteStatusP13TfLiteContextP10TfLiteNodePK16TfLiteEvalTe
 530              		.fnstart
 531              	.LFB927:
 532              		@ args = 0, pretend = 0, frame = 56
 533              		@ frame_needed = 0, uses_anonymous_args = 0
 534 0000 F04F2DE9 		push	{r4, r5, r6, r7, r8, r9, r10, fp, lr}
 535              		.save {r4, r5, r6, r7, r8, r9, r10, fp, lr}
 536              		.pad #60
 537 0004 3CD04DE2 		sub	sp, sp, #60
 538 0008 30108DE5 		str	r1, [sp, #48]
 539 000c 03B0A0E1 		mov	fp, r3
 540 0010 004050E2 		subs	r4, r0, #0
 541 0014 043092E5 		ldr	r3, [r2, #4]
 542 0018 041091E5 		ldr	r1, [r1, #4]
 543 001c 28208DE5 		str	r2, [sp, #40]
 544 0020 08308DE5 		str	r3, [sp, #8]
 545 0024 003091E5 		ldr	r3, [r1]
 546 0028 0C308DE5 		str	r3, [sp, #12]
 547 002c 8F01000A 		beq	.L62
 548 0030 041091E5 		ldr	r1, [r1, #4]
 549 0034 543094E5 		ldr	r3, [r4, #84]
 550 0038 33FF2FE1 		blx	r3
 551 003c 08309DE5 		ldr	r3, [sp, #8]
 552 0040 00005BE3 		cmp	fp, #0
 553 0044 042090E5 		ldr	r2, [r0, #4]
 554 0048 003093E5 		ldr	r3, [r3]
 555 004c 04308DE5 		str	r3, [sp, #4]
 556 0050 03B08BB0 		addlt	fp, fp, r3
 557 0054 04109DE5 		ldr	r1, [sp, #4]
 558 0058 01005BE1 		cmp	fp, r1
 559 005c 830100AA 		bge	.L62
 560 0060 003092E5 		ldr	r3, [r2]
 561 0064 030051E1 		cmp	r1, r3
 562 0068 8001001A 		bne	.L62
 563 006c 08009DE5 		ldr	r0, [sp, #8]
 564 0070 0B31A0E1 		lsl	r3, fp, #2
 565 0074 032082E0 		add	r2, r2, r3
 566 0078 033080E0 		add	r3, r0, r3
 567 007c 2C208DE5 		str	r2, [sp, #44]
 568 0080 041093E5 		ldr	r1, [r3, #4]
 569 0084 042092E5 		ldr	r2, [r2, #4]
 570 0088 0C309DE5 		ldr	r3, [sp, #12]
 571 008c 920303E0 		mul	r3, r2, r3
 572 0090 010053E1 		cmp	r3, r1
 573 0094 7501001A 		bne	.L62
 574 0098 00005BE3 		cmp	fp, #0
 575 009c 5C0100DA 		ble	.L63
 576 00a0 08005BE3 		cmp	fp, #8
 577 00a4 630100DA 		ble	.L87
 578 00a8 09304BE2 		sub	r3, fp, #9
 579 00ac 0020A0E3 		mov	r2, #0
 580 00b0 0730C3E3 		bic	r3, r3, #7
 581 00b4 0280A0E1 		mov	r8, r2
 582 00b8 083083E2 		add	r3, r3, #8
 583 00bc 0120A0E3 		mov	r2, #1
 584 00c0 10308DE5 		str	r3, [sp, #16]
 585 00c4 0030A0E3 		mov	r3, #0
 586 00c8 34B08DE5 		str	fp, [sp, #52]
 587 00cc A4E080E2 		add	lr, r0, #164
 588 00d0 02A0A0E1 		mov	r10, r2
 589 00d4 03B0A0E1 		mov	fp, r3
 590 00d8 20408DE5 		str	r4, [sp, #32]
 591              	.L65:
 592 00dc A0201EE5 		ldr	r2, [lr, #-160]
 593 00e0 088088E2 		add	r8, r8, #8
 594 00e4 10309DE5 		ldr	r3, [sp, #16]
 595 00e8 9C401EE5 		ldr	r4, [lr, #-156]
 596 00ec 94001EE5 		ldr	r0, [lr, #-148]
 597 00f0 030058E1 		cmp	r8, r3
 598 00f4 920B03E0 		mul	r3, r2, fp
 599 00f8 C21FA0E1 		asr	r1, r2, #31
 600 00fc 90901EE5 		ldr	r9, [lr, #-144]
 601 0100 926A87E0 		umull	r6, r7, r2, r10
 602 0104 C4BFA0E1 		asr	fp, r4, #31
 603 0108 8CC01EE5 		ldr	ip, [lr, #-140]
 604 010c 00F0DEF5 		pld	[lr]
 605 0110 20E08EE2 		add	lr, lr, #32
 606 0114 9A3122E0 		mla	r2, r10, r1, r3
 607 0118 B8101EE5 		ldr	r1, [lr, #-184]
 608 011c 077082E0 		add	r7, r2, r7
 609 0120 942683E0 		umull	r2, r3, r4, r6
 610 0124 940705E0 		mul	r5, r4, r7
 611 0128 C17FA0E1 		asr	r7, r1, #31
 612 012c 965B25E0 		mla	r5, r6, fp, r5
 613 0130 033085E0 		add	r3, r5, r3
 614 0134 914285E0 		umull	r4, r5, r1, r2
 615 0138 91030AE0 		mul	r10, r1, r3
 616 013c A8301EE5 		ldr	r3, [lr, #-168]
 617 0140 92A72AE0 		mla	r10, r2, r7, r10
 618 0144 A4201EE5 		ldr	r2, [lr, #-164]
 619 0148 C07FA0E1 		asr	r7, r0, #31
 620 014c 05508AE0 		add	r5, r10, r5
 621 0150 900506E0 		mul	r6, r0, r5
 622 0154 C95FA0E1 		asr	r5, r9, #31
 623 0158 900481E0 		umull	r0, r1, r0, r4
 624 015c 946726E0 		mla	r6, r4, r7, r6
 625 0160 CC7FA0E1 		asr	r7, ip, #31
 626 0164 011086E0 		add	r1, r6, r1
 627 0168 99010AE0 		mul	r10, r9, r1
 628 016c 90A52AE0 		mla	r10, r0, r5, r10
 629 0170 990081E0 		umull	r0, r1, r9, r0
 630 0174 C35FA0E1 		asr	r5, r3, #31
 631 0178 01108AE0 		add	r1, r10, r1
 632 017c 9C0104E0 		mul	r4, ip, r1
 633 0180 904724E0 		mla	r4, r0, r7, r4
 634 0184 9C0081E0 		umull	r0, r1, ip, r0
 635 0188 C27FA0E1 		asr	r7, r2, #31
 636 018c 011084E0 		add	r1, r4, r1
 637 0190 93010CE0 		mul	ip, r3, r1
 638 0194 90C52CE0 		mla	ip, r0, r5, ip
 639 0198 930081E0 		umull	r0, r1, r3, r0
 640 019c 01108CE0 		add	r1, ip, r1
 641 01a0 92A08BE0 		umull	r10, fp, r2, r0
 642 01a4 920103E0 		mul	r3, r2, r1
 643 01a8 903720E0 		mla	r0, r0, r7, r3
 644 01ac 0BB080E0 		add	fp, r0, fp
 645 01b0 C9FFFF1A 		bne	.L65
 646 01b4 F8A1CDE1 		strd	r10, [sp, #24]
 647 01b8 0810A0E1 		mov	r1, r8
 648 01bc 20409DE5 		ldr	r4, [sp, #32]
 649 01c0 34B09DE5 		ldr	fp, [sp, #52]
 650              	.L64:
 651 01c4 08309DE5 		ldr	r3, [sp, #8]
 652 01c8 011081E2 		add	r1, r1, #1
 653 01cc 01C183E0 		add	ip, r3, r1, lsl #2
 654 01d0 D821CDE1 		ldrd	r2, [sp, #24]
 655 01d4 000000EA 		b	.L66
 656              	.L133:
 657 01d8 011081E2 		add	r1, r1, #1
 658              	.L66:
 659 01dc 04E09CE4 		ldr	lr, [ip], #4
 660 01e0 01005BE1 		cmp	fp, r1
 661 01e4 CE7FA0E1 		asr	r7, lr, #31
 662 01e8 920700E0 		mul	r0, r2, r7
 663 01ec 9E0320E0 		mla	r0, lr, r3, r0
 664 01f0 922E83E0 		umull	r2, r3, r2, lr
 665 01f4 033080E0 		add	r3, r0, r3
 666 01f8 F6FFFFCA 		bgt	.L133
 667 01fc F821CDE1 		strd	r2, [sp, #24]
 668 0200 01B08BE2 		add	fp, fp, #1
 669 0204 04309DE5 		ldr	r3, [sp, #4]
 670 0208 0B0053E1 		cmp	r3, fp
 671 020c 0F0100DA 		ble	.L88
 672              	.L86:
 673 0210 1E0153E3 		cmp	r3, #-2147483641
 674 0214 0B0053A1 		cmpge	r3, fp
 675 0218 072043E2 		sub	r2, r3, #7
 676 021c 01108BE2 		add	r1, fp, #1
 677 0220 0130A0C3 		movgt	r3, #1
 678 0224 0030A0D3 		movle	r3, #0
 679 0228 10208DE5 		str	r2, [sp, #16]
 680 022c 010052E1 		cmp	r2, r1
 681 0230 0030A0D3 		movle	r3, #0
 682 0234 013003C2 		andgt	r3, r3, #1
 683 0238 000053E3 		cmp	r3, #0
 684 023c 0701000A 		beq	.L89
 685 0240 08109DE5 		ldr	r1, [sp, #8]
 686 0244 29E08BE2 		add	lr, fp, #41
 687 0248 0120A0E3 		mov	r2, #1
 688 024c 0030A0E3 		mov	r3, #0
 689 0250 04A0A0E1 		mov	r10, r4
 690 0254 0EE181E0 		add	lr, r1, lr, lsl #2
 691              	.L69:
 692 0258 A0601EE5 		ldr	r6, [lr, #-160]
 693 025c 09108BE2 		add	r1, fp, #9
 694 0260 10009DE5 		ldr	r0, [sp, #16]
 695 0264 08B08BE2 		add	fp, fp, #8
 696 0268 9C401EE5 		ldr	r4, [lr, #-156]
 697 026c 90801EE5 		ldr	r8, [lr, #-144]
 698 0270 960303E0 		mul	r3, r6, r3
 699 0274 010050E1 		cmp	r0, r1
 700 0278 C61FA0E1 		asr	r1, r6, #31
 701 027c 94001EE5 		ldr	r0, [lr, #-148]
 702 0280 966287E0 		umull	r6, r7, r6, r2
 703 0284 C49FA0E1 		asr	r9, r4, #31
 704 0288 8CC01EE5 		ldr	ip, [lr, #-140]
 705 028c 00F0DEF5 		pld	[lr]
 706 0290 20E08EE2 		add	lr, lr, #32
 707 0294 923122E0 		mla	r2, r2, r1, r3
 708 0298 B8101EE5 		ldr	r1, [lr, #-184]
 709 029c 077082E0 		add	r7, r2, r7
 710 02a0 942683E0 		umull	r2, r3, r4, r6
 711 02a4 940705E0 		mul	r5, r4, r7
 712 02a8 C17FA0E1 		asr	r7, r1, #31
 713 02ac 965925E0 		mla	r5, r6, r9, r5
 714 02b0 033085E0 		add	r3, r5, r3
 715 02b4 914285E0 		umull	r4, r5, r1, r2
 716 02b8 910309E0 		mul	r9, r1, r3
 717 02bc A8301EE5 		ldr	r3, [lr, #-168]
 718 02c0 929729E0 		mla	r9, r2, r7, r9
 719 02c4 A4201EE5 		ldr	r2, [lr, #-164]
 720 02c8 C07FA0E1 		asr	r7, r0, #31
 721 02cc 055089E0 		add	r5, r9, r5
 722 02d0 900506E0 		mul	r6, r0, r5
 723 02d4 C85FA0E1 		asr	r5, r8, #31
 724 02d8 900481E0 		umull	r0, r1, r0, r4
 725 02dc 946726E0 		mla	r6, r4, r7, r6
 726 02e0 CC7FA0E1 		asr	r7, ip, #31
 727 02e4 011086E0 		add	r1, r6, r1
 728 02e8 980109E0 		mul	r9, r8, r1
 729 02ec 909529E0 		mla	r9, r0, r5, r9
 730 02f0 980081E0 		umull	r0, r1, r8, r0
 731 02f4 C35FA0E1 		asr	r5, r3, #31
 732 02f8 011089E0 		add	r1, r9, r1
 733 02fc 9C0104E0 		mul	r4, ip, r1
 734 0300 904724E0 		mla	r4, r0, r7, r4
 735 0304 9C0081E0 		umull	r0, r1, ip, r0
 736 0308 C27FA0E1 		asr	r7, r2, #31
 737 030c 011084E0 		add	r1, r4, r1
 738 0310 93010CE0 		mul	ip, r3, r1
 739 0314 90C52CE0 		mla	ip, r0, r5, ip
 740 0318 930081E0 		umull	r0, r1, r3, r0
 741 031c 01108CE0 		add	r1, ip, r1
 742 0320 920101E0 		mul	r1, r2, r1
 743 0324 922083E0 		umull	r2, r3, r2, r0
 744 0328 901720E0 		mla	r0, r0, r7, r1
 745 032c 033080E0 		add	r3, r0, r3
 746 0330 C8FFFFCA 		bgt	.L69
 747 0334 0A40A0E1 		mov	r4, r10
 748 0338 01108BE2 		add	r1, fp, #1
 749 033c F022CDE1 		strd	r2, [sp, #32]
 750              	.L68:
 751 0340 08309DE5 		ldr	r3, [sp, #8]
 752 0344 04509DE5 		ldr	r5, [sp, #4]
 753 0348 01C183E0 		add	ip, r3, r1, lsl #2
 754 034c D022CDE1 		ldrd	r2, [sp, #32]
 755 0350 000000EA 		b	.L70
 756              	.L134:
 757 0354 011081E2 		add	r1, r1, #1
 758              	.L70:
 759 0358 04E09CE4 		ldr	lr, [ip], #4
 760 035c 010055E1 		cmp	r5, r1
 761 0360 CE7FA0E1 		asr	r7, lr, #31
 762 0364 920700E0 		mul	r0, r2, r7
 763 0368 9E0320E0 		mla	r0, lr, r3, r0
 764 036c 922E83E0 		umull	r2, r3, r2, lr
 765 0370 033080E0 		add	r3, r0, r3
 766 0374 F6FFFFCA 		bgt	.L134
 767 0378 F022CDE1 		strd	r2, [sp, #32]
 768              	.L67:
 769 037c D821CDE1 		ldrd	r2, [sp, #24]
 770 0380 010052E3 		cmp	r2, #1
 771 0384 0030D3E2 		sbcs	r3, r3, #0
 772 0388 28309DE5 		ldr	r3, [sp, #40]
 773 038c 005093E5 		ldr	r5, [r3]
 774 0390 930000BA 		blt	.L107
 775              	.L71:
 776 0394 0C309DE5 		ldr	r3, [sp, #12]
 777 0398 000053E3 		cmp	r3, #0
 778 039c 900000DA 		ble	.L107
 779 03a0 2C609DE5 		ldr	r6, [sp, #44]
 780 03a4 30709DE5 		ldr	r7, [sp, #48]
 781 03a8 1000C0F2 		vmov.i32	d16, #0  @ di
 782 03ac 040BCDED 		vstr.64	d16, [sp, #16]	@ int
 783              	.L76:
 784 03b0 10309DE5 		ldr	r3, [sp, #16]
 785 03b4 0080A0E3 		mov	r8, #0
 786 03b8 04308DE5 		str	r3, [sp, #4]
 787 03bc 20309DE5 		ldr	r3, [sp, #32]
 788 03c0 08308DE5 		str	r3, [sp, #8]
 789              	.L75:
 790 03c4 043097E5 		ldr	r3, [r7, #4]
 791 03c8 0400A0E1 		mov	r0, r4
 792 03cc 542094E5 		ldr	r2, [r4, #84]
 793 03d0 083183E0 		add	r3, r3, r8, lsl #2
 794 03d4 041093E5 		ldr	r1, [r3, #4]
 795 03d8 32FF2FE1 		blx	r2
 796 03dc 08209DE5 		ldr	r2, [sp, #8]
 797 03e0 000050E3 		cmp	r0, #0
 798 03e4 043096E5 		ldr	r3, [r6, #4]
 799 03e8 00009015 		ldrne	r0, [r0]
 800 03ec 930203E0 		mul	r3, r3, r2
 801 03f0 04209DE5 		ldr	r2, [sp, #4]
 802 03f4 000053E3 		cmp	r3, #0
 803 03f8 92030EE0 		mul	lr, r2, r3
 804 03fc 7B0000DA 		ble	.L131
 805 0400 109085E2 		add	r9, r5, #16
 806 0404 0E2080E0 		add	r2, r0, lr
 807 0408 020059E1 		cmp	r9, r2
 808 040c 10108EE2 		add	r1, lr, #16
 809 0410 0090A083 		movhi	r9, #0
 810 0414 0190A093 		movls	r9, #1
 811 0418 011080E0 		add	r1, r0, r1
 812 041c 02C085E1 		orr	ip, r5, r2
 813 0420 010055E1 		cmp	r5, r1
 814 0424 0910A031 		movcc	r1, r9
 815 0428 01108923 		orrcs	r1, r9, #1
 816 042c 0290A0E1 		mov	r9, r2
 817 0430 0F0053E3 		cmp	r3, #15
 818 0434 0010A093 		movls	r1, #0
 819 0438 01100182 		andhi	r1, r1, #1
 820 043c 0F001CE3 		tst	ip, #15
 821 0440 0010A013 		movne	r1, #0
 822 0444 01100102 		andeq	r1, r1, #1
 823 0448 000051E3 		cmp	r1, #0
 824 044c 6900000A 		beq	.L77
 825 0450 10C043E2 		sub	ip, r3, #16
 826 0454 05B0A0E1 		mov	fp, r5
 827 0458 2CC2A0E1 		lsr	ip, ip, #4
 828 045c 00A0A0E3 		mov	r10, #0
 829 0460 01C08CE2 		add	ip, ip, #1
 830 0464 0C12A0E1 		lsl	r1, ip, #4
 831              	.L79:
 832 0468 01A08AE2 		add	r10, r10, #1
 833 046c DF0A6BF4 		vld1.64	{d16-d17}, [fp:64]
 834 0470 0A005CE1 		cmp	ip, r10
 835 0474 10B08BE2 		add	fp, fp, #16
 836 0478 DF0A49F4 		vst1.64	{d16-d17}, [r9:64]
 837 047c 109089E2 		add	r9, r9, #16
 838 0480 F8FFFF8A 		bhi	.L79
 839 0484 010053E1 		cmp	r3, r1
 840 0488 5800000A 		beq	.L131
 841 048c 0CA2D5E7 		ldrb	r10, [r5, ip, lsl #4]	@ zero_extendqisi2
 842 0490 019081E2 		add	r9, r1, #1
 843 0494 090053E1 		cmp	r3, r9
 844 0498 0CA2C2E7 		strb	r10, [r2, ip, lsl #4]
 845 049c 530000DA 		ble	.L131
 846 04a0 09C0D5E7 		ldrb	ip, [r5, r9]	@ zero_extendqisi2
 847 04a4 090080E0 		add	r0, r0, r9
 848 04a8 029081E2 		add	r9, r1, #2
 849 04ac 090053E1 		cmp	r3, r9
 850 04b0 0EC0C0E7 		strb	ip, [r0, lr]
 851 04b4 4D0000DA 		ble	.L131
 852 04b8 09C0D5E7 		ldrb	ip, [r5, r9]	@ zero_extendqisi2
 853 04bc 030081E2 		add	r0, r1, #3
 854 04c0 000053E1 		cmp	r3, r0
 855 04c4 09C0C2E7 		strb	ip, [r2, r9]
 856 04c8 480000DA 		ble	.L131
 857 04cc 00E0D5E7 		ldrb	lr, [r5, r0]	@ zero_extendqisi2
 858 04d0 04C081E2 		add	ip, r1, #4
 859 04d4 0C0053E1 		cmp	r3, ip
 860 04d8 00E0C2E7 		strb	lr, [r2, r0]
 861 04dc 430000DA 		ble	.L131
 862 04e0 0CE0D5E7 		ldrb	lr, [r5, ip]	@ zero_extendqisi2
 863 04e4 050081E2 		add	r0, r1, #5
 864 04e8 000053E1 		cmp	r3, r0
 865 04ec 0CE0C2E7 		strb	lr, [r2, ip]
 866 04f0 3E0000DA 		ble	.L131
 867 04f4 00E0D5E7 		ldrb	lr, [r5, r0]	@ zero_extendqisi2
 868 04f8 06C081E2 		add	ip, r1, #6
 869 04fc 0C0053E1 		cmp	r3, ip
 870 0500 00E0C2E7 		strb	lr, [r2, r0]
 871 0504 390000DA 		ble	.L131
 872 0508 0CE0D5E7 		ldrb	lr, [r5, ip]	@ zero_extendqisi2
 873 050c 070081E2 		add	r0, r1, #7
 874 0510 000053E1 		cmp	r3, r0
 875 0514 0CE0C2E7 		strb	lr, [r2, ip]
 876 0518 340000DA 		ble	.L131
 877 051c 00E0D5E7 		ldrb	lr, [r5, r0]	@ zero_extendqisi2
 878 0520 08C081E2 		add	ip, r1, #8
 879 0524 0C0053E1 		cmp	r3, ip
 880 0528 00E0C2E7 		strb	lr, [r2, r0]
 881 052c 2F0000DA 		ble	.L131
 882 0530 0CE0D5E7 		ldrb	lr, [r5, ip]	@ zero_extendqisi2
 883 0534 090081E2 		add	r0, r1, #9
 884 0538 000053E1 		cmp	r3, r0
 885 053c 0CE0C2E7 		strb	lr, [r2, ip]
 886 0540 2A0000DA 		ble	.L131
 887 0544 00E0D5E7 		ldrb	lr, [r5, r0]	@ zero_extendqisi2
 888 0548 0AC081E2 		add	ip, r1, #10
 889 054c 0C0053E1 		cmp	r3, ip
 890 0550 00E0C2E7 		strb	lr, [r2, r0]
 891 0554 250000DA 		ble	.L131
 892 0558 0CE0D5E7 		ldrb	lr, [r5, ip]	@ zero_extendqisi2
 893 055c 0B0081E2 		add	r0, r1, #11
 894 0560 000053E1 		cmp	r3, r0
 895 0564 0CE0C2E7 		strb	lr, [r2, ip]
 896 0568 200000DA 		ble	.L131
 897 056c 00E0D5E7 		ldrb	lr, [r5, r0]	@ zero_extendqisi2
 898 0570 0CC081E2 		add	ip, r1, #12
 899 0574 0C0053E1 		cmp	r3, ip
 900 0578 00E0C2E7 		strb	lr, [r2, r0]
 901 057c 1B0000DA 		ble	.L131
 902 0580 0CE0D5E7 		ldrb	lr, [r5, ip]	@ zero_extendqisi2
 903 0584 0D0081E2 		add	r0, r1, #13
 904 0588 000053E1 		cmp	r3, r0
 905 058c 0CE0C2E7 		strb	lr, [r2, ip]
 906 0590 160000DA 		ble	.L131
 907 0594 0E1081E2 		add	r1, r1, #14
 908 0598 00C0D5E7 		ldrb	ip, [r5, r0]	@ zero_extendqisi2
 909 059c 010053E1 		cmp	r3, r1
 910 05a0 00C0C2E7 		strb	ip, [r2, r0]
 911 05a4 110000DA 		ble	.L131
 912 05a8 0100D5E7 		ldrb	r0, [r5, r1]	@ zero_extendqisi2
 913 05ac 035085E0 		add	r5, r5, r3
 914 05b0 0100C2E7 		strb	r0, [r2, r1]
 915              	.L82:
 916 05b4 0C309DE5 		ldr	r3, [sp, #12]
 917 05b8 018088E2 		add	r8, r8, #1
 918 05bc 080053E1 		cmp	r3, r8
 919 05c0 7FFFFF1A 		bne	.L75
 920 05c4 D021CDE1 		ldrd	r2, [sp, #16]
 921 05c8 D801CDE1 		ldrd	r0, [sp, #24]
 922 05cc 012092E2 		adds	r2, r2, #1
 923 05d0 0030A3E2 		adc	r3, r3, #0
 924 05d4 000052E1 		cmp	r2, r0
 925 05d8 F021CDE1 		strd	r2, [sp, #16]
 926 05dc 0130D3E0 		sbcs	r3, r3, r1
 927 05e0 72FFFFBA 		blt	.L76
 928              	.L107:
 929 05e4 0000A0E3 		mov	r0, #0
 930 05e8 3CD08DE2 		add	sp, sp, #60
 931              		@ sp needed
 932 05ec F08FBDE8 		pop	{r4, r5, r6, r7, r8, r9, r10, fp, pc}
 933              	.L131:
 934 05f0 035085E0 		add	r5, r5, r3
 935 05f4 EEFFFFEA 		b	.L82
 936              	.L77:
 937 05f8 0510A0E1 		mov	r1, r5
 938 05fc 035085E0 		add	r5, r5, r3
 939              	.L84:
 940 0600 0130D1E4 		ldrb	r3, [r1], #1	@ zero_extendqisi2
 941 0604 010055E1 		cmp	r5, r1
 942 0608 0130C2E4 		strb	r3, [r2], #1
 943 060c FBFFFF1A 		bne	.L84
 944 0610 E7FFFFEA 		b	.L82
 945              	.L63:
 946 0614 04309DE5 		ldr	r3, [sp, #4]
 947 0618 01B08BE2 		add	fp, fp, #1
 948 061c 0120A0E3 		mov	r2, #1
 949 0620 03005BE1 		cmp	fp, r3
 950 0624 0030A0E3 		mov	r3, #0
 951 0628 110000AA 		bge	.L85
 952 062c F821CDE1 		strd	r2, [sp, #24]
 953 0630 04309DE5 		ldr	r3, [sp, #4]
 954 0634 F5FEFFEA 		b	.L86
 955              	.L87:
 956 0638 0030A0E3 		mov	r3, #0
 957 063c 0120A0E3 		mov	r2, #1
 958 0640 0310A0E1 		mov	r1, r3
 959 0644 0030A0E3 		mov	r3, #0
 960 0648 F821CDE1 		strd	r2, [sp, #24]
 961 064c DCFEFFEA 		b	.L64
 962              	.L88:
 963 0650 0120A0E3 		mov	r2, #1
 964 0654 0030A0E3 		mov	r3, #0
 965 0658 F022CDE1 		strd	r2, [sp, #32]
 966 065c 46FFFFEA 		b	.L67
 967              	.L89:
 968 0660 0120A0E3 		mov	r2, #1
 969 0664 0030A0E3 		mov	r3, #0
 970 0668 F022CDE1 		strd	r2, [sp, #32]
 971 066c 33FFFFEA 		b	.L68
 972              	.L62:
 973 0670 FEFFFFEB 		bl	abort
 974              	.L85:
 975 0674 28109DE5 		ldr	r1, [sp, #40]
 976 0678 F022CDE1 		strd	r2, [sp, #32]
 977 067c F821CDE1 		strd	r2, [sp, #24]
 978 0680 005091E5 		ldr	r5, [r1]
 979 0684 42FFFFEA 		b	.L71
 980              		.fnend
 982              		.section	.text._ZN6tflite3ops5micro5split9SplitImplIaEE12TfLiteStatusP13TfLiteContextP10TfLiteNode
 983              		.align	2
 984              		.weak	_ZN6tflite3ops5micro5split9SplitImplIaEE12TfLiteStatusP13TfLiteContextP10TfLiteNodePK16TfLit
 985              		.syntax unified
 986              		.arm
 987              		.fpu neon
 989              	_ZN6tflite3ops5micro5split9SplitImplIaEE12TfLiteStatusP13TfLiteContextP10TfLiteNodePK16TfLiteEvalTe
 990              		.fnstart
 991              	.LFB928:
 992              		@ args = 0, pretend = 0, frame = 56
 993              		@ frame_needed = 0, uses_anonymous_args = 0
 994 0000 F04F2DE9 		push	{r4, r5, r6, r7, r8, r9, r10, fp, lr}
 995              		.save {r4, r5, r6, r7, r8, r9, r10, fp, lr}
 996              		.pad #60
 997 0004 3CD04DE2 		sub	sp, sp, #60
 998 0008 30108DE5 		str	r1, [sp, #48]
 999 000c 03B0A0E1 		mov	fp, r3
 1000 0010 004050E2 		subs	r4, r0, #0
 1001 0014 043092E5 		ldr	r3, [r2, #4]
 1002 0018 041091E5 		ldr	r1, [r1, #4]
 1003 001c 28208DE5 		str	r2, [sp, #40]
 1004 0020 08308DE5 		str	r3, [sp, #8]
 1005 0024 003091E5 		ldr	r3, [r1]
 1006 0028 0C308DE5 		str	r3, [sp, #12]
 1007 002c 8F01000A 		beq	.L138
 1008 0030 041091E5 		ldr	r1, [r1, #4]
 1009 0034 543094E5 		ldr	r3, [r4, #84]
 1010 0038 33FF2FE1 		blx	r3
 1011 003c 08309DE5 		ldr	r3, [sp, #8]
 1012 0040 00005BE3 		cmp	fp, #0
 1013 0044 042090E5 		ldr	r2, [r0, #4]
 1014 0048 003093E5 		ldr	r3, [r3]
 1015 004c 04308DE5 		str	r3, [sp, #4]
 1016 0050 03B08BB0 		addlt	fp, fp, r3
 1017 0054 04109DE5 		ldr	r1, [sp, #4]
 1018 0058 01005BE1 		cmp	fp, r1
 1019 005c 830100AA 		bge	.L138
 1020 0060 003092E5 		ldr	r3, [r2]
 1021 0064 030051E1 		cmp	r1, r3
 1022 0068 8001001A 		bne	.L138
 1023 006c 08009DE5 		ldr	r0, [sp, #8]
 1024 0070 0B31A0E1 		lsl	r3, fp, #2
 1025 0074 032082E0 		add	r2, r2, r3
 1026 0078 033080E0 		add	r3, r0, r3
 1027 007c 2C208DE5 		str	r2, [sp, #44]
 1028 0080 041093E5 		ldr	r1, [r3, #4]
 1029 0084 042092E5 		ldr	r2, [r2, #4]
 1030 0088 0C309DE5 		ldr	r3, [sp, #12]
 1031 008c 920303E0 		mul	r3, r2, r3
 1032 0090 010053E1 		cmp	r3, r1
 1033 0094 7501001A 		bne	.L138
 1034 0098 00005BE3 		cmp	fp, #0
 1035 009c 5C0100DA 		ble	.L139
 1036 00a0 08005BE3 		cmp	fp, #8
 1037 00a4 630100DA 		ble	.L163
 1038 00a8 09304BE2 		sub	r3, fp, #9
 1039 00ac 0020A0E3 		mov	r2, #0
 1040 00b0 0730C3E3 		bic	r3, r3, #7
 1041 00b4 0280A0E1 		mov	r8, r2
 1042 00b8 083083E2 		add	r3, r3, #8
 1043 00bc 0120A0E3 		mov	r2, #1
 1044 00c0 10308DE5 		str	r3, [sp, #16]
 1045 00c4 0030A0E3 		mov	r3, #0
 1046 00c8 34B08DE5 		str	fp, [sp, #52]
 1047 00cc A4E080E2 		add	lr, r0, #164
 1048 00d0 02A0A0E1 		mov	r10, r2
 1049 00d4 03B0A0E1 		mov	fp, r3
 1050 00d8 20408DE5 		str	r4, [sp, #32]
 1051              	.L141:
 1052 00dc A0201EE5 		ldr	r2, [lr, #-160]
 1053 00e0 088088E2 		add	r8, r8, #8
 1054 00e4 10309DE5 		ldr	r3, [sp, #16]
 1055 00e8 9C401EE5 		ldr	r4, [lr, #-156]
 1056 00ec 94001EE5 		ldr	r0, [lr, #-148]
 1057 00f0 030058E1 		cmp	r8, r3
 1058 00f4 920B03E0 		mul	r3, r2, fp
 1059 00f8 C21FA0E1 		asr	r1, r2, #31
 1060 00fc 90901EE5 		ldr	r9, [lr, #-144]
 1061 0100 926A87E0 		umull	r6, r7, r2, r10
 1062 0104 C4BFA0E1 		asr	fp, r4, #31
 1063 0108 8CC01EE5 		ldr	ip, [lr, #-140]
 1064 010c 00F0DEF5 		pld	[lr]
 1065 0110 20E08EE2 		add	lr, lr, #32
 1066 0114 9A3122E0 		mla	r2, r10, r1, r3
 1067 0118 B8101EE5 		ldr	r1, [lr, #-184]
 1068 011c 077082E0 		add	r7, r2, r7
 1069 0120 942683E0 		umull	r2, r3, r4, r6
 1070 0124 940705E0 		mul	r5, r4, r7
 1071 0128 C17FA0E1 		asr	r7, r1, #31
 1072 012c 965B25E0 		mla	r5, r6, fp, r5
 1073 0130 033085E0 		add	r3, r5, r3
 1074 0134 914285E0 		umull	r4, r5, r1, r2
 1075 0138 91030AE0 		mul	r10, r1, r3
 1076 013c A8301EE5 		ldr	r3, [lr, #-168]
 1077 0140 92A72AE0 		mla	r10, r2, r7, r10
 1078 0144 A4201EE5 		ldr	r2, [lr, #-164]
 1079 0148 C07FA0E1 		asr	r7, r0, #31
 1080 014c 05508AE0 		add	r5, r10, r5
 1081 0150 900506E0 		mul	r6, r0, r5
 1082 0154 C95FA0E1 		asr	r5, r9, #31
 1083 0158 900481E0 		umull	r0, r1, r0, r4
 1084 015c 946726E0 		mla	r6, r4, r7, r6
 1085 0160 CC7FA0E1 		asr	r7, ip, #31
 1086 0164 011086E0 		add	r1, r6, r1
 1087 0168 99010AE0 		mul	r10, r9, r1
 1088 016c 90A52AE0 		mla	r10, r0, r5, r10
 1089 0170 990081E0 		umull	r0, r1, r9, r0
 1090 0174 C35FA0E1 		asr	r5, r3, #31
 1091 0178 01108AE0 		add	r1, r10, r1
 1092 017c 9C0104E0 		mul	r4, ip, r1
 1093 0180 904724E0 		mla	r4, r0, r7, r4
 1094 0184 9C0081E0 		umull	r0, r1, ip, r0
 1095 0188 C27FA0E1 		asr	r7, r2, #31
 1096 018c 011084E0 		add	r1, r4, r1
 1097 0190 93010CE0 		mul	ip, r3, r1
 1098 0194 90C52CE0 		mla	ip, r0, r5, ip
 1099 0198 930081E0 		umull	r0, r1, r3, r0
 1100 019c 01108CE0 		add	r1, ip, r1
 1101 01a0 92A08BE0 		umull	r10, fp, r2, r0
 1102 01a4 920103E0 		mul	r3, r2, r1
 1103 01a8 903720E0 		mla	r0, r0, r7, r3
 1104 01ac 0BB080E0 		add	fp, r0, fp
 1105 01b0 C9FFFF1A 		bne	.L141
 1106 01b4 F8A1CDE1 		strd	r10, [sp, #24]
 1107 01b8 0810A0E1 		mov	r1, r8
 1108 01bc 20409DE5 		ldr	r4, [sp, #32]
 1109 01c0 34B09DE5 		ldr	fp, [sp, #52]
 1110              	.L140:
 1111 01c4 08309DE5 		ldr	r3, [sp, #8]
 1112 01c8 011081E2 		add	r1, r1, #1
 1113 01cc 01C183E0 		add	ip, r3, r1, lsl #2
 1114 01d0 D821CDE1 		ldrd	r2, [sp, #24]
 1115 01d4 000000EA 		b	.L142
 1116              	.L209:
 1117 01d8 011081E2 		add	r1, r1, #1
 1118              	.L142:
 1119 01dc 04E09CE4 		ldr	lr, [ip], #4
 1120 01e0 01005BE1 		cmp	fp, r1
 1121 01e4 CE7FA0E1 		asr	r7, lr, #31
 1122 01e8 920700E0 		mul	r0, r2, r7
 1123 01ec 9E0320E0 		mla	r0, lr, r3, r0
 1124 01f0 922E83E0 		umull	r2, r3, r2, lr
 1125 01f4 033080E0 		add	r3, r0, r3
 1126 01f8 F6FFFFCA 		bgt	.L209
 1127 01fc F821CDE1 		strd	r2, [sp, #24]
 1128 0200 01B08BE2 		add	fp, fp, #1
 1129 0204 04309DE5 		ldr	r3, [sp, #4]
 1130 0208 0B0053E1 		cmp	r3, fp
 1131 020c 0F0100DA 		ble	.L164
 1132              	.L162:
 1133 0210 1E0153E3 		cmp	r3, #-2147483641
 1134 0214 0B0053A1 		cmpge	r3, fp
 1135 0218 072043E2 		sub	r2, r3, #7
 1136 021c 01108BE2 		add	r1, fp, #1
 1137 0220 0130A0C3 		movgt	r3, #1
 1138 0224 0030A0D3 		movle	r3, #0
 1139 0228 10208DE5 		str	r2, [sp, #16]
 1140 022c 010052E1 		cmp	r2, r1
 1141 0230 0030A0D3 		movle	r3, #0
 1142 0234 013003C2 		andgt	r3, r3, #1
 1143 0238 000053E3 		cmp	r3, #0
 1144 023c 0701000A 		beq	.L165
 1145 0240 08109DE5 		ldr	r1, [sp, #8]
 1146 0244 29E08BE2 		add	lr, fp, #41
 1147 0248 0120A0E3 		mov	r2, #1
 1148 024c 0030A0E3 		mov	r3, #0
 1149 0250 04A0A0E1 		mov	r10, r4
 1150 0254 0EE181E0 		add	lr, r1, lr, lsl #2
 1151              	.L145:
 1152 0258 A0601EE5 		ldr	r6, [lr, #-160]
 1153 025c 09108BE2 		add	r1, fp, #9
 1154 0260 10009DE5 		ldr	r0, [sp, #16]
 1155 0264 08B08BE2 		add	fp, fp, #8
 1156 0268 9C401EE5 		ldr	r4, [lr, #-156]
 1157 026c 90801EE5 		ldr	r8, [lr, #-144]
 1158 0270 960303E0 		mul	r3, r6, r3
 1159 0274 010050E1 		cmp	r0, r1
 1160 0278 C61FA0E1 		asr	r1, r6, #31
 1161 027c 94001EE5 		ldr	r0, [lr, #-148]
 1162 0280 966287E0 		umull	r6, r7, r6, r2
 1163 0284 C49FA0E1 		asr	r9, r4, #31
 1164 0288 8CC01EE5 		ldr	ip, [lr, #-140]
 1165 028c 00F0DEF5 		pld	[lr]
 1166 0290 20E08EE2 		add	lr, lr, #32
 1167 0294 923122E0 		mla	r2, r2, r1, r3
 1168 0298 B8101EE5 		ldr	r1, [lr, #-184]
 1169 029c 077082E0 		add	r7, r2, r7
 1170 02a0 942683E0 		umull	r2, r3, r4, r6
 1171 02a4 940705E0 		mul	r5, r4, r7
 1172 02a8 C17FA0E1 		asr	r7, r1, #31
 1173 02ac 965925E0 		mla	r5, r6, r9, r5
 1174 02b0 033085E0 		add	r3, r5, r3
 1175 02b4 914285E0 		umull	r4, r5, r1, r2
 1176 02b8 910309E0 		mul	r9, r1, r3
 1177 02bc A8301EE5 		ldr	r3, [lr, #-168]
 1178 02c0 929729E0 		mla	r9, r2, r7, r9
 1179 02c4 A4201EE5 		ldr	r2, [lr, #-164]
 1180 02c8 C07FA0E1 		asr	r7, r0, #31
 1181 02cc 055089E0 		add	r5, r9, r5
 1182 02d0 900506E0 		mul	r6, r0, r5
 1183 02d4 C85FA0E1 		asr	r5, r8, #31
 1184 02d8 900481E0 		umull	r0, r1, r0, r4
 1185 02dc 946726E0 		mla	r6, r4, r7, r6
 1186 02e0 CC7FA0E1 		asr	r7, ip, #31
 1187 02e4 011086E0 		add	r1, r6, r1
 1188 02e8 980109E0 		mul	r9, r8, r1
 1189 02ec 909529E0 		mla	r9, r0, r5, r9
 1190 02f0 980081E0 		umull	r0, r1, r8, r0
 1191 02f4 C35FA0E1 		asr	r5, r3, #31
 1192 02f8 011089E0 		add	r1, r9, r1
 1193 02fc 9C0104E0 		mul	r4, ip, r1
 1194 0300 904724E0 		mla	r4, r0, r7, r4
 1195 0304 9C0081E0 		umull	r0, r1, ip, r0
 1196 0308 C27FA0E1 		asr	r7, r2, #31
 1197 030c 011084E0 		add	r1, r4, r1
 1198 0310 93010CE0 		mul	ip, r3, r1
 1199 0314 90C52CE0 		mla	ip, r0, r5, ip
 1200 0318 930081E0 		umull	r0, r1, r3, r0
 1201 031c 01108CE0 		add	r1, ip, r1
 1202 0320 920101E0 		mul	r1, r2, r1
 1203 0324 922083E0 		umull	r2, r3, r2, r0
 1204 0328 901720E0 		mla	r0, r0, r7, r1
 1205 032c 033080E0 		add	r3, r0, r3
 1206 0330 C8FFFFCA 		bgt	.L145
 1207 0334 0A40A0E1 		mov	r4, r10
 1208 0338 01108BE2 		add	r1, fp, #1
 1209 033c F022CDE1 		strd	r2, [sp, #32]
 1210              	.L144:
 1211 0340 08309DE5 		ldr	r3, [sp, #8]
 1212 0344 04509DE5 		ldr	r5, [sp, #4]
 1213 0348 01C183E0 		add	ip, r3, r1, lsl #2
 1214 034c D022CDE1 		ldrd	r2, [sp, #32]
 1215 0350 000000EA 		b	.L146
 1216              	.L210:
 1217 0354 011081E2 		add	r1, r1, #1
 1218              	.L146:
 1219 0358 04E09CE4 		ldr	lr, [ip], #4
 1220 035c 010055E1 		cmp	r5, r1
 1221 0360 CE7FA0E1 		asr	r7, lr, #31
 1222 0364 920700E0 		mul	r0, r2, r7
 1223 0368 9E0320E0 		mla	r0, lr, r3, r0
 1224 036c 922E83E0 		umull	r2, r3, r2, lr
 1225 0370 033080E0 		add	r3, r0, r3
 1226 0374 F6FFFFCA 		bgt	.L210
 1227 0378 F022CDE1 		strd	r2, [sp, #32]
 1228              	.L143:
 1229 037c D821CDE1 		ldrd	r2, [sp, #24]
 1230 0380 010052E3 		cmp	r2, #1
 1231 0384 0030D3E2 		sbcs	r3, r3, #0
 1232 0388 28309DE5 		ldr	r3, [sp, #40]
 1233 038c 005093E5 		ldr	r5, [r3]
 1234 0390 930000BA 		blt	.L183
 1235              	.L147:
 1236 0394 0C309DE5 		ldr	r3, [sp, #12]
 1237 0398 000053E3 		cmp	r3, #0
 1238 039c 900000DA 		ble	.L183
 1239 03a0 2C609DE5 		ldr	r6, [sp, #44]
 1240 03a4 30709DE5 		ldr	r7, [sp, #48]
 1241 03a8 1000C0F2 		vmov.i32	d16, #0  @ di
 1242 03ac 040BCDED 		vstr.64	d16, [sp, #16]	@ int
 1243              	.L152:
 1244 03b0 10309DE5 		ldr	r3, [sp, #16]
 1245 03b4 0080A0E3 		mov	r8, #0
 1246 03b8 04308DE5 		str	r3, [sp, #4]
 1247 03bc 20309DE5 		ldr	r3, [sp, #32]
 1248 03c0 08308DE5 		str	r3, [sp, #8]
 1249              	.L151:
 1250 03c4 043097E5 		ldr	r3, [r7, #4]
 1251 03c8 0400A0E1 		mov	r0, r4
 1252 03cc 542094E5 		ldr	r2, [r4, #84]
 1253 03d0 083183E0 		add	r3, r3, r8, lsl #2
 1254 03d4 041093E5 		ldr	r1, [r3, #4]
 1255 03d8 32FF2FE1 		blx	r2
 1256 03dc 08209DE5 		ldr	r2, [sp, #8]
 1257 03e0 000050E3 		cmp	r0, #0
 1258 03e4 043096E5 		ldr	r3, [r6, #4]
 1259 03e8 00009015 		ldrne	r0, [r0]
 1260 03ec 930203E0 		mul	r3, r3, r2
 1261 03f0 04209DE5 		ldr	r2, [sp, #4]
 1262 03f4 000053E3 		cmp	r3, #0
 1263 03f8 92030EE0 		mul	lr, r2, r3
 1264 03fc 7B0000DA 		ble	.L207
 1265 0400 109085E2 		add	r9, r5, #16
 1266 0404 0E2080E0 		add	r2, r0, lr
 1267 0408 020059E1 		cmp	r9, r2
 1268 040c 10108EE2 		add	r1, lr, #16
 1269 0410 0090A083 		movhi	r9, #0
 1270 0414 0190A093 		movls	r9, #1
 1271 0418 011080E0 		add	r1, r0, r1
 1272 041c 02C085E1 		orr	ip, r5, r2
 1273 0420 010055E1 		cmp	r5, r1
 1274 0424 0910A031 		movcc	r1, r9
 1275 0428 01108923 		orrcs	r1, r9, #1
 1276 042c 0290A0E1 		mov	r9, r2
 1277 0430 0F0053E3 		cmp	r3, #15
 1278 0434 0010A093 		movls	r1, #0
 1279 0438 01100182 		andhi	r1, r1, #1
 1280 043c 0F001CE3 		tst	ip, #15
 1281 0440 0010A013 		movne	r1, #0
 1282 0444 01100102 		andeq	r1, r1, #1
 1283 0448 000051E3 		cmp	r1, #0
 1284 044c 6900000A 		beq	.L153
 1285 0450 10C043E2 		sub	ip, r3, #16
 1286 0454 05B0A0E1 		mov	fp, r5
 1287 0458 2CC2A0E1 		lsr	ip, ip, #4
 1288 045c 00A0A0E3 		mov	r10, #0
 1289 0460 01C08CE2 		add	ip, ip, #1
 1290 0464 0C12A0E1 		lsl	r1, ip, #4
 1291              	.L155:
 1292 0468 01A08AE2 		add	r10, r10, #1
 1293 046c DF0A6BF4 		vld1.64	{d16-d17}, [fp:64]
 1294 0470 0A005CE1 		cmp	ip, r10
 1295 0474 10B08BE2 		add	fp, fp, #16
 1296 0478 DF0A49F4 		vst1.64	{d16-d17}, [r9:64]
 1297 047c 109089E2 		add	r9, r9, #16
 1298 0480 F8FFFF8A 		bhi	.L155
 1299 0484 010053E1 		cmp	r3, r1
 1300 0488 5800000A 		beq	.L207
 1301 048c D1A095E1 		ldrsb	r10, [r5, r1]
 1302 0490 019081E2 		add	r9, r1, #1
 1303 0494 090053E1 		cmp	r3, r9
 1304 0498 0CA2C2E7 		strb	r10, [r2, ip, lsl #4]
 1305 049c 530000DA 		ble	.L207
 1306 04a0 D9C095E1 		ldrsb	ip, [r5, r9]
 1307 04a4 090080E0 		add	r0, r0, r9
 1308 04a8 029081E2 		add	r9, r1, #2
 1309 04ac 090053E1 		cmp	r3, r9
 1310 04b0 0EC0C0E7 		strb	ip, [r0, lr]
 1311 04b4 4D0000DA 		ble	.L207
 1312 04b8 D9C095E1 		ldrsb	ip, [r5, r9]
 1313 04bc 030081E2 		add	r0, r1, #3
 1314 04c0 000053E1 		cmp	r3, r0
 1315 04c4 09C0C2E7 		strb	ip, [r2, r9]
 1316 04c8 480000DA 		ble	.L207
 1317 04cc D0E095E1 		ldrsb	lr, [r5, r0]
 1318 04d0 04C081E2 		add	ip, r1, #4
 1319 04d4 0C0053E1 		cmp	r3, ip
 1320 04d8 00E0C2E7 		strb	lr, [r2, r0]
 1321 04dc 430000DA 		ble	.L207
 1322 04e0 DCE095E1 		ldrsb	lr, [r5, ip]
 1323 04e4 050081E2 		add	r0, r1, #5
 1324 04e8 000053E1 		cmp	r3, r0
 1325 04ec 0CE0C2E7 		strb	lr, [r2, ip]
 1326 04f0 3E0000DA 		ble	.L207
 1327 04f4 D0E095E1 		ldrsb	lr, [r5, r0]
 1328 04f8 06C081E2 		add	ip, r1, #6
 1329 04fc 0C0053E1 		cmp	r3, ip
 1330 0500 00E0C2E7 		strb	lr, [r2, r0]
 1331 0504 390000DA 		ble	.L207
 1332 0508 DCE095E1 		ldrsb	lr, [r5, ip]
 1333 050c 070081E2 		add	r0, r1, #7
 1334 0510 000053E1 		cmp	r3, r0
 1335 0514 0CE0C2E7 		strb	lr, [r2, ip]
 1336 0518 340000DA 		ble	.L207
 1337 051c D0E095E1 		ldrsb	lr, [r5, r0]
 1338 0520 08C081E2 		add	ip, r1, #8
 1339 0524 0C0053E1 		cmp	r3, ip
 1340 0528 00E0C2E7 		strb	lr, [r2, r0]
 1341 052c 2F0000DA 		ble	.L207
 1342 0530 DCE095E1 		ldrsb	lr, [r5, ip]
 1343 0534 090081E2 		add	r0, r1, #9
 1344 0538 000053E1 		cmp	r3, r0
 1345 053c 0CE0C2E7 		strb	lr, [r2, ip]
 1346 0540 2A0000DA 		ble	.L207
 1347 0544 D0E095E1 		ldrsb	lr, [r5, r0]
 1348 0548 0AC081E2 		add	ip, r1, #10
 1349 054c 0C0053E1 		cmp	r3, ip
 1350 0550 00E0C2E7 		strb	lr, [r2, r0]
 1351 0554 250000DA 		ble	.L207
 1352 0558 DCE095E1 		ldrsb	lr, [r5, ip]
 1353 055c 0B0081E2 		add	r0, r1, #11
 1354 0560 000053E1 		cmp	r3, r0
 1355 0564 0CE0C2E7 		strb	lr, [r2, ip]
 1356 0568 200000DA 		ble	.L207
 1357 056c D0E095E1 		ldrsb	lr, [r5, r0]
 1358 0570 0CC081E2 		add	ip, r1, #12
 1359 0574 0C0053E1 		cmp	r3, ip
 1360 0578 00E0C2E7 		strb	lr, [r2, r0]
 1361 057c 1B0000DA 		ble	.L207
 1362 0580 DCE095E1 		ldrsb	lr, [r5, ip]
 1363 0584 0D0081E2 		add	r0, r1, #13
 1364 0588 000053E1 		cmp	r3, r0
 1365 058c 0CE0C2E7 		strb	lr, [r2, ip]
 1366 0590 160000DA 		ble	.L207
 1367 0594 0E1081E2 		add	r1, r1, #14
 1368 0598 D0C095E1 		ldrsb	ip, [r5, r0]
 1369 059c 010053E1 		cmp	r3, r1
 1370 05a0 00C0C2E7 		strb	ip, [r2, r0]
 1371 05a4 110000DA 		ble	.L207
 1372 05a8 D10095E1 		ldrsb	r0, [r5, r1]
 1373 05ac 035085E0 		add	r5, r5, r3
 1374 05b0 0100C2E7 		strb	r0, [r2, r1]
 1375              	.L158:
 1376 05b4 0C309DE5 		ldr	r3, [sp, #12]
 1377 05b8 018088E2 		add	r8, r8, #1
 1378 05bc 080053E1 		cmp	r3, r8
 1379 05c0 7FFFFF1A 		bne	.L151
 1380 05c4 D021CDE1 		ldrd	r2, [sp, #16]
 1381 05c8 D801CDE1 		ldrd	r0, [sp, #24]
 1382 05cc 012092E2 		adds	r2, r2, #1
 1383 05d0 0030A3E2 		adc	r3, r3, #0
 1384 05d4 000052E1 		cmp	r2, r0
 1385 05d8 F021CDE1 		strd	r2, [sp, #16]
 1386 05dc 0130D3E0 		sbcs	r3, r3, r1
 1387 05e0 72FFFFBA 		blt	.L152
 1388              	.L183:
 1389 05e4 0000A0E3 		mov	r0, #0
 1390 05e8 3CD08DE2 		add	sp, sp, #60
 1391              		@ sp needed
 1392 05ec F08FBDE8 		pop	{r4, r5, r6, r7, r8, r9, r10, fp, pc}
 1393              	.L207:
 1394 05f0 035085E0 		add	r5, r5, r3
 1395 05f4 EEFFFFEA 		b	.L158
 1396              	.L153:
 1397 05f8 0510A0E1 		mov	r1, r5
 1398 05fc 035085E0 		add	r5, r5, r3
 1399              	.L160:
 1400 0600 D130D1E0 		ldrsb	r3, [r1], #1
 1401 0604 010055E1 		cmp	r5, r1
 1402 0608 0130C2E4 		strb	r3, [r2], #1
 1403 060c FBFFFF1A 		bne	.L160
 1404 0610 E7FFFFEA 		b	.L158
 1405              	.L139:
 1406 0614 04309DE5 		ldr	r3, [sp, #4]
 1407 0618 01B08BE2 		add	fp, fp, #1
 1408 061c 0120A0E3 		mov	r2, #1
 1409 0620 03005BE1 		cmp	fp, r3
 1410 0624 0030A0E3 		mov	r3, #0
 1411 0628 110000AA 		bge	.L161
 1412 062c F821CDE1 		strd	r2, [sp, #24]
 1413 0630 04309DE5 		ldr	r3, [sp, #4]
 1414 0634 F5FEFFEA 		b	.L162
 1415              	.L163:
 1416 0638 0030A0E3 		mov	r3, #0
 1417 063c 0120A0E3 		mov	r2, #1
 1418 0640 0310A0E1 		mov	r1, r3
 1419 0644 0030A0E3 		mov	r3, #0
 1420 0648 F821CDE1 		strd	r2, [sp, #24]
 1421 064c DCFEFFEA 		b	.L140
 1422              	.L164:
 1423 0650 0120A0E3 		mov	r2, #1
 1424 0654 0030A0E3 		mov	r3, #0
 1425 0658 F022CDE1 		strd	r2, [sp, #32]
 1426 065c 46FFFFEA 		b	.L143
 1427              	.L165:
 1428 0660 0120A0E3 		mov	r2, #1
 1429 0664 0030A0E3 		mov	r3, #0
 1430 0668 F022CDE1 		strd	r2, [sp, #32]
 1431 066c 33FFFFEA 		b	.L144
 1432              	.L138:
 1433 0670 FEFFFFEB 		bl	abort
 1434              	.L161:
 1435 0674 28109DE5 		ldr	r1, [sp, #40]
 1436 0678 F022CDE1 		strd	r2, [sp, #32]
 1437 067c F821CDE1 		strd	r2, [sp, #24]
 1438 0680 005091E5 		ldr	r5, [r1]
 1439 0684 42FFFFEA 		b	.L147
 1440              		.fnend
 1442              		.section	.text._ZN6tflite3ops5micro5split9SplitImplIsEE12TfLiteStatusP13TfLiteContextP10TfLiteNode
 1443              		.align	2
 1444              		.weak	_ZN6tflite3ops5micro5split9SplitImplIsEE12TfLiteStatusP13TfLiteContextP10TfLiteNodePK16TfLit
 1445              		.syntax unified
 1446              		.arm
 1447              		.fpu neon
 1449              	_ZN6tflite3ops5micro5split9SplitImplIsEE12TfLiteStatusP13TfLiteContextP10TfLiteNodePK16TfLiteEvalTe
 1450              		.fnstart
 1451              	.LFB929:
 1452              		@ args = 0, pretend = 0, frame = 56
 1453              		@ frame_needed = 0, uses_anonymous_args = 0
 1454 0000 F04F2DE9 		push	{r4, r5, r6, r7, r8, r9, r10, fp, lr}
 1455              		.save {r4, r5, r6, r7, r8, r9, r10, fp, lr}
 1456              		.pad #60
 1457 0004 3CD04DE2 		sub	sp, sp, #60
 1458 0008 2C108DE5 		str	r1, [sp, #44]
 1459 000c 03B0A0E1 		mov	fp, r3
 1460 0010 004050E2 		subs	r4, r0, #0
 1461 0014 043092E5 		ldr	r3, [r2, #4]
 1462 0018 041091E5 		ldr	r1, [r1, #4]
 1463 001c 28208DE5 		str	r2, [sp, #40]
 1464 0020 08308DE5 		str	r3, [sp, #8]
 1465 0024 003091E5 		ldr	r3, [r1]
 1466 0028 0C308DE5 		str	r3, [sp, #12]
 1467 002c 9E01000A 		beq	.L214
 1468 0030 041091E5 		ldr	r1, [r1, #4]
 1469 0034 543094E5 		ldr	r3, [r4, #84]
 1470 0038 33FF2FE1 		blx	r3
 1471 003c 08309DE5 		ldr	r3, [sp, #8]
 1472 0040 00005BE3 		cmp	fp, #0
 1473 0044 042090E5 		ldr	r2, [r0, #4]
 1474 0048 003093E5 		ldr	r3, [r3]
 1475 004c 04308DE5 		str	r3, [sp, #4]
 1476 0050 03B08BB0 		addlt	fp, fp, r3
 1477 0054 04109DE5 		ldr	r1, [sp, #4]
 1478 0058 01005BE1 		cmp	fp, r1
 1479 005c 920100AA 		bge	.L214
 1480 0060 003092E5 		ldr	r3, [r2]
 1481 0064 030051E1 		cmp	r1, r3
 1482 0068 8F01001A 		bne	.L214
 1483 006c 08009DE5 		ldr	r0, [sp, #8]
 1484 0070 0B31A0E1 		lsl	r3, fp, #2
 1485 0074 035082E0 		add	r5, r2, r3
 1486 0078 033080E0 		add	r3, r0, r3
 1487 007c 042095E5 		ldr	r2, [r5, #4]
 1488 0080 041093E5 		ldr	r1, [r3, #4]
 1489 0084 0C309DE5 		ldr	r3, [sp, #12]
 1490 0088 920303E0 		mul	r3, r2, r3
 1491 008c 010053E1 		cmp	r3, r1
 1492 0090 8501001A 		bne	.L214
 1493 0094 00005BE3 		cmp	fp, #0
 1494 0098 6C0100DA 		ble	.L215
 1495 009c 08005BE3 		cmp	fp, #8
 1496 00a0 730100DA 		ble	.L241
 1497 00a4 09304BE2 		sub	r3, fp, #9
 1498 00a8 0020A0E3 		mov	r2, #0
 1499 00ac 0730C3E3 		bic	r3, r3, #7
 1500 00b0 0280A0E1 		mov	r8, r2
 1501 00b4 083083E2 		add	r3, r3, #8
 1502 00b8 0120A0E3 		mov	r2, #1
 1503 00bc 10308DE5 		str	r3, [sp, #16]
 1504 00c0 0030A0E3 		mov	r3, #0
 1505 00c4 34B08DE5 		str	fp, [sp, #52]
 1506 00c8 A4E080E2 		add	lr, r0, #164
 1507 00cc 02A0A0E1 		mov	r10, r2
 1508 00d0 03B0A0E1 		mov	fp, r3
 1509 00d4 20508DE5 		str	r5, [sp, #32]
 1510 00d8 30408DE5 		str	r4, [sp, #48]
 1511              	.L217:
 1512 00dc A0201EE5 		ldr	r2, [lr, #-160]
 1513 00e0 088088E2 		add	r8, r8, #8
 1514 00e4 10309DE5 		ldr	r3, [sp, #16]
 1515 00e8 9C401EE5 		ldr	r4, [lr, #-156]
 1516 00ec 94001EE5 		ldr	r0, [lr, #-148]
 1517 00f0 030058E1 		cmp	r8, r3
 1518 00f4 920B03E0 		mul	r3, r2, fp
 1519 00f8 C21FA0E1 		asr	r1, r2, #31
 1520 00fc 90901EE5 		ldr	r9, [lr, #-144]
 1521 0100 926A87E0 		umull	r6, r7, r2, r10
 1522 0104 C4BFA0E1 		asr	fp, r4, #31
 1523 0108 8CC01EE5 		ldr	ip, [lr, #-140]
 1524 010c 00F0DEF5 		pld	[lr]
 1525 0110 20E08EE2 		add	lr, lr, #32
 1526 0114 9A3122E0 		mla	r2, r10, r1, r3
 1527 0118 B8101EE5 		ldr	r1, [lr, #-184]
 1528 011c 077082E0 		add	r7, r2, r7
 1529 0120 942683E0 		umull	r2, r3, r4, r6
 1530 0124 940705E0 		mul	r5, r4, r7
 1531 0128 C17FA0E1 		asr	r7, r1, #31
 1532 012c 965B25E0 		mla	r5, r6, fp, r5
 1533 0130 033085E0 		add	r3, r5, r3
 1534 0134 914285E0 		umull	r4, r5, r1, r2
 1535 0138 91030AE0 		mul	r10, r1, r3
 1536 013c A8301EE5 		ldr	r3, [lr, #-168]
 1537 0140 92A72AE0 		mla	r10, r2, r7, r10
 1538 0144 A4201EE5 		ldr	r2, [lr, #-164]
 1539 0148 C07FA0E1 		asr	r7, r0, #31
 1540 014c 05508AE0 		add	r5, r10, r5
 1541 0150 900506E0 		mul	r6, r0, r5
 1542 0154 C95FA0E1 		asr	r5, r9, #31
 1543 0158 900481E0 		umull	r0, r1, r0, r4
 1544 015c 946726E0 		mla	r6, r4, r7, r6
 1545 0160 CC7FA0E1 		asr	r7, ip, #31
 1546 0164 011086E0 		add	r1, r6, r1
 1547 0168 99010AE0 		mul	r10, r9, r1
 1548 016c 90A52AE0 		mla	r10, r0, r5, r10
 1549 0170 990081E0 		umull	r0, r1, r9, r0
 1550 0174 C35FA0E1 		asr	r5, r3, #31
 1551 0178 01108AE0 		add	r1, r10, r1
 1552 017c 9C0104E0 		mul	r4, ip, r1
 1553 0180 904724E0 		mla	r4, r0, r7, r4
 1554 0184 9C0081E0 		umull	r0, r1, ip, r0
 1555 0188 C27FA0E1 		asr	r7, r2, #31
 1556 018c 011084E0 		add	r1, r4, r1
 1557 0190 93010CE0 		mul	ip, r3, r1
 1558 0194 90C52CE0 		mla	ip, r0, r5, ip
 1559 0198 930081E0 		umull	r0, r1, r3, r0
 1560 019c 01108CE0 		add	r1, ip, r1
 1561 01a0 92A08BE0 		umull	r10, fp, r2, r0
 1562 01a4 920103E0 		mul	r3, r2, r1
 1563 01a8 903720E0 		mla	r0, r0, r7, r3
 1564 01ac 0BB080E0 		add	fp, r0, fp
 1565 01b0 C9FFFF1A 		bne	.L217
 1566 01b4 F8A1CDE1 		strd	r10, [sp, #24]
 1567 01b8 0810A0E1 		mov	r1, r8
 1568 01bc 20509DE5 		ldr	r5, [sp, #32]
 1569 01c0 30409DE5 		ldr	r4, [sp, #48]
 1570 01c4 34B09DE5 		ldr	fp, [sp, #52]
 1571              	.L216:
 1572 01c8 08309DE5 		ldr	r3, [sp, #8]
 1573 01cc 011081E2 		add	r1, r1, #1
 1574 01d0 01C183E0 		add	ip, r3, r1, lsl #2
 1575 01d4 D821CDE1 		ldrd	r2, [sp, #24]
 1576 01d8 000000EA 		b	.L218
 1577              	.L260:
 1578 01dc 011081E2 		add	r1, r1, #1
 1579              	.L218:
 1580 01e0 04E09CE4 		ldr	lr, [ip], #4
 1581 01e4 01005BE1 		cmp	fp, r1
 1582 01e8 CE7FA0E1 		asr	r7, lr, #31
 1583 01ec 920700E0 		mul	r0, r2, r7
 1584 01f0 9E0320E0 		mla	r0, lr, r3, r0
 1585 01f4 922E83E0 		umull	r2, r3, r2, lr
 1586 01f8 033080E0 		add	r3, r0, r3
 1587 01fc F6FFFFCA 		bgt	.L260
 1588 0200 F821CDE1 		strd	r2, [sp, #24]
 1589 0204 01B08BE2 		add	fp, fp, #1
 1590 0208 04309DE5 		ldr	r3, [sp, #4]
 1591 020c 0B0053E1 		cmp	r3, fp
 1592 0210 1D0100DA 		ble	.L242
 1593              	.L240:
 1594 0214 1E0153E3 		cmp	r3, #-2147483641
 1595 0218 0B0053A1 		cmpge	r3, fp
 1596 021c 072043E2 		sub	r2, r3, #7
 1597 0220 01108BE2 		add	r1, fp, #1
 1598 0224 0130A0C3 		movgt	r3, #1
 1599 0228 0030A0D3 		movle	r3, #0
 1600 022c 10208DE5 		str	r2, [sp, #16]
 1601 0230 020051E1 		cmp	r1, r2
 1602 0234 0030A0A3 		movge	r3, #0
 1603 0238 013003B2 		andlt	r3, r3, #1
 1604 023c 000053E3 		cmp	r3, #0
 1605 0240 1501000A 		beq	.L243
 1606 0244 08109DE5 		ldr	r1, [sp, #8]
 1607 0248 29E08BE2 		add	lr, fp, #41
 1608 024c 0120A0E3 		mov	r2, #1
 1609 0250 0030A0E3 		mov	r3, #0
 1610 0254 04A0A0E1 		mov	r10, r4
 1611 0258 30508DE5 		str	r5, [sp, #48]
 1612 025c 0EE181E0 		add	lr, r1, lr, lsl #2
 1613              	.L221:
 1614 0260 A0601EE5 		ldr	r6, [lr, #-160]
 1615 0264 09108BE2 		add	r1, fp, #9
 1616 0268 10009DE5 		ldr	r0, [sp, #16]
 1617 026c 08B08BE2 		add	fp, fp, #8
 1618 0270 9C401EE5 		ldr	r4, [lr, #-156]
 1619 0274 90801EE5 		ldr	r8, [lr, #-144]
 1620 0278 960303E0 		mul	r3, r6, r3
 1621 027c 010050E1 		cmp	r0, r1
 1622 0280 C61FA0E1 		asr	r1, r6, #31
 1623 0284 94001EE5 		ldr	r0, [lr, #-148]
 1624 0288 966287E0 		umull	r6, r7, r6, r2
 1625 028c C49FA0E1 		asr	r9, r4, #31
 1626 0290 8CC01EE5 		ldr	ip, [lr, #-140]
 1627 0294 00F0DEF5 		pld	[lr]
 1628 0298 20E08EE2 		add	lr, lr, #32
 1629 029c 923122E0 		mla	r2, r2, r1, r3
 1630 02a0 B8101EE5 		ldr	r1, [lr, #-184]
 1631 02a4 077082E0 		add	r7, r2, r7
 1632 02a8 942683E0 		umull	r2, r3, r4, r6
 1633 02ac 940705E0 		mul	r5, r4, r7
 1634 02b0 C17FA0E1 		asr	r7, r1, #31
 1635 02b4 965925E0 		mla	r5, r6, r9, r5
 1636 02b8 033085E0 		add	r3, r5, r3
 1637 02bc 914285E0 		umull	r4, r5, r1, r2
 1638 02c0 910309E0 		mul	r9, r1, r3
 1639 02c4 A8301EE5 		ldr	r3, [lr, #-168]
 1640 02c8 929729E0 		mla	r9, r2, r7, r9
 1641 02cc A4201EE5 		ldr	r2, [lr, #-164]
 1642 02d0 C07FA0E1 		asr	r7, r0, #31
 1643 02d4 055089E0 		add	r5, r9, r5
 1644 02d8 900506E0 		mul	r6, r0, r5
 1645 02dc C85FA0E1 		asr	r5, r8, #31
 1646 02e0 900481E0 		umull	r0, r1, r0, r4
 1647 02e4 946726E0 		mla	r6, r4, r7, r6
 1648 02e8 CC7FA0E1 		asr	r7, ip, #31
 1649 02ec 011086E0 		add	r1, r6, r1
 1650 02f0 980109E0 		mul	r9, r8, r1
 1651 02f4 909529E0 		mla	r9, r0, r5, r9
 1652 02f8 980081E0 		umull	r0, r1, r8, r0
 1653 02fc C35FA0E1 		asr	r5, r3, #31
 1654 0300 011089E0 		add	r1, r9, r1
 1655 0304 9C0104E0 		mul	r4, ip, r1
 1656 0308 904724E0 		mla	r4, r0, r7, r4
 1657 030c 9C0081E0 		umull	r0, r1, ip, r0
 1658 0310 C27FA0E1 		asr	r7, r2, #31
 1659 0314 011084E0 		add	r1, r4, r1
 1660 0318 93010CE0 		mul	ip, r3, r1
 1661 031c 90C52CE0 		mla	ip, r0, r5, ip
 1662 0320 930081E0 		umull	r0, r1, r3, r0
 1663 0324 01108CE0 		add	r1, ip, r1
 1664 0328 920101E0 		mul	r1, r2, r1
 1665 032c 922083E0 		umull	r2, r3, r2, r0
 1666 0330 901720E0 		mla	r0, r0, r7, r1
 1667 0334 033080E0 		add	r3, r0, r3
 1668 0338 C8FFFFCA 		bgt	.L221
 1669 033c 30509DE5 		ldr	r5, [sp, #48]
 1670 0340 0A40A0E1 		mov	r4, r10
 1671 0344 01108BE2 		add	r1, fp, #1
 1672 0348 F022CDE1 		strd	r2, [sp, #32]
 1673              	.L220:
 1674 034c 08309DE5 		ldr	r3, [sp, #8]
 1675 0350 04809DE5 		ldr	r8, [sp, #4]
 1676 0354 01C183E0 		add	ip, r3, r1, lsl #2
 1677 0358 D022CDE1 		ldrd	r2, [sp, #32]
 1678 035c 000000EA 		b	.L222
 1679              	.L261:
 1680 0360 011081E2 		add	r1, r1, #1
 1681              	.L222:
 1682 0364 04E09CE4 		ldr	lr, [ip], #4
 1683 0368 010058E1 		cmp	r8, r1
 1684 036c CE7FA0E1 		asr	r7, lr, #31
 1685 0370 920700E0 		mul	r0, r2, r7
 1686 0374 9E0320E0 		mla	r0, lr, r3, r0
 1687 0378 922E83E0 		umull	r2, r3, r2, lr
 1688 037c 033080E0 		add	r3, r0, r3
 1689 0380 F6FFFFCA 		bgt	.L261
 1690 0384 F022CDE1 		strd	r2, [sp, #32]
 1691              	.L219:
 1692 0388 D821CDE1 		ldrd	r2, [sp, #24]
 1693 038c 010052E3 		cmp	r2, #1
 1694 0390 0030D3E2 		sbcs	r3, r3, #0
 1695 0394 28309DE5 		ldr	r3, [sp, #40]
 1696 0398 007093E5 		ldr	r7, [r3]
 1697 039c 700000BA 		blt	.L248
 1698              	.L223:
 1699 03a0 0C309DE5 		ldr	r3, [sp, #12]
 1700 03a4 000053E3 		cmp	r3, #0
 1701 03a8 6D0000DA 		ble	.L248
 1702 03ac 2C809DE5 		ldr	r8, [sp, #44]
 1703 03b0 1000C0F2 		vmov.i32	d16, #0  @ di
 1704 03b4 040BCDED 		vstr.64	d16, [sp, #16]	@ int
 1705              	.L228:
 1706 03b8 10309DE5 		ldr	r3, [sp, #16]
 1707 03bc 0060A0E3 		mov	r6, #0
 1708 03c0 04308DE5 		str	r3, [sp, #4]
 1709 03c4 20309DE5 		ldr	r3, [sp, #32]
 1710 03c8 08308DE5 		str	r3, [sp, #8]
 1711              	.L227:
 1712 03cc 043098E5 		ldr	r3, [r8, #4]
 1713 03d0 0400A0E1 		mov	r0, r4
 1714 03d4 542094E5 		ldr	r2, [r4, #84]
 1715 03d8 063183E0 		add	r3, r3, r6, lsl #2
 1716 03dc 041093E5 		ldr	r1, [r3, #4]
 1717 03e0 32FF2FE1 		blx	r2
 1718 03e4 08309DE5 		ldr	r3, [sp, #8]
 1719 03e8 000050E3 		cmp	r0, #0
 1720 03ec 04C095E5 		ldr	ip, [r5, #4]
 1721 03f0 00009015 		ldrne	r0, [r0]
 1722 03f4 9C030CE0 		mul	ip, ip, r3
 1723 03f8 04309DE5 		ldr	r3, [sp, #4]
 1724 03fc 930C01E0 		mul	r1, r3, ip
 1725 0400 00005CE3 		cmp	ip, #0
 1726 0404 81E0A0E1 		lsl	lr, r1, #1
 1727 0408 480000DA 		ble	.L234
 1728 040c 081081E2 		add	r1, r1, #8
 1729 0410 0E3080E0 		add	r3, r0, lr
 1730 0414 812080E0 		add	r2, r0, r1, lsl #1
 1731 0418 101087E2 		add	r1, r7, #16
 1732 041c 030051E1 		cmp	r1, r3
 1733 0420 0390A0E1 		mov	r9, r3
 1734 0424 0010A083 		movhi	r1, #0
 1735 0428 0110A093 		movls	r1, #1
 1736 042c 020057E1 		cmp	r7, r2
 1737 0430 01108123 		orrcs	r1, r1, #1
 1738 0434 032087E1 		orr	r2, r7, r3
 1739 0438 0A005CE3 		cmp	ip, #10
 1740 043c 0010A093 		movls	r1, #0
 1741 0440 01100182 		andhi	r1, r1, #1
 1742 0444 0F0012E3 		tst	r2, #15
 1743 0448 0010A013 		movne	r1, #0
 1744 044c 01100102 		andeq	r1, r1, #1
 1745 0450 000051E3 		cmp	r1, #0
 1746 0454 4500000A 		beq	.L229
 1747 0458 08204CE2 		sub	r2, ip, #8
 1748 045c 07B0A0E1 		mov	fp, r7
 1749 0460 A221A0E1 		lsr	r2, r2, #3
 1750 0464 00A0A0E3 		mov	r10, #0
 1751 0468 012082E2 		add	r2, r2, #1
 1752 046c 8211A0E1 		lsl	r1, r2, #3
 1753              	.L231:
 1754 0470 01A08AE2 		add	r10, r10, #1
 1755 0474 DF0A6BF4 		vld1.64	{d16-d17}, [fp:64]
 1756 0478 0A0052E1 		cmp	r2, r10
 1757 047c 10B08BE2 		add	fp, fp, #16
 1758 0480 DF0A49F4 		vst1.64	{d16-d17}, [r9:64]
 1759 0484 109089E2 		add	r9, r9, #16
 1760 0488 F8FFFF8A 		bhi	.L231
 1761 048c 01005CE1 		cmp	ip, r1
 1762 0490 2600000A 		beq	.L234
 1763 0494 8120A0E1 		lsl	r2, r1, #1
 1764 0498 019081E2 		add	r9, r1, #1
 1765 049c 09005CE1 		cmp	ip, r9
 1766 04a0 F29097E1 		ldrsh	r9, [r7, r2]
 1767 04a4 B29083E1 		strh	r9, [r3, r2]	@ movhi
 1768 04a8 200000DA 		ble	.L234
 1769 04ac 029082E2 		add	r9, r2, #2
 1770 04b0 02A081E2 		add	r10, r1, #2
 1771 04b4 F9B097E1 		ldrsh	fp, [r7, r9]
 1772 04b8 0A005CE1 		cmp	ip, r10
 1773 04bc B9B083E1 		strh	fp, [r3, r9]	@ movhi
 1774 04c0 1A0000DA 		ble	.L234
 1775 04c4 049082E2 		add	r9, r2, #4
 1776 04c8 03A081E2 		add	r10, r1, #3
 1777 04cc F9B097E1 		ldrsh	fp, [r7, r9]
 1778 04d0 0A005CE1 		cmp	ip, r10
 1779 04d4 B9B083E1 		strh	fp, [r3, r9]	@ movhi
 1780 04d8 140000DA 		ble	.L234
 1781 04dc 069082E2 		add	r9, r2, #6
 1782 04e0 04A081E2 		add	r10, r1, #4
 1783 04e4 0A005CE1 		cmp	ip, r10
 1784 04e8 F9A097E1 		ldrsh	r10, [r7, r9]
 1785 04ec 090080E0 		add	r0, r0, r9
 1786 04f0 BEA080E1 		strh	r10, [r0, lr]	@ movhi
 1787 04f4 0D0000DA 		ble	.L234
 1788 04f8 080082E2 		add	r0, r2, #8
 1789 04fc 05E081E2 		add	lr, r1, #5
 1790 0500 F09097E1 		ldrsh	r9, [r7, r0]
 1791 0504 0E005CE1 		cmp	ip, lr
 1792 0508 B09083E1 		strh	r9, [r3, r0]	@ movhi
 1793 050c 070000DA 		ble	.L234
 1794 0510 0A0082E2 		add	r0, r2, #10
 1795 0514 061081E2 		add	r1, r1, #6
 1796 0518 F0E097E1 		ldrsh	lr, [r7, r0]
 1797 051c 01005CE1 		cmp	ip, r1
 1798 0520 B0E083E1 		strh	lr, [r3, r0]	@ movhi
 1799 0524 0C2082C2 		addgt	r2, r2, #12
 1800 0528 F21097C1 		ldrshgt	r1, [r7, r2]
 1801 052c B21083C1 		strhgt	r1, [r3, r2]	@ movhi
 1802              	.L234:
 1803 0530 0C309DE5 		ldr	r3, [sp, #12]
 1804 0534 016086E2 		add	r6, r6, #1
 1805 0538 8C7087E0 		add	r7, r7, ip, lsl #1
 1806 053c 060053E1 		cmp	r3, r6
 1807 0540 A1FFFF1A 		bne	.L227
 1808 0544 D021CDE1 		ldrd	r2, [sp, #16]
 1809 0548 D801CDE1 		ldrd	r0, [sp, #24]
 1810 054c 012092E2 		adds	r2, r2, #1
 1811 0550 0030A3E2 		adc	r3, r3, #0
 1812 0554 000052E1 		cmp	r2, r0
 1813 0558 F021CDE1 		strd	r2, [sp, #16]
 1814 055c 0130D3E0 		sbcs	r3, r3, r1
 1815 0560 94FFFFBA 		blt	.L228
 1816              	.L248:
 1817 0564 0000A0E3 		mov	r0, #0
 1818 0568 3CD08DE2 		add	sp, sp, #60
 1819              		@ sp needed
 1820 056c F08FBDE8 		pop	{r4, r5, r6, r7, r8, r9, r10, fp, pc}
 1821              	.L229:
 1822 0570 10005CE3 		cmp	ip, #16
 1823 0574 0FB04CE2 		sub	fp, ip, #15
 1824 0578 2A0000DA 		ble	.L235
 1825 057c 2E308EE2 		add	r3, lr, #46
 1826 0580 2E2087E2 		add	r2, r7, #46
 1827 0584 033080E0 		add	r3, r0, r3
 1828              	.L236:
 1829 0588 FEA252E1 		ldrsh	r10, [r2, #-46]
 1830 058c 119081E2 		add	r9, r1, #17
 1831 0590 00F0D2F5 		pld	[r2]
 1832 0594 09005BE1 		cmp	fp, r9
 1833 0598 00F0D3F5 		pld	[r3]
 1834 059c 101081E2 		add	r1, r1, #16
 1835 05a0 BEA243E1 		strh	r10, [r3, #-46]	@ movhi
 1836 05a4 202082E2 		add	r2, r2, #32
 1837 05a8 FC9452E1 		ldrsh	r9, [r2, #-76]
 1838 05ac 203083E2 		add	r3, r3, #32
 1839 05b0 BC9443E1 		strh	r9, [r3, #-76]	@ movhi
 1840 05b4 FA9452E1 		ldrsh	r9, [r2, #-74]
 1841 05b8 BA9443E1 		strh	r9, [r3, #-74]	@ movhi
 1842 05bc F89452E1 		ldrsh	r9, [r2, #-72]
 1843 05c0 B89443E1 		strh	r9, [r3, #-72]	@ movhi
 1844 05c4 F69452E1 		ldrsh	r9, [r2, #-70]
 1845 05c8 B69443E1 		strh	r9, [r3, #-70]	@ movhi
 1846 05cc F49452E1 		ldrsh	r9, [r2, #-68]
 1847 05d0 B49443E1 		strh	r9, [r3, #-68]	@ movhi
 1848 05d4 F29452E1 		ldrsh	r9, [r2, #-66]
 1849 05d8 B29443E1 		strh	r9, [r3, #-66]	@ movhi
 1850 05dc F09452E1 		ldrsh	r9, [r2, #-64]
 1851 05e0 B09443E1 		strh	r9, [r3, #-64]	@ movhi
 1852 05e4 FE9352E1 		ldrsh	r9, [r2, #-62]
 1853 05e8 BE9343E1 		strh	r9, [r3, #-62]	@ movhi
 1854 05ec FC9352E1 		ldrsh	r9, [r2, #-60]
 1855 05f0 BC9343E1 		strh	r9, [r3, #-60]	@ movhi
 1856 05f4 FA9352E1 		ldrsh	r9, [r2, #-58]
 1857 05f8 BA9343E1 		strh	r9, [r3, #-58]	@ movhi
 1858 05fc F89352E1 		ldrsh	r9, [r2, #-56]
 1859 0600 B89343E1 		strh	r9, [r3, #-56]	@ movhi
 1860 0604 F69352E1 		ldrsh	r9, [r2, #-54]
 1861 0608 B69343E1 		strh	r9, [r3, #-54]	@ movhi
 1862 060c F49352E1 		ldrsh	r9, [r2, #-52]
 1863 0610 B49343E1 		strh	r9, [r3, #-52]	@ movhi
 1864 0614 F29352E1 		ldrsh	r9, [r2, #-50]
 1865 0618 B29343E1 		strh	r9, [r3, #-50]	@ movhi
 1866 061c F09352E1 		ldrsh	r9, [r2, #-48]
 1867 0620 B09343E1 		strh	r9, [r3, #-48]	@ movhi
 1868 0624 D7FFFFCA 		bgt	.L236
 1869              	.L235:
 1870 0628 8130A0E1 		lsl	r3, r1, #1
 1871 062c 03E08EE0 		add	lr, lr, r3
 1872 0630 033087E0 		add	r3, r7, r3
 1873 0634 0E0080E0 		add	r0, r0, lr
 1874              	.L238:
 1875 0638 011081E2 		add	r1, r1, #1
 1876 063c F220D3E0 		ldrsh	r2, [r3], #2
 1877 0640 01005CE1 		cmp	ip, r1
 1878 0644 B220C0E0 		strh	r2, [r0], #2	@ movhi
 1879 0648 FAFFFFCA 		bgt	.L238
 1880 064c B7FFFFEA 		b	.L234
 1881              	.L215:
 1882 0650 04309DE5 		ldr	r3, [sp, #4]
 1883 0654 01B08BE2 		add	fp, fp, #1
 1884 0658 0120A0E3 		mov	r2, #1
 1885 065c 03005BE1 		cmp	fp, r3
 1886 0660 0030A0E3 		mov	r3, #0
 1887 0664 110000AA 		bge	.L239
 1888 0668 F821CDE1 		strd	r2, [sp, #24]
 1889 066c 04309DE5 		ldr	r3, [sp, #4]
 1890 0670 E7FEFFEA 		b	.L240
 1891              	.L241:
 1892 0674 0030A0E3 		mov	r3, #0
 1893 0678 0120A0E3 		mov	r2, #1
 1894 067c 0310A0E1 		mov	r1, r3
 1895 0680 0030A0E3 		mov	r3, #0
 1896 0684 F821CDE1 		strd	r2, [sp, #24]
 1897 0688 CEFEFFEA 		b	.L216
 1898              	.L242:
 1899 068c 0120A0E3 		mov	r2, #1
 1900 0690 0030A0E3 		mov	r3, #0
 1901 0694 F022CDE1 		strd	r2, [sp, #32]
 1902 0698 3AFFFFEA 		b	.L219
 1903              	.L243:
 1904 069c 0120A0E3 		mov	r2, #1
 1905 06a0 0030A0E3 		mov	r3, #0
 1906 06a4 F022CDE1 		strd	r2, [sp, #32]
 1907 06a8 27FFFFEA 		b	.L220
 1908              	.L214:
 1909 06ac FEFFFFEB 		bl	abort
 1910              	.L239:
 1911 06b0 28109DE5 		ldr	r1, [sp, #40]
 1912 06b4 F022CDE1 		strd	r2, [sp, #32]
 1913 06b8 F821CDE1 		strd	r2, [sp, #24]
 1914 06bc 007091E5 		ldr	r7, [r1]
 1915 06c0 36FFFFEA 		b	.L223
 1916              		.fnend
 1918              		.section	.text._ZN6tflite3ops5micro5split9SplitImplIlEE12TfLiteStatusP13TfLiteContextP10TfLiteNode
 1919              		.align	2
 1920              		.weak	_ZN6tflite3ops5micro5split9SplitImplIlEE12TfLiteStatusP13TfLiteContextP10TfLiteNodePK16TfLit
 1921              		.syntax unified
 1922              		.arm
 1923              		.fpu neon
 1925              	_ZN6tflite3ops5micro5split9SplitImplIlEE12TfLiteStatusP13TfLiteContextP10TfLiteNodePK16TfLiteEvalTe
 1926              		.fnstart
 1927              	.LFB930:
 1928              		@ args = 0, pretend = 0, frame = 64
 1929              		@ frame_needed = 0, uses_anonymous_args = 0
 1930 0000 F04F2DE9 		push	{r4, r5, r6, r7, r8, r9, r10, fp, lr}
 1931              		.save {r4, r5, r6, r7, r8, r9, r10, fp, lr}
 1932 0004 0150A0E1 		mov	r5, r1
 1933 0008 03A0A0E1 		mov	r10, r3
 1934 000c 041091E5 		ldr	r1, [r1, #4]
 1935              		.pad #68
 1936 0010 44D04DE2 		sub	sp, sp, #68
 1937 0014 004050E2 		subs	r4, r0, #0
 1938 0018 043092E5 		ldr	r3, [r2, #4]
 1939 001c 30208DE5 		str	r2, [sp, #48]
 1940 0020 2C308DE5 		str	r3, [sp, #44]
 1941 0024 003091E5 		ldr	r3, [r1]
 1942 0028 0C308DE5 		str	r3, [sp, #12]
 1943 002c 8201000A 		beq	.L265
 1944 0030 543094E5 		ldr	r3, [r4, #84]
 1945 0034 041091E5 		ldr	r1, [r1, #4]
 1946 0038 33FF2FE1 		blx	r3
 1947 003c 2C309DE5 		ldr	r3, [sp, #44]
 1948 0040 00005AE3 		cmp	r10, #0
 1949 0044 04B090E5 		ldr	fp, [r0, #4]
 1950 0048 003093E5 		ldr	r3, [r3]
 1951 004c 28308DE5 		str	r3, [sp, #40]
 1952 0050 03A08AB0 		addlt	r10, r10, r3
 1953 0054 28209DE5 		ldr	r2, [sp, #40]
 1954 0058 02005AE1 		cmp	r10, r2
 1955 005c 760100AA 		bge	.L265
 1956 0060 00309BE5 		ldr	r3, [fp]
 1957 0064 030052E1 		cmp	r2, r3
 1958 0068 7301001A 		bne	.L265
 1959 006c 2C009DE5 		ldr	r0, [sp, #44]
 1960 0070 0A31A0E1 		lsl	r3, r10, #2
 1961 0074 03B08BE0 		add	fp, fp, r3
 1962 0078 033080E0 		add	r3, r0, r3
 1963 007c 04209BE5 		ldr	r2, [fp, #4]
 1964 0080 041093E5 		ldr	r1, [r3, #4]
 1965 0084 0C309DE5 		ldr	r3, [sp, #12]
 1966 0088 920303E0 		mul	r3, r2, r3
 1967 008c 010053E1 		cmp	r3, r1
 1968 0090 6901001A 		bne	.L265
 1969 0094 00005AE3 		cmp	r10, #0
 1970 0098 500100DA 		ble	.L266
 1971 009c 08005AE3 		cmp	r10, #8
 1972 00a0 570100DA 		ble	.L292
 1973 00a4 09304AE2 		sub	r3, r10, #9
 1974 00a8 0020A0E3 		mov	r2, #0
 1975 00ac 0730C3E3 		bic	r3, r3, #7
 1976 00b0 0280A0E1 		mov	r8, r2
 1977 00b4 083083E2 		add	r3, r3, #8
 1978 00b8 0120A0E3 		mov	r2, #1
 1979 00bc 10308DE5 		str	r3, [sp, #16]
 1980 00c0 0030A0E3 		mov	r3, #0
 1981 00c4 20B08DE5 		str	fp, [sp, #32]
 1982 00c8 A4E080E2 		add	lr, r0, #164
 1983 00cc 3CA08DE5 		str	r10, [sp, #60]
 1984 00d0 03B0A0E1 		mov	fp, r3
 1985 00d4 02A0A0E1 		mov	r10, r2
 1986 00d8 34408DE5 		str	r4, [sp, #52]
 1987 00dc 38508DE5 		str	r5, [sp, #56]
 1988              	.L268:
 1989 00e0 A0601EE5 		ldr	r6, [lr, #-160]
 1990 00e4 088088E2 		add	r8, r8, #8
 1991 00e8 9C401EE5 		ldr	r4, [lr, #-156]
 1992 00ec 10309DE5 		ldr	r3, [sp, #16]
 1993 00f0 94001EE5 		ldr	r0, [lr, #-148]
 1994 00f4 960B02E0 		mul	r2, r6, fp
 1995 00f8 C61FA0E1 		asr	r1, r6, #31
 1996 00fc C4BFA0E1 		asr	fp, r4, #31
 1997 0100 030058E1 		cmp	r8, r3
 1998 0104 966A87E0 		umull	r6, r7, r6, r10
 1999 0108 00F0DEF5 		pld	[lr]
 2000 010c 900B80EE 		vdup.32	d16, r0
 2001 0110 20E08EE2 		add	lr, lr, #32
 2002 0114 B0901EE5 		ldr	r9, [lr, #-176]
 2003 0118 B000E0F2 		vshr.s64	d16, d16, #32
 2004 011c 9A2122E0 		mla	r2, r10, r1, r2
 2005 0120 B8101EE5 		ldr	r1, [lr, #-184]
 2006 0124 ACC01EE5 		ldr	ip, [lr, #-172]
 2007 0128 000BCDED 		vstr.64	d16, [sp]	@ int
 2008 012c 077082E0 		add	r7, r2, r7
 2009 0130 942683E0 		umull	r2, r3, r4, r6
 2010 0134 940705E0 		mul	r5, r4, r7
 2011 0138 C17FA0E1 		asr	r7, r1, #31
 2012 013c 965B25E0 		mla	r5, r6, fp, r5
 2013 0140 033085E0 		add	r3, r5, r3
 2014 0144 914285E0 		umull	r4, r5, r1, r2
 2015 0148 91030AE0 		mul	r10, r1, r3
 2016 014c A8301EE5 		ldr	r3, [lr, #-168]
 2017 0150 92A72AE0 		mla	r10, r2, r7, r10
 2018 0154 04209DE5 		ldr	r2, [sp, #4]
 2019 0158 CC7FA0E1 		asr	r7, ip, #31
 2020 015c 05508AE0 		add	r5, r10, r5
 2021 0160 900506E0 		mul	r6, r0, r5
 2022 0164 C95FA0E1 		asr	r5, r9, #31
 2023 0168 900481E0 		umull	r0, r1, r0, r4
 2024 016c 946226E0 		mla	r6, r4, r2, r6
 2025 0170 A4201EE5 		ldr	r2, [lr, #-164]
 2026 0174 011086E0 		add	r1, r6, r1
 2027 0178 99010AE0 		mul	r10, r9, r1
 2028 017c 90A52AE0 		mla	r10, r0, r5, r10
 2029 0180 990081E0 		umull	r0, r1, r9, r0
 2030 0184 C35FA0E1 		asr	r5, r3, #31
 2031 0188 01108AE0 		add	r1, r10, r1
 2032 018c 9C0109E0 		mul	r9, ip, r1
 2033 0190 909729E0 		mla	r9, r0, r7, r9
 2034 0194 9C0081E0 		umull	r0, r1, ip, r0
 2035 0198 C27FA0E1 		asr	r7, r2, #31
 2036 019c 011089E0 		add	r1, r9, r1
 2037 01a0 93010CE0 		mul	ip, r3, r1
 2038 01a4 90C52CE0 		mla	ip, r0, r5, ip
 2039 01a8 930081E0 		umull	r0, r1, r3, r0
 2040 01ac 01108CE0 		add	r1, ip, r1
 2041 01b0 92A08BE0 		umull	r10, fp, r2, r0
 2042 01b4 920103E0 		mul	r3, r2, r1
 2043 01b8 903720E0 		mla	r0, r0, r7, r3
 2044 01bc 0BB080E0 		add	fp, r0, fp
 2045 01c0 C6FFFF1A 		bne	.L268
 2046 01c4 34408DE2 		add	r4, sp, #52
 2047 01c8 F8A1CDE1 		strd	r10, [sp, #24]
 2048 01cc 300494E8 		ldm	r4, {r4, r5, r10}
 2049 01d0 0810A0E1 		mov	r1, r8
 2050 01d4 20B09DE5 		ldr	fp, [sp, #32]
 2051              	.L267:
 2052 01d8 2C309DE5 		ldr	r3, [sp, #44]
 2053 01dc 011081E2 		add	r1, r1, #1
 2054 01e0 01C183E0 		add	ip, r3, r1, lsl #2
 2055 01e4 D821CDE1 		ldrd	r2, [sp, #24]
 2056 01e8 000000EA 		b	.L269
 2057              	.L309:
 2058 01ec 011081E2 		add	r1, r1, #1
 2059              	.L269:
 2060 01f0 04E09CE4 		ldr	lr, [ip], #4
 2061 01f4 01005AE1 		cmp	r10, r1
 2062 01f8 CE7FA0E1 		asr	r7, lr, #31
 2063 01fc 920700E0 		mul	r0, r2, r7
 2064 0200 9E0320E0 		mla	r0, lr, r3, r0
 2065 0204 922E83E0 		umull	r2, r3, r2, lr
 2066 0208 033080E0 		add	r3, r0, r3
 2067 020c F6FFFFCA 		bgt	.L309
 2068 0210 F821CDE1 		strd	r2, [sp, #24]
 2069 0214 01308AE2 		add	r3, r10, #1
 2070 0218 28209DE5 		ldr	r2, [sp, #40]
 2071 021c 03C0A0E1 		mov	ip, r3
 2072 0220 030052E1 		cmp	r2, r3
 2073 0224 FC0000DA 		ble	.L293
 2074              	.L291:
 2075 0228 28309DE5 		ldr	r3, [sp, #40]
 2076 022c 0310A0E1 		mov	r1, r3
 2077 0230 070043E2 		sub	r0, r3, #7
 2078 0234 1E0151E3 		cmp	r1, #-2147483641
 2079 0238 0C0051A1 		cmpge	r1, ip
 2080 023c 0C30A0E1 		mov	r3, ip
 2081 0240 01108CE2 		add	r1, ip, #1
 2082 0244 0130A0C3 		movgt	r3, #1
 2083 0248 0030A0D3 		movle	r3, #0
 2084 024c 20008DE5 		str	r0, [sp, #32]
 2085 0250 000051E1 		cmp	r1, r0
 2086 0254 0030A0A3 		movge	r3, #0
 2087 0258 013003B2 		andlt	r3, r3, #1
 2088 025c 000053E3 		cmp	r3, #0
 2089 0260 F100000A 		beq	.L294
 2090 0264 2C209DE5 		ldr	r2, [sp, #44]
 2091 0268 29A08CE2 		add	r10, ip, #41
 2092 026c 0100A0E3 		mov	r0, #1
 2093 0270 0010A0E3 		mov	r1, #0
 2094 0274 34B08DE5 		str	fp, [sp, #52]
 2095 0278 0CE0A0E1 		mov	lr, ip
 2096 027c 0080A0E1 		mov	r8, r0
 2097 0280 0190A0E1 		mov	r9, r1
 2098 0284 0AA182E0 		add	r10, r2, r10, lsl #2
 2099 0288 05B0A0E1 		mov	fp, r5
 2100 028c 38408DE5 		str	r4, [sp, #56]
 2101              	.L272:
 2102 0290 A0601AE5 		ldr	r6, [r10, #-160]
 2103 0294 09108EE2 		add	r1, lr, #9
 2104 0298 20309DE5 		ldr	r3, [sp, #32]
 2105 029c 08E08EE2 		add	lr, lr, #8
 2106 02a0 9C401AE5 		ldr	r4, [r10, #-156]
 2107 02a4 00F0DAF5 		pld	[r10]
 2108 02a8 20A08AE2 		add	r10, r10, #32
 2109 02ac 010053E1 		cmp	r3, r1
 2110 02b0 960903E0 		mul	r3, r6, r9
 2111 02b4 C61FA0E1 		asr	r1, r6, #31
 2112 02b8 B4001AE5 		ldr	r0, [r10, #-180]
 2113 02bc 966887E0 		umull	r6, r7, r6, r8
 2114 02c0 C49FA0E1 		asr	r9, r4, #31
 2115 02c4 ACC01AE5 		ldr	ip, [r10, #-172]
 2116 02c8 900B80EE 		vdup.32	d16, r0
 2117 02cc 983122E0 		mla	r2, r8, r1, r3
 2118 02d0 B0301AE5 		ldr	r3, [r10, #-176]
 2119 02d4 B8101AE5 		ldr	r1, [r10, #-184]
 2120 02d8 B000E0F2 		vshr.s64	d16, d16, #32
 2121 02dc 10308DE5 		str	r3, [sp, #16]
 2122 02e0 077082E0 		add	r7, r2, r7
 2123 02e4 942683E0 		umull	r2, r3, r4, r6
 2124 02e8 000BCDED 		vstr.64	d16, [sp]	@ int
 2125 02ec 940705E0 		mul	r5, r4, r7
 2126 02f0 C17FA0E1 		asr	r7, r1, #31
 2127 02f4 965925E0 		mla	r5, r6, r9, r5
 2128 02f8 033085E0 		add	r3, r5, r3
 2129 02fc 914285E0 		umull	r4, r5, r1, r2
 2130 0300 910309E0 		mul	r9, r1, r3
 2131 0304 A8301AE5 		ldr	r3, [r10, #-168]
 2132 0308 929729E0 		mla	r9, r2, r7, r9
 2133 030c 04209DE5 		ldr	r2, [sp, #4]
 2134 0310 10709DE5 		ldr	r7, [sp, #16]
 2135 0314 055089E0 		add	r5, r9, r5
 2136 0318 900506E0 		mul	r6, r0, r5
 2137 031c C75FA0E1 		asr	r5, r7, #31
 2138 0320 900481E0 		umull	r0, r1, r0, r4
 2139 0324 946226E0 		mla	r6, r4, r2, r6
 2140 0328 A4201AE5 		ldr	r2, [r10, #-164]
 2141 032c 011086E0 		add	r1, r6, r1
 2142 0330 970109E0 		mul	r9, r7, r1
 2143 0334 909529E0 		mla	r9, r0, r5, r9
 2144 0338 970081E0 		umull	r0, r1, r7, r0
 2145 033c CC7FA0E1 		asr	r7, ip, #31
 2146 0340 C35FA0E1 		asr	r5, r3, #31
 2147 0344 011089E0 		add	r1, r9, r1
 2148 0348 9C0108E0 		mul	r8, ip, r1
 2149 034c 908728E0 		mla	r8, r0, r7, r8
 2150 0350 9C0081E0 		umull	r0, r1, ip, r0
 2151 0354 C27FA0E1 		asr	r7, r2, #31
 2152 0358 011088E0 		add	r1, r8, r1
 2153 035c 93010CE0 		mul	ip, r3, r1
 2154 0360 90C52CE0 		mla	ip, r0, r5, ip
 2155 0364 934085E0 		umull	r4, r5, r3, r0
 2156 0368 05508CE0 		add	r5, ip, r5
 2157 036c 928489E0 		umull	r8, r9, r2, r4
 2158 0370 920501E0 		mul	r1, r2, r5
 2159 0374 941720E0 		mla	r0, r4, r7, r1
 2160 0378 099080E0 		add	r9, r0, r9
 2161 037c C3FFFFCA 		bgt	.L272
 2162 0380 0B50A0E1 		mov	r5, fp
 2163 0384 38409DE5 		ldr	r4, [sp, #56]
 2164 0388 34B09DE5 		ldr	fp, [sp, #52]
 2165 038c 01108EE2 		add	r1, lr, #1
 2166 0390 F082CDE1 		strd	r8, [sp, #32]
 2167              	.L271:
 2168 0394 2C309DE5 		ldr	r3, [sp, #44]
 2169 0398 28809DE5 		ldr	r8, [sp, #40]
 2170 039c 01C183E0 		add	ip, r3, r1, lsl #2
 2171 03a0 D022CDE1 		ldrd	r2, [sp, #32]
 2172 03a4 000000EA 		b	.L273
 2173              	.L310:
 2174 03a8 011081E2 		add	r1, r1, #1
 2175              	.L273:
 2176 03ac 04E09CE4 		ldr	lr, [ip], #4
 2177 03b0 010058E1 		cmp	r8, r1
 2178 03b4 CE7FA0E1 		asr	r7, lr, #31
 2179 03b8 920700E0 		mul	r0, r2, r7
 2180 03bc 9E0320E0 		mla	r0, lr, r3, r0
 2181 03c0 922E83E0 		umull	r2, r3, r2, lr
 2182 03c4 033080E0 		add	r3, r0, r3
 2183 03c8 F6FFFFCA 		bgt	.L310
 2184 03cc F022CDE1 		strd	r2, [sp, #32]
 2185              	.L270:
 2186 03d0 D821CDE1 		ldrd	r2, [sp, #24]
 2187 03d4 010052E3 		cmp	r2, #1
 2188 03d8 0030D3E2 		sbcs	r3, r3, #0
 2189 03dc 30309DE5 		ldr	r3, [sp, #48]
 2190 03e0 007093E5 		ldr	r7, [r3]
 2191 03e4 7A0000BA 		blt	.L299
 2192              	.L274:
 2193 03e8 0C309DE5 		ldr	r3, [sp, #12]
 2194 03ec 000053E3 		cmp	r3, #0
 2195 03f0 770000DA 		ble	.L299
 2196 03f4 1000C0F2 		vmov.i32	d16, #0  @ di
 2197 03f8 040BCDED 		vstr.64	d16, [sp, #16]	@ int
 2198              	.L279:
 2199 03fc 20309DE5 		ldr	r3, [sp, #32]
 2200 0400 0060A0E3 		mov	r6, #0
 2201 0404 10809DE5 		ldr	r8, [sp, #16]
 2202 0408 00308DE5 		str	r3, [sp]
 2203 040c 210000EA 		b	.L278
 2204              	.L312:
 2205 0410 043041E2 		sub	r3, r1, #4
 2206 0414 0790A0E1 		mov	r9, r7
 2207 0418 2331A0E1 		lsr	r3, r3, #2
 2208 041c 00E0A0E3 		mov	lr, #0
 2209 0420 013083E2 		add	r3, r3, #1
 2210 0424 0301A0E1 		lsl	r0, r3, #2
 2211              	.L282:
 2212 0428 01E08EE2 		add	lr, lr, #1
 2213 042c DF0A69F4 		vld1.64	{d16-d17}, [r9:64]
 2214 0430 0E0053E1 		cmp	r3, lr
 2215 0434 109089E2 		add	r9, r9, #16
 2216 0438 DF0A4CF4 		vst1.64	{d16-d17}, [ip:64]
 2217 043c 10C08CE2 		add	ip, ip, #16
 2218 0440 F8FFFF8A 		bhi	.L282
 2219 0444 000051E1 		cmp	r1, r0
 2220 0448 0D00000A 		beq	.L285
 2221 044c 013080E2 		add	r3, r0, #1
 2222 0450 00C197E7 		ldr	ip, [r7, r0, lsl #2]
 2223 0454 030051E1 		cmp	r1, r3
 2224 0458 0031A0E1 		lsl	r3, r0, #2
 2225 045c 00C182E7 		str	ip, [r2, r0, lsl #2]
 2226 0460 070000DA 		ble	.L285
 2227 0464 04C083E2 		add	ip, r3, #4
 2228 0468 020080E2 		add	r0, r0, #2
 2229 046c 0CE097E7 		ldr	lr, [r7, ip]
 2230 0470 000051E1 		cmp	r1, r0
 2231 0474 0CE082E7 		str	lr, [r2, ip]
 2232 0478 083083C2 		addgt	r3, r3, #8
 2233 047c 030097C7 		ldrgt	r0, [r7, r3]
 2234 0480 030082C7 		strgt	r0, [r2, r3]
 2235              	.L285:
 2236 0484 0C309DE5 		ldr	r3, [sp, #12]
 2237 0488 016086E2 		add	r6, r6, #1
 2238 048c 017187E0 		add	r7, r7, r1, lsl #2
 2239 0490 060053E1 		cmp	r3, r6
 2240 0494 4600000A 		beq	.L311
 2241              	.L278:
 2242 0498 043095E5 		ldr	r3, [r5, #4]
 2243 049c 0400A0E1 		mov	r0, r4
 2244 04a0 542094E5 		ldr	r2, [r4, #84]
 2245 04a4 063183E0 		add	r3, r3, r6, lsl #2
 2246 04a8 041093E5 		ldr	r1, [r3, #4]
 2247 04ac 32FF2FE1 		blx	r2
 2248 04b0 00309DE5 		ldr	r3, [sp]
 2249 04b4 000050E3 		cmp	r0, #0
 2250 04b8 04109BE5 		ldr	r1, [fp, #4]
 2251 04bc 00009015 		ldrne	r0, [r0]
 2252 04c0 910301E0 		mul	r1, r1, r3
 2253 04c4 980103E0 		mul	r3, r8, r1
 2254 04c8 000051E3 		cmp	r1, #0
 2255 04cc 0391A0E1 		lsl	r9, r3, #2
 2256 04d0 EBFFFFDA 		ble	.L285
 2257 04d4 043083E2 		add	r3, r3, #4
 2258 04d8 092080E0 		add	r2, r0, r9
 2259 04dc 03C180E0 		add	ip, r0, r3, lsl #2
 2260 04e0 103087E2 		add	r3, r7, #16
 2261 04e4 020053E1 		cmp	r3, r2
 2262 04e8 0030A083 		movhi	r3, #0
 2263 04ec 0130A093 		movls	r3, #1
 2264 04f0 0C0057E1 		cmp	r7, ip
 2265 04f4 01308323 		orrcs	r3, r3, #1
 2266 04f8 02C087E1 		orr	ip, r7, r2
 2267 04fc 090051E3 		cmp	r1, #9
 2268 0500 0030A093 		movls	r3, #0
 2269 0504 01300382 		andhi	r3, r3, #1
 2270 0508 0F001CE3 		tst	ip, #15
 2271 050c 0030A013 		movne	r3, #0
 2272 0510 01300302 		andeq	r3, r3, #1
 2273 0514 000053E3 		cmp	r3, #0
 2274 0518 02C0A0E1 		mov	ip, r2
 2275 051c BBFFFF1A 		bne	.L312
 2276 0520 080051E3 		cmp	r1, #8
 2277 0524 07A041E2 		sub	r10, r1, #7
 2278 0528 170000DA 		ble	.L286
 2279 052c 5CC087E2 		add	ip, r7, #92
 2280              	.L287:
 2281 0530 09E083E2 		add	lr, r3, #9
 2282 0534 00F0DCF5 		pld	[ip]
 2283 0538 0E005AE1 		cmp	r10, lr
 2284 053c 5CE01CE5 		ldr	lr, [ip, #-92]
 2285 0540 083083E2 		add	r3, r3, #8
 2286 0544 20C08CE2 		add	ip, ip, #32
 2287 0548 202082E2 		add	r2, r2, #32
 2288 054c 20E002E5 		str	lr, [r2, #-32]
 2289 0550 78E01CE5 		ldr	lr, [ip, #-120]
 2290 0554 1CE002E5 		str	lr, [r2, #-28]
 2291 0558 74E01CE5 		ldr	lr, [ip, #-116]
 2292 055c 18E002E5 		str	lr, [r2, #-24]
 2293 0560 70E01CE5 		ldr	lr, [ip, #-112]
 2294 0564 14E002E5 		str	lr, [r2, #-20]
 2295 0568 6CE01CE5 		ldr	lr, [ip, #-108]
 2296 056c 10E002E5 		str	lr, [r2, #-16]
 2297 0570 68E01CE5 		ldr	lr, [ip, #-104]
 2298 0574 0CE002E5 		str	lr, [r2, #-12]
 2299 0578 64E01CE5 		ldr	lr, [ip, #-100]
 2300 057c 08E002E5 		str	lr, [r2, #-8]
 2301 0580 60E01CE5 		ldr	lr, [ip, #-96]
 2302 0584 04E002E5 		str	lr, [r2, #-4]
 2303 0588 E8FFFFCA 		bgt	.L287
 2304              	.L286:
 2305 058c 0321A0E1 		lsl	r2, r3, #2
 2306 0590 029089E0 		add	r9, r9, r2
 2307 0594 022087E0 		add	r2, r7, r2
 2308 0598 090080E0 		add	r0, r0, r9
 2309              	.L289:
 2310 059c 013083E2 		add	r3, r3, #1
 2311 05a0 04C092E4 		ldr	ip, [r2], #4
 2312 05a4 030051E1 		cmp	r1, r3
 2313 05a8 04C080E4 		str	ip, [r0], #4
 2314 05ac FAFFFFCA 		bgt	.L289
 2315 05b0 B3FFFFEA 		b	.L285
 2316              	.L311:
 2317 05b4 D021CDE1 		ldrd	r2, [sp, #16]
 2318 05b8 D801CDE1 		ldrd	r0, [sp, #24]
 2319 05bc 012092E2 		adds	r2, r2, #1
 2320 05c0 0030A3E2 		adc	r3, r3, #0
 2321 05c4 000052E1 		cmp	r2, r0
 2322 05c8 F021CDE1 		strd	r2, [sp, #16]
 2323 05cc 0130D3E0 		sbcs	r3, r3, r1
 2324 05d0 89FFFFBA 		blt	.L279
 2325              	.L299:
 2326 05d4 0000A0E3 		mov	r0, #0
 2327 05d8 44D08DE2 		add	sp, sp, #68
 2328              		@ sp needed
 2329 05dc F08FBDE8 		pop	{r4, r5, r6, r7, r8, r9, r10, fp, pc}
 2330              	.L266:
 2331 05e0 28209DE5 		ldr	r2, [sp, #40]
 2332 05e4 01308AE2 		add	r3, r10, #1
 2333 05e8 03C0A0E1 		mov	ip, r3
 2334 05ec 020053E1 		cmp	r3, r2
 2335 05f0 0120A0E3 		mov	r2, #1
 2336 05f4 0030A0E3 		mov	r3, #0
 2337 05f8 100000AA 		bge	.L290
 2338 05fc F821CDE1 		strd	r2, [sp, #24]
 2339 0600 08FFFFEA 		b	.L291
 2340              	.L292:
 2341 0604 0030A0E3 		mov	r3, #0
 2342 0608 0120A0E3 		mov	r2, #1
 2343 060c 0310A0E1 		mov	r1, r3
 2344 0610 0030A0E3 		mov	r3, #0
 2345 0614 F821CDE1 		strd	r2, [sp, #24]
 2346 0618 EEFEFFEA 		b	.L267
 2347              	.L293:
 2348 061c 0120A0E3 		mov	r2, #1
 2349 0620 0030A0E3 		mov	r3, #0
 2350 0624 F022CDE1 		strd	r2, [sp, #32]
 2351 0628 68FFFFEA 		b	.L270
 2352              	.L294:
 2353 062c 0120A0E3 		mov	r2, #1
 2354 0630 0030A0E3 		mov	r3, #0
 2355 0634 F022CDE1 		strd	r2, [sp, #32]
 2356 0638 55FFFFEA 		b	.L271
 2357              	.L265:
 2358 063c FEFFFFEB 		bl	abort
 2359              	.L290:
 2360 0640 30109DE5 		ldr	r1, [sp, #48]
 2361 0644 F022CDE1 		strd	r2, [sp, #32]
 2362 0648 F821CDE1 		strd	r2, [sp, #24]
 2363 064c 007091E5 		ldr	r7, [r1]
 2364 0650 64FFFFEA 		b	.L274
 2365              		.fnend
 2367              		.section	.text._ZN6tflite3ops5micro5split4EvalEP13TfLiteContextP10TfLiteNode,"ax",%progbits
 2368              		.align	2
 2369              		.global	_ZN6tflite3ops5micro5split4EvalEP13TfLiteContextP10TfLiteNode
 2370              		.syntax unified
 2371              		.arm
 2372              		.fpu neon
 2374              	_ZN6tflite3ops5micro5split4EvalEP13TfLiteContextP10TfLiteNode:
 2375              		.fnstart
 2376              	.LFB917:
 2377              		@ args = 0, pretend = 0, frame = 0
 2378              		@ frame_needed = 0, uses_anonymous_args = 0
 2379 0000 70402DE9 		push	{r4, r5, r6, lr}
 2380              		.save {r4, r5, r6, lr}
 2381 0004 004050E2 		subs	r4, r0, #0
 2382 0008 4100000A 		beq	.L315
 2383 000c 000051E3 		cmp	r1, #0
 2384 0010 0150A0E1 		mov	r5, r1
 2385 0014 3E00000A 		beq	.L315
 2386 0018 002091E5 		ldr	r2, [r1]
 2387 001c 543094E5 		ldr	r3, [r4, #84]
 2388 0020 041092E5 		ldr	r1, [r2, #4]
 2389 0024 33FF2FE1 		blx	r3
 2390 0028 002095E5 		ldr	r2, [r5]
 2391 002c 0060A0E1 		mov	r6, r0
 2392 0030 543094E5 		ldr	r3, [r4, #84]
 2393 0034 0400A0E1 		mov	r0, r4
 2394 0038 081092E5 		ldr	r1, [r2, #8]
 2395 003c 33FF2FE1 		blx	r3
 2396 0040 000056E3 		cmp	r6, #0
 2397 0044 3200000A 		beq	.L315
 2398 0048 003096E5 		ldr	r3, [r6]
 2399 004c 042090E5 		ldr	r2, [r0, #4]
 2400 0050 003093E5 		ldr	r3, [r3]
 2401 0054 002092E5 		ldr	r2, [r2]
 2402 0058 000053E3 		cmp	r3, #0
 2403 005c 0F0000BA 		blt	.L335
 2404              	.L317:
 2405 0060 030052E1 		cmp	r2, r3
 2406 0064 0F0000DA 		ble	.L327
 2407 0068 0820D0E5 		ldrb	r2, [r0, #8]	@ zero_extendqisi2
 2408 006c 012042E2 		sub	r2, r2, #1
 2409 0070 080052E3 		cmp	r2, #8
 2410 0074 02F19F97 		ldrls	pc, [pc, r2, asl #2]
 2411 0078 0A0000EA 		b	.L327
 2412              	.L320:
 2413 007c 00010000 		.word	.L319
 2414 0080 EC000000 		.word	.L321
 2415 0084 D8000000 		.word	.L322
 2416 0088 A8000000 		.word	.L327
 2417 008c A8000000 		.word	.L327
 2418 0090 A8000000 		.word	.L327
 2419 0094 C4000000 		.word	.L323
 2420 0098 A8000000 		.word	.L327
 2421 009c B0000000 		.word	.L324
 2422              	.L335:
 2423 00a0 023093E0 		adds	r3, r3, r2
 2424 00a4 EDFFFF5A 		bpl	.L317
 2425              	.L327:
 2426 00a8 0100A0E3 		mov	r0, #1
 2427 00ac 7080BDE8 		pop	{r4, r5, r6, pc}
 2428              	.L324:
 2429 00b0 0020A0E1 		mov	r2, r0
 2430 00b4 0510A0E1 		mov	r1, r5
 2431 00b8 0400A0E1 		mov	r0, r4
 2432 00bc FEFFFFEB 		bl	_ZN6tflite3ops5micro5split9SplitImplIaEE12TfLiteStatusP13TfLiteContextP10TfLiteNodePK16TfLiteEv
 2433 00c0 7080BDE8 		pop	{r4, r5, r6, pc}
 2434              	.L323:
 2435 00c4 0020A0E1 		mov	r2, r0
 2436 00c8 0510A0E1 		mov	r1, r5
 2437 00cc 0400A0E1 		mov	r0, r4
 2438 00d0 FEFFFFEB 		bl	_ZN6tflite3ops5micro5split9SplitImplIsEE12TfLiteStatusP13TfLiteContextP10TfLiteNodePK16TfLiteEv
 2439 00d4 7080BDE8 		pop	{r4, r5, r6, pc}
 2440              	.L322:
 2441 00d8 0020A0E1 		mov	r2, r0
 2442 00dc 0510A0E1 		mov	r1, r5
 2443 00e0 0400A0E1 		mov	r0, r4
 2444 00e4 FEFFFFEB 		bl	_ZN6tflite3ops5micro5split9SplitImplIhEE12TfLiteStatusP13TfLiteContextP10TfLiteNodePK16TfLiteEv
 2445 00e8 7080BDE8 		pop	{r4, r5, r6, pc}
 2446              	.L321:
 2447 00ec 0020A0E1 		mov	r2, r0
 2448 00f0 0510A0E1 		mov	r1, r5
 2449 00f4 0400A0E1 		mov	r0, r4
 2450 00f8 FEFFFFEB 		bl	_ZN6tflite3ops5micro5split9SplitImplIlEE12TfLiteStatusP13TfLiteContextP10TfLiteNodePK16TfLiteEv
 2451 00fc 7080BDE8 		pop	{r4, r5, r6, pc}
 2452              	.L319:
 2453 0100 0020A0E1 		mov	r2, r0
 2454 0104 0510A0E1 		mov	r1, r5
 2455 0108 0400A0E1 		mov	r0, r4
 2456 010c FEFFFFEB 		bl	_ZN6tflite3ops5micro5split9SplitImplIfEE12TfLiteStatusP13TfLiteContextP10TfLiteNodePK16TfLiteEv
 2457 0110 7080BDE8 		pop	{r4, r5, r6, pc}
 2458              	.L315:
 2459 0114 FEFFFFEB 		bl	abort
 2460              		.fnend
 2462              		.section	.rodata
 2463              		.align	2
 2464              		.set	.LANCHOR0,. + 0
 2465              	.LC0:
 2466 0000 00000000 		.word	0
 2467 0004 00000000 		.word	0
 2468 0008 00000000 		.word	_ZN6tflite3ops5micro5split7PrepareEP13TfLiteContextP10TfLiteNode
 2469 000c 00000000 		.word	_ZN6tflite3ops5micro5split4EvalEP13TfLiteContextP10TfLiteNode
 2470 0010 00000000 		.word	0
 2471 0014 00000000 		.word	0
 2472 0018 00000000 		.word	0
 2473 001c 00000000 		.word	0
 2474              		.ident	"GCC: (GNU Tools for ARM Embedded Processors 6-2017-q2-update) 6.3.1 20170620 (release) [AR