   1              		.cpu cortex-a9
   2              		.eabi_attribute 28, 1
   3              		.eabi_attribute 20, 1
   4              		.eabi_attribute 21, 1
   5              		.eabi_attribute 23, 3
   6              		.eabi_attribute 24, 1
   7              		.eabi_attribute 25, 1
   8              		.eabi_attribute 26, 1
   9              		.eabi_attribute 30, 2
  10              		.eabi_attribute 34, 0
  11              		.eabi_attribute 18, 4
  12              		.file	"strided_slice.cc"
  13              		.section	.text._ZN6tflite3ops5micro13strided_slice4InitEP13TfLiteContextPKcj,"ax",%progbits
  14              		.align	2
  15              		.global	_ZN6tflite3ops5micro13strided_slice4InitEP13TfLiteContextPKcj
  16              		.syntax unified
  17              		.arm
  18              		.fpu neon
  20              	_ZN6tflite3ops5micro13strided_slice4InitEP13TfLiteContextPKcj:
  21              		.fnstart
  22              	.LFB4519:
  23              		@ args = 0, pretend = 0, frame = 0
  24              		@ frame_needed = 0, uses_anonymous_args = 0
  25 0000 383090E5 		ldr	r3, [r0, #56]
  26 0004 000053E3 		cmp	r3, #0
  27 0008 0100000A 		beq	.L7
  28 000c 5410A0E3 		mov	r1, #84
  29 0010 13FF2FE1 		bx	r3
  30              	.L7:
  31 0014 10402DE9 		push	{r4, lr}
  32              		.save {r4, lr}
  33 0018 FEFFFFEB 		bl	abort
  34              		.fnend
  36              		.section	.text._ZN6tflite3ops5micro13strided_slice4EvalEP13TfLiteContextP10TfLiteNode,"ax",%progbi
  37              		.align	2
  38              		.global	_ZN6tflite3ops5micro13strided_slice4EvalEP13TfLiteContextP10TfLiteNode
  39              		.syntax unified
  40              		.arm
  41              		.fpu neon
  43              	_ZN6tflite3ops5micro13strided_slice4EvalEP13TfLiteContextP10TfLiteNode:
  44              		.fnstart
  45              	.LFB4521:
  46              		@ args = 0, pretend = 0, frame = 328
  47              		@ frame_needed = 0, uses_anonymous_args = 0
  48 0000 F04F2DE9 		push	{r4, r5, r6, r7, r8, r9, r10, fp, lr}
  49              		.save {r4, r5, r6, r7, r8, r9, r10, fp, lr}
  50              		.pad #332
  51 0004 53DF4DE2 		sub	sp, sp, #332
  52 0008 104091E5 		ldr	r4, [r1, #16]
  53 000c 000054E3 		cmp	r4, #0
  54 0010 1800000A 		beq	.L10
  55 0014 000050E3 		cmp	r0, #0
  56 0018 0060A0E1 		mov	r6, r0
  57 001c 1500000A 		beq	.L10
  58 0020 002091E5 		ldr	r2, [r1]
  59 0024 0170A0E1 		mov	r7, r1
  60 0028 543090E5 		ldr	r3, [r0, #84]
  61 002c 041092E5 		ldr	r1, [r2, #4]
  62              	.LEHB0:
  63 0030 33FF2FE1 		blx	r3
  64 0034 042097E5 		ldr	r2, [r7, #4]
  65 0038 0050A0E1 		mov	r5, r0
  66 003c 543096E5 		ldr	r3, [r6, #84]
  67 0040 0600A0E1 		mov	r0, r6
  68 0044 041092E5 		ldr	r1, [r2, #4]
  69 0048 33FF2FE1 		blx	r3
  70 004c 0830D0E5 		ldrb	r3, [r0, #8]	@ zero_extendqisi2
  71 0050 0060A0E1 		mov	r6, r0
  72 0054 030053E3 		cmp	r3, #3
  73 0058 6700000A 		beq	.L12
  74 005c 090053E3 		cmp	r3, #9
  75 0060 3500000A 		beq	.L13
  76 0064 010053E3 		cmp	r3, #1
  77 0068 0100A013 		movne	r0, #1
  78 006c 0200000A 		beq	.L1049
  79              	.L907:
  80 0070 53DF8DE2 		add	sp, sp, #332
  81              		@ sp needed
  82 0074 F08FBDE8 		pop	{r4, r5, r6, r7, r8, r9, r10, fp, pc}
  83              	.L10:
  84 0078 FEFFFFEB 		bl	abort
  85              	.L1049:
  86 007c 0510A0E1 		mov	r1, r5
  87 0080 94008DE2 		add	r0, sp, #148
  88 0084 FEFFFFEB 		bl	_ZN6tflite5micro14GetTensorShapeEPK16TfLiteEvalTensor
  89              	.LEHE0:
  90 0088 000055E3 		cmp	r5, #0
  91 008c D500000A 		beq	.L1050
  92 0090 003095E5 		ldr	r3, [r5]
  93 0094 0610A0E1 		mov	r1, r6
  94 0098 AC008DE2 		add	r0, sp, #172
  95 009c 30308DE5 		str	r3, [sp, #48]
  96              	.LEHB1:
  97 00a0 FEFFFFEB 		bl	_ZN6tflite5micro14GetTensorShapeEPK16TfLiteEvalTensor
  98              	.LEHE1:
  99 00a4 5420A0E3 		mov	r2, #84
 100 00a8 0410A0E1 		mov	r1, r4
 101 00ac F4008DE2 		add	r0, sp, #244
 102 00b0 00B096E5 		ldr	fp, [r6]
 103 00b4 FEFFFFEB 		bl	memcpy
 104 00b8 94209DE5 		ldr	r2, [sp, #148]
 105 00bc D070D4E1 		ldrsb	r7, [r4]
 106 00c0 D851D4E1 		ldrsb	r5, [r4, #24]
 107 00c4 050052E3 		cmp	r2, #5
 108 00c8 D093D4E1 		ldrsb	r9, [r4, #48]
 109 00cc F864D4E1 		ldrsh	r6, [r4, #72]
 110 00d0 FC84D4E1 		ldrsh	r8, [r4, #76]
 111 00d4 F045D4E1 		ldrsh	r4, [r4, #80]
 112 00d8 C00000CA 		bgt	.L1051
 113 00dc ACA09DE5 		ldr	r10, [sp, #172]
 114 00e0 05005AE3 		cmp	r10, #5
 115 00e4 BC0000CA 		bgt	.L1052
 116 00e8 050072E2 		rsbs	r0, r2, #5
 117 00ec 0530A0E3 		mov	r3, #5
 118 00f0 C4308DE5 		str	r3, [sp, #196]
 119 00f4 9E00000A 		beq	.L21
 120 00f8 010050E3 		cmp	r0, #1
 121 00fc 0130A0E3 		mov	r3, #1
 122 0100 C8308DE5 		str	r3, [sp, #200]
 123 0104 9A00000A 		beq	.L21
 124 0108 020050E3 		cmp	r0, #2
 125 010c CC308DE5 		str	r3, [sp, #204]
 126 0110 9700000A 		beq	.L21
 127 0114 030050E3 		cmp	r0, #3
 128 0118 D0308DE5 		str	r3, [sp, #208]
 129 011c 9400000A 		beq	.L21
 130 0120 040050E3 		cmp	r0, #4
 131 0124 D4308DE5 		str	r3, [sp, #212]
 132 0128 9100000A 		beq	.L21
 133 012c 050050E3 		cmp	r0, #5
 134 0130 D8308DE5 		str	r3, [sp, #216]
 135 0134 8E00000A 		beq	.L21
 136              	.LEHB2:
 137 0138 FEFFFFEB 		bl	abort
 138              	.LEHE2:
 139              	.L13:
 140 013c 0510A0E1 		mov	r1, r5
 141 0140 94008DE2 		add	r0, sp, #148
 142              	.LEHB3:
 143 0144 FEFFFFEB 		bl	_ZN6tflite5micro14GetTensorShapeEPK16TfLiteEvalTensor
 144              	.LEHE3:
 145 0148 000055E3 		cmp	r5, #0
 146 014c 8600000A 		beq	.L1053
 147 0150 0610A0E1 		mov	r1, r6
 148 0154 AC008DE2 		add	r0, sp, #172
 149 0158 00A095E5 		ldr	r10, [r5]
 150              	.LEHB4:
 151 015c FEFFFFEB 		bl	_ZN6tflite5micro14GetTensorShapeEPK16TfLiteEvalTensor
 152              	.LEHE4:
 153 0160 5420A0E3 		mov	r2, #84
 154 0164 0410A0E1 		mov	r1, r4
 155 0168 F4008DE2 		add	r0, sp, #244
 156 016c 007096E5 		ldr	r7, [r6]
 157 0170 FEFFFFEB 		bl	memcpy
 158 0174 94209DE5 		ldr	r2, [sp, #148]
 159 0178 FC34D4E1 		ldrsh	r3, [r4, #76]
 160 017c D060D4E1 		ldrsb	r6, [r4]
 161 0180 050052E3 		cmp	r2, #5
 162 0184 D851D4E1 		ldrsb	r5, [r4, #24]
 163 0188 D093D4E1 		ldrsb	r9, [r4, #48]
 164 018c F8B4D4E1 		ldrsh	fp, [r4, #72]
 165 0190 08308DE5 		str	r3, [sp, #8]
 166 0194 F045D4E1 		ldrsh	r4, [r4, #80]
 167 0198 710000CA 		bgt	.L1054
 168 019c AC809DE5 		ldr	r8, [sp, #172]
 169 01a0 050058E3 		cmp	r8, #5
 170 01a4 6D0000CA 		bgt	.L1055
 171 01a8 050072E2 		rsbs	r0, r2, #5
 172 01ac 0530A0E3 		mov	r3, #5
 173 01b0 C4308DE5 		str	r3, [sp, #196]
 174 01b4 4F00000A 		beq	.L339
 175 01b8 010050E3 		cmp	r0, #1
 176 01bc 0130A0E3 		mov	r3, #1
 177 01c0 C8308DE5 		str	r3, [sp, #200]
 178 01c4 4B00000A 		beq	.L339
 179 01c8 020050E3 		cmp	r0, #2
 180 01cc CC308DE5 		str	r3, [sp, #204]
 181 01d0 4800000A 		beq	.L339
 182 01d4 030050E3 		cmp	r0, #3
 183 01d8 D0308DE5 		str	r3, [sp, #208]
 184 01dc 4500000A 		beq	.L339
 185 01e0 040050E3 		cmp	r0, #4
 186 01e4 D4308DE5 		str	r3, [sp, #212]
 187 01e8 4200000A 		beq	.L339
 188 01ec 050050E3 		cmp	r0, #5
 189 01f0 D8308DE5 		str	r3, [sp, #216]
 190 01f4 3F00000A 		beq	.L339
 191              	.LEHB5:
 192 01f8 FEFFFFEB 		bl	abort
 193              	.LEHE5:
 194              	.L12:
 195 01fc 0510A0E1 		mov	r1, r5
 196 0200 94008DE2 		add	r0, sp, #148
 197              	.LEHB6:
 198 0204 FEFFFFEB 		bl	_ZN6tflite5micro14GetTensorShapeEPK16TfLiteEvalTensor
 199              	.LEHE6:
 200 0208 000055E3 		cmp	r5, #0
 201 020c 2A03000A 		beq	.L1056
 202 0210 0610A0E1 		mov	r1, r6
 203 0214 AC008DE2 		add	r0, sp, #172
 204 0218 00A095E5 		ldr	r10, [r5]
 205              	.LEHB7:
 206 021c FEFFFFEB 		bl	_ZN6tflite5micro14GetTensorShapeEPK16TfLiteEvalTensor
 207              	.LEHE7:
 208 0220 5420A0E3 		mov	r2, #84
 209 0224 0410A0E1 		mov	r1, r4
 210 0228 F4008DE2 		add	r0, sp, #244
 211 022c 007096E5 		ldr	r7, [r6]
 212 0230 FEFFFFEB 		bl	memcpy
 213 0234 94209DE5 		ldr	r2, [sp, #148]
 214 0238 F834D4E1 		ldrsh	r3, [r4, #72]
 215 023c D060D4E1 		ldrsb	r6, [r4]
 216 0240 050052E3 		cmp	r2, #5
 217 0244 D851D4E1 		ldrsb	r5, [r4, #24]
 218 0248 D093D4E1 		ldrsb	r9, [r4, #48]
 219 024c FCB4D4E1 		ldrsh	fp, [r4, #76]
 220 0250 08308DE5 		str	r3, [sp, #8]
 221 0254 F045D4E1 		ldrsh	r4, [r4, #80]
 222 0258 150300CA 		bgt	.L1057
 223 025c AC809DE5 		ldr	r8, [sp, #172]
 224 0260 050058E3 		cmp	r8, #5
 225 0264 110300CA 		bgt	.L1058
 226 0268 050072E2 		rsbs	r0, r2, #5
 227 026c 0530A0E3 		mov	r3, #5
 228 0270 C4308DE5 		str	r3, [sp, #196]
 229 0274 1203000A 		beq	.L180
 230 0278 010050E3 		cmp	r0, #1
 231 027c 0130A0E3 		mov	r3, #1
 232 0280 C8308DE5 		str	r3, [sp, #200]
 233 0284 0E03000A 		beq	.L180
 234 0288 020050E3 		cmp	r0, #2
 235 028c CC308DE5 		str	r3, [sp, #204]
 236 0290 0B03000A 		beq	.L180
 237 0294 030050E3 		cmp	r0, #3
 238 0298 D0308DE5 		str	r3, [sp, #208]
 239 029c 0803000A 		beq	.L180
 240 02a0 040050E3 		cmp	r0, #4
 241 02a4 D4308DE5 		str	r3, [sp, #212]
 242 02a8 0503000A 		beq	.L180
 243 02ac 050050E3 		cmp	r0, #5
 244 02b0 D8308DE5 		str	r3, [sp, #216]
 245 02b4 0203000A 		beq	.L180
 246              	.LEHB8:
 247 02b8 FEFFFFEB 		bl	abort
 248              	.LEHE8:
 249              	.L631:
 250              	.L488:
 251 02bc AC309DE5 		ldr	r3, [sp, #172]
 252 02c0 050053E3 		cmp	r3, #5
 253 02c4 030000DA 		ble	.L496
 254 02c8 B0009DE5 		ldr	r0, [sp, #176]
 255 02cc 000050E3 		cmp	r0, #0
 256 02d0 0000000A 		beq	.L496
 257 02d4 FEFFFFEB 		bl	_ZdaPv
 258              	.L496:
 259 02d8 94309DE5 		ldr	r3, [sp, #148]
 260 02dc 050053E3 		cmp	r3, #5
 261 02e0 030000DA 		ble	.L497
 262 02e4 98009DE5 		ldr	r0, [sp, #152]
 263 02e8 000050E3 		cmp	r0, #0
 264 02ec 0000000A 		beq	.L497
 265 02f0 FEFFFFEB 		bl	_ZdaPv
 266              	.L497:
 267              	.LEHB9:
 268 02f4 FEFFFFEB 		bl	__cxa_end_cleanup
 269              	.LEHE9:
 270              	.L339:
 271 02f8 C8308DE2 		add	r3, sp, #200
 272 02fc 0221A0E1 		lsl	r2, r2, #2
 273 0300 000183E0 		add	r0, r3, r0, lsl #2
 274 0304 98108DE2 		add	r1, sp, #152
 275 0308 FEFFFFEB 		bl	memcpy
 276 030c 050078E2 		rsbs	r0, r8, #5
 277 0310 0530A0E3 		mov	r3, #5
 278 0314 DC308DE5 		str	r3, [sp, #220]
 279 0318 0403000A 		beq	.L337
 280 031c 010050E3 		cmp	r0, #1
 281 0320 0130A0E3 		mov	r3, #1
 282 0324 E0308DE5 		str	r3, [sp, #224]
 283 0328 0003000A 		beq	.L337
 284 032c 020050E3 		cmp	r0, #2
 285 0330 E4308DE5 		str	r3, [sp, #228]
 286 0334 FD02000A 		beq	.L337
 287 0338 030050E3 		cmp	r0, #3
 288 033c E8308DE5 		str	r3, [sp, #232]
 289 0340 FA02000A 		beq	.L337
 290 0344 040050E3 		cmp	r0, #4
 291 0348 EC308DE5 		str	r3, [sp, #236]
 292 034c F702000A 		beq	.L337
 293 0350 050050E3 		cmp	r0, #5
 294 0354 F0308DE5 		str	r3, [sp, #240]
 295 0358 F402000A 		beq	.L337
 296              	.LEHB10:
 297 035c FEFFFFEB 		bl	abort
 298              	.LEHE10:
 299              	.L1055:
 300              	.LEHB11:
 301 0360 FEFFFFEB 		bl	abort
 302              	.L1054:
 303 0364 FEFFFFEB 		bl	abort
 304              	.LEHE11:
 305              	.L624:
 306 0368 DAFFFFEA 		b	.L496
 307              	.L1053:
 308              	.LEHB12:
 309 036c FEFFFFEB 		bl	abort
 310              	.LEHE12:
 311              	.L625:
 312 0370 D1FFFFEA 		b	.L488
 313              	.L21:
 314 0374 C8308DE2 		add	r3, sp, #200
 315 0378 0221A0E1 		lsl	r2, r2, #2
 316 037c 000183E0 		add	r0, r3, r0, lsl #2
 317 0380 98108DE2 		add	r1, sp, #152
 318 0384 FEFFFFEB 		bl	memcpy
 319 0388 05007AE2 		rsbs	r0, r10, #5
 320 038c 0530A0E3 		mov	r3, #5
 321 0390 DC308DE5 		str	r3, [sp, #220]
 322 0394 1C00000A 		beq	.L19
 323 0398 010050E3 		cmp	r0, #1
 324 039c 0130A0E3 		mov	r3, #1
 325 03a0 E0308DE5 		str	r3, [sp, #224]
 326 03a4 1800000A 		beq	.L19
 327 03a8 020050E3 		cmp	r0, #2
 328 03ac E4308DE5 		str	r3, [sp, #228]
 329 03b0 1500000A 		beq	.L19
 330 03b4 030050E3 		cmp	r0, #3
 331 03b8 E8308DE5 		str	r3, [sp, #232]
 332 03bc 1200000A 		beq	.L19
 333 03c0 040050E3 		cmp	r0, #4
 334 03c4 EC308DE5 		str	r3, [sp, #236]
 335 03c8 0F00000A 		beq	.L19
 336 03cc 050050E3 		cmp	r0, #5
 337 03d0 F0308DE5 		str	r3, [sp, #240]
 338 03d4 0C00000A 		beq	.L19
 339              	.LEHB13:
 340 03d8 FEFFFFEB 		bl	abort
 341              	.LEHE13:
 342              	.L1052:
 343              	.LEHB14:
 344 03dc FEFFFFEB 		bl	abort
 345              	.L1051:
 346 03e0 FEFFFFEB 		bl	abort
 347              	.LEHE14:
 348              	.L622:
 349 03e4 BBFFFFEA 		b	.L496
 350              	.L1050:
 351              	.LEHB15:
 352 03e8 FEFFFFEB 		bl	abort
 353              	.LEHE15:
 354              	.L626:
 355              	.L486:
 356 03ec C4309DE5 		ldr	r3, [sp, #196]
 357 03f0 050053E3 		cmp	r3, #5
 358 03f4 B0FFFFDA 		ble	.L488
 359 03f8 C8009DE5 		ldr	r0, [sp, #200]
 360 03fc 000050E3 		cmp	r0, #0
 361 0400 ADFFFF0A 		beq	.L488
 362 0404 FEFFFFEB 		bl	_ZdaPv
 363 0408 ABFFFFEA 		b	.L488
 364              	.L19:
 365 040c E0308DE2 		add	r3, sp, #224
 366 0410 0A21A0E1 		lsl	r2, r10, #2
 367 0414 000183E0 		add	r0, r3, r0, lsl #2
 368 0418 B0108DE2 		add	r1, sp, #176
 369 041c FEFFFFEB 		bl	memcpy
 370 0420 050057E3 		cmp	r7, #5
 371 0424 A00200CA 		bgt	.L1059
 372 0428 070055E1 		cmp	r5, r7
 373 042c 9D02001A 		bne	.L1060
 374 0430 090055E1 		cmp	r5, r9
 375 0434 9A02001A 		bne	.L1061
 376 0438 012055E2 		subs	r2, r5, #1
 377 043c 059065E2 		rsb	r9, r5, #5
 378 0440 4A00004A 		bmi	.L32
 379 0444 523F8DE2 		add	r3, sp, #328
 380 0448 021183E0 		add	r1, r3, r2, lsl #2
 381 044c 053183E0 		add	r3, r3, r5, lsl #2
 382 0450 022089E0 		add	r2, r9, r2
 383 0454 240013E5 		ldr	r0, [r3, #-36]
 384 0458 523F8DE2 		add	r3, sp, #328
 385 045c 50C011E5 		ldr	ip, [r1, #-80]
 386 0460 02E183E0 		add	lr, r3, r2, lsl #2
 387 0464 053183E0 		add	r3, r3, r5, lsl #2
 388 0468 3C1013E5 		ldr	r1, [r3, #-60]
 389 046c 023045E2 		sub	r3, r5, #2
 390 0470 010073E3 		cmn	r3, #1
 391 0474 20000EE5 		str	r0, [lr, #-32]
 392 0478 0E00A0E1 		mov	r0, lr
 393 047c 52EF8DE2 		add	lr, sp, #328
 394 0480 50C000E5 		str	ip, [r0, #-80]
 395 0484 381000E5 		str	r1, [r0, #-56]
 396 0488 3800000A 		beq	.L32
 397 048c 05218EE0 		add	r2, lr, r5, lsl #2
 398 0490 03118EE0 		add	r1, lr, r3, lsl #2
 399 0494 280012E5 		ldr	r0, [r2, #-40]
 400 0498 0E20A0E1 		mov	r2, lr
 401 049c 052182E0 		add	r2, r2, r5, lsl #2
 402 04a0 033089E0 		add	r3, r9, r3
 403 04a4 50C011E5 		ldr	ip, [r1, #-80]
 404 04a8 03E18EE0 		add	lr, lr, r3, lsl #2
 405 04ac 401012E5 		ldr	r1, [r2, #-64]
 406 04b0 032045E2 		sub	r2, r5, #3
 407 04b4 010072E3 		cmn	r2, #1
 408 04b8 20000EE5 		str	r0, [lr, #-32]
 409 04bc 0E00A0E1 		mov	r0, lr
 410 04c0 52EF8DE2 		add	lr, sp, #328
 411 04c4 50C000E5 		str	ip, [r0, #-80]
 412 04c8 381000E5 		str	r1, [r0, #-56]
 413 04cc 2700000A 		beq	.L32
 414 04d0 05318EE0 		add	r3, lr, r5, lsl #2
 415 04d4 02118EE0 		add	r1, lr, r2, lsl #2
 416 04d8 2C0013E5 		ldr	r0, [r3, #-44]
 417 04dc 0E30A0E1 		mov	r3, lr
 418 04e0 053183E0 		add	r3, r3, r5, lsl #2
 419 04e4 022089E0 		add	r2, r9, r2
 420 04e8 50C011E5 		ldr	ip, [r1, #-80]
 421 04ec 02E18EE0 		add	lr, lr, r2, lsl #2
 422 04f0 441013E5 		ldr	r1, [r3, #-68]
 423 04f4 043045E2 		sub	r3, r5, #4
 424 04f8 010073E3 		cmn	r3, #1
 425 04fc 20000EE5 		str	r0, [lr, #-32]
 426 0500 0E00A0E1 		mov	r0, lr
 427 0504 52EF8DE2 		add	lr, sp, #328
 428 0508 50C000E5 		str	ip, [r0, #-80]
 429 050c 381000E5 		str	r1, [r0, #-56]
 430 0510 1600000A 		beq	.L32
 431 0514 05018EE0 		add	r0, lr, r5, lsl #2
 432 0518 03118EE0 		add	r1, lr, r3, lsl #2
 433 051c 30C010E5 		ldr	ip, [r0, #-48]
 434 0520 033089E0 		add	r3, r9, r3
 435 0524 482010E5 		ldr	r2, [r0, #-72]
 436 0528 03E18EE0 		add	lr, lr, r3, lsl #2
 437 052c 500011E5 		ldr	r0, [r1, #-80]
 438 0530 040055E3 		cmp	r5, #4
 439 0534 0E10A0E1 		mov	r1, lr
 440 0538 525F8DE2 		add	r5, sp, #328
 441 053c 20C00EE5 		str	ip, [lr, #-32]
 442 0540 50000EE5 		str	r0, [lr, #-80]
 443 0544 38200EE5 		str	r2, [lr, #-56]
 444 0548 0800000A 		beq	.L32
 445 054c 28019DE5 		ldr	r0, [sp, #296]
 446 0550 093185E0 		add	r3, r5, r9, lsl #2
 447 0554 F8109DE5 		ldr	r1, [sp, #248]
 448 0558 10219DE5 		ldr	r2, [sp, #272]
 449 055c 200003E5 		str	r0, [r3, #-32]
 450 0560 093185E0 		add	r3, r5, r9, lsl #2
 451 0564 501003E5 		str	r1, [r3, #-80]
 452 0568 093185E0 		add	r3, r5, r9, lsl #2
 453 056c 382003E5 		str	r2, [r3, #-56]
 454              	.L32:
 455 0570 000059E3 		cmp	r9, #0
 456 0574 1500000A 		beq	.L33
 457 0578 0921A0E1 		lsl	r2, r9, #2
 458 057c 0010A0E3 		mov	r1, #0
 459 0580 F8008DE2 		add	r0, sp, #248
 460 0584 FEFFFFEB 		bl	memset
 461 0588 010059E3 		cmp	r9, #1
 462 058c 0130A0E3 		mov	r3, #1
 463 0590 10318DE5 		str	r3, [sp, #272]
 464 0594 28318DE5 		str	r3, [sp, #296]
 465 0598 0C00000A 		beq	.L33
 466 059c 020059E3 		cmp	r9, #2
 467 05a0 14318DE5 		str	r3, [sp, #276]
 468 05a4 2C318DE5 		str	r3, [sp, #300]
 469 05a8 0800000A 		beq	.L33
 470 05ac 030059E3 		cmp	r9, #3
 471 05b0 18318DE5 		str	r3, [sp, #280]
 472 05b4 30318DE5 		str	r3, [sp, #304]
 473 05b8 0400000A 		beq	.L33
 474 05bc 040059E3 		cmp	r9, #4
 475 05c0 1C318DE5 		str	r3, [sp, #284]
 476 05c4 34318DE5 		str	r3, [sp, #308]
 477 05c8 20318D15 		strne	r3, [sp, #288]
 478 05cc 38318D15 		strne	r3, [sp, #312]
 479              	.L33:
 480 05d0 0030E0E3 		mvn	r3, #0
 481 05d4 C4209DE5 		ldr	r2, [sp, #196]
 482 05d8 1339E0E1 		mvn	r3, r3, lsl r9
 483 05dc 1449A0E1 		lsl	r4, r4, r9
 484 05e0 7330BFE6 		sxth	r3, r3
 485 05e4 000052E3 		cmp	r2, #0
 486 05e8 0C208DE5 		str	r2, [sp, #12]
 487 05ec 7470BFE6 		sxth	r7, r4
 488 05f0 165983E1 		orr	r5, r3, r6, lsl r9
 489 05f4 183983E1 		orr	r3, r3, r8, lsl r9
 490 05f8 7550BFE6 		sxth	r5, r5
 491 05fc 7360BFE6 		sxth	r6, r3
 492 0600 260200DA 		ble	.L1062
 493 0604 050052E3 		cmp	r2, #5
 494 0608 0230A0E1 		mov	r3, r2
 495 060c C8309DC5 		ldrgt	r3, [sp, #200]
 496 0610 C8C09DD5 		ldrle	ip, [sp, #200]
 497 0614 00C093C5 		ldrgt	ip, [r3]
 498 0618 00005CE3 		cmp	ip, #0
 499 061c 1D02000A 		beq	.L544
 500 0620 010015E3 		tst	r5, #1
 501 0624 28219DE5 		ldr	r2, [sp, #296]
 502 0628 F8309DE5 		ldr	r3, [sp, #248]
 503 062c 1602000A 		beq	.L37
 504 0630 000052E3 		cmp	r2, #0
 505 0634 0231A0C3 		movgt	r3, #-2147483648
 506 0638 0F0200DA 		ble	.L1063
 507              	.L38:
 508 063c 0C3083E0 		add	r3, r3, ip
 509              	.L41:
 510 0640 000052E3 		cmp	r2, #0
 511 0644 060200DA 		ble	.L42
 512 0648 00005CE3 		cmp	ip, #0
 513 064c 020200BA 		blt	.L1064
 514 0650 0C0053E1 		cmp	r3, ip
 515 0654 0C10A0C1 		movgt	r1, ip
 516 0658 C31FC3D1 		bicle	r1, r3, r3, asr #31
 517              	.L44:
 518 065c 010017E3 		tst	r7, #1
 519 0660 10319DE5 		ldr	r3, [sp, #272]
 520 0664 FA01001A 		bne	.L1065
 521 0668 010016E3 		tst	r6, #1
 522 066c ED01000A 		beq	.L46
 523 0670 000052E3 		cmp	r2, #0
 524 0674 0231A0D3 		movle	r3, #-2147483648
 525 0678 EC0100DA 		ble	.L48
 526 067c 0231E0E3 		mvn	r3, #-2147483648
 527              	.L47:
 528 0680 00005CE3 		cmp	ip, #0
 529 0684 E60100BA 		blt	.L1066
 530 0688 03005CE1 		cmp	ip, r3
 531 068c C3CFC3A1 		bicge	ip, r3, r3, asr #31
 532              	.L36:
 533 0690 0C309DE5 		ldr	r3, [sp, #12]
 534 0694 010053E3 		cmp	r3, #1
 535 0698 E001000A 		beq	.L1067
 536 069c 050053E3 		cmp	r3, #5
 537 06a0 C8309DC5 		ldrgt	r3, [sp, #200]
 538 06a4 CC209DD5 		ldrle	r2, [sp, #204]
 539 06a8 042093C5 		ldrgt	r2, [r3, #4]
 540 06ac 000052E3 		cmp	r2, #0
 541 06b0 D701000A 		beq	.L549
 542 06b4 020015E3 		tst	r5, #2
 543 06b8 2C019DE5 		ldr	r0, [sp, #300]
 544 06bc FC309DE5 		ldr	r3, [sp, #252]
 545 06c0 D001000A 		beq	.L57
 546 06c4 000050E3 		cmp	r0, #0
 547 06c8 0231A0C3 		movgt	r3, #-2147483648
 548 06cc C60100DA 		ble	.L1068
 549              	.L58:
 550 06d0 023083E0 		add	r3, r3, r2
 551              	.L61:
 552 06d4 000050E3 		cmp	r0, #0
 553 06d8 BB0100DA 		ble	.L62
 554 06dc 000052E3 		cmp	r2, #0
 555 06e0 C60100BA 		blt	.L1069
 556 06e4 020053E1 		cmp	r3, r2
 557 06e8 2C208DC5 		strgt	r2, [sp, #44]
 558 06ec C33FC3D1 		bicle	r3, r3, r3, asr #31
 559 06f0 2C308DD5 		strle	r3, [sp, #44]
 560              	.L64:
 561 06f4 020017E3 		tst	r7, #2
 562 06f8 14319DE5 		ldr	r3, [sp, #276]
 563 06fc AF01001A 		bne	.L1070
 564 0700 020016E3 		tst	r6, #2
 565 0704 A201000A 		beq	.L66
 566 0708 000050E3 		cmp	r0, #0
 567 070c 0231A0D3 		movle	r3, #-2147483648
 568 0710 A10100DA 		ble	.L68
 569 0714 0231E0E3 		mvn	r3, #-2147483648
 570              	.L67:
 571 0718 000052E3 		cmp	r2, #0
 572 071c 9B0100BA 		blt	.L1071
 573 0720 030052E1 		cmp	r2, r3
 574 0724 02E0A0B1 		movlt	lr, r2
 575 0728 C3EFC3A1 		bicge	lr, r3, r3, asr #31
 576              	.L56:
 577 072c 0C309DE5 		ldr	r3, [sp, #12]
 578 0730 020053E3 		cmp	r3, #2
 579 0734 9401000A 		beq	.L1072
 580 0738 050053E3 		cmp	r3, #5
 581 073c C8309DC5 		ldrgt	r3, [sp, #200]
 582 0740 D0309DD5 		ldrle	r3, [sp, #208]
 583 0744 083093C5 		ldrgt	r3, [r3, #8]
 584 0748 000053E3 		cmp	r3, #0
 585 074c EF04000A 		beq	.L554
 586 0750 040015E3 		tst	r5, #4
 587 0754 30419DE5 		ldr	r4, [sp, #304]
 588 0758 00019DE5 		ldr	r0, [sp, #256]
 589 075c E804000A 		beq	.L77
 590 0760 000054E3 		cmp	r4, #0
 591 0764 0201A0C3 		movgt	r0, #-2147483648
 592 0768 E00400DA 		ble	.L1073
 593              	.L78:
 594 076c 030080E0 		add	r0, r0, r3
 595              	.L81:
 596 0770 000054E3 		cmp	r4, #0
 597 0774 D50400DA 		ble	.L82
 598 0778 000053E3 		cmp	r3, #0
 599 077c D10400BA 		blt	.L1074
 600 0780 030050E1 		cmp	r0, r3
 601 0784 28308DC5 		strgt	r3, [sp, #40]
 602 0788 C00FC0D1 		bicle	r0, r0, r0, asr #31
 603 078c 28008DD5 		strle	r0, [sp, #40]
 604              	.L84:
 605 0790 040017E3 		tst	r7, #4
 606 0794 18019DE5 		ldr	r0, [sp, #280]
 607 0798 C604001A 		bne	.L1075
 608 079c 040016E3 		tst	r6, #4
 609 07a0 B704000A 		beq	.L86
 610 07a4 000054E3 		cmp	r4, #0
 611 07a8 0201A0D3 		movle	r0, #-2147483648
 612 07ac B60400DA 		ble	.L88
 613 07b0 0201E0E3 		mvn	r0, #-2147483648
 614              	.L87:
 615 07b4 000053E3 		cmp	r3, #0
 616 07b8 B00400BA 		blt	.L1076
 617 07bc 000053E1 		cmp	r3, r0
 618 07c0 48308DB5 		strlt	r3, [sp, #72]
 619 07c4 C00FC0A1 		bicge	r0, r0, r0, asr #31
 620 07c8 48008DA5 		strge	r0, [sp, #72]
 621              	.L76:
 622 07cc 0C009DE5 		ldr	r0, [sp, #12]
 623 07d0 030050E3 		cmp	r0, #3
 624 07d4 A804000A 		beq	.L1077
 625 07d8 050050E3 		cmp	r0, #5
 626 07dc C8009DC5 		ldrgt	r0, [sp, #200]
 627 07e0 D4009DD5 		ldrle	r0, [sp, #212]
 628 07e4 0C0090C5 		ldrgt	r0, [r0, #12]
 629 07e8 000050E3 		cmp	r0, #0
 630 07ec 1C008DE5 		str	r0, [sp, #28]
 631 07f0 9E04000A 		beq	.L559
 632 07f4 080015E3 		tst	r5, #8
 633 07f8 34419DE5 		ldr	r4, [sp, #308]
 634 07fc 04019DE5 		ldr	r0, [sp, #260]
 635 0800 9704000A 		beq	.L97
 636 0804 000054E3 		cmp	r4, #0
 637 0808 0201A0C3 		movgt	r0, #-2147483648
 638 080c 8E0400DA 		ble	.L1078
 639              	.L98:
 640 0810 1C809DE5 		ldr	r8, [sp, #28]
 641 0814 080080E0 		add	r0, r0, r8
 642              	.L101:
 643 0818 000054E3 		cmp	r4, #0
 644 081c 1C809DE5 		ldr	r8, [sp, #28]
 645 0820 810400DA 		ble	.L102
 646 0824 000058E3 		cmp	r8, #0
 647 0828 7E0400BA 		blt	.L1079
 648 082c 080050E1 		cmp	r0, r8
 649 0830 0800A0C1 		movgt	r0, r8
 650 0834 14008DC5 		strgt	r0, [sp, #20]
 651 0838 C00FC0D1 		bicle	r0, r0, r0, asr #31
 652 083c 14008DD5 		strle	r0, [sp, #20]
 653              	.L104:
 654 0840 080017E3 		tst	r7, #8
 655 0844 1C019DE5 		ldr	r0, [sp, #284]
 656 0848 7204001A 		bne	.L1080
 657 084c 080016E3 		tst	r6, #8
 658 0850 C804000A 		beq	.L106
 659 0854 000054E3 		cmp	r4, #0
 660 0858 0201A0D3 		movle	r0, #-2147483648
 661 085c C70400DA 		ble	.L108
 662 0860 0201E0E3 		mvn	r0, #-2147483648
 663              	.L107:
 664 0864 1C409DE5 		ldr	r4, [sp, #28]
 665 0868 000054E3 		cmp	r4, #0
 666 086c D00400BA 		blt	.L1081
 667 0870 000054E1 		cmp	r4, r0
 668 0874 0400A0B1 		movlt	r0, r4
 669 0878 4C008DB5 		strlt	r0, [sp, #76]
 670 087c C00FC0A1 		bicge	r0, r0, r0, asr #31
 671 0880 4C008DA5 		strge	r0, [sp, #76]
 672              	.L96:
 673 0884 0C009DE5 		ldr	r0, [sp, #12]
 674 0888 040050E3 		cmp	r0, #4
 675 088c B804000A 		beq	.L1082
 676 0890 050050E3 		cmp	r0, #5
 677 0894 AC04001A 		bne	.L1083
 678 0898 D8009DE5 		ldr	r0, [sp, #216]
 679 089c 000050E3 		cmp	r0, #0
 680 08a0 58008DE5 		str	r0, [sp, #88]
 681 08a4 18008DE5 		str	r0, [sp, #24]
 682 08a8 A304000A 		beq	.L565
 683              	.L116:
 684 08ac 100015E3 		tst	r5, #16
 685 08b0 38919DE5 		ldr	r9, [sp, #312]
 686 08b4 08019DE5 		ldr	r0, [sp, #264]
 687 08b8 9C04000A 		beq	.L118
 688 08bc 000059E3 		cmp	r9, #0
 689 08c0 0201A0C3 		movgt	r0, #-2147483648
 690 08c4 940400DA 		ble	.L1084
 691              	.L119:
 692 08c8 18409DE5 		ldr	r4, [sp, #24]
 693 08cc 040080E0 		add	r0, r0, r4
 694              	.L122:
 695 08d0 000059E3 		cmp	r9, #0
 696 08d4 18409DE5 		ldr	r4, [sp, #24]
 697 08d8 BA0400DA 		ble	.L123
 698 08dc 000054E3 		cmp	r4, #0
 699 08e0 B70400BA 		blt	.L1085
 700 08e4 000054E1 		cmp	r4, r0
 701 08e8 04A0A0B1 		movlt	r10, r4
 702 08ec C0AFC0A1 		bicge	r10, r0, r0, asr #31
 703              	.L125:
 704 08f0 100017E3 		tst	r7, #16
 705 08f4 20019DE5 		ldr	r0, [sp, #288]
 706 08f8 AF04001A 		bne	.L1086
 707 08fc 100016E3 		tst	r6, #16
 708 0900 0101000A 		beq	.L128
 709 0904 000059E3 		cmp	r9, #0
 710 0908 0201A0D3 		movle	r0, #-2147483648
 711 090c 000100DA 		ble	.L130
 712 0910 0201E0E3 		mvn	r0, #-2147483648
 713              	.L129:
 714 0914 18409DE5 		ldr	r4, [sp, #24]
 715 0918 000054E3 		cmp	r4, #0
 716 091c F90000BA 		blt	.L1087
 717 0920 000054E1 		cmp	r4, r0
 718 0924 0470A0B1 		movlt	r7, r4
 719 0928 C07FC0A1 		bicge	r7, r0, r0, asr #31
 720              	.L127:
 721 092c 0C009DE5 		ldr	r0, [sp, #12]
 722 0930 050050E3 		cmp	r0, #5
 723 0934 0901001A 		bne	.L906
 724 0938 D8009DE5 		ldr	r0, [sp, #216]
 725 093c 58008DE5 		str	r0, [sp, #88]
 726              	.L117:
 727 0940 910201E0 		mul	r1, r1, r2
 728 0944 40108DE5 		str	r1, [sp, #64]
 729 0948 28119DE5 		ldr	r1, [sp, #296]
 730 094c 68108DE5 		str	r1, [sp, #104]
 731 0950 C8109DE5 		ldr	r1, [sp, #200]
 732 0954 50108DE5 		str	r1, [sp, #80]
 733 0958 920C01E0 		mul	r1, r2, ip
 734 095c 64108DE5 		str	r1, [sp, #100]
 735              	.L135:
 736 0960 40409DE5 		ldr	r4, [sp, #64]
 737 0964 0981A0E1 		lsl	r8, r9, #2
 738 0968 68009DE5 		ldr	r0, [sp, #104]
 739 096c 34619DE5 		ldr	r6, [sp, #308]
 740 0970 0E1084E0 		add	r1, r4, lr
 741 0974 2CE09DE5 		ldr	lr, [sp, #44]
 742 0978 930101E0 		mul	r1, r3, r1
 743 097c 900202E0 		mul	r2, r0, r2
 744 0980 54108DE5 		str	r1, [sp, #84]
 745 0984 D4109DE5 		ldr	r1, [sp, #212]
 746 0988 0200A0E1 		mov	r0, r2
 747 098c 78208DE5 		str	r2, [sp, #120]
 748 0990 930003E0 		mul	r3, r3, r0
 749 0994 D0209DE5 		ldr	r2, [sp, #208]
 750 0998 6C108DE5 		str	r1, [sp, #108]
 751 099c 30119DE5 		ldr	r1, [sp, #304]
 752 09a0 02C0A0E1 		mov	ip, r2
 753 09a4 84208DE5 		str	r2, [sp, #132]
 754 09a8 88308DE5 		str	r3, [sp, #136]
 755 09ac 04208EE0 		add	r2, lr, r4
 756 09b0 24108DE5 		str	r1, [sp, #36]
 757 09b4 900C03E0 		mul	r3, r0, ip
 758 09b8 18109DE5 		ldr	r1, [sp, #24]
 759 09bc 0B00A0E1 		mov	r0, fp
 760 09c0 2CE19DE5 		ldr	lr, [sp, #300]
 761 09c4 0AB0A0E1 		mov	fp, r10
 762 09c8 08A0A0E1 		mov	r10, r8
 763 09cc 0780A0E1 		mov	r8, r7
 764 09d0 74308DE5 		str	r3, [sp, #116]
 765 09d4 0670A0E1 		mov	r7, r6
 766 09d8 960101E0 		mul	r1, r6, r1
 767 09dc 70E08DE5 		str	lr, [sp, #112]
 768 09e0 01E0A0E1 		mov	lr, r1
 769 09e4 0E31A0E1 		lsl	r3, lr, #2
 770 09e8 0E60A0E1 		mov	r6, lr
 771 09ec 04308DE5 		str	r3, [sp, #4]
 772 09f0 0230A0E1 		mov	r3, r2
 773 09f4 9C0303E0 		mul	r3, ip, r3
 774 09f8 5C308DE5 		str	r3, [sp, #92]
 775              	.L161:
 776 09fc 68309DE5 		ldr	r3, [sp, #104]
 777 0a00 64209DE5 		ldr	r2, [sp, #100]
 778 0a04 000053E3 		cmp	r3, #0
 779 0a08 40309DE5 		ldr	r3, [sp, #64]
 780 0a0c 7E0400DA 		ble	.L136
 781 0a10 020053E1 		cmp	r3, r2
 782 0a14 0030A0B3 		movlt	r3, #0
 783 0a18 0130A0A3 		movge	r3, #1
 784              	.L137:
 785 0a1c 000053E3 		cmp	r3, #0
 786 0a20 6E04001A 		bne	.L138
 787 0a24 0C309DE5 		ldr	r3, [sp, #12]
 788 0a28 2C209DE5 		ldr	r2, [sp, #44]
 789 0a2c 48C09DE5 		ldr	ip, [sp, #72]
 790 0a30 050053E3 		cmp	r3, #5
 791 0a34 40309DE5 		ldr	r3, [sp, #64]
 792 0a38 022083E0 		add	r2, r3, r2
 793 0a3c 50309D15 		ldrne	r3, [sp, #80]
 794 0a40 5C309D05 		ldreq	r3, [sp, #92]
 795 0a44 08309315 		ldrne	r3, [r3, #8]
 796 0a48 44308D05 		streq	r3, [sp, #68]
 797 0a4c 84309D05 		ldreq	r3, [sp, #132]
 798 0a50 92030210 		mulne	r2, r2, r3
 799 0a54 44208D15 		strne	r2, [sp, #68]
 800 0a58 70209DE5 		ldr	r2, [sp, #112]
 801 0a5c 920303E0 		mul	r3, r2, r3
 802 0a60 28209DE5 		ldr	r2, [sp, #40]
 803 0a64 0310A0E1 		mov	r1, r3
 804 0a68 80308DE5 		str	r3, [sp, #128]
 805 0a6c 44309DE5 		ldr	r3, [sp, #68]
 806 0a70 032082E0 		add	r2, r2, r3
 807 0a74 0C3083E0 		add	r3, r3, ip
 808 0a78 6CC09DE5 		ldr	ip, [sp, #108]
 809 0a7c 9C0202E0 		mul	r2, ip, r2
 810 0a80 60208DE5 		str	r2, [sp, #96]
 811 0a84 0120A0E1 		mov	r2, r1
 812 0a88 9C0101E0 		mul	r1, ip, r1
 813 0a8c 8C108DE5 		str	r1, [sp, #140]
 814 0a90 1C109DE5 		ldr	r1, [sp, #28]
 815 0a94 920102E0 		mul	r2, r2, r1
 816 0a98 910303E0 		mul	r3, r1, r3
 817 0a9c 7C208DE5 		str	r2, [sp, #124]
 818 0aa0 20308DE5 		str	r3, [sp, #32]
 819              	.L160:
 820 0aa4 70309DE5 		ldr	r3, [sp, #112]
 821 0aa8 54209DE5 		ldr	r2, [sp, #84]
 822 0aac 000053E3 		cmp	r3, #0
 823 0ab0 44309DE5 		ldr	r3, [sp, #68]
 824 0ab4 810000DA 		ble	.L141
 825 0ab8 020053E1 		cmp	r3, r2
 826 0abc 0030A0B3 		movlt	r3, #0
 827 0ac0 0130A0A3 		movge	r3, #1
 828 0ac4 000053E3 		cmp	r3, #0
 829 0ac8 8100001A 		bne	.L143
 830              	.L1094:
 831 0acc 0C309DE5 		ldr	r3, [sp, #12]
 832 0ad0 44209DE5 		ldr	r2, [sp, #68]
 833 0ad4 14C09DE5 		ldr	ip, [sp, #20]
 834 0ad8 050053E3 		cmp	r3, #5
 835 0adc 28309DE5 		ldr	r3, [sp, #40]
 836 0ae0 022083E0 		add	r2, r3, r2
 837 0ae4 50309D15 		ldrne	r3, [sp, #80]
 838 0ae8 60309D05 		ldreq	r3, [sp, #96]
 839 0aec 0C309315 		ldrne	r3, [r3, #12]
 840 0af0 08308D05 		streq	r3, [sp, #8]
 841 0af4 6C309D05 		ldreq	r3, [sp, #108]
 842 0af8 08109D05 		ldreq	r1, [sp, #8]
 843 0afc 93020210 		mulne	r2, r3, r2
 844 0b00 0210A011 		movne	r1, r2
 845 0b04 08208D15 		strne	r2, [sp, #8]
 846 0b08 24209DE5 		ldr	r2, [sp, #36]
 847 0b0c 920303E0 		mul	r3, r2, r3
 848 0b10 0320A0E1 		mov	r2, r3
 849 0b14 34308DE5 		str	r3, [sp, #52]
 850 0b18 01308CE0 		add	r3, ip, r1
 851 0b1c 4CC09DE5 		ldr	ip, [sp, #76]
 852 0b20 01508CE0 		add	r5, ip, r1
 853 0b24 58109DE5 		ldr	r1, [sp, #88]
 854 0b28 910303E0 		mul	r3, r1, r3
 855 0b2c 10308DE5 		str	r3, [sp, #16]
 856 0b30 0230A0E1 		mov	r3, r2
 857 0b34 910202E0 		mul	r2, r1, r2
 858 0b38 38208DE5 		str	r2, [sp, #56]
 859 0b3c 18209DE5 		ldr	r2, [sp, #24]
 860 0b40 920303E0 		mul	r3, r2, r3
 861 0b44 920505E0 		mul	r5, r2, r5
 862 0b48 3C308DE5 		str	r3, [sp, #60]
 863              	.L159:
 864 0b4c 24309DE5 		ldr	r3, [sp, #36]
 865 0b50 20209DE5 		ldr	r2, [sp, #32]
 866 0b54 000053E3 		cmp	r3, #0
 867 0b58 08309DE5 		ldr	r3, [sp, #8]
 868 0b5c 450000DA 		ble	.L146
 869 0b60 020053E1 		cmp	r3, r2
 870 0b64 0030A0B3 		movlt	r3, #0
 871 0b68 0130A0A3 		movge	r3, #1
 872 0b6c 000053E3 		cmp	r3, #0
 873 0b70 4500001A 		bne	.L148
 874              	.L1093:
 875 0b74 0C309DE5 		ldr	r3, [sp, #12]
 876 0b78 08209DE5 		ldr	r2, [sp, #8]
 877 0b7c 050053E3 		cmp	r3, #5
 878 0b80 14309DE5 		ldr	r3, [sp, #20]
 879 0b84 10E09D05 		ldreq	lr, [sp, #16]
 880 0b88 023083E0 		add	r3, r3, r2
 881 0b8c 50209D15 		ldrne	r2, [sp, #80]
 882 0b90 10E09215 		ldrne	lr, [r2, #16]
 883 0b94 9E030E10 		mulne	lr, lr, r3
 884 0b98 30309DE5 		ldr	r3, [sp, #48]
 885 0b9c 000057E3 		cmp	r7, #0
 886 0ba0 0E408BE0 		add	r4, fp, lr
 887 0ba4 044183E0 		add	r4, r3, r4, lsl #2
 888 0ba8 170000DA 		ble	.L151
 889              	.L1089:
 890 0bac 05005EE1 		cmp	lr, r5
 891 0bb0 0030A0B3 		movlt	r3, #0
 892 0bb4 0130A0A3 		movge	r3, #1
 893 0bb8 000053E3 		cmp	r3, #0
 894 0bbc 1700001A 		bne	.L153
 895              	.L1090:
 896 0bc0 000059E3 		cmp	r9, #0
 897 0bc4 0020A0E1 		mov	r2, r0
 898 0bc8 0410A0E1 		mov	r1, r4
 899 0bcc 0E308BE0 		add	r3, fp, lr
 900 0bd0 0EC088E0 		add	ip, r8, lr
 901 0bd4 040000CA 		bgt	.L157
 902 0bd8 1F0000EA 		b	.L156
 903              	.L1088:
 904 0bdc 000091E5 		ldr	r0, [r1]	@ float
 905 0be0 093083E0 		add	r3, r3, r9
 906 0be4 0A1081E0 		add	r1, r1, r10
 907 0be8 040082E4 		str	r0, [r2], #4	@ float
 908              	.L157:
 909 0bec 0C0053E1 		cmp	r3, ip
 910 0bf0 0200A0E1 		mov	r0, r2
 911 0bf4 F8FFFFBA 		blt	.L1088
 912 0bf8 04309DE5 		ldr	r3, [sp, #4]
 913 0bfc 06E08EE0 		add	lr, lr, r6
 914 0c00 034084E0 		add	r4, r4, r3
 915              	.L1092:
 916 0c04 000057E3 		cmp	r7, #0
 917 0c08 E7FFFFCA 		bgt	.L1089
 918              	.L151:
 919 0c0c 05005EE1 		cmp	lr, r5
 920 0c10 0030A0C3 		movgt	r3, #0
 921 0c14 0130A0D3 		movle	r3, #1
 922 0c18 000053E3 		cmp	r3, #0
 923 0c1c E7FFFF0A 		beq	.L1090
 924              	.L153:
 925 0c20 08309DE5 		ldr	r3, [sp, #8]
 926 0c24 34209DE5 		ldr	r2, [sp, #52]
 927 0c28 023083E0 		add	r3, r3, r2
 928 0c2c 38209DE5 		ldr	r2, [sp, #56]
 929 0c30 08308DE5 		str	r3, [sp, #8]
 930 0c34 10309DE5 		ldr	r3, [sp, #16]
 931 0c38 023083E0 		add	r3, r3, r2
 932 0c3c 10308DE5 		str	r3, [sp, #16]
 933 0c40 3C309DE5 		ldr	r3, [sp, #60]
 934 0c44 035085E0 		add	r5, r5, r3
 935 0c48 BFFFFFEA 		b	.L159
 936              	.L1091:
 937 0c4c 000091E5 		ldr	r0, [r1]	@ float
 938 0c50 093083E0 		add	r3, r3, r9
 939 0c54 0A1081E0 		add	r1, r1, r10
 940 0c58 040082E4 		str	r0, [r2], #4	@ float
 941              	.L156:
 942 0c5c 03005CE1 		cmp	ip, r3
 943 0c60 0200A0E1 		mov	r0, r2
 944 0c64 F8FFFFBA 		blt	.L1091
 945 0c68 04309DE5 		ldr	r3, [sp, #4]
 946 0c6c 06E08EE0 		add	lr, lr, r6
 947 0c70 034084E0 		add	r4, r4, r3
 948 0c74 E2FFFFEA 		b	.L1092
 949              	.L146:
 950 0c78 020053E1 		cmp	r3, r2
 951 0c7c 0030A0C3 		movgt	r3, #0
 952 0c80 0130A0D3 		movle	r3, #1
 953 0c84 000053E3 		cmp	r3, #0
 954 0c88 B9FFFF0A 		beq	.L1093
 955              	.L148:
 956 0c8c 44309DE5 		ldr	r3, [sp, #68]
 957 0c90 80209DE5 		ldr	r2, [sp, #128]
 958 0c94 023083E0 		add	r3, r3, r2
 959 0c98 8C209DE5 		ldr	r2, [sp, #140]
 960 0c9c 44308DE5 		str	r3, [sp, #68]
 961 0ca0 60309DE5 		ldr	r3, [sp, #96]
 962 0ca4 023083E0 		add	r3, r3, r2
 963 0ca8 7C209DE5 		ldr	r2, [sp, #124]
 964 0cac 60308DE5 		str	r3, [sp, #96]
 965 0cb0 20309DE5 		ldr	r3, [sp, #32]
 966 0cb4 023083E0 		add	r3, r3, r2
 967 0cb8 20308DE5 		str	r3, [sp, #32]
 968 0cbc 78FFFFEA 		b	.L160
 969              	.L141:
 970 0cc0 020053E1 		cmp	r3, r2
 971 0cc4 0030A0C3 		movgt	r3, #0
 972 0cc8 0130A0D3 		movle	r3, #1
 973 0ccc 000053E3 		cmp	r3, #0
 974 0cd0 7DFFFF0A 		beq	.L1094
 975              	.L143:
 976 0cd4 40309DE5 		ldr	r3, [sp, #64]
 977 0cd8 78209DE5 		ldr	r2, [sp, #120]
 978 0cdc 023083E0 		add	r3, r3, r2
 979 0ce0 74209DE5 		ldr	r2, [sp, #116]
 980 0ce4 40308DE5 		str	r3, [sp, #64]
 981 0ce8 5C309DE5 		ldr	r3, [sp, #92]
 982 0cec 023083E0 		add	r3, r3, r2
 983 0cf0 88209DE5 		ldr	r2, [sp, #136]
 984 0cf4 5C308DE5 		str	r3, [sp, #92]
 985 0cf8 54309DE5 		ldr	r3, [sp, #84]
 986 0cfc 023083E0 		add	r3, r3, r2
 987 0d00 54308DE5 		str	r3, [sp, #84]
 988 0d04 3CFFFFEA 		b	.L161
 989              	.L1087:
 990              	.LEHB16:
 991 0d08 FEFFFFEB 		bl	abort
 992              	.L128:
 993 0d0c 000050E3 		cmp	r0, #0
 994 0d10 010000AA 		bge	.L131
 995              	.L130:
 996 0d14 18409DE5 		ldr	r4, [sp, #24]
 997 0d18 040080E0 		add	r0, r0, r4
 998              	.L131:
 999 0d1c 000059E3 		cmp	r9, #0
 1000 0d20 FBFEFFCA 		bgt	.L129
 1001 0d24 18409DE5 		ldr	r4, [sp, #24]
 1002 0d28 017044E2 		sub	r7, r4, #1
 1003 0d2c 010077E3 		cmn	r7, #1
 1004 0d30 B90300BA 		blt	.L1095
 1005 0d34 070050E1 		cmp	r0, r7
 1006 0d38 C07F80D1 		orrle	r7, r0, r0, asr #31
 1007 0d3c FAFEFFEA 		b	.L127
 1008              	.L627:
 1009              	.L990:
 1010 0d40 DC309DE5 		ldr	r3, [sp, #220]
 1011 0d44 050053E3 		cmp	r3, #5
 1012 0d48 A7FDFFDA 		ble	.L486
 1013 0d4c E0009DE5 		ldr	r0, [sp, #224]
 1014 0d50 000050E3 		cmp	r0, #0
 1015 0d54 A4FDFF0A 		beq	.L486
 1016 0d58 FEFFFFEB 		bl	_ZdaPv
 1017 0d5c A2FDFFEA 		b	.L486
 1018              	.L906:
 1019 0d60 C8009DE5 		ldr	r0, [sp, #200]
 1020 0d64 50008DE5 		str	r0, [sp, #80]
 1021              	.L115:
 1022 0d68 910201E0 		mul	r1, r1, r2
 1023 0d6c 40108DE5 		str	r1, [sp, #64]
 1024 0d70 28119DE5 		ldr	r1, [sp, #296]
 1025 0d74 68108DE5 		str	r1, [sp, #104]
 1026 0d78 D8109DE5 		ldr	r1, [sp, #216]
 1027 0d7c 58108DE5 		str	r1, [sp, #88]
 1028 0d80 920C01E0 		mul	r1, r2, ip
 1029 0d84 64108DE5 		str	r1, [sp, #100]
 1030 0d88 F4FEFFEA 		b	.L135
 1031              	.L1072:
 1032 0d8c FEFFFFEB 		bl	abort
 1033              	.L1071:
 1034 0d90 FEFFFFEB 		bl	abort
 1035              	.L66:
 1036 0d94 000053E3 		cmp	r3, #0
 1037 0d98 000000AA 		bge	.L69
 1038              	.L68:
 1039 0d9c 023083E0 		add	r3, r3, r2
 1040              	.L69:
 1041 0da0 000050E3 		cmp	r0, #0
 1042 0da4 5BFEFFCA 		bgt	.L67
 1043 0da8 01E042E2 		sub	lr, r2, #1
 1044 0dac 01007EE3 		cmn	lr, #1
 1045 0db0 130000BA 		blt	.L1096
 1046 0db4 0E0053E1 		cmp	r3, lr
 1047 0db8 C3EF83D1 		orrle	lr, r3, r3, asr #31
 1048 0dbc 5AFEFFEA 		b	.L56
 1049              	.L1070:
 1050 0dc0 2C309DE5 		ldr	r3, [sp, #44]
 1051 0dc4 01E083E2 		add	lr, r3, #1
 1052 0dc8 57FEFFEA 		b	.L56
 1053              	.L62:
 1054 0dcc 01E042E2 		sub	lr, r2, #1
 1055 0dd0 01007EE3 		cmn	lr, #1
 1056 0dd4 2CE08DE5 		str	lr, [sp, #44]
 1057 0dd8 070000BA 		blt	.L529
 1058 0ddc 0E0053E1 		cmp	r3, lr
 1059 0de0 C33F83D1 		orrle	r3, r3, r3, asr #31
 1060 0de4 2C308DD5 		strle	r3, [sp, #44]
 1061 0de8 41FEFFEA 		b	.L64
 1062              	.L1068:
 1063 0dec 013042E2 		sub	r3, r2, #1
 1064 0df0 010073E3 		cmn	r3, #1
 1065 0df4 2C308DE5 		str	r3, [sp, #44]
 1066 0df8 3DFEFFAA 		bge	.L64
 1067              	.L529:
 1068 0dfc FEFFFFEB 		bl	abort
 1069              	.L1069:
 1070 0e00 FEFFFFEB 		bl	abort
 1071              	.L1096:
 1072 0e04 FEFFFFEB 		bl	abort
 1073              	.L57:
 1074 0e08 000053E3 		cmp	r3, #0
 1075 0e0c 30FEFFAA 		bge	.L61
 1076 0e10 2EFEFFEA 		b	.L58
 1077              	.L549:
 1078 0e14 2C208DE5 		str	r2, [sp, #44]
 1079 0e18 02E0A0E1 		mov	lr, r2
 1080 0e1c 42FEFFEA 		b	.L56
 1081              	.L1067:
 1082 0e20 FEFFFFEB 		bl	abort
 1083              	.L1066:
 1084 0e24 FEFFFFEB 		bl	abort
 1085              	.L46:
 1086 0e28 000053E3 		cmp	r3, #0
 1087 0e2c 000000AA 		bge	.L49
 1088              	.L48:
 1089 0e30 0C3083E0 		add	r3, r3, ip
 1090              	.L49:
 1091 0e34 000052E3 		cmp	r2, #0
 1092 0e38 10FEFFCA 		bgt	.L47
 1093 0e3c 01C04CE2 		sub	ip, ip, #1
 1094 0e40 01007CE3 		cmn	ip, #1
 1095 0e44 050000BA 		blt	.L1097
 1096 0e48 0C0053E1 		cmp	r3, ip
 1097 0e4c C3CF83D1 		orrle	ip, r3, r3, asr #31
 1098 0e50 0EFEFFEA 		b	.L36
 1099              	.L1065:
 1100 0e54 01C081E2 		add	ip, r1, #1
 1101 0e58 0CFEFFEA 		b	.L36
 1102              	.L1064:
 1103 0e5c FEFFFFEB 		bl	abort
 1104              	.L1097:
 1105 0e60 FEFFFFEB 		bl	abort
 1106              	.L42:
 1107 0e64 01104CE2 		sub	r1, ip, #1
 1108 0e68 010071E3 		cmn	r1, #1
 1109 0e6c 050000BA 		blt	.L528
 1110 0e70 010053E1 		cmp	r3, r1
 1111 0e74 C31F83D1 		orrle	r1, r3, r3, asr #31
 1112 0e78 F7FDFFEA 		b	.L44
 1113              	.L1063:
 1114 0e7c 01104CE2 		sub	r1, ip, #1
 1115 0e80 010071E3 		cmn	r1, #1
 1116 0e84 F4FDFFAA 		bge	.L44
 1117              	.L528:
 1118 0e88 FEFFFFEB 		bl	abort
 1119              	.L37:
 1120 0e8c 000053E3 		cmp	r3, #0
 1121 0e90 EAFDFFAA 		bge	.L41
 1122 0e94 E8FDFFEA 		b	.L38
 1123              	.L544:
 1124 0e98 0C10A0E1 		mov	r1, ip
 1125 0e9c FBFDFFEA 		b	.L36
 1126              	.L1062:
 1127 0ea0 FEFFFFEB 		bl	abort
 1128              	.L1061:
 1129 0ea4 FEFFFFEB 		bl	abort
 1130              	.L1060:
 1131 0ea8 FEFFFFEB 		bl	abort
 1132              	.L1059:
 1133 0eac FEFFFFEB 		bl	abort
 1134              	.LEHE16:
 1135              	.L1058:
 1136              	.LEHB17:
 1137 0eb0 FEFFFFEB 		bl	abort
 1138              	.L1057:
 1139 0eb4 FEFFFFEB 		bl	abort
 1140              	.LEHE17:
 1141              	.L623:
 1142 0eb8 06FDFFEA 		b	.L496
 1143              	.L1056:
 1144              	.LEHB18:
 1145 0ebc FEFFFFEB 		bl	abort
 1146              	.LEHE18:
 1147              	.L628:
 1148 0ec0 FDFCFFEA 		b	.L488
 1149              	.L180:
 1150 0ec4 C8308DE2 		add	r3, sp, #200
 1151 0ec8 0221A0E1 		lsl	r2, r2, #2
 1152 0ecc 000183E0 		add	r0, r3, r0, lsl #2
 1153 0ed0 98108DE2 		add	r1, sp, #152
 1154 0ed4 FEFFFFEB 		bl	memcpy
 1155 0ed8 050078E2 		rsbs	r0, r8, #5
 1156 0edc 0530A0E3 		mov	r3, #5
 1157 0ee0 DC308DE5 		str	r3, [sp, #220]
 1158 0ee4 7203000A 		beq	.L178
 1159 0ee8 010050E3 		cmp	r0, #1
 1160 0eec 0130A0E3 		mov	r3, #1
 1161 0ef0 E0308DE5 		str	r3, [sp, #224]
 1162 0ef4 6E03000A 		beq	.L178
 1163 0ef8 020050E3 		cmp	r0, #2
 1164 0efc E4308DE5 		str	r3, [sp, #228]
 1165 0f00 6B03000A 		beq	.L178
 1166 0f04 030050E3 		cmp	r0, #3
 1167 0f08 E8308DE5 		str	r3, [sp, #232]
 1168 0f0c 6803000A 		beq	.L178
 1169 0f10 040050E3 		cmp	r0, #4
 1170 0f14 EC308DE5 		str	r3, [sp, #236]
 1171 0f18 6503000A 		beq	.L178
 1172 0f1c 050050E3 		cmp	r0, #5
 1173 0f20 F0308DE5 		str	r3, [sp, #240]
 1174 0f24 6203000A 		beq	.L178
 1175              	.LEHB19:
 1176 0f28 FEFFFFEB 		bl	abort
 1177              	.LEHE19:
 1178              	.L632:
 1179 0f2c 2EFDFFEA 		b	.L486
 1180              	.L337:
 1181 0f30 E0308DE2 		add	r3, sp, #224
 1182 0f34 0821A0E1 		lsl	r2, r8, #2
 1183 0f38 000183E0 		add	r0, r3, r0, lsl #2
 1184 0f3c B0108DE2 		add	r1, sp, #176
 1185 0f40 FEFFFFEB 		bl	memcpy
 1186 0f44 050056E3 		cmp	r6, #5
 1187 0f48 570300CA 		bgt	.L1098
 1188 0f4c 060055E1 		cmp	r5, r6
 1189 0f50 5403001A 		bne	.L1099
 1190 0f54 090055E1 		cmp	r5, r9
 1191 0f58 5103001A 		bne	.L1100
 1192 0f5c 012055E2 		subs	r2, r5, #1
 1193 0f60 059065E2 		rsb	r9, r5, #5
 1194 0f64 4900004A 		bmi	.L350
 1195 0f68 523F8DE2 		add	r3, sp, #328
 1196 0f6c 021183E0 		add	r1, r3, r2, lsl #2
 1197 0f70 053183E0 		add	r3, r3, r5, lsl #2
 1198 0f74 022089E0 		add	r2, r9, r2
 1199 0f78 240013E5 		ldr	r0, [r3, #-36]
 1200 0f7c 523F8DE2 		add	r3, sp, #328
 1201 0f80 50C011E5 		ldr	ip, [r1, #-80]
 1202 0f84 02E183E0 		add	lr, r3, r2, lsl #2
 1203 0f88 053183E0 		add	r3, r3, r5, lsl #2
 1204 0f8c 3C1013E5 		ldr	r1, [r3, #-60]
 1205 0f90 023045E2 		sub	r3, r5, #2
 1206 0f94 010073E3 		cmn	r3, #1
 1207 0f98 20000EE5 		str	r0, [lr, #-32]
 1208 0f9c 0E00A0E1 		mov	r0, lr
 1209 0fa0 52EF8DE2 		add	lr, sp, #328
 1210 0fa4 50C000E5 		str	ip, [r0, #-80]
 1211 0fa8 381000E5 		str	r1, [r0, #-56]
 1212 0fac 3700000A 		beq	.L350
 1213 0fb0 05218EE0 		add	r2, lr, r5, lsl #2
 1214 0fb4 03118EE0 		add	r1, lr, r3, lsl #2
 1215 0fb8 280012E5 		ldr	r0, [r2, #-40]
 1216 0fbc 0E20A0E1 		mov	r2, lr
 1217 0fc0 052182E0 		add	r2, r2, r5, lsl #2
 1218 0fc4 093083E0 		add	r3, r3, r9
 1219 0fc8 50C011E5 		ldr	ip, [r1, #-80]
 1220 0fcc 03E18EE0 		add	lr, lr, r3, lsl #2
 1221 0fd0 401012E5 		ldr	r1, [r2, #-64]
 1222 0fd4 032045E2 		sub	r2, r5, #3
 1223 0fd8 010072E3 		cmn	r2, #1
 1224 0fdc 20000EE5 		str	r0, [lr, #-32]
 1225 0fe0 0E00A0E1 		mov	r0, lr
 1226 0fe4 52EF8DE2 		add	lr, sp, #328
 1227 0fe8 50C000E5 		str	ip, [r0, #-80]
 1228 0fec 381000E5 		str	r1, [r0, #-56]
 1229 0ff0 2600000A 		beq	.L350
 1230 0ff4 05318EE0 		add	r3, lr, r5, lsl #2
 1231 0ff8 02118EE0 		add	r1, lr, r2, lsl #2
 1232 0ffc 2C0013E5 		ldr	r0, [r3, #-44]
 1233 1000 0E30A0E1 		mov	r3, lr
 1234 1004 053183E0 		add	r3, r3, r5, lsl #2
 1235 1008 092082E0 		add	r2, r2, r9
 1236 100c 50C011E5 		ldr	ip, [r1, #-80]
 1237 1010 02E18EE0 		add	lr, lr, r2, lsl #2
 1238 1014 441013E5 		ldr	r1, [r3, #-68]
 1239 1018 043045E2 		sub	r3, r5, #4
 1240 101c 010073E3 		cmn	r3, #1
 1241 1020 20000EE5 		str	r0, [lr, #-32]
 1242 1024 0E00A0E1 		mov	r0, lr
 1243 1028 52EF8DE2 		add	lr, sp, #328
 1244 102c 50C000E5 		str	ip, [r0, #-80]
 1245 1030 381000E5 		str	r1, [r0, #-56]
 1246 1034 1500000A 		beq	.L350
 1247 1038 05018EE0 		add	r0, lr, r5, lsl #2
 1248 103c 03118EE0 		add	r1, lr, r3, lsl #2
 1249 1040 30C010E5 		ldr	ip, [r0, #-48]
 1250 1044 093083E0 		add	r3, r3, r9
 1251 1048 482010E5 		ldr	r2, [r0, #-72]
 1252 104c 03E18EE0 		add	lr, lr, r3, lsl #2
 1253 1050 500011E5 		ldr	r0, [r1, #-80]
 1254 1054 040055E3 		cmp	r5, #4
 1255 1058 20C00EE5 		str	ip, [lr, #-32]
 1256 105c 525F8DE2 		add	r5, sp, #328
 1257 1060 38200EE5 		str	r2, [lr, #-56]
 1258 1064 50000EE5 		str	r0, [lr, #-80]
 1259 1068 0800000A 		beq	.L350
 1260 106c 28019DE5 		ldr	r0, [sp, #296]
 1261 1070 093185E0 		add	r3, r5, r9, lsl #2
 1262 1074 F8109DE5 		ldr	r1, [sp, #248]
 1263 1078 10219DE5 		ldr	r2, [sp, #272]
 1264 107c 200003E5 		str	r0, [r3, #-32]
 1265 1080 093185E0 		add	r3, r5, r9, lsl #2
 1266 1084 501003E5 		str	r1, [r3, #-80]
 1267 1088 093185E0 		add	r3, r5, r9, lsl #2
 1268 108c 382003E5 		str	r2, [r3, #-56]
 1269              	.L350:
 1270 1090 000059E3 		cmp	r9, #0
 1271 1094 1500000A 		beq	.L351
 1272 1098 0921A0E1 		lsl	r2, r9, #2
 1273 109c 0010A0E3 		mov	r1, #0
 1274 10a0 F8008DE2 		add	r0, sp, #248
 1275 10a4 FEFFFFEB 		bl	memset
 1276 10a8 010059E3 		cmp	r9, #1
 1277 10ac 0130A0E3 		mov	r3, #1
 1278 10b0 10318DE5 		str	r3, [sp, #272]
 1279 10b4 28318DE5 		str	r3, [sp, #296]
 1280 10b8 0C00000A 		beq	.L351
 1281 10bc 020059E3 		cmp	r9, #2
 1282 10c0 14318DE5 		str	r3, [sp, #276]
 1283 10c4 2C318DE5 		str	r3, [sp, #300]
 1284 10c8 0800000A 		beq	.L351
 1285 10cc 030059E3 		cmp	r9, #3
 1286 10d0 18318DE5 		str	r3, [sp, #280]
 1287 10d4 30318DE5 		str	r3, [sp, #304]
 1288 10d8 0400000A 		beq	.L351
 1289 10dc 040059E3 		cmp	r9, #4
 1290 10e0 1C318DE5 		str	r3, [sp, #284]
 1291 10e4 34318DE5 		str	r3, [sp, #308]
 1292 10e8 20318D15 		strne	r3, [sp, #288]
 1293 10ec 38318D15 		strne	r3, [sp, #312]
 1294              	.L351:
 1295 10f0 C4209DE5 		ldr	r2, [sp, #196]
 1296 10f4 0030E0E3 		mvn	r3, #0
 1297 10f8 1339E0E1 		mvn	r3, r3, lsl r9
 1298 10fc 1449A0E1 		lsl	r4, r4, r9
 1299 1100 04208DE5 		str	r2, [sp, #4]
 1300 1104 000052E3 		cmp	r2, #0
 1301 1108 08209DE5 		ldr	r2, [sp, #8]
 1302 110c 7330BFE6 		sxth	r3, r3
 1303 1110 7460BFE6 		sxth	r6, r4
 1304 1114 1B4983E1 		orr	r4, r3, fp, lsl r9
 1305 1118 123983E1 		orr	r3, r3, r2, lsl r9
 1306 111c 7440BFE6 		sxth	r4, r4
 1307 1120 7350BFE6 		sxth	r5, r3
 1308 1124 DD0200DA 		ble	.L1101
 1309 1128 04309DE5 		ldr	r3, [sp, #4]
 1310 112c 050053E3 		cmp	r3, #5
 1311 1130 C8309DC5 		ldrgt	r3, [sp, #200]
 1312 1134 C8C09DD5 		ldrle	ip, [sp, #200]
 1313 1138 00C093C5 		ldrgt	ip, [r3]
 1314 113c 00005CE3 		cmp	ip, #0
 1315 1140 D402000A 		beq	.L596
 1316 1144 010014E3 		tst	r4, #1
 1317 1148 28119DE5 		ldr	r1, [sp, #296]
 1318 114c F8209DE5 		ldr	r2, [sp, #248]
 1319 1150 CD02000A 		beq	.L355
 1320 1154 000051E3 		cmp	r1, #0
 1321 1158 0221A0C3 		movgt	r2, #-2147483648
 1322 115c C40200DA 		ble	.L1102
 1323              	.L356:
 1324 1160 0C2082E0 		add	r2, r2, ip
 1325              	.L359:
 1326 1164 000051E3 		cmp	r1, #0
 1327 1168 BB0200DA 		ble	.L360
 1328 116c 00005CE3 		cmp	ip, #0
 1329 1170 C30200BA 		blt	.L1103
 1330 1174 0C0052E1 		cmp	r2, ip
 1331 1178 0C30A0C1 		movgt	r3, ip
 1332 117c C23FC2D1 		bicle	r3, r2, r2, asr #31
 1333              	.L362:
 1334 1180 010016E3 		tst	r6, #1
 1335 1184 10219DE5 		ldr	r2, [sp, #272]
 1336 1188 B102001A 		bne	.L1104
 1337 118c 010015E3 		tst	r5, #1
 1338 1190 A402000A 		beq	.L364
 1339 1194 000051E3 		cmp	r1, #0
 1340 1198 0221A0D3 		movle	r2, #-2147483648
 1341 119c A30200DA 		ble	.L366
 1342 11a0 0221E0E3 		mvn	r2, #-2147483648
 1343              	.L365:
 1344 11a4 00005CE3 		cmp	ip, #0
 1345 11a8 9D0200BA 		blt	.L1105
 1346 11ac 02005CE1 		cmp	ip, r2
 1347 11b0 C2CFC2A1 		bicge	ip, r2, r2, asr #31
 1348              	.L354:
 1349 11b4 04209DE5 		ldr	r2, [sp, #4]
 1350 11b8 010052E3 		cmp	r2, #1
 1351 11bc 9702000A 		beq	.L1106
 1352 11c0 050052E3 		cmp	r2, #5
 1353 11c4 C8209DC5 		ldrgt	r2, [sp, #200]
 1354 11c8 CC209DD5 		ldrle	r2, [sp, #204]
 1355 11cc 042092C5 		ldrgt	r2, [r2, #4]
 1356 11d0 000052E3 		cmp	r2, #0
 1357 11d4 D605000A 		beq	.L601
 1358 11d8 020014E3 		tst	r4, #2
 1359 11dc 2C019DE5 		ldr	r0, [sp, #300]
 1360 11e0 FC109DE5 		ldr	r1, [sp, #252]
 1361 11e4 CF05000A 		beq	.L375
 1362 11e8 000050E3 		cmp	r0, #0
 1363 11ec 0211A0C3 		movgt	r1, #-2147483648
 1364 11f0 C70500DA 		ble	.L1107
 1365              	.L376:
 1366 11f4 021081E0 		add	r1, r1, r2
 1367              	.L379:
 1368 11f8 000050E3 		cmp	r0, #0
 1369 11fc BC0500DA 		ble	.L380
 1370 1200 000052E3 		cmp	r2, #0
 1371 1204 B80500BA 		blt	.L1108
 1372 1208 020051E1 		cmp	r1, r2
 1373 120c 18208DC5 		strgt	r2, [sp, #24]
 1374 1210 C11FC1D1 		bicle	r1, r1, r1, asr #31
 1375 1214 18108DD5 		strle	r1, [sp, #24]
 1376              	.L382:
 1377 1218 020016E3 		tst	r6, #2
 1378 121c 14119DE5 		ldr	r1, [sp, #276]
 1379 1220 AD05001A 		bne	.L1109
 1380 1224 020015E3 		tst	r5, #2
 1381 1228 9E05000A 		beq	.L384
 1382 122c 000050E3 		cmp	r0, #0
 1383 1230 0211A0D3 		movle	r1, #-2147483648
 1384 1234 9D0500DA 		ble	.L386
 1385 1238 0211E0E3 		mvn	r1, #-2147483648
 1386              	.L385:
 1387 123c 000052E3 		cmp	r2, #0
 1388 1240 C50500BA 		blt	.L1110
 1389 1244 020051E1 		cmp	r1, r2
 1390 1248 34208DC5 		strgt	r2, [sp, #52]
 1391 124c C11FC1D1 		bicle	r1, r1, r1, asr #31
 1392 1250 34108DD5 		strle	r1, [sp, #52]
 1393              	.L374:
 1394 1254 04109DE5 		ldr	r1, [sp, #4]
 1395 1258 020051E3 		cmp	r1, #2
 1396 125c BD05000A 		beq	.L1111
 1397 1260 050051E3 		cmp	r1, #5
 1398 1264 C8109DC5 		ldrgt	r1, [sp, #200]
 1399 1268 D0109DD5 		ldrle	r1, [sp, #208]
 1400 126c 081091C5 		ldrgt	r1, [r1, #8]
 1401 1270 000051E3 		cmp	r1, #0
 1402 1274 B405000A 		beq	.L606
 1403 1278 040014E3 		tst	r4, #4
 1404 127c 30E19DE5 		ldr	lr, [sp, #304]
 1405 1280 00019DE5 		ldr	r0, [sp, #256]
 1406 1284 AD05000A 		beq	.L395
 1407 1288 00005EE3 		cmp	lr, #0
 1408 128c 0201A0C3 		movgt	r0, #-2147483648
 1409 1290 BA0500DA 		ble	.L1112
 1410              	.L396:
 1411 1294 010080E0 		add	r0, r0, r1
 1412              	.L399:
 1413 1298 00005EE3 		cmp	lr, #0
 1414 129c AF0500DA 		ble	.L400
 1415 12a0 000051E3 		cmp	r1, #0
 1416 12a4 BA0500BA 		blt	.L1113
 1417 12a8 010050E1 		cmp	r0, r1
 1418 12ac 14108DC5 		strgt	r1, [sp, #20]
 1419 12b0 C00FC0D1 		bicle	r0, r0, r0, asr #31
 1420 12b4 14008DD5 		strle	r0, [sp, #20]
 1421              	.L402:
 1422 12b8 040016E3 		tst	r6, #4
 1423 12bc 18019DE5 		ldr	r0, [sp, #280]
 1424 12c0 D001001A 		bne	.L1114
 1425 12c4 040015E3 		tst	r5, #4
 1426 12c8 C101000A 		beq	.L404
 1427 12cc 00005EE3 		cmp	lr, #0
 1428 12d0 0201A0D3 		movle	r0, #-2147483648
 1429 12d4 C00100DA 		ble	.L406
 1430 12d8 0201E0E3 		mvn	r0, #-2147483648
 1431              	.L405:
 1432 12dc 000051E3 		cmp	r1, #0
 1433 12e0 BA0100BA 		blt	.L1115
 1434 12e4 010050E1 		cmp	r0, r1
 1435 12e8 38108DC5 		strgt	r1, [sp, #56]
 1436 12ec C01FC0D1 		bicle	r1, r0, r0, asr #31
 1437 12f0 38108DD5 		strle	r1, [sp, #56]
 1438              	.L394:
 1439 12f4 04109DE5 		ldr	r1, [sp, #4]
 1440 12f8 030051E3 		cmp	r1, #3
 1441 12fc B201000A 		beq	.L1116
 1442 1300 050051E3 		cmp	r1, #5
 1443 1304 C8109DC5 		ldrgt	r1, [sp, #200]
 1444 1308 D4109DD5 		ldrle	r1, [sp, #212]
 1445 130c 0C1091C5 		ldrgt	r1, [r1, #12]
 1446 1310 000051E3 		cmp	r1, #0
 1447 1314 A901000A 		beq	.L611
 1448 1318 080014E3 		tst	r4, #8
 1449 131c 34E19DE5 		ldr	lr, [sp, #308]
 1450 1320 04019DE5 		ldr	r0, [sp, #260]
 1451 1324 A201000A 		beq	.L415
 1452 1328 00005EE3 		cmp	lr, #0
 1453 132c 0201A0C3 		movgt	r0, #-2147483648
 1454 1330 9A0100DA 		ble	.L1117
 1455              	.L416:
 1456 1334 010080E0 		add	r0, r0, r1
 1457              	.L419:
 1458 1338 00005EE3 		cmp	lr, #0
 1459 133c 8F0100DA 		ble	.L420
 1460 1340 000051E3 		cmp	r1, #0
 1461 1344 8B0100BA 		blt	.L1118
 1462 1348 010050E1 		cmp	r0, r1
 1463 134c 08108DC5 		strgt	r1, [sp, #8]
 1464 1350 C00FC0D1 		bicle	r0, r0, r0, asr #31
 1465 1354 08008DD5 		strle	r0, [sp, #8]
 1466              	.L422:
 1467 1358 080016E3 		tst	r6, #8
 1468 135c 1C019DE5 		ldr	r0, [sp, #284]
 1469 1360 8001001A 		bne	.L1119
 1470 1364 080015E3 		tst	r5, #8
 1471 1368 7101000A 		beq	.L424
 1472 136c 00005EE3 		cmp	lr, #0
 1473 1370 0201A0D3 		movle	r0, #-2147483648
 1474 1374 700100DA 		ble	.L426
 1475 1378 0201E0E3 		mvn	r0, #-2147483648
 1476              	.L425:
 1477 137c 000051E3 		cmp	r1, #0
 1478 1380 6A0100BA 		blt	.L1120
 1479 1384 000051E1 		cmp	r1, r0
 1480 1388 0C108DB5 		strlt	r1, [sp, #12]
 1481 138c C01FC0A1 		bicge	r1, r0, r0, asr #31
 1482 1390 0C108DA5 		strge	r1, [sp, #12]
 1483              	.L414:
 1484 1394 04109DE5 		ldr	r1, [sp, #4]
 1485 1398 040051E3 		cmp	r1, #4
 1486 139c 6201000A 		beq	.L1121
 1487 13a0 050051E3 		cmp	r1, #5
 1488 13a4 5701001A 		bne	.L1122
 1489 13a8 D8109DE5 		ldr	r1, [sp, #216]
 1490 13ac 000051E3 		cmp	r1, #0
 1491 13b0 20108DE5 		str	r1, [sp, #32]
 1492 13b4 4F01000A 		beq	.L617
 1493              	.L434:
 1494 13b8 100014E3 		tst	r4, #16
 1495 13bc 38919DE5 		ldr	r9, [sp, #312]
 1496 13c0 08019DE5 		ldr	r0, [sp, #264]
 1497 13c4 4801000A 		beq	.L436
 1498 13c8 000059E3 		cmp	r9, #0
 1499 13cc 0201A0C3 		movgt	r0, #-2147483648
 1500 13d0 410100DA 		ble	.L1123
 1501              	.L437:
 1502 13d4 010080E0 		add	r0, r0, r1
 1503              	.L440:
 1504 13d8 000059E3 		cmp	r9, #0
 1505 13dc 380100DA 		ble	.L441
 1506 13e0 000051E3 		cmp	r1, #0
 1507 13e4 350100BA 		blt	.L1124
 1508 13e8 000051E1 		cmp	r1, r0
 1509 13ec 01B0A0B1 		movlt	fp, r1
 1510 13f0 C0BFC0A1 		bicge	fp, r0, r0, asr #31
 1511              	.L443:
 1512 13f4 100016E3 		tst	r6, #16
 1513 13f8 20019DE5 		ldr	r0, [sp, #288]
 1514 13fc 2C01001A 		bne	.L1125
 1515 1400 100015E3 		tst	r5, #16
 1516 1404 1E01000A 		beq	.L446
 1517 1408 000059E3 		cmp	r9, #0
 1518 140c 0201A0D3 		movle	r0, #-2147483648
 1519 1410 1D0100DA 		ble	.L448
 1520 1414 0201E0E3 		mvn	r0, #-2147483648
 1521              	.L447:
 1522 1418 000051E3 		cmp	r1, #0
 1523 141c 170100BA 		blt	.L1126
 1524 1420 000051E1 		cmp	r1, r0
 1525 1424 0160A0B1 		movlt	r6, r1
 1526 1428 C06FC0A1 		bicge	r6, r0, r0, asr #31
 1527              	.L445:
 1528 142c 04109DE5 		ldr	r1, [sp, #4]
 1529 1430 050051E3 		cmp	r1, #5
 1530 1434 0601001A 		bne	.L929
 1531 1438 D8109DE5 		ldr	r1, [sp, #216]
 1532 143c 20108DE5 		str	r1, [sp, #32]
 1533              	.L435:
 1534 1440 930203E0 		mul	r3, r3, r2
 1535 1444 28308DE5 		str	r3, [sp, #40]
 1536 1448 28319DE5 		ldr	r3, [sp, #296]
 1537 144c 50308DE5 		str	r3, [sp, #80]
 1538 1450 C8309DE5 		ldr	r3, [sp, #200]
 1539 1454 3C308DE5 		str	r3, [sp, #60]
 1540 1458 920C03E0 		mul	r3, r2, ip
 1541 145c 4C308DE5 		str	r3, [sp, #76]
 1542              	.L453:
 1543 1460 D0309DE5 		ldr	r3, [sp, #208]
 1544 1464 28009DE5 		ldr	r0, [sp, #40]
 1545 1468 18C09DE5 		ldr	ip, [sp, #24]
 1546 146c 0310A0E1 		mov	r1, r3
 1547 1470 78308DE5 		str	r3, [sp, #120]
 1548 1474 34E09DE5 		ldr	lr, [sp, #52]
 1549 1478 00308CE0 		add	r3, ip, r0
 1550 147c 50C09DE5 		ldr	ip, [sp, #80]
 1551 1480 34819DE5 		ldr	r8, [sp, #308]
 1552 1484 9C0202E0 		mul	r2, ip, r2
 1553 1488 02C0A0E1 		mov	ip, r2
 1554 148c 70208DE5 		str	r2, [sp, #112]
 1555 1490 00208EE0 		add	r2, lr, r0
 1556 1494 2C019DE5 		ldr	r0, [sp, #300]
 1557 1498 032042E0 		sub	r2, r2, r3
 1558 149c 910303E0 		mul	r3, r1, r3
 1559 14a0 910202E0 		mul	r2, r1, r2
 1560 14a4 5C008DE5 		str	r0, [sp, #92]
 1561 14a8 D4009DE5 		ldr	r0, [sp, #212]
 1562 14ac 44308DE5 		str	r3, [sp, #68]
 1563 14b0 910C03E0 		mul	r3, r1, ip
 1564 14b4 0710A0E1 		mov	r1, r7
 1565 14b8 0A70A0E1 		mov	r7, r10
 1566 14bc 60208DE5 		str	r2, [sp, #96]
 1567 14c0 06A0A0E1 		mov	r10, r6
 1568 14c4 30219DE5 		ldr	r2, [sp, #304]
 1569 14c8 58008DE5 		str	r0, [sp, #88]
 1570 14cc 64308DE5 		str	r3, [sp, #100]
 1571 14d0 10208DE5 		str	r2, [sp, #16]
 1572              	.L479:
 1573 14d4 50309DE5 		ldr	r3, [sp, #80]
 1574 14d8 4C209DE5 		ldr	r2, [sp, #76]
 1575 14dc 000053E3 		cmp	r3, #0
 1576 14e0 28309DE5 		ldr	r3, [sp, #40]
 1577 14e4 D60000DA 		ble	.L454
 1578 14e8 020053E1 		cmp	r3, r2
 1579 14ec 0030A0B3 		movlt	r3, #0
 1580 14f0 0130A0A3 		movge	r3, #1
 1581              	.L455:
 1582 14f4 000053E3 		cmp	r3, #0
 1583 14f8 B300001A 		bne	.L456
 1584 14fc 04309DE5 		ldr	r3, [sp, #4]
 1585 1500 18209DE5 		ldr	r2, [sp, #24]
 1586 1504 050053E3 		cmp	r3, #5
 1587 1508 28309DE5 		ldr	r3, [sp, #40]
 1588 150c 020083E0 		add	r0, r3, r2
 1589 1510 A300001A 		bne	.L1127
 1590 1514 44309DE5 		ldr	r3, [sp, #68]
 1591 1518 60209DE5 		ldr	r2, [sp, #96]
 1592 151c 2C308DE5 		str	r3, [sp, #44]
 1593 1520 033082E0 		add	r3, r2, r3
 1594 1524 54308DE5 		str	r3, [sp, #84]
 1595 1528 78309DE5 		ldr	r3, [sp, #120]
 1596              	.L458:
 1597 152c 5C209DE5 		ldr	r2, [sp, #92]
 1598 1530 38009DE5 		ldr	r0, [sp, #56]
 1599 1534 920303E0 		mul	r3, r2, r3
 1600 1538 14209DE5 		ldr	r2, [sp, #20]
 1601 153c 03C0A0E1 		mov	ip, r3
 1602 1540 74308DE5 		str	r3, [sp, #116]
 1603 1544 2C309DE5 		ldr	r3, [sp, #44]
 1604 1548 032082E0 		add	r2, r2, r3
 1605 154c 003083E0 		add	r3, r3, r0
 1606 1550 58009DE5 		ldr	r0, [sp, #88]
 1607 1554 023043E0 		sub	r3, r3, r2
 1608 1558 900303E0 		mul	r3, r0, r3
 1609 155c 900202E0 		mul	r2, r0, r2
 1610 1560 6C308DE5 		str	r3, [sp, #108]
 1611 1564 900C03E0 		mul	r3, r0, ip
 1612 1568 48208DE5 		str	r2, [sp, #72]
 1613 156c 68308DE5 		str	r3, [sp, #104]
 1614              	.L478:
 1615 1570 5C309DE5 		ldr	r3, [sp, #92]
 1616 1574 54209DE5 		ldr	r2, [sp, #84]
 1617 1578 000053E3 		cmp	r3, #0
 1618 157c 2C309DE5 		ldr	r3, [sp, #44]
 1619 1580 790000DA 		ble	.L459
 1620 1584 020053E1 		cmp	r3, r2
 1621 1588 0030A0B3 		movlt	r3, #0
 1622 158c 0130A0A3 		movge	r3, #1
 1623 1590 000053E3 		cmp	r3, #0
 1624 1594 7900001A 		bne	.L461
 1625              	.L1136:
 1626 1598 04309DE5 		ldr	r3, [sp, #4]
 1627 159c 14209DE5 		ldr	r2, [sp, #20]
 1628 15a0 050053E3 		cmp	r3, #5
 1629 15a4 2C309DE5 		ldr	r3, [sp, #44]
 1630 15a8 025083E0 		add	r5, r3, r2
 1631 15ac 6500001A 		bne	.L1128
 1632 15b0 48309DE5 		ldr	r3, [sp, #72]
 1633 15b4 6C209DE5 		ldr	r2, [sp, #108]
 1634 15b8 0350A0E1 		mov	r5, r3
 1635 15bc 023083E0 		add	r3, r3, r2
 1636 15c0 1C308DE5 		str	r3, [sp, #28]
 1637 15c4 58309DE5 		ldr	r3, [sp, #88]
 1638              	.L463:
 1639 15c8 10209DE5 		ldr	r2, [sp, #16]
 1640 15cc 920303E0 		mul	r3, r2, r3
 1641 15d0 20209DE5 		ldr	r2, [sp, #32]
 1642 15d4 0300A0E1 		mov	r0, r3
 1643 15d8 30308DE5 		str	r3, [sp, #48]
 1644 15dc 08309DE5 		ldr	r3, [sp, #8]
 1645 15e0 056083E0 		add	r6, r3, r5
 1646 15e4 0C309DE5 		ldr	r3, [sp, #12]
 1647 15e8 053083E0 		add	r3, r3, r5
 1648 15ec 063043E0 		sub	r3, r3, r6
 1649 15f0 920606E0 		mul	r6, r2, r6
 1650 15f4 920303E0 		mul	r3, r2, r3
 1651 15f8 40308DE5 		str	r3, [sp, #64]
 1652 15fc 920003E0 		mul	r3, r2, r0
 1653 1600 24308DE5 		str	r3, [sp, #36]
 1654 1604 10309DE5 		ldr	r3, [sp, #16]
 1655 1608 000053E3 		cmp	r3, #0
 1656 160c 1C309DE5 		ldr	r3, [sp, #28]
 1657 1610 360000DA 		ble	.L464
 1658              	.L1132:
 1659 1614 030055E1 		cmp	r5, r3
 1660 1618 0030A0B3 		movlt	r3, #0
 1661 161c 0130A0A3 		movge	r3, #1
 1662 1620 000053E3 		cmp	r3, #0
 1663 1624 3600001A 		bne	.L466
 1664              	.L1133:
 1665 1628 04309DE5 		ldr	r3, [sp, #4]
 1666 162c 050053E3 		cmp	r3, #5
 1667 1630 08309DE5 		ldr	r3, [sp, #8]
 1668 1634 20E09D05 		ldreq	lr, [sp, #32]
 1669 1638 03C085E0 		add	ip, r5, r3
 1670 163c 3C309D15 		ldrne	r3, [sp, #60]
 1671 1640 40309D05 		ldreq	r3, [sp, #64]
 1672 1644 06C0A001 		moveq	ip, r6
 1673 1648 10E09315 		ldrne	lr, [r3, #16]
 1674 164c 0C309D15 		ldrne	r3, [sp, #12]
 1675 1650 03408600 		addeq	r4, r6, r3
 1676 1654 03408510 		addne	r4, r5, r3
 1677 1658 9E0C0C10 		mulne	ip, lr, ip
 1678 165c 9E040410 		mulne	r4, lr, r4
 1679 1660 000058E3 		cmp	r8, #0
 1680 1664 980E0EE0 		mul	lr, r8, lr
 1681 1668 130000DA 		ble	.L469
 1682              	.L1130:
 1683 166c 04005CE1 		cmp	ip, r4
 1684 1670 0030A0B3 		movlt	r3, #0
 1685 1674 0130A0A3 		movge	r3, #1
 1686 1678 000053E3 		cmp	r3, #0
 1687 167c 1300001A 		bne	.L471
 1688              	.L1131:
 1689 1680 000059E3 		cmp	r9, #0
 1690 1684 0120A0E1 		mov	r2, r1
 1691 1688 0C308BE0 		add	r3, fp, ip
 1692 168c 0C008AE0 		add	r0, r10, ip
 1693 1690 030000CA 		bgt	.L475
 1694 1694 260000EA 		b	.L474
 1695              	.L1129:
 1696 1698 D31097E1 		ldrsb	r1, [r7, r3]
 1697 169c 093083E0 		add	r3, r3, r9
 1698 16a0 0110C2E4 		strb	r1, [r2], #1
 1699              	.L475:
 1700 16a4 000053E1 		cmp	r3, r0
 1701 16a8 0210A0E1 		mov	r1, r2
 1702 16ac F9FFFFBA 		blt	.L1129
 1703 16b0 0EC08CE0 		add	ip, ip, lr
 1704              	.L1135:
 1705 16b4 000058E3 		cmp	r8, #0
 1706 16b8 EBFFFFCA 		bgt	.L1130
 1707              	.L469:
 1708 16bc 04005CE1 		cmp	ip, r4
 1709 16c0 0030A0C3 		movgt	r3, #0
 1710 16c4 0130A0D3 		movle	r3, #1
 1711 16c8 000053E3 		cmp	r3, #0
 1712 16cc EBFFFF0A 		beq	.L1131
 1713              	.L471:
 1714 16d0 30309DE5 		ldr	r3, [sp, #48]
 1715 16d4 035085E0 		add	r5, r5, r3
 1716 16d8 24309DE5 		ldr	r3, [sp, #36]
 1717 16dc 036086E0 		add	r6, r6, r3
 1718 16e0 10309DE5 		ldr	r3, [sp, #16]
 1719 16e4 000053E3 		cmp	r3, #0
 1720 16e8 1C309DE5 		ldr	r3, [sp, #28]
 1721 16ec C8FFFFCA 		bgt	.L1132
 1722              	.L464:
 1723 16f0 030055E1 		cmp	r5, r3
 1724 16f4 0030A0C3 		movgt	r3, #0
 1725 16f8 0130A0D3 		movle	r3, #1
 1726 16fc 000053E3 		cmp	r3, #0
 1727 1700 C8FFFF0A 		beq	.L1133
 1728              	.L466:
 1729 1704 2C309DE5 		ldr	r3, [sp, #44]
 1730 1708 74209DE5 		ldr	r2, [sp, #116]
 1731 170c 023083E0 		add	r3, r3, r2
 1732 1710 68209DE5 		ldr	r2, [sp, #104]
 1733 1714 2C308DE5 		str	r3, [sp, #44]
 1734 1718 48309DE5 		ldr	r3, [sp, #72]
 1735 171c 023083E0 		add	r3, r3, r2
 1736 1720 48308DE5 		str	r3, [sp, #72]
 1737 1724 91FFFFEA 		b	.L478
 1738              	.L1134:
 1739 1728 D31097E1 		ldrsb	r1, [r7, r3]
 1740 172c 093083E0 		add	r3, r3, r9
 1741 1730 0110C2E4 		strb	r1, [r2], #1
 1742              	.L474:
 1743 1734 030050E1 		cmp	r0, r3
 1744 1738 0210A0E1 		mov	r1, r2
 1745 173c F9FFFFBA 		blt	.L1134
 1746 1740 0EC08CE0 		add	ip, ip, lr
 1747 1744 DAFFFFEA 		b	.L1135
 1748              	.L1128:
 1749 1748 0320A0E1 		mov	r2, r3
 1750 174c 3C309DE5 		ldr	r3, [sp, #60]
 1751 1750 38009DE5 		ldr	r0, [sp, #56]
 1752 1754 0C3093E5 		ldr	r3, [r3, #12]
 1753 1758 002082E0 		add	r2, r2, r0
 1754 175c 930202E0 		mul	r2, r3, r2
 1755 1760 930505E0 		mul	r5, r3, r5
 1756 1764 1C208DE5 		str	r2, [sp, #28]
 1757 1768 96FFFFEA 		b	.L463
 1758              	.L459:
 1759 176c 020053E1 		cmp	r3, r2
 1760 1770 0030A0C3 		movgt	r3, #0
 1761 1774 0130A0D3 		movle	r3, #1
 1762 1778 000053E3 		cmp	r3, #0
 1763 177c 85FFFF0A 		beq	.L1136
 1764              	.L461:
 1765 1780 28309DE5 		ldr	r3, [sp, #40]
 1766 1784 70209DE5 		ldr	r2, [sp, #112]
 1767 1788 023083E0 		add	r3, r3, r2
 1768 178c 64209DE5 		ldr	r2, [sp, #100]
 1769 1790 28308DE5 		str	r3, [sp, #40]
 1770 1794 44309DE5 		ldr	r3, [sp, #68]
 1771 1798 023083E0 		add	r3, r3, r2
 1772 179c 44308DE5 		str	r3, [sp, #68]
 1773 17a0 4BFFFFEA 		b	.L479
 1774              	.L1127:
 1775 17a4 03C0A0E1 		mov	ip, r3
 1776 17a8 3C309DE5 		ldr	r3, [sp, #60]
 1777 17ac 34209DE5 		ldr	r2, [sp, #52]
 1778 17b0 083093E5 		ldr	r3, [r3, #8]
 1779 17b4 0C2082E0 		add	r2, r2, ip
 1780 17b8 930000E0 		mul	r0, r3, r0
 1781 17bc 930202E0 		mul	r2, r3, r2
 1782 17c0 2C008DE5 		str	r0, [sp, #44]
 1783 17c4 54208DE5 		str	r2, [sp, #84]
 1784 17c8 57FFFFEA 		b	.L458
 1785              	.L456:
 1786 17cc DC309DE5 		ldr	r3, [sp, #220]
 1787 17d0 050053E3 		cmp	r3, #5
 1788 17d4 030000DA 		ble	.L480
 1789 17d8 E0009DE5 		ldr	r0, [sp, #224]
 1790 17dc 000050E3 		cmp	r0, #0
 1791 17e0 0000000A 		beq	.L480
 1792 17e4 FEFFFFEB 		bl	_ZdaPv
 1793              	.L480:
 1794 17e8 04309DE5 		ldr	r3, [sp, #4]
 1795 17ec 050053E3 		cmp	r3, #5
 1796 17f0 0300000A 		beq	.L481
 1797              	.L973:
 1798 17f4 C8009DE5 		ldr	r0, [sp, #200]
 1799 17f8 000050E3 		cmp	r0, #0
 1800 17fc 0000000A 		beq	.L481
 1801 1800 FEFFFFEB 		bl	_ZdaPv
 1802              	.L481:
 1803 1804 AC309DE5 		ldr	r3, [sp, #172]
 1804 1808 050053E3 		cmp	r3, #5
 1805 180c 030000DA 		ble	.L483
 1806 1810 B0009DE5 		ldr	r0, [sp, #176]
 1807 1814 000050E3 		cmp	r0, #0
 1808 1818 0000000A 		beq	.L483
 1809 181c FEFFFFEB 		bl	_ZdaPv
 1810              	.L483:
 1811 1820 94309DE5 		ldr	r3, [sp, #148]
 1812 1824 050053E3 		cmp	r3, #5
 1813 1828 030000DA 		ble	.L491
 1814 182c 98009DE5 		ldr	r0, [sp, #152]
 1815 1830 000050E3 		cmp	r0, #0
 1816 1834 0000000A 		beq	.L491
 1817 1838 FEFFFFEB 		bl	_ZdaPv
 1818              	.L491:
 1819 183c 0000A0E3 		mov	r0, #0
 1820 1840 0AFAFFEA 		b	.L907
 1821              	.L454:
 1822 1844 020053E1 		cmp	r3, r2
 1823 1848 0030A0C3 		movgt	r3, #0
 1824 184c 0130A0D3 		movle	r3, #1
 1825 1850 27FFFFEA 		b	.L455
 1826              	.L929:
 1827 1854 C8109DE5 		ldr	r1, [sp, #200]
 1828 1858 3C108DE5 		str	r1, [sp, #60]
 1829              	.L433:
 1830 185c 930203E0 		mul	r3, r3, r2
 1831 1860 28308DE5 		str	r3, [sp, #40]
 1832 1864 28319DE5 		ldr	r3, [sp, #296]
 1833 1868 50308DE5 		str	r3, [sp, #80]
 1834 186c D8309DE5 		ldr	r3, [sp, #216]
 1835 1870 20308DE5 		str	r3, [sp, #32]
 1836 1874 920C03E0 		mul	r3, r2, ip
 1837 1878 4C308DE5 		str	r3, [sp, #76]
 1838 187c F7FEFFEA 		b	.L453
 1839              	.L1126:
 1840              	.LEHB20:
 1841 1880 FEFFFFEB 		bl	abort
 1842              	.L446:
 1843 1884 000050E3 		cmp	r0, #0
 1844 1888 000000AA 		bge	.L449
 1845              	.L448:
 1846 188c 010080E0 		add	r0, r0, r1
 1847              	.L449:
 1848 1890 000059E3 		cmp	r9, #0
 1849 1894 DFFEFFCA 		bgt	.L447
 1850 1898 016041E2 		sub	r6, r1, #1
 1851 189c 010076E3 		cmn	r6, #1
 1852 18a0 050000BA 		blt	.L1137
 1853 18a4 060050E1 		cmp	r0, r6
 1854 18a8 C06F80D1 		orrle	r6, r0, r0, asr #31
 1855 18ac DEFEFFEA 		b	.L445
 1856              	.L633:
 1857 18b0 22FDFFEA 		b	.L990
 1858              	.L1125:
 1859 18b4 01608BE2 		add	r6, fp, #1
 1860 18b8 DBFEFFEA 		b	.L445
 1861              	.L1137:
 1862 18bc FEFFFFEB 		bl	abort
 1863              	.L1124:
 1864 18c0 FEFFFFEB 		bl	abort
 1865              	.L441:
 1866 18c4 01B041E2 		sub	fp, r1, #1
 1867 18c8 01007BE3 		cmn	fp, #1
 1868 18cc 050000BA 		blt	.L542
 1869 18d0 0B0050E1 		cmp	r0, fp
 1870 18d4 C0BF80D1 		orrle	fp, r0, r0, asr #31
 1871 18d8 C5FEFFEA 		b	.L443
 1872              	.L1123:
 1873 18dc 01B041E2 		sub	fp, r1, #1
 1874 18e0 01007BE3 		cmn	fp, #1
 1875 18e4 C2FEFFAA 		bge	.L443
 1876              	.L542:
 1877 18e8 FEFFFFEB 		bl	abort
 1878              	.L436:
 1879 18ec 000050E3 		cmp	r0, #0
 1880 18f0 B8FEFFAA 		bge	.L440
 1881 18f4 B6FEFFEA 		b	.L437
 1882              	.L617:
 1883 18f8 01B0A0E1 		mov	fp, r1
 1884 18fc 38919DE5 		ldr	r9, [sp, #312]
 1885 1900 0160A0E1 		mov	r6, r1
 1886 1904 CDFEFFEA 		b	.L435
 1887              	.L1122:
 1888 1908 C8109DE5 		ldr	r1, [sp, #200]
 1889 190c 3C108DE5 		str	r1, [sp, #60]
 1890 1910 101091E5 		ldr	r1, [r1, #16]
 1891 1914 000051E3 		cmp	r1, #0
 1892 1918 A6FEFF1A 		bne	.L434
 1893 191c 38919DE5 		ldr	r9, [sp, #312]
 1894 1920 0160A0E1 		mov	r6, r1
 1895 1924 01B0A0E1 		mov	fp, r1
 1896 1928 CBFFFFEA 		b	.L433
 1897              	.L1121:
 1898 192c FEFFFFEB 		bl	abort
 1899              	.L1120:
 1900 1930 FEFFFFEB 		bl	abort
 1901              	.L424:
 1902 1934 000050E3 		cmp	r0, #0
 1903 1938 000000AA 		bge	.L427
 1904              	.L426:
 1905 193c 010080E0 		add	r0, r0, r1
 1906              	.L427:
 1907 1940 00005EE3 		cmp	lr, #0
 1908 1944 8CFEFFCA 		bgt	.L425
 1909 1948 011041E2 		sub	r1, r1, #1
 1910 194c 010071E3 		cmn	r1, #1
 1911 1950 0C108DE5 		str	r1, [sp, #12]
 1912 1954 080000BA 		blt	.L1138
 1913 1958 010050E1 		cmp	r0, r1
 1914 195c C01F80D1 		orrle	r1, r0, r0, asr #31
 1915 1960 0C108DD5 		strle	r1, [sp, #12]
 1916 1964 8AFEFFEA 		b	.L414
 1917              	.L1119:
 1918 1968 08109DE5 		ldr	r1, [sp, #8]
 1919 196c 011081E2 		add	r1, r1, #1
 1920 1970 0C108DE5 		str	r1, [sp, #12]
 1921 1974 86FEFFEA 		b	.L414
 1922              	.L1118:
 1923 1978 FEFFFFEB 		bl	abort
 1924              	.L1138:
 1925 197c FEFFFFEB 		bl	abort
 1926              	.L420:
 1927 1980 018041E2 		sub	r8, r1, #1
 1928 1984 010078E3 		cmn	r8, #1
 1929 1988 08808DE5 		str	r8, [sp, #8]
 1930 198c 070000BA 		blt	.L541
 1931 1990 080050E1 		cmp	r0, r8
 1932 1994 C00F80D1 		orrle	r0, r0, r0, asr #31
 1933 1998 08008DD5 		strle	r0, [sp, #8]
 1934 199c 6DFEFFEA 		b	.L422
 1935              	.L1117:
 1936 19a0 010041E2 		sub	r0, r1, #1
 1937 19a4 010070E3 		cmn	r0, #1
 1938 19a8 08008DE5 		str	r0, [sp, #8]
 1939 19ac 69FEFFAA 		bge	.L422
 1940              	.L541:
 1941 19b0 FEFFFFEB 		bl	abort
 1942              	.L415:
 1943 19b4 000050E3 		cmp	r0, #0
 1944 19b8 5EFEFFAA 		bge	.L419
 1945 19bc 5CFEFFEA 		b	.L416
 1946              	.L611:
 1947 19c0 08108DE5 		str	r1, [sp, #8]
 1948 19c4 0C108DE5 		str	r1, [sp, #12]
 1949 19c8 71FEFFEA 		b	.L414
 1950              	.L1116:
 1951 19cc FEFFFFEB 		bl	abort
 1952              	.L1115:
 1953 19d0 FEFFFFEB 		bl	abort
 1954              	.LEHE20:
 1955              	.L404:
 1956 19d4 000050E3 		cmp	r0, #0
 1957 19d8 000000AA 		bge	.L407
 1958              	.L406:
 1959 19dc 010080E0 		add	r0, r0, r1
 1960              	.L407:
 1961 19e0 00005EE3 		cmp	lr, #0
 1962 19e4 3CFEFFCA 		bgt	.L405
 1963 19e8 011041E2 		sub	r1, r1, #1
 1964 19ec 010071E3 		cmn	r1, #1
 1965 19f0 38108DE5 		str	r1, [sp, #56]
 1966 19f4 E70300BA 		blt	.L1139
 1967 19f8 010050E1 		cmp	r0, r1
 1968 19fc C01F80D1 		orrle	r1, r0, r0, asr #31
 1969 1a00 38108DD5 		strle	r1, [sp, #56]
 1970 1a04 3AFEFFEA 		b	.L394
 1971              	.L1114:
 1972 1a08 14109DE5 		ldr	r1, [sp, #20]
 1973 1a0c 011081E2 		add	r1, r1, #1
 1974 1a10 38108DE5 		str	r1, [sp, #56]
 1975 1a14 36FEFFEA 		b	.L394
 1976              	.L1080:
 1977 1a18 14009DE5 		ldr	r0, [sp, #20]
 1978 1a1c 010080E2 		add	r0, r0, #1
 1979 1a20 4C008DE5 		str	r0, [sp, #76]
 1980 1a24 96FBFFEA 		b	.L96
 1981              	.L1079:
 1982              	.LEHB21:
 1983 1a28 FEFFFFEB 		bl	abort
 1984              	.L102:
 1985 1a2c 018048E2 		sub	r8, r8, #1
 1986 1a30 010078E3 		cmn	r8, #1
 1987 1a34 14808DE5 		str	r8, [sp, #20]
 1988 1a38 080000BA 		blt	.L531
 1989 1a3c 080050E1 		cmp	r0, r8
 1990 1a40 C00F80D1 		orrle	r0, r0, r0, asr #31
 1991 1a44 14008DD5 		strle	r0, [sp, #20]
 1992 1a48 7CFBFFEA 		b	.L104
 1993              	.L1078:
 1994 1a4c 1C009DE5 		ldr	r0, [sp, #28]
 1995 1a50 010040E2 		sub	r0, r0, #1
 1996 1a54 010070E3 		cmn	r0, #1
 1997 1a58 14008DE5 		str	r0, [sp, #20]
 1998 1a5c 77FBFFAA 		bge	.L104
 1999              	.L531:
 2000 1a60 FEFFFFEB 		bl	abort
 2001              	.L97:
 2002 1a64 000050E3 		cmp	r0, #0
 2003 1a68 6AFBFFAA 		bge	.L101
 2004 1a6c 67FBFFEA 		b	.L98
 2005              	.L559:
 2006 1a70 14008DE5 		str	r0, [sp, #20]
 2007 1a74 4C008DE5 		str	r0, [sp, #76]
 2008 1a78 81FBFFEA 		b	.L96
 2009              	.L1077:
 2010 1a7c FEFFFFEB 		bl	abort
 2011              	.L1076:
 2012 1a80 FEFFFFEB 		bl	abort
 2013              	.L86:
 2014 1a84 000050E3 		cmp	r0, #0
 2015 1a88 000000AA 		bge	.L89
 2016              	.L88:
 2017 1a8c 030080E0 		add	r0, r0, r3
 2018              	.L89:
 2019 1a90 000054E3 		cmp	r4, #0
 2020 1a94 46FBFFCA 		bgt	.L87
 2021 1a98 014043E2 		sub	r4, r3, #1
 2022 1a9c 010074E3 		cmn	r4, #1
 2023 1aa0 48408DE5 		str	r4, [sp, #72]
 2024 1aa4 080000BA 		blt	.L1140
 2025 1aa8 040050E1 		cmp	r0, r4
 2026 1aac C00F80D1 		orrle	r0, r0, r0, asr #31
 2027 1ab0 48008DD5 		strle	r0, [sp, #72]
 2028 1ab4 44FBFFEA 		b	.L76
 2029              	.L1075:
 2030 1ab8 28009DE5 		ldr	r0, [sp, #40]
 2031 1abc 010080E2 		add	r0, r0, #1
 2032 1ac0 48008DE5 		str	r0, [sp, #72]
 2033 1ac4 40FBFFEA 		b	.L76
 2034              	.L1074:
 2035 1ac8 FEFFFFEB 		bl	abort
 2036              	.L1140:
 2037 1acc FEFFFFEB 		bl	abort
 2038              	.L82:
 2039 1ad0 018043E2 		sub	r8, r3, #1
 2040 1ad4 010078E3 		cmn	r8, #1
 2041 1ad8 28808DE5 		str	r8, [sp, #40]
 2042 1adc 070000BA 		blt	.L530
 2043 1ae0 080050E1 		cmp	r0, r8
 2044 1ae4 C00F80D1 		orrle	r0, r0, r0, asr #31
 2045 1ae8 28008DD5 		strle	r0, [sp, #40]
 2046 1aec 27FBFFEA 		b	.L84
 2047              	.L1073:
 2048 1af0 010043E2 		sub	r0, r3, #1
 2049 1af4 010070E3 		cmn	r0, #1
 2050 1af8 28008DE5 		str	r0, [sp, #40]
 2051 1afc 23FBFFAA 		bge	.L84
 2052              	.L530:
 2053 1b00 FEFFFFEB 		bl	abort
 2054              	.L77:
 2055 1b04 000050E3 		cmp	r0, #0
 2056 1b08 18FBFFAA 		bge	.L81
 2057 1b0c 16FBFFEA 		b	.L78
 2058              	.L554:
 2059 1b10 28308DE5 		str	r3, [sp, #40]
 2060 1b14 48308DE5 		str	r3, [sp, #72]
 2061 1b18 2BFBFFEA 		b	.L76
 2062              	.L1084:
 2063 1b1c 18009DE5 		ldr	r0, [sp, #24]
 2064 1b20 01A040E2 		sub	r10, r0, #1
 2065 1b24 01007AE3 		cmn	r10, #1
 2066 1b28 70FBFFAA 		bge	.L125
 2067              	.L532:
 2068 1b2c FEFFFFEB 		bl	abort
 2069              	.L118:
 2070 1b30 000050E3 		cmp	r0, #0
 2071 1b34 65FBFFAA 		bge	.L122
 2072 1b38 62FBFFEA 		b	.L119
 2073              	.L565:
 2074 1b3c 0070A0E1 		mov	r7, r0
 2075 1b40 38919DE5 		ldr	r9, [sp, #312]
 2076 1b44 00A0A0E1 		mov	r10, r0
 2077 1b48 7CFBFFEA 		b	.L117
 2078              	.L1083:
 2079 1b4c C8009DE5 		ldr	r0, [sp, #200]
 2080 1b50 50008DE5 		str	r0, [sp, #80]
 2081 1b54 100090E5 		ldr	r0, [r0, #16]
 2082 1b58 000050E3 		cmp	r0, #0
 2083 1b5c 18008DE5 		str	r0, [sp, #24]
 2084 1b60 51FBFF1A 		bne	.L116
 2085 1b64 0070A0E1 		mov	r7, r0
 2086 1b68 38919DE5 		ldr	r9, [sp, #312]
 2087 1b6c 00A0A0E1 		mov	r10, r0
 2088 1b70 7CFCFFEA 		b	.L115
 2089              	.L1082:
 2090 1b74 FEFFFFEB 		bl	abort
 2091              	.L106:
 2092 1b78 000050E3 		cmp	r0, #0
 2093 1b7c 010000AA 		bge	.L109
 2094              	.L108:
 2095 1b80 1C809DE5 		ldr	r8, [sp, #28]
 2096 1b84 080080E0 		add	r0, r0, r8
 2097              	.L109:
 2098 1b88 000054E3 		cmp	r4, #0
 2099 1b8c 34FBFFCA 		bgt	.L107
 2100 1b90 1C409DE5 		ldr	r4, [sp, #28]
 2101 1b94 014044E2 		sub	r4, r4, #1
 2102 1b98 010074E3 		cmn	r4, #1
 2103 1b9c 4C408DE5 		str	r4, [sp, #76]
 2104 1ba0 040000BA 		blt	.L1141
 2105 1ba4 040050E1 		cmp	r0, r4
 2106 1ba8 C00F80D1 		orrle	r0, r0, r0, asr #31
 2107 1bac 4C008DD5 		strle	r0, [sp, #76]
 2108 1bb0 33FBFFEA 		b	.L96
 2109              	.L1081:
 2110 1bb4 FEFFFFEB 		bl	abort
 2111              	.L1141:
 2112 1bb8 FEFFFFEB 		bl	abort
 2113              	.L1086:
 2114 1bbc 01708AE2 		add	r7, r10, #1
 2115 1bc0 59FBFFEA 		b	.L127
 2116              	.L1085:
 2117 1bc4 FEFFFFEB 		bl	abort
 2118              	.L123:
 2119 1bc8 01A044E2 		sub	r10, r4, #1
 2120 1bcc 01007AE3 		cmn	r10, #1
 2121 1bd0 D5FFFFBA 		blt	.L532
 2122 1bd4 0A0050E1 		cmp	r0, r10
 2123 1bd8 C0AF80D1 		orrle	r10, r0, r0, asr #31
 2124 1bdc 43FBFFEA 		b	.L125
 2125              	.L138:
 2126 1be0 DC309DE5 		ldr	r3, [sp, #220]
 2127 1be4 050053E3 		cmp	r3, #5
 2128 1be8 030000DA 		ble	.L162
 2129 1bec E0009DE5 		ldr	r0, [sp, #224]
 2130 1bf0 000050E3 		cmp	r0, #0
 2131 1bf4 0000000A 		beq	.L162
 2132 1bf8 FEFFFFEB 		bl	_ZdaPv
 2133              	.L162:
 2134 1bfc 0C309DE5 		ldr	r3, [sp, #12]
 2135 1c00 050053E3 		cmp	r3, #5
 2136 1c04 FAFEFF1A 		bne	.L973
 2137 1c08 FDFEFFEA 		b	.L481
 2138              	.L136:
 2139 1c0c 020053E1 		cmp	r3, r2
 2140 1c10 0030A0C3 		movgt	r3, #0
 2141 1c14 0130A0D3 		movle	r3, #1
 2142 1c18 7FFBFFEA 		b	.L137
 2143              	.L1095:
 2144 1c1c FEFFFFEB 		bl	abort
 2145              	.LEHE21:
 2146              	.L1106:
 2147              	.LEHB22:
 2148 1c20 FEFFFFEB 		bl	abort
 2149              	.L1105:
 2150 1c24 FEFFFFEB 		bl	abort
 2151              	.L364:
 2152 1c28 000052E3 		cmp	r2, #0
 2153 1c2c 000000AA 		bge	.L367
 2154              	.L366:
 2155 1c30 0C2082E0 		add	r2, r2, ip
 2156              	.L367:
 2157 1c34 000051E3 		cmp	r1, #0
 2158 1c38 59FDFFCA 		bgt	.L365
 2159 1c3c 01C04CE2 		sub	ip, ip, #1
 2160 1c40 01007CE3 		cmn	ip, #1
 2161 1c44 0F0000BA 		blt	.L1142
 2162 1c48 0C0052E1 		cmp	r2, ip
 2163 1c4c C2CF82D1 		orrle	ip, r2, r2, asr #31
 2164 1c50 57FDFFEA 		b	.L354
 2165              	.L1104:
 2166 1c54 01C083E2 		add	ip, r3, #1
 2167 1c58 55FDFFEA 		b	.L354
 2168              	.L360:
 2169 1c5c 01304CE2 		sub	r3, ip, #1
 2170 1c60 010073E3 		cmn	r3, #1
 2171 1c64 050000BA 		blt	.L538
 2172 1c68 030052E1 		cmp	r2, r3
 2173 1c6c C23F82D1 		orrle	r3, r2, r2, asr #31
 2174 1c70 42FDFFEA 		b	.L362
 2175              	.L1102:
 2176 1c74 01304CE2 		sub	r3, ip, #1
 2177 1c78 010073E3 		cmn	r3, #1
 2178 1c7c 3FFDFFAA 		bge	.L362
 2179              	.L538:
 2180 1c80 FEFFFFEB 		bl	abort
 2181              	.L1103:
 2182 1c84 FEFFFFEB 		bl	abort
 2183              	.L1142:
 2184 1c88 FEFFFFEB 		bl	abort
 2185              	.L355:
 2186 1c8c 000052E3 		cmp	r2, #0
 2187 1c90 33FDFFAA 		bge	.L359
 2188 1c94 31FDFFEA 		b	.L356
 2189              	.L596:
 2190 1c98 0C30A0E1 		mov	r3, ip
 2191 1c9c 44FDFFEA 		b	.L354
 2192              	.L1101:
 2193 1ca0 FEFFFFEB 		bl	abort
 2194              	.L1100:
 2195 1ca4 FEFFFFEB 		bl	abort
 2196              	.L1099:
 2197 1ca8 FEFFFFEB 		bl	abort
 2198              	.L1098:
 2199 1cac FEFFFFEB 		bl	abort
 2200              	.LEHE22:
 2201              	.L629:
 2202 1cb0 CDF9FFEA 		b	.L486
 2203              	.L178:
 2204 1cb4 E0308DE2 		add	r3, sp, #224
 2205 1cb8 0821A0E1 		lsl	r2, r8, #2
 2206 1cbc 000183E0 		add	r0, r3, r0, lsl #2
 2207 1cc0 B0108DE2 		add	r1, sp, #176
 2208 1cc4 FEFFFFEB 		bl	memcpy
 2209 1cc8 050056E3 		cmp	r6, #5
 2210 1ccc F40200CA 		bgt	.L1143
 2211 1cd0 060055E1 		cmp	r5, r6
 2212 1cd4 F102001A 		bne	.L1144
 2213 1cd8 090055E1 		cmp	r5, r9
 2214 1cdc EE02001A 		bne	.L1145
 2215 1ce0 012055E2 		subs	r2, r5, #1
 2216 1ce4 059065E2 		rsb	r9, r5, #5
 2217 1ce8 4900004A 		bmi	.L191
 2218 1cec 523F8DE2 		add	r3, sp, #328
 2219 1cf0 021183E0 		add	r1, r3, r2, lsl #2
 2220 1cf4 053183E0 		add	r3, r3, r5, lsl #2
 2221 1cf8 022089E0 		add	r2, r9, r2
 2222 1cfc 240013E5 		ldr	r0, [r3, #-36]
 2223 1d00 523F8DE2 		add	r3, sp, #328
 2224 1d04 50C011E5 		ldr	ip, [r1, #-80]
 2225 1d08 02E183E0 		add	lr, r3, r2, lsl #2
 2226 1d0c 053183E0 		add	r3, r3, r5, lsl #2
 2227 1d10 3C1013E5 		ldr	r1, [r3, #-60]
 2228 1d14 023045E2 		sub	r3, r5, #2
 2229 1d18 010073E3 		cmn	r3, #1
 2230 1d1c 20000EE5 		str	r0, [lr, #-32]
 2231 1d20 0E00A0E1 		mov	r0, lr
 2232 1d24 52EF8DE2 		add	lr, sp, #328
 2233 1d28 50C000E5 		str	ip, [r0, #-80]
 2234 1d2c 381000E5 		str	r1, [r0, #-56]
 2235 1d30 3700000A 		beq	.L191
 2236 1d34 05218EE0 		add	r2, lr, r5, lsl #2
 2237 1d38 03118EE0 		add	r1, lr, r3, lsl #2
 2238 1d3c 280012E5 		ldr	r0, [r2, #-40]
 2239 1d40 0E20A0E1 		mov	r2, lr
 2240 1d44 052182E0 		add	r2, r2, r5, lsl #2
 2241 1d48 033089E0 		add	r3, r9, r3
 2242 1d4c 50C011E5 		ldr	ip, [r1, #-80]
 2243 1d50 03E18EE0 		add	lr, lr, r3, lsl #2
 2244 1d54 401012E5 		ldr	r1, [r2, #-64]
 2245 1d58 032045E2 		sub	r2, r5, #3
 2246 1d5c 010072E3 		cmn	r2, #1
 2247 1d60 20000EE5 		str	r0, [lr, #-32]
 2248 1d64 0E00A0E1 		mov	r0, lr
 2249 1d68 52EF8DE2 		add	lr, sp, #328
 2250 1d6c 50C000E5 		str	ip, [r0, #-80]
 2251 1d70 381000E5 		str	r1, [r0, #-56]
 2252 1d74 2600000A 		beq	.L191
 2253 1d78 05318EE0 		add	r3, lr, r5, lsl #2
 2254 1d7c 02118EE0 		add	r1, lr, r2, lsl #2
 2255 1d80 2C0013E5 		ldr	r0, [r3, #-44]
 2256 1d84 0E30A0E1 		mov	r3, lr
 2257 1d88 053183E0 		add	r3, r3, r5, lsl #2
 2258 1d8c 022089E0 		add	r2, r9, r2
 2259 1d90 50C011E5 		ldr	ip, [r1, #-80]
 2260 1d94 02E18EE0 		add	lr, lr, r2, lsl #2
 2261 1d98 441013E5 		ldr	r1, [r3, #-68]
 2262 1d9c 043045E2 		sub	r3, r5, #4
 2263 1da0 010073E3 		cmn	r3, #1
 2264 1da4 20000EE5 		str	r0, [lr, #-32]
 2265 1da8 0E00A0E1 		mov	r0, lr
 2266 1dac 52EF8DE2 		add	lr, sp, #328
 2267 1db0 50C000E5 		str	ip, [r0, #-80]
 2268 1db4 381000E5 		str	r1, [r0, #-56]
 2269 1db8 1500000A 		beq	.L191
 2270 1dbc 05018EE0 		add	r0, lr, r5, lsl #2
 2271 1dc0 03118EE0 		add	r1, lr, r3, lsl #2
 2272 1dc4 30C010E5 		ldr	ip, [r0, #-48]
 2273 1dc8 033089E0 		add	r3, r9, r3
 2274 1dcc 482010E5 		ldr	r2, [r0, #-72]
 2275 1dd0 03E18EE0 		add	lr, lr, r3, lsl #2
 2276 1dd4 500011E5 		ldr	r0, [r1, #-80]
 2277 1dd8 040055E3 		cmp	r5, #4
 2278 1ddc 20C00EE5 		str	ip, [lr, #-32]
 2279 1de0 525F8DE2 		add	r5, sp, #328
 2280 1de4 38200EE5 		str	r2, [lr, #-56]
 2281 1de8 50000EE5 		str	r0, [lr, #-80]
 2282 1dec 0800000A 		beq	.L191
 2283 1df0 28019DE5 		ldr	r0, [sp, #296]
 2284 1df4 093185E0 		add	r3, r5, r9, lsl #2
 2285 1df8 F8109DE5 		ldr	r1, [sp, #248]
 2286 1dfc 10219DE5 		ldr	r2, [sp, #272]
 2287 1e00 200003E5 		str	r0, [r3, #-32]
 2288 1e04 093185E0 		add	r3, r5, r9, lsl #2
 2289 1e08 501003E5 		str	r1, [r3, #-80]
 2290 1e0c 093185E0 		add	r3, r5, r9, lsl #2
 2291 1e10 382003E5 		str	r2, [r3, #-56]
 2292              	.L191:
 2293 1e14 000059E3 		cmp	r9, #0
 2294 1e18 1500000A 		beq	.L192
 2295 1e1c 0921A0E1 		lsl	r2, r9, #2
 2296 1e20 0010A0E3 		mov	r1, #0
 2297 1e24 F8008DE2 		add	r0, sp, #248
 2298 1e28 FEFFFFEB 		bl	memset
 2299 1e2c 010059E3 		cmp	r9, #1
 2300 1e30 0130A0E3 		mov	r3, #1
 2301 1e34 10318DE5 		str	r3, [sp, #272]
 2302 1e38 28318DE5 		str	r3, [sp, #296]
 2303 1e3c 0C00000A 		beq	.L192
 2304 1e40 020059E3 		cmp	r9, #2
 2305 1e44 14318DE5 		str	r3, [sp, #276]
 2306 1e48 2C318DE5 		str	r3, [sp, #300]
 2307 1e4c 0800000A 		beq	.L192
 2308 1e50 030059E3 		cmp	r9, #3
 2309 1e54 18318DE5 		str	r3, [sp, #280]
 2310 1e58 30318DE5 		str	r3, [sp, #304]
 2311 1e5c 0400000A 		beq	.L192
 2312 1e60 040059E3 		cmp	r9, #4
 2313 1e64 1C318DE5 		str	r3, [sp, #284]
 2314 1e68 34318DE5 		str	r3, [sp, #308]
 2315 1e6c 20318D15 		strne	r3, [sp, #288]
 2316 1e70 38318D15 		strne	r3, [sp, #312]
 2317              	.L192:
 2318 1e74 C4209DE5 		ldr	r2, [sp, #196]
 2319 1e78 0030E0E3 		mvn	r3, #0
 2320 1e7c 1339E0E1 		mvn	r3, r3, lsl r9
 2321 1e80 1449A0E1 		lsl	r4, r4, r9
 2322 1e84 04208DE5 		str	r2, [sp, #4]
 2323 1e88 000052E3 		cmp	r2, #0
 2324 1e8c 08209DE5 		ldr	r2, [sp, #8]
 2325 1e90 7330BFE6 		sxth	r3, r3
 2326 1e94 7460BFE6 		sxth	r6, r4
 2327 1e98 124983E1 		orr	r4, r3, r2, lsl r9
 2328 1e9c 1B3983E1 		orr	r3, r3, fp, lsl r9
 2329 1ea0 7440BFE6 		sxth	r4, r4
 2330 1ea4 7350BFE6 		sxth	r5, r3
 2331 1ea8 7A0200DA 		ble	.L1146
 2332 1eac 04309DE5 		ldr	r3, [sp, #4]
 2333 1eb0 050053E3 		cmp	r3, #5
 2334 1eb4 C8309DC5 		ldrgt	r3, [sp, #200]
 2335 1eb8 C8C09DD5 		ldrle	ip, [sp, #200]
 2336 1ebc 00C093C5 		ldrgt	ip, [r3]
 2337 1ec0 00005CE3 		cmp	ip, #0
 2338 1ec4 7102000A 		beq	.L570
 2339 1ec8 010014E3 		tst	r4, #1
 2340 1ecc 28119DE5 		ldr	r1, [sp, #296]
 2341 1ed0 F8209DE5 		ldr	r2, [sp, #248]
 2342 1ed4 6A02000A 		beq	.L196
 2343 1ed8 000051E3 		cmp	r1, #0
 2344 1edc 0221A0C3 		movgt	r2, #-2147483648
 2345 1ee0 630200DA 		ble	.L1147
 2346              	.L197:
 2347 1ee4 0C2082E0 		add	r2, r2, ip
 2348              	.L200:
 2349 1ee8 000051E3 		cmp	r1, #0
 2350 1eec 5A0200DA 		ble	.L201
 2351 1ef0 00005CE3 		cmp	ip, #0
 2352 1ef4 560200BA 		blt	.L1148
 2353 1ef8 0C0052E1 		cmp	r2, ip
 2354 1efc 0C30A0C1 		movgt	r3, ip
 2355 1f00 C23FC2D1 		bicle	r3, r2, r2, asr #31
 2356              	.L203:
 2357 1f04 010016E3 		tst	r6, #1
 2358 1f08 10219DE5 		ldr	r2, [sp, #272]
 2359 1f0c 4E02001A 		bne	.L1149
 2360 1f10 010015E3 		tst	r5, #1
 2361 1f14 4102000A 		beq	.L205
 2362 1f18 000051E3 		cmp	r1, #0
 2363 1f1c 0221A0D3 		movle	r2, #-2147483648
 2364 1f20 400200DA 		ble	.L207
 2365 1f24 0221E0E3 		mvn	r2, #-2147483648
 2366              	.L206:
 2367 1f28 00005CE3 		cmp	ip, #0
 2368 1f2c 3A0200BA 		blt	.L1150
 2369 1f30 02005CE1 		cmp	ip, r2
 2370 1f34 C2CFC2A1 		bicge	ip, r2, r2, asr #31
 2371              	.L195:
 2372 1f38 04209DE5 		ldr	r2, [sp, #4]
 2373 1f3c 010052E3 		cmp	r2, #1
 2374 1f40 3402000A 		beq	.L1151
 2375 1f44 050052E3 		cmp	r2, #5
 2376 1f48 C8209DC5 		ldrgt	r2, [sp, #200]
 2377 1f4c CC209DD5 		ldrle	r2, [sp, #204]
 2378 1f50 042092C5 		ldrgt	r2, [r2, #4]
 2379 1f54 000052E3 		cmp	r2, #0
 2380 1f58 2B02000A 		beq	.L575
 2381 1f5c 020014E3 		tst	r4, #2
 2382 1f60 2C019DE5 		ldr	r0, [sp, #300]
 2383 1f64 FC109DE5 		ldr	r1, [sp, #252]
 2384 1f68 2402000A 		beq	.L216
 2385 1f6c 000050E3 		cmp	r0, #0
 2386 1f70 0211A0C3 		movgt	r1, #-2147483648
 2387 1f74 1A0200DA 		ble	.L1152
 2388              	.L217:
 2389 1f78 021081E0 		add	r1, r1, r2
 2390              	.L220:
 2391 1f7c 000050E3 		cmp	r0, #0
 2392 1f80 0F0200DA 		ble	.L221
 2393 1f84 000052E3 		cmp	r2, #0
 2394 1f88 1A0200BA 		blt	.L1153
 2395 1f8c 020051E1 		cmp	r1, r2
 2396 1f90 18208DC5 		strgt	r2, [sp, #24]
 2397 1f94 C11FC1D1 		bicle	r1, r1, r1, asr #31
 2398 1f98 18108DD5 		strle	r1, [sp, #24]
 2399              	.L223:
 2400 1f9c 020016E3 		tst	r6, #2
 2401 1fa0 14119DE5 		ldr	r1, [sp, #276]
 2402 1fa4 0202001A 		bne	.L1154
 2403 1fa8 020015E3 		tst	r5, #2
 2404 1fac F301000A 		beq	.L225
 2405 1fb0 000050E3 		cmp	r0, #0
 2406 1fb4 0211A0D3 		movle	r1, #-2147483648
 2407 1fb8 F20100DA 		ble	.L227
 2408 1fbc 0211E0E3 		mvn	r1, #-2147483648
 2409              	.L226:
 2410 1fc0 000052E3 		cmp	r2, #0
 2411 1fc4 EC0100BA 		blt	.L1155
 2412 1fc8 020051E1 		cmp	r1, r2
 2413 1fcc 34208DC5 		strgt	r2, [sp, #52]
 2414 1fd0 C11FC1D1 		bicle	r1, r1, r1, asr #31
 2415 1fd4 34108DD5 		strle	r1, [sp, #52]
 2416              	.L215:
 2417 1fd8 04109DE5 		ldr	r1, [sp, #4]
 2418 1fdc 020051E3 		cmp	r1, #2
 2419 1fe0 E401000A 		beq	.L1156
 2420 1fe4 050051E3 		cmp	r1, #5
 2421 1fe8 C8109DC5 		ldrgt	r1, [sp, #200]
 2422 1fec D0109DD5 		ldrle	r1, [sp, #208]
 2423 1ff0 081091C5 		ldrgt	r1, [r1, #8]
 2424 1ff4 000051E3 		cmp	r1, #0
 2425 1ff8 DB01000A 		beq	.L580
 2426 1ffc 040014E3 		tst	r4, #4
 2427 2000 30E19DE5 		ldr	lr, [sp, #304]
 2428 2004 00019DE5 		ldr	r0, [sp, #256]
 2429 2008 D401000A 		beq	.L236
 2430 200c 00005EE3 		cmp	lr, #0
 2431 2010 0201A0C3 		movgt	r0, #-2147483648
 2432 2014 CC0100DA 		ble	.L1157
 2433              	.L237:
 2434 2018 010080E0 		add	r0, r0, r1
 2435              	.L240:
 2436 201c 00005EE3 		cmp	lr, #0
 2437 2020 C10100DA 		ble	.L241
 2438 2024 000051E3 		cmp	r1, #0
 2439 2028 BD0100BA 		blt	.L1158
 2440 202c 010050E1 		cmp	r0, r1
 2441 2030 14108DC5 		strgt	r1, [sp, #20]
 2442 2034 C00FC0D1 		bicle	r0, r0, r0, asr #31
 2443 2038 14008DD5 		strle	r0, [sp, #20]
 2444              	.L243:
 2445 203c 040016E3 		tst	r6, #4
 2446 2040 18019DE5 		ldr	r0, [sp, #280]
 2447 2044 B201001A 		bne	.L1159
 2448 2048 040015E3 		tst	r5, #4
 2449 204c A301000A 		beq	.L245
 2450 2050 00005EE3 		cmp	lr, #0
 2451 2054 0201A0D3 		movle	r0, #-2147483648
 2452 2058 A20100DA 		ble	.L247
 2453 205c 0201E0E3 		mvn	r0, #-2147483648
 2454              	.L246:
 2455 2060 000051E3 		cmp	r1, #0
 2456 2064 9C0100BA 		blt	.L1160
 2457 2068 000051E1 		cmp	r1, r0
 2458 206c 38108DB5 		strlt	r1, [sp, #56]
 2459 2070 C01FC0A1 		bicge	r1, r0, r0, asr #31
 2460 2074 38108DA5 		strge	r1, [sp, #56]
 2461              	.L235:
 2462 2078 04109DE5 		ldr	r1, [sp, #4]
 2463 207c 030051E3 		cmp	r1, #3
 2464 2080 9401000A 		beq	.L1161
 2465 2084 050051E3 		cmp	r1, #5
 2466 2088 C8109DC5 		ldrgt	r1, [sp, #200]
 2467 208c D4109DD5 		ldrle	r1, [sp, #212]
 2468 2090 0C1091C5 		ldrgt	r1, [r1, #12]
 2469 2094 000051E3 		cmp	r1, #0
 2470 2098 8B01000A 		beq	.L585
 2471 209c 080014E3 		tst	r4, #8
 2472 20a0 34E19DE5 		ldr	lr, [sp, #308]
 2473 20a4 04019DE5 		ldr	r0, [sp, #260]
 2474 20a8 8401000A 		beq	.L256
 2475 20ac 00005EE3 		cmp	lr, #0
 2476 20b0 0201A0C3 		movgt	r0, #-2147483648
 2477 20b4 7C0100DA 		ble	.L1162
 2478              	.L257:
 2479 20b8 010080E0 		add	r0, r0, r1
 2480              	.L260:
 2481 20bc 00005EE3 		cmp	lr, #0
 2482 20c0 710100DA 		ble	.L261
 2483 20c4 000051E3 		cmp	r1, #0
 2484 20c8 6E0100BA 		blt	.L1163
 2485 20cc 010050E1 		cmp	r0, r1
 2486 20d0 08108DC5 		strgt	r1, [sp, #8]
 2487 20d4 C00FC0D1 		bicle	r0, r0, r0, asr #31
 2488 20d8 08008DD5 		strle	r0, [sp, #8]
 2489              	.L263:
 2490 20dc 080016E3 		tst	r6, #8
 2491 20e0 1C019DE5 		ldr	r0, [sp, #284]
 2492 20e4 6301001A 		bne	.L1164
 2493 20e8 080015E3 		tst	r5, #8
 2494 20ec 5201000A 		beq	.L265
 2495 20f0 00005EE3 		cmp	lr, #0
 2496 20f4 0201A0D3 		movle	r0, #-2147483648
 2497 20f8 510100DA 		ble	.L267
 2498 20fc 0201E0E3 		mvn	r0, #-2147483648
 2499              	.L266:
 2500 2100 000051E3 		cmp	r1, #0
 2501 2104 590100BA 		blt	.L1165
 2502 2108 000051E1 		cmp	r1, r0
 2503 210c 0C108DB5 		strlt	r1, [sp, #12]
 2504 2110 C01FC0A1 		bicge	r1, r0, r0, asr #31
 2505 2114 0C108DA5 		strge	r1, [sp, #12]
 2506              	.L255:
 2507 2118 04109DE5 		ldr	r1, [sp, #4]
 2508 211c 040051E3 		cmp	r1, #4
 2509 2120 4401000A 		beq	.L1166
 2510 2124 050051E3 		cmp	r1, #5
 2511 2128 3901001A 		bne	.L1167
 2512 212c D8109DE5 		ldr	r1, [sp, #216]
 2513 2130 000051E3 		cmp	r1, #0
 2514 2134 20108DE5 		str	r1, [sp, #32]
 2515 2138 3101000A 		beq	.L591
 2516              	.L275:
 2517 213c 100014E3 		tst	r4, #16
 2518 2140 38919DE5 		ldr	r9, [sp, #312]
 2519 2144 08019DE5 		ldr	r0, [sp, #264]
 2520 2148 2A01000A 		beq	.L277
 2521 214c 000059E3 		cmp	r9, #0
 2522 2150 0201A0C3 		movgt	r0, #-2147483648
 2523 2154 230100DA 		ble	.L1168
 2524              	.L278:
 2525 2158 010080E0 		add	r0, r0, r1
 2526              	.L281:
 2527 215c 000059E3 		cmp	r9, #0
 2528 2160 170100DA 		ble	.L282
 2529 2164 000051E3 		cmp	r1, #0
 2530 2168 140100BA 		blt	.L1169
 2531 216c 010050E1 		cmp	r0, r1
 2532 2170 01B0A0C1 		movgt	fp, r1
 2533 2174 C0BFC0D1 		bicle	fp, r0, r0, asr #31
 2534              	.L284:
 2535 2178 100016E3 		tst	r6, #16
 2536 217c 20019DE5 		ldr	r0, [sp, #288]
 2537 2180 1501001A 		bne	.L1170
 2538 2184 100015E3 		tst	r5, #16
 2539 2188 0001000A 		beq	.L287
 2540 218c 000059E3 		cmp	r9, #0
 2541 2190 0201A0D3 		movle	r0, #-2147483648
 2542 2194 FF0000DA 		ble	.L289
 2543 2198 0201E0E3 		mvn	r0, #-2147483648
 2544              	.L288:
 2545 219c 000051E3 		cmp	r1, #0
 2546 21a0 F90000BA 		blt	.L1171
 2547 21a4 010050E1 		cmp	r0, r1
 2548 21a8 0160A0C1 		movgt	r6, r1
 2549 21ac C06FC0D1 		bicle	r6, r0, r0, asr #31
 2550              	.L286:
 2551 21b0 04109DE5 		ldr	r1, [sp, #4]
 2552 21b4 050051E3 		cmp	r1, #5
 2553 21b8 E800001A 		bne	.L918
 2554 21bc D8109DE5 		ldr	r1, [sp, #216]
 2555 21c0 20108DE5 		str	r1, [sp, #32]
 2556              	.L276:
 2557 21c4 930203E0 		mul	r3, r3, r2
 2558 21c8 28308DE5 		str	r3, [sp, #40]
 2559 21cc 28319DE5 		ldr	r3, [sp, #296]
 2560 21d0 50308DE5 		str	r3, [sp, #80]
 2561 21d4 C8309DE5 		ldr	r3, [sp, #200]
 2562 21d8 3C308DE5 		str	r3, [sp, #60]
 2563 21dc 920C03E0 		mul	r3, r2, ip
 2564 21e0 4C308DE5 		str	r3, [sp, #76]
 2565              	.L294:
 2566 21e4 D0309DE5 		ldr	r3, [sp, #208]
 2567 21e8 28009DE5 		ldr	r0, [sp, #40]
 2568 21ec 18C09DE5 		ldr	ip, [sp, #24]
 2569 21f0 0310A0E1 		mov	r1, r3
 2570 21f4 6C308DE5 		str	r3, [sp, #108]
 2571 21f8 34E09DE5 		ldr	lr, [sp, #52]
 2572 21fc 00308CE0 		add	r3, ip, r0
 2573 2200 50C09DE5 		ldr	ip, [sp, #80]
 2574 2204 34819DE5 		ldr	r8, [sp, #308]
 2575 2208 9C0202E0 		mul	r2, ip, r2
 2576 220c 02C0A0E1 		mov	ip, r2
 2577 2210 64208DE5 		str	r2, [sp, #100]
 2578 2214 00208EE0 		add	r2, lr, r0
 2579 2218 2C019DE5 		ldr	r0, [sp, #300]
 2580 221c 032042E0 		sub	r2, r2, r3
 2581 2220 910303E0 		mul	r3, r1, r3
 2582 2224 910202E0 		mul	r2, r1, r2
 2583 2228 5C008DE5 		str	r0, [sp, #92]
 2584 222c D4009DE5 		ldr	r0, [sp, #212]
 2585 2230 48308DE5 		str	r3, [sp, #72]
 2586 2234 910C03E0 		mul	r3, r1, ip
 2587 2238 0710A0E1 		mov	r1, r7
 2588 223c 0A70A0E1 		mov	r7, r10
 2589 2240 78208DE5 		str	r2, [sp, #120]
 2590 2244 06A0A0E1 		mov	r10, r6
 2591 2248 30219DE5 		ldr	r2, [sp, #304]
 2592 224c 58008DE5 		str	r0, [sp, #88]
 2593 2250 74308DE5 		str	r3, [sp, #116]
 2594 2254 10208DE5 		str	r2, [sp, #16]
 2595              	.L320:
 2596 2258 50309DE5 		ldr	r3, [sp, #80]
 2597 225c 4C209DE5 		ldr	r2, [sp, #76]
 2598 2260 000053E3 		cmp	r3, #0
 2599 2264 28309DE5 		ldr	r3, [sp, #40]
 2600 2268 B80000DA 		ble	.L295
 2601 226c 020053E1 		cmp	r3, r2
 2602 2270 0030A0B3 		movlt	r3, #0
 2603 2274 0130A0A3 		movge	r3, #1
 2604              	.L296:
 2605 2278 000053E3 		cmp	r3, #0
 2606 227c 52FDFF1A 		bne	.L456
 2607 2280 04309DE5 		ldr	r3, [sp, #4]
 2608 2284 18209DE5 		ldr	r2, [sp, #24]
 2609 2288 050053E3 		cmp	r3, #5
 2610 228c 28309DE5 		ldr	r3, [sp, #40]
 2611 2290 020083E0 		add	r0, r3, r2
 2612 2294 A300001A 		bne	.L1172
 2613 2298 48309DE5 		ldr	r3, [sp, #72]
 2614 229c 78209DE5 		ldr	r2, [sp, #120]
 2615 22a0 2C308DE5 		str	r3, [sp, #44]
 2616 22a4 023083E0 		add	r3, r3, r2
 2617 22a8 54308DE5 		str	r3, [sp, #84]
 2618 22ac 6C309DE5 		ldr	r3, [sp, #108]
 2619              	.L299:
 2620 22b0 5C209DE5 		ldr	r2, [sp, #92]
 2621 22b4 38009DE5 		ldr	r0, [sp, #56]
 2622 22b8 920303E0 		mul	r3, r2, r3
 2623 22bc 14209DE5 		ldr	r2, [sp, #20]
 2624 22c0 03C0A0E1 		mov	ip, r3
 2625 22c4 68308DE5 		str	r3, [sp, #104]
 2626 22c8 2C309DE5 		ldr	r3, [sp, #44]
 2627 22cc 032082E0 		add	r2, r2, r3
 2628 22d0 003083E0 		add	r3, r3, r0
 2629 22d4 58009DE5 		ldr	r0, [sp, #88]
 2630 22d8 023043E0 		sub	r3, r3, r2
 2631 22dc 900303E0 		mul	r3, r0, r3
 2632 22e0 900202E0 		mul	r2, r0, r2
 2633 22e4 70308DE5 		str	r3, [sp, #112]
 2634 22e8 900C03E0 		mul	r3, r0, ip
 2635 22ec 44208DE5 		str	r2, [sp, #68]
 2636 22f0 60308DE5 		str	r3, [sp, #96]
 2637              	.L319:
 2638 22f4 5C309DE5 		ldr	r3, [sp, #92]
 2639 22f8 54209DE5 		ldr	r2, [sp, #84]
 2640 22fc 000053E3 		cmp	r3, #0
 2641 2300 2C309DE5 		ldr	r3, [sp, #44]
 2642 2304 700000DA 		ble	.L300
 2643 2308 020053E1 		cmp	r3, r2
 2644 230c 0030A0B3 		movlt	r3, #0
 2645 2310 0130A0A3 		movge	r3, #1
 2646 2314 000053E3 		cmp	r3, #0
 2647 2318 7000001A 		bne	.L302
 2648              	.L1181:
 2649 231c 04309DE5 		ldr	r3, [sp, #4]
 2650 2320 2C209DE5 		ldr	r2, [sp, #44]
 2651 2324 050053E3 		cmp	r3, #5
 2652 2328 14309DE5 		ldr	r3, [sp, #20]
 2653 232c 025083E0 		add	r5, r3, r2
 2654 2330 7300001A 		bne	.L1173
 2655 2334 44309DE5 		ldr	r3, [sp, #68]
 2656 2338 70209DE5 		ldr	r2, [sp, #112]
 2657 233c 0350A0E1 		mov	r5, r3
 2658 2340 023083E0 		add	r3, r3, r2
 2659 2344 1C308DE5 		str	r3, [sp, #28]
 2660 2348 58309DE5 		ldr	r3, [sp, #88]
 2661              	.L304:
 2662 234c 10209DE5 		ldr	r2, [sp, #16]
 2663 2350 920303E0 		mul	r3, r2, r3
 2664 2354 20209DE5 		ldr	r2, [sp, #32]
 2665 2358 0300A0E1 		mov	r0, r3
 2666 235c 30308DE5 		str	r3, [sp, #48]
 2667 2360 08309DE5 		ldr	r3, [sp, #8]
 2668 2364 056083E0 		add	r6, r3, r5
 2669 2368 0C309DE5 		ldr	r3, [sp, #12]
 2670 236c 053083E0 		add	r3, r3, r5
 2671 2370 063043E0 		sub	r3, r3, r6
 2672 2374 920606E0 		mul	r6, r2, r6
 2673 2378 920303E0 		mul	r3, r2, r3
 2674 237c 40308DE5 		str	r3, [sp, #64]
 2675 2380 920003E0 		mul	r3, r2, r0
 2676 2384 24308DE5 		str	r3, [sp, #36]
 2677 2388 10309DE5 		ldr	r3, [sp, #16]
 2678 238c 000053E3 		cmp	r3, #0
 2679 2390 1C309DE5 		ldr	r3, [sp, #28]
 2680 2394 360000DA 		ble	.L305
 2681              	.L1177:
 2682 2398 030055E1 		cmp	r5, r3
 2683 239c 0030A0B3 		movlt	r3, #0
 2684 23a0 0130A0A3 		movge	r3, #1
 2685 23a4 000053E3 		cmp	r3, #0
 2686 23a8 3600001A 		bne	.L307
 2687              	.L1178:
 2688 23ac 04309DE5 		ldr	r3, [sp, #4]
 2689 23b0 050053E3 		cmp	r3, #5
 2690 23b4 08309DE5 		ldr	r3, [sp, #8]
 2691 23b8 20E09D05 		ldreq	lr, [sp, #32]
 2692 23bc 03C085E0 		add	ip, r5, r3
 2693 23c0 3C309D15 		ldrne	r3, [sp, #60]
 2694 23c4 40309D05 		ldreq	r3, [sp, #64]
 2695 23c8 06C0A001 		moveq	ip, r6
 2696 23cc 10E09315 		ldrne	lr, [r3, #16]
 2697 23d0 0C309D15 		ldrne	r3, [sp, #12]
 2698 23d4 06408300 		addeq	r4, r3, r6
 2699 23d8 05408310 		addne	r4, r3, r5
 2700 23dc 9E0C0C10 		mulne	ip, lr, ip
 2701 23e0 9E040410 		mulne	r4, lr, r4
 2702 23e4 000058E3 		cmp	r8, #0
 2703 23e8 980E0EE0 		mul	lr, r8, lr
 2704 23ec 130000DA 		ble	.L310
 2705              	.L1175:
 2706 23f0 04005CE1 		cmp	ip, r4
 2707 23f4 0030A0B3 		movlt	r3, #0
 2708 23f8 0130A0A3 		movge	r3, #1
 2709 23fc 000053E3 		cmp	r3, #0
 2710 2400 1300001A 		bne	.L312
 2711              	.L1176:
 2712 2404 000059E3 		cmp	r9, #0
 2713 2408 0120A0E1 		mov	r2, r1
 2714 240c 0C308BE0 		add	r3, fp, ip
 2715 2410 0C008AE0 		add	r0, r10, ip
 2716 2414 030000CA 		bgt	.L316
 2717 2418 260000EA 		b	.L315
 2718              	.L1174:
 2719 241c 0310D7E7 		ldrb	r1, [r7, r3]	@ zero_extendqisi2
 2720 2420 093083E0 		add	r3, r3, r9
 2721 2424 0110C2E4 		strb	r1, [r2], #1
 2722              	.L316:
 2723 2428 000053E1 		cmp	r3, r0
 2724 242c 0210A0E1 		mov	r1, r2
 2725 2430 F9FFFFBA 		blt	.L1174
 2726 2434 0EC08CE0 		add	ip, ip, lr
 2727              	.L1180:
 2728 2438 000058E3 		cmp	r8, #0
 2729 243c EBFFFFCA 		bgt	.L1175
 2730              	.L310:
 2731 2440 04005CE1 		cmp	ip, r4
 2732 2444 0030A0C3 		movgt	r3, #0
 2733 2448 0130A0D3 		movle	r3, #1
 2734 244c 000053E3 		cmp	r3, #0
 2735 2450 EBFFFF0A 		beq	.L1176
 2736              	.L312:
 2737 2454 30309DE5 		ldr	r3, [sp, #48]
 2738 2458 035085E0 		add	r5, r5, r3
 2739 245c 24309DE5 		ldr	r3, [sp, #36]
 2740 2460 036086E0 		add	r6, r6, r3
 2741 2464 10309DE5 		ldr	r3, [sp, #16]
 2742 2468 000053E3 		cmp	r3, #0
 2743 246c 1C309DE5 		ldr	r3, [sp, #28]
 2744 2470 C8FFFFCA 		bgt	.L1177
 2745              	.L305:
 2746 2474 030055E1 		cmp	r5, r3
 2747 2478 0030A0C3 		movgt	r3, #0
 2748 247c 0130A0D3 		movle	r3, #1
 2749 2480 000053E3 		cmp	r3, #0
 2750 2484 C8FFFF0A 		beq	.L1178
 2751              	.L307:
 2752 2488 2C309DE5 		ldr	r3, [sp, #44]
 2753 248c 68209DE5 		ldr	r2, [sp, #104]
 2754 2490 023083E0 		add	r3, r3, r2
 2755 2494 60209DE5 		ldr	r2, [sp, #96]
 2756 2498 2C308DE5 		str	r3, [sp, #44]
 2757 249c 44309DE5 		ldr	r3, [sp, #68]
 2758 24a0 023083E0 		add	r3, r3, r2
 2759 24a4 44308DE5 		str	r3, [sp, #68]
 2760 24a8 91FFFFEA 		b	.L319
 2761              	.L1179:
 2762 24ac 0310D7E7 		ldrb	r1, [r7, r3]	@ zero_extendqisi2
 2763 24b0 093083E0 		add	r3, r3, r9
 2764 24b4 0110C2E4 		strb	r1, [r2], #1
 2765              	.L315:
 2766 24b8 030050E1 		cmp	r0, r3
 2767 24bc 0210A0E1 		mov	r1, r2
 2768 24c0 F9FFFFBA 		blt	.L1179
 2769 24c4 0EC08CE0 		add	ip, ip, lr
 2770 24c8 DAFFFFEA 		b	.L1180
 2771              	.L300:
 2772 24cc 020053E1 		cmp	r3, r2
 2773 24d0 0030A0C3 		movgt	r3, #0
 2774 24d4 0130A0D3 		movle	r3, #1
 2775 24d8 000053E3 		cmp	r3, #0
 2776 24dc 8EFFFF0A 		beq	.L1181
 2777              	.L302:
 2778 24e0 28309DE5 		ldr	r3, [sp, #40]
 2779 24e4 64209DE5 		ldr	r2, [sp, #100]
 2780 24e8 023083E0 		add	r3, r3, r2
 2781 24ec 74209DE5 		ldr	r2, [sp, #116]
 2782 24f0 28308DE5 		str	r3, [sp, #40]
 2783 24f4 48309DE5 		ldr	r3, [sp, #72]
 2784 24f8 023083E0 		add	r3, r3, r2
 2785 24fc 48308DE5 		str	r3, [sp, #72]
 2786 2500 54FFFFEA 		b	.L320
 2787              	.L1173:
 2788 2504 3C309DE5 		ldr	r3, [sp, #60]
 2789 2508 0200A0E1 		mov	r0, r2
 2790 250c 38209DE5 		ldr	r2, [sp, #56]
 2791 2510 0C3093E5 		ldr	r3, [r3, #12]
 2792 2514 002082E0 		add	r2, r2, r0
 2793 2518 930202E0 		mul	r2, r3, r2
 2794 251c 930505E0 		mul	r5, r3, r5
 2795 2520 1C208DE5 		str	r2, [sp, #28]
 2796 2524 88FFFFEA 		b	.L304
 2797              	.L1172:
 2798 2528 0320A0E1 		mov	r2, r3
 2799 252c 3C309DE5 		ldr	r3, [sp, #60]
 2800 2530 34C09DE5 		ldr	ip, [sp, #52]
 2801 2534 083093E5 		ldr	r3, [r3, #8]
 2802 2538 0C2082E0 		add	r2, r2, ip
 2803 253c 930000E0 		mul	r0, r3, r0
 2804 2540 930202E0 		mul	r2, r3, r2
 2805 2544 2C008DE5 		str	r0, [sp, #44]
 2806 2548 54208DE5 		str	r2, [sp, #84]
 2807 254c 57FFFFEA 		b	.L299
 2808              	.L295:
 2809 2550 020053E1 		cmp	r3, r2
 2810 2554 0030A0C3 		movgt	r3, #0
 2811 2558 0130A0D3 		movle	r3, #1
 2812 255c 45FFFFEA 		b	.L296
 2813              	.L918:
 2814 2560 C8109DE5 		ldr	r1, [sp, #200]
 2815 2564 3C108DE5 		str	r1, [sp, #60]
 2816              	.L274:
 2817 2568 930203E0 		mul	r3, r3, r2
 2818 256c 28308DE5 		str	r3, [sp, #40]
 2819 2570 28319DE5 		ldr	r3, [sp, #296]
 2820 2574 50308DE5 		str	r3, [sp, #80]
 2821 2578 D8309DE5 		ldr	r3, [sp, #216]
 2822 257c 20308DE5 		str	r3, [sp, #32]
 2823 2580 920C03E0 		mul	r3, r2, ip
 2824 2584 4C308DE5 		str	r3, [sp, #76]
 2825 2588 15FFFFEA 		b	.L294
 2826              	.L1171:
 2827              	.LEHB23:
 2828 258c FEFFFFEB 		bl	abort
 2829              	.L287:
 2830 2590 000050E3 		cmp	r0, #0
 2831 2594 000000AA 		bge	.L290
 2832              	.L289:
 2833 2598 010080E0 		add	r0, r0, r1
 2834              	.L290:
 2835 259c 000059E3 		cmp	r9, #0
 2836 25a0 FDFEFFCA 		bgt	.L288
 2837 25a4 016041E2 		sub	r6, r1, #1
 2838 25a8 010076E3 		cmn	r6, #1
 2839 25ac 0C0000BA 		blt	.L1182
 2840 25b0 060050E1 		cmp	r0, r6
 2841 25b4 C06F80D1 		orrle	r6, r0, r0, asr #31
 2842 25b8 FCFEFFEA 		b	.L286
 2843              	.L630:
 2844 25bc DFF9FFEA 		b	.L990
 2845              	.L1169:
 2846 25c0 FEFFFFEB 		bl	abort
 2847              	.L282:
 2848 25c4 01B041E2 		sub	fp, r1, #1
 2849 25c8 01007BE3 		cmn	fp, #1
 2850 25cc 080000BA 		blt	.L537
 2851 25d0 0B0050E1 		cmp	r0, fp
 2852 25d4 C0BF80D1 		orrle	fp, r0, r0, asr #31
 2853 25d8 E6FEFFEA 		b	.L284
 2854              	.L1170:
 2855 25dc 01608BE2 		add	r6, fp, #1
 2856 25e0 F2FEFFEA 		b	.L286
 2857              	.L1182:
 2858 25e4 FEFFFFEB 		bl	abort
 2859              	.L1168:
 2860 25e8 01B041E2 		sub	fp, r1, #1
 2861 25ec 01007BE3 		cmn	fp, #1
 2862 25f0 E0FEFFAA 		bge	.L284
 2863              	.L537:
 2864 25f4 FEFFFFEB 		bl	abort
 2865              	.L277:
 2866 25f8 000050E3 		cmp	r0, #0
 2867 25fc D6FEFFAA 		bge	.L281
 2868 2600 D4FEFFEA 		b	.L278
 2869              	.L591:
 2870 2604 01B0A0E1 		mov	fp, r1
 2871 2608 38919DE5 		ldr	r9, [sp, #312]
 2872 260c 0160A0E1 		mov	r6, r1
 2873 2610 EBFEFFEA 		b	.L276
 2874              	.L1167:
 2875 2614 C8109DE5 		ldr	r1, [sp, #200]
 2876 2618 3C108DE5 		str	r1, [sp, #60]
 2877 261c 101091E5 		ldr	r1, [r1, #16]
 2878 2620 000051E3 		cmp	r1, #0
 2879 2624 C4FEFF1A 		bne	.L275
 2880 2628 38919DE5 		ldr	r9, [sp, #312]
 2881 262c 0160A0E1 		mov	r6, r1
 2882 2630 01B0A0E1 		mov	fp, r1
 2883 2634 CBFFFFEA 		b	.L274
 2884              	.L1166:
 2885 2638 FEFFFFEB 		bl	abort
 2886              	.L265:
 2887 263c 000050E3 		cmp	r0, #0
 2888 2640 000000AA 		bge	.L268
 2889              	.L267:
 2890 2644 010080E0 		add	r0, r0, r1
 2891              	.L268:
 2892 2648 00005EE3 		cmp	lr, #0
 2893 264c ABFEFFCA 		bgt	.L266
 2894 2650 011041E2 		sub	r1, r1, #1
 2895 2654 010071E3 		cmn	r1, #1
 2896 2658 0C108DE5 		str	r1, [sp, #12]
 2897 265c 040000BA 		blt	.L1183
 2898 2660 010050E1 		cmp	r0, r1
 2899 2664 C01F80D1 		orrle	r1, r0, r0, asr #31
 2900 2668 0C108DD5 		strle	r1, [sp, #12]
 2901 266c A9FEFFEA 		b	.L255
 2902              	.L1165:
 2903 2670 FEFFFFEB 		bl	abort
 2904              	.L1183:
 2905 2674 FEFFFFEB 		bl	abort
 2906              	.L1164:
 2907 2678 08109DE5 		ldr	r1, [sp, #8]
 2908 267c 011081E2 		add	r1, r1, #1
 2909 2680 0C108DE5 		str	r1, [sp, #12]
 2910 2684 A3FEFFEA 		b	.L255
 2911              	.L1163:
 2912 2688 FEFFFFEB 		bl	abort
 2913              	.L261:
 2914 268c 018041E2 		sub	r8, r1, #1
 2915 2690 010078E3 		cmn	r8, #1
 2916 2694 08808DE5 		str	r8, [sp, #8]
 2917 2698 070000BA 		blt	.L536
 2918 269c 080050E1 		cmp	r0, r8
 2919 26a0 C00F80D1 		orrle	r0, r0, r0, asr #31
 2920 26a4 08008DD5 		strle	r0, [sp, #8]
 2921 26a8 8BFEFFEA 		b	.L263
 2922              	.L1162:
 2923 26ac 010041E2 		sub	r0, r1, #1
 2924 26b0 010070E3 		cmn	r0, #1
 2925 26b4 08008DE5 		str	r0, [sp, #8]
 2926 26b8 87FEFFAA 		bge	.L263
 2927              	.L536:
 2928 26bc FEFFFFEB 		bl	abort
 2929              	.L256:
 2930 26c0 000050E3 		cmp	r0, #0
 2931 26c4 7CFEFFAA 		bge	.L260
 2932 26c8 7AFEFFEA 		b	.L257
 2933              	.L585:
 2934 26cc 08108DE5 		str	r1, [sp, #8]
 2935 26d0 0C108DE5 		str	r1, [sp, #12]
 2936 26d4 8FFEFFEA 		b	.L255
 2937              	.L1161:
 2938 26d8 FEFFFFEB 		bl	abort
 2939              	.L1160:
 2940 26dc FEFFFFEB 		bl	abort
 2941              	.L245:
 2942 26e0 000050E3 		cmp	r0, #0
 2943 26e4 000000AA 		bge	.L248
 2944              	.L247:
 2945 26e8 010080E0 		add	r0, r0, r1
 2946              	.L248:
 2947 26ec 00005EE3 		cmp	lr, #0
 2948 26f0 5AFEFFCA 		bgt	.L246
 2949 26f4 011041E2 		sub	r1, r1, #1
 2950 26f8 010071E3 		cmn	r1, #1
 2951 26fc 38108DE5 		str	r1, [sp, #56]
 2952 2700 080000BA 		blt	.L1184
 2953 2704 010050E1 		cmp	r0, r1
 2954 2708 C01F80D1 		orrle	r1, r0, r0, asr #31
 2955 270c 38108DD5 		strle	r1, [sp, #56]
 2956 2710 58FEFFEA 		b	.L235
 2957              	.L1159:
 2958 2714 14109DE5 		ldr	r1, [sp, #20]
 2959 2718 011081E2 		add	r1, r1, #1
 2960 271c 38108DE5 		str	r1, [sp, #56]
 2961 2720 54FEFFEA 		b	.L235
 2962              	.L1158:
 2963 2724 FEFFFFEB 		bl	abort
 2964              	.L1184:
 2965 2728 FEFFFFEB 		bl	abort
 2966              	.L241:
 2967 272c 018041E2 		sub	r8, r1, #1
 2968 2730 010078E3 		cmn	r8, #1
 2969 2734 14808DE5 		str	r8, [sp, #20]
 2970 2738 070000BA 		blt	.L535
 2971 273c 080050E1 		cmp	r0, r8
 2972 2740 C00F80D1 		orrle	r0, r0, r0, asr #31
 2973 2744 14008DD5 		strle	r0, [sp, #20]
 2974 2748 3BFEFFEA 		b	.L243
 2975              	.L1157:
 2976 274c 010041E2 		sub	r0, r1, #1
 2977 2750 010070E3 		cmn	r0, #1
 2978 2754 14008DE5 		str	r0, [sp, #20]
 2979 2758 37FEFFAA 		bge	.L243
 2980              	.L535:
 2981 275c FEFFFFEB 		bl	abort
 2982              	.L236:
 2983 2760 000050E3 		cmp	r0, #0
 2984 2764 2CFEFFAA 		bge	.L240
 2985 2768 2AFEFFEA 		b	.L237
 2986              	.L580:
 2987 276c 14108DE5 		str	r1, [sp, #20]
 2988 2770 38108DE5 		str	r1, [sp, #56]
 2989 2774 3FFEFFEA 		b	.L235
 2990              	.L1156:
 2991 2778 FEFFFFEB 		bl	abort
 2992              	.L1155:
 2993 277c FEFFFFEB 		bl	abort
 2994              	.L225:
 2995 2780 000051E3 		cmp	r1, #0
 2996 2784 000000AA 		bge	.L228
 2997              	.L227:
 2998 2788 021081E0 		add	r1, r1, r2
 2999              	.L228:
 3000 278c 000050E3 		cmp	r0, #0
 3001 2790 0AFEFFCA 		bgt	.L226
 3002 2794 010042E2 		sub	r0, r2, #1
 3003 2798 010070E3 		cmn	r0, #1
 3004 279c 34008DE5 		str	r0, [sp, #52]
 3005 27a0 150000BA 		blt	.L1185
 3006 27a4 000051E1 		cmp	r1, r0
 3007 27a8 C11F81D1 		orrle	r1, r1, r1, asr #31
 3008 27ac 34108DD5 		strle	r1, [sp, #52]
 3009 27b0 08FEFFEA 		b	.L215
 3010              	.L1154:
 3011 27b4 18109DE5 		ldr	r1, [sp, #24]
 3012 27b8 011081E2 		add	r1, r1, #1
 3013 27bc 34108DE5 		str	r1, [sp, #52]
 3014 27c0 04FEFFEA 		b	.L215
 3015              	.L221:
 3016 27c4 01E042E2 		sub	lr, r2, #1
 3017 27c8 01007EE3 		cmn	lr, #1
 3018 27cc 18E08DE5 		str	lr, [sp, #24]
 3019 27d0 070000BA 		blt	.L534
 3020 27d4 0E0051E1 		cmp	r1, lr
 3021 27d8 C11F81D1 		orrle	r1, r1, r1, asr #31
 3022 27dc 18108DD5 		strle	r1, [sp, #24]
 3023 27e0 EDFDFFEA 		b	.L223
 3024              	.L1152:
 3025 27e4 011042E2 		sub	r1, r2, #1
 3026 27e8 010071E3 		cmn	r1, #1
 3027 27ec 18108DE5 		str	r1, [sp, #24]
 3028 27f0 E9FDFFAA 		bge	.L223
 3029              	.L534:
 3030 27f4 FEFFFFEB 		bl	abort
 3031              	.L1153:
 3032 27f8 FEFFFFEB 		bl	abort
 3033              	.L1185:
 3034 27fc FEFFFFEB 		bl	abort
 3035              	.L216:
 3036 2800 000051E3 		cmp	r1, #0
 3037 2804 DCFDFFAA 		bge	.L220
 3038 2808 DAFDFFEA 		b	.L217
 3039              	.L575:
 3040 280c 18208DE5 		str	r2, [sp, #24]
 3041 2810 34208DE5 		str	r2, [sp, #52]
 3042 2814 EFFDFFEA 		b	.L215
 3043              	.L1151:
 3044 2818 FEFFFFEB 		bl	abort
 3045              	.L1150:
 3046 281c FEFFFFEB 		bl	abort
 3047              	.L205:
 3048 2820 000052E3 		cmp	r2, #0
 3049 2824 000000AA 		bge	.L208
 3050              	.L207:
 3051 2828 0C2082E0 		add	r2, r2, ip
 3052              	.L208:
 3053 282c 000051E3 		cmp	r1, #0
 3054 2830 BCFDFFCA 		bgt	.L206
 3055 2834 01C04CE2 		sub	ip, ip, #1
 3056 2838 01007CE3 		cmn	ip, #1
 3057 283c 050000BA 		blt	.L1186
 3058 2840 0C0052E1 		cmp	r2, ip
 3059 2844 C2CF82D1 		orrle	ip, r2, r2, asr #31
 3060 2848 BAFDFFEA 		b	.L195
 3061              	.L1149:
 3062 284c 01C083E2 		add	ip, r3, #1
 3063 2850 B8FDFFEA 		b	.L195
 3064              	.L1148:
 3065 2854 FEFFFFEB 		bl	abort
 3066              	.L1186:
 3067 2858 FEFFFFEB 		bl	abort
 3068              	.L201:
 3069 285c 01304CE2 		sub	r3, ip, #1
 3070 2860 010073E3 		cmn	r3, #1
 3071 2864 050000BA 		blt	.L533
 3072 2868 030052E1 		cmp	r2, r3
 3073 286c C23F82D1 		orrle	r3, r2, r2, asr #31
 3074 2870 A3FDFFEA 		b	.L203
 3075              	.L1147:
 3076 2874 01304CE2 		sub	r3, ip, #1
 3077 2878 010073E3 		cmn	r3, #1
 3078 287c A0FDFFAA 		bge	.L203
 3079              	.L533:
 3080 2880 FEFFFFEB 		bl	abort
 3081              	.L196:
 3082 2884 000052E3 		cmp	r2, #0
 3083 2888 96FDFFAA 		bge	.L200
 3084 288c 94FDFFEA 		b	.L197
 3085              	.L570:
 3086 2890 0C30A0E1 		mov	r3, ip
 3087 2894 A7FDFFEA 		b	.L195
 3088              	.L1146:
 3089 2898 FEFFFFEB 		bl	abort
 3090              	.L1145:
 3091 289c FEFFFFEB 		bl	abort
 3092              	.L1144:
 3093 28a0 FEFFFFEB 		bl	abort
 3094              	.L1143:
 3095 28a4 FEFFFFEB 		bl	abort
 3096              	.LEHE23:
 3097              	.L384:
 3098 28a8 000051E3 		cmp	r1, #0
 3099 28ac 000000AA 		bge	.L387
 3100              	.L386:
 3101 28b0 021081E0 		add	r1, r1, r2
 3102              	.L387:
 3103 28b4 000050E3 		cmp	r0, #0
 3104 28b8 5FFAFFCA 		bgt	.L385
 3105 28bc 010042E2 		sub	r0, r2, #1
 3106 28c0 010070E3 		cmn	r0, #1
 3107 28c4 34008DE5 		str	r0, [sp, #52]
 3108 28c8 080000BA 		blt	.L1187
 3109 28cc 000051E1 		cmp	r1, r0
 3110 28d0 C11F81D1 		orrle	r1, r1, r1, asr #31
 3111 28d4 34108DD5 		strle	r1, [sp, #52]
 3112 28d8 5DFAFFEA 		b	.L374
 3113              	.L1109:
 3114 28dc 18109DE5 		ldr	r1, [sp, #24]
 3115 28e0 011081E2 		add	r1, r1, #1
 3116 28e4 34108DE5 		str	r1, [sp, #52]
 3117 28e8 59FAFFEA 		b	.L374
 3118              	.L1108:
 3119              	.LEHB24:
 3120 28ec FEFFFFEB 		bl	abort
 3121              	.L1187:
 3122 28f0 FEFFFFEB 		bl	abort
 3123              	.L380:
 3124 28f4 01E042E2 		sub	lr, r2, #1
 3125 28f8 01007EE3 		cmn	lr, #1
 3126 28fc 18E08DE5 		str	lr, [sp, #24]
 3127 2900 070000BA 		blt	.L539
 3128 2904 0E0051E1 		cmp	r1, lr
 3129 2908 C11F81D1 		orrle	r1, r1, r1, asr #31
 3130 290c 18108DD5 		strle	r1, [sp, #24]
 3131 2910 40FAFFEA 		b	.L382
 3132              	.L1107:
 3133 2914 011042E2 		sub	r1, r2, #1
 3134 2918 010071E3 		cmn	r1, #1
 3135 291c 18108DE5 		str	r1, [sp, #24]
 3136 2920 3CFAFFAA 		bge	.L382
 3137              	.L539:
 3138 2924 FEFFFFEB 		bl	abort
 3139              	.L375:
 3140 2928 000051E3 		cmp	r1, #0
 3141 292c 31FAFFAA 		bge	.L379
 3142 2930 2FFAFFEA 		b	.L376
 3143              	.L601:
 3144 2934 18208DE5 		str	r2, [sp, #24]
 3145 2938 34208DE5 		str	r2, [sp, #52]
 3146 293c 44FAFFEA 		b	.L374
 3147              	.L395:
 3148 2940 000050E3 		cmp	r0, #0
 3149 2944 53FAFFAA 		bge	.L399
 3150 2948 51FAFFEA 		b	.L396
 3151              	.L606:
 3152 294c 14108DE5 		str	r1, [sp, #20]
 3153 2950 38108DE5 		str	r1, [sp, #56]
 3154 2954 66FAFFEA 		b	.L394
 3155              	.L1111:
 3156 2958 FEFFFFEB 		bl	abort
 3157              	.L1110:
 3158 295c FEFFFFEB 		bl	abort
 3159              	.L400:
 3160 2960 018041E2 		sub	r8, r1, #1
 3161 2964 010078E3 		cmn	r8, #1
 3162 2968 14808DE5 		str	r8, [sp, #20]
 3163 296c 070000BA 		blt	.L540
 3164 2970 080050E1 		cmp	r0, r8
 3165 2974 C00F80D1 		orrle	r0, r0, r0, asr #31
 3166 2978 14008DD5 		strle	r0, [sp, #20]
 3167 297c 4DFAFFEA 		b	.L402
 3168              	.L1112:
 3169 2980 010041E2 		sub	r0, r1, #1
 3170 2984 010070E3 		cmn	r0, #1
 3171 2988 14008DE5 		str	r0, [sp, #20]
 3172 298c 49FAFFAA 		bge	.L402
 3173              	.L540:
 3174 2990 FEFFFFEB 		bl	abort
 3175              	.L1113:
 3176 2994 FEFFFFEB 		bl	abort
 3177              	.L1139:
 3178 2998 FEFFFFEB 		bl	abort
 3179              	.LEHE24:
 3180              		.global	__gxx_personality_v0
 3181              		.personality	__gxx_personality_v0
 3182              		.handlerdata
 3183              	.LLSDA4521:
 3184 0008 FF       		.byte	0xff
 3185 0009 FF       		.byte	0xff
 3186 000a 01       		.byte	0x1
 3187 000b 9701     		.uleb128 .LLSDACSE4521-.LLSDACSB4521
 3188              	.LLSDACSB4521:
 3189 000d 30       		.uleb128 .LEHB0-.LFB4521
 3190 000e 58       		.uleb128 .LEHE0-.LEHB0
 3191 000f 00       		.uleb128 0
 3192 0010 00       		.uleb128 0
 3193 0011 A001     		.uleb128 .LEHB1-.LFB4521
 3194 0013 04       		.uleb128 .LEHE1-.LEHB1
 3195 0014 E407     		.uleb128 .L622-.LFB4521
 3196 0016 00       		.uleb128 0
 3197 0017 B802     		.uleb128 .LEHB2-.LFB4521
 3198 0019 04       		.uleb128 .LEHE2-.LEHB2
 3199 001a F006     		.uleb128 .L625-.LFB4521
 3200 001c 00       		.uleb128 0
 3201 001d C402     		.uleb128 .LEHB3-.LFB4521
 3202 001f 04       		.uleb128 .LEHE3-.LEHB3
 3203 0020 00       		.uleb128 0
 3204 0021 00       		.uleb128 0
 3205 0022 DC02     		.uleb128 .LEHB4-.LFB4521
 3206 0024 04       		.uleb128 .LEHE4-.LEHB4
 3207 0025 E806     		.uleb128 .L624-.LFB4521
 3208 0027 00       		.uleb128 0
 3209 0028 F803     		.uleb128 .LEHB5-.LFB4521
 3210 002a 04       		.uleb128 .LEHE5-.LEHB5
 3211 002b BC05     		.uleb128 .L631-.LFB4521
 3212 002d 00       		.uleb128 0
 3213 002e 8404     		.uleb128 .LEHB6-.LFB4521
 3214 0030 04       		.uleb128 .LEHE6-.LEHB6
 3215 0031 00       		.uleb128 0
 3216 0032 00       		.uleb128 0
 3217 0033 9C04     		.uleb128 .LEHB7-.LFB4521
 3218 0035 04       		.uleb128 .LEHE7-.LEHB7
 3219 0036 B81D     		.uleb128 .L623-.LFB4521
 3220 0038 00       		.uleb128 0
 3221 0039 B805     		.uleb128 .LEHB8-.LFB4521
 3222 003b 04       		.uleb128 .LEHE8-.LEHB8
 3223 003c C01D     		.uleb128 .L628-.LFB4521
 3224 003e 00       		.uleb128 0
 3225 003f F405     		.uleb128 .LEHB9-.LFB4521
 3226 0041 04       		.uleb128 .LEHE9-.LEHB9
 3227 0042 00       		.uleb128 0
 3228 0043 00       		.uleb128 0
 3229 0044 DC06     		.uleb128 .LEHB10-.LFB4521
 3230 0046 04       		.uleb128 .LEHE10-.LEHB10
 3231 0047 AC1E     		.uleb128 .L632-.LFB4521
 3232 0049 00       		.uleb128 0
 3233 004a E006     		.uleb128 .LEHB11-.LFB4521
 3234 004c 08       		.uleb128 .LEHE11-.LEHB11
 3235 004d BC05     		.uleb128 .L631-.LFB4521
 3236 004f 00       		.uleb128 0
 3237 0050 EC06     		.uleb128 .LEHB12-.LFB4521
 3238 0052 04       		.uleb128 .LEHE12-.LEHB12
 3239 0053 E806     		.uleb128 .L624-.LFB4521
 3240 0055 00       		.uleb128 0
 3241 0056 D807     		.uleb128 .LEHB13-.LFB4521
 3242 0058 04       		.uleb128 .LEHE13-.LEHB13
 3243 0059 EC07     		.uleb128 .L626-.LFB4521
 3244 005b 00       		.uleb128 0
 3245 005c DC07     		.uleb128 .LEHB14-.LFB4521
 3246 005e 08       		.uleb128 .LEHE14-.LEHB14
 3247 005f F006     		.uleb128 .L625-.LFB4521
 3248 0061 00       		.uleb128 0
 3249 0062 E807     		.uleb128 .LEHB15-.LFB4521
 3250 0064 04       		.uleb128 .LEHE15-.LEHB15
 3251 0065 E407     		.uleb128 .L622-.LFB4521
 3252 0067 00       		.uleb128 0
 3253 0068 881A     		.uleb128 .LEHB16-.LFB4521
 3254 006a A803     		.uleb128 .LEHE16-.LEHB16
 3255 006c C01A     		.uleb128 .L627-.LFB4521
 3256 006e 00       		.uleb128 0
 3257 006f B01D     		.uleb128 .LEHB17-.LFB4521
 3258 0071 08       		.uleb128 .LEHE17-.LEHB17
 3259 0072 C01D     		.uleb128 .L628-.LFB4521
 3260 0074 00       		.uleb128 0
 3261 0075 BC1D     		.uleb128 .LEHB18-.LFB4521
 3262 0077 04       		.uleb128 .LEHE18-.LEHB18
 3263 0078 B81D     		.uleb128 .L623-.LFB4521
 3264 007a 00       		.uleb128 0
 3265 007b A81E     		.uleb128 .LEHB19-.LFB4521
 3266 007d 04       		.uleb128 .LEHE19-.LEHB19
 3267 007e B039     		.uleb128 .L629-.LFB4521
 3268 0080 00       		.uleb128 0
 3269 0081 8031     		.uleb128 .LEHB20-.LFB4521
 3270 0083 D402     		.uleb128 .LEHE20-.LEHB20
 3271 0085 B031     		.uleb128 .L633-.LFB4521
 3272 0087 00       		.uleb128 0
 3273 0088 A834     		.uleb128 .LEHB21-.LFB4521
 3274 008a F803     		.uleb128 .LEHE21-.LEHB21
 3275 008c C01A     		.uleb128 .L627-.LFB4521
 3276 008e 00       		.uleb128 0
 3277 008f A038     		.uleb128 .LEHB22-.LFB4521
 3278 0091 9001     		.uleb128 .LEHE22-.LEHB22
 3279 0093 B031     		.uleb128 .L633-.LFB4521
 3280 0095 00       		.uleb128 0
 3281 0096 8C4B     		.uleb128 .LEHB23-.LFB4521
 3282 0098 9C06     		.uleb128 .LEHE23-.LEHB23
 3283 009a BC4B     		.uleb128 .L630-.LFB4521
 3284 009c 00       		.uleb128 0
 3285 009d EC51     		.uleb128 .LEHB24-.LFB4521
 3286 009f B001     		.uleb128 .LEHE24-.LEHB24
 3287 00a1 B031     		.uleb128 .L633-.LFB4521
 3288 00a3 00       		.uleb128 0
 3289              	.LLSDACSE4521:
 3290              		.section	.text._ZN6tflite3ops5micro13strided_slice4EvalEP13TfLiteContextP10TfLiteNode
 3291              		.fnend
 3293              		.section	.text._ZN6tflite3ops5micro13strided_slice23BuildStridedSliceParamsEPNS2_19StridedSliceCon
 3294              		.align	2
 3295              		.global	_ZN6tflite3ops5micro13strided_slice23BuildStridedSliceParamsEPNS2_19StridedSliceContextE
 3296              		.syntax unified
 3297              		.arm
 3298              		.fpu neon
 3300              	_ZN6tflite3ops5micro13strided_slice23BuildStridedSliceParamsEPNS2_19StridedSliceContextE:
 3301              		.fnstart
 3302              	.LFB4517:
 3303              		@ args = 0, pretend = 0, frame = 0
 3304              		@ frame_needed = 0, uses_anonymous_args = 0
 3305 0000 183091E5 		ldr	r3, [r1, #24]
 3306 0004 30402DE9 		push	{r4, r5, lr}
 3307 0008 000053E3 		cmp	r3, #0
 3308 000c 7320AFE6 		sxtb	r2, r3
 3309 0010 0020C0E5 		strb	r2, [r0]
 3310 0014 1820C0E5 		strb	r2, [r0, #24]
 3311 0018 3020C0E5 		strb	r2, [r0, #48]
 3312 001c 310000DA 		ble	.L1198
 3313 0020 08C091E5 		ldr	ip, [r1, #8]
 3314 0024 0C2091E5 		ldr	r2, [r1, #12]
 3315 0028 104091E5 		ldr	r4, [r1, #16]
 3316 002c 00005CE3 		cmp	ip, #0
 3317 0030 3600000A 		beq	.L1300
 3318 0034 000054E3 		cmp	r4, #0
 3319 0038 6100000A 		beq	.L1301
 3320 003c 000052E3 		cmp	r2, #0
 3321 0040 04E09CE5 		ldr	lr, [ip, #4]
 3322 0044 8900000A 		beq	.L1302
 3323 0048 04C092E5 		ldr	ip, [r2, #4]
 3324 004c 010053E3 		cmp	r3, #1
 3325 0050 042094E5 		ldr	r2, [r4, #4]
 3326 0054 00409EE5 		ldr	r4, [lr]
 3327 0058 044080E5 		str	r4, [r0, #4]
 3328 005c 00409CE5 		ldr	r4, [ip]
 3329 0060 1C4080E5 		str	r4, [r0, #28]
 3330 0064 004092E5 		ldr	r4, [r2]
 3331 0068 344080E5 		str	r4, [r0, #52]
 3332 006c 1D00000A 		beq	.L1198
 3333 0070 04409EE5 		ldr	r4, [lr, #4]
 3334 0074 020053E3 		cmp	r3, #2
 3335 0078 084080E5 		str	r4, [r0, #8]
 3336 007c 04409CE5 		ldr	r4, [ip, #4]
 3337 0080 204080E5 		str	r4, [r0, #32]
 3338 0084 044092E5 		ldr	r4, [r2, #4]
 3339 0088 384080E5 		str	r4, [r0, #56]
 3340 008c 1500000A 		beq	.L1198
 3341 0090 08409EE5 		ldr	r4, [lr, #8]
 3342 0094 030053E3 		cmp	r3, #3
 3343 0098 0C4080E5 		str	r4, [r0, #12]
 3344 009c 08409CE5 		ldr	r4, [ip, #8]
 3345 00a0 244080E5 		str	r4, [r0, #36]
 3346 00a4 084092E5 		ldr	r4, [r2, #8]
 3347 00a8 3C4080E5 		str	r4, [r0, #60]
 3348 00ac 0D00000A 		beq	.L1198
 3349 00b0 0C409EE5 		ldr	r4, [lr, #12]
 3350 00b4 040053E3 		cmp	r3, #4
 3351 00b8 104080E5 		str	r4, [r0, #16]
 3352 00bc 0C309CE5 		ldr	r3, [ip, #12]
 3353 00c0 283080E5 		str	r3, [r0, #40]
 3354 00c4 0C3092E5 		ldr	r3, [r2, #12]
 3355 00c8 403080E5 		str	r3, [r0, #64]
 3356 00cc 0500000A 		beq	.L1198
 3357 00d0 10309EE5 		ldr	r3, [lr, #16]
 3358 00d4 143080E5 		str	r3, [r0, #20]
 3359 00d8 10309CE5 		ldr	r3, [ip, #16]
 3360 00dc 2C3080E5 		str	r3, [r0, #44]
 3361 00e0 103092E5 		ldr	r3, [r2, #16]
 3362 00e4 443080E5 		str	r3, [r0, #68]
 3363              	.L1198:
 3364 00e8 003091E5 		ldr	r3, [r1]
 3365 00ec 0020A0E3 		mov	r2, #0
 3366 00f0 BA24C0E1 		strh	r2, [r0, #74]	@ movhi
 3367 00f4 BE24C0E1 		strh	r2, [r0, #78]	@ movhi
 3368 00f8 060093E8 		ldm	r3, {r1, r2}
 3369 00fc 103093E5 		ldr	r3, [r3, #16]
 3370 0100 B814C0E1 		strh	r1, [r0, #72]	@ movhi
 3371 0104 BC24C0E1 		strh	r2, [r0, #76]	@ movhi
 3372 0108 B035C0E1 		strh	r3, [r0, #80]	@ movhi
 3373 010c 3080BDE8 		pop	{r4, r5, pc}
 3374              	.L1300:
 3375 0110 000054E3 		cmp	r4, #0
 3376 0114 7D00000A 		beq	.L1303
 3377 0118 000052E3 		cmp	r2, #0
 3378 011c C700000A 		beq	.L1304
 3379 0120 00509CE5 		ldr	r5, [ip]
 3380 0124 010053E3 		cmp	r3, #1
 3381 0128 04E092E5 		ldr	lr, [r2, #4]
 3382 012c 042094E5 		ldr	r2, [r4, #4]
 3383 0130 045080E5 		str	r5, [r0, #4]
 3384 0134 00409EE5 		ldr	r4, [lr]
 3385 0138 1C4080E5 		str	r4, [r0, #28]
 3386 013c 004092E5 		ldr	r4, [r2]
 3387 0140 344080E5 		str	r4, [r0, #52]
 3388 0144 E7FFFF0A 		beq	.L1198
 3389 0148 04409CE5 		ldr	r4, [ip, #4]
 3390 014c 020053E3 		cmp	r3, #2
 3391 0150 084080E5 		str	r4, [r0, #8]
 3392 0154 04409EE5 		ldr	r4, [lr, #4]
 3393 0158 204080E5 		str	r4, [r0, #32]
 3394 015c 044092E5 		ldr	r4, [r2, #4]
 3395 0160 384080E5 		str	r4, [r0, #56]
 3396 0164 DFFFFF0A 		beq	.L1198
 3397 0168 08409CE5 		ldr	r4, [ip, #8]
 3398 016c 030053E3 		cmp	r3, #3
 3399 0170 0C4080E5 		str	r4, [r0, #12]
 3400 0174 08409EE5 		ldr	r4, [lr, #8]
 3401 0178 244080E5 		str	r4, [r0, #36]
 3402 017c 084092E5 		ldr	r4, [r2, #8]
 3403 0180 3C4080E5 		str	r4, [r0, #60]
 3404 0184 D7FFFF0A 		beq	.L1198
 3405 0188 0C409CE5 		ldr	r4, [ip, #12]
 3406 018c 040053E3 		cmp	r3, #4
 3407 0190 104080E5 		str	r4, [r0, #16]
 3408 0194 0C309EE5 		ldr	r3, [lr, #12]
 3409 0198 283080E5 		str	r3, [r0, #40]
 3410 019c 0C3092E5 		ldr	r3, [r2, #12]
 3411 01a0 403080E5 		str	r3, [r0, #64]
 3412 01a4 CFFFFF0A 		beq	.L1198
 3413 01a8 10309CE5 		ldr	r3, [ip, #16]
 3414 01ac 143080E5 		str	r3, [r0, #20]
 3415 01b0 10309EE5 		ldr	r3, [lr, #16]
 3416 01b4 2C3080E5 		str	r3, [r0, #44]
 3417 01b8 103092E5 		ldr	r3, [r2, #16]
 3418 01bc 443080E5 		str	r3, [r0, #68]
 3419 01c0 C8FFFFEA 		b	.L1198
 3420              	.L1301:
 3421 01c4 000052E3 		cmp	r2, #0
 3422 01c8 04C09CE5 		ldr	ip, [ip, #4]
 3423 01cc 7400000A 		beq	.L1305
 3424 01d0 00E09CE5 		ldr	lr, [ip]
 3425 01d4 010053E3 		cmp	r3, #1
 3426 01d8 042092E5 		ldr	r2, [r2, #4]
 3427 01dc 04E080E5 		str	lr, [r0, #4]
 3428 01e0 00E092E5 		ldr	lr, [r2]
 3429 01e4 1CE080E5 		str	lr, [r0, #28]
 3430 01e8 00E094E5 		ldr	lr, [r4]
 3431 01ec 34E080E5 		str	lr, [r0, #52]
 3432 01f0 BCFFFF0A 		beq	.L1198
 3433 01f4 04E09CE5 		ldr	lr, [ip, #4]
 3434 01f8 020053E3 		cmp	r3, #2
 3435 01fc 08E080E5 		str	lr, [r0, #8]
 3436 0200 04E092E5 		ldr	lr, [r2, #4]
 3437 0204 20E080E5 		str	lr, [r0, #32]
 3438 0208 04E094E5 		ldr	lr, [r4, #4]
 3439 020c 38E080E5 		str	lr, [r0, #56]
 3440 0210 B4FFFF0A 		beq	.L1198
 3441 0214 08E09CE5 		ldr	lr, [ip, #8]
 3442 0218 030053E3 		cmp	r3, #3
 3443 021c 0CE080E5 		str	lr, [r0, #12]
 3444 0220 08E092E5 		ldr	lr, [r2, #8]
 3445 0224 24E080E5 		str	lr, [r0, #36]
 3446 0228 08E094E5 		ldr	lr, [r4, #8]
 3447 022c 3CE080E5 		str	lr, [r0, #60]
 3448 0230 ACFFFF0A 		beq	.L1198
 3449 0234 0CE09CE5 		ldr	lr, [ip, #12]
 3450 0238 040053E3 		cmp	r3, #4
 3451 023c 10E080E5 		str	lr, [r0, #16]
 3452 0240 0C3092E5 		ldr	r3, [r2, #12]
 3453 0244 283080E5 		str	r3, [r0, #40]
 3454 0248 0C3094E5 		ldr	r3, [r4, #12]
 3455 024c 403080E5 		str	r3, [r0, #64]
 3456 0250 A4FFFF0A 		beq	.L1198
 3457 0254 10309CE5 		ldr	r3, [ip, #16]
 3458              	.L1298:
 3459 0258 143080E5 		str	r3, [r0, #20]
 3460 025c 103092E5 		ldr	r3, [r2, #16]
 3461 0260 2C3080E5 		str	r3, [r0, #44]
 3462 0264 103094E5 		ldr	r3, [r4, #16]
 3463 0268 443080E5 		str	r3, [r0, #68]
 3464 026c 9DFFFFEA 		b	.L1198
 3465              	.L1302:
 3466 0270 04C094E5 		ldr	ip, [r4, #4]
 3467 0274 010053E3 		cmp	r3, #1
 3468 0278 00409EE5 		ldr	r4, [lr]
 3469 027c 044080E5 		str	r4, [r0, #4]
 3470 0280 004092E5 		ldr	r4, [r2]
 3471 0284 1C4080E5 		str	r4, [r0, #28]
 3472 0288 00409CE5 		ldr	r4, [ip]
 3473 028c 344080E5 		str	r4, [r0, #52]
 3474 0290 94FFFF0A 		beq	.L1198
 3475 0294 04409EE5 		ldr	r4, [lr, #4]
 3476 0298 020053E3 		cmp	r3, #2
 3477 029c 084080E5 		str	r4, [r0, #8]
 3478 02a0 044092E5 		ldr	r4, [r2, #4]
 3479 02a4 204080E5 		str	r4, [r0, #32]
 3480 02a8 04409CE5 		ldr	r4, [ip, #4]
 3481 02ac 384080E5 		str	r4, [r0, #56]
 3482 02b0 8CFFFF0A 		beq	.L1198
 3483 02b4 08409EE5 		ldr	r4, [lr, #8]
 3484 02b8 030053E3 		cmp	r3, #3
 3485 02bc 0C4080E5 		str	r4, [r0, #12]
 3486 02c0 084092E5 		ldr	r4, [r2, #8]
 3487 02c4 244080E5 		str	r4, [r0, #36]
 3488 02c8 08409CE5 		ldr	r4, [ip, #8]
 3489 02cc 3C4080E5 		str	r4, [r0, #60]
 3490 02d0 84FFFF0A 		beq	.L1198
 3491 02d4 0C409EE5 		ldr	r4, [lr, #12]
 3492 02d8 040053E3 		cmp	r3, #4
 3493 02dc 104080E5 		str	r4, [r0, #16]
 3494 02e0 0C3092E5 		ldr	r3, [r2, #12]
 3495 02e4 283080E5 		str	r3, [r0, #40]
 3496 02e8 0C309CE5 		ldr	r3, [ip, #12]
 3497 02ec 403080E5 		str	r3, [r0, #64]
 3498 02f0 7CFFFF0A 		beq	.L1198
 3499 02f4 10309EE5 		ldr	r3, [lr, #16]
 3500              	.L1299:
 3501 02f8 143080E5 		str	r3, [r0, #20]
 3502 02fc 103092E5 		ldr	r3, [r2, #16]
 3503 0300 2C3080E5 		str	r3, [r0, #44]
 3504 0304 10309CE5 		ldr	r3, [ip, #16]
 3505 0308 443080E5 		str	r3, [r0, #68]
 3506 030c 75FFFFEA 		b	.L1198
 3507              	.L1303:
 3508 0310 000052E3 		cmp	r2, #0
 3509 0314 6C00000A 		beq	.L1306
 3510 0318 00C094E5 		ldr	ip, [r4]
 3511 031c 010053E3 		cmp	r3, #1
 3512 0320 042092E5 		ldr	r2, [r2, #4]
 3513 0324 04C080E5 		str	ip, [r0, #4]
 3514 0328 00C092E5 		ldr	ip, [r2]
 3515 032c 1CC080E5 		str	ip, [r0, #28]
 3516 0330 00C094E5 		ldr	ip, [r4]
 3517 0334 34C080E5 		str	ip, [r0, #52]
 3518 0338 6AFFFF0A 		beq	.L1198
 3519 033c 04C094E5 		ldr	ip, [r4, #4]
 3520 0340 020053E3 		cmp	r3, #2
 3521 0344 08C080E5 		str	ip, [r0, #8]
 3522 0348 04C092E5 		ldr	ip, [r2, #4]
 3523 034c 20C080E5 		str	ip, [r0, #32]
 3524 0350 04C094E5 		ldr	ip, [r4, #4]
 3525 0354 38C080E5 		str	ip, [r0, #56]
 3526 0358 62FFFF0A 		beq	.L1198
 3527 035c 08C094E5 		ldr	ip, [r4, #8]
 3528 0360 030053E3 		cmp	r3, #3
 3529 0364 0CC080E5 		str	ip, [r0, #12]
 3530 0368 08C092E5 		ldr	ip, [r2, #8]
 3531 036c 24C080E5 		str	ip, [r0, #36]
 3532 0370 08C094E5 		ldr	ip, [r4, #8]
 3533 0374 3CC080E5 		str	ip, [r0, #60]
 3534 0378 5AFFFF0A 		beq	.L1198
 3535 037c 0CC094E5 		ldr	ip, [r4, #12]
 3536 0380 040053E3 		cmp	r3, #4
 3537 0384 10C080E5 		str	ip, [r0, #16]
 3538 0388 0C3092E5 		ldr	r3, [r2, #12]
 3539 038c 283080E5 		str	r3, [r0, #40]
 3540 0390 0C3094E5 		ldr	r3, [r4, #12]
 3541 0394 403080E5 		str	r3, [r0, #64]
 3542 0398 52FFFF0A 		beq	.L1198
 3543 039c 103094E5 		ldr	r3, [r4, #16]
 3544 03a0 ACFFFFEA 		b	.L1298
 3545              	.L1305:
 3546 03a4 00E09CE5 		ldr	lr, [ip]
 3547 03a8 010053E3 		cmp	r3, #1
 3548 03ac 04E080E5 		str	lr, [r0, #4]
 3549 03b0 00E092E5 		ldr	lr, [r2]
 3550 03b4 1CE080E5 		str	lr, [r0, #28]
 3551 03b8 00E092E5 		ldr	lr, [r2]
 3552 03bc 34E080E5 		str	lr, [r0, #52]
 3553 03c0 48FFFF0A 		beq	.L1198
 3554 03c4 04E09CE5 		ldr	lr, [ip, #4]
 3555 03c8 020053E3 		cmp	r3, #2
 3556 03cc 08E080E5 		str	lr, [r0, #8]
 3557 03d0 04E092E5 		ldr	lr, [r2, #4]
 3558 03d4 20E080E5 		str	lr, [r0, #32]
 3559 03d8 04E092E5 		ldr	lr, [r2, #4]
 3560 03dc 38E080E5 		str	lr, [r0, #56]
 3561 03e0 40FFFF0A 		beq	.L1198
 3562 03e4 08E09CE5 		ldr	lr, [ip, #8]
 3563 03e8 030053E3 		cmp	r3, #3
 3564 03ec 0CE080E5 		str	lr, [r0, #12]
 3565 03f0 08E092E5 		ldr	lr, [r2, #8]
 3566 03f4 24E080E5 		str	lr, [r0, #36]
 3567 03f8 08E092E5 		ldr	lr, [r2, #8]
 3568 03fc 3CE080E5 		str	lr, [r0, #60]
 3569 0400 38FFFF0A 		beq	.L1198
 3570 0404 0CE09CE5 		ldr	lr, [ip, #12]
 3571 0408 040053E3 		cmp	r3, #4
 3572 040c 10E080E5 		str	lr, [r0, #16]
 3573 0410 0C3092E5 		ldr	r3, [r2, #12]
 3574 0414 283080E5 		str	r3, [r0, #40]
 3575 0418 0C3092E5 		ldr	r3, [r2, #12]
 3576 041c 403080E5 		str	r3, [r0, #64]
 3577 0420 30FFFF0A 		beq	.L1198
 3578 0424 10309CE5 		ldr	r3, [ip, #16]
 3579              	.L1297:
 3580 0428 143080E5 		str	r3, [r0, #20]
 3581 042c 103092E5 		ldr	r3, [r2, #16]
 3582 0430 2C3080E5 		str	r3, [r0, #44]
 3583 0434 103092E5 		ldr	r3, [r2, #16]
 3584 0438 443080E5 		str	r3, [r0, #68]
 3585 043c 29FFFFEA 		b	.L1198
 3586              	.L1304:
 3587 0440 00E092E5 		ldr	lr, [r2]
 3588 0444 010053E3 		cmp	r3, #1
 3589 0448 04C094E5 		ldr	ip, [r4, #4]
 3590 044c 04E080E5 		str	lr, [r0, #4]
 3591 0450 00E092E5 		ldr	lr, [r2]
 3592 0454 1CE080E5 		str	lr, [r0, #28]
 3593 0458 00E09CE5 		ldr	lr, [ip]
 3594 045c 34E080E5 		str	lr, [r0, #52]
 3595 0460 20FFFF0A 		beq	.L1198
 3596 0464 04E092E5 		ldr	lr, [r2, #4]
 3597 0468 020053E3 		cmp	r3, #2
 3598 046c 08E080E5 		str	lr, [r0, #8]
 3599 0470 04E092E5 		ldr	lr, [r2, #4]
 3600 0474 20E080E5 		str	lr, [r0, #32]
 3601 0478 04E09CE5 		ldr	lr, [ip, #4]
 3602 047c 38E080E5 		str	lr, [r0, #56]
 3603 0480 18FFFF0A 		beq	.L1198
 3604 0484 08E092E5 		ldr	lr, [r2, #8]
 3605 0488 030053E3 		cmp	r3, #3
 3606 048c 0CE080E5 		str	lr, [r0, #12]
 3607 0490 08E092E5 		ldr	lr, [r2, #8]
 3608 0494 24E080E5 		str	lr, [r0, #36]
 3609 0498 08E09CE5 		ldr	lr, [ip, #8]
 3610 049c 3CE080E5 		str	lr, [r0, #60]
 3611 04a0 10FFFF0A 		beq	.L1198
 3612 04a4 0CE092E5 		ldr	lr, [r2, #12]
 3613 04a8 040053E3 		cmp	r3, #4
 3614 04ac 10E080E5 		str	lr, [r0, #16]
 3615 04b0 0C3092E5 		ldr	r3, [r2, #12]
 3616 04b4 283080E5 		str	r3, [r0, #40]
 3617 04b8 0C309CE5 		ldr	r3, [ip, #12]
 3618 04bc 403080E5 		str	r3, [r0, #64]
 3619 04c0 08FFFF0A 		beq	.L1198
 3620 04c4 103092E5 		ldr	r3, [r2, #16]
 3621 04c8 8AFFFFEA 		b	.L1299
 3622              	.L1306:
 3623 04cc 00C092E5 		ldr	ip, [r2]
 3624 04d0 010053E3 		cmp	r3, #1
 3625 04d4 04C080E5 		str	ip, [r0, #4]
 3626 04d8 00C092E5 		ldr	ip, [r2]
 3627 04dc 1CC080E5 		str	ip, [r0, #28]
 3628 04e0 00C092E5 		ldr	ip, [r2]
 3629 04e4 34C080E5 		str	ip, [r0, #52]
 3630 04e8 FEFEFF0A 		beq	.L1198
 3631 04ec 04C092E5 		ldr	ip, [r2, #4]
 3632 04f0 020053E3 		cmp	r3, #2
 3633 04f4 08C080E5 		str	ip, [r0, #8]
 3634 04f8 04C092E5 		ldr	ip, [r2, #4]
 3635 04fc 20C080E5 		str	ip, [r0, #32]
 3636 0500 04C092E5 		ldr	ip, [r2, #4]
 3637 0504 38C080E5 		str	ip, [r0, #56]
 3638 0508 F6FEFF0A 		beq	.L1198
 3639 050c 08C092E5 		ldr	ip, [r2, #8]
 3640 0510 030053E3 		cmp	r3, #3
 3641 0514 0CC080E5 		str	ip, [r0, #12]
 3642 0518 08C092E5 		ldr	ip, [r2, #8]
 3643 051c 24C080E5 		str	ip, [r0, #36]
 3644 0520 08C092E5 		ldr	ip, [r2, #8]
 3645 0524 3CC080E5 		str	ip, [r0, #60]
 3646 0528 EEFEFF0A 		beq	.L1198
 3647 052c 0CC092E5 		ldr	ip, [r2, #12]
 3648 0530 040053E3 		cmp	r3, #4
 3649 0534 10C080E5 		str	ip, [r0, #16]
 3650 0538 0C3092E5 		ldr	r3, [r2, #12]
 3651 053c 283080E5 		str	r3, [r0, #40]
 3652 0540 0C3092E5 		ldr	r3, [r2, #12]
 3653 0544 403080E5 		str	r3, [r0, #64]
 3654 0548 E6FEFF0A 		beq	.L1198
 3655 054c 103092E5 		ldr	r3, [r2, #16]
 3656 0550 B4FFFFEA 		b	.L1297
 3657              		.cantunwind
 3658              		.fnend
 3660              		.section	.text._ZN6tflite3ops5micro13strided_slice15CheckOutputSizeEP13TfLiteContextPNS2_19Strided
 3661              		.align	2
 3662              		.global	_ZN6tflite3ops5micro13strided_slice15CheckOutputSizeEP13TfLiteContextPNS2_19StridedSliceCo
 3663              		.syntax unified
 3664              		.arm
 3665              		.fpu neon
 3667              	_ZN6tflite3ops5micro13strided_slice15CheckOutputSizeEP13TfLiteContextPNS2_19StridedSliceContextE:
 3668              		.fnstart
 3669              	.LFB4518:
 3670              		@ args = 0, pretend = 0, frame = 128
 3671              		@ frame_needed = 0, uses_anonymous_args = 0
 3672 0000 F04F2DE9 		push	{r4, r5, r6, r7, r8, r9, r10, fp, lr}
 3673              		.save {r4, r5, r6, r7, r8, r9, r10, fp, lr}
 3674              		.pad #132
 3675 0004 84D04DE2 		sub	sp, sp, #132
 3676 0008 189091E5 		ldr	r9, [r1, #24]
 3677 000c 0160A0E1 		mov	r6, r1
 3678 0010 142091E5 		ldr	r2, [r1, #20]
 3679 0014 000059E3 		cmp	r9, #0
 3680 0018 7930AFE6 		sxtb	r3, r9
 3681 001c 082092E5 		ldr	r2, [r2, #8]
 3682 0020 2C30CDE5 		strb	r3, [sp, #44]
 3683 0024 4430CDE5 		strb	r3, [sp, #68]
 3684 0028 04208DE5 		str	r2, [sp, #4]
 3685 002c 5C30CDE5 		strb	r3, [sp, #92]
 3686 0030 310000DA 		ble	.L1314
 3687 0034 082091E5 		ldr	r2, [r1, #8]
 3688 0038 0C3091E5 		ldr	r3, [r1, #12]
 3689 003c 100091E5 		ldr	r0, [r1, #16]
 3690 0040 000052E3 		cmp	r2, #0
 3691 0044 E000000A 		beq	.L1491
 3692 0048 000050E3 		cmp	r0, #0
 3693 004c 0B01000A 		beq	.L1492
 3694 0050 000053E3 		cmp	r3, #0
 3695 0054 041092E5 		ldr	r1, [r2, #4]
 3696 0058 3301000A 		beq	.L1493
 3697 005c 042093E5 		ldr	r2, [r3, #4]
 3698 0060 010059E3 		cmp	r9, #1
 3699 0064 043090E5 		ldr	r3, [r0, #4]
 3700 0068 000091E5 		ldr	r0, [r1]
 3701 006c 30008DE5 		str	r0, [sp, #48]
 3702 0070 000092E5 		ldr	r0, [r2]
 3703 0074 48008DE5 		str	r0, [sp, #72]
 3704 0078 000093E5 		ldr	r0, [r3]
 3705 007c 60008DE5 		str	r0, [sp, #96]
 3706 0080 1D00000A 		beq	.L1314
 3707 0084 040091E5 		ldr	r0, [r1, #4]
 3708 0088 020059E3 		cmp	r9, #2
 3709 008c 34008DE5 		str	r0, [sp, #52]
 3710 0090 040092E5 		ldr	r0, [r2, #4]
 3711 0094 4C008DE5 		str	r0, [sp, #76]
 3712 0098 040093E5 		ldr	r0, [r3, #4]
 3713 009c 64008DE5 		str	r0, [sp, #100]
 3714 00a0 1500000A 		beq	.L1314
 3715 00a4 080091E5 		ldr	r0, [r1, #8]
 3716 00a8 030059E3 		cmp	r9, #3
 3717 00ac 38008DE5 		str	r0, [sp, #56]
 3718 00b0 080092E5 		ldr	r0, [r2, #8]
 3719 00b4 50008DE5 		str	r0, [sp, #80]
 3720 00b8 080093E5 		ldr	r0, [r3, #8]
 3721 00bc 68008DE5 		str	r0, [sp, #104]
 3722 00c0 0D00000A 		beq	.L1314
 3723 00c4 0C0091E5 		ldr	r0, [r1, #12]
 3724 00c8 040059E3 		cmp	r9, #4
 3725 00cc 3C008DE5 		str	r0, [sp, #60]
 3726 00d0 0C0092E5 		ldr	r0, [r2, #12]
 3727 00d4 54008DE5 		str	r0, [sp, #84]
 3728 00d8 0C0093E5 		ldr	r0, [r3, #12]
 3729 00dc 6C008DE5 		str	r0, [sp, #108]
 3730 00e0 0500000A 		beq	.L1314
 3731 00e4 101091E5 		ldr	r1, [r1, #16]
 3732 00e8 40108DE5 		str	r1, [sp, #64]
 3733 00ec 102092E5 		ldr	r2, [r2, #16]
 3734 00f0 58208DE5 		str	r2, [sp, #88]
 3735 00f4 103093E5 		ldr	r3, [r3, #16]
 3736 00f8 70308DE5 		str	r3, [sp, #112]
 3737              	.L1314:
 3738 00fc 003096E5 		ldr	r3, [r6]
 3739 0100 0020A0E3 		mov	r2, #0
 3740 0104 045096E5 		ldr	r5, [r6, #4]
 3741 0108 B627CDE1 		strh	r2, [sp, #118]	@ movhi
 3742 010c F010D3E1 		ldrsh	r1, [r3]
 3743 0110 F400D3E1 		ldrsh	r0, [r3, #4]
 3744 0114 020055E1 		cmp	r5, r2
 3745 0118 F081D3E1 		ldrsh	r8, [r3, #16]
 3746 011c 00108DE5 		str	r1, [sp]
 3747 0120 0C008DE5 		str	r0, [sp, #12]
 3748 0124 B417CDE1 		strh	r1, [sp, #116]	@ movhi
 3749 0128 B807CDE1 		strh	r0, [sp, #120]	@ movhi
 3750 012c BC87CDE1 		strh	r8, [sp, #124]	@ movhi
 3751 0130 BA27CDE1 		strh	r2, [sp, #122]	@ movhi
 3752 0134 9C00000A 		beq	.L1494
 3753 0138 085095E5 		ldr	r5, [r5, #8]
 3754 013c 002095E5 		ldr	r2, [r5]
 3755 0140 050052E3 		cmp	r2, #5
 3756 0144 14208DE5 		str	r2, [sp, #20]
 3757 0148 620000DA 		ble	.L1320
 3758 014c 2E0272E3 		cmn	r2, #-536870910
 3759 0150 BA0100CA 		bgt	.L1321
 3760 0154 0241A0E1 		lsl	r4, r2, #2
 3761 0158 0400A0E1 		mov	r0, r4
 3762              	.LEHB25:
 3763 015c FEFFFFEB 		bl	_Znaj
 3764              	.LEHE25:
 3765 0160 189096E5 		ldr	r9, [r6, #24]
 3766 0164 18008DE5 		str	r0, [sp, #24]
 3767              	.L1322:
 3768 0168 041085E2 		add	r1, r5, #4
 3769 016c 0420A0E1 		mov	r2, r4
 3770 0170 FEFFFFEB 		bl	memcpy
 3771 0174 14509DE5 		ldr	r5, [sp, #20]
 3772              	.L1319:
 3773 0178 000059E3 		cmp	r9, #0
 3774 017c 8C0000DA 		ble	.L1359
 3775 0180 18309DE5 		ldr	r3, [sp, #24]
 3776 0184 0040A0E3 		mov	r4, #0
 3777 0188 10B096E5 		ldr	fp, [r6, #16]
 3778 018c 0470A0E1 		mov	r7, r4
 3779 0190 2CA08DE2 		add	r10, sp, #44
 3780 0194 08308DE5 		str	r3, [sp, #8]
 3781 0198 0630A0E1 		mov	r3, r6
 3782 019c 0960A0E1 		mov	r6, r9
 3783 01a0 0390A0E1 		mov	r9, r3
 3784 01a4 380000EA 		b	.L1347
 3785              	.L1500:
 3786 01a8 00109DE5 		ldr	r1, [sp]
 3787 01ac 5114A0E1 		asr	r1, r1, r4
 3788 01b0 010011E3 		tst	r1, #1
 3789 01b4 4A00000A 		beq	.L1328
 3790 01b8 34109AE5 		ldr	r1, [r10, #52]
 3791 01bc 000051E3 		cmp	r1, #0
 3792 01c0 02C1A0C3 		movgt	ip, #-2147483648
 3793 01c4 6A0000DA 		ble	.L1495
 3794              	.L1329:
 3795 01c8 000051E3 		cmp	r1, #0
 3796 01cc 03C08CE0 		add	ip, ip, r3
 3797 01d0 490000DA 		ble	.L1333
 3798              	.L1501:
 3799 01d4 000053E3 		cmp	r3, #0
 3800 01d8 730100BA 		blt	.L1496
 3801 01dc 03005CE1 		cmp	ip, r3
 3802 01e0 0310A0C1 		movgt	r1, r3
 3803 01e4 CC1FCCD1 		bicle	r1, ip, ip, asr #31
 3804              	.L1335:
 3805 01e8 58C4A0E1 		asr	ip, r8, r4
 3806 01ec 01001CE3 		tst	ip, #1
 3807 01f0 4C00001A 		bne	.L1497
 3808              	.L1479:
 3809 01f4 0C009DE5 		ldr	r0, [sp, #12]
 3810 01f8 50C4A0E1 		asr	ip, r0, r4
 3811 01fc 01001CE3 		tst	ip, #1
 3812 0200 4A00000A 		beq	.L1337
 3813 0204 34E09AE5 		ldr	lr, [r10, #52]
 3814 0208 00005EE3 		cmp	lr, #0
 3815 020c 02C1A0D3 		movle	ip, #-2147483648
 3816 0210 550000DA 		ble	.L1339
 3817 0214 02C1E0E3 		mvn	ip, #-2147483648
 3818              	.L1338:
 3819 0218 000053E3 		cmp	r3, #0
 3820 021c 850100BA 		blt	.L1498
 3821 0220 03005CE1 		cmp	ip, r3
 3822 0224 CC3FCCD1 		bicle	r3, ip, ip, asr #31
 3823              	.L1327:
 3824 0228 00C099E5 		ldr	ip, [r9]
 3825 022c 10C09CE5 		ldr	ip, [ip, #16]
 3826 0230 5CC4A0E1 		asr	ip, ip, r4
 3827 0234 01001CE3 		tst	ip, #1
 3828 0238 0F00001A 		bne	.L1345
 3829 023c 013043E0 		sub	r3, r3, r1
 3830 0240 902A07EE 		vmov	s15, r2	@ int
 3831 0244 103A07EE 		vmov	s14, r3	@ int
 3832 0248 E77AF8EE 		vcvt.f32.s32	s15, s15
 3833 024c C70AB8EE 		vcvt.f32.s32	s0, s14
 3834 0250 270A80EE 		vdiv.f32	s0, s0, s15
 3835 0254 FEFFFFEB 		bl	ceilf
 3836 0258 04309DE5 		ldr	r3, [sp, #4]
 3837 025c C00ABDEE 		vcvt.s32.f32	s0, s0
 3838 0260 072183E0 		add	r2, r3, r7, lsl #2
 3839 0264 103A10EE 		vmov	r3, s0	@ int
 3840 0268 042092E5 		ldr	r2, [r2, #4]
 3841 026c C33FC3E1 		bic	r3, r3, r3, asr #31
 3842 0270 030052E1 		cmp	r2, r3
 3843 0274 4200001A 		bne	.L1367
 3844 0278 017087E2 		add	r7, r7, #1
 3845              	.L1345:
 3846 027c 014084E2 		add	r4, r4, #1
 3847 0280 04A08AE2 		add	r10, r10, #4
 3848 0284 060054E1 		cmp	r4, r6
 3849 0288 4A00000A 		beq	.L1323
 3850              	.L1347:
 3851 028c 00005BE3 		cmp	fp, #0
 3852 0290 0B30A001 		moveq	r3, fp
 3853 0294 04309B15 		ldrne	r3, [fp, #4]
 3854              	.L1324:
 3855 0298 042193E7 		ldr	r2, [r3, r4, lsl #2]
 3856 029c 0431A0E1 		lsl	r3, r4, #2
 3857 02a0 000052E3 		cmp	r2, #0
 3858 02a4 3600000A 		beq	.L1367
 3859 02a8 050054E1 		cmp	r4, r5
 3860 02ac 3D0100AA 		bge	.L1499
 3861 02b0 050055E3 		cmp	r5, #5
 3862 02b4 08309DC5 		ldrgt	r3, [sp, #8]
 3863 02b8 14108DD2 		addle	r1, sp, #20
 3864 02bc 033081D0 		addle	r3, r1, r3
 3865 02c0 043093D5 		ldrle	r3, [r3, #4]
 3866 02c4 043193C7 		ldrgt	r3, [r3, r4, lsl #2]
 3867 02c8 000053E3 		cmp	r3, #0
 3868 02cc B5FFFF1A 		bne	.L1500
 3869 02d0 0310A0E1 		mov	r1, r3
 3870 02d4 D3FFFFEA 		b	.L1327
 3871              	.L1320:
 3872 02d8 0241A0E1 		lsl	r4, r2, #2
 3873 02dc 18008DE2 		add	r0, sp, #24
 3874 02e0 A0FFFFEA 		b	.L1322
 3875              	.L1328:
 3876 02e4 04C09AE5 		ldr	ip, [r10, #4]
 3877 02e8 34109AE5 		ldr	r1, [r10, #52]
 3878 02ec 00005CE3 		cmp	ip, #0
 3879 02f0 B4FFFFBA 		blt	.L1329
 3880 02f4 000051E3 		cmp	r1, #0
 3881 02f8 B5FFFFCA 		bgt	.L1501
 3882              	.L1333:
 3883 02fc 011043E2 		sub	r1, r3, #1
 3884 0300 010071E3 		cmn	r1, #1
 3885 0304 1D0000BA 		blt	.L1358
 3886 0308 01005CE1 		cmp	ip, r1
 3887 030c B5FFFFCA 		bgt	.L1335
 3888 0310 01007CE3 		cmn	ip, #1
 3889 0314 0C10A0A1 		movge	r1, ip
 3890 0318 58C4A0E1 		asr	ip, r8, r4
 3891 031c 0010E0B3 		mvnlt	r1, #0
 3892 0320 01001CE3 		tst	ip, #1
 3893 0324 B2FFFF0A 		beq	.L1479
 3894              	.L1497:
 3895 0328 013081E2 		add	r3, r1, #1
 3896 032c BDFFFFEA 		b	.L1327
 3897              	.L1337:
 3898 0330 1CC09AE5 		ldr	ip, [r10, #28]
 3899 0334 34E09AE5 		ldr	lr, [r10, #52]
 3900 0338 00005CE3 		cmp	ip, #0
 3901 033c 0A0000BA 		blt	.L1339
 3902              	.L1341:
 3903 0340 00005EE3 		cmp	lr, #0
 3904 0344 B3FFFFCA 		bgt	.L1338
 3905 0348 013043E2 		sub	r3, r3, #1
 3906 034c 010073E3 		cmn	r3, #1
 3907 0350 390100BA 		blt	.L1502
 3908 0354 03005CE1 		cmp	ip, r3
 3909 0358 B2FFFFCA 		bgt	.L1327
 3910 035c 01007CE3 		cmn	ip, #1
 3911 0360 0C30A0A1 		movge	r3, ip
 3912 0364 0030E0B3 		mvnlt	r3, #0
 3913 0368 AEFFFFEA 		b	.L1327
 3914              	.L1339:
 3915 036c 03C08CE0 		add	ip, ip, r3
 3916 0370 F2FFFFEA 		b	.L1341
 3917              	.L1495:
 3918 0374 011043E2 		sub	r1, r3, #1
 3919 0378 010071E3 		cmn	r1, #1
 3920 037c 99FFFFAA 		bge	.L1335
 3921              	.L1358:
 3922              	.LEHB26:
 3923 0380 FEFFFFEB 		bl	abort
 3924              	.LEHE26:
 3925              	.L1367:
 3926 0384 0140A0E3 		mov	r4, #1
 3927              	.L1353:
 3928 0388 050055E3 		cmp	r5, #5
 3929 038c 030000DA 		ble	.L1369
 3930 0390 18009DE5 		ldr	r0, [sp, #24]
 3931 0394 000050E3 		cmp	r0, #0
 3932 0398 0000000A 		beq	.L1369
 3933 039c FEFFFFEB 		bl	_ZdaPv
 3934              	.L1369:
 3935 03a0 0400A0E1 		mov	r0, r4
 3936 03a4 84D08DE2 		add	sp, sp, #132
 3937              		@ sp needed
 3938 03a8 F08FBDE8 		pop	{r4, r5, r6, r7, r8, r9, r10, fp, pc}
 3939              	.L1494:
 3940 03ac 14508DE5 		str	r5, [sp, #20]
 3941 03b0 70FFFFEA 		b	.L1319
 3942              	.L1359:
 3943 03b4 0070A0E3 		mov	r7, #0
 3944              	.L1323:
 3945 03b8 04309DE5 		ldr	r3, [sp, #4]
 3946 03bc 004093E5 		ldr	r4, [r3]
 3947 03c0 074054E0 		subs	r4, r4, r7
 3948 03c4 0140A013 		movne	r4, #1
 3949 03c8 EEFFFFEA 		b	.L1353
 3950              	.L1491:
 3951 03cc 000050E3 		cmp	r0, #0
 3952 03d0 8500000A 		beq	.L1503
 3953 03d4 000053E3 		cmp	r3, #0
 3954 03d8 A800000A 		beq	.L1504
 3955 03dc 00C092E5 		ldr	ip, [r2]
 3956 03e0 010059E3 		cmp	r9, #1
 3957 03e4 041093E5 		ldr	r1, [r3, #4]
 3958 03e8 043090E5 		ldr	r3, [r0, #4]
 3959 03ec 30C08DE5 		str	ip, [sp, #48]
 3960 03f0 000091E5 		ldr	r0, [r1]
 3961 03f4 48008DE5 		str	r0, [sp, #72]
 3962 03f8 000093E5 		ldr	r0, [r3]
 3963 03fc 60008DE5 		str	r0, [sp, #96]
 3964 0400 3DFFFF0A 		beq	.L1314
 3965 0404 040092E5 		ldr	r0, [r2, #4]
 3966 0408 020059E3 		cmp	r9, #2
 3967 040c 34008DE5 		str	r0, [sp, #52]
 3968 0410 040091E5 		ldr	r0, [r1, #4]
 3969 0414 4C008DE5 		str	r0, [sp, #76]
 3970 0418 040093E5 		ldr	r0, [r3, #4]
 3971 041c 64008DE5 		str	r0, [sp, #100]
 3972 0420 35FFFF0A 		beq	.L1314
 3973 0424 080092E5 		ldr	r0, [r2, #8]
 3974 0428 030059E3 		cmp	r9, #3
 3975 042c 38008DE5 		str	r0, [sp, #56]
 3976 0430 080091E5 		ldr	r0, [r1, #8]
 3977 0434 50008DE5 		str	r0, [sp, #80]
 3978 0438 080093E5 		ldr	r0, [r3, #8]
 3979 043c 68008DE5 		str	r0, [sp, #104]
 3980 0440 2DFFFF0A 		beq	.L1314
 3981 0444 0C0092E5 		ldr	r0, [r2, #12]
 3982 0448 040059E3 		cmp	r9, #4
 3983 044c 3C008DE5 		str	r0, [sp, #60]
 3984 0450 0C0091E5 		ldr	r0, [r1, #12]
 3985 0454 54008DE5 		str	r0, [sp, #84]
 3986 0458 0C0093E5 		ldr	r0, [r3, #12]
 3987 045c 6C008DE5 		str	r0, [sp, #108]
 3988 0460 25FFFF0A 		beq	.L1314
 3989 0464 102092E5 		ldr	r2, [r2, #16]
 3990 0468 40208DE5 		str	r2, [sp, #64]
 3991 046c 102091E5 		ldr	r2, [r1, #16]
 3992 0470 58208DE5 		str	r2, [sp, #88]
 3993 0474 103093E5 		ldr	r3, [r3, #16]
 3994 0478 70308DE5 		str	r3, [sp, #112]
 3995 047c 1EFFFFEA 		b	.L1314
 3996              	.L1492:
 3997 0480 000053E3 		cmp	r3, #0
 3998 0484 042092E5 		ldr	r2, [r2, #4]
 3999 0488 9F00000A 		beq	.L1505
 4000 048c 001092E5 		ldr	r1, [r2]
 4001 0490 010059E3 		cmp	r9, #1
 4002 0494 043093E5 		ldr	r3, [r3, #4]
 4003 0498 30108DE5 		str	r1, [sp, #48]
 4004 049c 001093E5 		ldr	r1, [r3]
 4005 04a0 48108DE5 		str	r1, [sp, #72]
 4006 04a4 001090E5 		ldr	r1, [r0]
 4007 04a8 60108DE5 		str	r1, [sp, #96]
 4008 04ac 12FFFF0A 		beq	.L1314
 4009 04b0 041092E5 		ldr	r1, [r2, #4]
 4010 04b4 020059E3 		cmp	r9, #2
 4011 04b8 34108DE5 		str	r1, [sp, #52]
 4012 04bc 041093E5 		ldr	r1, [r3, #4]
 4013 04c0 4C108DE5 		str	r1, [sp, #76]
 4014 04c4 041090E5 		ldr	r1, [r0, #4]
 4015 04c8 64108DE5 		str	r1, [sp, #100]
 4016 04cc 0AFFFF0A 		beq	.L1314
 4017 04d0 081092E5 		ldr	r1, [r2, #8]
 4018 04d4 030059E3 		cmp	r9, #3
 4019 04d8 38108DE5 		str	r1, [sp, #56]
 4020 04dc 081093E5 		ldr	r1, [r3, #8]
 4021 04e0 50108DE5 		str	r1, [sp, #80]
 4022 04e4 081090E5 		ldr	r1, [r0, #8]
 4023 04e8 68108DE5 		str	r1, [sp, #104]
 4024 04ec 02FFFF0A 		beq	.L1314
 4025 04f0 0C1092E5 		ldr	r1, [r2, #12]
 4026 04f4 040059E3 		cmp	r9, #4
 4027 04f8 3C108DE5 		str	r1, [sp, #60]
 4028 04fc 0C1093E5 		ldr	r1, [r3, #12]
 4029 0500 54108DE5 		str	r1, [sp, #84]
 4030 0504 0C1090E5 		ldr	r1, [r0, #12]
 4031 0508 6C108DE5 		str	r1, [sp, #108]
 4032 050c FAFEFF0A 		beq	.L1314
 4033 0510 102092E5 		ldr	r2, [r2, #16]
 4034              	.L1483:
 4035 0514 40208DE5 		str	r2, [sp, #64]
 4036 0518 103093E5 		ldr	r3, [r3, #16]
 4037 051c 58308DE5 		str	r3, [sp, #88]
 4038 0520 103090E5 		ldr	r3, [r0, #16]
 4039 0524 70308DE5 		str	r3, [sp, #112]
 4040 0528 F3FEFFEA 		b	.L1314
 4041              	.L1493:
 4042 052c 042090E5 		ldr	r2, [r0, #4]
 4043 0530 010059E3 		cmp	r9, #1
 4044 0534 000091E5 		ldr	r0, [r1]
 4045 0538 30008DE5 		str	r0, [sp, #48]
 4046 053c 000093E5 		ldr	r0, [r3]
 4047 0540 48008DE5 		str	r0, [sp, #72]
 4048 0544 000092E5 		ldr	r0, [r2]
 4049 0548 60008DE5 		str	r0, [sp, #96]
 4050 054c EAFEFF0A 		beq	.L1314
 4051 0550 040091E5 		ldr	r0, [r1, #4]
 4052 0554 020059E3 		cmp	r9, #2
 4053 0558 34008DE5 		str	r0, [sp, #52]
 4054 055c 040093E5 		ldr	r0, [r3, #4]
 4055 0560 4C008DE5 		str	r0, [sp, #76]
 4056 0564 040092E5 		ldr	r0, [r2, #4]
 4057 0568 64008DE5 		str	r0, [sp, #100]
 4058 056c E2FEFF0A 		beq	.L1314
 4059 0570 080091E5 		ldr	r0, [r1, #8]
 4060 0574 030059E3 		cmp	r9, #3
 4061 0578 38008DE5 		str	r0, [sp, #56]
 4062 057c 080093E5 		ldr	r0, [r3, #8]
 4063 0580 50008DE5 		str	r0, [sp, #80]
 4064 0584 080092E5 		ldr	r0, [r2, #8]
 4065 0588 68008DE5 		str	r0, [sp, #104]
 4066 058c DAFEFF0A 		beq	.L1314
 4067 0590 0C0091E5 		ldr	r0, [r1, #12]
 4068 0594 040059E3 		cmp	r9, #4
 4069 0598 3C008DE5 		str	r0, [sp, #60]
 4070 059c 0C0093E5 		ldr	r0, [r3, #12]
 4071 05a0 54008DE5 		str	r0, [sp, #84]
 4072 05a4 0C0092E5 		ldr	r0, [r2, #12]
 4073 05a8 6C008DE5 		str	r0, [sp, #108]
 4074 05ac D2FEFF0A 		beq	.L1314
 4075 05b0 101091E5 		ldr	r1, [r1, #16]
 4076              	.L1481:
 4077 05b4 40108DE5 		str	r1, [sp, #64]
 4078 05b8 103093E5 		ldr	r3, [r3, #16]
 4079 05bc 58308DE5 		str	r3, [sp, #88]
 4080 05c0 103092E5 		ldr	r3, [r2, #16]
 4081 05c4 70308DE5 		str	r3, [sp, #112]
 4082 05c8 CBFEFFEA 		b	.L1314
 4083              	.L1368:
 4084 05cc 050055E3 		cmp	r5, #5
 4085 05d0 040000DA 		ble	.L1350
 4086 05d4 08309DE5 		ldr	r3, [sp, #8]
 4087 05d8 000053E3 		cmp	r3, #0
 4088 05dc 0100000A 		beq	.L1350
 4089 05e0 0300A0E1 		mov	r0, r3
 4090 05e4 FEFFFFEB 		bl	_ZdaPv
 4091              	.L1350:
 4092              	.LEHB27:
 4093 05e8 FEFFFFEB 		bl	__cxa_end_cleanup
 4094              	.LEHE27:
 4095              	.L1503:
 4096 05ec 000053E3 		cmp	r3, #0
 4097 05f0 6E00000A 		beq	.L1506
 4098 05f4 002090E5 		ldr	r2, [r0]
 4099 05f8 010059E3 		cmp	r9, #1
 4100 05fc 043093E5 		ldr	r3, [r3, #4]
 4101 0600 30208DE5 		str	r2, [sp, #48]
 4102 0604 002093E5 		ldr	r2, [r3]
 4103 0608 48208DE5 		str	r2, [sp, #72]
 4104 060c 002090E5 		ldr	r2, [r0]
 4105 0610 60208DE5 		str	r2, [sp, #96]
 4106 0614 B8FEFF0A 		beq	.L1314
 4107 0618 042090E5 		ldr	r2, [r0, #4]
 4108 061c 020059E3 		cmp	r9, #2
 4109 0620 34208DE5 		str	r2, [sp, #52]
 4110 0624 042093E5 		ldr	r2, [r3, #4]
 4111 0628 4C208DE5 		str	r2, [sp, #76]
 4112 062c 042090E5 		ldr	r2, [r0, #4]
 4113 0630 64208DE5 		str	r2, [sp, #100]
 4114 0634 B0FEFF0A 		beq	.L1314
 4115 0638 082090E5 		ldr	r2, [r0, #8]
 4116 063c 030059E3 		cmp	r9, #3
 4117 0640 38208DE5 		str	r2, [sp, #56]
 4118 0644 082093E5 		ldr	r2, [r3, #8]
 4119 0648 50208DE5 		str	r2, [sp, #80]
 4120 064c 082090E5 		ldr	r2, [r0, #8]
 4121 0650 68208DE5 		str	r2, [sp, #104]
 4122 0654 A8FEFF0A 		beq	.L1314
 4123 0658 0C2090E5 		ldr	r2, [r0, #12]
 4124 065c 040059E3 		cmp	r9, #4
 4125 0660 3C208DE5 		str	r2, [sp, #60]
 4126 0664 0C2093E5 		ldr	r2, [r3, #12]
 4127 0668 54208DE5 		str	r2, [sp, #84]
 4128 066c 0C2090E5 		ldr	r2, [r0, #12]
 4129 0670 6C208DE5 		str	r2, [sp, #108]
 4130 0674 A0FEFF0A 		beq	.L1314
 4131 0678 102090E5 		ldr	r2, [r0, #16]
 4132 067c A4FFFFEA 		b	.L1483
 4133              	.L1504:
 4134 0680 001093E5 		ldr	r1, [r3]
 4135 0684 010059E3 		cmp	r9, #1
 4136 0688 042090E5 		ldr	r2, [r0, #4]
 4137 068c 30108DE5 		str	r1, [sp, #48]
 4138 0690 001093E5 		ldr	r1, [r3]
 4139 0694 48108DE5 		str	r1, [sp, #72]
 4140 0698 001092E5 		ldr	r1, [r2]
 4141 069c 60108DE5 		str	r1, [sp, #96]
 4142 06a0 95FEFF0A 		beq	.L1314
 4143 06a4 041093E5 		ldr	r1, [r3, #4]
 4144 06a8 020059E3 		cmp	r9, #2
 4145 06ac 34108DE5 		str	r1, [sp, #52]
 4146 06b0 041093E5 		ldr	r1, [r3, #4]
 4147 06b4 4C108DE5 		str	r1, [sp, #76]
 4148 06b8 041092E5 		ldr	r1, [r2, #4]
 4149 06bc 64108DE5 		str	r1, [sp, #100]
 4150 06c0 8DFEFF0A 		beq	.L1314
 4151 06c4 081093E5 		ldr	r1, [r3, #8]
 4152 06c8 030059E3 		cmp	r9, #3
 4153 06cc 38108DE5 		str	r1, [sp, #56]
 4154 06d0 081093E5 		ldr	r1, [r3, #8]
 4155 06d4 50108DE5 		str	r1, [sp, #80]
 4156 06d8 081092E5 		ldr	r1, [r2, #8]
 4157 06dc 68108DE5 		str	r1, [sp, #104]
 4158 06e0 85FEFF0A 		beq	.L1314
 4159 06e4 0C1093E5 		ldr	r1, [r3, #12]
 4160 06e8 040059E3 		cmp	r9, #4
 4161 06ec 3C108DE5 		str	r1, [sp, #60]
 4162 06f0 0C1093E5 		ldr	r1, [r3, #12]
 4163 06f4 54108DE5 		str	r1, [sp, #84]
 4164 06f8 0C1092E5 		ldr	r1, [r2, #12]
 4165 06fc 6C108DE5 		str	r1, [sp, #108]
 4166 0700 7DFEFF0A 		beq	.L1314
 4167 0704 101093E5 		ldr	r1, [r3, #16]
 4168 0708 A9FFFFEA 		b	.L1481
 4169              	.L1505:
 4170 070c 001092E5 		ldr	r1, [r2]
 4171 0710 010059E3 		cmp	r9, #1
 4172 0714 30108DE5 		str	r1, [sp, #48]
 4173 0718 001093E5 		ldr	r1, [r3]
 4174 071c 48108DE5 		str	r1, [sp, #72]
 4175 0720 001093E5 		ldr	r1, [r3]
 4176 0724 60108DE5 		str	r1, [sp, #96]
 4177 0728 73FEFF0A 		beq	.L1314
 4178 072c 041092E5 		ldr	r1, [r2, #4]
 4179 0730 020059E3 		cmp	r9, #2
 4180 0734 34108DE5 		str	r1, [sp, #52]
 4181 0738 041093E5 		ldr	r1, [r3, #4]
 4182 073c 4C108DE5 		str	r1, [sp, #76]
 4183 0740 041093E5 		ldr	r1, [r3, #4]
 4184 0744 64108DE5 		str	r1, [sp, #100]
 4185 0748 6BFEFF0A 		beq	.L1314
 4186 074c 081092E5 		ldr	r1, [r2, #8]
 4187 0750 030059E3 		cmp	r9, #3
 4188 0754 38108DE5 		str	r1, [sp, #56]
 4189 0758 081093E5 		ldr	r1, [r3, #8]
 4190 075c 50108DE5 		str	r1, [sp, #80]
 4191 0760 081093E5 		ldr	r1, [r3, #8]
 4192 0764 68108DE5 		str	r1, [sp, #104]
 4193 0768 63FEFF0A 		beq	.L1314
 4194 076c 0C1092E5 		ldr	r1, [r2, #12]
 4195 0770 040059E3 		cmp	r9, #4
 4196 0774 3C108DE5 		str	r1, [sp, #60]
 4197 0778 0C1093E5 		ldr	r1, [r3, #12]
 4198 077c 54108DE5 		str	r1, [sp, #84]
 4199 0780 0C1093E5 		ldr	r1, [r3, #12]
 4200 0784 6C108DE5 		str	r1, [sp, #108]
 4201 0788 5BFEFF0A 		beq	.L1314
 4202 078c 102092E5 		ldr	r2, [r2, #16]
 4203              	.L1482:
 4204 0790 40208DE5 		str	r2, [sp, #64]
 4205 0794 102093E5 		ldr	r2, [r3, #16]
 4206 0798 58208DE5 		str	r2, [sp, #88]
 4207 079c 103093E5 		ldr	r3, [r3, #16]
 4208 07a0 70308DE5 		str	r3, [sp, #112]
 4209 07a4 54FEFFEA 		b	.L1314
 4210              	.L1499:
 4211              	.LEHB28:
 4212 07a8 FEFFFFEB 		bl	abort
 4213              	.L1496:
 4214 07ac FEFFFFEB 		bl	abort
 4215              	.L1506:
 4216 07b0 002093E5 		ldr	r2, [r3]
 4217 07b4 010059E3 		cmp	r9, #1
 4218 07b8 30208DE5 		str	r2, [sp, #48]
 4219 07bc 002093E5 		ldr	r2, [r3]
 4220 07c0 48208DE5 		str	r2, [sp, #72]
 4221 07c4 002093E5 		ldr	r2, [r3]
 4222 07c8 60208DE5 		str	r2, [sp, #96]
 4223 07cc 4AFEFF0A 		beq	.L1314
 4224 07d0 042093E5 		ldr	r2, [r3, #4]
 4225 07d4 020059E3 		cmp	r9, #2
 4226 07d8 34208DE5 		str	r2, [sp, #52]
 4227 07dc 042093E5 		ldr	r2, [r3, #4]
 4228 07e0 4C208DE5 		str	r2, [sp, #76]
 4229 07e4 042093E5 		ldr	r2, [r3, #4]
 4230 07e8 64208DE5 		str	r2, [sp, #100]
 4231 07ec 42FEFF0A 		beq	.L1314
 4232 07f0 082093E5 		ldr	r2, [r3, #8]
 4233 07f4 030059E3 		cmp	r9, #3
 4234 07f8 38208DE5 		str	r2, [sp, #56]
 4235 07fc 082093E5 		ldr	r2, [r3, #8]
 4236 0800 50208DE5 		str	r2, [sp, #80]
 4237 0804 082093E5 		ldr	r2, [r3, #8]
 4238 0808 68208DE5 		str	r2, [sp, #104]
 4239 080c 3AFEFF0A 		beq	.L1314
 4240 0810 0C2093E5 		ldr	r2, [r3, #12]
 4241 0814 040059E3 		cmp	r9, #4
 4242 0818 3C208DE5 		str	r2, [sp, #60]
 4243 081c 0C2093E5 		ldr	r2, [r3, #12]
 4244 0820 54208DE5 		str	r2, [sp, #84]
 4245 0824 0C2093E5 		ldr	r2, [r3, #12]
 4246 0828 6C208DE5 		str	r2, [sp, #108]
 4247 082c 32FEFF0A 		beq	.L1314
 4248 0830 102093E5 		ldr	r2, [r3, #16]
 4249 0834 D5FFFFEA 		b	.L1482
 4250              	.L1498:
 4251 0838 FEFFFFEB 		bl	abort
 4252              	.L1502:
 4253 083c FEFFFFEB 		bl	abort
 4254              	.LEHE28:
 4255              	.L1321:
 4256              	.LEHB29:
 4257 0840 FEFFFFEB 		bl	__cxa_throw_bad_array_new_length
 4258              	.LEHE29:
 4259              		.personality	__gxx_personality_v0
 4260              		.handlerdata
 4261              	.LLSDA4518:
 4262 0008 FF       		.byte	0xff
 4263 0009 FF       		.byte	0xff
 4264 000a 01       		.byte	0x1
 4265 000b 1C       		.uleb128 .LLSDACSE4518-.LLSDACSB4518
 4266              	.LLSDACSB4518:
 4267 000c DC02     		.uleb128 .LEHB25-.LFB4518
 4268 000e 04       		.uleb128 .LEHE25-.LEHB25
 4269 000f 00       		.uleb128 0
 4270 0010 00       		.uleb128 0
 4271 0011 8007     		.uleb128 .LEHB26-.LFB4518
 4272 0013 04       		.uleb128 .LEHE26-.LEHB26
 4273 0014 CC0B     		.uleb128 .L1368-.LFB4518
 4274 0016 00       		.uleb128 0
 4275 0017 E80B     		.uleb128 .LEHB27-.LFB4518
 4276 0019 04       		.uleb128 .LEHE27-.LEHB27
 4277 001a 00       		.uleb128 0
 4278 001b 00       		.uleb128 0
 4279 001c A80F     		.uleb128 .LEHB28-.LFB4518
 4280 001e 9801     		.uleb128 .LEHE28-.LEHB28
 4281 0020 CC0B     		.uleb128 .L1368-.LFB4518
 4282 0022 00       		.uleb128 0
 4283 0023 C010     		.uleb128 .LEHB29-.LFB4518
 4284 0025 04       		.uleb128 .LEHE29-.LEHB29
 4285 0026 00       		.uleb128 0
 4286 0027 00       		.uleb128 0
 4287              	.LLSDACSE4518:
 4288              		.section	.text._ZN6tflite3ops5micro13strided_slice15CheckOutputSizeEP13TfLiteContextPNS2_19Strided
 4289              		.fnend
 4291              		.section	.text._ZN6tflite3ops5micro13strided_slice7PrepareEP13TfLiteContextP10TfLiteNode,"ax",%pro
 4292              		.align	2
 4293              		.global	_ZN6tflite3ops5micro13strided_slice7PrepareEP13TfLiteContextP10TfLiteNode
 4294              		.syntax unified
 4295              		.arm
 4296              		.fpu neon
 4298              	_ZN6tflite3ops5micro13strided_slice7PrepareEP13TfLiteContextP10TfLiteNode:
 4299              		.fnstart
 4300              	.LFB4520:
 4301              		@ args = 0, pretend = 0, frame = 112
 4302              		@ frame_needed = 0, uses_anonymous_args = 0
 4303 0000 F0402DE9 		push	{r4, r5, r6, r7, lr}
 4304              		.save {r4, r5, r6, r7, lr}
 4305              		.pad #116
 4306 0004 74D04DE2 		sub	sp, sp, #116
 4307 0008 105091E5 		ldr	r5, [r1, #16]
 4308 000c 000055E3 		cmp	r5, #0
 4309 0010 3001000A 		beq	.L1590
 4310 0014 003091E5 		ldr	r3, [r1]
 4311 0018 0140A0E1 		mov	r4, r1
 4312 001c 003093E5 		ldr	r3, [r3]
 4313 0020 040053E3 		cmp	r3, #4
 4314 0024 0200000A 		beq	.L1509
 4315              	.L1511:
 4316 0028 0100A0E3 		mov	r0, #1
 4317              	.L1510:
 4318 002c 74D08DE2 		add	sp, sp, #116
 4319              		@ sp needed
 4320 0030 F080BDE8 		pop	{r4, r5, r6, r7, pc}
 4321              	.L1509:
 4322 0034 043091E5 		ldr	r3, [r1, #4]
 4323 0038 007093E5 		ldr	r7, [r3]
 4324 003c 010057E3 		cmp	r7, #1
 4325 0040 F8FFFF1A 		bne	.L1511
 4326 0044 143091E5 		ldr	r3, [r1, #20]
 4327 0048 0060A0E1 		mov	r6, r0
 4328 004c 0020A0E3 		mov	r2, #0
 4329 0050 00308DE5 		str	r3, [sp]
 4330 0054 FEFFFFEB 		bl	_ZN6tflite8GetInputEPK13TfLiteContextPK10TfLiteNodei
 4331 0058 0720A0E1 		mov	r2, r7
 4332 005c 04008DE5 		str	r0, [sp, #4]
 4333 0060 0410A0E1 		mov	r1, r4
 4334 0064 0600A0E1 		mov	r0, r6
 4335 0068 FEFFFFEB 		bl	_ZN6tflite8GetInputEPK13TfLiteContextPK10TfLiteNodei
 4336 006c 0220A0E3 		mov	r2, #2
 4337 0070 08008DE5 		str	r0, [sp, #8]
 4338 0074 0410A0E1 		mov	r1, r4
 4339 0078 0600A0E1 		mov	r0, r6
 4340 007c FEFFFFEB 		bl	_ZN6tflite8GetInputEPK13TfLiteContextPK10TfLiteNodei
 4341 0080 0320A0E3 		mov	r2, #3
 4342 0084 0C008DE5 		str	r0, [sp, #12]
 4343 0088 0410A0E1 		mov	r1, r4
 4344 008c 0600A0E1 		mov	r0, r6
 4345 0090 FEFFFFEB 		bl	_ZN6tflite8GetInputEPK13TfLiteContextPK10TfLiteNodei
 4346 0094 0410A0E1 		mov	r1, r4
 4347 0098 10008DE5 		str	r0, [sp, #16]
 4348 009c 0020A0E3 		mov	r2, #0
 4349 00a0 0600A0E1 		mov	r0, r6
 4350 00a4 FEFFFFEB 		bl	_ZN6tflite9GetOutputEP13TfLiteContextPK10TfLiteNodei
 4351 00a8 04309DE5 		ldr	r3, [sp, #4]
 4352 00ac 14008DE5 		str	r0, [sp, #20]
 4353 00b0 083093E5 		ldr	r3, [r3, #8]
 4354 00b4 003093E5 		ldr	r3, [r3]
 4355 00b8 040053E3 		cmp	r3, #4
 4356 00bc 18308DE5 		str	r3, [sp, #24]
 4357 00c0 D8FFFFCA 		bgt	.L1511
 4358 00c4 7320AFE6 		sxtb	r2, r3
 4359 00c8 000053E3 		cmp	r3, #0
 4360 00cc 1C20CDE5 		strb	r2, [sp, #28]
 4361 00d0 3420CDE5 		strb	r2, [sp, #52]
 4362 00d4 4C20CDE5 		strb	r2, [sp, #76]
 4363 00d8 280000DA 		ble	.L1522
 4364 00dc 08108DE2 		add	r1, sp, #8
 4365 00e0 061091E8 		ldm	r1, {r1, r2, ip}
 4366 00e4 000051E3 		cmp	r1, #0
 4367 00e8 3500000A 		beq	.L1591
 4368 00ec 00005CE3 		cmp	ip, #0
 4369 00f0 5900000A 		beq	.L1592
 4370 00f4 000052E3 		cmp	r2, #0
 4371 00f8 040091E5 		ldr	r0, [r1, #4]
 4372 00fc 7A00000A 		beq	.L1593
 4373 0100 041092E5 		ldr	r1, [r2, #4]
 4374 0104 010053E3 		cmp	r3, #1
 4375 0108 04209CE5 		ldr	r2, [ip, #4]
 4376 010c 00C090E5 		ldr	ip, [r0]
 4377 0110 20C08DE5 		str	ip, [sp, #32]
 4378 0114 00C091E5 		ldr	ip, [r1]
 4379 0118 38C08DE5 		str	ip, [sp, #56]
 4380 011c 00C092E5 		ldr	ip, [r2]
 4381 0120 50C08DE5 		str	ip, [sp, #80]
 4382 0124 1500000A 		beq	.L1522
 4383 0128 04C090E5 		ldr	ip, [r0, #4]
 4384 012c 020053E3 		cmp	r3, #2
 4385 0130 24C08DE5 		str	ip, [sp, #36]
 4386 0134 04C091E5 		ldr	ip, [r1, #4]
 4387 0138 3CC08DE5 		str	ip, [sp, #60]
 4388 013c 04C092E5 		ldr	ip, [r2, #4]
 4389 0140 54C08DE5 		str	ip, [sp, #84]
 4390 0144 0D00000A 		beq	.L1522
 4391 0148 08C090E5 		ldr	ip, [r0, #8]
 4392 014c 030053E3 		cmp	r3, #3
 4393 0150 28C08DE5 		str	ip, [sp, #40]
 4394 0154 083091E5 		ldr	r3, [r1, #8]
 4395 0158 40308DE5 		str	r3, [sp, #64]
 4396 015c 083092E5 		ldr	r3, [r2, #8]
 4397 0160 58308DE5 		str	r3, [sp, #88]
 4398 0164 0500000A 		beq	.L1522
 4399 0168 0C3090E5 		ldr	r3, [r0, #12]
 4400              	.L1588:
 4401 016c 2C308DE5 		str	r3, [sp, #44]
 4402 0170 0C3091E5 		ldr	r3, [r1, #12]
 4403 0174 44308DE5 		str	r3, [sp, #68]
 4404 0178 0C3092E5 		ldr	r3, [r2, #12]
 4405 017c 5C308DE5 		str	r3, [sp, #92]
 4406              	.L1522:
 4407 0180 00309DE5 		ldr	r3, [sp]
 4408 0184 00C0A0E3 		mov	ip, #0
 4409 0188 1C108DE2 		add	r1, sp, #28
 4410 018c 0500A0E1 		mov	r0, r5
 4411 0190 5420A0E3 		mov	r2, #84
 4412 0194 B6C6CDE1 		strh	ip, [sp, #102]	@ movhi
 4413 0198 104093E8 		ldm	r3, {r4, lr}
 4414 019c 103093E5 		ldr	r3, [r3, #16]
 4415 01a0 BAC6CDE1 		strh	ip, [sp, #106]	@ movhi
 4416 01a4 B446CDE1 		strh	r4, [sp, #100]	@ movhi
 4417 01a8 B8E6CDE1 		strh	lr, [sp, #104]	@ movhi
 4418 01ac BC36CDE1 		strh	r3, [sp, #108]	@ movhi
 4419 01b0 FEFFFFEB 		bl	memcpy
 4420 01b4 0600A0E1 		mov	r0, r6
 4421 01b8 0D10A0E1 		mov	r1, sp
 4422 01bc FEFFFFEB 		bl	_ZN6tflite3ops5micro13strided_slice15CheckOutputSizeEP13TfLiteContextPNS2_19StridedSliceContext
 4423 01c0 99FFFFEA 		b	.L1510
 4424              	.L1591:
 4425 01c4 00005CE3 		cmp	ip, #0
 4426 01c8 6800000A 		beq	.L1594
 4427 01cc 000052E3 		cmp	r2, #0
 4428 01d0 8400000A 		beq	.L1595
 4429 01d4 00E091E5 		ldr	lr, [r1]
 4430 01d8 010053E3 		cmp	r3, #1
 4431 01dc 040092E5 		ldr	r0, [r2, #4]
 4432 01e0 04209CE5 		ldr	r2, [ip, #4]
 4433 01e4 20E08DE5 		str	lr, [sp, #32]
 4434 01e8 00C090E5 		ldr	ip, [r0]
 4435 01ec 38C08DE5 		str	ip, [sp, #56]
 4436 01f0 00C092E5 		ldr	ip, [r2]
 4437 01f4 50C08DE5 		str	ip, [sp, #80]
 4438 01f8 E0FFFF0A 		beq	.L1522
 4439 01fc 041091E5 		ldr	r1, [r1, #4]
 4440 0200 020053E3 		cmp	r3, #2
 4441 0204 24108DE5 		str	r1, [sp, #36]
 4442 0208 041090E5 		ldr	r1, [r0, #4]
 4443 020c 3C108DE5 		str	r1, [sp, #60]
 4444 0210 041092E5 		ldr	r1, [r2, #4]
 4445 0214 54108DE5 		str	r1, [sp, #84]
 4446 0218 D8FFFF0A 		beq	.L1522
 4447 021c 0010A0E3 		mov	r1, #0
 4448 0220 030053E3 		cmp	r3, #3
 4449 0224 083091E5 		ldr	r3, [r1, #8]
 4450 0228 28308DE5 		str	r3, [sp, #40]
 4451 022c 083090E5 		ldr	r3, [r0, #8]
 4452 0230 40308DE5 		str	r3, [sp, #64]
 4453 0234 083092E5 		ldr	r3, [r2, #8]
 4454 0238 58308DE5 		str	r3, [sp, #88]
 4455 023c CFFFFF0A 		beq	.L1522
 4456 0240 0C3091E5 		ldr	r3, [r1, #12]
 4457 0244 2C308DE5 		str	r3, [sp, #44]
 4458 0248 0C3090E5 		ldr	r3, [r0, #12]
 4459 024c 44308DE5 		str	r3, [sp, #68]
 4460 0250 0C3092E5 		ldr	r3, [r2, #12]
 4461 0254 5C308DE5 		str	r3, [sp, #92]
 4462 0258 C8FFFFEA 		b	.L1522
 4463              	.L1592:
 4464 025c 000052E3 		cmp	r2, #0
 4465 0260 041091E5 		ldr	r1, [r1, #4]
 4466 0264 7B00000A 		beq	.L1596
 4467 0268 000091E5 		ldr	r0, [r1]
 4468 026c 010053E3 		cmp	r3, #1
 4469 0270 042092E5 		ldr	r2, [r2, #4]
 4470 0274 20008DE5 		str	r0, [sp, #32]
 4471 0278 000092E5 		ldr	r0, [r2]
 4472 027c 38008DE5 		str	r0, [sp, #56]
 4473 0280 00009CE5 		ldr	r0, [ip]
 4474 0284 50008DE5 		str	r0, [sp, #80]
 4475 0288 BCFFFF0A 		beq	.L1522
 4476 028c 040091E5 		ldr	r0, [r1, #4]
 4477 0290 020053E3 		cmp	r3, #2
 4478 0294 24008DE5 		str	r0, [sp, #36]
 4479 0298 040092E5 		ldr	r0, [r2, #4]
 4480 029c 3C008DE5 		str	r0, [sp, #60]
 4481 02a0 04009CE5 		ldr	r0, [ip, #4]
 4482 02a4 54008DE5 		str	r0, [sp, #84]
 4483 02a8 B4FFFF0A 		beq	.L1522
 4484 02ac 08C091E5 		ldr	ip, [r1, #8]
 4485 02b0 030053E3 		cmp	r3, #3
 4486 02b4 0000A0E3 		mov	r0, #0
 4487 02b8 28C08DE5 		str	ip, [sp, #40]
 4488 02bc 083092E5 		ldr	r3, [r2, #8]
 4489 02c0 40308DE5 		str	r3, [sp, #64]
 4490 02c4 083090E5 		ldr	r3, [r0, #8]
 4491 02c8 58308DE5 		str	r3, [sp, #88]
 4492 02cc ABFFFF0A 		beq	.L1522
 4493 02d0 0C3091E5 		ldr	r3, [r1, #12]
 4494 02d4 2C308DE5 		str	r3, [sp, #44]
 4495 02d8 0C3092E5 		ldr	r3, [r2, #12]
 4496 02dc 44308DE5 		str	r3, [sp, #68]
 4497 02e0 0C3090E5 		ldr	r3, [r0, #12]
 4498 02e4 5C308DE5 		str	r3, [sp, #92]
 4499 02e8 A4FFFFEA 		b	.L1522
 4500              	.L1593:
 4501 02ec 04109CE5 		ldr	r1, [ip, #4]
 4502 02f0 010053E3 		cmp	r3, #1
 4503 02f4 00C090E5 		ldr	ip, [r0]
 4504 02f8 20C08DE5 		str	ip, [sp, #32]
 4505 02fc 00C092E5 		ldr	ip, [r2]
 4506 0300 38C08DE5 		str	ip, [sp, #56]
 4507 0304 00C091E5 		ldr	ip, [r1]
 4508 0308 50C08DE5 		str	ip, [sp, #80]
 4509 030c 9BFFFF0A 		beq	.L1522
 4510 0310 04C090E5 		ldr	ip, [r0, #4]
 4511 0314 020053E3 		cmp	r3, #2
 4512 0318 24C08DE5 		str	ip, [sp, #36]
 4513 031c 042092E5 		ldr	r2, [r2, #4]
 4514 0320 3C208DE5 		str	r2, [sp, #60]
 4515 0324 042091E5 		ldr	r2, [r1, #4]
 4516 0328 54208DE5 		str	r2, [sp, #84]
 4517 032c 93FFFF0A 		beq	.L1522
 4518 0330 08C090E5 		ldr	ip, [r0, #8]
 4519 0334 0020A0E3 		mov	r2, #0
 4520 0338 030053E3 		cmp	r3, #3
 4521 033c 28C08DE5 		str	ip, [sp, #40]
 4522 0340 083092E5 		ldr	r3, [r2, #8]
 4523 0344 40308DE5 		str	r3, [sp, #64]
 4524 0348 083091E5 		ldr	r3, [r1, #8]
 4525 034c 58308DE5 		str	r3, [sp, #88]
 4526 0350 8AFFFF0A 		beq	.L1522
 4527 0354 0C3090E5 		ldr	r3, [r0, #12]
 4528              	.L1589:
 4529 0358 2C308DE5 		str	r3, [sp, #44]
 4530 035c 0C3092E5 		ldr	r3, [r2, #12]
 4531 0360 44308DE5 		str	r3, [sp, #68]
 4532 0364 0C3091E5 		ldr	r3, [r1, #12]
 4533 0368 5C308DE5 		str	r3, [sp, #92]
 4534 036c 83FFFFEA 		b	.L1522
 4535              	.L1594:
 4536 0370 000052E3 		cmp	r2, #0
 4537 0374 5800000A 		beq	.L1597
 4538 0378 041092E5 		ldr	r1, [r2, #4]
 4539 037c 010053E3 		cmp	r3, #1
 4540 0380 00209CE5 		ldr	r2, [ip]
 4541 0384 20208DE5 		str	r2, [sp, #32]
 4542 0388 002091E5 		ldr	r2, [r1]
 4543 038c 38208DE5 		str	r2, [sp, #56]
 4544 0390 00209CE5 		ldr	r2, [ip]
 4545 0394 50208DE5 		str	r2, [sp, #80]
 4546 0398 78FFFF0A 		beq	.L1522
 4547 039c 04209CE5 		ldr	r2, [ip, #4]
 4548 03a0 020053E3 		cmp	r3, #2
 4549 03a4 24208DE5 		str	r2, [sp, #36]
 4550 03a8 042091E5 		ldr	r2, [r1, #4]
 4551 03ac 3C208DE5 		str	r2, [sp, #60]
 4552 03b0 04209CE5 		ldr	r2, [ip, #4]
 4553 03b4 54208DE5 		str	r2, [sp, #84]
 4554 03b8 70FFFF0A 		beq	.L1522
 4555 03bc 0020A0E3 		mov	r2, #0
 4556 03c0 030053E3 		cmp	r3, #3
 4557 03c4 083092E5 		ldr	r3, [r2, #8]
 4558 03c8 28308DE5 		str	r3, [sp, #40]
 4559 03cc 083091E5 		ldr	r3, [r1, #8]
 4560 03d0 40308DE5 		str	r3, [sp, #64]
 4561 03d4 083092E5 		ldr	r3, [r2, #8]
 4562 03d8 58308DE5 		str	r3, [sp, #88]
 4563 03dc 0C309215 		ldrne	r3, [r2, #12]
 4564 03e0 61FFFF1A 		bne	.L1588
 4565 03e4 65FFFFEA 		b	.L1522
 4566              	.L1595:
 4567 03e8 000092E5 		ldr	r0, [r2]
 4568 03ec 010053E3 		cmp	r3, #1
 4569 03f0 04109CE5 		ldr	r1, [ip, #4]
 4570 03f4 20008DE5 		str	r0, [sp, #32]
 4571 03f8 000092E5 		ldr	r0, [r2]
 4572 03fc 38008DE5 		str	r0, [sp, #56]
 4573 0400 000091E5 		ldr	r0, [r1]
 4574 0404 50008DE5 		str	r0, [sp, #80]
 4575 0408 5CFFFF0A 		beq	.L1522
 4576 040c 040092E5 		ldr	r0, [r2, #4]
 4577 0410 020053E3 		cmp	r3, #2
 4578 0414 24008DE5 		str	r0, [sp, #36]
 4579 0418 042092E5 		ldr	r2, [r2, #4]
 4580 041c 3C208DE5 		str	r2, [sp, #60]
 4581 0420 042091E5 		ldr	r2, [r1, #4]
 4582 0424 54208DE5 		str	r2, [sp, #84]
 4583 0428 54FFFF0A 		beq	.L1522
 4584 042c 0020A0E3 		mov	r2, #0
 4585 0430 030053E3 		cmp	r3, #3
 4586 0434 083092E5 		ldr	r3, [r2, #8]
 4587 0438 28308DE5 		str	r3, [sp, #40]
 4588 043c 083092E5 		ldr	r3, [r2, #8]
 4589 0440 40308DE5 		str	r3, [sp, #64]
 4590 0444 083091E5 		ldr	r3, [r1, #8]
 4591 0448 58308DE5 		str	r3, [sp, #88]
 4592 044c 0C309215 		ldrne	r3, [r2, #12]
 4593 0450 C0FFFF1A 		bne	.L1589
 4594 0454 49FFFFEA 		b	.L1522
 4595              	.L1596:
 4596 0458 000091E5 		ldr	r0, [r1]
 4597 045c 010053E3 		cmp	r3, #1
 4598 0460 20008DE5 		str	r0, [sp, #32]
 4599 0464 000092E5 		ldr	r0, [r2]
 4600 0468 38008DE5 		str	r0, [sp, #56]
 4601 046c 000092E5 		ldr	r0, [r2]
 4602 0470 50008DE5 		str	r0, [sp, #80]
 4603 0474 41FFFF0A 		beq	.L1522
 4604 0478 040091E5 		ldr	r0, [r1, #4]
 4605 047c 020053E3 		cmp	r3, #2
 4606 0480 24008DE5 		str	r0, [sp, #36]
 4607 0484 040092E5 		ldr	r0, [r2, #4]
 4608 0488 3C008DE5 		str	r0, [sp, #60]
 4609 048c 042092E5 		ldr	r2, [r2, #4]
 4610 0490 54208DE5 		str	r2, [sp, #84]
 4611 0494 39FFFF0A 		beq	.L1522
 4612 0498 080091E5 		ldr	r0, [r1, #8]
 4613 049c 0020A0E3 		mov	r2, #0
 4614 04a0 030053E3 		cmp	r3, #3
 4615 04a4 28008DE5 		str	r0, [sp, #40]
 4616 04a8 083092E5 		ldr	r3, [r2, #8]
 4617 04ac 40308DE5 		str	r3, [sp, #64]
 4618 04b0 083092E5 		ldr	r3, [r2, #8]
 4619 04b4 58308DE5 		str	r3, [sp, #88]
 4620 04b8 30FFFF0A 		beq	.L1522
 4621 04bc 0C3091E5 		ldr	r3, [r1, #12]
 4622 04c0 2C308DE5 		str	r3, [sp, #44]
 4623 04c4 0C3092E5 		ldr	r3, [r2, #12]
 4624 04c8 44308DE5 		str	r3, [sp, #68]
 4625 04cc 0C3092E5 		ldr	r3, [r2, #12]
 4626 04d0 5C308DE5 		str	r3, [sp, #92]
 4627 04d4 29FFFFEA 		b	.L1522
 4628              	.L1590:
 4629 04d8 FEFFFFEB 		bl	abort
 4630              	.L1597:
 4631 04dc 0331A0E1 		lsl	r3, r3, #2
 4632 04e0 1C108DE2 		add	r1, sp, #28
 4633              	.L1517:
 4634 04e4 000092E5 		ldr	r0, [r2]
 4635 04e8 0400A1E5 		str	r0, [r1, #4]!
 4636 04ec 000092E5 		ldr	r0, [r2]
 4637 04f0 180081E5 		str	r0, [r1, #24]
 4638 04f4 040092E4 		ldr	r0, [r2], #4
 4639 04f8 020053E1 		cmp	r3, r2
 4640 04fc 300081E5 		str	r0, [r1, #48]
 4641 0500 F7FFFF1A 		bne	.L1517
 4642 0504 1DFFFFEA 		b	.L1522
 4643              		.fnend
 4645              		.section	.text._ZN6tflite3ops5micro22Register_STRIDED_SLICEEv,"ax",%progbits
 4646              		.align	2
 4647              		.global	_ZN6tflite3ops5micro22Register_STRIDED_SLICEEv
 4648              		.syntax unified
 4649              		.arm
 4650              		.fpu neon
 4652              	_ZN6tflite3ops5micro22Register_STRIDED_SLICEEv:
 4653              		.fnstart
 4654              	.LFB4522:
 4655              		@ args = 0, pretend = 0, frame = 0
 4656              		@ frame_needed = 0, uses_anonymous_args = 0
 4657 0000 00C000E3 		movw	ip, #:lower16:.LANCHOR0
 4658 0004 10402DE9 		push	{r4, lr}
 4659 0008 00C040E3 		movt	ip, #:upper16:.LANCHOR0
 4660 000c 0040A0E1 		mov	r4, r0
 4661 0010 00E0A0E1 		mov	lr, r0
 4662 0014 0F00BCE8 		ldmia	ip!, {r0, r1, r2, r3}
 4663 0018 0F00AEE8 		stmia	lr!, {r0, r1, r2, r3}
 4664 001c 0F009CE8 		ldm	ip, {r0, r1, r2, r3}
 4665 0020 0F008EE8 		stm	lr, {r0, r1, r2, r3}
 4666 0024 0400A0E1 		mov	r0, r4
 4667 0028 1080BDE8 		pop	{r4, pc}
 4668              		.cantunwind
 4669              		.fnend
 4671              		.section	.rodata
 4672              		.align	2
 4673              		.set	.LANCHOR0,. + 0
 4674              	.LC0:
 4675 0000 00000000 		.word	_ZN6tflite3ops5micro13strided_slice4InitEP13TfLiteContextPKcj
 4676 0004 00000000 		.word	0
 4677 0008 00000000 		.word	_ZN6tflite3ops5micro13strided_slice7PrepareEP13TfLiteContextP10TfLiteNode
 4678 000c 00000000 		.word	_ZN6tflite3ops5micro13strided_slice4EvalEP13TfLiteContextP10TfLiteNode
 4679 0010 00000000 		.word	0
 4680 0014 00000000 		.word	0
 4681 0018 00000000 		.word	0
 4682 001c 00000000 		.word	0
 4683              		.ident	"GCC: (GNU Tools for ARM Embedded Processors 6-2017-q2-update) 6.3.1 20170620 (release) [AR
DEFINED SYMBOLS
                            *ABS*:00000000 strided_slice.cc
C:\Users\a5050395\AppData\Local\Temp\cczV4ODe.s:14     .text._ZN6tflite3ops5micro13strided_slice4InitEP13TfLiteContextPKcj:00000000 $a
C:\Users\a5050395\AppData\Local\Temp\cczV4ODe.s:20     .text._ZN6tflite3ops5micro13strided_slice4InitEP13TfLiteContextPKcj:00000000 _ZN6tflite3ops5micro13strided_slice4InitEP13TfLiteContextPKcj
.ARM.exidx.text._ZN6tflite3ops5micro13strided_slice4InitEP13TfLiteContextPKcj:00000000 $d
C:\Users\a5050395\AppData\Local\Temp\cczV4ODe.s:37     .text._ZN6tflite3ops5micro13strided_slice4EvalEP13TfLiteContextP10TfLiteNode:00000000 $a
C:\Users\a5050395\AppData\Local\Temp\cczV4ODe.s:43     .text._ZN6tflite3ops5micro13strided_slice4EvalEP13TfLiteContextP10TfLiteNode:00000000 _ZN6tflite3ops5micro13strided_slice4EvalEP13TfLiteContextP10TfLiteNode
.ARM.extab.text._ZN6tflite3ops5micro13strided_slice4EvalEP13TfLiteContextP10TfLiteNode:00000000 $d
.ARM.exidx.text._ZN6tflite3ops5micro13strided_slice4EvalEP13TfLiteContextP10TfLiteNode:00000000 $d
C:\Users\a5050395\AppData\Local\Temp\cczV4ODe.s:3294   .text._ZN6tflite3ops5micro13strided_slice23BuildStridedSliceParamsEPNS2_19StridedSliceContextE:00000000 $a
C:\Users\a5050395\AppData\Local\Temp\cczV4ODe.s:3300   .text._ZN6tflite3ops5micro13strided_slice23BuildStridedSliceParamsEPNS2_19StridedSliceContextE:00000000 _ZN6tflite3ops5micro13strided_slice23BuildStridedSliceParamsEPNS2_19StridedSliceContextE
.ARM.exidx.text._ZN6tflite3ops5micro13strided_slice23BuildStridedSliceParamsEPNS2_19StridedSliceContextE:00000000 $d
C:\Users\a5050395\AppData\Local\Temp\cczV4ODe.s:3661   .text._ZN6tflite3ops5micro13strided_slice15CheckOutputSizeEP13TfLiteContextPNS2_19StridedSliceContextE:00000000 $a
C:\Users\a5050395\AppData\Local\Temp\cczV4ODe.s:3667   .text._ZN6tflite3ops5micro13strided_slice15CheckOutputSizeEP13TfLiteContextPNS2_19StridedSliceContextE:00000000 _ZN6tflite3ops5micro13strided_slice15CheckOutputSizeEP13TfLiteContextPNS2_19StridedSliceContextE
.ARM.extab.text._ZN6tflite3ops5micro13strided_slice15CheckOutputSizeEP13TfLiteContextPNS2_19StridedSliceContextE:00000000 $d
.ARM.exidx.text._ZN6tflite3ops5micro13strided_slice15CheckOutputSizeEP13TfLiteContextPNS2_19StridedSliceContextE:00000000 $d
C:\Users\a5050395\AppData\Local\Temp\cczV4ODe.s:4292   .text._ZN6tflite3ops5micro13strided_slice7PrepareEP13TfLiteContextP10TfLiteNode:00000000 $a
C:\Users\a5050395\AppData\Local\Temp\cczV4ODe.s:4298   .text._ZN6tflite3ops5micro13strided_slice7PrepareEP13TfLiteContextP10TfLiteNode:00000000 _ZN6tflite3ops5micro13strided_slice7PrepareEP13TfLiteContextP10TfLiteNode
.ARM.exidx.text._ZN6tflite3ops5micro13strided_slice7PrepareEP13TfLiteContextP10TfLiteNode:00000000 $d
C:\Users\a5050395\AppData\Local\Temp\cczV4ODe.s:4646   .text._ZN6tflite3ops5micro22Register_STRIDED_SLICEEv:00000000 $a
C:\Users\a5050395\AppData\Local\Temp\cczV4ODe.s:4652   .text._ZN6tflite3ops5micro22Register_STRIDED_SLICEEv:00000000 _ZN6tflite3ops5micro22Register_STRIDED_SLICEEv
C:\Users\a5050395\AppData\Local\Temp\cczV4ODe.s:4673   .rodata:00000000 .LANCHOR0
.ARM.exidx.text._ZN6tflite3ops5micro22Register_STRIDED_SLICEEv:00000000 $d
C:\Users\a5050395\AppData\Local\Temp\cczV4ODe.s:4672   .rodata:00000000 $d

UNDEFINED SYMBOLS
abort
__aeabi_unwind_cpp_pr0
_ZN6tflite5micro14GetTensorShapeEPK16TfLiteEvalTensor
memcpy
_ZdaPv
__cxa_end_cleanup
memset
__gxx_personality_v0
_Znaj
ceilf
__cxa_throw_bad_array_new_length
_ZN6tflite8GetInputEPK13TfLiteContextPK10TfLiteNodei
_ZN6tflite9GetOutputEP13TfLiteContextPK10TfLiteNodei
