   1              		.cpu cortex-a9
   2              		.eabi_attribute 28, 1
   3              		.eabi_attribute 20, 1
   4              		.eabi_attribute 21, 1
   5              		.eabi_attribute 23, 3
   6              		.eabi_attribute 24, 1
   7              		.eabi_attribute 25, 1
   8              		.eabi_attribute 26, 1
   9              		.eabi_attribute 30, 2
  10              		.eabi_attribute 34, 0
  11              		.eabi_attribute 18, 4
  12              		.file	"svdf_common.cc"
  13              		.global	__aeabi_idiv
  14              		.section	.text._ZN6tflite24EvalIntegerSvdfReferenceEP13TfLiteContextP10TfLiteNodePK16TfLiteEvalTen
  15              		.align	2
  16              		.global	_ZN6tflite24EvalIntegerSvdfReferenceEP13TfLiteContextP10TfLiteNodePK16TfLiteEvalTensorS6_S
  17              		.syntax unified
  18              		.arm
  19              		.fpu neon
  21              	_ZN6tflite24EvalIntegerSvdfReferenceEP13TfLiteContextP10TfLiteNodePK16TfLiteEvalTensorS6_S6_S6_PK16
  22              		.fnstart
  23              	.LFB4177:
  24              		@ args = 24, pretend = 0, frame = 96
  25              		@ frame_needed = 0, uses_anonymous_args = 0
  26 0000 F04F2DE9 		push	{r4, r5, r6, r7, r8, r9, r10, fp, lr}
  27              		.save {r4, r5, r6, r7, r8, r9, r10, fp, lr}
  28              		.pad #100
  29 0004 64D04DE2 		sub	sp, sp, #100
  30 0008 90C09DE5 		ldr	ip, [sp, #144]
  31 000c 0350A0E1 		mov	r5, r3
  32 0010 0280A0E1 		mov	r8, r2
  33 0014 0040A0E1 		mov	r4, r0
  34 0018 041093E5 		ldr	r1, [r3, #4]
  35 001c 043092E5 		ldr	r3, [r2, #4]
  36 0020 00209CE5 		ldr	r2, [ip]
  37 0024 041091E5 		ldr	r1, [r1, #4]
  38 0028 087093E5 		ldr	r7, [r3, #8]
  39 002c 58208DE5 		str	r2, [sp, #88]
  40 0030 0100A0E1 		mov	r0, r1
  41 0034 04108DE5 		str	r1, [sp, #4]
  42 0038 0210A0E1 		mov	r1, r2
  43 003c 042093E5 		ldr	r2, [r3, #4]
  44 0040 40208DE5 		str	r2, [sp, #64]
  45 0044 FEFFFFEB 		bl	__aeabi_idiv
  46 0048 88309DE5 		ldr	r3, [sp, #136]
  47 004c 000054E3 		cmp	r4, #0
  48 0050 44008DE5 		str	r0, [sp, #68]
  49 0054 94909DE5 		ldr	r9, [sp, #148]
  50 0058 043093E5 		ldr	r3, [r3, #4]
  51 005c 086093E5 		ldr	r6, [r3, #8]
  52 0060 6804000A 		beq	.L3
  53 0064 443094E5 		ldr	r3, [r4, #68]
  54 0068 000053E3 		cmp	r3, #0
  55 006c 6504000A 		beq	.L3
  56 0070 9C209DE5 		ldr	r2, [sp, #156]
  57 0074 0400A0E1 		mov	r0, r4
  58 0078 101092E5 		ldr	r1, [r2, #16]
  59 007c 33FF2FE1 		blx	r3
  60 0080 9C209DE5 		ldr	r2, [sp, #156]
  61 0084 443094E5 		ldr	r3, [r4, #68]
  62 0088 54008DE5 		str	r0, [sp, #84]
  63 008c 0400A0E1 		mov	r0, r4
  64 0090 141092E5 		ldr	r1, [r2, #20]
  65 0094 33FF2FE1 		blx	r3
  66 0098 04209DE5 		ldr	r2, [sp, #4]
  67 009c 000059E3 		cmp	r9, #0
  68 00a0 40109DE5 		ldr	r1, [sp, #64]
  69 00a4 0230A003 		moveq	r3, #2
  70 00a8 00309915 		ldrne	r3, [r9]
  71 00ac 48908D05 		streq	r9, [sp, #72]
  72 00b0 4C008DE5 		str	r0, [sp, #76]
  73 00b4 920104E0 		mul	r4, r2, r1
  74 00b8 48308D15 		strne	r3, [sp, #72]
  75 00bc 48209DE5 		ldr	r2, [sp, #72]
  76 00c0 02308312 		addne	r3, r3, #2
  77 00c4 960404E0 		mul	r4, r6, r4
  78 00c8 844082E0 		add	r4, r2, r4, lsl #1
  79 00cc 030054E1 		cmp	r4, r3
  80 00d0 4700000A 		beq	.L13
  81 00d4 02B083E2 		add	fp, r3, #2
  82 00d8 02A0A0E1 		mov	r10, r2
  83 00dc 10C083E2 		add	ip, r3, #16
  84 00e0 102082E2 		add	r2, r2, #16
  85 00e4 0B1044E0 		sub	r1, r4, fp
  86 00e8 020053E1 		cmp	r3, r2
  87 00ec 0C005A31 		cmpcc	r10, ip
  88 00f0 A110A0E1 		lsr	r1, r1, #1
  89 00f4 03008AE1 		orr	r0, r10, r3
  90 00f8 0120A023 		movcs	r2, #1
  91 00fc 0020A033 		movcc	r2, #0
  92 0100 0F0010E3 		tst	r0, #15
  93 0104 0020A013 		movne	r2, #0
  94 0108 01200202 		andeq	r2, r2, #1
  95 010c 019081E2 		add	r9, r1, #1
  96 0110 0AE0A0E1 		mov	lr, r10
  97 0114 0A0059E3 		cmp	r9, #10
  98 0118 0020A093 		movls	r2, #0
  99 011c 01200282 		andhi	r2, r2, #1
 100 0120 000052E3 		cmp	r2, #0
 101 0124 DE03000A 		beq	.L8
 102 0128 072041E2 		sub	r2, r1, #7
 103 012c 03E0A0E1 		mov	lr, r3
 104 0130 A221A0E1 		lsr	r2, r2, #3
 105 0134 0AC0A0E1 		mov	ip, r10
 106 0138 0000A0E3 		mov	r0, #0
 107 013c 012082E2 		add	r2, r2, #1
 108 0140 8211A0E1 		lsl	r1, r2, #3
 109              	.L10:
 110 0144 010080E2 		add	r0, r0, #1
 111 0148 DF0A6EF4 		vld1.64	{d16-d17}, [lr:64]
 112 014c 000052E1 		cmp	r2, r0
 113 0150 10E08EE2 		add	lr, lr, #16
 114 0154 DF0A4CF4 		vst1.64	{d16-d17}, [ip:64]
 115 0158 10C08CE2 		add	ip, ip, #16
 116 015c F8FFFF8A 		bhi	.L10
 117 0160 48E09DE5 		ldr	lr, [sp, #72]
 118 0164 090051E1 		cmp	r1, r9
 119 0168 8110A0E1 		lsl	r1, r1, #1
 120 016c 01C08EE0 		add	ip, lr, r1
 121 0170 012083E0 		add	r2, r3, r1
 122 0174 1E00000A 		beq	.L13
 123 0178 F13093E1 		ldrsh	r3, [r3, r1]
 124 017c 020082E2 		add	r0, r2, #2
 125 0180 000054E1 		cmp	r4, r0
 126 0184 B1308EE1 		strh	r3, [lr, r1]	@ movhi
 127 0188 1900000A 		beq	.L13
 128 018c F230D2E1 		ldrsh	r3, [r2, #2]
 129 0190 041082E2 		add	r1, r2, #4
 130 0194 010054E1 		cmp	r4, r1
 131 0198 B230CCE1 		strh	r3, [ip, #2]	@ movhi
 132 019c 1400000A 		beq	.L13
 133 01a0 F430D2E1 		ldrsh	r3, [r2, #4]
 134 01a4 061082E2 		add	r1, r2, #6
 135 01a8 010054E1 		cmp	r4, r1
 136 01ac B430CCE1 		strh	r3, [ip, #4]	@ movhi
 137 01b0 0F00000A 		beq	.L13
 138 01b4 F630D2E1 		ldrsh	r3, [r2, #6]
 139 01b8 081082E2 		add	r1, r2, #8
 140 01bc 010054E1 		cmp	r4, r1
 141 01c0 B630CCE1 		strh	r3, [ip, #6]	@ movhi
 142 01c4 0A00000A 		beq	.L13
 143 01c8 F830D2E1 		ldrsh	r3, [r2, #8]
 144 01cc 0A1082E2 		add	r1, r2, #10
 145 01d0 010054E1 		cmp	r4, r1
 146 01d4 B830CCE1 		strh	r3, [ip, #8]	@ movhi
 147 01d8 0500000A 		beq	.L13
 148 01dc FA30D2E1 		ldrsh	r3, [r2, #10]
 149 01e0 0C1082E2 		add	r1, r2, #12
 150 01e4 010054E1 		cmp	r4, r1
 151 01e8 BA30CCE1 		strh	r3, [ip, #10]	@ movhi
 152 01ec FC30D211 		ldrshne	r3, [r2, #12]
 153 01f0 BC30CC11 		strhne	r3, [ip, #12]	@ movhi
 154              	.L13:
 155 01f4 40309DE5 		ldr	r3, [sp, #64]
 156 01f8 061146E2 		sub	r1, r6, #-2147483647
 157 01fc 8110A0E1 		lsl	r1, r1, #1
 158 0200 002098E5 		ldr	r2, [r8]
 159 0204 000053E3 		cmp	r3, #0
 160 0208 003095E5 		ldr	r3, [r5]
 161 020c 50308DE5 		str	r3, [sp, #80]
 162 0210 48309DE5 		ldr	r3, [sp, #72]
 163 0214 013083E0 		add	r3, r3, r1
 164 0218 08308DE5 		str	r3, [sp, #8]
 165 021c F10300DA 		ble	.L159
 166 0220 103047E2 		sub	r3, r7, #16
 167 0224 021081E2 		add	r1, r1, #2
 168 0228 2332A0E1 		lsr	r3, r3, #4
 169 022c 02E0A0E1 		mov	lr, r2
 170 0230 14108DE5 		str	r1, [sp, #20]
 171 0234 0209A0E3 		mov	r0, #32768
 172 0238 022043E2 		sub	r2, r3, #2
 173 023c 013083E2 		add	r3, r3, #1
 174 0240 0310A0E1 		mov	r1, r3
 175 0244 3C308DE5 		str	r3, [sp, #60]
 176 0248 9E2BDFED 		vldr.64	d18, .L169	@ int
 177 024c 0130C2E3 		bic	r3, r2, #1
 178 0250 023083E2 		add	r3, r3, #2
 179 0254 34208DE5 		str	r2, [sp, #52]
 180 0258 24308DE5 		str	r3, [sp, #36]
 181 025c 0122A0E1 		lsl	r2, r1, #4
 182 0260 013047E2 		sub	r3, r7, #1
 183 0264 5C608DE5 		str	r6, [sp, #92]
 184 0268 FF0F4FE3 		movt	r0, 65535
 185 026c 28308DE5 		str	r3, [sp, #40]
 186 0270 0030A0E3 		mov	r3, #0
 187 0274 2C208DE5 		str	r2, [sp, #44]
 188 0278 18008DE5 		str	r0, [sp, #24]
 189 027c 30308DE5 		str	r3, [sp, #48]
 190              	.L35:
 191 0280 04309DE5 		ldr	r3, [sp, #4]
 192 0284 000053E3 		cmp	r3, #0
 193 0288 250100DA 		ble	.L18
 194 028c 9C309DE5 		ldr	r3, [sp, #156]
 195 0290 0040A0E3 		mov	r4, #0
 196 0294 2C209DE5 		ldr	r2, [sp, #44]
 197 0298 07608EE0 		add	r6, lr, r7
 198 029c 50C09DE5 		ldr	ip, [sp, #80]
 199 02a0 083093E5 		ldr	r3, [r3, #8]
 200 02a4 02208EE0 		add	r2, lr, r2
 201 02a8 38208DE5 		str	r2, [sp, #56]
 202 02ac 040053E1 		cmp	r3, r4
 203 02b0 005063E2 		rsb	r5, r3, #0
 204 02b4 0450A0C1 		movgt	r5, r4
 205 02b8 9C209DE5 		ldr	r2, [sp, #156]
 206 02bc C33FC3E1 		bic	r3, r3, r3, asr #31
 207 02c0 905B01EE 		vmov.32	d17[0], r5
 208 02c4 002092E5 		ldr	r2, [r2]
 209 02c8 A20471F3 		vshl.u64	d16, d18, d17
 210 02cc 20308DE5 		str	r3, [sp, #32]
 211 02d0 1C208DE5 		str	r2, [sp, #28]
 212 02d4 302B53EC 		vmov	r2, r3, d16	@ int
 213 02d8 013042E2 		sub	r3, r2, #1
 214 02dc 0C308DE5 		str	r3, [sp, #12]
 215 02e0 C330A0E1 		asr	r3, r3, #1
 216 02e4 10308DE5 		str	r3, [sp, #16]
 217              	.L34:
 218 02e8 000057E3 		cmp	r7, #0
 219 02ec 580200DA 		ble	.L97
 220 02f0 9C309DE5 		ldr	r3, [sp, #156]
 221 02f4 0E108CE1 		orr	r1, ip, lr
 222 02f8 0F0057E3 		cmp	r7, #15
 223 02fc 5110E3E7 		ubfx	r1, r1, #0, #4
 224 0300 182093E5 		ldr	r2, [r3, #24]
 225 0304 0030A093 		movls	r3, #0
 226 0308 0130A083 		movhi	r3, #1
 227 030c 000051E3 		cmp	r1, #0
 228 0310 0030A013 		movne	r3, #0
 229 0314 000053E3 		cmp	r3, #0
 230 0318 4402000A 		beq	.L20
 231 031c 28309DE5 		ldr	r3, [sp, #40]
 232 0320 0E0053E3 		cmp	r3, #14
 233 0324 3C02009A 		bls	.L98
 234 0328 34309DE5 		ldr	r3, [sp, #52]
 235 032c 5000C0F2 		vmov.i32	q8, #0  @ v4si
 236 0330 902BA4EE 		vdup.32	q10, r2
 237 0334 040073E3 		cmn	r3, #4
 238 0338 4A02008A 		bhi	.L99
 239 033c 24A09DE5 		ldr	r10, [sp, #36]
 240 0340 20308CE2 		add	r3, ip, #32
 241 0344 20108EE2 		add	r1, lr, #32
 242 0348 0080A0E3 		mov	r8, #0
 243              	.L23:
 244 034c 088B51ED 		vldr	d24, [r1, #-32]
 245 0350 069B51ED 		vldr	d25, [r1, #-24]
 246 0354 028088E2 		add	r8, r8, #2
 247 0358 0A0058E1 		cmp	r8, r10
 248 035c 50F0D3F5 		pld	[r3, #80]
 249 0360 38CAC8F2 		vmovl.s8 q14, d24
 250 0364 0300A0E1 		mov	r0, r3
 251 0368 08AB53ED 		vldr	d26, [r3, #-32]
 252 036c 06BB53ED 		vldr	d27, [r3, #-24]
 253 0370 0190A0E1 		mov	r9, r1
 254 0374 398AC8F2 		vmovl.s8 q12, d25
 255 0378 201081E2 		add	r1, r1, #32
 256 037c 3A6AC8F2 		vmovl.s8 q11, d26
 257 0380 203083E2 		add	r3, r3, #32
 258 0384 3CEAD0F2 		vmovl.s16 q15, d28
 259 0388 3DCAD0F2 		vmovl.s16 q14, d29
 260 038c 366A90F2 		vmovl.s16 q3, d22
 261 0390 E4E86EF3 		vsub.i32	q15, q15, q10
 262 0394 E4C86CF3 		vsub.i32	q14, q14, q10
 263 0398 376AD0F2 		vmovl.s16 q11, d23
 264 039c C6096EF2 		vmla.i32	q8, q15, q3
 265 03a0 0C2B11ED 		vldr	d2, [r1, #-48]
 266 03a4 0A3B11ED 		vldr	d3, [r1, #-40]
 267 03a8 3BAAC8F2 		vmovl.s8 q13, d27
 268 03ac 384A90F2 		vmovl.s16 q2, d24
 269 03b0 398AD0F2 		vmovl.s16 q12, d25
 270 03b4 3A0A90F2 		vmovl.s16 q0, d26
 271 03b8 644824F3 		vsub.i32	q2, q2, q10
 272 03bc E6096CF2 		vmla.i32	q8, q14, q11
 273 03c0 0C6B13ED 		vldr	d6, [r3, #-48]
 274 03c4 0A7B13ED 		vldr	d7, [r3, #-40]
 275 03c8 E48868F3 		vsub.i32	q12, q12, q10
 276 03cc 3BAAD0F2 		vmovl.s16 q13, d27
 277 03d0 12CAC8F2 		vmovl.s8 q14, d2
 278 03d4 16EAC8F2 		vmovl.s8 q15, d6
 279 03d8 136AC8F2 		vmovl.s8 q11, d3
 280 03dc 400964F2 		vmla.i32	q8, q2, q0
 281 03e0 3C2A90F2 		vmovl.s16 q1, d28
 282 03e4 3E4A90F2 		vmovl.s16 q2, d30
 283 03e8 3DCAD0F2 		vmovl.s16 q14, d29
 284 03ec 642822F3 		vsub.i32	q1, q1, q10
 285 03f0 3FEAD0F2 		vmovl.s16 q15, d31
 286 03f4 EA0968F2 		vmla.i32	q8, q12, q13
 287 03f8 E4C86CF3 		vsub.i32	q14, q14, q10
 288 03fc 178AC8F2 		vmovl.s8 q12, d7
 289 0400 36AAD0F2 		vmovl.s16 q13, d22
 290 0404 376AD0F2 		vmovl.s16 q11, d23
 291 0408 386A90F2 		vmovl.s16 q3, d24
 292 040c 440962F2 		vmla.i32	q8, q1, q2
 293 0410 E4A86AF3 		vsub.i32	q13, q13, q10
 294 0414 E46866F3 		vsub.i32	q11, q11, q10
 295 0418 398AD0F2 		vmovl.s16 q12, d25
 296 041c EE096CF2 		vmla.i32	q8, q14, q15
 297 0420 C6096AF2 		vmla.i32	q8, q13, q3
 298 0424 E80966F2 		vmla.i32	q8, q11, q12
 299 0428 C7FFFF1A 		bne	.L23
 300 042c 24309DE5 		ldr	r3, [sp, #36]
 301 0430 3C109DE5 		ldr	r1, [sp, #60]
 302              	.L28:
 303 0434 DF6A69F4 		vld1.64	{d22-d23}, [r9:64]
 304 0438 013083E2 		add	r3, r3, #1
 305 043c 030051E1 		cmp	r1, r3
 306 0440 109089E2 		add	r9, r9, #16
 307 0444 36AAC8F2 		vmovl.s8 q13, d22
 308 0448 100080E2 		add	r0, r0, #16
 309 044c 048B50ED 		vldr	d24, [r0, #-16]
 310 0450 029B50ED 		vldr	d25, [r0, #-8]
 311 0454 376AC8F2 		vmovl.s8 q11, d23
 312 0458 38CAC8F2 		vmovl.s8 q14, d24
 313 045c 3AEAD0F2 		vmovl.s16 q15, d26
 314 0460 3BAAD0F2 		vmovl.s16 q13, d27
 315 0464 3C6A90F2 		vmovl.s16 q3, d28
 316 0468 E4E86EF3 		vsub.i32	q15, q15, q10
 317 046c E4A86AF3 		vsub.i32	q13, q13, q10
 318 0470 3DCAD0F2 		vmovl.s16 q14, d29
 319 0474 C6096EF2 		vmla.i32	q8, q15, q3
 320 0478 398AC8F2 		vmovl.s8 q12, d25
 321 047c 36EAD0F2 		vmovl.s16 q15, d22
 322 0480 376AD0F2 		vmovl.s16 q11, d23
 323 0484 386A90F2 		vmovl.s16 q3, d24
 324 0488 E4E86EF3 		vsub.i32	q15, q15, q10
 325 048c EC096AF2 		vmla.i32	q8, q13, q14
 326 0490 E46866F3 		vsub.i32	q11, q11, q10
 327 0494 398AD0F2 		vmovl.s16 q12, d25
 328 0498 C6096EF2 		vmla.i32	q8, q15, q3
 329 049c E80966F2 		vmla.i32	q8, q11, q12
 330 04a0 E3FFFF8A 		bhi	.L28
 331 04a4 A10860F2 		vadd.i32	d16, d16, d17
 332 04a8 2C109DE5 		ldr	r1, [sp, #44]
 333 04ac B00B60F2 		vpadd.i32	d16, d16, d16
 334 04b0 070051E1 		cmp	r1, r7
 335 04b4 01008CE0 		add	r0, ip, r1
 336 04b8 903B10EE 		vmov.32	r3, d16[0]
 337 04bc 6800000A 		beq	.L29
 338 04c0 38809DE5 		ldr	r8, [sp, #56]
 339 04c4 010000EA 		b	.L170
 340              	.L171:
 341              		.align	3
 342              	.L169:
 343 04c8 01000000 		.word	1
 344 04cc 00000000 		.word	0
 345              	.L170:
 346              	.L21:
 347 04d0 D090D8E1 		ldrsb	r9, [r8]
 348 04d4 01A081E2 		add	r10, r1, #1
 349 04d8 D0B0D0E1 		ldrsb	fp, [r0]
 350 04dc 0A0057E1 		cmp	r7, r10
 351 04e0 029049E0 		sub	r9, r9, r2
 352 04e4 9B3923E0 		mla	r3, fp, r9, r3
 353 04e8 5D0000DA 		ble	.L29
 354 04ec D190D8E1 		ldrsb	r9, [r8, #1]
 355 04f0 D1A0D0E1 		ldrsb	r10, [r0, #1]
 356 04f4 02B081E2 		add	fp, r1, #2
 357 04f8 0B0057E1 		cmp	r7, fp
 358 04fc 029049E0 		sub	r9, r9, r2
 359 0500 9A3923E0 		mla	r3, r10, r9, r3
 360 0504 560000DA 		ble	.L29
 361 0508 D290D8E1 		ldrsb	r9, [r8, #2]
 362 050c D2A0D0E1 		ldrsb	r10, [r0, #2]
 363 0510 03B081E2 		add	fp, r1, #3
 364 0514 0B0057E1 		cmp	r7, fp
 365 0518 029049E0 		sub	r9, r9, r2
 366 051c 9A3923E0 		mla	r3, r10, r9, r3
 367 0520 4F0000DA 		ble	.L29
 368 0524 D390D8E1 		ldrsb	r9, [r8, #3]
 369 0528 D3A0D0E1 		ldrsb	r10, [r0, #3]
 370 052c 04B081E2 		add	fp, r1, #4
 371 0530 0B0057E1 		cmp	r7, fp
 372 0534 029049E0 		sub	r9, r9, r2
 373 0538 9A3923E0 		mla	r3, r10, r9, r3
 374 053c 480000DA 		ble	.L29
 375 0540 D490D8E1 		ldrsb	r9, [r8, #4]
 376 0544 D4A0D0E1 		ldrsb	r10, [r0, #4]
 377 0548 05B081E2 		add	fp, r1, #5
 378 054c 0B0057E1 		cmp	r7, fp
 379 0550 029049E0 		sub	r9, r9, r2
 380 0554 9A3923E0 		mla	r3, r10, r9, r3
 381 0558 410000DA 		ble	.L29
 382 055c D590D8E1 		ldrsb	r9, [r8, #5]
 383 0560 D5A0D0E1 		ldrsb	r10, [r0, #5]
 384 0564 06B081E2 		add	fp, r1, #6
 385 0568 0B0057E1 		cmp	r7, fp
 386 056c 029049E0 		sub	r9, r9, r2
 387 0570 9A3923E0 		mla	r3, r10, r9, r3
 388 0574 3A0000DA 		ble	.L29
 389 0578 D690D8E1 		ldrsb	r9, [r8, #6]
 390 057c D6A0D0E1 		ldrsb	r10, [r0, #6]
 391 0580 07B081E2 		add	fp, r1, #7
 392 0584 0B0057E1 		cmp	r7, fp
 393 0588 029049E0 		sub	r9, r9, r2
 394 058c 9A3923E0 		mla	r3, r10, r9, r3
 395 0590 330000DA 		ble	.L29
 396 0594 D790D8E1 		ldrsb	r9, [r8, #7]
 397 0598 D7A0D0E1 		ldrsb	r10, [r0, #7]
 398 059c 08B081E2 		add	fp, r1, #8
 399 05a0 0B0057E1 		cmp	r7, fp
 400 05a4 029049E0 		sub	r9, r9, r2
 401 05a8 9A3923E0 		mla	r3, r10, r9, r3
 402 05ac 2C0000DA 		ble	.L29
 403 05b0 D890D8E1 		ldrsb	r9, [r8, #8]
 404 05b4 D8A0D0E1 		ldrsb	r10, [r0, #8]
 405 05b8 09B081E2 		add	fp, r1, #9
 406 05bc 0B0057E1 		cmp	r7, fp
 407 05c0 029049E0 		sub	r9, r9, r2
 408 05c4 9A3923E0 		mla	r3, r10, r9, r3
 409 05c8 250000DA 		ble	.L29
 410 05cc D990D8E1 		ldrsb	r9, [r8, #9]
 411 05d0 D9A0D0E1 		ldrsb	r10, [r0, #9]
 412 05d4 0AB081E2 		add	fp, r1, #10
 413 05d8 0B0057E1 		cmp	r7, fp
 414 05dc 029049E0 		sub	r9, r9, r2
 415 05e0 9A3923E0 		mla	r3, r10, r9, r3
 416 05e4 1E0000DA 		ble	.L29
 417 05e8 DA90D8E1 		ldrsb	r9, [r8, #10]
 418 05ec DAA0D0E1 		ldrsb	r10, [r0, #10]
 419 05f0 0BB081E2 		add	fp, r1, #11
 420 05f4 0B0057E1 		cmp	r7, fp
 421 05f8 029049E0 		sub	r9, r9, r2
 422 05fc 9A3923E0 		mla	r3, r10, r9, r3
 423 0600 170000DA 		ble	.L29
 424 0604 DB90D8E1 		ldrsb	r9, [r8, #11]
 425 0608 DBA0D0E1 		ldrsb	r10, [r0, #11]
 426 060c 0CB081E2 		add	fp, r1, #12
 427 0610 0B0057E1 		cmp	r7, fp
 428 0614 029049E0 		sub	r9, r9, r2
 429 0618 9A3923E0 		mla	r3, r10, r9, r3
 430 061c 100000DA 		ble	.L29
 431 0620 DC90D8E1 		ldrsb	r9, [r8, #12]
 432 0624 DCA0D0E1 		ldrsb	r10, [r0, #12]
 433 0628 0DB081E2 		add	fp, r1, #13
 434 062c 0B0057E1 		cmp	r7, fp
 435 0630 029049E0 		sub	r9, r9, r2
 436 0634 9A3923E0 		mla	r3, r10, r9, r3
 437 0638 090000DA 		ble	.L29
 438 063c DD90D8E1 		ldrsb	r9, [r8, #13]
 439 0640 DDA0D0E1 		ldrsb	r10, [r0, #13]
 440 0644 0E1081E2 		add	r1, r1, #14
 441 0648 010057E1 		cmp	r7, r1
 442 064c 029049E0 		sub	r9, r9, r2
 443 0650 9A3923E0 		mla	r3, r10, r9, r3
 444 0654 DE10D8C1 		ldrsbgt	r1, [r8, #14]
 445 0658 DE00D0C1 		ldrsbgt	r0, [r0, #14]
 446 065c 022041C0 		subgt	r2, r1, r2
 447 0660 903223C0 		mlagt	r3, r0, r2, r3
 448              	.L29:
 449 0664 20209DE5 		ldr	r2, [sp, #32]
 450 0668 1C109DE5 		ldr	r1, [sp, #28]
 451 066c 07C08CE0 		add	ip, ip, r7
 452 0670 1382A0E1 		lsl	r8, r3, r2
 453 0674 9128C3E0 		smull	r2, r3, r1, r8
 454 0678 020158E3 		cmp	r8, #-2147483648
 455 067c 08005101 		cmpeq	r1, r8
 456 0680 0180A003 		moveq	r8, #1
 457 0684 0080A013 		movne	r8, #0
 458 0688 000052E3 		cmp	r2, #0
 459 068c 0010D3E2 		sbcs	r1, r3, #0
 460 0690 0101A0A3 		movge	r0, #1073741824
 461 0694 0010A0A3 		movge	r1, #0
 462 0698 5C0100BA 		blt	.L160
 463              	.L31:
 464 069c 000058E3 		cmp	r8, #0
 465 06a0 4F01001A 		bne	.L161
 466              	.L19:
 467 06a4 028090E0 		adds	r8, r0, r2
 468 06a8 0390A1E0 		adc	r9, r1, r3
 469 06ac 0030A0E3 		mov	r3, #0
 470 06b0 C92FA0E1 		asr	r2, r9, #31
 471 06b4 0221C2E3 		bic	r2, r2, #-2147483648
 472 06b8 080092E0 		adds	r0, r2, r8
 473 06bc 0910A3E0 		adc	r1, r3, r9
 474 06c0 A02FA0E1 		lsr	r2, r0, #31
 475 06c4 1F0055E3 		cmp	r5, #31
 476 06c8 812082E1 		orr	r2, r2, r1, lsl #1
 477 06cc 470100CA 		bgt	.L82
 478              	.L33:
 479 06d0 10309DE5 		ldr	r3, [sp, #16]
 480 06d4 014084E2 		add	r4, r4, #1
 481 06d8 0C109DE5 		ldr	r1, [sp, #12]
 482 06dc A28F83E0 		add	r8, r3, r2, lsr #31
 483 06e0 5235A0E1 		asr	r3, r2, r5
 484 06e4 012002E0 		and	r2, r2, r1
 485 06e8 FF1F07E3 		movw	r1, #32767
 486 06ec 080052E1 		cmp	r2, r8
 487 06f0 013083C2 		addgt	r3, r3, #1
 488 06f4 18209DE5 		ldr	r2, [sp, #24]
 489 06f8 010053E1 		cmp	r3, r1
 490 06fc 0130A0A1 		movge	r3, r1
 491 0700 14109DE5 		ldr	r1, [sp, #20]
 492 0704 020053E1 		cmp	r3, r2
 493 0708 0230A0B1 		movlt	r3, r2
 494 070c 04209DE5 		ldr	r2, [sp, #4]
 495 0710 040052E1 		cmp	r2, r4
 496 0714 08209DE5 		ldr	r2, [sp, #8]
 497 0718 B13082E0 		strh	r3, [r2], r1	@ movhi
 498 071c 08208DE5 		str	r2, [sp, #8]
 499 0720 F0FEFF1A 		bne	.L34
 500              	.L18:
 501 0724 30309DE5 		ldr	r3, [sp, #48]
 502 0728 07E08EE0 		add	lr, lr, r7
 503 072c 40209DE5 		ldr	r2, [sp, #64]
 504 0730 013083E2 		add	r3, r3, #1
 505 0734 030052E1 		cmp	r2, r3
 506 0738 30308DE5 		str	r3, [sp, #48]
 507 073c CFFEFF1A 		bne	.L35
 508 0740 88209DE5 		ldr	r2, [sp, #136]
 509 0744 04009DE5 		ldr	r0, [sp, #4]
 510 0748 5C609DE5 		ldr	r6, [sp, #92]
 511 074c 002092E5 		ldr	r2, [r2]
 512 0750 000050E3 		cmp	r0, #0
 513 0754 2C208DE5 		str	r2, [sp, #44]
 514 0758 820000DA 		ble	.L36
 515 075c 960002E0 		mul	r2, r6, r0
 516 0760 113046E2 		sub	r3, r6, #17
 517 0764 081046E2 		sub	r1, r6, #8
 518 0768 0F30C3E3 		bic	r3, r3, #15
 519 076c 103083E2 		add	r3, r3, #16
 520 0770 A111A0E1 		lsr	r1, r1, #3
 521 0774 0001A0E1 		lsl	r0, r0, #2
 522 0778 28308DE5 		str	r3, [sp, #40]
 523 077c 8220A0E1 		lsl	r2, r2, #1
 524 0780 54309DE5 		ldr	r3, [sp, #84]
 525 0784 14B09DE5 		ldr	fp, [sp, #20]
 526 0788 011081E2 		add	r1, r1, #1
 527 078c 38208DE5 		str	r2, [sp, #56]
 528 0790 0020A0E3 		mov	r2, #0
 529 0794 24208DE5 		str	r2, [sp, #36]
 530 0798 48209DE5 		ldr	r2, [sp, #72]
 531 079c 34008DE5 		str	r0, [sp, #52]
 532 07a0 8101A0E1 		lsl	r0, r1, #3
 533 07a4 18108DE5 		str	r1, [sp, #24]
 534 07a8 0112A0E1 		lsl	r1, r1, #4
 535 07ac 1C308DE5 		str	r3, [sp, #28]
 536 07b0 013046E2 		sub	r3, r6, #1
 537 07b4 10008DE5 		str	r0, [sp, #16]
 538 07b8 0C108DE5 		str	r1, [sp, #12]
 539 07bc 20208DE5 		str	r2, [sp, #32]
 540 07c0 08308DE5 		str	r3, [sp, #8]
 541              	.L38:
 542 07c4 1C909DE5 		ldr	r9, [sp, #28]
 543 07c8 00A0A0E3 		mov	r10, #0
 544 07cc 20809DE5 		ldr	r8, [sp, #32]
 545 07d0 2C709DE5 		ldr	r7, [sp, #44]
 546              	.L37:
 547 07d4 000056E3 		cmp	r6, #0
 548 07d8 0030A0E3 		mov	r3, #0
 549 07dc 003089E5 		str	r3, [r9]
 550 07e0 4D0000DA 		ble	.L39
 551 07e4 072088E1 		orr	r2, r8, r7
 552 07e8 080056E3 		cmp	r6, #8
 553 07ec 5220E3E7 		ubfx	r2, r2, #0, #4
 554 07f0 0030A093 		movls	r3, #0
 555 07f4 0130A083 		movhi	r3, #1
 556 07f8 000052E3 		cmp	r2, #0
 557 07fc 0030A013 		movne	r3, #0
 558 0800 000053E3 		cmp	r3, #0
 559 0804 AD00000A 		beq	.L40
 560 0808 08309DE5 		ldr	r3, [sp, #8]
 561 080c 060053E3 		cmp	r3, #6
 562 0810 A500009A 		bls	.L101
 563 0814 18009DE5 		ldr	r0, [sp, #24]
 564 0818 0710A0E1 		mov	r1, r7
 565 081c 5000C0F2 		vmov.i32	q8, #0  @ v4si
 566 0820 0820A0E1 		mov	r2, r8
 567 0824 0030A0E3 		mov	r3, #0
 568              	.L43:
 569 0828 DF4A61F4 		vld1.64	{d20-d21}, [r1:64]
 570 082c 013083E2 		add	r3, r3, #1
 571 0830 030050E1 		cmp	r0, r3
 572 0834 101081E2 		add	r1, r1, #16
 573 0838 DF6A62F4 		vld1.64	{d22-d23}, [r2:64]
 574 083c 102082E2 		add	r2, r2, #16
 575 0840 A42CD6F2 		vmull.s16 q9, d22, d20
 576 0844 A54CD7F2 		vmull.s16 q10, d23, d21
 577 0848 E00862F2 		vadd.i32	q8, q9, q8
 578 084c E00864F2 		vadd.i32	q8, q10, q8
 579 0850 F4FFFF8A 		bhi	.L43
 580 0854 A10860F2 		vadd.i32	d16, d16, d17
 581 0858 10209DE5 		ldr	r2, [sp, #16]
 582 085c 0C309DE5 		ldr	r3, [sp, #12]
 583 0860 B00B60F2 		vpadd.i32	d16, d16, d16
 584 0864 020056E1 		cmp	r6, r2
 585 0868 030087E0 		add	r0, r7, r3
 586 086c 031088E0 		add	r1, r8, r3
 587 0870 903B10EE 		vmov.32	r3, d16[0]
 588 0874 2500000A 		beq	.L49
 589              	.L41:
 590 0878 B040D0E1 		ldrh	r4, [r0]
 591 087c 01C082E2 		add	ip, r2, #1
 592 0880 B0E0D1E1 		ldrh	lr, [r1]
 593 0884 0C0056E1 		cmp	r6, ip
 594 0888 843E03E1 		smlabb	r3, r4, lr, r3
 595 088c 1F0000DA 		ble	.L49
 596 0890 B240D0E1 		ldrh	r4, [r0, #2]
 597 0894 02C082E2 		add	ip, r2, #2
 598 0898 B2E0D1E1 		ldrh	lr, [r1, #2]
 599 089c 0C0056E1 		cmp	r6, ip
 600 08a0 843E03E1 		smlabb	r3, r4, lr, r3
 601 08a4 190000DA 		ble	.L49
 602 08a8 B440D0E1 		ldrh	r4, [r0, #4]
 603 08ac 03C082E2 		add	ip, r2, #3
 604 08b0 B4E0D1E1 		ldrh	lr, [r1, #4]
 605 08b4 0C0056E1 		cmp	r6, ip
 606 08b8 843E03E1 		smlabb	r3, r4, lr, r3
 607 08bc 130000DA 		ble	.L49
 608 08c0 B640D0E1 		ldrh	r4, [r0, #6]
 609 08c4 04C082E2 		add	ip, r2, #4
 610 08c8 B6E0D1E1 		ldrh	lr, [r1, #6]
 611 08cc 0C0056E1 		cmp	r6, ip
 612 08d0 843E03E1 		smlabb	r3, r4, lr, r3
 613 08d4 0D0000DA 		ble	.L49
 614 08d8 B840D0E1 		ldrh	r4, [r0, #8]
 615 08dc 05C082E2 		add	ip, r2, #5
 616 08e0 B8E0D1E1 		ldrh	lr, [r1, #8]
 617 08e4 0C0056E1 		cmp	r6, ip
 618 08e8 843E03E1 		smlabb	r3, r4, lr, r3
 619 08ec 070000DA 		ble	.L49
 620 08f0 BAC0D0E1 		ldrh	ip, [r0, #10]
 621 08f4 062082E2 		add	r2, r2, #6
 622 08f8 BAE0D1E1 		ldrh	lr, [r1, #10]
 623 08fc 020056E1 		cmp	r6, r2
 624 0900 8C3E03E1 		smlabb	r3, ip, lr, r3
 625 0904 BC20D1C1 		ldrhgt	r2, [r1, #12]
 626 0908 BC10D0C1 		ldrhgt	r1, [r0, #12]
 627 090c 823103C1 		smlabbgt	r3, r2, r1, r3
 628              	.L49:
 629 0910 0B7087E0 		add	r7, r7, fp
 630 0914 003089E5 		str	r3, [r9]
 631 0918 0B8088E0 		add	r8, r8, fp
 632              	.L39:
 633 091c 04309DE5 		ldr	r3, [sp, #4]
 634 0920 01A08AE2 		add	r10, r10, #1
 635 0924 049089E2 		add	r9, r9, #4
 636 0928 0A0053E1 		cmp	r3, r10
 637 092c A8FFFF1A 		bne	.L37
 638 0930 1C209DE5 		ldr	r2, [sp, #28]
 639 0934 34109DE5 		ldr	r1, [sp, #52]
 640 0938 24309DE5 		ldr	r3, [sp, #36]
 641 093c 012082E0 		add	r2, r2, r1
 642 0940 1C208DE5 		str	r2, [sp, #28]
 643 0944 013083E2 		add	r3, r3, #1
 644 0948 30209DE5 		ldr	r2, [sp, #48]
 645 094c 24308DE5 		str	r3, [sp, #36]
 646 0950 030052E1 		cmp	r2, r3
 647 0954 20309DE5 		ldr	r3, [sp, #32]
 648 0958 38209DE5 		ldr	r2, [sp, #56]
 649 095c 023083E0 		add	r3, r3, r2
 650 0960 20308DE5 		str	r3, [sp, #32]
 651 0964 96FFFF1A 		bne	.L38
 652              	.L36:
 653 0968 8C309DE5 		ldr	r3, [sp, #140]
 654 096c 000053E3 		cmp	r3, #0
 655 0970 0902000A 		beq	.L162
 656 0974 0320A0E1 		mov	r2, r3
 657 0978 44309DE5 		ldr	r3, [sp, #68]
 658 097c 004092E5 		ldr	r4, [r2]
 659 0980 000053E3 		cmp	r3, #0
 660 0984 E70000DA 		ble	.L59
 661 0988 046043E2 		sub	r6, r3, #4
 662 098c 0320A0E1 		mov	r2, r3
 663 0990 2661A0E1 		lsr	r6, r6, #2
 664 0994 093043E2 		sub	r3, r3, #9
 665 0998 0730C3E3 		bic	r3, r3, #7
 666 099c 0281A0E1 		lsl	r8, r2, #2
 667 09a0 016086E2 		add	r6, r6, #1
 668 09a4 4CC09DE5 		ldr	ip, [sp, #76]
 669 09a8 06B2A0E1 		lsl	fp, r6, #4
 670 09ac 08A083E2 		add	r10, r3, #8
 671 09b0 0230A0E1 		mov	r3, r2
 672 09b4 0671A0E1 		lsl	r7, r6, #2
 673 09b8 0B2084E0 		add	r2, r4, fp
 674 09bc 10B08DE5 		str	fp, [sp, #16]
 675 09c0 0C208DE5 		str	r2, [sp, #12]
 676 09c4 012043E2 		sub	r2, r3, #1
 677 09c8 08208DE5 		str	r2, [sp, #8]
 678 09cc 0050A0E3 		mov	r5, #0
 679 09d0 109084E2 		add	r9, r4, #16
 680 09d4 03E0A0E1 		mov	lr, r3
 681 09d8 1E0000EA 		b	.L60
 682              	.L165:
 683 09dc 0C20A0E1 		mov	r2, ip
 684 09e0 0030A0E3 		mov	r3, #0
 685              	.L63:
 686 09e4 013083E2 		add	r3, r3, #1
 687 09e8 DF0A61F4 		vld1.64	{d16-d17}, [r1:64]
 688 09ec 030056E1 		cmp	r6, r3
 689 09f0 101081E2 		add	r1, r1, #16
 690 09f4 DF0A42F4 		vst1.64	{d16-d17}, [r2:64]
 691 09f8 102082E2 		add	r2, r2, #16
 692 09fc F8FFFF8A 		bhi	.L63
 693 0a00 10309DE5 		ldr	r3, [sp, #16]
 694 0a04 0E0057E1 		cmp	r7, lr
 695 0a08 03208CE0 		add	r2, ip, r3
 696 0a0c 0C00000A 		beq	.L68
 697 0a10 0C109DE5 		ldr	r1, [sp, #12]
 698 0a14 0730A0E1 		mov	r3, r7
 699              	.L61:
 700 0a18 010083E2 		add	r0, r3, #1
 701 0a1c 00005EE1 		cmp	lr, r0
 702 0a20 000091E5 		ldr	r0, [r1]
 703 0a24 000082E5 		str	r0, [r2]
 704 0a28 050000DA 		ble	.L68
 705 0a2c 023083E2 		add	r3, r3, #2
 706 0a30 040091E5 		ldr	r0, [r1, #4]
 707 0a34 0E0053E1 		cmp	r3, lr
 708 0a38 040082E5 		str	r0, [r2, #4]
 709 0a3c 083091B5 		ldrlt	r3, [r1, #8]
 710 0a40 083082B5 		strlt	r3, [r2, #8]
 711              	.L68:
 712 0a44 30309DE5 		ldr	r3, [sp, #48]
 713 0a48 015085E2 		add	r5, r5, #1
 714 0a4c 08C08CE0 		add	ip, ip, r8
 715 0a50 050053E1 		cmp	r3, r5
 716 0a54 B200000A 		beq	.L163
 717              	.L60:
 718 0a58 10308CE2 		add	r3, ip, #16
 719 0a5c 0C2084E1 		orr	r2, r4, ip
 720 0a60 040053E1 		cmp	r3, r4
 721 0a64 0C005981 		cmphi	r9, ip
 722 0a68 0130A093 		movls	r3, #1
 723 0a6c 0030A083 		movhi	r3, #0
 724 0a70 0F0012E3 		tst	r2, #15
 725 0a74 0C20A0E1 		mov	r2, ip
 726 0a78 0030A013 		movne	r3, #0
 727 0a7c 01300302 		andeq	r3, r3, #1
 728 0a80 09005EE3 		cmp	lr, #9
 729 0a84 0030A093 		movls	r3, #0
 730 0a88 01300382 		andhi	r3, r3, #1
 731 0a8c 000053E3 		cmp	r3, #0
 732 0a90 7D00000A 		beq	.L164
 733 0a94 08309DE5 		ldr	r3, [sp, #8]
 734 0a98 0410A0E1 		mov	r1, r4
 735 0a9c 020053E3 		cmp	r3, #2
 736 0aa0 CDFFFF8A 		bhi	.L165
 737 0aa4 0030A0E3 		mov	r3, #0
 738 0aa8 DAFFFFEA 		b	.L61
 739              	.L101:
 740 0aac 0030A0E3 		mov	r3, #0
 741 0ab0 0810A0E1 		mov	r1, r8
 742 0ab4 0320A0E1 		mov	r2, r3
 743 0ab8 0700A0E1 		mov	r0, r7
 744 0abc 6DFFFFEA 		b	.L41
 745              	.L40:
 746 0ac0 100056E3 		cmp	r6, #16
 747 0ac4 6C0000DA 		ble	.L102
 748 0ac8 14608DE5 		str	r6, [sp, #20]
 749 0acc 204087E2 		add	r4, r7, #32
 750 0ad0 28609DE5 		ldr	r6, [sp, #40]
 751 0ad4 0350A0E1 		mov	r5, r3
 752 0ad8 20E088E2 		add	lr, r8, #32
 753              	.L48:
 754 0adc B0125EE1 		ldrh	r1, [lr, #-32]
 755 0ae0 105085E2 		add	r5, r5, #16
 756 0ae4 B02254E1 		ldrh	r2, [r4, #-32]
 757 0ae8 060055E1 		cmp	r5, r6
 758 0aec BE0154E1 		ldrh	r0, [r4, #-30]
 759 0af0 BEC15EE1 		ldrh	ip, [lr, #-30]
 760 0af4 0EF0D4F5 		pld	[r4, #14]
 761 0af8 813203E1 		smlabb	r3, r1, r2, r3
 762 0afc BC1154E1 		ldrh	r1, [r4, #-28]
 763 0b00 BC215EE1 		ldrh	r2, [lr, #-28]
 764 0b04 0EF0DEF5 		pld	[lr, #14]
 765 0b08 803C03E1 		smlabb	r3, r0, ip, r3
 766 0b0c BAC154E1 		ldrh	ip, [r4, #-26]
 767 0b10 BA015EE1 		ldrh	r0, [lr, #-26]
 768 0b14 813203E1 		smlabb	r3, r1, r2, r3
 769 0b18 B81154E1 		ldrh	r1, [r4, #-24]
 770 0b1c B8215EE1 		ldrh	r2, [lr, #-24]
 771 0b20 8C3003E1 		smlabb	r3, ip, r0, r3
 772 0b24 B6C154E1 		ldrh	ip, [r4, #-22]
 773 0b28 B6015EE1 		ldrh	r0, [lr, #-22]
 774 0b2c 813203E1 		smlabb	r3, r1, r2, r3
 775 0b30 B41154E1 		ldrh	r1, [r4, #-20]
 776 0b34 B4215EE1 		ldrh	r2, [lr, #-20]
 777 0b38 8C3003E1 		smlabb	r3, ip, r0, r3
 778 0b3c B2C154E1 		ldrh	ip, [r4, #-18]
 779 0b40 B2015EE1 		ldrh	r0, [lr, #-18]
 780 0b44 813203E1 		smlabb	r3, r1, r2, r3
 781 0b48 B01154E1 		ldrh	r1, [r4, #-16]
 782 0b4c B0215EE1 		ldrh	r2, [lr, #-16]
 783 0b50 8C3003E1 		smlabb	r3, ip, r0, r3
 784 0b54 BEC054E1 		ldrh	ip, [r4, #-14]
 785 0b58 BE005EE1 		ldrh	r0, [lr, #-14]
 786 0b5c 813203E1 		smlabb	r3, r1, r2, r3
 787 0b60 BC1054E1 		ldrh	r1, [r4, #-12]
 788 0b64 BC205EE1 		ldrh	r2, [lr, #-12]
 789 0b68 8C3003E1 		smlabb	r3, ip, r0, r3
 790 0b6c BAC054E1 		ldrh	ip, [r4, #-10]
 791 0b70 BA005EE1 		ldrh	r0, [lr, #-10]
 792 0b74 813203E1 		smlabb	r3, r1, r2, r3
 793 0b78 B81054E1 		ldrh	r1, [r4, #-8]
 794 0b7c B8205EE1 		ldrh	r2, [lr, #-8]
 795 0b80 8C3003E1 		smlabb	r3, ip, r0, r3
 796 0b84 B6005EE1 		ldrh	r0, [lr, #-6]
 797 0b88 B6C054E1 		ldrh	ip, [r4, #-6]
 798 0b8c 813203E1 		smlabb	r3, r1, r2, r3
 799 0b90 B42054E1 		ldrh	r2, [r4, #-4]
 800 0b94 B4105EE1 		ldrh	r1, [lr, #-4]
 801 0b98 8C3003E1 		smlabb	r3, ip, r0, r3
 802 0b9c B2C054E1 		ldrh	ip, [r4, #-2]
 803 0ba0 B2005EE1 		ldrh	r0, [lr, #-2]
 804 0ba4 823103E1 		smlabb	r3, r2, r1, r3
 805 0ba8 0410A0E1 		mov	r1, r4
 806 0bac 0E20A0E1 		mov	r2, lr
 807 0bb0 204084E2 		add	r4, r4, #32
 808 0bb4 8C3003E1 		smlabb	r3, ip, r0, r3
 809 0bb8 20E08EE2 		add	lr, lr, #32
 810 0bbc C6FFFF1A 		bne	.L48
 811 0bc0 14609DE5 		ldr	r6, [sp, #20]
 812 0bc4 01C0A0E1 		mov	ip, r1
 813              	.L50:
 814 0bc8 B200DCE0 		ldrh	r0, [ip], #2
 815 0bcc 015085E2 		add	r5, r5, #1
 816 0bd0 B210D2E0 		ldrh	r1, [r2], #2
 817 0bd4 050056E1 		cmp	r6, r5
 818 0bd8 803103E1 		smlabb	r3, r0, r1, r3
 819 0bdc F9FFFFCA 		bgt	.L50
 820 0be0 4AFFFFEA 		b	.L49
 821              	.L161:
 822 0be4 1F0055E3 		cmp	r5, #31
 823 0be8 0221E0E3 		mvn	r2, #-2147483648
 824 0bec B7FEFFDA 		ble	.L33
 825              	.L82:
 826 0bf0 003000E3 		movw	r3, #:lower16:.LC0
 827 0bf4 002000E3 		movw	r2, #:lower16:.LANCHOR0
 828 0bf8 000000E3 		movw	r0, #:lower16:.LC1
 829 0bfc 003040E3 		movt	r3, #:upper16:.LC0
 830 0c00 002040E3 		movt	r2, #:upper16:.LANCHOR0
 831 0c04 000040E3 		movt	r0, #:upper16:.LC1
 832 0c08 671100E3 		movw	r1, #359
 833 0c0c FEFFFFEB 		bl	__assert_func
 834              	.L160:
 835 0c10 0701A0E3 		mov	r0, #-1073741823
 836 0c14 0010E0E3 		mvn	r1, #0
 837 0c18 9FFEFFEA 		b	.L31
 838              	.L98:
 839 0c1c 0030A0E3 		mov	r3, #0
 840 0c20 0E80A0E1 		mov	r8, lr
 841 0c24 0310A0E1 		mov	r1, r3
 842 0c28 0C00A0E1 		mov	r0, ip
 843 0c2c 27FEFFEA 		b	.L21
 844              	.L20:
 845 0c30 0E00A0E1 		mov	r0, lr
 846 0c34 0C80A0E1 		mov	r8, ip
 847              	.L30:
 848 0c38 D110D0E0 		ldrsb	r1, [r0], #1
 849 0c3c D190D8E0 		ldrsb	r9, [r8], #1
 850 0c40 060050E1 		cmp	r0, r6
 851 0c44 021041E0 		sub	r1, r1, r2
 852 0c48 993123E0 		mla	r3, r9, r1, r3
 853 0c4c F9FFFF1A 		bne	.L30
 854 0c50 83FEFFEA 		b	.L29
 855              	.L97:
 856 0c54 0020A0E3 		mov	r2, #0
 857 0c58 0030A0E3 		mov	r3, #0
 858 0c5c 0101A0E3 		mov	r0, #1073741824
 859 0c60 0010A0E3 		mov	r1, #0
 860 0c64 8EFEFFEA 		b	.L19
 861              	.L99:
 862 0c68 0E90A0E1 		mov	r9, lr
 863 0c6c 0C00A0E1 		mov	r0, ip
 864 0c70 0030A0E3 		mov	r3, #0
 865 0c74 3C109DE5 		ldr	r1, [sp, #60]
 866 0c78 EDFDFFEA 		b	.L28
 867              	.L102:
 868 0c7c 0820A0E1 		mov	r2, r8
 869 0c80 0350A0E1 		mov	r5, r3
 870 0c84 07C0A0E1 		mov	ip, r7
 871 0c88 CEFFFFEA 		b	.L50
 872              	.L164:
 873 0c8c 08005EE3 		cmp	lr, #8
 874 0c90 3F0100DA 		ble	.L104
 875 0c94 20108CE2 		add	r1, ip, #32
 876 0c98 202084E2 		add	r2, r4, #32
 877 0c9c 14C08DE5 		str	ip, [sp, #20]
 878              	.L67:
 879 0ca0 20C012E5 		ldr	ip, [r2, #-32]
 880 0ca4 083083E2 		add	r3, r3, #8
 881 0ca8 54F0D2F5 		pld	[r2, #84]
 882 0cac 03005AE1 		cmp	r10, r3
 883 0cb0 0200A0E1 		mov	r0, r2
 884 0cb4 01B0A0E1 		mov	fp, r1
 885 0cb8 20C001E5 		str	ip, [r1, #-32]
 886 0cbc 202082E2 		add	r2, r2, #32
 887 0cc0 3CC012E5 		ldr	ip, [r2, #-60]
 888 0cc4 201081E2 		add	r1, r1, #32
 889 0cc8 3CC001E5 		str	ip, [r1, #-60]
 890 0ccc 38C012E5 		ldr	ip, [r2, #-56]
 891 0cd0 38C001E5 		str	ip, [r1, #-56]
 892 0cd4 34C012E5 		ldr	ip, [r2, #-52]
 893 0cd8 34C001E5 		str	ip, [r1, #-52]
 894 0cdc 30C012E5 		ldr	ip, [r2, #-48]
 895 0ce0 30C001E5 		str	ip, [r1, #-48]
 896 0ce4 2CC012E5 		ldr	ip, [r2, #-44]
 897 0ce8 2CC001E5 		str	ip, [r1, #-44]
 898 0cec 28C012E5 		ldr	ip, [r2, #-40]
 899 0cf0 28C001E5 		str	ip, [r1, #-40]
 900 0cf4 24C012E5 		ldr	ip, [r2, #-36]
 901 0cf8 24C001E5 		str	ip, [r1, #-36]
 902 0cfc E7FFFF1A 		bne	.L67
 903 0d00 14C09DE5 		ldr	ip, [sp, #20]
 904 0d04 0B20A0E1 		mov	r2, fp
 905              	.L66:
 906 0d08 042042E2 		sub	r2, r2, #4
 907              	.L69:
 908 0d0c 013083E2 		add	r3, r3, #1
 909 0d10 041090E4 		ldr	r1, [r0], #4
 910 0d14 03005EE1 		cmp	lr, r3
 911 0d18 0410A2E5 		str	r1, [r2, #4]!
 912 0d1c FAFFFFCA 		bgt	.L69
 913 0d20 47FFFFEA 		b	.L68
 914              	.L163:
 915 0d24 44309DE5 		ldr	r3, [sp, #68]
 916              	.L59:
 917 0d28 30209DE5 		ldr	r2, [sp, #48]
 918 0d2c 000053E3 		cmp	r3, #0
 919 0d30 920303E0 		mul	r3, r2, r3
 920 0d34 08308DE5 		str	r3, [sp, #8]
 921 0d38 520000DA 		ble	.L56
 922              	.L94:
 923 0d3c 04209DE5 		ldr	r2, [sp, #4]
 924 0d40 00B0A0E3 		mov	fp, #0
 925 0d44 58309DE5 		ldr	r3, [sp, #88]
 926 0d48 4C809DE5 		ldr	r8, [sp, #76]
 927 0d4c 54709DE5 		ldr	r7, [sp, #84]
 928 0d50 0221A0E1 		lsl	r2, r2, #2
 929 0d54 09E043E2 		sub	lr, r3, #9
 930 0d58 07E0CEE3 		bic	lr, lr, #7
 931 0d5c 0391A0E1 		lsl	r9, r3, #2
 932 0d60 14208DE5 		str	r2, [sp, #20]
 933 0d64 08E08EE2 		add	lr, lr, #8
 934 0d68 44209DE5 		ldr	r2, [sp, #68]
 935 0d6c 0340A0E1 		mov	r4, r3
 936 0d70 0CB08DE5 		str	fp, [sp, #12]
 937 0d74 04708DE5 		str	r7, [sp, #4]
 938 0d78 02A0A0E1 		mov	r10, r2
 939 0d7c 0211A0E1 		lsl	r1, r2, #2
 940 0d80 10108DE5 		str	r1, [sp, #16]
 941              	.L71:
 942 0d84 000054E3 		cmp	r4, #0
 943 0d88 04609DE5 		ldr	r6, [sp, #4]
 944 0d8c 0810A0C1 		movgt	r1, r8
 945 0d90 0870A0C1 		movgt	r7, r8
 946 0d94 0050A0C3 		movgt	r5, #0
 947 0d98 2D0000DA 		ble	.L74
 948              	.L70:
 949 0d9c 080054E3 		cmp	r4, #8
 950 0da0 043097E4 		ldr	r3, [r7], #4
 951 0da4 7B0000DA 		ble	.L106
 952 0da8 202086E2 		add	r2, r6, #32
 953 0dac 0000A0E3 		mov	r0, #0
 954              	.L73:
 955 0db0 20B012E5 		ldr	fp, [r2, #-32]
 956 0db4 080080E2 		add	r0, r0, #8
 957 0db8 54F0D2F5 		pld	[r2, #84]
 958 0dbc 0E0050E1 		cmp	r0, lr
 959 0dc0 02C0A0E1 		mov	ip, r2
 960 0dc4 202082E2 		add	r2, r2, #32
 961 0dc8 0B3083E0 		add	r3, r3, fp
 962 0dcc 003081E5 		str	r3, [r1]
 963 0dd0 3CB012E5 		ldr	fp, [r2, #-60]
 964 0dd4 0B3083E0 		add	r3, r3, fp
 965 0dd8 003081E5 		str	r3, [r1]
 966 0ddc 38B012E5 		ldr	fp, [r2, #-56]
 967 0de0 0B3083E0 		add	r3, r3, fp
 968 0de4 003081E5 		str	r3, [r1]
 969 0de8 34B012E5 		ldr	fp, [r2, #-52]
 970 0dec 0B3083E0 		add	r3, r3, fp
 971 0df0 003081E5 		str	r3, [r1]
 972 0df4 30B012E5 		ldr	fp, [r2, #-48]
 973 0df8 0B3083E0 		add	r3, r3, fp
 974 0dfc 003081E5 		str	r3, [r1]
 975 0e00 2CB012E5 		ldr	fp, [r2, #-44]
 976 0e04 0B3083E0 		add	r3, r3, fp
 977 0e08 003081E5 		str	r3, [r1]
 978 0e0c 28B012E5 		ldr	fp, [r2, #-40]
 979 0e10 0B3083E0 		add	r3, r3, fp
 980 0e14 003081E5 		str	r3, [r1]
 981 0e18 24B012E5 		ldr	fp, [r2, #-36]
 982 0e1c 0B3083E0 		add	r3, r3, fp
 983 0e20 003081E5 		str	r3, [r1]
 984 0e24 E1FFFF1A 		bne	.L73
 985              	.L76:
 986 0e28 04209CE4 		ldr	r2, [ip], #4
 987 0e2c 010080E2 		add	r0, r0, #1
 988 0e30 000054E1 		cmp	r4, r0
 989 0e34 023083E0 		add	r3, r3, r2
 990 0e38 003081E5 		str	r3, [r1]
 991 0e3c F9FFFFCA 		bgt	.L76
 992 0e40 015085E2 		add	r5, r5, #1
 993 0e44 096086E0 		add	r6, r6, r9
 994 0e48 05005AE1 		cmp	r10, r5
 995 0e4c 041081E2 		add	r1, r1, #4
 996 0e50 D1FFFF1A 		bne	.L70
 997              	.L74:
 998 0e54 04209DE5 		ldr	r2, [sp, #4]
 999 0e58 14109DE5 		ldr	r1, [sp, #20]
 1000 0e5c 0C309DE5 		ldr	r3, [sp, #12]
 1001 0e60 012082E0 		add	r2, r2, r1
 1002 0e64 04208DE5 		str	r2, [sp, #4]
 1003 0e68 013083E2 		add	r3, r3, #1
 1004 0e6c 40209DE5 		ldr	r2, [sp, #64]
 1005 0e70 0C308DE5 		str	r3, [sp, #12]
 1006 0e74 030052E1 		cmp	r2, r3
 1007 0e78 10309DE5 		ldr	r3, [sp, #16]
 1008 0e7c 038088E0 		add	r8, r8, r3
 1009 0e80 BFFFFFCA 		bgt	.L71
 1010 0e84 08309DE5 		ldr	r3, [sp, #8]
 1011              	.L56:
 1012 0e88 000053E3 		cmp	r3, #0
 1013 0e8c 820000DA 		ble	.L1
 1014              	.L77:
 1015 0e90 98309DE5 		ldr	r3, [sp, #152]
 1016 0e94 000053E3 		cmp	r3, #0
 1017 0e98 4400000A 		beq	.L166
 1018 0e9c 03C0A0E1 		mov	ip, r3
 1019 0ea0 4C309DE5 		ldr	r3, [sp, #76]
 1020 0ea4 00E0A0E3 		mov	lr, #0
 1021 0ea8 E20BDFED 		vldr.64	d16, .L172	@ int
 1022 0eac 7F40E0E3 		mvn	r4, #127
 1023 0eb0 08809DE5 		ldr	r8, [sp, #8]
 1024 0eb4 045043E2 		sub	r5, r3, #4
 1025 0eb8 9C209DE5 		ldr	r2, [sp, #156]
 1026 0ebc 1F0000EA 		b	.L87
 1027              	.L141:
 1028 0ec0 00A096E0 		adds	r10, r6, r0
 1029 0ec4 01B0A7E0 		adc	fp, r7, r1
 1030 0ec8 0010A0E3 		mov	r1, #0
 1031 0ecc CB0FA0E1 		asr	r0, fp, #31
 1032 0ed0 0201C0E3 		bic	r0, r0, #-2147483648
 1033 0ed4 0A6090E0 		adds	r6, r0, r10
 1034 0ed8 A60FA0E1 		lsr	r0, r6, #31
 1035 0edc 0B70A1E0 		adc	r7, r1, fp
 1036 0ee0 870080E1 		orr	r0, r0, r7, lsl #1
 1037              	.L89:
 1038 0ee4 1F0053E3 		cmp	r3, #31
 1039 0ee8 40FFFFCA 		bgt	.L82
 1040 0eec 903B02EE 		vmov.32	d18[0], r3
 1041 0ef0 5033A0E1 		asr	r3, r0, r3
 1042 0ef4 00109CE5 		ldr	r1, [ip]
 1043 0ef8 A01472F3 		vshl.u64	d17, d16, d18
 1044 0efc 316B57EC 		vmov	r6, r7, d17	@ int
 1045 0f00 016046E2 		sub	r6, r6, #1
 1046 0f04 1C7092E5 		ldr	r7, [r2, #28]
 1047 0f08 C690A0E1 		asr	r9, r6, #1
 1048 0f0c 006006E0 		and	r6, r6, r0
 1049 0f10 A00F89E0 		add	r0, r9, r0, lsr #31
 1050 0f14 000056E1 		cmp	r6, r0
 1051 0f18 013083C2 		addgt	r3, r3, #1
 1052 0f1c 073083E0 		add	r3, r3, r7
 1053 0f20 7F0053E3 		cmp	r3, #127
 1054 0f24 7F30A0A3 		movge	r3, #127
 1055 0f28 040053E1 		cmp	r3, r4
 1056 0f2c 0430A0B1 		movlt	r3, r4
 1057 0f30 0E30C1E7 		strb	r3, [r1, lr]
 1058 0f34 01E08EE2 		add	lr, lr, #1
 1059 0f38 0E0058E1 		cmp	r8, lr
 1060 0f3c 560000DA 		ble	.L1
 1061              	.L87:
 1062 0f40 0C3092E5 		ldr	r3, [r2, #12]
 1063 0f44 0460B5E5 		ldr	r6, [r5, #4]!
 1064 0f48 049092E5 		ldr	r9, [r2, #4]
 1065 0f4c 000053E3 		cmp	r3, #0
 1066 0f50 C31FC3E1 		bic	r1, r3, r3, asr #31
 1067 0f54 003063D2 		rsble	r3, r3, #0
 1068 0f58 0030A0C3 		movgt	r3, #0
 1069 0f5c 1661A0E1 		lsl	r6, r6, r1
 1070 0f60 9609C1E0 		smull	r0, r1, r6, r9
 1071 0f64 060059E1 		cmp	r9, r6
 1072 0f68 02015603 		cmpeq	r6, #-2147483648
 1073 0f6c 0190A003 		moveq	r9, #1
 1074 0f70 0090A013 		movne	r9, #0
 1075 0f74 000050E3 		cmp	r0, #0
 1076 0f78 0060D1E2 		sbcs	r6, r1, #0
 1077 0f7c 080000BA 		blt	.L111
 1078 0f80 0161A0E3 		mov	r6, #1073741824
 1079 0f84 0070A0E3 		mov	r7, #0
 1080              	.L86:
 1081 0f88 000059E3 		cmp	r9, #0
 1082 0f8c CBFFFF0A 		beq	.L141
 1083 0f90 0201E0E3 		mvn	r0, #-2147483648
 1084 0f94 D2FFFFEA 		b	.L89
 1085              	.L106:
 1086 0f98 06C0A0E1 		mov	ip, r6
 1087 0f9c 0000A0E3 		mov	r0, #0
 1088 0fa0 A0FFFFEA 		b	.L76
 1089              	.L111:
 1090 0fa4 0761A0E3 		mov	r6, #-1073741823
 1091 0fa8 0070E0E3 		mvn	r7, #0
 1092 0fac F5FFFFEA 		b	.L86
 1093              	.L166:
 1094 0fb0 03E0A0E1 		mov	lr, r3
 1095 0fb4 4C309DE5 		ldr	r3, [sp, #76]
 1096 0fb8 9E0BDFED 		vldr.64	d16, .L172	@ int
 1097 0fbc 7F40E0E3 		mvn	r4, #127
 1098 0fc0 9C209DE5 		ldr	r2, [sp, #156]
 1099 0fc4 045043E2 		sub	r5, r3, #4
 1100              	.L84:
 1101 0fc8 0C3092E5 		ldr	r3, [r2, #12]
 1102 0fcc 04C0B5E5 		ldr	ip, [r5, #4]!
 1103 0fd0 046092E5 		ldr	r6, [r2, #4]
 1104 0fd4 000053E3 		cmp	r3, #0
 1105 0fd8 C31FC3E1 		bic	r1, r3, r3, asr #31
 1106 0fdc 003063D2 		rsble	r3, r3, #0
 1107 0fe0 0030A0C3 		movgt	r3, #0
 1108 0fe4 1CC1A0E1 		lsl	ip, ip, r1
 1109 0fe8 9C06C1E0 		smull	r0, r1, ip, r6
 1110 0fec 06005CE1 		cmp	ip, r6
 1111 0ff0 02015C03 		cmpeq	ip, #-2147483648
 1112 0ff4 01C0A003 		moveq	ip, #1
 1113 0ff8 00C0A013 		movne	ip, #0
 1114 0ffc 000050E3 		cmp	r0, #0
 1115 1000 0060D1E2 		sbcs	r6, r1, #0
 1116 1004 0181A0A3 		movge	r8, #1073741824
 1117 1008 0090A0A3 		movge	r9, #0
 1118 100c 0781A0B3 		movlt	r8, #-1073741823
 1119 1010 0090E0B3 		mvnlt	r9, #0
 1120 1014 00005CE3 		cmp	ip, #0
 1121 1018 0201E013 		mvnne	r0, #-2147483648
 1122 101c 0800001A 		bne	.L81
 1123 1020 006098E0 		adds	r6, r8, r0
 1124 1024 0170A9E0 		adc	r7, r9, r1
 1125 1028 0010A0E3 		mov	r1, #0
 1126 102c C70FA0E1 		asr	r0, r7, #31
 1127 1030 0201C0E3 		bic	r0, r0, #-2147483648
 1128 1034 068090E0 		adds	r8, r0, r6
 1129 1038 A80FA0E1 		lsr	r0, r8, #31
 1130 103c 0790A1E0 		adc	r9, r1, r7
 1131 1040 890080E1 		orr	r0, r0, r9, lsl #1
 1132              	.L81:
 1133 1044 1F0053E3 		cmp	r3, #31
 1134 1048 E8FEFFCA 		bgt	.L82
 1135 104c 903B02EE 		vmov.32	d18[0], r3
 1136 1050 5033A0E1 		asr	r3, r0, r3
 1137 1054 1CC092E5 		ldr	ip, [r2, #28]
 1138 1058 A01472F3 		vshl.u64	d17, d16, d18
 1139 105c 316B57EC 		vmov	r6, r7, d17	@ int
 1140 1060 016046E2 		sub	r6, r6, #1
 1141 1064 C610A0E1 		asr	r1, r6, #1
 1142 1068 006006E0 		and	r6, r6, r0
 1143 106c A00F81E0 		add	r0, r1, r0, lsr #31
 1144 1070 060050E1 		cmp	r0, r6
 1145 1074 013083B2 		addlt	r3, r3, #1
 1146 1078 0C3083E0 		add	r3, r3, ip
 1147 107c 7F0053E3 		cmp	r3, #127
 1148 1080 7F30A0A3 		movge	r3, #127
 1149 1084 040053E1 		cmp	r3, r4
 1150 1088 0430A0B1 		movlt	r3, r4
 1151 108c 0130CEE4 		strb	r3, [lr], #1
 1152 1090 08309DE5 		ldr	r3, [sp, #8]
 1153 1094 0E0053E1 		cmp	r3, lr
 1154 1098 CAFFFFCA 		bgt	.L84
 1155              	.L1:
 1156 109c 64D08DE2 		add	sp, sp, #100
 1157              		@ sp needed
 1158 10a0 F08FBDE8 		pop	{r4, r5, r6, r7, r8, r9, r10, fp, pc}
 1159              	.L8:
 1160 10a4 1EC044E2 		sub	ip, r4, #30
 1161 10a8 0A20A0E1 		mov	r2, r10
 1162 10ac 0C005BE1 		cmp	fp, ip
 1163 10b0 00E0A023 		movcs	lr, #0
 1164 10b4 01E0A033 		movcc	lr, #1
 1165 10b8 1D0054E3 		cmp	r4, #29
 1166 10bc 00E0A093 		movls	lr, #0
 1167 10c0 00005EE3 		cmp	lr, #0
 1168 10c4 2C00000A 		beq	.L14
 1169 10c8 203083E2 		add	r3, r3, #32
 1170 10cc 20208AE2 		add	r2, r10, #32
 1171              	.L15:
 1172 10d0 F01253E1 		ldrsh	r1, [r3, #-32]
 1173 10d4 020083E2 		add	r0, r3, #2
 1174 10d8 24F0D3F5 		pld	[r3, #36]
 1175 10dc 00005CE1 		cmp	ip, r0
 1176 10e0 24F0D2F5 		pld	[r2, #36]
 1177 10e4 0300A0E1 		mov	r0, r3
 1178 10e8 B01242E1 		strh	r1, [r2, #-32]	@ movhi
 1179 10ec 02E0A0E1 		mov	lr, r2
 1180 10f0 FE1153E1 		ldrsh	r1, [r3, #-30]
 1181 10f4 202082E2 		add	r2, r2, #32
 1182 10f8 203083E2 		add	r3, r3, #32
 1183 10fc BE1342E1 		strh	r1, [r2, #-62]	@ movhi
 1184 1100 FC1353E1 		ldrsh	r1, [r3, #-60]
 1185 1104 BC1342E1 		strh	r1, [r2, #-60]	@ movhi
 1186 1108 FA1353E1 		ldrsh	r1, [r3, #-58]
 1187 110c BA1342E1 		strh	r1, [r2, #-58]	@ movhi
 1188 1110 F81353E1 		ldrsh	r1, [r3, #-56]
 1189 1114 B81342E1 		strh	r1, [r2, #-56]	@ movhi
 1190 1118 F61353E1 		ldrsh	r1, [r3, #-54]
 1191 111c B61342E1 		strh	r1, [r2, #-54]	@ movhi
 1192 1120 F41353E1 		ldrsh	r1, [r3, #-52]
 1193 1124 B41342E1 		strh	r1, [r2, #-52]	@ movhi
 1194 1128 F21353E1 		ldrsh	r1, [r3, #-50]
 1195 112c B21342E1 		strh	r1, [r2, #-50]	@ movhi
 1196 1130 F01353E1 		ldrsh	r1, [r3, #-48]
 1197 1134 B01342E1 		strh	r1, [r2, #-48]	@ movhi
 1198 1138 FE1253E1 		ldrsh	r1, [r3, #-46]
 1199 113c BE1242E1 		strh	r1, [r2, #-46]	@ movhi
 1200 1140 FC1253E1 		ldrsh	r1, [r3, #-44]
 1201 1144 BC1242E1 		strh	r1, [r2, #-44]	@ movhi
 1202 1148 FA1253E1 		ldrsh	r1, [r3, #-42]
 1203 114c BA1242E1 		strh	r1, [r2, #-42]	@ movhi
 1204 1150 F81253E1 		ldrsh	r1, [r3, #-40]
 1205 1154 B81242E1 		strh	r1, [r2, #-40]	@ movhi
 1206 1158 F61253E1 		ldrsh	r1, [r3, #-38]
 1207 115c B61242E1 		strh	r1, [r2, #-38]	@ movhi
 1208 1160 F41253E1 		ldrsh	r1, [r3, #-36]
 1209 1164 B41242E1 		strh	r1, [r2, #-36]	@ movhi
 1210 1168 F21253E1 		ldrsh	r1, [r3, #-34]
 1211 116c B21242E1 		strh	r1, [r2, #-34]	@ movhi
 1212 1170 D6FFFF8A 		bhi	.L15
 1213 1174 0030A0E1 		mov	r3, r0
 1214 1178 0E20A0E1 		mov	r2, lr
 1215              	.L14:
 1216 117c 022042E2 		sub	r2, r2, #2
 1217              	.L17:
 1218 1180 F210D3E0 		ldrsh	r1, [r3], #2
 1219 1184 030054E1 		cmp	r4, r3
 1220 1188 B210E2E1 		strh	r1, [r2, #2]!	@ movhi
 1221 118c FBFFFF1A 		bne	.L17
 1222 1190 17FCFFEA 		b	.L13
 1223              	.L104:
 1224 1194 0400A0E1 		mov	r0, r4
 1225 1198 DAFEFFEA 		b	.L66
 1226              	.L162:
 1227 119c 44309DE5 		ldr	r3, [sp, #68]
 1228 11a0 40209DE5 		ldr	r2, [sp, #64]
 1229 11a4 930203E0 		mul	r3, r3, r2
 1230 11a8 000053E3 		cmp	r3, #0
 1231 11ac 08308DE5 		str	r3, [sp, #8]
 1232 11b0 070000DA 		ble	.L167
 1233 11b4 0321A0E1 		lsl	r2, r3, #2
 1234 11b8 8C109DE5 		ldr	r1, [sp, #140]
 1235 11bc 4C009DE5 		ldr	r0, [sp, #76]
 1236 11c0 FEFFFFEB 		bl	memset
 1237 11c4 44309DE5 		ldr	r3, [sp, #68]
 1238 11c8 000053E3 		cmp	r3, #0
 1239 11cc DAFEFFCA 		bgt	.L94
 1240 11d0 2EFFFFEA 		b	.L77
 1241              	.L167:
 1242 11d4 44309DE5 		ldr	r3, [sp, #68]
 1243 11d8 000053E3 		cmp	r3, #0
 1244 11dc D6FEFFCA 		bgt	.L94
 1245 11e0 64D08DE2 		add	sp, sp, #100
 1246              		@ sp needed
 1247 11e4 F08FBDE8 		pop	{r4, r5, r6, r7, r8, r9, r10, fp, pc}
 1248              	.L159:
 1249 11e8 8C309DE5 		ldr	r3, [sp, #140]
 1250 11ec 000053E3 		cmp	r3, #0
 1251 11f0 0500000A 		beq	.L168
 1252 11f4 44309DE5 		ldr	r3, [sp, #68]
 1253 11f8 40209DE5 		ldr	r2, [sp, #64]
 1254 11fc 930203E0 		mul	r3, r3, r2
 1255 1200 08308DE5 		str	r3, [sp, #8]
 1256 1204 1FFFFFEA 		b	.L56
 1257              	.L3:
 1258 1208 FEFFFFEB 		bl	abort
 1259              	.L168:
 1260 120c 44309DE5 		ldr	r3, [sp, #68]
 1261 1210 40209DE5 		ldr	r2, [sp, #64]
 1262 1214 930203E0 		mul	r3, r3, r2
 1263 1218 000053E3 		cmp	r3, #0
 1264 121c 08308DE5 		str	r3, [sp, #8]
 1265 1220 9DFFFFDA 		ble	.L1
 1266 1224 8C109DE5 		ldr	r1, [sp, #140]
 1267 1228 0321A0E1 		lsl	r2, r3, #2
 1268 122c 4C009DE5 		ldr	r0, [sp, #76]
 1269 1230 FEFFFFEB 		bl	memset
 1270 1234 15FFFFEA 		b	.L77
 1271              	.L173:
 1272              		.align	3
 1273              	.L172:
 1274 1238 01000000 		.word	1
 1275 123c 00000000 		.word	0
 1276              		.fnend
 1278              		.section	.text._ZN6tflite22EvalFloatSvdfReferenceEP13TfLiteContextP10TfLiteNodePK16TfLiteEvalTenso
 1279              		.align	2
 1280              		.global	_ZN6tflite22EvalFloatSvdfReferenceEP13TfLiteContextP10TfLiteNodePK16TfLiteEvalTensorS6_S6_
 1281              		.syntax unified
 1282              		.arm
 1283              		.fpu neon
 1285              	_ZN6tflite22EvalFloatSvdfReferenceEP13TfLiteContextP10TfLiteNodePK16TfLiteEvalTensorS6_S6_S6_PK16Tf
 1286              		.fnstart
 1287              	.LFB4179:
 1288              		@ args = 24, pretend = 0, frame = 56
 1289              		@ frame_needed = 0, uses_anonymous_args = 0
 1290 0000 F04F2DE9 		push	{r4, r5, r6, r7, r8, r9, r10, fp, lr}
 1291              		.save {r4, r5, r6, r7, r8, r9, r10, fp, lr}
 1292 0004 0340A0E1 		mov	r4, r3
 1293 0008 048B2DED 		vpush.64	{d8, d9}
 1294              		.vsave {d8, d9}
 1295              		.pad #60
 1296 000c 3CD04DE2 		sub	sp, sp, #60
 1297 0010 0280A0E1 		mov	r8, r2
 1298 0014 0070A0E1 		mov	r7, r0
 1299 0018 041093E5 		ldr	r1, [r3, #4]
 1300 001c 043092E5 		ldr	r3, [r2, #4]
 1301 0020 78209DE5 		ldr	r2, [sp, #120]
 1302 0024 70A09DE5 		ldr	r10, [sp, #112]
 1303 0028 086093E5 		ldr	r6, [r3, #8]
 1304 002c 005092E5 		ldr	r5, [r2]
 1305 0030 042091E5 		ldr	r2, [r1, #4]
 1306 0034 74909DE5 		ldr	r9, [sp, #116]
 1307 0038 0510A0E1 		mov	r1, r5
 1308 003c 24208DE5 		str	r2, [sp, #36]
 1309 0040 0200A0E1 		mov	r0, r2
 1310 0044 042093E5 		ldr	r2, [r3, #4]
 1311 0048 00208DE5 		str	r2, [sp]
 1312 004c FEFFFFEB 		bl	__aeabi_idiv
 1313 0050 04309AE5 		ldr	r3, [r10, #4]
 1314 0054 000059E3 		cmp	r9, #0
 1315 0058 002094E5 		ldr	r2, [r4]
 1316 005c 1C008DE5 		str	r0, [sp, #28]
 1317 0060 084093E5 		ldr	r4, [r3, #8]
 1318 0064 00309AE5 		ldr	r3, [r10]
 1319 0068 0C208DE5 		str	r2, [sp, #12]
 1320 006c 84A09DE5 		ldr	r10, [sp, #132]
 1321 0070 10308DE5 		str	r3, [sp, #16]
 1322 0074 80309DE5 		ldr	r3, [sp, #128]
 1323 0078 A401000A 		beq	.L177
 1324 007c 000053E3 		cmp	r3, #0
 1325 0080 002099E5 		ldr	r2, [r9]
 1326 0084 00309315 		ldrne	r3, [r3]
 1327 0088 000057E3 		cmp	r7, #0
 1328 008c 00B098E5 		ldr	fp, [r8]
 1329 0090 28208DE5 		str	r2, [sp, #40]
 1330 0094 18308DE5 		str	r3, [sp, #24]
 1331 0098 9C01000A 		beq	.L177
 1332 009c 443097E5 		ldr	r3, [r7, #68]
 1333 00a0 000053E3 		cmp	r3, #0
 1334 00a4 9901000A 		beq	.L177
 1335 00a8 7C109DE5 		ldr	r1, [sp, #124]
 1336 00ac 0700A0E1 		mov	r0, r7
 1337 00b0 33FF2FE1 		blx	r3
 1338 00b4 00005AE3 		cmp	r10, #0
 1339 00b8 00209DE5 		ldr	r2, [sp]
 1340 00bc 00309A15 		ldrne	r3, [r10]
 1341 00c0 20A08D05 		streq	r10, [sp, #32]
 1342 00c4 30008DE5 		str	r0, [sp, #48]
 1343 00c8 20308D15 		strne	r3, [sp, #32]
 1344 00cc 24309DE5 		ldr	r3, [sp, #36]
 1345 00d0 930202E0 		mul	r2, r3, r2
 1346 00d4 18309DE5 		ldr	r3, [sp, #24]
 1347 00d8 041083E2 		add	r1, r3, #4
 1348 00dc 940202E0 		mul	r2, r4, r2
 1349 00e0 0221A0E1 		lsl	r2, r2, #2
 1350 00e4 023083E0 		add	r3, r3, r2
 1351 00e8 030051E1 		cmp	r1, r3
 1352 00ec 0200000A 		beq	.L182
 1353 00f0 042042E2 		sub	r2, r2, #4
 1354 00f4 18009DE5 		ldr	r0, [sp, #24]
 1355 00f8 FEFFFFEB 		bl	memmove
 1356              	.L182:
 1357 00fc 00309DE5 		ldr	r3, [sp]
 1358 0100 079144E2 		sub	r9, r4, #-1073741823
 1359 0104 0991A0E1 		lsl	r9, r9, #2
 1360 0108 000053E3 		cmp	r3, #0
 1361 010c 18309DE5 		ldr	r3, [sp, #24]
 1362 0110 093083E0 		add	r3, r3, r9
 1363 0114 04308DE5 		str	r3, [sp, #4]
 1364 0118 590100DA 		ble	.L265
 1365 011c 24309DE5 		ldr	r3, [sp, #36]
 1366 0120 049089E2 		add	r9, r9, #4
 1367 0124 000053E3 		cmp	r3, #0
 1368 0128 790100DA 		ble	.L183
 1369 012c 990302E0 		mul	r2, r9, r3
 1370 0130 09E046E2 		sub	lr, r6, #9
 1371 0134 07E0CEE3 		bic	lr, lr, #7
 1372 0138 0380A0E1 		mov	r8, r3
 1373 013c 08E08EE2 		add	lr, lr, #8
 1374 0140 2C508DE5 		str	r5, [sp, #44]
 1375 0144 0010A0E3 		mov	r1, #0
 1376 0148 34408DE5 		str	r4, [sp, #52]
 1377 014c 14208DE5 		str	r2, [sp, #20]
 1378 0150 0621A0E1 		lsl	r2, r6, #2
 1379 0154 08108DE5 		str	r1, [sp, #8]
 1380 0158 02A0A0E1 		mov	r10, r2
 1381              	.L191:
 1382 015c 0C709DE5 		ldr	r7, [sp, #12]
 1383 0160 0040A0E3 		mov	r4, #0
 1384 0164 04509DE5 		ldr	r5, [sp, #4]
 1385              	.L189:
 1386 0168 000056E3 		cmp	r6, #0
 1387 016c FB7ADFED 		vldr.32	s15, .L268
 1388 0170 2D0000DA 		ble	.L184
 1389 0174 080056E3 		cmp	r6, #8
 1390 0178 3D0100DA 		ble	.L233
 1391 017c 203087E2 		add	r3, r7, #32
 1392 0180 20208BE2 		add	r2, fp, #32
 1393 0184 0010A0E3 		mov	r1, #0
 1394              	.L186:
 1395 0188 085A53ED 		vldr.32	s11, [r3, #-32]
 1396 018c 081081E2 		add	r1, r1, #8
 1397 0190 086A12ED 		vldr.32	s12, [r2, #-32]
 1398 0194 0E0051E1 		cmp	r1, lr
 1399 0198 076A53ED 		vldr.32	s13, [r3, #-28]
 1400 019c 0300A0E1 		mov	r0, r3
 1401 01a0 077A12ED 		vldr.32	s14, [r2, #-28]
 1402 01a4 02C0A0E1 		mov	ip, r2
 1403 01a8 061A53ED 		vldr.32	s3, [r3, #-24]
 1404 01ac 202082E2 		add	r2, r2, #32
 1405 01b0 867A45EE 		vmla.f32	s15, s11, s12
 1406 01b4 0E2A12ED 		vldr.32	s4, [r2, #-56]
 1407 01b8 052A53ED 		vldr.32	s5, [r3, #-20]
 1408 01bc 0D3A12ED 		vldr.32	s6, [r2, #-52]
 1409 01c0 043A53ED 		vldr.32	s7, [r3, #-16]
 1410 01c4 0C4A12ED 		vldr.32	s8, [r2, #-48]
 1411 01c8 034A53ED 		vldr.32	s9, [r3, #-12]
 1412 01cc 877A46EE 		vmla.f32	s15, s13, s14
 1413 01d0 0B5A12ED 		vldr.32	s10, [r2, #-44]
 1414 01d4 025A53ED 		vldr.32	s11, [r3, #-8]
 1415 01d8 0A6A12ED 		vldr.32	s12, [r2, #-40]
 1416 01dc 016A53ED 		vldr.32	s13, [r3, #-4]
 1417 01e0 097A12ED 		vldr.32	s14, [r2, #-36]
 1418 01e4 3CF0D3F5 		pld	[r3, #60]
 1419 01e8 203083E2 		add	r3, r3, #32
 1420 01ec 827A41EE 		vmla.f32	s15, s3, s4
 1421 01f0 837A42EE 		vmla.f32	s15, s5, s6
 1422 01f4 847A43EE 		vmla.f32	s15, s7, s8
 1423 01f8 857A44EE 		vmla.f32	s15, s9, s10
 1424 01fc 867A45EE 		vmla.f32	s15, s11, s12
 1425 0200 877A46EE 		vmla.f32	s15, s13, s14
 1426 0204 DFFFFF1A 		bne	.L186
 1427 0208 0C20A0E1 		mov	r2, ip
 1428 020c 0030A0E1 		mov	r3, r0
 1429              	.L188:
 1430 0210 016AF3EC 		vldmia.32	r3!, {s13}
 1431 0214 011081E2 		add	r1, r1, #1
 1432 0218 017AB2EC 		vldmia.32	r2!, {s14}
 1433 021c 010056E1 		cmp	r6, r1
 1434 0220 877A46EE 		vmla.f32	s15, s13, s14
 1435 0224 F9FFFFCA 		bgt	.L188
 1436 0228 0A7087E0 		add	r7, r7, r10
 1437              	.L184:
 1438 022c 014084E2 		add	r4, r4, #1
 1439 0230 007AC5ED 		vstr.32	s15, [r5]
 1440 0234 040058E1 		cmp	r8, r4
 1441 0238 095085E0 		add	r5, r5, r9
 1442 023c C9FFFF1A 		bne	.L189
 1443 0240 04209DE5 		ldr	r2, [sp, #4]
 1444 0244 0AB08BE0 		add	fp, fp, r10
 1445 0248 14109DE5 		ldr	r1, [sp, #20]
 1446 024c 08309DE5 		ldr	r3, [sp, #8]
 1447 0250 012082E0 		add	r2, r2, r1
 1448 0254 04208DE5 		str	r2, [sp, #4]
 1449 0258 013083E2 		add	r3, r3, #1
 1450 025c 00209DE5 		ldr	r2, [sp]
 1451 0260 08308DE5 		str	r3, [sp, #8]
 1452 0264 030052E1 		cmp	r2, r3
 1453 0268 BBFFFF1A 		bne	.L191
 1454 026c 34409DE5 		ldr	r4, [sp, #52]
 1455 0270 00B0A0E3 		mov	fp, #0
 1456 0274 24A09DE5 		ldr	r10, [sp, #36]
 1457 0278 78109DE5 		ldr	r1, [sp, #120]
 1458 027c 2C509DE5 		ldr	r5, [sp, #44]
 1459 0280 09E044E2 		sub	lr, r4, #9
 1460 0284 07E0CEE3 		bic	lr, lr, #7
 1461 0288 940A03E0 		mul	r3, r4, r10
 1462 028c 0410D1E5 		ldrb	r1, [r1, #4]	@ zero_extendqisi2
 1463 0290 0A21A0E1 		lsl	r2, r10, #2
 1464 0294 08E08EE2 		add	lr, lr, #8
 1465 0298 34508DE5 		str	r5, [sp, #52]
 1466 029c 2C108DE5 		str	r1, [sp, #44]
 1467 02a0 0331A0E1 		lsl	r3, r3, #2
 1468 02a4 18109DE5 		ldr	r1, [sp, #24]
 1469 02a8 14208DE5 		str	r2, [sp, #20]
 1470 02ac 18308DE5 		str	r3, [sp, #24]
 1471 02b0 30309DE5 		ldr	r3, [sp, #48]
 1472 02b4 04108DE5 		str	r1, [sp, #4]
 1473 02b8 08308DE5 		str	r3, [sp, #8]
 1474 02bc 0030A0E3 		mov	r3, #0
 1475 02c0 0C308DE5 		str	r3, [sp, #12]
 1476              	.L194:
 1477 02c4 08509DE5 		ldr	r5, [sp, #8]
 1478 02c8 0060A0E3 		mov	r6, #0
 1479 02cc 04809DE5 		ldr	r8, [sp, #4]
 1480 02d0 10709DE5 		ldr	r7, [sp, #16]
 1481              	.L192:
 1482 02d4 000054E3 		cmp	r4, #0
 1483 02d8 00B085E5 		str	fp, [r5]	@ float
 1484 02dc 300000DA 		ble	.L195
 1485 02e0 080054E3 		cmp	r4, #8
 1486 02e4 9D7ADFED 		vldr.32	s15, .L268
 1487 02e8 DD0000DA 		ble	.L234
 1488 02ec 203087E2 		add	r3, r7, #32
 1489 02f0 202088E2 		add	r2, r8, #32
 1490 02f4 0010A0E3 		mov	r1, #0
 1491              	.L197:
 1492 02f8 085A53ED 		vldr.32	s11, [r3, #-32]
 1493 02fc 081081E2 		add	r1, r1, #8
 1494 0300 086A12ED 		vldr.32	s12, [r2, #-32]
 1495 0304 0E0051E1 		cmp	r1, lr
 1496 0308 076A52ED 		vldr.32	s13, [r2, #-28]
 1497 030c 0300A0E1 		mov	r0, r3
 1498 0310 077A13ED 		vldr.32	s14, [r3, #-28]
 1499 0314 02C0A0E1 		mov	ip, r2
 1500 0318 061A53ED 		vldr.32	s3, [r3, #-24]
 1501 031c 202082E2 		add	r2, r2, #32
 1502 0320 867A45EE 		vmla.f32	s15, s11, s12
 1503 0324 0E2A12ED 		vldr.32	s4, [r2, #-56]
 1504 0328 052A53ED 		vldr.32	s5, [r3, #-20]
 1505 032c 0D3A12ED 		vldr.32	s6, [r2, #-52]
 1506 0330 043A53ED 		vldr.32	s7, [r3, #-16]
 1507 0334 0C4A12ED 		vldr.32	s8, [r2, #-48]
 1508 0338 034A53ED 		vldr.32	s9, [r3, #-12]
 1509 033c 877A46EE 		vmla.f32	s15, s13, s14
 1510 0340 0B5A12ED 		vldr.32	s10, [r2, #-44]
 1511 0344 025A53ED 		vldr.32	s11, [r3, #-8]
 1512 0348 0A6A12ED 		vldr.32	s12, [r2, #-40]
 1513 034c 016A53ED 		vldr.32	s13, [r3, #-4]
 1514 0350 097A12ED 		vldr.32	s14, [r2, #-36]
 1515 0354 3CF0D3F5 		pld	[r3, #60]
 1516 0358 203083E2 		add	r3, r3, #32
 1517 035c 827A41EE 		vmla.f32	s15, s3, s4
 1518 0360 837A42EE 		vmla.f32	s15, s5, s6
 1519 0364 847A43EE 		vmla.f32	s15, s7, s8
 1520 0368 857A44EE 		vmla.f32	s15, s9, s10
 1521 036c 867A45EE 		vmla.f32	s15, s11, s12
 1522 0370 877A46EE 		vmla.f32	s15, s13, s14
 1523 0374 DFFFFF1A 		bne	.L197
 1524 0378 0C20A0E1 		mov	r2, ip
 1525 037c 0030A0E1 		mov	r3, r0
 1526              	.L199:
 1527 0380 016AF2EC 		vldmia.32	r2!, {s13}
 1528 0384 011081E2 		add	r1, r1, #1
 1529 0388 017AB3EC 		vldmia.32	r3!, {s14}
 1530 038c 010054E1 		cmp	r4, r1
 1531 0390 877A46EE 		vmla.f32	s15, s13, s14
 1532 0394 F9FFFFCA 		bgt	.L199
 1533 0398 097087E0 		add	r7, r7, r9
 1534 039c 098088E0 		add	r8, r8, r9
 1535 03a0 007AC5ED 		vstr.32	s15, [r5]
 1536              	.L195:
 1537 03a4 016086E2 		add	r6, r6, #1
 1538 03a8 045085E2 		add	r5, r5, #4
 1539 03ac 06005AE1 		cmp	r10, r6
 1540 03b0 C7FFFF1A 		bne	.L192
 1541 03b4 08209DE5 		ldr	r2, [sp, #8]
 1542 03b8 14109DE5 		ldr	r1, [sp, #20]
 1543 03bc 0C309DE5 		ldr	r3, [sp, #12]
 1544 03c0 012082E0 		add	r2, r2, r1
 1545 03c4 08208DE5 		str	r2, [sp, #8]
 1546 03c8 013083E2 		add	r3, r3, #1
 1547 03cc 00209DE5 		ldr	r2, [sp]
 1548 03d0 0C308DE5 		str	r3, [sp, #12]
 1549 03d4 030052E1 		cmp	r2, r3
 1550 03d8 04309DE5 		ldr	r3, [sp, #4]
 1551 03dc 18209DE5 		ldr	r2, [sp, #24]
 1552 03e0 023083E0 		add	r3, r3, r2
 1553 03e4 04308DE5 		str	r3, [sp, #4]
 1554 03e8 B5FFFF1A 		bne	.L194
 1555 03ec 34509DE5 		ldr	r5, [sp, #52]
 1556              	.L193:
 1557 03f0 28309DE5 		ldr	r3, [sp, #40]
 1558 03f4 000053E3 		cmp	r3, #0
 1559 03f8 AD00000A 		beq	.L266
 1560 03fc 1C309DE5 		ldr	r3, [sp, #28]
 1561 0400 000053E3 		cmp	r3, #0
 1562 0404 6A0000DA 		ble	.L174
 1563 0408 0341A0E1 		lsl	r4, r3, #2
 1564 040c 00709DE5 		ldr	r7, [sp]
 1565 0410 20309DE5 		ldr	r3, [sp, #32]
 1566 0414 0060A0E3 		mov	r6, #0
 1567 0418 28809DE5 		ldr	r8, [sp, #40]
 1568              	.L205:
 1569 041c 0300A0E1 		mov	r0, r3
 1570 0420 016086E2 		add	r6, r6, #1
 1571 0424 0420A0E1 		mov	r2, r4
 1572 0428 0810A0E1 		mov	r1, r8
 1573 042c FEFFFFEB 		bl	memmove
 1574 0430 060057E1 		cmp	r7, r6
 1575 0434 043080E0 		add	r3, r0, r4
 1576 0438 F7FFFF1A 		bne	.L205
 1577              	.L204:
 1578 043c 24309DE5 		ldr	r3, [sp, #36]
 1579 0440 090045E2 		sub	r0, r5, #9
 1580 0444 30909DE5 		ldr	r9, [sp, #48]
 1581 0448 0700C0E3 		bic	r0, r0, #7
 1582 044c 20A09DE5 		ldr	r10, [sp, #32]
 1583 0450 0571A0E1 		lsl	r7, r5, #2
 1584 0454 080080E2 		add	r0, r0, #8
 1585 0458 03B1A0E1 		lsl	fp, r3, #2
 1586 045c 0080A0E3 		mov	r8, #0
 1587 0460 04B08DE5 		str	fp, [sp, #4]
 1588 0464 1CB09DE5 		ldr	fp, [sp, #28]
 1589              	.L208:
 1590 0468 0960A0E1 		mov	r6, r9
 1591 046c 0AC0A0E1 		mov	ip, r10
 1592 0470 00E0A0E3 		mov	lr, #0
 1593              	.L206:
 1594 0474 000055E3 		cmp	r5, #0
 1595 0478 220000DA 		ble	.L209
 1596 047c 080055E3 		cmp	r5, #8
 1597 0480 007ADCED 		vldr.32	s15, [ip]
 1598 0484 730000DA 		ble	.L235
 1599 0488 203086E2 		add	r3, r6, #32
 1600 048c 0020A0E3 		mov	r2, #0
 1601              	.L211:
 1602 0490 086A53ED 		vldr.32	s13, [r3, #-32]
 1603 0494 082082E2 		add	r2, r2, #8
 1604 0498 077A13ED 		vldr.32	s14, [r3, #-28]
 1605 049c 000052E1 		cmp	r2, r0
 1606 04a0 064A53ED 		vldr.32	s9, [r3, #-24]
 1607 04a4 0310A0E1 		mov	r1, r3
 1608 04a8 055A13ED 		vldr.32	s10, [r3, #-20]
 1609 04ac A67A77EE 		vadd.f32	s15, s15, s13
 1610 04b0 045A53ED 		vldr.32	s11, [r3, #-16]
 1611 04b4 036A13ED 		vldr.32	s12, [r3, #-12]
 1612 04b8 026A53ED 		vldr.32	s13, [r3, #-8]
 1613 04bc 877A77EE 		vadd.f32	s15, s15, s14
 1614 04c0 017A13ED 		vldr.32	s14, [r3, #-4]
 1615 04c4 68F0D3F5 		pld	[r3, #104]
 1616 04c8 203083E2 		add	r3, r3, #32
 1617 04cc A47A77EE 		vadd.f32	s15, s15, s9
 1618 04d0 857A77EE 		vadd.f32	s15, s15, s10
 1619 04d4 A57A77EE 		vadd.f32	s15, s15, s11
 1620 04d8 867A77EE 		vadd.f32	s15, s15, s12
 1621 04dc A67A77EE 		vadd.f32	s15, s15, s13
 1622 04e0 877A77EE 		vadd.f32	s15, s15, s14
 1623 04e4 E9FFFF1A 		bne	.L211
 1624 04e8 0130A0E1 		mov	r3, r1
 1625              	.L213:
 1626 04ec 017AB3EC 		vldmia.32	r3!, {s14}
 1627 04f0 012082E2 		add	r2, r2, #1
 1628 04f4 020055E1 		cmp	r5, r2
 1629 04f8 877A77EE 		vadd.f32	s15, s15, s14
 1630 04fc FAFFFFCA 		bgt	.L213
 1631 0500 076086E0 		add	r6, r6, r7
 1632 0504 007ACCED 		vstr.32	s15, [ip]
 1633              	.L209:
 1634 0508 01E08EE2 		add	lr, lr, #1
 1635 050c 04C08CE2 		add	ip, ip, #4
 1636 0510 0E005BE1 		cmp	fp, lr
 1637 0514 D6FFFF1A 		bne	.L206
 1638 0518 04309DE5 		ldr	r3, [sp, #4]
 1639 051c 018088E2 		add	r8, r8, #1
 1640 0520 04A08AE0 		add	r10, r10, r4
 1641 0524 039089E0 		add	r9, r9, r3
 1642 0528 00309DE5 		ldr	r3, [sp]
 1643 052c 080053E1 		cmp	r3, r8
 1644 0530 CCFFFFCA 		bgt	.L208
 1645 0534 20A09DE5 		ldr	r10, [sp, #32]
 1646 0538 03B0A0E1 		mov	fp, r3
 1647 053c 078ADFED 		vldr.32	s17, .L268
 1648 0540 0050A0E3 		mov	r5, #0
 1649 0544 1C909DE5 		ldr	r9, [sp, #28]
 1650 0548 2C809DE5 		ldr	r8, [sp, #44]
 1651 054c 008AB7EE 		vmov.f32	s16, #1.0e+0
 1652              	.L216:
 1653 0550 0A70A0E1 		mov	r7, r10
 1654 0554 0060A0E3 		mov	r6, #0
 1655 0558 089AB1EE 		vmov.f32	s18, #6.0e+0
 1656 055c 000000EA 		b	.L269
 1657              	.L270:
 1658              		.align	2
 1659              	.L268:
 1660 0560 00000000 		.word	0
 1661              	.L269:
 1662              	.L215:
 1663 0564 000A97ED 		vldr.32	s0, [r7]
 1664 0568 060058E3 		cmp	r8, #6
 1665 056c 08F19F97 		ldrls	pc, [pc, r8, asl #2]
 1666 0570 600000EA 		b	.L236
 1667              	.L219:
 1668 0574 94050000 		.word	.L217
 1669 0578 C8050000 		.word	.L254
 1670 057c 30060000 		.word	.L221
 1671 0580 C0050000 		.word	.L222
 1672 0584 90050000 		.word	.L223
 1673 0588 0C060000 		.word	.L224
 1674 058c E8050000 		.word	.L225
 1675              	.L223:
 1676 0590 FEFFFFEB 		bl	tanhf
 1677              	.L217:
 1678 0594 016086E2 		add	r6, r6, #1
 1679 0598 010AA7EC 		vstmia.32	r7!, {s0}
 1680 059c 060059E1 		cmp	r9, r6
 1681 05a0 EFFFFF1A 		bne	.L215
 1682              	.L267:
 1683 05a4 015085E2 		add	r5, r5, #1
 1684 05a8 04A08AE0 		add	r10, r10, r4
 1685 05ac 05005BE1 		cmp	fp, r5
 1686 05b0 E6FFFFCA 		bgt	.L216
 1687              	.L174:
 1688 05b4 3CD08DE2 		add	sp, sp, #60
 1689              		@ sp needed
 1690 05b8 048BBDEC 		vldm	sp!, {d8-d9}
 1691 05bc F08FBDE8 		pop	{r4, r5, r6, r7, r8, r9, r10, fp, pc}
 1692              	.L222:
 1693 05c0 490AF0EE 		vmov.f32	s1, s18
 1694 05c4 FEFFFFEB 		bl	fminf
 1695              	.L254:
 1696 05c8 400AF0EE 		vmov.f32	s1, s0
 1697 05cc 016086E2 		add	r6, r6, #1
 1698 05d0 680AB0EE 		vmov.f32	s0, s17
 1699 05d4 FEFFFFEB 		bl	fmaxf
 1700 05d8 060059E1 		cmp	r9, r6
 1701 05dc 010AA7EC 		vstmia.32	r7!, {s0}
 1702 05e0 DFFFFF1A 		bne	.L215
 1703 05e4 EEFFFFEA 		b	.L267
 1704              	.L225:
 1705 05e8 400AB1EE 		vneg.f32	s0, s0
 1706 05ec 016086E2 		add	r6, r6, #1
 1707 05f0 FEFFFFEB 		bl	expf
 1708 05f4 087A70EE 		vadd.f32	s15, s0, s16
 1709 05f8 060059E1 		cmp	r9, r6
 1710 05fc 270A88EE 		vdiv.f32	s0, s16, s15
 1711 0600 010AA7EC 		vstmia.32	r7!, {s0}
 1712 0604 D6FFFF1A 		bne	.L215
 1713 0608 E5FFFFEA 		b	.L267
 1714              	.L224:
 1715 060c 103A10EE 		vmov	r3, s0	@ int
 1716 0610 016086E2 		add	r6, r6, #1
 1717 0614 A33FA0E1 		lsr	r3, r3, #31
 1718 0618 060059E1 		cmp	r9, r6
 1719 061c 903A07EE 		vmov	s15, r3	@ int
 1720 0620 670AB8EE 		vcvt.f32.u32	s0, s15
 1721 0624 010AA7EC 		vstmia.32	r7!, {s0}
 1722 0628 CDFFFF1A 		bne	.L215
 1723 062c DCFFFFEA 		b	.L267
 1724              	.L221:
 1725 0630 480AF0EE 		vmov.f32	s1, s16
 1726 0634 016086E2 		add	r6, r6, #1
 1727 0638 FEFFFFEB 		bl	fminf
 1728 063c 400AF0EE 		vmov.f32	s1, s0
 1729 0640 000ABFEE 		vmov.f32	s0, #-1.0e+0
 1730 0644 FEFFFFEB 		bl	fmaxf
 1731 0648 060059E1 		cmp	r9, r6
 1732 064c 010AA7EC 		vstmia.32	r7!, {s0}
 1733 0650 C3FFFF1A 		bne	.L215
 1734 0654 D2FFFFEA 		b	.L267
 1735              	.L235:
 1736 0658 0630A0E1 		mov	r3, r6
 1737 065c 0020A0E3 		mov	r2, #0
 1738 0660 A1FFFFEA 		b	.L213
 1739              	.L234:
 1740 0664 0820A0E1 		mov	r2, r8
 1741 0668 0730A0E1 		mov	r3, r7
 1742 066c 0010A0E3 		mov	r1, #0
 1743 0670 42FFFFEA 		b	.L199
 1744              	.L233:
 1745 0674 0B20A0E1 		mov	r2, fp
 1746 0678 0730A0E1 		mov	r3, r7
 1747 067c 0010A0E3 		mov	r1, #0
 1748 0680 E2FEFFEA 		b	.L188
 1749              	.L265:
 1750 0684 28309DE5 		ldr	r3, [sp, #40]
 1751 0688 000053E3 		cmp	r3, #0
 1752 068c C8FFFF1A 		bne	.L174
 1753 0690 1C309DE5 		ldr	r3, [sp, #28]
 1754 0694 00209DE5 		ldr	r2, [sp]
 1755 0698 930202E0 		mul	r2, r3, r2
 1756 069c 78309DE5 		ldr	r3, [sp, #120]
 1757 06a0 0430D3E5 		ldrb	r3, [r3, #4]	@ zero_extendqisi2
 1758 06a4 000052E3 		cmp	r2, #0
 1759 06a8 2C308DE5 		str	r3, [sp, #44]
 1760 06ac 050000CA 		bgt	.L202
 1761 06b0 BFFFFFEA 		b	.L174
 1762              	.L266:
 1763 06b4 1C309DE5 		ldr	r3, [sp, #28]
 1764 06b8 00209DE5 		ldr	r2, [sp]
 1765 06bc 930202E0 		mul	r2, r3, r2
 1766 06c0 000052E3 		cmp	r2, #0
 1767 06c4 060000DA 		ble	.L203
 1768              	.L202:
 1769 06c8 0221A0E1 		lsl	r2, r2, #2
 1770 06cc 0010A0E3 		mov	r1, #0
 1771 06d0 20009DE5 		ldr	r0, [sp, #32]
 1772 06d4 FEFFFFEB 		bl	memset
 1773 06d8 00309DE5 		ldr	r3, [sp]
 1774 06dc 000053E3 		cmp	r3, #0
 1775 06e0 B3FFFFDA 		ble	.L174
 1776              	.L203:
 1777 06e4 1C309DE5 		ldr	r3, [sp, #28]
 1778 06e8 000053E3 		cmp	r3, #0
 1779 06ec B0FFFFDA 		ble	.L174
 1780 06f0 0341A0E1 		lsl	r4, r3, #2
 1781 06f4 50FFFFEA 		b	.L204
 1782              	.L236:
 1783 06f8 016086E2 		add	r6, r6, #1
 1784 06fc 680AB0EE 		vmov.f32	s0, s17
 1785 0700 060059E1 		cmp	r9, r6
 1786 0704 010AA7EC 		vstmia.32	r7!, {s0}
 1787 0708 95FFFF1A 		bne	.L215
 1788 070c A4FFFFEA 		b	.L267
 1789              	.L177:
 1790 0710 FEFFFFEB 		bl	abort
 1791              	.L183:
 1792 0714 78309DE5 		ldr	r3, [sp, #120]
 1793 0718 0430D3E5 		ldrb	r3, [r3, #4]	@ zero_extendqisi2
 1794 071c 2C308DE5 		str	r3, [sp, #44]
 1795 0720 32FFFFEA 		b	.L193
 1796              		.fnend
 1798              		.global	__aeabi_idivmod
 1799              		.section	.text._ZN6tflite11PrepareSvdfEP13TfLiteContextP10TfLiteNode,"ax",%progbits
 1800              		.align	2
 1801              		.global	_ZN6tflite11PrepareSvdfEP13TfLiteContextP10TfLiteNode
 1802              		.syntax unified
 1803              		.arm
 1804              		.fpu neon
 1806              	_ZN6tflite11PrepareSvdfEP13TfLiteContextP10TfLiteNode:
 1807              		.fnstart
 1808              	.LFB4180:
 1809              		@ args = 0, pretend = 0, frame = 24
 1810              		@ frame_needed = 0, uses_anonymous_args = 0
 1811 0000 F04F2DE9 		push	{r4, r5, r6, r7, r8, r9, r10, fp, lr}
 1812              		.save {r4, r5, r6, r7, r8, r9, r10, fp, lr}
 1813 0004 148091E5 		ldr	r8, [r1, #20]
 1814 0008 028B2DED 		vpush.64	{d8}
 1815              		.vsave {d8}
 1816              		.pad #28
 1817 000c 1CD04DE2 		sub	sp, sp, #28
 1818 0010 000058E3 		cmp	r8, #0
 1819 0014 A800000A 		beq	.L277
 1820 0018 0020A0E3 		mov	r2, #0
 1821 001c 0140A0E1 		mov	r4, r1
 1822 0020 0050A0E1 		mov	r5, r0
 1823 0024 FEFFFFEB 		bl	_ZN6tflite8GetInputEPK13TfLiteContextPK10TfLiteNodei
 1824 0028 006050E2 		subs	r6, r0, #0
 1825 002c 2B00000A 		beq	.L275
 1826 0030 0120A0E3 		mov	r2, #1
 1827 0034 0410A0E1 		mov	r1, r4
 1828 0038 0500A0E1 		mov	r0, r5
 1829 003c FEFFFFEB 		bl	_ZN6tflite8GetInputEPK13TfLiteContextPK10TfLiteNodei
 1830 0040 007050E2 		subs	r7, r0, #0
 1831 0044 2500000A 		beq	.L275
 1832 0048 0220A0E3 		mov	r2, #2
 1833 004c 0410A0E1 		mov	r1, r4
 1834 0050 0500A0E1 		mov	r0, r5
 1835 0054 FEFFFFEB 		bl	_ZN6tflite8GetInputEPK13TfLiteContextPK10TfLiteNodei
 1836 0058 00A050E2 		subs	r10, r0, #0
 1837 005c 1F00000A 		beq	.L275
 1838 0060 0320A0E3 		mov	r2, #3
 1839 0064 0410A0E1 		mov	r1, r4
 1840 0068 0500A0E1 		mov	r0, r5
 1841 006c FEFFFFEB 		bl	_ZN6tflite22GetOptionalInputTensorEPK13TfLiteContextPK10TfLiteNodei
 1842 0070 0420A0E3 		mov	r2, #4
 1843 0074 00B0A0E1 		mov	fp, r0
 1844 0078 0410A0E1 		mov	r1, r4
 1845 007c 0500A0E1 		mov	r0, r5
 1846 0080 FEFFFFEB 		bl	_ZN6tflite8GetInputEPK13TfLiteContextPK10TfLiteNodei
 1847 0084 003050E2 		subs	r3, r0, #0
 1848 0088 00308DE5 		str	r3, [sp]
 1849 008c 1300000A 		beq	.L275
 1850 0090 083097E5 		ldr	r3, [r7, #8]
 1851 0094 009098E5 		ldr	r9, [r8]
 1852 0098 048093E5 		ldr	r8, [r3, #4]
 1853 009c 0910A0E1 		mov	r1, r9
 1854 00a0 0800A0E1 		mov	r0, r8
 1855 00a4 FEFFFFEB 		bl	__aeabi_idivmod
 1856 00a8 000051E3 		cmp	r1, #0
 1857 00ac 0B00001A 		bne	.L275
 1858 00b0 0030D6E5 		ldrb	r3, [r6]	@ zero_extendqisi2
 1859 00b4 F73003E2 		and	r3, r3, #247
 1860 00b8 010053E3 		cmp	r3, #1
 1861 00bc 0700001A 		bne	.L275
 1862 00c0 083096E5 		ldr	r3, [r6, #8]
 1863 00c4 002093E5 		ldr	r2, [r3]
 1864 00c8 020052E3 		cmp	r2, #2
 1865 00cc 0300001A 		bne	.L275
 1866 00d0 042094E5 		ldr	r2, [r4, #4]
 1867 00d4 002092E5 		ldr	r2, [r2]
 1868 00d8 010052E3 		cmp	r2, #1
 1869 00dc 0300000A 		beq	.L319
 1870              	.L275:
 1871 00e0 0100A0E3 		mov	r0, #1
 1872              	.L274:
 1873 00e4 1CD08DE2 		add	sp, sp, #28
 1874              		@ sp needed
 1875 00e8 028BBDEC 		vldm	sp!, {d8}
 1876 00ec F08FBDE8 		pop	{r4, r5, r6, r7, r8, r9, r10, fp, pc}
 1877              	.L319:
 1878 00f0 08C09AE5 		ldr	ip, [r10, #8]
 1879 00f4 0120A0E1 		mov	r2, r1
 1880 00f8 08E093E5 		ldr	lr, [r3, #8]
 1881 00fc 0410A0E1 		mov	r1, r4
 1882 0100 043093E5 		ldr	r3, [r3, #4]
 1883 0104 0500A0E1 		mov	r0, r5
 1884 0108 08C09CE5 		ldr	ip, [ip, #8]
 1885 010c 0CE08DE5 		str	lr, [sp, #12]
 1886 0110 04308DE5 		str	r3, [sp, #4]
 1887 0114 08C08DE5 		str	ip, [sp, #8]
 1888 0118 FEFFFFEB 		bl	_ZN6tflite9GetOutputEP13TfLiteContextPK10TfLiteNodei
 1889 011c 003050E2 		subs	r3, r0, #0
 1890 0120 EEFFFF0A 		beq	.L275
 1891 0124 082093E5 		ldr	r2, [r3, #8]
 1892 0128 001092E5 		ldr	r1, [r2]
 1893 012c 020051E3 		cmp	r1, #2
 1894 0130 EAFFFF1A 		bne	.L275
 1895 0134 041092E5 		ldr	r1, [r2, #4]
 1896 0138 04009DE5 		ldr	r0, [sp, #4]
 1897 013c 010050E1 		cmp	r0, r1
 1898 0140 E6FFFF1A 		bne	.L275
 1899 0144 0910A0E1 		mov	r1, r9
 1900 0148 0800A0E1 		mov	r0, r8
 1901 014c 14208DE5 		str	r2, [sp, #20]
 1902 0150 10308DE5 		str	r3, [sp, #16]
 1903 0154 FEFFFFEB 		bl	__aeabi_idiv
 1904 0158 14209DE5 		ldr	r2, [sp, #20]
 1905 015c 0090A0E1 		mov	r9, r0
 1906 0160 10309DE5 		ldr	r3, [sp, #16]
 1907 0164 082092E5 		ldr	r2, [r2, #8]
 1908 0168 020050E1 		cmp	r0, r2
 1909 016c DBFFFF1A 		bne	.L275
 1910 0170 082097E5 		ldr	r2, [r7, #8]
 1911 0174 001092E5 		ldr	r1, [r2]
 1912 0178 020051E3 		cmp	r1, #2
 1913 017c D7FFFF1A 		bne	.L275
 1914 0180 082092E5 		ldr	r2, [r2, #8]
 1915 0184 0C109DE5 		ldr	r1, [sp, #12]
 1916 0188 020051E1 		cmp	r1, r2
 1917 018c D3FFFF1A 		bne	.L275
 1918 0190 08209AE5 		ldr	r2, [r10, #8]
 1919 0194 001092E5 		ldr	r1, [r2]
 1920 0198 020051E3 		cmp	r1, #2
 1921 019c CFFFFF1A 		bne	.L275
 1922 01a0 041092E5 		ldr	r1, [r2, #4]
 1923 01a4 010058E1 		cmp	r8, r1
 1924 01a8 CCFFFF1A 		bne	.L275
 1925 01ac 082092E5 		ldr	r2, [r2, #8]
 1926 01b0 08109DE5 		ldr	r1, [sp, #8]
 1927 01b4 020051E1 		cmp	r1, r2
 1928 01b8 C8FFFF1A 		bne	.L275
 1929 01bc 00005BE3 		cmp	fp, #0
 1930 01c0 0300000A 		beq	.L276
 1931 01c4 08209BE5 		ldr	r2, [fp, #8]
 1932 01c8 042092E5 		ldr	r2, [r2, #4]
 1933 01cc 020050E1 		cmp	r0, r2
 1934 01d0 C2FFFF1A 		bne	.L275
 1935              	.L276:
 1936 01d4 00209DE5 		ldr	r2, [sp]
 1937 01d8 081092E5 		ldr	r1, [r2, #8]
 1938 01dc 002091E5 		ldr	r2, [r1]
 1939 01e0 020052E3 		cmp	r2, #2
 1940 01e4 BDFFFF1A 		bne	.L275
 1941 01e8 042091E5 		ldr	r2, [r1, #4]
 1942 01ec 04009DE5 		ldr	r0, [sp, #4]
 1943 01f0 020050E1 		cmp	r0, r2
 1944 01f4 B9FFFF1A 		bne	.L275
 1945 01f8 08209DE5 		ldr	r2, [sp, #8]
 1946 01fc 081091E5 		ldr	r1, [r1, #8]
 1947 0200 920802E0 		mul	r2, r2, r8
 1948 0204 020051E1 		cmp	r1, r2
 1949 0208 B4FFFF1A 		bne	.L275
 1950 020c 00209DE5 		ldr	r2, [sp]
 1951 0210 2D20D2E5 		ldrb	r2, [r2, #45]	@ zero_extendqisi2
 1952 0214 000052E3 		cmp	r2, #0
 1953 0218 B0FFFF0A 		beq	.L275
 1954 021c 002094E5 		ldr	r2, [r4]
 1955 0220 002092E5 		ldr	r2, [r2]
 1956 0224 050052E3 		cmp	r2, #5
 1957 0228 ACFFFF1A 		bne	.L275
 1958 022c 104094E5 		ldr	r4, [r4, #16]
 1959 0230 000054E3 		cmp	r4, #0
 1960 0234 2000000A 		beq	.L277
 1961 0238 0020D6E5 		ldrb	r2, [r6]	@ zero_extendqisi2
 1962 023c 090052E3 		cmp	r2, #9
 1963 0240 0020D7E5 		ldrb	r2, [r7]	@ zero_extendqisi2
 1964 0244 1D00000A 		beq	.L320
 1965 0248 010052E3 		cmp	r2, #1
 1966 024c A3FFFF1A 		bne	.L275
 1967 0250 0020DAE5 		ldrb	r2, [r10]	@ zero_extendqisi2
 1968 0254 010052E3 		cmp	r2, #1
 1969 0258 A0FFFF1A 		bne	.L275
 1970 025c 00209DE5 		ldr	r2, [sp]
 1971 0260 0020D2E5 		ldrb	r2, [r2]	@ zero_extendqisi2
 1972 0264 010052E3 		cmp	r2, #1
 1973 0268 9CFFFF1A 		bne	.L275
 1974 026c 00005BE3 		cmp	fp, #0
 1975 0270 0200000A 		beq	.L281
 1976 0274 0020DBE5 		ldrb	r2, [fp]	@ zero_extendqisi2
 1977 0278 010052E3 		cmp	r2, #1
 1978 027c 97FFFF1A 		bne	.L275
 1979              	.L281:
 1980 0280 0030D3E5 		ldrb	r3, [r3]	@ zero_extendqisi2
 1981 0284 010053E3 		cmp	r3, #1
 1982 0288 94FFFF1A 		bne	.L275
 1983 028c 403095E5 		ldr	r3, [r5, #64]
 1984 0290 000053E3 		cmp	r3, #0
 1985 0294 0800000A 		beq	.L277
 1986 0298 04209DE5 		ldr	r2, [sp, #4]
 1987 029c 980201E0 		mul	r1, r8, r2
 1988 02a0 102084E2 		add	r2, r4, #16
 1989              	.L318:
 1990 02a4 0500A0E1 		mov	r0, r5
 1991 02a8 0111A0E1 		lsl	r1, r1, #2
 1992 02ac 1CD08DE2 		add	sp, sp, #28
 1993              		@ sp needed
 1994 02b0 028BBDEC 		vldm	sp!, {d8}
 1995 02b4 F04FBDE8 		pop	{r4, r5, r6, r7, r8, r9, r10, fp, lr}
 1996 02b8 13FF2FE1 		bx	r3
 1997              	.L277:
 1998 02bc FEFFFFEB 		bl	abort
 1999              	.L320:
 2000 02c0 090052E3 		cmp	r2, #9
 2001 02c4 85FFFF1A 		bne	.L275
 2002 02c8 0020DAE5 		ldrb	r2, [r10]	@ zero_extendqisi2
 2003 02cc 070052E3 		cmp	r2, #7
 2004 02d0 82FFFF1A 		bne	.L275
 2005 02d4 00209DE5 		ldr	r2, [sp]
 2006 02d8 0020D2E5 		ldrb	r2, [r2]	@ zero_extendqisi2
 2007 02dc 070052E3 		cmp	r2, #7
 2008 02e0 7EFFFF1A 		bne	.L275
 2009 02e4 00005BE3 		cmp	fp, #0
 2010 02e8 0200000A 		beq	.L279
 2011 02ec 0020DBE5 		ldrb	r2, [fp]	@ zero_extendqisi2
 2012 02f0 020052E3 		cmp	r2, #2
 2013 02f4 79FFFF1A 		bne	.L275
 2014              	.L279:
 2015 02f8 0020D3E5 		ldrb	r2, [r3]	@ zero_extendqisi2
 2016 02fc 090052E3 		cmp	r2, #9
 2017 0300 76FFFF1A 		bne	.L275
 2018 0304 00209DE5 		ldr	r2, [sp]
 2019 0308 037A9AED 		vldr.32	s14, [r10, #12]
 2020 030c 036AD6ED 		vldr.32	s13, [r6, #12]
 2021 0310 036A92ED 		vldr.32	s12, [r2, #12]
 2022 0314 035A97ED 		vldr.32	s10, [r7, #12]
 2023 0318 035AD3ED 		vldr.32	s11, [r3, #12]
 2024 031c 037ADBED 		vldr.32	s15, [fp, #12]
 2025 0320 077A26EE 		vmul.f32	s14, s12, s14
 2026 0324 856A66EE 		vmul.f32	s13, s13, s10
 2027 0328 282BDFED 		vldr.64	d18, .L321
 2028 032c E70AF7EE 		vcvt.f64.f32	d16, s15
 2029 0330 258A87EE 		vdiv.f32	s16, s14, s11
 2030 0334 860A86EE 		vdiv.f32	s0, s13, s12
 2031 0338 C71AF7EE 		vcvt.f64.f32	d17, s14
 2032 033c E10B70EE 		vsub.f64	d16, d16, d17
 2033 0340 E00BF0EE 		vabs.f64	d16, d16
 2034 0344 E20BF4EE 		vcmpe.f64	d16, d18
 2035 0348 10FAF1EE 		vmrs	APSR_nzcv, FPSCR
 2036 034c C88AB7EE 		vcvt.f64.f32	d8, s16
 2037 0350 C00AB7EE 		vcvt.f64.f32	d0, s0
 2038 0354 61FFFF5A 		bpl	.L275
 2039 0358 081084E2 		add	r1, r4, #8
 2040 035c 0400A0E1 		mov	r0, r4
 2041 0360 00308DE5 		str	r3, [sp]
 2042 0364 FEFFFFEB 		bl	_ZN6tflite18QuantizeMultiplierEdPlPi
 2043 0368 480BB0EE 		vmov.f64	d0, d8
 2044 036c 0C1084E2 		add	r1, r4, #12
 2045 0370 040084E2 		add	r0, r4, #4
 2046 0374 FEFFFFEB 		bl	_ZN6tflite18QuantizeMultiplierEdPlPi
 2047 0378 00309DE5 		ldr	r3, [sp]
 2048 037c 407095E5 		ldr	r7, [r5, #64]
 2049 0380 102096E5 		ldr	r2, [r6, #16]
 2050 0384 103093E5 		ldr	r3, [r3, #16]
 2051 0388 000057E3 		cmp	r7, #0
 2052 038c 182084E5 		str	r2, [r4, #24]
 2053 0390 1C3084E5 		str	r3, [r4, #28]
 2054 0394 C8FFFF0A 		beq	.L277
 2055 0398 04309DE5 		ldr	r3, [sp, #4]
 2056 039c 102084E2 		add	r2, r4, #16
 2057 03a0 0500A0E1 		mov	r0, r5
 2058 03a4 980301E0 		mul	r1, r8, r3
 2059 03a8 0111A0E1 		lsl	r1, r1, #2
 2060 03ac 37FF2FE1 		blx	r7
 2061 03b0 000050E3 		cmp	r0, #0
 2062 03b4 4AFFFF1A 		bne	.L274
 2063 03b8 04309DE5 		ldr	r3, [sp, #4]
 2064 03bc 142084E2 		add	r2, r4, #20
 2065 03c0 990301E0 		mul	r1, r9, r3
 2066 03c4 403095E5 		ldr	r3, [r5, #64]
 2067 03c8 B5FFFFEA 		b	.L318
 2068              	.L322:
 2069 03cc 00F020E3 		.align	3
 2070              	.L321:
 2071 03d0 F168E388 		.word	-1998362383
 2072 03d4 B5F8E43E 		.word	1055193269
 2073              		.fnend
 2075              		.global	_ZN6tflite17kSvdfOutputTensorE
 2076              		.global	_ZN6tflite31kSvdfInputActivationStateTensorE
 2077              		.global	_ZN6tflite15kSvdfBiasTensorE
 2078              		.global	_ZN6tflite22kSvdfWeightsTimeTensorE
 2079              		.global	_ZN6tflite25kSvdfWeightsFeatureTensorE
 2080              		.global	_ZN6tflite16kSvdfInputTensorE
 2081              		.section	.rodata._ZN6tflite15kSvdfBiasTensorE,"a",%progbits
 2082              		.align	2
 2085              	_ZN6tflite15kSvdfBiasTensorE:
 2086 0000 03000000 		.word	3
 2087              		.section	.rodata._ZN6tflite16kSvdfInputTensorE,"a",%progbits
 2088              		.align	2
 2091              	_ZN6tflite16kSvdfInputTensorE:
 2092 0000 00000000 		.space	4
 2093              		.section	.rodata._ZN6tflite17kSvdfOutputTensorE,"a",%progbits
 2094              		.align	2
 2097              	_ZN6tflite17kSvdfOutputTensorE:
 2098 0000 00000000 		.space	4
 2099              		.section	.rodata._ZN6tflite22kSvdfWeightsTimeTensorE,"a",%progbits
 2100              		.align	2
 2103              	_ZN6tflite22kSvdfWeightsTimeTensorE:
 2104 0000 02000000 		.word	2
 2105              		.section	.rodata._ZN6tflite24EvalIntegerSvdfReferenceEP13TfLiteContextP10TfLiteNodePK16TfLiteEvalT
 2106              		.align	2
 2107              	.LC0:
 2108 0000 6578706F 		.ascii	"exponent <= 31\000"
 2108      6E656E74 
 2108      203C3D20 
 2108      333100
 2109 000f 00       		.space	1
 2110              	.LC1:
 2111 0010 433A2F52 		.ascii	"C:/Renesas/e2studio_2021_01_workspace_RZA2M_ANPR/AN"
 2111      656E6573 
 2111      61732F65 
 2111      32737475 
 2111      64696F5F 
 2112 0043 50525F52 		.ascii	"PR_RZA2M_EBK/src/tensorflow_lite/third_party/gemmlo"
 2112      5A41324D 
 2112      5F45424B 
 2112      2F737263 
 2112      2F74656E 
 2113 0076 77702F66 		.ascii	"wp/fixedpoint/fixedpoint.h\000"
 2113      69786564 
 2113      706F696E 
 2113      742F6669 
 2113      78656470 
 2114              		.section	.rodata._ZN6tflite25kSvdfWeightsFeatureTensorE,"a",%progbits
 2115              		.align	2
 2118              	_ZN6tflite25kSvdfWeightsFeatureTensorE:
 2119 0000 01000000 		.word	1
 2120              		.section	.rodata._ZN6tflite31kSvdfInputActivationStateTensorE,"a",%progbits
 2121              		.align	2
 2124              	_ZN6tflite31kSvdfInputActivationStateTensorE:
 2125 0000 04000000 		.word	4
 2126              		.section	.rodata._ZZN8gemmlowp19RoundingDivideByPOTIlEET_S1_iE19__PRETTY_FUNCTION__,"a",%progbits
 2127              		.align	3
 2128              		.set	.LANCHOR0,. + 0
 2131              	_ZZN8gemmlowp19RoundingDivideByPOTIlEET_S1_iE19__PRETTY_FUNCTION__:
 2132 0000 496E7465 		.ascii	"IntegerType gemmlowp::RoundingDivideByPOT(IntegerTy"
 2132      67657254 
 2132      79706520 
 2132      67656D6D 
 2132      6C6F7770 
 2133 0033 70652C20 		.ascii	"pe, int) [with IntegerType = long int]\000"
 2133      696E7429 
 2133      205B7769 
 2133      74682049 
 2133      6E746567 
 2134              		.ident	"GCC: (GNU Tools for ARM Embedded Processors 6-2017-q2-update) 6.3.1 20170620 (release) [AR