   1              		.cpu cortex-a9
   2              		.eabi_attribute 28, 1
   3              		.eabi_attribute 20, 1
   4              		.eabi_attribute 21, 1
   5              		.eabi_attribute 23, 3
   6              		.eabi_attribute 24, 1
   7              		.eabi_attribute 25, 1
   8              		.eabi_attribute 26, 1
   9              		.eabi_attribute 30, 2
  10              		.eabi_attribute 34, 0
  11              		.eabi_attribute 18, 4
  12              		.file	"transpose_conv.cc"
  13              		.section	.text._ZN6tflite12_GLOBAL__N_14InitEP13TfLiteContextPKcj,"ax",%progbits
  14              		.align	2
  15              		.syntax unified
  16              		.arm
  17              		.fpu neon
  19              	_ZN6tflite12_GLOBAL__N_14InitEP13TfLiteContextPKcj:
  20              		.fnstart
  21              	.LFB4178:
  22              		@ args = 0, pretend = 0, frame = 0
  23              		@ frame_needed = 0, uses_anonymous_args = 0
  24 0000 383090E5 		ldr	r3, [r0, #56]
  25 0004 000053E3 		cmp	r3, #0
  26 0008 0100000A 		beq	.L7
  27 000c 4410A0E3 		mov	r1, #68
  28 0010 13FF2FE1 		bx	r3
  29              	.L7:
  30 0014 10402DE9 		push	{r4, lr}
  31              		.save {r4, lr}
  32 0018 FEFFFFEB 		bl	abort
  33              		.fnend
  35              		.global	__aeabi_idiv
  36              		.section	.text._ZN6tflite12_GLOBAL__N_17PrepareEP13TfLiteContextP10TfLiteNode,"ax",%progbits
  37              		.align	2
  38              		.syntax unified
  39              		.arm
  40              		.fpu neon
  42              	_ZN6tflite12_GLOBAL__N_17PrepareEP13TfLiteContextP10TfLiteNode:
  43              		.fnstart
  44              	.LFB4179:
  45              		@ args = 0, pretend = 0, frame = 64
  46              		@ frame_needed = 0, uses_anonymous_args = 0
  47 0000 F04F2DE9 		push	{r4, r5, r6, r7, r8, r9, r10, fp, lr}
  48              		.save {r4, r5, r6, r7, r8, r9, r10, fp, lr}
  49              		.pad #108
  50 0004 6CD04DE2 		sub	sp, sp, #108
  51 0008 106091E5 		ldr	r6, [r1, #16]
  52 000c 000056E3 		cmp	r6, #0
  53 0010 EF01000A 		beq	.L10
  54 0014 147091E5 		ldr	r7, [r1, #20]
  55 0018 0140A0E1 		mov	r4, r1
  56 001c 000057E3 		cmp	r7, #0
  57 0020 EB01000A 		beq	.L10
  58 0024 0020A0E3 		mov	r2, #0
  59 0028 0050A0E1 		mov	r5, r0
  60              	.LEHB0:
  61 002c FEFFFFEB 		bl	_ZN6tflite9GetOutputEP13TfLiteContextPK10TfLiteNodei
  62 0030 00B050E2 		subs	fp, r0, #0
  63 0034 2A00000A 		beq	.L34
  64 0038 0220A0E3 		mov	r2, #2
  65 003c 0410A0E1 		mov	r1, r4
  66 0040 0500A0E1 		mov	r0, r5
  67 0044 FEFFFFEB 		bl	_ZN6tflite8GetInputEPK13TfLiteContextPK10TfLiteNodei
  68 0048 008050E2 		subs	r8, r0, #0
  69 004c 2400000A 		beq	.L34
  70 0050 0120A0E3 		mov	r2, #1
  71 0054 0410A0E1 		mov	r1, r4
  72 0058 0500A0E1 		mov	r0, r5
  73 005c FEFFFFEB 		bl	_ZN6tflite8GetInputEPK13TfLiteContextPK10TfLiteNodei
  74 0060 00A050E2 		subs	r10, r0, #0
  75 0064 1E00000A 		beq	.L34
  76 0068 08209AE5 		ldr	r2, [r10, #8]
  77 006c 0500A0E1 		mov	r0, r5
  78 0070 081098E5 		ldr	r1, [r8, #8]
  79 0074 383095E5 		ldr	r3, [r5, #56]
  80 0078 0CC092E5 		ldr	ip, [r2, #12]
  81 007c 049092E5 		ldr	r9, [r2, #4]
  82 0080 082092E5 		ldr	r2, [r2, #8]
  83 0084 34C08DE5 		str	ip, [sp, #52]
  84 0088 38208DE5 		str	r2, [sp, #56]
  85 008c 0991A0E1 		lsl	r9, r9, #2
  86 0090 0C2091E5 		ldr	r2, [r1, #12]
  87 0094 2C208DE5 		str	r2, [sp, #44]
  88 0098 082091E5 		ldr	r2, [r1, #8]
  89 009c 0910A0E1 		mov	r1, r9
  90 00a0 30208DE5 		str	r2, [sp, #48]
  91 00a4 33FF2FE1 		blx	r3
  92 00a8 0910A0E1 		mov	r1, r9
  93 00ac 3C0086E5 		str	r0, [r6, #60]
  94 00b0 383095E5 		ldr	r3, [r5, #56]
  95 00b4 0500A0E1 		mov	r0, r5
  96 00b8 33FF2FE1 		blx	r3
  97 00bc 0090D8E5 		ldrb	r9, [r8]	@ zero_extendqisi2
  98 00c0 400086E5 		str	r0, [r6, #64]
  99 00c4 090059E3 		cmp	r9, #9
 100 00c8 03005913 		cmpne	r9, #3
 101 00cc 0700000A 		beq	.L132
 102              	.L14:
 103 00d0 003094E5 		ldr	r3, [r4]
 104 00d4 003093E5 		ldr	r3, [r3]
 105 00d8 033043E2 		sub	r3, r3, #3
 106 00dc 010053E3 		cmp	r3, #1
 107 00e0 9700009A 		bls	.L133
 108              	.L34:
 109 00e4 0100A0E3 		mov	r0, #1
 110              	.L69:
 111 00e8 6CD08DE2 		add	sp, sp, #108
 112              		@ sp needed
 113 00ec F08FBDE8 		pop	{r4, r5, r6, r7, r8, r9, r10, fp, pc}
 114              	.L132:
 115 00f0 403095E5 		ldr	r3, [r5, #64]
 116 00f4 000053E3 		cmp	r3, #0
 117 00f8 3C308DE5 		str	r3, [sp, #60]
 118 00fc B401000A 		beq	.L10
 119 0100 08909BE5 		ldr	r9, [fp, #8]
 120 0104 002099E5 		ldr	r2, [r9]
 121 0108 050052E3 		cmp	r2, #5
 122 010c 50208DE5 		str	r2, [sp, #80]
 123 0110 880000DA 		ble	.L15
 124 0114 2E0272E3 		cmn	r2, #-536870910
 125 0118 AF0100CA 		bgt	.L16
 126 011c 0221A0E1 		lsl	r2, r2, #2
 127 0120 0200A0E1 		mov	r0, r2
 128 0124 40208DE5 		str	r2, [sp, #64]
 129 0128 FEFFFFEB 		bl	_Znaj
 130              	.LEHE0:
 131 012c 40209DE5 		ldr	r2, [sp, #64]
 132 0130 54008DE5 		str	r0, [sp, #84]
 133              	.L17:
 134 0134 041089E2 		add	r1, r9, #4
 135 0138 FEFFFFEB 		bl	memcpy
 136 013c 50909DE5 		ldr	r9, [sp, #80]
 137 0140 050059E3 		cmp	r9, #5
 138 0144 220100DA 		ble	.L18
 139 0148 54209DE5 		ldr	r2, [sp, #84]
 140              	.L19:
 141 014c 5231A0E7 		sbfx	r3, r2, #2, #1
 142 0150 033003E2 		and	r3, r3, #3
 143 0154 090053E1 		cmp	r3, r9
 144 0158 0930A021 		movcs	r3, r9
 145 015c 080059E3 		cmp	r9, #8
 146 0160 0930A0D1 		movle	r3, r9
 147 0164 1F0100CA 		bgt	.L134
 148              	.L21:
 149 0168 010053E3 		cmp	r3, #1
 150 016c 001092E5 		ldr	r1, [r2]
 151 0170 1501000A 		beq	.L61
 152 0174 040092E5 		ldr	r0, [r2, #4]
 153 0178 020053E3 		cmp	r3, #2
 154 017c 900101E0 		mul	r1, r0, r1
 155 0180 1101000A 		beq	.L61
 156 0184 080092E5 		ldr	r0, [r2, #8]
 157 0188 030053E3 		cmp	r3, #3
 158 018c 900101E0 		mul	r1, r0, r1
 159 0190 0D01000A 		beq	.L61
 160 0194 0C0092E5 		ldr	r0, [r2, #12]
 161 0198 040053E3 		cmp	r3, #4
 162 019c 900101E0 		mul	r1, r0, r1
 163 01a0 0901000A 		beq	.L61
 164 01a4 100092E5 		ldr	r0, [r2, #16]
 165 01a8 050053E3 		cmp	r3, #5
 166 01ac 900101E0 		mul	r1, r0, r1
 167 01b0 0501000A 		beq	.L61
 168 01b4 140092E5 		ldr	r0, [r2, #20]
 169 01b8 060053E3 		cmp	r3, #6
 170 01bc 900101E0 		mul	r1, r0, r1
 171 01c0 0101000A 		beq	.L61
 172 01c4 180092E5 		ldr	r0, [r2, #24]
 173 01c8 070053E3 		cmp	r3, #7
 174 01cc 900101E0 		mul	r1, r0, r1
 175 01d0 FD00000A 		beq	.L61
 176 01d4 1CC092E5 		ldr	ip, [r2, #28]
 177 01d8 0800A0E3 		mov	r0, #8
 178 01dc 9C0101E0 		mul	r1, ip, r1
 179              	.L23:
 180 01e0 030059E1 		cmp	r9, r3
 181 01e4 2C00000A 		beq	.L24
 182              	.L22:
 183 01e8 03C049E0 		sub	ip, r9, r3
 184 01ec 01E049E2 		sub	lr, r9, #1
 185 01f0 44C08DE5 		str	ip, [sp, #68]
 186 01f4 04C04CE2 		sub	ip, ip, #4
 187 01f8 2CC1A0E1 		lsr	ip, ip, #2
 188 01fc 03E04EE0 		sub	lr, lr, r3
 189 0200 02005EE3 		cmp	lr, #2
 190 0204 01C08CE2 		add	ip, ip, #1
 191 0208 0CE1A0E1 		lsl	lr, ip, #2
 192 020c 40E08DE5 		str	lr, [sp, #64]
 193 0210 1400009A 		bls	.L25
 194 0214 033182E0 		add	r3, r2, r3, lsl #2
 195 0218 5120C0F2 		vmov.i32	q9, #1  @ v4si
 196 021c 00E0A0E3 		mov	lr, #0
 197              	.L27:
 198 0220 01E08EE2 		add	lr, lr, #1
 199 0224 DF0A63F4 		vld1.64	{d16-d17}, [r3:64]
 200 0228 0C005EE1 		cmp	lr, ip
 201 022c 103083E2 		add	r3, r3, #16
 202 0230 F02962F2 		vmul.i32	q9, q9, q8
 203 0234 F9FFFF3A 		bcc	.L27
 204 0238 40309DE5 		ldr	r3, [sp, #64]
 205 023c 44C09DE5 		ldr	ip, [sp, #68]
 206 0240 5000C0F2 		vmov.i32	q8, #0  @ v4si
 207 0244 030080E0 		add	r0, r0, r3
 208 0248 0C0053E1 		cmp	r3, ip
 209 024c E048F2F2 		vext.32	q10, q9, q8, #2
 210 0250 F22964F2 		vmul.i32	q9, q10, q9
 211 0254 E004F2F2 		vext.32	q8, q9, q8, #1
 212 0258 F20960F2 		vmul.i32	q8, q8, q9
 213 025c 903B10EE 		vmov.32	r3, d16[0]
 214 0260 930101E0 		mul	r1, r3, r1
 215 0264 0C00000A 		beq	.L24
 216              	.L25:
 217 0268 00C192E7 		ldr	ip, [r2, r0, lsl #2]
 218 026c 013080E2 		add	r3, r0, #1
 219 0270 030059E1 		cmp	r9, r3
 220 0274 0031A0E1 		lsl	r3, r0, #2
 221 0278 9C0101E0 		mul	r1, ip, r1
 222 027c 060000DA 		ble	.L24
 223 0280 032082E0 		add	r2, r2, r3
 224 0284 020080E2 		add	r0, r0, #2
 225 0288 043092E5 		ldr	r3, [r2, #4]
 226 028c 000059E1 		cmp	r9, r0
 227 0290 930101E0 		mul	r1, r3, r1
 228 0294 083092C5 		ldrgt	r3, [r2, #8]
 229 0298 930101C0 		mulgt	r1, r3, r1
 230              	.L24:
 231 029c 0111A0E1 		lsl	r1, r1, #2
 232              	.L20:
 233 02a0 3C309DE5 		ldr	r3, [sp, #60]
 234 02a4 382086E2 		add	r2, r6, #56
 235 02a8 0500A0E1 		mov	r0, r5
 236              	.LEHB1:
 237 02ac 33FF2FE1 		blx	r3
 238              	.LEHE1:
 239 02b0 000050E3 		cmp	r0, #0
 240 02b4 4701001A 		bne	.L135
 241 02b8 050059E3 		cmp	r9, #5
 242 02bc 030000DA 		ble	.L32
 243 02c0 54009DE5 		ldr	r0, [sp, #84]
 244 02c4 000050E3 		cmp	r0, #0
 245 02c8 0000000A 		beq	.L32
 246 02cc FEFFFFEB 		bl	_ZdaPv
 247              	.L32:
 248 02d0 0090D8E5 		ldrb	r9, [r8]	@ zero_extendqisi2
 249 02d4 090059E3 		cmp	r9, #9
 250 02d8 7CFFFF1A 		bne	.L14
 251 02dc 3030DAE5 		ldrb	r3, [r10, #48]	@ zero_extendqisi2
 252 02e0 010053E3 		cmp	r3, #1
 253 02e4 7EFFFF1A 		bne	.L34
 254 02e8 34309AE5 		ldr	r3, [r10, #52]
 255 02ec 000053E3 		cmp	r3, #0
 256 02f0 7BFFFF0A 		beq	.L34
 257 02f4 002093E5 		ldr	r2, [r3]
 258 02f8 000052E3 		cmp	r2, #0
 259 02fc 78FFFF0A 		beq	.L34
 260 0300 041093E5 		ldr	r1, [r3, #4]
 261 0304 000051E3 		cmp	r1, #0
 262 0308 75FFFF0A 		beq	.L34
 263 030c 003092E5 		ldr	r3, [r2]
 264 0310 010053E3 		cmp	r3, #1
 265 0314 0300000A 		beq	.L33
 266 0318 08209AE5 		ldr	r2, [r10, #8]
 267 031c 042092E5 		ldr	r2, [r2, #4]
 268 0320 020053E1 		cmp	r3, r2
 269 0324 6EFFFF1A 		bne	.L34
 270              	.L33:
 271 0328 002091E5 		ldr	r2, [r1]
 272 032c 020053E1 		cmp	r3, r2
 273 0330 6BFFFF1A 		bne	.L34
 274 0334 65FFFFEA 		b	.L14
 275              	.L15:
 276 0338 0221A0E1 		lsl	r2, r2, #2
 277 033c 54008DE2 		add	r0, sp, #84
 278 0340 7BFFFFEA 		b	.L17
 279              	.L133:
 280 0344 043094E5 		ldr	r3, [r4, #4]
 281 0348 003093E5 		ldr	r3, [r3]
 282 034c 010053E3 		cmp	r3, #1
 283 0350 63FFFF1A 		bne	.L34
 284 0354 34209DE5 		ldr	r2, [sp, #52]
 285 0358 103097E5 		ldr	r3, [r7, #16]
 286 035c 0000D7E5 		ldrb	r0, [r7]	@ zero_extendqisi2
 287 0360 011042E2 		sub	r1, r2, #1
 288 0364 042097E5 		ldr	r2, [r7, #4]
 289 0368 08C097E5 		ldr	ip, [r7, #8]
 290 036c 930101E0 		mul	r1, r3, r1
 291 0370 44008DE5 		str	r0, [sp, #68]
 292 0374 000052E3 		cmp	r2, #0
 293 0378 3C208DE5 		str	r2, [sp, #60]
 294 037c 34C08DE5 		str	ip, [sp, #52]
 295 0380 142097E5 		ldr	r2, [r7, #20]
 296 0384 011081E2 		add	r1, r1, #1
 297 0388 40108DE5 		str	r1, [sp, #64]
 298 038c A000000A 		beq	.L35
 299 0390 010050E3 		cmp	r0, #1
 300 0394 BF00000A 		beq	.L36
 301 0398 020050E3 		cmp	r0, #2
 302 039c 9C00001A 		bne	.L35
 303 03a0 48308DE5 		str	r3, [sp, #72]
 304 03a4 44208DE5 		str	r2, [sp, #68]
 305 03a8 3C309DE5 		ldr	r3, [sp, #60]
 306 03ac 2C209DE5 		ldr	r2, [sp, #44]
 307 03b0 0310A0E1 		mov	r1, r3
 308 03b4 030082E0 		add	r0, r2, r3
 309 03b8 40309DE5 		ldr	r3, [sp, #64]
 310 03bc 030040E0 		sub	r0, r0, r3
 311 03c0 FEFFFFEB 		bl	__aeabi_idiv
 312 03c4 38309DE5 		ldr	r3, [sp, #56]
 313 03c8 44209DE5 		ldr	r2, [sp, #68]
 314 03cc 011043E2 		sub	r1, r3, #1
 315 03d0 34309DE5 		ldr	r3, [sp, #52]
 316 03d4 920101E0 		mul	r1, r2, r1
 317 03d8 000053E3 		cmp	r3, #0
 318 03dc 013081E2 		add	r3, r1, #1
 319 03e0 011040E2 		sub	r1, r0, #1
 320 03e4 38308DE5 		str	r3, [sp, #56]
 321 03e8 48309DE5 		ldr	r3, [sp, #72]
 322 03ec DD00000A 		beq	.L136
 323              	.L129:
 324 03f0 4C308DE5 		str	r3, [sp, #76]
 325 03f4 48208DE5 		str	r2, [sp, #72]
 326 03f8 34309DE5 		ldr	r3, [sp, #52]
 327 03fc 30209DE5 		ldr	r2, [sp, #48]
 328 0400 38C09DE5 		ldr	ip, [sp, #56]
 329 0404 44108DE5 		str	r1, [sp, #68]
 330 0408 0310A0E1 		mov	r1, r3
 331 040c 030082E0 		add	r0, r2, r3
 332 0410 0C0040E0 		sub	r0, r0, ip
 333 0414 FEFFFFEB 		bl	__aeabi_idiv
 334 0418 34309DE5 		ldr	r3, [sp, #52]
 335 041c 010040E2 		sub	r0, r0, #1
 336 0420 38C09DE5 		ldr	ip, [sp, #56]
 337 0424 44109DE5 		ldr	r1, [sp, #68]
 338 0428 30209DE5 		ldr	r2, [sp, #48]
 339 042c 93C020E0 		mla	r0, r3, r0, ip
 340 0430 3C309DE5 		ldr	r3, [sp, #60]
 341 0434 40C09DE5 		ldr	ip, [sp, #64]
 342 0438 020040E0 		sub	r0, r0, r2
 343 043c 48209DE5 		ldr	r2, [sp, #72]
 344 0440 91C321E0 		mla	r1, r1, r3, ip
 345 0444 2C309DE5 		ldr	r3, [sp, #44]
 346 0448 C00FC0E1 		bic	r0, r0, r0, asr #31
 347 044c 031041E0 		sub	r1, r1, r3
 348 0450 4C309DE5 		ldr	r3, [sp, #76]
 349 0454 C11FC1E1 		bic	r1, r1, r1, asr #31
 350 0458 C000A0E1 		asr	r0, r0, #1
 351 045c C110A0E1 		asr	r1, r1, #1
 352              	.L41:
 353 0460 02C0A0E3 		mov	ip, #2
 354              	.L44:
 355 0464 010059E3 		cmp	r9, #1
 356 0468 00C0C6E5 		strb	ip, [r6]
 357 046c B210C6E1 		strh	r1, [r6, #2]	@ movhi
 358 0470 B400C6E1 		strh	r0, [r6, #4]	@ movhi
 359 0474 3500000A 		beq	.L46
 360 0478 0220A0E3 		mov	r2, #2
 361 047c 0410A0E1 		mov	r1, r4
 362 0480 0500A0E1 		mov	r0, r5
 363              	.LEHB2:
 364 0484 FEFFFFEB 		bl	_ZN6tflite8GetInputEPK13TfLiteContextPK10TfLiteNodei
 365 0488 003050E2 		subs	r3, r0, #0
 366 048c 2C308DE5 		str	r3, [sp, #44]
 367 0490 13FFFF0A 		beq	.L34
 368 0494 0120A0E3 		mov	r2, #1
 369 0498 0410A0E1 		mov	r1, r4
 370 049c 0500A0E1 		mov	r0, r5
 371 04a0 FEFFFFEB 		bl	_ZN6tflite8GetInputEPK13TfLiteContextPK10TfLiteNodei
 372 04a4 009050E2 		subs	r9, r0, #0
 373 04a8 0DFFFF0A 		beq	.L34
 374 04ac 0320A0E3 		mov	r2, #3
 375 04b0 0410A0E1 		mov	r1, r4
 376 04b4 0500A0E1 		mov	r0, r5
 377 04b8 FEFFFFEB 		bl	_ZN6tflite22GetOptionalInputTensorEPK13TfLiteContextPK10TfLiteNodei
 378 04bc 0410A0E1 		mov	r1, r4
 379 04c0 30008DE5 		str	r0, [sp, #48]
 380 04c4 0020A0E3 		mov	r2, #0
 381 04c8 0500A0E1 		mov	r0, r5
 382 04cc FEFFFFEB 		bl	_ZN6tflite9GetOutputEP13TfLiteContextPK10TfLiteNodei
 383 04d0 00E050E2 		subs	lr, r0, #0
 384 04d4 02FFFF0A 		beq	.L34
 385 04d8 08C099E5 		ldr	ip, [r9, #8]
 386 04dc 0920A0E1 		mov	r2, r9
 387 04e0 0500A0E1 		mov	r0, r5
 388 04e4 2C5086E2 		add	r5, r6, #44
 389 04e8 284086E2 		add	r4, r6, #40
 390 04ec 30309DE5 		ldr	r3, [sp, #48]
 391 04f0 04C09CE5 		ldr	ip, [ip, #4]
 392 04f4 2C109DE5 		ldr	r1, [sp, #44]
 393 04f8 20C08DE5 		str	ip, [sp, #32]
 394 04fc 24C086E2 		add	ip, r6, #36
 395 0500 409096E5 		ldr	r9, [r6, #64]
 396 0504 1C908DE5 		str	r9, [sp, #28]
 397 0508 3C9096E5 		ldr	r9, [r6, #60]
 398 050c 00E08DE5 		str	lr, [sp]
 399 0510 20E086E2 		add	lr, r6, #32
 400 0514 14508DE5 		str	r5, [sp, #20]
 401 0518 0C5087E2 		add	r5, r7, #12
 402 051c 18908DE5 		str	r9, [sp, #24]
 403 0520 10408DE5 		str	r4, [sp, #16]
 404 0524 0CC08DE5 		str	ip, [sp, #12]
 405 0528 20408DE9 		stmib	sp, {r5, lr}
 406 052c FEFFFFEB 		bl	_ZN6tflite37PopulateConvolutionQuantizationParamsEP13TfLiteContextPK12TfLiteTensorS4_S4_PS2_RK2
 407 0530 000050E3 		cmp	r0, #0
 408 0534 EBFEFF1A 		bne	.L69
 409 0538 043097E5 		ldr	r3, [r7, #4]
 410 053c 142097E5 		ldr	r2, [r7, #20]
 411 0540 3C308DE5 		str	r3, [sp, #60]
 412 0544 083097E5 		ldr	r3, [r7, #8]
 413 0548 34308DE5 		str	r3, [sp, #52]
 414 054c 103097E5 		ldr	r3, [r7, #16]
 415              	.L46:
 416 0550 10109AE5 		ldr	r1, [r10, #16]
 417 0554 0CC0D7E5 		ldrb	ip, [r7, #12]	@ zero_extendqisi2
 418 0558 100098E5 		ldr	r0, [r8, #16]
 419 055c 001061E2 		rsb	r1, r1, #0
 420 0560 10E09BE5 		ldr	lr, [fp, #16]
 421 0564 BC43DDE1 		ldrh	r4, [sp, #60]
 422 0568 01005CE3 		cmp	ip, #1
 423 056c 181086E5 		str	r1, [r6, #24]
 424 0570 000060E2 		rsb	r0, r0, #0
 425 0574 B413DDE1 		ldrh	r1, [sp, #52]
 426 0578 BA40C6E1 		strh	r4, [r6, #10]	@ movhi
 427 057c 140086E5 		str	r0, [r6, #20]
 428 0580 1CE086E5 		str	lr, [r6, #28]
 429 0584 BC10C6E1 		strh	r1, [r6, #12]	@ movhi
 430 0588 BE30C6E1 		strh	r3, [r6, #14]	@ movhi
 431 058c B021C6E1 		strh	r2, [r6, #16]	@ movhi
 432 0590 1900000A 		beq	.L137
 433 0594 03005CE3 		cmp	ip, #3
 434 0598 1A00000A 		beq	.L65
 435 059c 967ADFED 		vldr.32	s15, .L140
 436 05a0 02005CE3 		cmp	ip, #2
 437 05a4 957A9FED 		vldr.32	s14, .L140+4
 438 05a8 006AB7EE 		vmov.f32	s12, #1.0e+0
 439 05ac 006AFFEE 		vmov.f32	s13, #-1.0e+0
 440 05b0 467AF00E 		vmoveq.f32	s15, s12
 441 05b4 667AB00E 		vmoveq.f32	s14, s13
 442              	.L48:
 443 05b8 0000A0E3 		mov	r0, #0
 444 05bc 0C7A86ED 		vstr.32	s14, [r6, #48]
 445 05c0 0D7AC6ED 		vstr.32	s15, [r6, #52]
 446 05c4 6CD08DE2 		add	sp, sp, #108
 447              		@ sp needed
 448 05c8 F08FBDE8 		pop	{r4, r5, r6, r7, r8, r9, r10, fp, pc}
 449              	.L61:
 450 05cc 0300A0E1 		mov	r0, r3
 451 05d0 02FFFFEA 		b	.L23
 452              	.L18:
 453 05d4 000059E3 		cmp	r9, #0
 454 05d8 0410A0D3 		movle	r1, #4
 455 05dc 2FFFFFDA 		ble	.L20
 456 05e0 54208DE2 		add	r2, sp, #84
 457 05e4 D8FEFFEA 		b	.L19
 458              	.L134:
 459 05e8 000053E3 		cmp	r3, #0
 460 05ec 0110A003 		moveq	r1, #1
 461 05f0 0300A001 		moveq	r0, r3
 462 05f4 FBFEFF0A 		beq	.L22
 463 05f8 DAFEFFEA 		b	.L21
 464              	.L137:
 465 05fc 7E7ADFED 		vldr.32	s15, .L140
 466 0600 7F7A9FED 		vldr.32	s14, .L140+8
 467 0604 EBFFFFEA 		b	.L48
 468              	.L65:
 469 0608 087AF1EE 		vmov.f32	s15, #6.0e+0
 470 060c 7C7A9FED 		vldr.32	s14, .L140+8
 471 0610 E8FFFFEA 		b	.L48
 472              	.L35:
 473 0614 38109DE5 		ldr	r1, [sp, #56]
 474 0618 34009DE5 		ldr	r0, [sp, #52]
 475 061c 011041E2 		sub	r1, r1, #1
 476 0620 920101E0 		mul	r1, r2, r1
 477 0624 000050E3 		cmp	r0, #0
 478 0628 011081E2 		add	r1, r1, #1
 479 062c 38108DE5 		str	r1, [sp, #56]
 480 0630 0400000A 		beq	.L42
 481 0634 44109DE5 		ldr	r1, [sp, #68]
 482 0638 010051E3 		cmp	r1, #1
 483 063c 4700000A 		beq	.L62
 484 0640 020051E3 		cmp	r1, #2
 485 0644 4300000A 		beq	.L138
 486              	.L42:
 487 0648 38109DE5 		ldr	r1, [sp, #56]
 488 064c 3CC09DE5 		ldr	ip, [sp, #60]
 489 0650 000041E0 		sub	r0, r1, r0
 490 0654 40109DE5 		ldr	r1, [sp, #64]
 491 0658 0C1041E0 		sub	r1, r1, ip
 492 065c 30C09DE5 		ldr	ip, [sp, #48]
 493 0660 0C0040E0 		sub	r0, r0, ip
 494 0664 2CC09DE5 		ldr	ip, [sp, #44]
 495 0668 C00FC0E1 		bic	r0, r0, r0, asr #31
 496 066c 0C1041E0 		sub	r1, r1, ip
 497 0670 44C09DE5 		ldr	ip, [sp, #68]
 498 0674 C11FC1E1 		bic	r1, r1, r1, asr #31
 499 0678 C000A0E1 		asr	r0, r0, #1
 500 067c 01005CE3 		cmp	ip, #1
 501 0680 C110A0E1 		asr	r1, r1, #1
 502 0684 76FFFF0A 		beq	.L44
 503 0688 02005CE3 		cmp	ip, #2
 504 068c 00C0A013 		movne	ip, #0
 505 0690 73FFFF1A 		bne	.L44
 506 0694 71FFFFEA 		b	.L41
 507              	.L36:
 508 0698 4C308DE5 		str	r3, [sp, #76]
 509 069c 48208DE5 		str	r2, [sp, #72]
 510 06a0 3C309DE5 		ldr	r3, [sp, #60]
 511 06a4 2C209DE5 		ldr	r2, [sp, #44]
 512 06a8 0310A0E1 		mov	r1, r3
 513 06ac 030082E0 		add	r0, r2, r3
 514 06b0 010040E2 		sub	r0, r0, #1
 515 06b4 FEFFFFEB 		bl	__aeabi_idiv
 516 06b8 38309DE5 		ldr	r3, [sp, #56]
 517 06bc 48209DE5 		ldr	r2, [sp, #72]
 518 06c0 011043E2 		sub	r1, r3, #1
 519 06c4 34309DE5 		ldr	r3, [sp, #52]
 520 06c8 920101E0 		mul	r1, r2, r1
 521 06cc 000053E3 		cmp	r3, #0
 522 06d0 013081E2 		add	r3, r1, #1
 523 06d4 011040E2 		sub	r1, r0, #1
 524 06d8 38308DE5 		str	r3, [sp, #56]
 525 06dc 4C309DE5 		ldr	r3, [sp, #76]
 526 06e0 2D00000A 		beq	.L139
 527              	.L128:
 528 06e4 4C308DE5 		str	r3, [sp, #76]
 529 06e8 48208DE5 		str	r2, [sp, #72]
 530 06ec 34309DE5 		ldr	r3, [sp, #52]
 531 06f0 30209DE5 		ldr	r2, [sp, #48]
 532 06f4 44108DE5 		str	r1, [sp, #68]
 533 06f8 0310A0E1 		mov	r1, r3
 534 06fc 030082E0 		add	r0, r2, r3
 535 0700 010040E2 		sub	r0, r0, #1
 536 0704 FEFFFFEB 		bl	__aeabi_idiv
 537 0708 34309DE5 		ldr	r3, [sp, #52]
 538 070c 010040E2 		sub	r0, r0, #1
 539 0710 38109DE5 		ldr	r1, [sp, #56]
 540 0714 01C0A0E3 		mov	ip, #1
 541 0718 40E09DE5 		ldr	lr, [sp, #64]
 542 071c 30209DE5 		ldr	r2, [sp, #48]
 543 0720 931020E0 		mla	r0, r3, r0, r1
 544 0724 3C309DE5 		ldr	r3, [sp, #60]
 545 0728 44109DE5 		ldr	r1, [sp, #68]
 546 072c 020040E0 		sub	r0, r0, r2
 547 0730 48209DE5 		ldr	r2, [sp, #72]
 548 0734 91E321E0 		mla	r1, r1, r3, lr
 549 0738 2C309DE5 		ldr	r3, [sp, #44]
 550 073c C00FC0E1 		bic	r0, r0, r0, asr #31
 551 0740 031041E0 		sub	r1, r1, r3
 552 0744 500CA0E1 		asr	r0, r0, ip
 553 0748 C11FC1E1 		bic	r1, r1, r1, asr #31
 554 074c 4C309DE5 		ldr	r3, [sp, #76]
 555 0750 511CA0E1 		asr	r1, r1, ip
 556 0754 42FFFFEA 		b	.L44
 557              	.L138:
 558 0758 0010E0E3 		mvn	r1, #0
 559 075c 23FFFFEA 		b	.L129
 560              	.L62:
 561 0760 0010E0E3 		mvn	r1, #0
 562 0764 DEFFFFEA 		b	.L128
 563              	.L136:
 564 0768 30C09DE5 		ldr	ip, [sp, #48]
 565 076c 38009DE5 		ldr	r0, [sp, #56]
 566 0770 40E09DE5 		ldr	lr, [sp, #64]
 567 0774 0C0040E0 		sub	r0, r0, ip
 568 0778 3CC09DE5 		ldr	ip, [sp, #60]
 569 077c C00FC0E1 		bic	r0, r0, r0, asr #31
 570 0780 C000A0E1 		asr	r0, r0, #1
 571 0784 9CE121E0 		mla	r1, ip, r1, lr
 572 0788 2CC09DE5 		ldr	ip, [sp, #44]
 573 078c 0C1041E0 		sub	r1, r1, ip
 574 0790 C11FC1E1 		bic	r1, r1, r1, asr #31
 575 0794 C110A0E1 		asr	r1, r1, #1
 576 0798 30FFFFEA 		b	.L41
 577              	.L139:
 578 079c 30C09DE5 		ldr	ip, [sp, #48]
 579 07a0 38009DE5 		ldr	r0, [sp, #56]
 580 07a4 40E09DE5 		ldr	lr, [sp, #64]
 581 07a8 0C0040E0 		sub	r0, r0, ip
 582 07ac 3CC09DE5 		ldr	ip, [sp, #60]
 583 07b0 C00FC0E1 		bic	r0, r0, r0, asr #31
 584 07b4 C000A0E1 		asr	r0, r0, #1
 585 07b8 9CE121E0 		mla	r1, ip, r1, lr
 586 07bc 2CE09DE5 		ldr	lr, [sp, #44]
 587 07c0 44C09DE5 		ldr	ip, [sp, #68]
 588 07c4 0E1041E0 		sub	r1, r1, lr
 589 07c8 C11FC1E1 		bic	r1, r1, r1, asr #31
 590 07cc C110A0E1 		asr	r1, r1, #1
 591 07d0 23FFFFEA 		b	.L44
 592              	.L10:
 593 07d4 FEFFFFEB 		bl	abort
 594              	.LEHE2:
 595              	.L135:
 596              	.LEHB3:
 597 07d8 FEFFFFEB 		bl	abort
 598              	.LEHE3:
 599              	.L16:
 600              	.LEHB4:
 601 07dc FEFFFFEB 		bl	__cxa_throw_bad_array_new_length
 602              	.L68:
 603 07e0 050059E3 		cmp	r9, #5
 604 07e4 030000DA 		ble	.L50
 605 07e8 54009DE5 		ldr	r0, [sp, #84]
 606 07ec 000050E3 		cmp	r0, #0
 607 07f0 0000000A 		beq	.L50
 608 07f4 FEFFFFEB 		bl	_ZdaPv
 609              	.L50:
 610 07f8 FEFFFFEB 		bl	__cxa_end_cleanup
 611              	.LEHE4:
 612              	.L141:
 613              		.align	2
 614              	.L140:
 615 07fc FFFF7F7F 		.word	2139095039
 616 0800 FFFF7FFF 		.word	-8388609
 617 0804 00000000 		.word	0
 618              		.global	__gxx_personality_v0
 619              		.personality	__gxx_personality_v0
 620              		.handlerdata
 621              	.LLSDA4179:
 622 0008 FF       		.byte	0xff
 623 0009 FF       		.byte	0xff
 624 000a 01       		.byte	0x1
 625 000b 1C       		.uleb128 .LLSDACSE4179-.LLSDACSB4179
 626              	.LLSDACSB4179:
 627 000c 2C       		.uleb128 .LEHB0-.LFB4179
 628 000d 8002     		.uleb128 .LEHE0-.LEHB0
 629 000f 00       		.uleb128 0
 630 0010 00       		.uleb128 0
 631 0011 AC05     		.uleb128 .LEHB1-.LFB4179
 632 0013 04       		.uleb128 .LEHE1-.LEHB1
 633 0014 E00F     		.uleb128 .L68-.LFB4179
 634 0016 00       		.uleb128 0
 635 0017 8409     		.uleb128 .LEHB2-.LFB4179
 636 0019 D406     		.uleb128 .LEHE2-.LEHB2
 637 001b 00       		.uleb128 0
 638 001c 00       		.uleb128 0
 639 001d D80F     		.uleb128 .LEHB3-.LFB4179
 640 001f 04       		.uleb128 .LEHE3-.LEHB3
 641 0020 E00F     		.uleb128 .L68-.LFB4179
 642 0022 00       		.uleb128 0
 643 0023 DC0F     		.uleb128 .LEHB4-.LFB4179
 644 0025 20       		.uleb128 .LEHE4-.LEHB4
 645 0026 00       		.uleb128 0
 646 0027 00       		.uleb128 0
 647              	.LLSDACSE4179:
 648              		.section	.text._ZN6tflite12_GLOBAL__N_17PrepareEP13TfLiteContextP10TfLiteNode
 649              		.fnend
 651              		.section	.text._ZN6tflite13reference_ops13TransposeConvERKNS_10ConvParamsERKNS_12RuntimeShapeEPKfS
 652              		.align	2
 653              		.weak	_ZN6tflite13reference_ops13TransposeConvERKNS_10ConvParamsERKNS_12RuntimeShapeEPKfS6_S8_S6_S
 654              		.syntax unified
 655              		.arm
 656              		.fpu neon
 658              	_ZN6tflite13reference_ops13TransposeConvERKNS_10ConvParamsERKNS_12RuntimeShapeEPKfS6_S8_S6_S8_S6_Pf
 659              		.fnstart
 660              	.LFB4143:
 661              		@ args = 28, pretend = 0, frame = 176
 662              		@ frame_needed = 0, uses_anonymous_args = 0
 663 0000 F04F2DE9 		push	{r4, r5, r6, r7, r8, r9, r10, fp, lr}
 664              		.save {r4, r5, r6, r7, r8, r9, r10, fp, lr}
 665              		.pad #180
 666 0004 B4D04DE2 		sub	sp, sp, #180
 667 0008 08208DE5 		str	r2, [sp, #8]
 668 000c FA20D0E1 		ldrsh	r2, [r0, #10]
 669 0010 00C091E5 		ldr	ip, [r1]
 670 0014 F490D0E1 		ldrsh	r9, [r0, #4]
 671 0018 84208DE5 		str	r2, [sp, #132]
 672 001c FC20D0E1 		ldrsh	r2, [r0, #12]
 673 0020 04005CE3 		cmp	ip, #4
 674 0024 E4509DE5 		ldr	r5, [sp, #228]
 675 0028 88208DE5 		str	r2, [sp, #136]
 676 002c F220D0E1 		ldrsh	r2, [r0, #2]
 677 0030 04208DE5 		str	r2, [sp, #4]
 678 0034 DC209DE5 		ldr	r2, [sp, #220]
 679 0038 1F02001A 		bne	.L144
 680 003c 000093E5 		ldr	r0, [r3]
 681 0040 040050E3 		cmp	r0, #4
 682 0044 1C02001A 		bne	.L144
 683 0048 000095E5 		ldr	r0, [r5]
 684 004c 040050E3 		cmp	r0, #4
 685 0050 1902001A 		bne	.L144
 686 0054 040091E5 		ldr	r0, [r1, #4]
 687 0058 04A095E5 		ldr	r10, [r5, #4]
 688 005c 58008DE5 		str	r0, [sp, #88]
 689 0060 00005AE1 		cmp	r10, r0
 690 0064 1402001A 		bne	.L144
 691 0068 100091E5 		ldr	r0, [r1, #16]
 692 006c 10C093E5 		ldr	ip, [r3, #16]
 693 0070 68008DE5 		str	r0, [sp, #104]
 694 0074 00005CE1 		cmp	ip, r0
 695 0078 3CC08DE5 		str	ip, [sp, #60]
 696 007c 0E02001A 		bne	.L144
 697 0080 100095E5 		ldr	r0, [r5, #16]
 698 0084 04B093E5 		ldr	fp, [r3, #4]
 699 0088 40008DE5 		str	r0, [sp, #64]
 700 008c 0B0050E1 		cmp	r0, fp
 701 0090 0902001A 		bne	.L144
 702 0094 E0009DE5 		ldr	r0, [sp, #224]
 703 0098 0C8093E5 		ldr	r8, [r3, #12]
 704 009c 000050E3 		cmp	r0, #0
 705 00a0 080091E5 		ldr	r0, [r1, #8]
 706 00a4 0C1091E5 		ldr	r1, [r1, #12]
 707 00a8 20008DE5 		str	r0, [sp, #32]
 708 00ac 1C108DE5 		str	r1, [sp, #28]
 709 00b0 081093E5 		ldr	r1, [r3, #8]
 710 00b4 083095E5 		ldr	r3, [r5, #8]
 711 00b8 0C108DE5 		str	r1, [sp, #12]
 712 00bc 48308DE5 		str	r3, [sp, #72]
 713 00c0 0C3095E5 		ldr	r3, [r5, #12]
 714 00c4 00308DE5 		str	r3, [sp]
 715 00c8 5800000A 		beq	.L145
 716 00cc 004092E5 		ldr	r4, [r2]
 717 00d0 050054E3 		cmp	r4, #5
 718 00d4 F90100CA 		bgt	.L224
 719 00d8 000054E3 		cmp	r4, #0
 720 00dc 041082E2 		add	r1, r2, #4
 721 00e0 0120A0D3 		movle	r2, #1
 722 00e4 4F0000DA 		ble	.L148
 723              	.L147:
 724 00e8 5131A0E7 		sbfx	r3, r1, #2, #1
 725 00ec 033003E2 		and	r3, r3, #3
 726 00f0 040053E1 		cmp	r3, r4
 727 00f4 0430A021 		movcs	r3, r4
 728 00f8 080054E3 		cmp	r4, #8
 729 00fc 0430A0D1 		movle	r3, r4
 730 0100 F20100CA 		bgt	.L225
 731              	.L149:
 732 0104 010053E3 		cmp	r3, #1
 733 0108 002091E5 		ldr	r2, [r1]
 734 010c ED01000A 		beq	.L200
 735 0110 040091E5 		ldr	r0, [r1, #4]
 736 0114 020053E3 		cmp	r3, #2
 737 0118 900202E0 		mul	r2, r0, r2
 738 011c E901000A 		beq	.L200
 739 0120 080091E5 		ldr	r0, [r1, #8]
 740 0124 030053E3 		cmp	r3, #3
 741 0128 900202E0 		mul	r2, r0, r2
 742 012c E501000A 		beq	.L200
 743 0130 0C0091E5 		ldr	r0, [r1, #12]
 744 0134 040053E3 		cmp	r3, #4
 745 0138 900202E0 		mul	r2, r0, r2
 746 013c E101000A 		beq	.L200
 747 0140 100091E5 		ldr	r0, [r1, #16]
 748 0144 050053E3 		cmp	r3, #5
 749 0148 900202E0 		mul	r2, r0, r2
 750 014c DD01000A 		beq	.L200
 751 0150 140091E5 		ldr	r0, [r1, #20]
 752 0154 060053E3 		cmp	r3, #6
 753 0158 900202E0 		mul	r2, r0, r2
 754 015c D901000A 		beq	.L200
 755 0160 180091E5 		ldr	r0, [r1, #24]
 756 0164 070053E3 		cmp	r3, #7
 757 0168 900202E0 		mul	r2, r0, r2
 758 016c D501000A 		beq	.L200
 759 0170 1CC091E5 		ldr	ip, [r1, #28]
 760 0174 0800A0E3 		mov	r0, #8
 761 0178 9C0202E0 		mul	r2, ip, r2
 762              	.L151:
 763 017c 030054E1 		cmp	r4, r3
 764 0180 2800000A 		beq	.L148
 765              	.L150:
 766 0184 036044E0 		sub	r6, r4, r3
 767 0188 01E044E2 		sub	lr, r4, #1
 768 018c 04C046E2 		sub	ip, r6, #4
 769 0190 03E04EE0 		sub	lr, lr, r3
 770 0194 2CC1A0E1 		lsr	ip, ip, #2
 771 0198 02005EE3 		cmp	lr, #2
 772 019c 01C08CE2 		add	ip, ip, #1
 773 01a0 0C71A0E1 		lsl	r7, ip, #2
 774 01a4 1200009A 		bls	.L153
 775 01a8 033181E0 		add	r3, r1, r3, lsl #2
 776 01ac 5140C0F2 		vmov.i32	q10, #1  @ v4si
 777 01b0 00E0A0E3 		mov	lr, #0
 778              	.L155:
 779 01b4 01E08EE2 		add	lr, lr, #1
 780 01b8 DF0A63F4 		vld1.64	{d16-d17}, [r3:64]
 781 01bc 0E005CE1 		cmp	ip, lr
 782 01c0 103083E2 		add	r3, r3, #16
 783 01c4 F04964F2 		vmul.i32	q10, q10, q8
 784 01c8 F9FFFF8A 		bhi	.L155
 785 01cc 060057E1 		cmp	r7, r6
 786 01d0 070080E0 		add	r0, r0, r7
 787 01d4 5020C0F2 		vmov.i32	q9, #0  @ v4si
 788 01d8 E208F4F2 		vext.32	q8, q10, q9, #2
 789 01dc F40960F2 		vmul.i32	q8, q8, q10
 790 01e0 E224F0F2 		vext.32	q9, q8, q9, #1
 791 01e4 F20960F2 		vmul.i32	q8, q8, q9
 792 01e8 903B10EE 		vmov.32	r3, d16[0]
 793 01ec 930202E0 		mul	r2, r3, r2
 794 01f0 0C00000A 		beq	.L148
 795              	.L153:
 796 01f4 00C191E7 		ldr	ip, [r1, r0, lsl #2]
 797 01f8 013080E2 		add	r3, r0, #1
 798 01fc 040053E1 		cmp	r3, r4
 799 0200 0031A0E1 		lsl	r3, r0, #2
 800 0204 9C0202E0 		mul	r2, ip, r2
 801 0208 060000AA 		bge	.L148
 802 020c 031081E0 		add	r1, r1, r3
 803 0210 020080E2 		add	r0, r0, #2
 804 0214 043091E5 		ldr	r3, [r1, #4]
 805 0218 000054E1 		cmp	r4, r0
 806 021c 930202E0 		mul	r2, r3, r2
 807 0220 083091C5 		ldrgt	r3, [r1, #8]
 808 0224 930202C0 		mulgt	r2, r3, r2
 809              	.L148:
 810 0228 02005BE1 		cmp	fp, r2
 811 022c A201001A 		bne	.L144
 812              	.L145:
 813 0230 0B0095E9 		ldmib	r5, {r0, r1, r3}
 814 0234 102095E5 		ldr	r2, [r5, #16]
 815 0238 910001E0 		mul	r1, r1, r0
 816 023c 930103E0 		mul	r3, r3, r1
 817 0240 920302E0 		mul	r2, r2, r3
 818 0244 000052E3 		cmp	r2, #0
 819 0248 030000DA 		ble	.L163
 820 024c 0221A0E1 		lsl	r2, r2, #2
 821 0250 0010A0E3 		mov	r1, #0
 822 0254 E8009DE5 		ldr	r0, [sp, #232]
 823 0258 FEFFFFEB 		bl	memset
 824              	.L163:
 825 025c 58309DE5 		ldr	r3, [sp, #88]
 826 0260 000053E3 		cmp	r3, #0
 827 0264 920100DA 		ble	.L142
 828 0268 002069E2 		rsb	r2, r9, #0
 829 026c 1C509DE5 		ldr	r5, [sp, #28]
 830 0270 20109DE5 		ldr	r1, [sp, #32]
 831 0274 02E0A0E1 		mov	lr, r2
 832 0278 AC208DE5 		str	r2, [sp, #172]
 833 027c 0B91A0E1 		lsl	r9, fp, #2
 834 0280 08209DE5 		ldr	r2, [sp, #8]
 835 0284 0C309DE5 		ldr	r3, [sp, #12]
 836 0288 04C09DE5 		ldr	ip, [sp, #4]
 837 028c 78208DE5 		str	r2, [sp, #120]
 838 0290 950102E0 		mul	r2, r5, r1
 839 0294 3C109DE5 		ldr	r1, [sp, #60]
 840 0298 68409DE5 		ldr	r4, [sp, #104]
 841 029c 00606CE2 		rsb	r6, ip, #0
 842 02a0 48709DE5 		ldr	r7, [sp, #72]
 843 02a4 980303E0 		mul	r3, r8, r3
 844 02a8 00C09DE5 		ldr	ip, [sp]
 845 02ac 0101A0E1 		lsl	r0, r1, #2
 846 02b0 9C608DE5 		str	r6, [sp, #156]
 847 02b4 0060A0E3 		mov	r6, #0
 848 02b8 90008DE5 		str	r0, [sp, #144]
 849 02bc 0401A0E1 		lsl	r0, r4, #2
 850 02c0 940303E0 		mul	r3, r4, r3
 851 02c4 08008DE5 		str	r0, [sp, #8]
 852 02c8 9C0700E0 		mul	r0, ip, r7
 853 02cc 9B0C07E0 		mul	r7, fp, ip
 854 02d0 8C008DE5 		str	r0, [sp, #140]
 855 02d4 0201A0E1 		lsl	r0, r2, #2
 856 02d8 0C20A0E1 		mov	r2, ip
 857 02dc 80708DE5 		str	r7, [sp, #128]
 858 02e0 0371A0E1 		lsl	r7, r3, #2
 859 02e4 9E0202E0 		mul	r2, lr, r2
 860 02e8 8CE09DE5 		ldr	lr, [sp, #140]
 861 02ec 033087E0 		add	r3, r7, r3
 862 02f0 0331A0E1 		lsl	r3, r3, #2
 863 02f4 44308DE5 		str	r3, [sp, #68]
 864 02f8 940803E0 		mul	r3, r4, r8
 865 02fc 0EC1A0E1 		lsl	ip, lr, #2
 866 0300 01E0A0E1 		mov	lr, r1
 867 0304 910501E0 		mul	r1, r1, r5
 868 0308 80509DE5 		ldr	r5, [sp, #128]
 869 030c 04409DE5 		ldr	r4, [sp, #4]
 870 0310 0331A0E1 		lsl	r3, r3, #2
 871 0314 9E0000E0 		mul	r0, lr, r0
 872 0318 54308DE5 		str	r3, [sp, #84]
 873 031c 0551A0E1 		lsl	r5, r5, #2
 874 0320 88309DE5 		ldr	r3, [sp, #136]
 875 0324 042042E0 		sub	r2, r2, r4
 876 0328 0111A0E1 		lsl	r1, r1, #2
 877 032c 50508DE5 		str	r5, [sp, #80]
 878 0330 A4008DE5 		str	r0, [sp, #164]
 879 0334 98108DE5 		str	r1, [sp, #152]
 880 0338 9B0C01E0 		mul	r1, fp, ip
 881 033c 930503E0 		mul	r3, r3, r5
 882 0340 08509DE5 		ldr	r5, [sp, #8]
 883 0344 A8108DE5 		str	r1, [sp, #168]
 884 0348 A0308DE5 		str	r3, [sp, #160]
 885 034c 84309DE5 		ldr	r3, [sp, #132]
 886 0350 930903E0 		mul	r3, r3, r9
 887 0354 94308DE5 		str	r3, [sp, #148]
 888 0358 E8309DE5 		ldr	r3, [sp, #232]
 889 035c 993223E0 		mla	r3, r9, r2, r3
 890 0360 7C308DE5 		str	r3, [sp, #124]
 891 0364 0930A0E1 		mov	r3, r9
 892 0368 0A90A0E1 		mov	r9, r10
 893 036c 06A0A0E1 		mov	r10, r6
 894 0370 0760A0E1 		mov	r6, r7
 895 0374 0B70A0E1 		mov	r7, fp
 896 0378 03B0A0E1 		mov	fp, r3
 897              	.L166:
 898 037c 20309DE5 		ldr	r3, [sp, #32]
 899 0380 000053E3 		cmp	r3, #0
 900 0384 BD0000DA 		ble	.L168
 901 0388 AC309DE5 		ldr	r3, [sp, #172]
 902 038c 64308DE5 		str	r3, [sp, #100]
 903 0390 7C309DE5 		ldr	r3, [sp, #124]
 904 0394 74308DE5 		str	r3, [sp, #116]
 905 0398 78309DE5 		ldr	r3, [sp, #120]
 906 039c 70308DE5 		str	r3, [sp, #112]
 907 03a0 0030A0E3 		mov	r3, #0
 908 03a4 34308DE5 		str	r3, [sp, #52]
 909 03a8 0B30A0E1 		mov	r3, fp
 910 03ac 0AB0A0E1 		mov	fp, r10
 911 03b0 03A0A0E1 		mov	r10, r3
 912              	.L164:
 913 03b4 1C309DE5 		ldr	r3, [sp, #28]
 914 03b8 000053E3 		cmp	r3, #0
 915 03bc 9A0000DA 		ble	.L170
 916 03c0 9C309DE5 		ldr	r3, [sp, #156]
 917 03c4 4C308DE5 		str	r3, [sp, #76]
 918 03c8 74309DE5 		ldr	r3, [sp, #116]
 919 03cc 60308DE5 		str	r3, [sp, #96]
 920 03d0 70309DE5 		ldr	r3, [sp, #112]
 921 03d4 6C308DE5 		str	r3, [sp, #108]
 922 03d8 0030A0E3 		mov	r3, #0
 923 03dc 30308DE5 		str	r3, [sp, #48]
 924 03e0 0A30A0E1 		mov	r3, r10
 925 03e4 0BA0A0E1 		mov	r10, fp
 926 03e8 03B0A0E1 		mov	fp, r3
 927              	.L167:
 928 03ec 68309DE5 		ldr	r3, [sp, #104]
 929 03f0 000053E3 		cmp	r3, #0
 930 03f4 770000DA 		ble	.L172
 931 03f8 D8309DE5 		ldr	r3, [sp, #216]
 932 03fc 5C308DE5 		str	r3, [sp, #92]
 933 0400 6C309DE5 		ldr	r3, [sp, #108]
 934 0404 38308DE5 		str	r3, [sp, #56]
 935 0408 0030A0E3 		mov	r3, #0
 936 040c 2C308DE5 		str	r3, [sp, #44]
 937              	.L173:
 938 0410 0C309DE5 		ldr	r3, [sp, #12]
 939 0414 000053E3 		cmp	r3, #0
 940 0418 620000DA 		ble	.L175
 941 041c 64309DE5 		ldr	r3, [sp, #100]
 942 0420 18308DE5 		str	r3, [sp, #24]
 943 0424 5C309DE5 		ldr	r3, [sp, #92]
 944 0428 14308DE5 		str	r3, [sp, #20]
 945 042c 60309DE5 		ldr	r3, [sp, #96]
 946 0430 10308DE5 		str	r3, [sp, #16]
 947 0434 0030A0E3 		mov	r3, #0
 948 0438 08308DE5 		str	r3, [sp, #8]
 949              	.L171:
 950 043c 000058E3 		cmp	r8, #0
 951 0440 470000DA 		ble	.L177
 952 0444 18309DE5 		ldr	r3, [sp, #24]
 953 0448 00C0A0E3 		mov	ip, #0
 954 044c 48209DE5 		ldr	r2, [sp, #72]
 955 0450 14409DE5 		ldr	r4, [sp, #20]
 956 0454 10E09DE5 		ldr	lr, [sp, #16]
 957 0458 000053E3 		cmp	r3, #0
 958 045c 030052A1 		cmpge	r2, r3
 959 0460 4C109DE5 		ldr	r1, [sp, #76]
 960 0464 0130A0C3 		movgt	r3, #1
 961 0468 0030A0D3 		movle	r3, #0
 962 046c 04308DE5 		str	r3, [sp, #4]
 963 0470 050000EA 		b	.L178
 964              	.L179:
 965 0474 01C08CE2 		add	ip, ip, #1
 966 0478 011081E2 		add	r1, r1, #1
 967 047c 08005CE1 		cmp	ip, r8
 968 0480 0BE08EE0 		add	lr, lr, fp
 969 0484 054084E0 		add	r4, r4, r5
 970 0488 3500000A 		beq	.L177
 971              	.L178:
 972 048c 000057E3 		cmp	r7, #0
 973 0490 F7FFFFDA 		ble	.L179
 974 0494 00309DE5 		ldr	r3, [sp]
 975 0498 000051E3 		cmp	r1, #0
 976 049c 010053A1 		cmpge	r3, r1
 977 04a0 F3FFFFDA 		ble	.L179
 978 04a4 04309DE5 		ldr	r3, [sp, #4]
 979 04a8 000053E3 		cmp	r3, #0
 980 04ac F0FFFF0A 		beq	.L179
 981 04b0 0400A0E1 		mov	r0, r4
 982 04b4 0E20A0E1 		mov	r2, lr
 983 04b8 0030A0E3 		mov	r3, #0
 984 04bc 24108DE5 		str	r1, [sp, #36]
 985 04c0 28E08DE5 		str	lr, [sp, #40]
 986              	.L180:
 987 04c4 0A0059E1 		cmp	r9, r10
 988 04c8 FB0000DA 		ble	.L144
 989 04cc 34109DE5 		ldr	r1, [sp, #52]
 990 04d0 20E09DE5 		ldr	lr, [sp, #32]
 991 04d4 0E0051E1 		cmp	r1, lr
 992 04d8 F70000AA 		bge	.L144
 993 04dc 30109DE5 		ldr	r1, [sp, #48]
 994 04e0 1CE09DE5 		ldr	lr, [sp, #28]
 995 04e4 0E0051E1 		cmp	r1, lr
 996 04e8 F30000AA 		bge	.L144
 997 04ec 3C109DE5 		ldr	r1, [sp, #60]
 998 04f0 2CE09DE5 		ldr	lr, [sp, #44]
 999 04f4 0E0051E1 		cmp	r1, lr
 1000 04f8 EF0000DA 		ble	.L144
 1001 04fc 40109DE5 		ldr	r1, [sp, #64]
 1002 0500 030051E1 		cmp	r1, r3
 1003 0504 38109DE5 		ldr	r1, [sp, #56]
 1004 0508 006AD1ED 		vldr.32	s13, [r1]
 1005 050c EA0000DA 		ble	.L144
 1006 0510 08109DE5 		ldr	r1, [sp, #8]
 1007 0514 0CE09DE5 		ldr	lr, [sp, #12]
 1008 0518 0E0051E1 		cmp	r1, lr
 1009 051c E60000AA 		bge	.L144
 1010 0520 08005CE1 		cmp	ip, r8
 1011 0524 E40000AA 		bge	.L144
 1012 0528 44109DE5 		ldr	r1, [sp, #68]
 1013 052c 030057E1 		cmp	r7, r3
 1014 0530 007A90ED 		vldr.32	s14, [r0]
 1015 0534 00F0D1F7 		pld	[r1, r0]
 1016 0538 DF00000A 		beq	.L144
 1017 053c 007AD2ED 		vldr.32	s15, [r2]
 1018 0540 013083E2 		add	r3, r3, #1
 1019 0544 070053E1 		cmp	r3, r7
 1020 0548 060080E0 		add	r0, r0, r6
 1021 054c 877A46EE 		vmla.f32	s15, s13, s14
 1022 0550 017AE2EC 		vstmia.32	r2!, {s15}
 1023 0554 DAFFFF1A 		bne	.L180
 1024 0558 24109DE5 		ldr	r1, [sp, #36]
 1025 055c 28E09DE5 		ldr	lr, [sp, #40]
 1026 0560 C3FFFFEA 		b	.L179
 1027              	.L177:
 1028 0564 10209DE5 		ldr	r2, [sp, #16]
 1029 0568 50109DE5 		ldr	r1, [sp, #80]
 1030 056c 08309DE5 		ldr	r3, [sp, #8]
 1031 0570 012082E0 		add	r2, r2, r1
 1032 0574 10208DE5 		str	r2, [sp, #16]
 1033 0578 013083E2 		add	r3, r3, #1
 1034 057c 0C209DE5 		ldr	r2, [sp, #12]
 1035 0580 08308DE5 		str	r3, [sp, #8]
 1036 0584 020053E1 		cmp	r3, r2
 1037 0588 14309DE5 		ldr	r3, [sp, #20]
 1038 058c 54209DE5 		ldr	r2, [sp, #84]
 1039 0590 023083E0 		add	r3, r3, r2
 1040 0594 14308DE5 		str	r3, [sp, #20]
 1041 0598 18309DE5 		ldr	r3, [sp, #24]
 1042 059c 013083E2 		add	r3, r3, #1
 1043 05a0 18308DE5 		str	r3, [sp, #24]
 1044 05a4 A4FFFF1A 		bne	.L171
 1045              	.L175:
 1046 05a8 5C209DE5 		ldr	r2, [sp, #92]
 1047 05ac 2C309DE5 		ldr	r3, [sp, #44]
 1048 05b0 042082E2 		add	r2, r2, #4
 1049 05b4 5C208DE5 		str	r2, [sp, #92]
 1050 05b8 013083E2 		add	r3, r3, #1
 1051 05bc 68209DE5 		ldr	r2, [sp, #104]
 1052 05c0 2C308DE5 		str	r3, [sp, #44]
 1053 05c4 020053E1 		cmp	r3, r2
 1054 05c8 38309DE5 		ldr	r3, [sp, #56]
 1055 05cc 043083E2 		add	r3, r3, #4
 1056 05d0 38308DE5 		str	r3, [sp, #56]
 1057 05d4 8DFFFF1A 		bne	.L173
 1058              	.L172:
 1059 05d8 6C209DE5 		ldr	r2, [sp, #108]
 1060 05dc 90109DE5 		ldr	r1, [sp, #144]
 1061 05e0 30309DE5 		ldr	r3, [sp, #48]
 1062 05e4 012082E0 		add	r2, r2, r1
 1063 05e8 6C208DE5 		str	r2, [sp, #108]
 1064 05ec 013083E2 		add	r3, r3, #1
 1065 05f0 1C209DE5 		ldr	r2, [sp, #28]
 1066 05f4 30308DE5 		str	r3, [sp, #48]
 1067 05f8 020053E1 		cmp	r3, r2
 1068 05fc 60309DE5 		ldr	r3, [sp, #96]
 1069 0600 94209DE5 		ldr	r2, [sp, #148]
 1070 0604 023083E0 		add	r3, r3, r2
 1071 0608 84209DE5 		ldr	r2, [sp, #132]
 1072 060c 60308DE5 		str	r3, [sp, #96]
 1073 0610 4C309DE5 		ldr	r3, [sp, #76]
 1074 0614 023083E0 		add	r3, r3, r2
 1075 0618 4C308DE5 		str	r3, [sp, #76]
 1076 061c 72FFFF1A 		bne	.L167
 1077 0620 0B30A0E1 		mov	r3, fp
 1078 0624 0AB0A0E1 		mov	fp, r10
 1079 0628 03A0A0E1 		mov	r10, r3
 1080              	.L170:
 1081 062c 70209DE5 		ldr	r2, [sp, #112]
 1082 0630 98109DE5 		ldr	r1, [sp, #152]
 1083 0634 34309DE5 		ldr	r3, [sp, #52]
 1084 0638 012082E0 		add	r2, r2, r1
 1085 063c 70208DE5 		str	r2, [sp, #112]
 1086 0640 013083E2 		add	r3, r3, #1
 1087 0644 20209DE5 		ldr	r2, [sp, #32]
 1088 0648 34308DE5 		str	r3, [sp, #52]
 1089 064c 020053E1 		cmp	r3, r2
 1090 0650 74309DE5 		ldr	r3, [sp, #116]
 1091 0654 A0209DE5 		ldr	r2, [sp, #160]
 1092 0658 023083E0 		add	r3, r3, r2
 1093 065c 88209DE5 		ldr	r2, [sp, #136]
 1094 0660 74308DE5 		str	r3, [sp, #116]
 1095 0664 64309DE5 		ldr	r3, [sp, #100]
 1096 0668 023083E0 		add	r3, r3, r2
 1097 066c 64308DE5 		str	r3, [sp, #100]
 1098 0670 4FFFFF1A 		bne	.L164
 1099 0674 0A30A0E1 		mov	r3, r10
 1100 0678 0BA0A0E1 		mov	r10, fp
 1101 067c 03B0A0E1 		mov	fp, r3
 1102              	.L168:
 1103 0680 78309DE5 		ldr	r3, [sp, #120]
 1104 0684 01A08AE2 		add	r10, r10, #1
 1105 0688 A4209DE5 		ldr	r2, [sp, #164]
 1106 068c 023083E0 		add	r3, r3, r2
 1107 0690 A8209DE5 		ldr	r2, [sp, #168]
 1108 0694 78308DE5 		str	r3, [sp, #120]
 1109 0698 58309DE5 		ldr	r3, [sp, #88]
 1110 069c 03005AE1 		cmp	r10, r3
 1111 06a0 7C309DE5 		ldr	r3, [sp, #124]
 1112 06a4 023083E0 		add	r3, r3, r2
 1113 06a8 7C308DE5 		str	r3, [sp, #124]
 1114 06ac 32FFFF1A 		bne	.L166
 1115 06b0 E0309DE5 		ldr	r3, [sp, #224]
 1116 06b4 0B90A0E1 		mov	r9, fp
 1117 06b8 07B0A0E1 		mov	fp, r7
 1118 06bc 000053E3 		cmp	r3, #0
 1119 06c0 7B00000A 		beq	.L142
 1120 06c4 8C209DE5 		ldr	r2, [sp, #140]
 1121 06c8 090047E2 		sub	r0, r7, #9
 1122 06cc 80109DE5 		ldr	r1, [sp, #128]
 1123 06d0 0700C0E3 		bic	r0, r0, #7
 1124 06d4 080080E2 		add	r0, r0, #8
 1125 06d8 0231A0E1 		lsl	r3, r2, #2
 1126 06dc 97020AE0 		mul	r10, r7, r2
 1127 06e0 0020A0E3 		mov	r2, #0
 1128 06e4 0111A0E1 		lsl	r1, r1, #2
 1129 06e8 970303E0 		mul	r3, r7, r3
 1130 06ec 04208DE5 		str	r2, [sp, #4]
 1131 06f0 0280A0E1 		mov	r8, r2
 1132 06f4 0C108DE5 		str	r1, [sp, #12]
 1133 06f8 14A08DE5 		str	r10, [sp, #20]
 1134 06fc 00A09DE5 		ldr	r10, [sp]
 1135 0700 10308DE5 		str	r3, [sp, #16]
 1136 0704 E8309DE5 		ldr	r3, [sp, #232]
 1137 0708 443083E2 		add	r3, r3, #68
 1138 070c 08308DE5 		str	r3, [sp, #8]
 1139              	.L182:
 1140 0710 48309DE5 		ldr	r3, [sp, #72]
 1141 0714 000053E3 		cmp	r3, #0
 1142 0718 590000DA 		ble	.L184
 1143 071c C0009DE9 		ldmib	sp, {r6, r7}
 1144 0720 0050A0E3 		mov	r5, #0
 1145              	.L181:
 1146 0724 00005AE3 		cmp	r10, #0
 1147 0728 4D0000DA 		ble	.L186
 1148 072c 06E0A0E1 		mov	lr, r6
 1149 0730 18608DE5 		str	r6, [sp, #24]
 1150 0734 E0609DE5 		ldr	r6, [sp, #224]
 1151 0738 0740A0E1 		mov	r4, r7
 1152 073c 00C0A0E3 		mov	ip, #0
 1153              	.L183:
 1154 0740 00005BE3 		cmp	fp, #0
 1155 0744 400000DA 		ble	.L189
 1156 0748 58309DE5 		ldr	r3, [sp, #88]
 1157 074c 030058E1 		cmp	r8, r3
 1158 0750 590000AA 		bge	.L144
 1159 0754 48309DE5 		ldr	r3, [sp, #72]
 1160 0758 050053E1 		cmp	r3, r5
 1161 075c 560000DA 		ble	.L144
 1162 0760 0C005AE1 		cmp	r10, ip
 1163 0764 540000DA 		ble	.L144
 1164 0768 08005BE3 		cmp	fp, #8
 1165 076c 5C0000DA 		ble	.L206
 1166 0770 442086E2 		add	r2, r6, #68
 1167 0774 0430A0E1 		mov	r3, r4
 1168 0778 0010A0E3 		mov	r1, #0
 1169              	.L188:
 1170 077c 117A52ED 		vldr.32	s15, [r2, #-68]
 1171 0780 081081E2 		add	r1, r1, #8
 1172 0784 117A13ED 		vldr.32	s14, [r3, #-68]
 1173 0788 000051E1 		cmp	r1, r0
 1174 078c 00F0D2F5 		pld	[r2]
 1175 0790 202082E2 		add	r2, r2, #32
 1176 0794 104A13ED 		vldr.32	s8, [r3, #-64]
 1177 0798 0F4A53ED 		vldr.32	s9, [r3, #-60]
 1178 079c 277A77EE 		vadd.f32	s15, s14, s15
 1179 07a0 0E5A13ED 		vldr.32	s10, [r3, #-56]
 1180 07a4 0D5A53ED 		vldr.32	s11, [r3, #-52]
 1181 07a8 0C6A13ED 		vldr.32	s12, [r3, #-48]
 1182 07ac 117A43ED 		vstr.32	s15, [r3, #-68]
 1183 07b0 187A52ED 		vldr.32	s15, [r2, #-96]
 1184 07b4 0B6A53ED 		vldr.32	s13, [r3, #-44]
 1185 07b8 0A7A13ED 		vldr.32	s14, [r3, #-40]
 1186 07bc 00F0D3F5 		pld	[r3]
 1187 07c0 203083E2 		add	r3, r3, #32
 1188 07c4 277A74EE 		vadd.f32	s15, s8, s15
 1189 07c8 187A43ED 		vstr.32	s15, [r3, #-96]
 1190 07cc 177A52ED 		vldr.32	s15, [r2, #-92]
 1191 07d0 A77A74EE 		vadd.f32	s15, s9, s15
 1192 07d4 177A43ED 		vstr.32	s15, [r3, #-92]
 1193 07d8 167A52ED 		vldr.32	s15, [r2, #-88]
 1194 07dc 277A75EE 		vadd.f32	s15, s10, s15
 1195 07e0 167A43ED 		vstr.32	s15, [r3, #-88]
 1196 07e4 157A52ED 		vldr.32	s15, [r2, #-84]
 1197 07e8 A77A75EE 		vadd.f32	s15, s11, s15
 1198 07ec 157A43ED 		vstr.32	s15, [r3, #-84]
 1199 07f0 147A52ED 		vldr.32	s15, [r2, #-80]
 1200 07f4 277A76EE 		vadd.f32	s15, s12, s15
 1201 07f8 147A43ED 		vstr.32	s15, [r3, #-80]
 1202 07fc 137A52ED 		vldr.32	s15, [r2, #-76]
 1203 0800 A77A76EE 		vadd.f32	s15, s13, s15
 1204 0804 137A43ED 		vstr.32	s15, [r3, #-76]
 1205 0808 127A52ED 		vldr.32	s15, [r2, #-72]
 1206 080c 277A77EE 		vadd.f32	s15, s14, s15
 1207 0810 127A43ED 		vstr.32	s15, [r3, #-72]
 1208 0814 D8FFFF1A 		bne	.L188
 1209              	.L187:
 1210 0818 012186E0 		add	r2, r6, r1, lsl #2
 1211 081c 01308EE0 		add	r3, lr, r1
 1212 0820 00208DE5 		str	r2, [sp]
 1213 0824 E8209DE5 		ldr	r2, [sp, #232]
 1214 0828 033182E0 		add	r3, r2, r3, lsl #2
 1215 082c 00209DE5 		ldr	r2, [sp]
 1216              	.L190:
 1217 0830 017AF2EC 		vldmia.32	r2!, {s15}
 1218 0834 011081E2 		add	r1, r1, #1
 1219 0838 007A93ED 		vldr.32	s14, [r3]
 1220 083c 0B0051E1 		cmp	r1, fp
 1221 0840 277A77EE 		vadd.f32	s15, s14, s15
 1222 0844 017AE3EC 		vstmia.32	r3!, {s15}
 1223 0848 F8FFFFBA 		blt	.L190
 1224              	.L189:
 1225 084c 01C08CE2 		add	ip, ip, #1
 1226 0850 0BE08EE0 		add	lr, lr, fp
 1227 0854 0A005CE1 		cmp	ip, r10
 1228 0858 094084E0 		add	r4, r4, r9
 1229 085c B7FFFF1A 		bne	.L183
 1230 0860 18609DE5 		ldr	r6, [sp, #24]
 1231              	.L186:
 1232 0864 80309DE5 		ldr	r3, [sp, #128]
 1233 0868 015085E2 		add	r5, r5, #1
 1234 086c 036086E0 		add	r6, r6, r3
 1235 0870 48309DE5 		ldr	r3, [sp, #72]
 1236 0874 030055E1 		cmp	r5, r3
 1237 0878 0C309DE5 		ldr	r3, [sp, #12]
 1238 087c 037087E0 		add	r7, r7, r3
 1239 0880 A7FFFF1A 		bne	.L181
 1240              	.L184:
 1241 0884 04309DE5 		ldr	r3, [sp, #4]
 1242 0888 018088E2 		add	r8, r8, #1
 1243 088c 14209DE5 		ldr	r2, [sp, #20]
 1244 0890 023083E0 		add	r3, r3, r2
 1245 0894 10209DE5 		ldr	r2, [sp, #16]
 1246 0898 04308DE5 		str	r3, [sp, #4]
 1247 089c 58309DE5 		ldr	r3, [sp, #88]
 1248 08a0 030058E1 		cmp	r8, r3
 1249 08a4 08309DE5 		ldr	r3, [sp, #8]
 1250 08a8 023083E0 		add	r3, r3, r2
 1251 08ac 08308DE5 		str	r3, [sp, #8]
 1252 08b0 96FFFF1A 		bne	.L182
 1253              	.L142:
 1254 08b4 B4D08DE2 		add	sp, sp, #180
 1255              		@ sp needed
 1256 08b8 F08FBDE8 		pop	{r4, r5, r6, r7, r8, r9, r10, fp, pc}
 1257              	.L144:
 1258 08bc FEFFFFEB 		bl	abort
 1259              	.L224:
 1260 08c0 041092E5 		ldr	r1, [r2, #4]
 1261 08c4 07FEFFEA 		b	.L147
 1262              	.L200:
 1263 08c8 0300A0E1 		mov	r0, r3
 1264 08cc 2AFEFFEA 		b	.L151
 1265              	.L225:
 1266 08d0 000053E3 		cmp	r3, #0
 1267 08d4 0120A003 		moveq	r2, #1
 1268 08d8 0300A001 		moveq	r0, r3
 1269 08dc 28FEFF0A 		beq	.L150
 1270 08e0 07FEFFEA 		b	.L149
 1271              	.L206:
 1272 08e4 0010A0E3 		mov	r1, #0
 1273 08e8 CAFFFFEA 		b	.L187
 1274              		.fnend
 1276              		.section	.text._ZN6tflite21reference_integer_ops13TransposeConvERKNS_10ConvParamsEPKlS5_RKNS_12Run
 1277              		.align	2
 1278              		.weak	_ZN6tflite21reference_integer_ops13TransposeConvERKNS_10ConvParamsEPKlS5_RKNS_12RuntimeShape
 1279              		.syntax unified
 1280              		.arm
 1281              		.fpu neon
 1283              	_ZN6tflite21reference_integer_ops13TransposeConvERKNS_10ConvParamsEPKlS5_RKNS_12RuntimeShapeEPKaS8_
 1284              		.fnstart
 1285              	.LFB4148:
 1286              		@ args = 40, pretend = 0, frame = 112
 1287              		@ frame_needed = 0, uses_anonymous_args = 0
 1288 0000 F04F2DE9 		push	{r4, r5, r6, r7, r8, r9, r10, fp, lr}
 1289              		.save {r4, r5, r6, r7, r8, r9, r10, fp, lr}
 1290 0004 0370A0E1 		mov	r7, r3
 1291 0008 003093E5 		ldr	r3, [r3]
 1292              		.pad #116
 1293 000c 74D04DE2 		sub	sp, sp, #116
 1294 0010 6C208DE5 		str	r2, [sp, #108]
 1295 0014 040053E3 		cmp	r3, #4
 1296 0018 FA20D0E1 		ldrsh	r2, [r0, #10]
 1297 001c F230D0E1 		ldrsh	r3, [r0, #2]
 1298 0020 68108DE5 		str	r1, [sp, #104]
 1299 0024 58208DE5 		str	r2, [sp, #88]
 1300 0028 60308DE5 		str	r3, [sp, #96]
 1301 002c FC20D0E1 		ldrsh	r2, [r0, #12]
 1302 0030 F430D0E1 		ldrsh	r3, [r0, #4]
 1303 0034 9C609DE5 		ldr	r6, [sp, #156]
 1304 0038 5C208DE5 		str	r2, [sp, #92]
 1305 003c 64308DE5 		str	r3, [sp, #100]
 1306 0040 A4109DE5 		ldr	r1, [sp, #164]
 1307 0044 AC809DE5 		ldr	r8, [sp, #172]
 1308 0048 DE01001A 		bne	.L228
 1309 004c 003096E5 		ldr	r3, [r6]
 1310 0050 040053E3 		cmp	r3, #4
 1311 0054 DB01001A 		bne	.L228
 1312 0058 003098E5 		ldr	r3, [r8]
 1313 005c 040053E3 		cmp	r3, #4
 1314 0060 D801001A 		bne	.L228
 1315 0064 043098E5 		ldr	r3, [r8, #4]
 1316 0068 0320A0E1 		mov	r2, r3
 1317 006c 48308DE5 		str	r3, [sp, #72]
 1318 0070 043097E5 		ldr	r3, [r7, #4]
 1319 0074 030052E1 		cmp	r2, r3
 1320 0078 D201001A 		bne	.L228
 1321 007c 103096E5 		ldr	r3, [r6, #16]
 1322 0080 0320A0E1 		mov	r2, r3
 1323 0084 4C308DE5 		str	r3, [sp, #76]
 1324 0088 103097E5 		ldr	r3, [r7, #16]
 1325 008c 030052E1 		cmp	r2, r3
 1326 0090 CC01001A 		bne	.L228
 1327 0094 10A098E5 		ldr	r10, [r8, #16]
 1328 0098 043096E5 		ldr	r3, [r6, #4]
 1329 009c 03005AE1 		cmp	r10, r3
 1330 00a0 C801001A 		bne	.L228
 1331 00a4 A8309DE5 		ldr	r3, [sp, #168]
 1332 00a8 0050A0E1 		mov	r5, r0
 1333 00ac 000053E3 		cmp	r3, #0
 1334 00b0 5500000A 		beq	.L229
 1335 00b4 00C091E5 		ldr	ip, [r1]
 1336 00b8 05005CE3 		cmp	ip, #5
 1337 00bc C20100DA 		ble	.L230
 1338 00c0 041091E5 		ldr	r1, [r1, #4]
 1339              	.L231:
 1340 00c4 5131A0E7 		sbfx	r3, r1, #2, #1
 1341 00c8 033003E2 		and	r3, r3, #3
 1342 00cc 0C0053E1 		cmp	r3, ip
 1343 00d0 0C30A021 		movcs	r3, ip
 1344 00d4 08005CE3 		cmp	ip, #8
 1345 00d8 0C30A0D1 		movle	r3, ip
 1346 00dc C10100CA 		bgt	.L323
 1347              	.L233:
 1348 00e0 010053E3 		cmp	r3, #1
 1349 00e4 002091E5 		ldr	r2, [r1]
 1350 00e8 BC01000A 		beq	.L296
 1351 00ec 040091E5 		ldr	r0, [r1, #4]
 1352 00f0 020053E3 		cmp	r3, #2
 1353 00f4 900202E0 		mul	r2, r0, r2
 1354 00f8 B801000A 		beq	.L296
 1355 00fc 080091E5 		ldr	r0, [r1, #8]
 1356 0100 030053E3 		cmp	r3, #3
 1357 0104 900202E0 		mul	r2, r0, r2
 1358 0108 B401000A 		beq	.L296
 1359 010c 0C0091E5 		ldr	r0, [r1, #12]
 1360 0110 040053E3 		cmp	r3, #4
 1361 0114 900202E0 		mul	r2, r0, r2
 1362 0118 B001000A 		beq	.L296
 1363 011c 100091E5 		ldr	r0, [r1, #16]
 1364 0120 050053E3 		cmp	r3, #5
 1365 0124 900202E0 		mul	r2, r0, r2
 1366 0128 AC01000A 		beq	.L296
 1367 012c 140091E5 		ldr	r0, [r1, #20]
 1368 0130 060053E3 		cmp	r3, #6
 1369 0134 900202E0 		mul	r2, r0, r2
 1370 0138 A801000A 		beq	.L296
 1371 013c 180091E5 		ldr	r0, [r1, #24]
 1372 0140 070053E3 		cmp	r3, #7
 1373 0144 900202E0 		mul	r2, r0, r2
 1374 0148 A401000A 		beq	.L296
 1375 014c 1CE091E5 		ldr	lr, [r1, #28]
 1376 0150 0800A0E3 		mov	r0, #8
 1377 0154 9E0202E0 		mul	r2, lr, r2
 1378              	.L235:
 1379 0158 03005CE1 		cmp	ip, r3
 1380 015c 2800000A 		beq	.L232
 1381              	.L234:
 1382 0160 03B04CE0 		sub	fp, ip, r3
 1383 0164 01404CE2 		sub	r4, ip, #1
 1384 0168 04E04BE2 		sub	lr, fp, #4
 1385 016c 034044E0 		sub	r4, r4, r3
 1386 0170 2EE1A0E1 		lsr	lr, lr, #2
 1387 0174 020054E3 		cmp	r4, #2
 1388 0178 01E08EE2 		add	lr, lr, #1
 1389 017c 0E91A0E1 		lsl	r9, lr, #2
 1390 0180 1200009A 		bls	.L237
 1391 0184 033181E0 		add	r3, r1, r3, lsl #2
 1392 0188 5140C0F2 		vmov.i32	q10, #1  @ v4si
 1393 018c 0040A0E3 		mov	r4, #0
 1394              	.L239:
 1395 0190 014084E2 		add	r4, r4, #1
 1396 0194 DF0A63F4 		vld1.64	{d16-d17}, [r3:64]
 1397 0198 0E0054E1 		cmp	r4, lr
 1398 019c 103083E2 		add	r3, r3, #16
 1399 01a0 F04964F2 		vmul.i32	q10, q10, q8
 1400 01a4 F9FFFF3A 		bcc	.L239
 1401 01a8 0B0059E1 		cmp	r9, fp
 1402 01ac 090080E0 		add	r0, r0, r9
 1403 01b0 5000C0F2 		vmov.i32	q8, #0  @ v4si
 1404 01b4 E028F4F2 		vext.32	q9, q10, q8, #2
 1405 01b8 F42962F2 		vmul.i32	q9, q9, q10
 1406 01bc E004F2F2 		vext.32	q8, q9, q8, #1
 1407 01c0 F20960F2 		vmul.i32	q8, q8, q9
 1408 01c4 903B10EE 		vmov.32	r3, d16[0]
 1409 01c8 930202E0 		mul	r2, r3, r2
 1410 01cc 0C00000A 		beq	.L232
 1411              	.L237:
 1412 01d0 00E191E7 		ldr	lr, [r1, r0, lsl #2]
 1413 01d4 013080E2 		add	r3, r0, #1
 1414 01d8 03005CE1 		cmp	ip, r3
 1415 01dc 0031A0E1 		lsl	r3, r0, #2
 1416 01e0 9E0202E0 		mul	r2, lr, r2
 1417 01e4 060000DA 		ble	.L232
 1418 01e8 031081E0 		add	r1, r1, r3
 1419 01ec 020080E2 		add	r0, r0, #2
 1420 01f0 043091E5 		ldr	r3, [r1, #4]
 1421 01f4 00005CE1 		cmp	ip, r0
 1422 01f8 930202E0 		mul	r2, r3, r2
 1423 01fc 083091C5 		ldrgt	r3, [r1, #8]
 1424 0200 930202C0 		mulgt	r2, r3, r2
 1425              	.L232:
 1426 0204 02005AE1 		cmp	r10, r2
 1427 0208 6E01001A 		bne	.L228
 1428              	.L229:
 1429 020c 083098E5 		ldr	r3, [r8, #8]
 1430 0210 0010A0E3 		mov	r1, #0
 1431 0214 0C2098E5 		ldr	r2, [r8, #12]
 1432 0218 084097E5 		ldr	r4, [r7, #8]
 1433 021c 03C0A0E1 		mov	ip, r3
 1434 0220 3C308DE5 		str	r3, [sp, #60]
 1435 0224 043098E5 		ldr	r3, [r8, #4]
 1436 0228 02E0A0E1 		mov	lr, r2
 1437 022c 30208DE5 		str	r2, [sp, #48]
 1438 0230 102098E5 		ldr	r2, [r8, #16]
 1439 0234 BC009DE5 		ldr	r0, [sp, #188]
 1440 0238 9C0303E0 		mul	r3, ip, r3
 1441 023c 0CC097E5 		ldr	ip, [r7, #12]
 1442 0240 54408DE5 		str	r4, [sp, #84]
 1443 0244 50C08DE5 		str	ip, [sp, #80]
 1444 0248 08C096E5 		ldr	ip, [r6, #8]
 1445 024c 9E0303E0 		mul	r3, lr, r3
 1446 0250 40C08DE5 		str	ip, [sp, #64]
 1447 0254 0CC096E5 		ldr	ip, [r6, #12]
 1448 0258 920302E0 		mul	r2, r2, r3
 1449 025c 2CC08DE5 		str	ip, [sp, #44]
 1450 0260 14C095E5 		ldr	ip, [r5, #20]
 1451 0264 0221A0E1 		lsl	r2, r2, #2
 1452 0268 28C08DE5 		str	ip, [sp, #40]
 1453 026c 1CC095E5 		ldr	ip, [r5, #28]
 1454 0270 34C08DE5 		str	ip, [sp, #52]
 1455 0274 FEFFFFEB 		bl	memset
 1456 0278 48309DE5 		ldr	r3, [sp, #72]
 1457 027c 000053E3 		cmp	r3, #0
 1458 0280 4E0100DA 		ble	.L226
 1459 0284 0090A0E3 		mov	r9, #0
 1460 0288 09B0A0E1 		mov	fp, r9
 1461 028c 0790A0E1 		mov	r9, r7
 1462 0290 0870A0E1 		mov	r7, r8
 1463 0294 0680A0E1 		mov	r8, r6
 1464              	.L246:
 1465 0298 54309DE5 		ldr	r3, [sp, #84]
 1466 029c 000053E3 		cmp	r3, #0
 1467 02a0 BB0000DA 		ble	.L248
 1468 02a4 64309DE5 		ldr	r3, [sp, #100]
 1469 02a8 003063E2 		rsb	r3, r3, #0
 1470 02ac 44308DE5 		str	r3, [sp, #68]
 1471 02b0 0030A0E3 		mov	r3, #0
 1472 02b4 1C308DE5 		str	r3, [sp, #28]
 1473              	.L249:
 1474 02b8 50309DE5 		ldr	r3, [sp, #80]
 1475 02bc 000053E3 		cmp	r3, #0
 1476 02c0 A90000DA 		ble	.L251
 1477 02c4 60309DE5 		ldr	r3, [sp, #96]
 1478 02c8 003063E2 		rsb	r3, r3, #0
 1479 02cc 38308DE5 		str	r3, [sp, #56]
 1480 02d0 0030A0E3 		mov	r3, #0
 1481 02d4 18308DE5 		str	r3, [sp, #24]
 1482 02d8 0A30A0E1 		mov	r3, r10
 1483 02dc 0BA0A0E1 		mov	r10, fp
 1484 02e0 03B0A0E1 		mov	fp, r3
 1485              	.L252:
 1486 02e4 4C309DE5 		ldr	r3, [sp, #76]
 1487 02e8 000053E3 		cmp	r3, #0
 1488 02ec 0030A0C3 		movgt	r3, #0
 1489 02f0 14308DC5 		strgt	r3, [sp, #20]
 1490 02f4 8F0000DA 		ble	.L254
 1491              	.L255:
 1492 02f8 40309DE5 		ldr	r3, [sp, #64]
 1493 02fc 000053E3 		cmp	r3, #0
 1494 0300 860000DA 		ble	.L257
 1495 0304 44309DE5 		ldr	r3, [sp, #68]
 1496 0308 98209DE5 		ldr	r2, [sp, #152]
 1497 030c 0C308DE5 		str	r3, [sp, #12]
 1498 0310 0030A0E3 		mov	r3, #0
 1499 0314 10308DE5 		str	r3, [sp, #16]
 1500 0318 14309DE5 		ldr	r3, [sp, #20]
 1501 031c 032082E0 		add	r2, r2, r3
 1502 0320 20208DE5 		str	r2, [sp, #32]
 1503 0324 A0209DE5 		ldr	r2, [sp, #160]
 1504 0328 033082E0 		add	r3, r2, r3
 1505 032c 24308DE5 		str	r3, [sp, #36]
 1506              	.L258:
 1507 0330 2C309DE5 		ldr	r3, [sp, #44]
 1508 0334 000053E3 		cmp	r3, #0
 1509 0338 6F0000DA 		ble	.L260
 1510 033c 0C309DE5 		ldr	r3, [sp, #12]
 1511 0340 0050A0E3 		mov	r5, #0
 1512 0344 3C209DE5 		ldr	r2, [sp, #60]
 1513 0348 38409DE5 		ldr	r4, [sp, #56]
 1514 034c 0360E0E1 		mvn	r6, r3
 1515 0350 020053E1 		cmp	r3, r2
 1516 0354 A66FA0E1 		lsr	r6, r6, #31
 1517 0358 0060A0A3 		movge	r6, #0
 1518              	.L261:
 1519 035c 00005BE3 		cmp	fp, #0
 1520 0360 600000DA 		ble	.L263
 1521 0364 30309DE5 		ldr	r3, [sp, #48]
 1522 0368 04E0E0E1 		mvn	lr, r4
 1523 036c AEEFA0E1 		lsr	lr, lr, #31
 1524 0370 04508DE5 		str	r5, [sp, #4]
 1525 0374 08408DE5 		str	r4, [sp, #8]
 1526 0378 030054E1 		cmp	r4, r3
 1527 037c 0030A0E3 		mov	r3, #0
 1528 0380 00E0A0A3 		movge	lr, #0
 1529 0384 020000EA 		b	.L264
 1530              	.L262:
 1531 0388 013083E2 		add	r3, r3, #1
 1532 038c 0B0053E1 		cmp	r3, fp
 1533 0390 5200000A 		beq	.L324
 1534              	.L264:
 1535 0394 00005EE3 		cmp	lr, #0
 1536 0398 FAFFFF0A 		beq	.L262
 1537 039c 000056E3 		cmp	r6, #0
 1538 03a0 F8FFFF0A 		beq	.L262
 1539 03a4 002099E5 		ldr	r2, [r9]
 1540 03a8 040052E3 		cmp	r2, #4
 1541 03ac 0501001A 		bne	.L228
 1542 03b0 042099E5 		ldr	r2, [r9, #4]
 1543 03b4 02005AE1 		cmp	r10, r2
 1544 03b8 020100AA 		bge	.L228
 1545 03bc 082099E5 		ldr	r2, [r9, #8]
 1546 03c0 1CC09DE5 		ldr	ip, [sp, #28]
 1547 03c4 02005CE1 		cmp	ip, r2
 1548 03c8 FE0000AA 		bge	.L228
 1549 03cc 0C0099E5 		ldr	r0, [r9, #12]
 1550 03d0 18509DE5 		ldr	r5, [sp, #24]
 1551 03d4 000055E1 		cmp	r5, r0
 1552 03d8 FA0000AA 		bge	.L228
 1553 03dc 101099E5 		ldr	r1, [r9, #16]
 1554 03e0 14409DE5 		ldr	r4, [sp, #20]
 1555 03e4 010054E1 		cmp	r4, r1
 1556 03e8 F60000AA 		bge	.L228
 1557 03ec 92CA22E0 		mla	r2, r2, r10, ip
 1558 03f0 00C098E5 		ldr	ip, [r8]
 1559 03f4 04005CE3 		cmp	ip, #4
 1560 03f8 905222E0 		mla	r2, r0, r2, r5
 1561 03fc 910202E0 		mul	r2, r1, r2
 1562 0400 20109DE5 		ldr	r1, [sp, #32]
 1563 0404 D22091E1 		ldrsb	r2, [r1, r2]
 1564 0408 0250A0E1 		mov	r5, r2
 1565 040c ED00001A 		bne	.L228
 1566 0410 042098E5 		ldr	r2, [r8, #4]
 1567 0414 020053E1 		cmp	r3, r2
 1568 0418 EA0000AA 		bge	.L228
 1569 041c 082098E5 		ldr	r2, [r8, #8]
 1570 0420 10C09DE5 		ldr	ip, [sp, #16]
 1571 0424 02005CE1 		cmp	ip, r2
 1572 0428 E60000AA 		bge	.L228
 1573 042c 0C0098E5 		ldr	r0, [r8, #12]
 1574 0430 04109DE5 		ldr	r1, [sp, #4]
 1575 0434 000051E1 		cmp	r1, r0
 1576 0438 E20000AA 		bge	.L228
 1577 043c 101098E5 		ldr	r1, [r8, #16]
 1578 0440 010054E1 		cmp	r4, r1
 1579 0444 DF0000AA 		bge	.L228
 1580 0448 92C322E0 		mla	r2, r2, r3, ip
 1581 044c 00C097E5 		ldr	ip, [r7]
 1582 0450 04005CE3 		cmp	ip, #4
 1583 0454 04C09DE5 		ldr	ip, [sp, #4]
 1584 0458 90C222E0 		mla	r2, r0, r2, ip
 1585 045c 910202E0 		mul	r2, r1, r2
 1586 0460 24109DE5 		ldr	r1, [sp, #36]
 1587 0464 D21091E1 		ldrsb	r1, [r1, r2]
 1588 0468 D600001A 		bne	.L228
 1589 046c 042097E5 		ldr	r2, [r7, #4]
 1590 0470 02005AE1 		cmp	r10, r2
 1591 0474 D30000AA 		bge	.L228
 1592 0478 082097E5 		ldr	r2, [r7, #8]
 1593 047c 0C409DE5 		ldr	r4, [sp, #12]
 1594 0480 020054E1 		cmp	r4, r2
 1595 0484 CF0000AA 		bge	.L228
 1596 0488 0CC097E5 		ldr	ip, [r7, #12]
 1597 048c 08009DE5 		ldr	r0, [sp, #8]
 1598 0490 0C0050E1 		cmp	r0, ip
 1599 0494 CB0000AA 		bge	.L228
 1600 0498 100097E5 		ldr	r0, [r7, #16]
 1601 049c 000053E1 		cmp	r3, r0
 1602 04a0 C80000AA 		bge	.L228
 1603 04a4 924A22E0 		mla	r2, r2, r10, r4
 1604 04a8 0540A0E1 		mov	r4, r5
 1605 04ac 28509DE5 		ldr	r5, [sp, #40]
 1606 04b0 054084E0 		add	r4, r4, r5
 1607 04b4 08509DE5 		ldr	r5, [sp, #8]
 1608 04b8 9C5222E0 		mla	r2, ip, r2, r5
 1609 04bc 903220E0 		mla	r0, r0, r2, r3
 1610 04c0 BC209DE5 		ldr	r2, [sp, #188]
 1611 04c4 013083E2 		add	r3, r3, #1
 1612 04c8 0B0053E1 		cmp	r3, fp
 1613 04cc 002192E7 		ldr	r2, [r2, r0, lsl #2]
 1614 04d0 912421E0 		mla	r1, r1, r4, r2
 1615 04d4 BC209DE5 		ldr	r2, [sp, #188]
 1616 04d8 001182E7 		str	r1, [r2, r0, lsl #2]
 1617 04dc ACFFFF1A 		bne	.L264
 1618              	.L324:
 1619 04e0 04509DE5 		ldr	r5, [sp, #4]
 1620 04e4 08409DE5 		ldr	r4, [sp, #8]
 1621              	.L263:
 1622 04e8 2C309DE5 		ldr	r3, [sp, #44]
 1623 04ec 015085E2 		add	r5, r5, #1
 1624 04f0 014084E2 		add	r4, r4, #1
 1625 04f4 030055E1 		cmp	r5, r3
 1626 04f8 97FFFF1A 		bne	.L261
 1627              	.L260:
 1628 04fc 0C209DE5 		ldr	r2, [sp, #12]
 1629 0500 10309DE5 		ldr	r3, [sp, #16]
 1630 0504 012082E2 		add	r2, r2, #1
 1631 0508 0C208DE5 		str	r2, [sp, #12]
 1632 050c 013083E2 		add	r3, r3, #1
 1633 0510 40209DE5 		ldr	r2, [sp, #64]
 1634 0514 10308DE5 		str	r3, [sp, #16]
 1635 0518 020053E1 		cmp	r3, r2
 1636 051c 83FFFF1A 		bne	.L258
 1637              	.L257:
 1638 0520 14309DE5 		ldr	r3, [sp, #20]
 1639 0524 4C209DE5 		ldr	r2, [sp, #76]
 1640 0528 013083E2 		add	r3, r3, #1
 1641 052c 020053E1 		cmp	r3, r2
 1642 0530 14308DE5 		str	r3, [sp, #20]
 1643 0534 6FFFFF1A 		bne	.L255
 1644              	.L254:
 1645 0538 38209DE5 		ldr	r2, [sp, #56]
 1646 053c 58109DE5 		ldr	r1, [sp, #88]
 1647 0540 18309DE5 		ldr	r3, [sp, #24]
 1648 0544 012082E0 		add	r2, r2, r1
 1649 0548 38208DE5 		str	r2, [sp, #56]
 1650 054c 013083E2 		add	r3, r3, #1
 1651 0550 50209DE5 		ldr	r2, [sp, #80]
 1652 0554 18308DE5 		str	r3, [sp, #24]
 1653 0558 020053E1 		cmp	r3, r2
 1654 055c 60FFFF1A 		bne	.L252
 1655 0560 0B30A0E1 		mov	r3, fp
 1656 0564 0AB0A0E1 		mov	fp, r10
 1657 0568 03A0A0E1 		mov	r10, r3
 1658              	.L251:
 1659 056c 44209DE5 		ldr	r2, [sp, #68]
 1660 0570 5C109DE5 		ldr	r1, [sp, #92]
 1661 0574 1C309DE5 		ldr	r3, [sp, #28]
 1662 0578 012082E0 		add	r2, r2, r1
 1663 057c 44208DE5 		str	r2, [sp, #68]
 1664 0580 013083E2 		add	r3, r3, #1
 1665 0584 54209DE5 		ldr	r2, [sp, #84]
 1666 0588 1C308DE5 		str	r3, [sp, #28]
 1667 058c 020053E1 		cmp	r3, r2
 1668 0590 48FFFF1A 		bne	.L249
 1669              	.L248:
 1670 0594 48309DE5 		ldr	r3, [sp, #72]
 1671 0598 01B08BE2 		add	fp, fp, #1
 1672 059c 03005BE1 		cmp	fp, r3
 1673 05a0 3CFFFF1A 		bne	.L246
 1674 05a4 0B90A0E1 		mov	r9, fp
 1675 05a8 A80BDFED 		vldr.64	d16, .L328	@ int
 1676 05ac 14908DE5 		str	r9, [sp, #20]
 1677 05b0 0780A0E1 		mov	r8, r7
 1678 05b4 A8909DE5 		ldr	r9, [sp, #168]
 1679 05b8 7FB0E0E3 		mvn	fp, #127
 1680 05bc 0030A0E3 		mov	r3, #0
 1681 05c0 10A08DE5 		str	r10, [sp, #16]
 1682 05c4 04308DE5 		str	r3, [sp, #4]
 1683              	.L267:
 1684 05c8 3C309DE5 		ldr	r3, [sp, #60]
 1685 05cc 000053E3 		cmp	r3, #0
 1686 05d0 00A0A0C3 		movgt	r10, #0
 1687 05d4 730000DA 		ble	.L269
 1688              	.L270:
 1689 05d8 30309DE5 		ldr	r3, [sp, #48]
 1690 05dc 000053E3 		cmp	r3, #0
 1691 05e0 0070A0C3 		movgt	r7, #0
 1692 05e4 6B0000DA 		ble	.L272
 1693              	.L273:
 1694 05e8 10309DE5 		ldr	r3, [sp, #16]
 1695 05ec 000053E3 		cmp	r3, #0
 1696 05f0 640000DA 		ble	.L283
 1697 05f4 003098E5 		ldr	r3, [r8]
 1698 05f8 040053E3 		cmp	r3, #4
 1699 05fc 7100001A 		bne	.L228
 1700 0600 043098E5 		ldr	r3, [r8, #4]
 1701 0604 04209DE5 		ldr	r2, [sp, #4]
 1702 0608 030052E1 		cmp	r2, r3
 1703 060c 6D0000AA 		bge	.L228
 1704 0610 083098E5 		ldr	r3, [r8, #8]
 1705 0614 03005AE1 		cmp	r10, r3
 1706 0618 6A0000AA 		bge	.L228
 1707 061c 0C2098E5 		ldr	r2, [r8, #12]
 1708 0620 020057E1 		cmp	r7, r2
 1709 0624 670000AA 		bge	.L228
 1710 0628 101098E5 		ldr	r1, [r8, #16]
 1711 062c 000051E3 		cmp	r1, #0
 1712 0630 640000DA 		ble	.L228
 1713 0634 68009DE5 		ldr	r0, [sp, #104]
 1714 0638 0040A0E3 		mov	r4, #0
 1715 063c 0C708DE5 		str	r7, [sp, #12]
 1716 0640 045040E2 		sub	r5, r0, #4
 1717 0644 6C009DE5 		ldr	r0, [sp, #108]
 1718 0648 046040E2 		sub	r6, r0, #4
 1719 064c 08608DE5 		str	r6, [sp, #8]
 1720 0650 2C0000EA 		b	.L277
 1721              	.L318:
 1722 0654 010190E2 		adds	r0, r0, #1073741824
 1723 0658 A00FA0E1 		lsr	r0, r0, #31
 1724 065c 0010A1E2 		adc	r1, r1, #0
 1725 0660 810080E1 		orr	r0, r0, r1, lsl #1
 1726              	.L285:
 1727 0664 1F0053E3 		cmp	r3, #31
 1728 0668 6F0000CA 		bgt	.L325
 1729 066c 903B01EE 		vmov.32	d17[0], r3
 1730 0670 5033A0E1 		asr	r3, r0, r3
 1731 0674 014084E2 		add	r4, r4, #1
 1732 0678 A07431F3 		vshl.u64	d7, d16, d17
 1733 067c 101A17EE 		vmov	r1, s14	@ int
 1734 0680 011041E2 		sub	r1, r1, #1
 1735 0684 C1C0A0E1 		asr	ip, r1, #1
 1736 0688 001001E0 		and	r1, r1, r0
 1737 068c A00F8CE0 		add	r0, ip, r0, lsr #31
 1738 0690 000051E1 		cmp	r1, r0
 1739 0694 013083C2 		addgt	r3, r3, #1
 1740 0698 34109DE5 		ldr	r1, [sp, #52]
 1741 069c 013083E0 		add	r3, r3, r1
 1742 06a0 10109DE5 		ldr	r1, [sp, #16]
 1743 06a4 7F0053E3 		cmp	r3, #127
 1744 06a8 7F30A0A3 		movge	r3, #127
 1745 06ac 0B0053E1 		cmp	r3, fp
 1746 06b0 0B30A0B1 		movlt	r3, fp
 1747 06b4 010054E1 		cmp	r4, r1
 1748 06b8 B0109DE5 		ldr	r1, [sp, #176]
 1749 06bc 0230C1E7 		strb	r3, [r1, r2]
 1750 06c0 2F00000A 		beq	.L326
 1751 06c4 003098E5 		ldr	r3, [r8]
 1752 06c8 040053E3 		cmp	r3, #4
 1753 06cc 3D00001A 		bne	.L228
 1754 06d0 043098E5 		ldr	r3, [r8, #4]
 1755 06d4 04209DE5 		ldr	r2, [sp, #4]
 1756 06d8 030052E1 		cmp	r2, r3
 1757 06dc 390000AA 		bge	.L228
 1758 06e0 083098E5 		ldr	r3, [r8, #8]
 1759 06e4 03005AE1 		cmp	r10, r3
 1760 06e8 360000AA 		bge	.L228
 1761 06ec 0C2098E5 		ldr	r2, [r8, #12]
 1762 06f0 0C109DE5 		ldr	r1, [sp, #12]
 1763 06f4 020051E1 		cmp	r1, r2
 1764 06f8 320000AA 		bge	.L228
 1765 06fc 101098E5 		ldr	r1, [r8, #16]
 1766 0700 010054E1 		cmp	r4, r1
 1767 0704 2F0000AA 		bge	.L228
 1768              	.L277:
 1769 0708 04009DE5 		ldr	r0, [sp, #4]
 1770 070c 000059E3 		cmp	r9, #0
 1771 0710 04E0B5E5 		ldr	lr, [r5, #4]!
 1772 0714 93A023E0 		mla	r3, r3, r0, r10
 1773 0718 0C009DE5 		ldr	r0, [sp, #12]
 1774 071c 920322E0 		mla	r2, r2, r3, r0
 1775 0720 BC309DE5 		ldr	r3, [sp, #188]
 1776 0724 914222E0 		mla	r2, r1, r2, r4
 1777 0728 08109DE5 		ldr	r1, [sp, #8]
 1778 072c 02C193E7 		ldr	ip, [r3, r2, lsl #2]
 1779 0730 04319917 		ldrne	r3, [r9, r4, lsl #2]
 1780 0734 03C08C10 		addne	ip, ip, r3
 1781 0738 0430B1E5 		ldr	r3, [r1, #4]!
 1782 073c 08108DE5 		str	r1, [sp, #8]
 1783 0740 000053E3 		cmp	r3, #0
 1784 0744 C31FC3E1 		bic	r1, r3, r3, asr #31
 1785 0748 003063D2 		rsble	r3, r3, #0
 1786 074c 0030A0C3 		movgt	r3, #0
 1787 0750 1CC1A0E1 		lsl	ip, ip, r1
 1788 0754 9C0EC1E0 		smull	r0, r1, ip, lr
 1789 0758 0C005EE1 		cmp	lr, ip
 1790 075c 02015C03 		cmpeq	ip, #-2147483648
 1791 0760 01C0A003 		moveq	ip, #1
 1792 0764 00C0A013 		movne	ip, #0
 1793 0768 000050E3 		cmp	r0, #0
 1794 076c 00E0D1E2 		sbcs	lr, r1, #0
 1795 0770 210000BA 		blt	.L327
 1796 0774 00005CE3 		cmp	ip, #0
 1797 0778 B5FFFF0A 		beq	.L318
 1798              	.L299:
 1799 077c 0201E0E3 		mvn	r0, #-2147483648
 1800 0780 B7FFFFEA 		b	.L285
 1801              	.L326:
 1802 0784 0C709DE5 		ldr	r7, [sp, #12]
 1803              	.L283:
 1804 0788 30309DE5 		ldr	r3, [sp, #48]
 1805 078c 017087E2 		add	r7, r7, #1
 1806 0790 030057E1 		cmp	r7, r3
 1807 0794 93FFFF1A 		bne	.L273
 1808              	.L272:
 1809 0798 3C309DE5 		ldr	r3, [sp, #60]
 1810 079c 01A08AE2 		add	r10, r10, #1
 1811 07a0 03005AE1 		cmp	r10, r3
 1812 07a4 8BFFFF1A 		bne	.L270
 1813              	.L269:
 1814 07a8 04309DE5 		ldr	r3, [sp, #4]
 1815 07ac 14209DE5 		ldr	r2, [sp, #20]
 1816 07b0 013083E2 		add	r3, r3, #1
 1817 07b4 030052E1 		cmp	r2, r3
 1818 07b8 04308DE5 		str	r3, [sp, #4]
 1819 07bc 81FFFF1A 		bne	.L267
 1820              	.L226:
 1821 07c0 74D08DE2 		add	sp, sp, #116
 1822              		@ sp needed
 1823 07c4 F08FBDE8 		pop	{r4, r5, r6, r7, r8, r9, r10, fp, pc}
 1824              	.L228:
 1825 07c8 FEFFFFEB 		bl	abort
 1826              	.L230:
 1827 07cc 00005CE3 		cmp	ip, #0
 1828 07d0 041081E2 		add	r1, r1, #4
 1829 07d4 0120A0D3 		movle	r2, #1
 1830 07d8 39FEFFCA 		bgt	.L231
 1831 07dc 88FEFFEA 		b	.L232
 1832              	.L296:
 1833 07e0 0300A0E1 		mov	r0, r3
 1834 07e4 5BFEFFEA 		b	.L235
 1835              	.L323:
 1836 07e8 000053E3 		cmp	r3, #0
 1837 07ec 0120A003 		moveq	r2, #1
 1838 07f0 0300A001 		moveq	r0, r3
 1839 07f4 59FEFF0A 		beq	.L234
 1840 07f8 38FEFFEA 		b	.L233
 1841              	.L327:
 1842 07fc 00005CE3 		cmp	ip, #0
 1843 0800 DDFFFF1A 		bne	.L299
 1844 0804 076190E2 		adds	r6, r0, #-1073741823
 1845 0808 0070C1E2 		sbc	r7, r1, #0
 1846 080c 0010A0E3 		mov	r1, #0
 1847 0810 C70FA0E1 		asr	r0, r7, #31
 1848 0814 0201C0E3 		bic	r0, r0, #-2147483648
 1849 0818 006096E0 		adds	r6, r6, r0
 1850 081c A60FA0E1 		lsr	r0, r6, #31
 1851 0820 0170A7E0 		adc	r7, r7, r1
 1852 0824 870080E1 		orr	r0, r0, r7, lsl #1
 1853 0828 8DFFFFEA 		b	.L285
 1854              	.L325:
 1855 082c 003000E3 		movw	r3, #:lower16:.LC1
 1856 0830 002000E3 		movw	r2, #:lower16:.LANCHOR0
 1857 0834 000000E3 		movw	r0, #:lower16:.LC2
 1858 0838 003040E3 		movt	r3, #:upper16:.LC1
 1859 083c 002040E3 		movt	r2, #:upper16:.LANCHOR0
 1860 0840 000040E3 		movt	r0, #:upper16:.LC2
 1861 0844 671100E3 		movw	r1, #359
 1862 0848 FEFFFFEB 		bl	__assert_func
 1863              	.L329:
 1864 084c 00F020E3 		.align	3
 1865              	.L328:
 1866 0850 01000000 		.word	1
 1867 0854 00000000 		.word	0
 1868              		.fnend
 1870              		.section	.text._ZN6tflite12_GLOBAL__N_14EvalEP13TfLiteContextP10TfLiteNode,"ax",%progbits
 1871              		.align	2
 1872              		.syntax unified
 1873              		.arm
 1874              		.fpu neon
 1876              	_ZN6tflite12_GLOBAL__N_14EvalEP13TfLiteContextP10TfLiteNode:
 1877              		.fnstart
 1878              	.LFB4180:
 1879              		@ args = 0, pretend = 0, frame = 144
 1880              		@ frame_needed = 0, uses_anonymous_args = 0
 1881 0000 F04F2DE9 		push	{r4, r5, r6, r7, r8, r9, r10, fp, lr}
 1882              		.save {r4, r5, r6, r7, r8, r9, r10, fp, lr}
 1883 0004 007050E2 		subs	r7, r0, #0
 1884              		.pad #188
 1885 0008 BCD04DE2 		sub	sp, sp, #188
 1886 000c B800000A 		beq	.L332
 1887 0010 000051E3 		cmp	r1, #0
 1888 0014 0140A0E1 		mov	r4, r1
 1889 0018 B500000A 		beq	.L332
 1890 001c 002091E5 		ldr	r2, [r1]
 1891 0020 543097E5 		ldr	r3, [r7, #84]
 1892 0024 0C1092E5 		ldr	r1, [r2, #12]
 1893              	.LEHB5:
 1894 0028 33FF2FE1 		blx	r3
 1895 002c 002094E5 		ldr	r2, [r4]
 1896 0030 00A0A0E1 		mov	r10, r0
 1897 0034 543097E5 		ldr	r3, [r7, #84]
 1898 0038 0700A0E1 		mov	r0, r7
 1899 003c 081092E5 		ldr	r1, [r2, #8]
 1900 0040 33FF2FE1 		blx	r3
 1901 0044 003094E5 		ldr	r3, [r4]
 1902 0048 0060A0E1 		mov	r6, r0
 1903 004c 002093E5 		ldr	r2, [r3]
 1904 0050 040052E3 		cmp	r2, #4
 1905 0054 0080A013 		movne	r8, #0
 1906 0058 7300000A 		beq	.L494
 1907              	.L333:
 1908 005c 042094E5 		ldr	r2, [r4, #4]
 1909 0060 0700A0E1 		mov	r0, r7
 1910 0064 543097E5 		ldr	r3, [r7, #84]
 1911 0068 041092E5 		ldr	r1, [r2, #4]
 1912 006c 33FF2FE1 		blx	r3
 1913 0070 104094E5 		ldr	r4, [r4, #16]
 1914 0074 0050A0E1 		mov	r5, r0
 1915 0078 000054E3 		cmp	r4, #0
 1916 007c 9C00000A 		beq	.L332
 1917 0080 0820DAE5 		ldrb	r2, [r10, #8]	@ zero_extendqisi2
 1918 0084 0830D0E5 		ldrb	r3, [r0, #8]	@ zero_extendqisi2
 1919 0088 020053E1 		cmp	r3, r2
 1920 008c 0200000A 		beq	.L495
 1921              	.L449:
 1922 0090 0100A0E3 		mov	r0, #1
 1923              	.L450:
 1924 0094 BCD08DE2 		add	sp, sp, #188
 1925              		@ sp needed
 1926 0098 F08FBDE8 		pop	{r4, r5, r6, r7, r8, r9, r10, fp, pc}
 1927              	.L495:
 1928 009c 0820D6E5 		ldrb	r2, [r6, #8]	@ zero_extendqisi2
 1929 00a0 030052E1 		cmp	r2, r3
 1930 00a4 F9FFFF1A 		bne	.L449
 1931 00a8 010052E3 		cmp	r2, #1
 1932 00ac 6400000A 		beq	.L335
 1933 00b0 090052E3 		cmp	r2, #9
 1934 00b4 F5FFFF1A 		bne	.L449
 1935 00b8 443097E5 		ldr	r3, [r7, #68]
 1936 00bc 0700A0E1 		mov	r0, r7
 1937 00c0 381094E5 		ldr	r1, [r4, #56]
 1938 00c4 40708DE2 		add	r7, sp, #64
 1939 00c8 33FF2FE1 		blx	r3
 1940 00cc 3C3094E5 		ldr	r3, [r4, #60]
 1941 00d0 0A10A0E1 		mov	r1, r10
 1942 00d4 2C008DE5 		str	r0, [sp, #44]
 1943 00d8 0700A0E1 		mov	r0, r7
 1944 00dc 40B094E5 		ldr	fp, [r4, #64]
 1945 00e0 58908DE2 		add	r9, sp, #88
 1946 00e4 30308DE5 		str	r3, [sp, #48]
 1947 00e8 FEFFFFEB 		bl	_ZN6tflite5micro14GetTensorShapeEPK16TfLiteEvalTensor
 1948              	.LEHE5:
 1949 00ec 00309AE5 		ldr	r3, [r10]
 1950 00f0 0900A0E1 		mov	r0, r9
 1951 00f4 0610A0E1 		mov	r1, r6
 1952 00f8 34308DE5 		str	r3, [sp, #52]
 1953              	.LEHB6:
 1954 00fc FEFFFFEB 		bl	_ZN6tflite5micro14GetTensorShapeEPK16TfLiteEvalTensor
 1955              	.LEHE6:
 1956 0100 003096E5 		ldr	r3, [r6]
 1957 0104 70A08DE2 		add	r10, sp, #112
 1958 0108 0810A0E1 		mov	r1, r8
 1959 010c 0A00A0E1 		mov	r0, r10
 1960 0110 38308DE5 		str	r3, [sp, #56]
 1961              	.LEHB7:
 1962 0114 FEFFFFEB 		bl	_ZN6tflite5micro14GetTensorShapeEPK16TfLiteEvalTensor
 1963              	.LEHE7:
 1964 0118 000058E3 		cmp	r8, #0
 1965 011c A300000A 		beq	.L496
 1966 0120 003098E5 		ldr	r3, [r8]
 1967 0124 88608DE2 		add	r6, sp, #136
 1968 0128 0510A0E1 		mov	r1, r5
 1969 012c 0600A0E1 		mov	r0, r6
 1970 0130 3C308DE5 		str	r3, [sp, #60]
 1971              	.LEHB8:
 1972 0134 FEFFFFEB 		bl	_ZN6tflite5micro14GetTensorShapeEPK16TfLiteEvalTensor
 1973              	.LEHE8:
 1974 0138 A0808DE2 		add	r8, sp, #160
 1975 013c 0010A0E3 		mov	r1, #0
 1976 0140 0800A0E1 		mov	r0, r8
 1977 0144 005095E5 		ldr	r5, [r5]
 1978              	.LEHB9:
 1979 0148 FEFFFFEB 		bl	_ZN6tflite5micro14GetTensorShapeEPK16TfLiteEvalTensor
 1980              	.LEHE9:
 1981 014c 38E09DE5 		ldr	lr, [sp, #56]
 1982 0150 00C0A0E3 		mov	ip, #0
 1983 0154 2C209DE5 		ldr	r2, [sp, #44]
 1984 0158 0730A0E1 		mov	r3, r7
 1985 015c 3C009DE5 		ldr	r0, [sp, #60]
 1986 0160 00428DE9 		stmib	sp, {r9, lr}
 1987 0164 34E09DE5 		ldr	lr, [sp, #52]
 1988 0168 24208DE5 		str	r2, [sp, #36]
 1989 016c 0B20A0E1 		mov	r2, fp
 1990 0170 10008DE5 		str	r0, [sp, #16]
 1991 0174 0400A0E1 		mov	r0, r4
 1992 0178 1C808DE5 		str	r8, [sp, #28]
 1993 017c 18508DE5 		str	r5, [sp, #24]
 1994 0180 14608DE5 		str	r6, [sp, #20]
 1995 0184 30109DE5 		ldr	r1, [sp, #48]
 1996 0188 0CA08DE5 		str	r10, [sp, #12]
 1997 018c 00E08DE5 		str	lr, [sp]
 1998 0190 20C08DE5 		str	ip, [sp, #32]
 1999              	.LEHB10:
 2000 0194 FEFFFFEB 		bl	_ZN6tflite21reference_integer_ops13TransposeConvERKNS_10ConvParamsEPKlS5_RKNS_12RuntimeShapeEPK
 2001              	.LEHE10:
 2002              	.L491:
 2003 0198 A0309DE5 		ldr	r3, [sp, #160]
 2004 019c 050053E3 		cmp	r3, #5
 2005 01a0 030000DA 		ble	.L344
 2006 01a4 A4009DE5 		ldr	r0, [sp, #164]
 2007 01a8 000050E3 		cmp	r0, #0
 2008 01ac 0000000A 		beq	.L344
 2009 01b0 FEFFFFEB 		bl	_ZdaPv
 2010              	.L344:
 2011 01b4 88309DE5 		ldr	r3, [sp, #136]
 2012 01b8 050053E3 		cmp	r3, #5
 2013 01bc 030000DA 		ble	.L345
 2014 01c0 8C009DE5 		ldr	r0, [sp, #140]
 2015 01c4 000050E3 		cmp	r0, #0
 2016 01c8 0000000A 		beq	.L345
 2017 01cc FEFFFFEB 		bl	_ZdaPv
 2018              	.L345:
 2019 01d0 70309DE5 		ldr	r3, [sp, #112]
 2020 01d4 050053E3 		cmp	r3, #5
 2021 01d8 030000DA 		ble	.L346
 2022 01dc 74009DE5 		ldr	r0, [sp, #116]
 2023 01e0 000050E3 		cmp	r0, #0
 2024 01e4 0000000A 		beq	.L346
 2025 01e8 FEFFFFEB 		bl	_ZdaPv
 2026              	.L346:
 2027 01ec 58309DE5 		ldr	r3, [sp, #88]
 2028 01f0 050053E3 		cmp	r3, #5
 2029 01f4 030000DA 		ble	.L347
 2030 01f8 5C009DE5 		ldr	r0, [sp, #92]
 2031 01fc 000050E3 		cmp	r0, #0
 2032 0200 0000000A 		beq	.L347
 2033 0204 FEFFFFEB 		bl	_ZdaPv
 2034              	.L347:
 2035 0208 40309DE5 		ldr	r3, [sp, #64]
 2036 020c 050053E3 		cmp	r3, #5
 2037 0210 030000DA 		ble	.L348
 2038 0214 44009DE5 		ldr	r0, [sp, #68]
 2039 0218 000050E3 		cmp	r0, #0
 2040 021c 0000000A 		beq	.L348
 2041 0220 FEFFFFEB 		bl	_ZdaPv
 2042              	.L348:
 2043 0224 0000A0E3 		mov	r0, #0
 2044 0228 99FFFFEA 		b	.L450
 2045              	.L494:
 2046 022c 101093E5 		ldr	r1, [r3, #16]
 2047 0230 0700A0E1 		mov	r0, r7
 2048 0234 543097E5 		ldr	r3, [r7, #84]
 2049              	.LEHB11:
 2050 0238 33FF2FE1 		blx	r3
 2051 023c 0080A0E1 		mov	r8, r0
 2052 0240 85FFFFEA 		b	.L333
 2053              	.L335:
 2054 0244 40708DE2 		add	r7, sp, #64
 2055 0248 0A10A0E1 		mov	r1, r10
 2056 024c 0700A0E1 		mov	r0, r7
 2057 0250 58908DE2 		add	r9, sp, #88
 2058 0254 FEFFFFEB 		bl	_ZN6tflite5micro14GetTensorShapeEPK16TfLiteEvalTensor
 2059              	.LEHE11:
 2060 0258 0900A0E1 		mov	r0, r9
 2061 025c 0610A0E1 		mov	r1, r6
 2062 0260 00B09AE5 		ldr	fp, [r10]
 2063              	.LEHB12:
 2064 0264 FEFFFFEB 		bl	_ZN6tflite5micro14GetTensorShapeEPK16TfLiteEvalTensor
 2065              	.LEHE12:
 2066 0268 003096E5 		ldr	r3, [r6]
 2067 026c 70A08DE2 		add	r10, sp, #112
 2068 0270 0810A0E1 		mov	r1, r8
 2069 0274 0A00A0E1 		mov	r0, r10
 2070 0278 2C308DE5 		str	r3, [sp, #44]
 2071              	.LEHB13:
 2072 027c FEFFFFEB 		bl	_ZN6tflite5micro14GetTensorShapeEPK16TfLiteEvalTensor
 2073              	.LEHE13:
 2074 0280 000058E3 		cmp	r8, #0
 2075 0284 4100000A 		beq	.L497
 2076 0288 003098E5 		ldr	r3, [r8]
 2077 028c 88608DE2 		add	r6, sp, #136
 2078 0290 0510A0E1 		mov	r1, r5
 2079 0294 0600A0E1 		mov	r0, r6
 2080 0298 30308DE5 		str	r3, [sp, #48]
 2081              	.LEHB14:
 2082 029c FEFFFFEB 		bl	_ZN6tflite5micro14GetTensorShapeEPK16TfLiteEvalTensor
 2083              	.LEHE14:
 2084 02a0 A0808DE2 		add	r8, sp, #160
 2085 02a4 0010A0E3 		mov	r1, #0
 2086 02a8 0800A0E1 		mov	r0, r8
 2087 02ac 005095E5 		ldr	r5, [r5]
 2088              	.LEHB15:
 2089 02b0 FEFFFFEB 		bl	_ZN6tflite5micro14GetTensorShapeEPK16TfLiteEvalTensor
 2090              	.LEHE15:
 2091 02b4 30109DE5 		ldr	r1, [sp, #48]
 2092 02b8 00C0A0E3 		mov	ip, #0
 2093 02bc 2CE09DE5 		ldr	lr, [sp, #44]
 2094 02c0 0930A0E1 		mov	r3, r9
 2095 02c4 14808DE5 		str	r8, [sp, #20]
 2096 02c8 0B20A0E1 		mov	r2, fp
 2097 02cc 08108DE5 		str	r1, [sp, #8]
 2098 02d0 0400A0E1 		mov	r0, r4
 2099 02d4 10508DE5 		str	r5, [sp, #16]
 2100 02d8 0710A0E1 		mov	r1, r7
 2101 02dc 0C608DE5 		str	r6, [sp, #12]
 2102 02e0 04A08DE5 		str	r10, [sp, #4]
 2103 02e4 00E08DE5 		str	lr, [sp]
 2104 02e8 18C08DE5 		str	ip, [sp, #24]
 2105              	.LEHB16:
 2106 02ec FEFFFFEB 		bl	_ZN6tflite13reference_ops13TransposeConvERKNS_10ConvParamsERKNS_12RuntimeShapeEPKfS6_S8_S6_S8_S
 2107              	.LEHE16:
 2108 02f0 A8FFFFEA 		b	.L491
 2109              	.L332:
 2110              	.LEHB17:
 2111 02f4 FEFFFFEB 		bl	abort
 2112              	.L377:
 2113              	.L493:
 2114 02f8 A0309DE5 		ldr	r3, [sp, #160]
 2115 02fc 050053E3 		cmp	r3, #5
 2116 0300 030000DA 		ble	.L361
 2117 0304 A4009DE5 		ldr	r0, [sp, #164]
 2118 0308 000050E3 		cmp	r0, #0
 2119 030c 0000000A 		beq	.L361
 2120 0310 FEFFFFEB 		bl	_ZdaPv
 2121              	.L361:
 2122 0314 88309DE5 		ldr	r3, [sp, #136]
 2123 0318 050053E3 		cmp	r3, #5
 2124 031c 030000DA 		ble	.L363
 2125 0320 8C009DE5 		ldr	r0, [sp, #140]
 2126 0324 000050E3 		cmp	r0, #0
 2127 0328 0000000A 		beq	.L363
 2128 032c FEFFFFEB 		bl	_ZdaPv
 2129              	.L363:
 2130 0330 70309DE5 		ldr	r3, [sp, #112]
 2131 0334 050053E3 		cmp	r3, #5
 2132 0338 030000DA 		ble	.L365
 2133 033c 74009DE5 		ldr	r0, [sp, #116]
 2134 0340 000050E3 		cmp	r0, #0
 2135 0344 0000000A 		beq	.L365
 2136 0348 FEFFFFEB 		bl	_ZdaPv
 2137              	.L365:
 2138 034c 58309DE5 		ldr	r3, [sp, #88]
 2139 0350 050053E3 		cmp	r3, #5
 2140 0354 030000DA 		ble	.L367
 2141 0358 5C009DE5 		ldr	r0, [sp, #92]
 2142 035c 000050E3 		cmp	r0, #0
 2143 0360 0000000A 		beq	.L367
 2144 0364 FEFFFFEB 		bl	_ZdaPv
 2145              	.L367:
 2146 0368 40309DE5 		ldr	r3, [sp, #64]
 2147 036c 050053E3 		cmp	r3, #5
 2148 0370 030000DA 		ble	.L368
 2149 0374 44009DE5 		ldr	r0, [sp, #68]
 2150 0378 000050E3 		cmp	r0, #0
 2151 037c 0000000A 		beq	.L368
 2152 0380 FEFFFFEB 		bl	_ZdaPv
 2153              	.L368:
 2154 0384 FEFFFFEB 		bl	__cxa_end_cleanup
 2155              	.LEHE17:
 2156              	.L376:
 2157 0388 E1FFFFEA 		b	.L361
 2158              	.L375:
 2159 038c E7FFFFEA 		b	.L363
 2160              	.L497:
 2161              	.LEHB18:
 2162 0390 FEFFFFEB 		bl	abort
 2163              	.LEHE18:
 2164              	.L374:
 2165 0394 ECFFFFEA 		b	.L365
 2166              	.L373:
 2167 0398 F2FFFFEA 		b	.L367
 2168              	.L379:
 2169 039c EAFFFFEA 		b	.L365
 2170              	.L378:
 2171 03a0 F0FFFFEA 		b	.L367
 2172              	.L382:
 2173 03a4 D3FFFFEA 		b	.L493
 2174              	.L381:
 2175 03a8 D9FFFFEA 		b	.L361
 2176              	.L380:
 2177 03ac DFFFFFEA 		b	.L363
 2178              	.L496:
 2179              	.LEHB19:
 2180 03b0 FEFFFFEB 		bl	abort
 2181              	.LEHE19:
 2182              		.personality	__gxx_personality_v0
 2183              		.handlerdata
 2184              	.LLSDA4180:
 2185 0008 FF       		.byte	0xff
 2186 0009 FF       		.byte	0xff
 2187 000a 01       		.byte	0x1
 2188 000b 58       		.uleb128 .LLSDACSE4180-.LLSDACSB4180
 2189              	.LLSDACSB4180:
 2190 000c 28       		.uleb128 .LEHB5-.LFB4180
 2191 000d C401     		.uleb128 .LEHE5-.LEHB5
 2192 000f 00       		.uleb128 0
 2193 0010 00       		.uleb128 0
 2194 0011 FC01     		.uleb128 .LEHB6-.LFB4180
 2195 0013 04       		.uleb128 .LEHE6-.LEHB6
 2196 0014 A007     		.uleb128 .L378-.LFB4180
 2197 0016 00       		.uleb128 0
 2198 0017 9402     		.uleb128 .LEHB7-.LFB4180
 2199 0019 04       		.uleb128 .LEHE7-.LEHB7
 2200 001a 9C07     		.uleb128 .L379-.LFB4180
 2201 001c 00       		.uleb128 0
 2202 001d B402     		.uleb128 .LEHB8-.LFB4180
 2203 001f 04       		.uleb128 .LEHE8-.LEHB8
 2204 0020 AC07     		.uleb128 .L380-.LFB4180
 2205 0022 00       		.uleb128 0
 2206 0023 C802     		.uleb128 .LEHB9-.LFB4180
 2207 0025 04       		.uleb128 .LEHE9-.LEHB9
 2208 0026 A807     		.uleb128 .L381-.LFB4180
 2209 0028 00       		.uleb128 0
 2210 0029 9403     		.uleb128 .LEHB10-.LFB4180
 2211 002b 04       		.uleb128 .LEHE10-.LEHB10
 2212 002c A407     		.uleb128 .L382-.LFB4180
 2213 002e 00       		.uleb128 0
 2214 002f B804     		.uleb128 .LEHB11-.LFB4180
 2215 0031 20       		.uleb128 .LEHE11-.LEHB11
 2216 0032 00       		.uleb128 0
 2217 0033 00       		.uleb128 0
 2218 0034 E404     		.uleb128 .LEHB12-.LFB4180
 2219 0036 04       		.uleb128 .LEHE12-.LEHB12
 2220 0037 9807     		.uleb128 .L373-.LFB4180
 2221 0039 00       		.uleb128 0
 2222 003a FC04     		.uleb128 .LEHB13-.LFB4180
 2223 003c 04       		.uleb128 .LEHE13-.LEHB13
 2224 003d 9407     		.uleb128 .L374-.LFB4180
 2225 003f 00       		.uleb128 0
 2226 0040 9C05     		.uleb128 .LEHB14-.LFB4180
 2227 0042 04       		.uleb128 .LEHE14-.LEHB14
 2228 0043 8C07     		.uleb128 .L375-.LFB4180
 2229 0045 00       		.uleb128 0
 2230 0046 B005     		.uleb128 .LEHB15-.LFB4180
 2231 0048 04       		.uleb128 .LEHE15-.LEHB15
 2232 0049 8807     		.uleb128 .L376-.LFB4180
 2233 004b 00       		.uleb128 0
 2234 004c EC05     		.uleb128 .LEHB16-.LFB4180
 2235 004e 04       		.uleb128 .LEHE16-.LEHB16
 2236 004f F805     		.uleb128 .L377-.LFB4180
 2237 0051 00       		.uleb128 0
 2238 0052 F405     		.uleb128 .LEHB17-.LFB4180
 2239 0054 9401     		.uleb128 .LEHE17-.LEHB17
 2240 0056 00       		.uleb128 0
 2241 0057 00       		.uleb128 0
 2242 0058 9007     		.uleb128 .LEHB18-.LFB4180
 2243 005a 04       		.uleb128 .LEHE18-.LEHB18
 2244 005b 8C07     		.uleb128 .L375-.LFB4180
 2245 005d 00       		.uleb128 0
 2246 005e B007     		.uleb128 .LEHB19-.LFB4180
 2247 0060 04       		.uleb128 .LEHE19-.LEHB19
 2248 0061 AC07     		.uleb128 .L380-.LFB4180
 2249 0063 00       		.uleb128 0
 2250              	.LLSDACSE4180:
 2251              		.section	.text._ZN6tflite12_GLOBAL__N_14EvalEP13TfLiteContextP10TfLiteNode
 2252              		.fnend
 2254              		.section	.text._ZN6tflite23Register_TRANSPOSE_CONVEv,"ax",%progbits
 2255              		.align	2
 2256              		.global	_ZN6tflite23Register_TRANSPOSE_CONVEv
 2257              		.syntax unified
 2258              		.arm
 2259              		.fpu neon
 2261              	_ZN6tflite23Register_TRANSPOSE_CONVEv:
 2262              		.fnstart
 2263              	.LFB4181:
 2264              		@ args = 0, pretend = 0, frame = 0
 2265              		@ frame_needed = 0, uses_anonymous_args = 0
 2266 0000 00C000E3 		movw	ip, #:lower16:.LANCHOR1
 2267 0004 10402DE9 		push	{r4, lr}
 2268 0008 00C040E3 		movt	ip, #:upper16:.LANCHOR1
 2269 000c 0040A0E1 		mov	r4, r0
 2270 0010 00E0A0E1 		mov	lr, r0
 2271 0014 0F00BCE8 		ldmia	ip!, {r0, r1, r2, r3}
 2272 0018 0F00AEE8 		stmia	lr!, {r0, r1, r2, r3}
 2273 001c 0F009CE8 		ldm	ip, {r0, r1, r2, r3}
 2274 0020 0F008EE8 		stm	lr, {r0, r1, r2, r3}
 2275 0024 0400A0E1 		mov	r0, r4
 2276 0028 1080BDE8 		pop	{r4, pc}
 2277              		.cantunwind
 2278              		.fnend
 2280              		.section	.rodata
 2281              		.align	2
 2282              		.set	.LANCHOR1,. + 0
 2283              	.LC0:
 2284 0000 00000000 		.word	_ZN6tflite12_GLOBAL__N_14InitEP13TfLiteContextPKcj
 2285 0004 00000000 		.word	0
 2286 0008 00000000 		.word	_ZN6tflite12_GLOBAL__N_17PrepareEP13TfLiteContextP10TfLiteNode
 2287 000c 00000000 		.word	_ZN6tflite12_GLOBAL__N_14EvalEP13TfLiteContextP10TfLiteNode
 2288 0010 00000000 		.word	0
 2289 0014 00000000 		.word	0
 2290 0018 00000000 		.word	0
 2291 001c 00000000 		.word	0
 2292              		.section	.rodata._ZN6tflite21reference_integer_ops13TransposeConvERKNS_10ConvParamsEPKlS5_RKNS_12R
 2293              		.align	2
 2294              	.LC1:
 2295 0000 6578706F 		.ascii	"exponent <= 31\000"
 2295      6E656E74 
 2295      203C3D20 
 2295      333100
 2296 000f 00       		.space	1
 2297              	.LC2:
 2298 0010 433A2F52 		.ascii	"C:/Renesas/e2studio_2021_01_workspace_RZA2M_ANPR/AN"
 2298      656E6573 
 2298      61732F65 
 2298      32737475 
 2298      64696F5F 
 2299 0043 50525F52 		.ascii	"PR_RZA2M_EBK/src/tensorflow_lite/third_party/gemmlo"
 2299      5A41324D 
 2299      5F45424B 
 2299      2F737263 
 2299      2F74656E 
 2300 0076 77702F66 		.ascii	"wp/fixedpoint/fixedpoint.h\000"
 2300      69786564 
 2300      706F696E 
 2300      742F6669 
 2300      78656470 
 2301              		.section	.rodata._ZZN8gemmlowp19RoundingDivideByPOTIlEET_S1_iE19__PRETTY_FUNCTION__,"a",%progbits
 2302              		.align	3
 2303              		.set	.LANCHOR0,. + 0
 2306              	_ZZN8gemmlowp19RoundingDivideByPOTIlEET_S1_iE19__PRETTY_FUNCTION__:
 2307 0000 496E7465 		.ascii	"IntegerType gemmlowp::RoundingDivideByPOT(IntegerTy"
 2307      67657254 
 2307      79706520 
 2307      67656D6D 
 2307      6C6F7770 
 2308 0033 70652C20 		.ascii	"pe, int) [with IntegerType = long int]\000"
 2308      696E7429 
 2308      205B7769 
 2308      74682049 
 2308      6E746567 
 2309              		.ident	"GCC: (GNU Tools for ARM Embedded Processors 6-2017-q2-update) 6.3.1 20170620 (release) [AR