   1              		.cpu cortex-a9
   2              		.eabi_attribute 28, 1
   3              		.eabi_attribute 20, 1
   4              		.eabi_attribute 21, 1
   5              		.eabi_attribute 23, 3
   6              		.eabi_attribute 24, 1
   7              		.eabi_attribute 25, 1
   8              		.eabi_attribute 26, 1
   9              		.eabi_attribute 30, 2
  10              		.eabi_attribute 34, 0
  11              		.eabi_attribute 18, 4
  12              		.file	"tanh.cpp"
  13              		.text
  14              	.Ltext0:
  15              		.cfi_sections	.debug_frame
  16              		.section	.text._ZN6tflite3ops5micro11activations12_GLOBAL__N_18TanhInitEP13TfLiteContextPKcj,"ax",
  17              		.align	2
  18              		.syntax unified
  19              		.arm
  20              		.fpu neon
  22              	_ZN6tflite3ops5micro11activations12_GLOBAL__N_18TanhInitEP13TfLiteContextPKcj:
  23              		.fnstart
  24              	.LFB4180:
  25              		.file 1 "../src/tensorflow_lite/src/tensorflow/lite/micro/kernels/tanh.cpp"
   1:../src/tensorflow_lite/src/tensorflow/lite/micro/kernels/tanh.cpp **** /* Copyright 2020 The TensorFlow Authors. All Rights Reserved.
   2:../src/tensorflow_lite/src/tensorflow/lite/micro/kernels/tanh.cpp **** 
   3:../src/tensorflow_lite/src/tensorflow/lite/micro/kernels/tanh.cpp **** Licensed under the Apache License, Version 2.0 (the "License");
   4:../src/tensorflow_lite/src/tensorflow/lite/micro/kernels/tanh.cpp **** you may not use this file except in compliance with the License.
   5:../src/tensorflow_lite/src/tensorflow/lite/micro/kernels/tanh.cpp **** You may obtain a copy of the License at
   6:../src/tensorflow_lite/src/tensorflow/lite/micro/kernels/tanh.cpp **** 
   7:../src/tensorflow_lite/src/tensorflow/lite/micro/kernels/tanh.cpp ****     http://www.apache.org/licenses/LICENSE-2.0
   8:../src/tensorflow_lite/src/tensorflow/lite/micro/kernels/tanh.cpp **** 
   9:../src/tensorflow_lite/src/tensorflow/lite/micro/kernels/tanh.cpp **** Unless required by applicable law or agreed to in writing, software
  10:../src/tensorflow_lite/src/tensorflow/lite/micro/kernels/tanh.cpp **** distributed under the License is distributed on an "AS IS" BASIS,
  11:../src/tensorflow_lite/src/tensorflow/lite/micro/kernels/tanh.cpp **** WITHOUT WARRANTIES OR CONDITIONS OF ANY KIND, either express or implied.
  12:../src/tensorflow_lite/src/tensorflow/lite/micro/kernels/tanh.cpp **** See the License for the specific language governing permissions and
  13:../src/tensorflow_lite/src/tensorflow/lite/micro/kernels/tanh.cpp **** limitations under the License.
  14:../src/tensorflow_lite/src/tensorflow/lite/micro/kernels/tanh.cpp **** ==============================================================================*/
  15:../src/tensorflow_lite/src/tensorflow/lite/micro/kernels/tanh.cpp **** 
  16:../src/tensorflow_lite/src/tensorflow/lite/micro/kernels/tanh.cpp **** #include "tensorflow/lite/kernels/internal/reference/integer_ops/tanh.h"
  17:../src/tensorflow_lite/src/tensorflow/lite/micro/kernels/tanh.cpp **** 
  18:../src/tensorflow_lite/src/tensorflow/lite/micro/kernels/tanh.cpp **** #include "tensorflow/lite/c/builtin_op_data.h"
  19:../src/tensorflow_lite/src/tensorflow/lite/micro/kernels/tanh.cpp **** #include "tensorflow/lite/c/common.h"
  20:../src/tensorflow_lite/src/tensorflow/lite/micro/kernels/tanh.cpp **** #include "tensorflow/lite/kernels/internal/common.h"
  21:../src/tensorflow_lite/src/tensorflow/lite/micro/kernels/tanh.cpp **** #include "tensorflow/lite/kernels/internal/quantization_util.h"
  22:../src/tensorflow_lite/src/tensorflow/lite/micro/kernels/tanh.cpp **** #include "tensorflow/lite/kernels/internal/reference/tanh.h"
  23:../src/tensorflow_lite/src/tensorflow/lite/micro/kernels/tanh.cpp **** #include "tensorflow/lite/kernels/internal/tensor_ctypes.h"
  24:../src/tensorflow_lite/src/tensorflow/lite/micro/kernels/tanh.cpp **** #include "tensorflow/lite/kernels/kernel_util.h"
  25:../src/tensorflow_lite/src/tensorflow/lite/micro/kernels/tanh.cpp **** #include "tensorflow/lite/kernels/op_macros.h"
  26:../src/tensorflow_lite/src/tensorflow/lite/micro/kernels/tanh.cpp **** #include "tensorflow/lite/micro/kernels/kernel_util.h"
  27:../src/tensorflow_lite/src/tensorflow/lite/micro/kernels/tanh.cpp **** #include "tensorflow/lite/micro/micro_utils.h"
  28:../src/tensorflow_lite/src/tensorflow/lite/micro/kernels/tanh.cpp **** 
  29:../src/tensorflow_lite/src/tensorflow/lite/micro/kernels/tanh.cpp **** namespace tflite {
  30:../src/tensorflow_lite/src/tensorflow/lite/micro/kernels/tanh.cpp **** namespace ops {
  31:../src/tensorflow_lite/src/tensorflow/lite/micro/kernels/tanh.cpp **** namespace micro {
  32:../src/tensorflow_lite/src/tensorflow/lite/micro/kernels/tanh.cpp **** namespace activations {
  33:../src/tensorflow_lite/src/tensorflow/lite/micro/kernels/tanh.cpp **** namespace {
  34:../src/tensorflow_lite/src/tensorflow/lite/micro/kernels/tanh.cpp **** constexpr int kInputTensor = 0;
  35:../src/tensorflow_lite/src/tensorflow/lite/micro/kernels/tanh.cpp **** constexpr int kOutputTensor = 0;
  36:../src/tensorflow_lite/src/tensorflow/lite/micro/kernels/tanh.cpp **** 
  37:../src/tensorflow_lite/src/tensorflow/lite/micro/kernels/tanh.cpp **** struct OpData {
  38:../src/tensorflow_lite/src/tensorflow/lite/micro/kernels/tanh.cpp ****   int32_t input_zero_point;
  39:../src/tensorflow_lite/src/tensorflow/lite/micro/kernels/tanh.cpp ****   int32_t input_range_radius;
  40:../src/tensorflow_lite/src/tensorflow/lite/micro/kernels/tanh.cpp ****   int32_t input_multiplier;
  41:../src/tensorflow_lite/src/tensorflow/lite/micro/kernels/tanh.cpp ****   int input_left_shift;
  42:../src/tensorflow_lite/src/tensorflow/lite/micro/kernels/tanh.cpp **** };
  43:../src/tensorflow_lite/src/tensorflow/lite/micro/kernels/tanh.cpp **** 
  44:../src/tensorflow_lite/src/tensorflow/lite/micro/kernels/tanh.cpp **** void* TanhInit(TfLiteContext* context, const char* buffer, size_t length) {
  26              		.loc 1 44 0
  27              		.cfi_startproc
  28              		@ args = 0, pretend = 0, frame = 0
  29              		@ frame_needed = 0, uses_anonymous_args = 0
  30              	.LVL0:
  45:../src/tensorflow_lite/src/tensorflow/lite/micro/kernels/tanh.cpp ****   TFLITE_DCHECK(context->AllocatePersistentBuffer != nullptr);
  31              		.loc 1 45 0
  32 0000 383090E5 		ldr	r3, [r0, #56]
  33 0004 000053E3 		cmp	r3, #0
  34 0008 0100000A 		beq	.L7
  46:../src/tensorflow_lite/src/tensorflow/lite/micro/kernels/tanh.cpp ****   return context->AllocatePersistentBuffer(context, sizeof(OpData));
  35              		.loc 1 46 0
  36 000c 1010A0E3 		mov	r1, #16
  37              	.LVL1:
  38 0010 13FF2FE1 		bx	r3
  39              	.LVL2:
  40              	.L7:
  44:../src/tensorflow_lite/src/tensorflow/lite/micro/kernels/tanh.cpp ****   TFLITE_DCHECK(context->AllocatePersistentBuffer != nullptr);
  41              		.loc 1 44 0 discriminator 1
  42 0014 10402DE9 		push	{r4, lr}
  43              		.save {r4, lr}
  44              		.cfi_def_cfa_offset 8
  45              		.cfi_offset 4, -8
  46              		.cfi_offset 14, -4
  45:../src/tensorflow_lite/src/tensorflow/lite/micro/kernels/tanh.cpp ****   TFLITE_DCHECK(context->AllocatePersistentBuffer != nullptr);
  47              		.loc 1 45 0 discriminator 1
  48 0018 FEFFFFEB 		bl	abort
  49              	.LVL3:
  50              		.cfi_endproc
  51              	.LFE4180:
  52              		.fnend
  54              		.section	.text._ZN6tflite3ops5micro11activations12_GLOBAL__N_111TanhPrepareEP13TfLiteContextP10TfL
  55              		.align	2
  56              		.syntax unified
  57              		.arm
  58              		.fpu neon
  60              	_ZN6tflite3ops5micro11activations12_GLOBAL__N_111TanhPrepareEP13TfLiteContextP10TfLiteNode:
  61              		.fnstart
  62              	.LFB4182:
  47:../src/tensorflow_lite/src/tensorflow/lite/micro/kernels/tanh.cpp **** }
  48:../src/tensorflow_lite/src/tensorflow/lite/micro/kernels/tanh.cpp **** 
  49:../src/tensorflow_lite/src/tensorflow/lite/micro/kernels/tanh.cpp **** TfLiteStatus CalculateArithmeticOpData(TfLiteContext* context, TfLiteNode* node,
  50:../src/tensorflow_lite/src/tensorflow/lite/micro/kernels/tanh.cpp ****                                        OpData* data) {
  51:../src/tensorflow_lite/src/tensorflow/lite/micro/kernels/tanh.cpp ****   TF_LITE_ENSURE_EQ(context, NumInputs(node), 1);
  52:../src/tensorflow_lite/src/tensorflow/lite/micro/kernels/tanh.cpp ****   TF_LITE_ENSURE_EQ(context, NumOutputs(node), 1);
  53:../src/tensorflow_lite/src/tensorflow/lite/micro/kernels/tanh.cpp ****   const TfLiteTensor* input = GetInput(context, node, kInputTensor);
  54:../src/tensorflow_lite/src/tensorflow/lite/micro/kernels/tanh.cpp ****   TF_LITE_ENSURE(context, input != nullptr);
  55:../src/tensorflow_lite/src/tensorflow/lite/micro/kernels/tanh.cpp ****   TfLiteTensor* output = GetOutput(context, node, kOutputTensor);
  56:../src/tensorflow_lite/src/tensorflow/lite/micro/kernels/tanh.cpp ****   TF_LITE_ENSURE(context, output != nullptr);
  57:../src/tensorflow_lite/src/tensorflow/lite/micro/kernels/tanh.cpp **** 
  58:../src/tensorflow_lite/src/tensorflow/lite/micro/kernels/tanh.cpp ****   TF_LITE_ENSURE_TYPES_EQ(context, input->type, output->type);
  59:../src/tensorflow_lite/src/tensorflow/lite/micro/kernels/tanh.cpp **** 
  60:../src/tensorflow_lite/src/tensorflow/lite/micro/kernels/tanh.cpp ****   if (input->type == kTfLiteUInt8 || input->type == kTfLiteInt8) {
  61:../src/tensorflow_lite/src/tensorflow/lite/micro/kernels/tanh.cpp ****     static constexpr int kInputIntegerBits = 4;
  62:../src/tensorflow_lite/src/tensorflow/lite/micro/kernels/tanh.cpp ****     const double input_real_multiplier =
  63:../src/tensorflow_lite/src/tensorflow/lite/micro/kernels/tanh.cpp ****         static_cast<double>(input->params.scale) *
  64:../src/tensorflow_lite/src/tensorflow/lite/micro/kernels/tanh.cpp ****         static_cast<double>(1 << (31 - kInputIntegerBits));
  65:../src/tensorflow_lite/src/tensorflow/lite/micro/kernels/tanh.cpp **** 
  66:../src/tensorflow_lite/src/tensorflow/lite/micro/kernels/tanh.cpp ****     const double q = std::frexp(input_real_multiplier, &data->input_left_shift);
  67:../src/tensorflow_lite/src/tensorflow/lite/micro/kernels/tanh.cpp ****     data->input_multiplier = static_cast<int32_t>(TfLiteRound(q * (1ll << 31)));
  68:../src/tensorflow_lite/src/tensorflow/lite/micro/kernels/tanh.cpp **** 
  69:../src/tensorflow_lite/src/tensorflow/lite/micro/kernels/tanh.cpp ****     data->input_range_radius =
  70:../src/tensorflow_lite/src/tensorflow/lite/micro/kernels/tanh.cpp ****         CalculateInputRadius(kInputIntegerBits, data->input_left_shift, 31);
  71:../src/tensorflow_lite/src/tensorflow/lite/micro/kernels/tanh.cpp ****   }
  72:../src/tensorflow_lite/src/tensorflow/lite/micro/kernels/tanh.cpp ****   return kTfLiteOk;
  73:../src/tensorflow_lite/src/tensorflow/lite/micro/kernels/tanh.cpp **** }
  74:../src/tensorflow_lite/src/tensorflow/lite/micro/kernels/tanh.cpp **** 
  75:../src/tensorflow_lite/src/tensorflow/lite/micro/kernels/tanh.cpp **** TfLiteStatus TanhPrepare(TfLiteContext* context, TfLiteNode* node) {
  63              		.loc 1 75 0
  64              		.cfi_startproc
  65              		@ args = 0, pretend = 0, frame = 0
  66              		@ frame_needed = 0, uses_anonymous_args = 0
  67              	.LVL4:
  68 0000 F0412DE9 		push	{r4, r5, r6, r7, r8, lr}
  69              		.save {r4, r5, r6, r7, r8, lr}
  70              		.cfi_def_cfa_offset 24
  71              		.cfi_offset 4, -24
  72              		.cfi_offset 5, -20
  73              		.cfi_offset 6, -16
  74              		.cfi_offset 7, -12
  75              		.cfi_offset 8, -8
  76              		.cfi_offset 14, -4
  77              		.pad #16
  78 0004 10D04DE2 		sub	sp, sp, #16
  79              		.cfi_def_cfa_offset 40
  76:../src/tensorflow_lite/src/tensorflow/lite/micro/kernels/tanh.cpp ****   TFLITE_DCHECK(node->user_data != nullptr);
  80              		.loc 1 76 0
  81 0008 107091E5 		ldr	r7, [r1, #16]
  82 000c 000057E3 		cmp	r7, #0
  83 0010 9900000A 		beq	.L19
  84              	.LVL5:
  77:../src/tensorflow_lite/src/tensorflow/lite/micro/kernels/tanh.cpp **** 
  78:../src/tensorflow_lite/src/tensorflow/lite/micro/kernels/tanh.cpp ****   OpData* data = static_cast<OpData*>(node->user_data);
  79:../src/tensorflow_lite/src/tensorflow/lite/micro/kernels/tanh.cpp **** 
  80:../src/tensorflow_lite/src/tensorflow/lite/micro/kernels/tanh.cpp ****   const TfLiteTensor* input = GetInput(context, node, kInputTensor);
  85              		.loc 1 80 0
  86 0014 0020A0E3 		mov	r2, #0
  87 0018 0150A0E1 		mov	r5, r1
  88 001c 0060A0E1 		mov	r6, r0
  89 0020 FEFFFFEB 		bl	_ZN6tflite8GetInputEPK13TfLiteContextPK10TfLiteNodei
  90              	.LVL6:
  81:../src/tensorflow_lite/src/tensorflow/lite/micro/kernels/tanh.cpp ****   TF_LITE_ENSURE(context, input != nullptr);
  91              		.loc 1 81 0
  92 0024 000050E3 		cmp	r0, #0
  93 0028 5800000A 		beq	.L20
  94              	.LBB2158:
  95              	.LBB2159:
  96              	.LBB2160:
  97              	.LBB2161:
  98              		.file 2 "C:/Renesas/e2studio_2021_01_workspace_RZA2M_ANPR/ANPR_RZA2M_RDK/src/tensorflow_lite/src/t
   1:C:/Renesas/e2studio_2021_01_workspace_RZA2M_ANPR/ANPR_RZA2M_RDK/src/tensorflow_lite/src/tensorflow/lite/kernels\kernel_util.h **** /* Copyright 2017 The TensorFlow Authors. All Rights Reserved.
   2:C:/Renesas/e2studio_2021_01_workspace_RZA2M_ANPR/ANPR_RZA2M_RDK/src/tensorflow_lite/src/tensorflow/lite/kernels\kernel_util.h **** 
   3:C:/Renesas/e2studio_2021_01_workspace_RZA2M_ANPR/ANPR_RZA2M_RDK/src/tensorflow_lite/src/tensorflow/lite/kernels\kernel_util.h **** Licensed under the Apache License, Version 2.0 (the "License");
   4:C:/Renesas/e2studio_2021_01_workspace_RZA2M_ANPR/ANPR_RZA2M_RDK/src/tensorflow_lite/src/tensorflow/lite/kernels\kernel_util.h **** you may not use this file except in compliance with the License.
   5:C:/Renesas/e2studio_2021_01_workspace_RZA2M_ANPR/ANPR_RZA2M_RDK/src/tensorflow_lite/src/tensorflow/lite/kernels\kernel_util.h **** You may obtain a copy of the License at
   6:C:/Renesas/e2studio_2021_01_workspace_RZA2M_ANPR/ANPR_RZA2M_RDK/src/tensorflow_lite/src/tensorflow/lite/kernels\kernel_util.h **** 
   7:C:/Renesas/e2studio_2021_01_workspace_RZA2M_ANPR/ANPR_RZA2M_RDK/src/tensorflow_lite/src/tensorflow/lite/kernels\kernel_util.h ****     http://www.apache.org/licenses/LICENSE-2.0
   8:C:/Renesas/e2studio_2021_01_workspace_RZA2M_ANPR/ANPR_RZA2M_RDK/src/tensorflow_lite/src/tensorflow/lite/kernels\kernel_util.h **** 
   9:C:/Renesas/e2studio_2021_01_workspace_RZA2M_ANPR/ANPR_RZA2M_RDK/src/tensorflow_lite/src/tensorflow/lite/kernels\kernel_util.h **** Unless required by applicable law or agreed to in writing, software
  10:C:/Renesas/e2studio_2021_01_workspace_RZA2M_ANPR/ANPR_RZA2M_RDK/src/tensorflow_lite/src/tensorflow/lite/kernels\kernel_util.h **** distributed under the License is distributed on an "AS IS" BASIS,
  11:C:/Renesas/e2studio_2021_01_workspace_RZA2M_ANPR/ANPR_RZA2M_RDK/src/tensorflow_lite/src/tensorflow/lite/kernels\kernel_util.h **** WITHOUT WARRANTIES OR CONDITIONS OF ANY KIND, either express or implied.
  12:C:/Renesas/e2studio_2021_01_workspace_RZA2M_ANPR/ANPR_RZA2M_RDK/src/tensorflow_lite/src/tensorflow/lite/kernels\kernel_util.h **** See the License for the specific language governing permissions and
  13:C:/Renesas/e2studio_2021_01_workspace_RZA2M_ANPR/ANPR_RZA2M_RDK/src/tensorflow_lite/src/tensorflow/lite/kernels\kernel_util.h **** limitations under the License.
  14:C:/Renesas/e2studio_2021_01_workspace_RZA2M_ANPR/ANPR_RZA2M_RDK/src/tensorflow_lite/src/tensorflow/lite/kernels\kernel_util.h **** ==============================================================================*/
  15:C:/Renesas/e2studio_2021_01_workspace_RZA2M_ANPR/ANPR_RZA2M_RDK/src/tensorflow_lite/src/tensorflow/lite/kernels\kernel_util.h **** #ifndef TENSORFLOW_LITE_KERNELS_KERNEL_UTIL_H_
  16:C:/Renesas/e2studio_2021_01_workspace_RZA2M_ANPR/ANPR_RZA2M_RDK/src/tensorflow_lite/src/tensorflow/lite/kernels\kernel_util.h **** #define TENSORFLOW_LITE_KERNELS_KERNEL_UTIL_H_
  17:C:/Renesas/e2studio_2021_01_workspace_RZA2M_ANPR/ANPR_RZA2M_RDK/src/tensorflow_lite/src/tensorflow/lite/kernels\kernel_util.h **** 
  18:C:/Renesas/e2studio_2021_01_workspace_RZA2M_ANPR/ANPR_RZA2M_RDK/src/tensorflow_lite/src/tensorflow/lite/kernels\kernel_util.h **** #include <stdint.h>
  19:C:/Renesas/e2studio_2021_01_workspace_RZA2M_ANPR/ANPR_RZA2M_RDK/src/tensorflow_lite/src/tensorflow/lite/kernels\kernel_util.h **** 
  20:C:/Renesas/e2studio_2021_01_workspace_RZA2M_ANPR/ANPR_RZA2M_RDK/src/tensorflow_lite/src/tensorflow/lite/kernels\kernel_util.h **** #include <limits>
  21:C:/Renesas/e2studio_2021_01_workspace_RZA2M_ANPR/ANPR_RZA2M_RDK/src/tensorflow_lite/src/tensorflow/lite/kernels\kernel_util.h **** 
  22:C:/Renesas/e2studio_2021_01_workspace_RZA2M_ANPR/ANPR_RZA2M_RDK/src/tensorflow_lite/src/tensorflow/lite/kernels\kernel_util.h **** #include "tensorflow/lite/c/builtin_op_data.h"
  23:C:/Renesas/e2studio_2021_01_workspace_RZA2M_ANPR/ANPR_RZA2M_RDK/src/tensorflow_lite/src/tensorflow/lite/kernels\kernel_util.h **** #include "tensorflow/lite/c/common.h"
  24:C:/Renesas/e2studio_2021_01_workspace_RZA2M_ANPR/ANPR_RZA2M_RDK/src/tensorflow_lite/src/tensorflow/lite/kernels\kernel_util.h **** 
  25:C:/Renesas/e2studio_2021_01_workspace_RZA2M_ANPR/ANPR_RZA2M_RDK/src/tensorflow_lite/src/tensorflow/lite/kernels\kernel_util.h **** namespace tflite {
  26:C:/Renesas/e2studio_2021_01_workspace_RZA2M_ANPR/ANPR_RZA2M_RDK/src/tensorflow_lite/src/tensorflow/lite/kernels\kernel_util.h **** 
  27:C:/Renesas/e2studio_2021_01_workspace_RZA2M_ANPR/ANPR_RZA2M_RDK/src/tensorflow_lite/src/tensorflow/lite/kernels\kernel_util.h **** // A fair number of functions in this header have historically been inline.
  28:C:/Renesas/e2studio_2021_01_workspace_RZA2M_ANPR/ANPR_RZA2M_RDK/src/tensorflow_lite/src/tensorflow/lite/kernels\kernel_util.h **** // It is ok to change functions to not be inline if the latency with
  29:C:/Renesas/e2studio_2021_01_workspace_RZA2M_ANPR/ANPR_RZA2M_RDK/src/tensorflow_lite/src/tensorflow/lite/kernels\kernel_util.h **** // benchmark_model for MobileNet + MobileBERT is unaffected. If such a change is
  30:C:/Renesas/e2studio_2021_01_workspace_RZA2M_ANPR/ANPR_RZA2M_RDK/src/tensorflow_lite/src/tensorflow/lite/kernels\kernel_util.h **** // made, move the newly non-inlined function declarations to the top of this
  31:C:/Renesas/e2studio_2021_01_workspace_RZA2M_ANPR/ANPR_RZA2M_RDK/src/tensorflow_lite/src/tensorflow/lite/kernels\kernel_util.h **** // header file.
  32:C:/Renesas/e2studio_2021_01_workspace_RZA2M_ANPR/ANPR_RZA2M_RDK/src/tensorflow_lite/src/tensorflow/lite/kernels\kernel_util.h **** 
  33:C:/Renesas/e2studio_2021_01_workspace_RZA2M_ANPR/ANPR_RZA2M_RDK/src/tensorflow_lite/src/tensorflow/lite/kernels\kernel_util.h **** // Note: You must check if result is not null:
  34:C:/Renesas/e2studio_2021_01_workspace_RZA2M_ANPR/ANPR_RZA2M_RDK/src/tensorflow_lite/src/tensorflow/lite/kernels\kernel_util.h **** //
  35:C:/Renesas/e2studio_2021_01_workspace_RZA2M_ANPR/ANPR_RZA2M_RDK/src/tensorflow_lite/src/tensorflow/lite/kernels\kernel_util.h **** //   TfLiteTensor* my_tensor = GetInput(context, node, kMyTensorIdx);
  36:C:/Renesas/e2studio_2021_01_workspace_RZA2M_ANPR/ANPR_RZA2M_RDK/src/tensorflow_lite/src/tensorflow/lite/kernels\kernel_util.h **** //   TF_LITE_ENSURE(context, my_tensor != nullptr);
  37:C:/Renesas/e2studio_2021_01_workspace_RZA2M_ANPR/ANPR_RZA2M_RDK/src/tensorflow_lite/src/tensorflow/lite/kernels\kernel_util.h **** //
  38:C:/Renesas/e2studio_2021_01_workspace_RZA2M_ANPR/ANPR_RZA2M_RDK/src/tensorflow_lite/src/tensorflow/lite/kernels\kernel_util.h **** // This is because the index might point to the optional tensor constant
  39:C:/Renesas/e2studio_2021_01_workspace_RZA2M_ANPR/ANPR_RZA2M_RDK/src/tensorflow_lite/src/tensorflow/lite/kernels\kernel_util.h **** // (kTfLiteOptionalTensor) in which case there is no tensor to return.
  40:C:/Renesas/e2studio_2021_01_workspace_RZA2M_ANPR/ANPR_RZA2M_RDK/src/tensorflow_lite/src/tensorflow/lite/kernels\kernel_util.h **** const TfLiteTensor* GetInput(const TfLiteContext* context,
  41:C:/Renesas/e2studio_2021_01_workspace_RZA2M_ANPR/ANPR_RZA2M_RDK/src/tensorflow_lite/src/tensorflow/lite/kernels\kernel_util.h ****                              const TfLiteNode* node, int index);
  42:C:/Renesas/e2studio_2021_01_workspace_RZA2M_ANPR/ANPR_RZA2M_RDK/src/tensorflow_lite/src/tensorflow/lite/kernels\kernel_util.h **** 
  43:C:/Renesas/e2studio_2021_01_workspace_RZA2M_ANPR/ANPR_RZA2M_RDK/src/tensorflow_lite/src/tensorflow/lite/kernels\kernel_util.h **** // Same as `GetInput` but returns boolean and uses output argument for tensor.
  44:C:/Renesas/e2studio_2021_01_workspace_RZA2M_ANPR/ANPR_RZA2M_RDK/src/tensorflow_lite/src/tensorflow/lite/kernels\kernel_util.h **** //
  45:C:/Renesas/e2studio_2021_01_workspace_RZA2M_ANPR/ANPR_RZA2M_RDK/src/tensorflow_lite/src/tensorflow/lite/kernels\kernel_util.h **** //   TfLiteTensor* my_tensor;
  46:C:/Renesas/e2studio_2021_01_workspace_RZA2M_ANPR/ANPR_RZA2M_RDK/src/tensorflow_lite/src/tensorflow/lite/kernels\kernel_util.h **** //   TF_LITE_ENSURE_OK(context,
  47:C:/Renesas/e2studio_2021_01_workspace_RZA2M_ANPR/ANPR_RZA2M_RDK/src/tensorflow_lite/src/tensorflow/lite/kernels\kernel_util.h **** //                     GetInputSafe(context, node, kMyTensorIdx, &my_tensor));
  48:C:/Renesas/e2studio_2021_01_workspace_RZA2M_ANPR/ANPR_RZA2M_RDK/src/tensorflow_lite/src/tensorflow/lite/kernels\kernel_util.h **** //   // can use my_tensor directly from here onwards, it is not nullptr
  49:C:/Renesas/e2studio_2021_01_workspace_RZA2M_ANPR/ANPR_RZA2M_RDK/src/tensorflow_lite/src/tensorflow/lite/kernels\kernel_util.h **** //
  50:C:/Renesas/e2studio_2021_01_workspace_RZA2M_ANPR/ANPR_RZA2M_RDK/src/tensorflow_lite/src/tensorflow/lite/kernels\kernel_util.h **** // Should be used in cases where the binary size is too large.
  51:C:/Renesas/e2studio_2021_01_workspace_RZA2M_ANPR/ANPR_RZA2M_RDK/src/tensorflow_lite/src/tensorflow/lite/kernels\kernel_util.h **** TfLiteStatus GetInputSafe(const TfLiteContext* context, const TfLiteNode* node,
  52:C:/Renesas/e2studio_2021_01_workspace_RZA2M_ANPR/ANPR_RZA2M_RDK/src/tensorflow_lite/src/tensorflow/lite/kernels\kernel_util.h ****                           int index, const TfLiteTensor** tensor);
  53:C:/Renesas/e2studio_2021_01_workspace_RZA2M_ANPR/ANPR_RZA2M_RDK/src/tensorflow_lite/src/tensorflow/lite/kernels\kernel_util.h **** 
  54:C:/Renesas/e2studio_2021_01_workspace_RZA2M_ANPR/ANPR_RZA2M_RDK/src/tensorflow_lite/src/tensorflow/lite/kernels\kernel_util.h **** // Note: You must check if result is not null:
  55:C:/Renesas/e2studio_2021_01_workspace_RZA2M_ANPR/ANPR_RZA2M_RDK/src/tensorflow_lite/src/tensorflow/lite/kernels\kernel_util.h **** //
  56:C:/Renesas/e2studio_2021_01_workspace_RZA2M_ANPR/ANPR_RZA2M_RDK/src/tensorflow_lite/src/tensorflow/lite/kernels\kernel_util.h **** //   TfLiteTensor* my_tensor = GetVariableInput(context, node, kMyTensorIdx);
  57:C:/Renesas/e2studio_2021_01_workspace_RZA2M_ANPR/ANPR_RZA2M_RDK/src/tensorflow_lite/src/tensorflow/lite/kernels\kernel_util.h **** //   TF_LITE_ENSURE(context, my_tensor != nullptr);
  58:C:/Renesas/e2studio_2021_01_workspace_RZA2M_ANPR/ANPR_RZA2M_RDK/src/tensorflow_lite/src/tensorflow/lite/kernels\kernel_util.h **** //
  59:C:/Renesas/e2studio_2021_01_workspace_RZA2M_ANPR/ANPR_RZA2M_RDK/src/tensorflow_lite/src/tensorflow/lite/kernels\kernel_util.h **** // This is because the index might point to the optional tensor constant
  60:C:/Renesas/e2studio_2021_01_workspace_RZA2M_ANPR/ANPR_RZA2M_RDK/src/tensorflow_lite/src/tensorflow/lite/kernels\kernel_util.h **** // (kTfLiteOptionalTensor) in which case there is no tensor to return.
  61:C:/Renesas/e2studio_2021_01_workspace_RZA2M_ANPR/ANPR_RZA2M_RDK/src/tensorflow_lite/src/tensorflow/lite/kernels\kernel_util.h **** TfLiteTensor* GetVariableInput(TfLiteContext* context, const TfLiteNode* node,
  62:C:/Renesas/e2studio_2021_01_workspace_RZA2M_ANPR/ANPR_RZA2M_RDK/src/tensorflow_lite/src/tensorflow/lite/kernels\kernel_util.h ****                                int index);
  63:C:/Renesas/e2studio_2021_01_workspace_RZA2M_ANPR/ANPR_RZA2M_RDK/src/tensorflow_lite/src/tensorflow/lite/kernels\kernel_util.h **** 
  64:C:/Renesas/e2studio_2021_01_workspace_RZA2M_ANPR/ANPR_RZA2M_RDK/src/tensorflow_lite/src/tensorflow/lite/kernels\kernel_util.h **** // Note: You must check if result is not null:
  65:C:/Renesas/e2studio_2021_01_workspace_RZA2M_ANPR/ANPR_RZA2M_RDK/src/tensorflow_lite/src/tensorflow/lite/kernels\kernel_util.h **** //
  66:C:/Renesas/e2studio_2021_01_workspace_RZA2M_ANPR/ANPR_RZA2M_RDK/src/tensorflow_lite/src/tensorflow/lite/kernels\kernel_util.h **** //   TfLiteTensor* my_tensor = GetOutput(context, node, kMyTensorIdx);
  67:C:/Renesas/e2studio_2021_01_workspace_RZA2M_ANPR/ANPR_RZA2M_RDK/src/tensorflow_lite/src/tensorflow/lite/kernels\kernel_util.h **** //   TF_LITE_ENSURE(context, my_tensor != nullptr);
  68:C:/Renesas/e2studio_2021_01_workspace_RZA2M_ANPR/ANPR_RZA2M_RDK/src/tensorflow_lite/src/tensorflow/lite/kernels\kernel_util.h **** //
  69:C:/Renesas/e2studio_2021_01_workspace_RZA2M_ANPR/ANPR_RZA2M_RDK/src/tensorflow_lite/src/tensorflow/lite/kernels\kernel_util.h **** // This is because the index might point to the optional tensor constant
  70:C:/Renesas/e2studio_2021_01_workspace_RZA2M_ANPR/ANPR_RZA2M_RDK/src/tensorflow_lite/src/tensorflow/lite/kernels\kernel_util.h **** // (kTfLiteOptionalTensor) in which case there is no tensor to return.
  71:C:/Renesas/e2studio_2021_01_workspace_RZA2M_ANPR/ANPR_RZA2M_RDK/src/tensorflow_lite/src/tensorflow/lite/kernels\kernel_util.h **** TfLiteTensor* GetOutput(TfLiteContext* context, const TfLiteNode* node,
  72:C:/Renesas/e2studio_2021_01_workspace_RZA2M_ANPR/ANPR_RZA2M_RDK/src/tensorflow_lite/src/tensorflow/lite/kernels\kernel_util.h ****                         int index);
  73:C:/Renesas/e2studio_2021_01_workspace_RZA2M_ANPR/ANPR_RZA2M_RDK/src/tensorflow_lite/src/tensorflow/lite/kernels\kernel_util.h **** 
  74:C:/Renesas/e2studio_2021_01_workspace_RZA2M_ANPR/ANPR_RZA2M_RDK/src/tensorflow_lite/src/tensorflow/lite/kernels\kernel_util.h **** // Same as `GetOutput` but returns boolean and uses output argument for tensor.
  75:C:/Renesas/e2studio_2021_01_workspace_RZA2M_ANPR/ANPR_RZA2M_RDK/src/tensorflow_lite/src/tensorflow/lite/kernels\kernel_util.h **** //
  76:C:/Renesas/e2studio_2021_01_workspace_RZA2M_ANPR/ANPR_RZA2M_RDK/src/tensorflow_lite/src/tensorflow/lite/kernels\kernel_util.h **** //   TfLiteTensor* my_tensor;
  77:C:/Renesas/e2studio_2021_01_workspace_RZA2M_ANPR/ANPR_RZA2M_RDK/src/tensorflow_lite/src/tensorflow/lite/kernels\kernel_util.h **** //   TF_LITE_ENSURE_OK(context,
  78:C:/Renesas/e2studio_2021_01_workspace_RZA2M_ANPR/ANPR_RZA2M_RDK/src/tensorflow_lite/src/tensorflow/lite/kernels\kernel_util.h **** //                     GetOutputSafe(context, node, kMyTensorIdx, &my_tensor));
  79:C:/Renesas/e2studio_2021_01_workspace_RZA2M_ANPR/ANPR_RZA2M_RDK/src/tensorflow_lite/src/tensorflow/lite/kernels\kernel_util.h **** //   // can use my_tensor directly from here onwards, it is not nullptr
  80:C:/Renesas/e2studio_2021_01_workspace_RZA2M_ANPR/ANPR_RZA2M_RDK/src/tensorflow_lite/src/tensorflow/lite/kernels\kernel_util.h **** //
  81:C:/Renesas/e2studio_2021_01_workspace_RZA2M_ANPR/ANPR_RZA2M_RDK/src/tensorflow_lite/src/tensorflow/lite/kernels\kernel_util.h **** // Should be used in cases where the binary size is too large.
  82:C:/Renesas/e2studio_2021_01_workspace_RZA2M_ANPR/ANPR_RZA2M_RDK/src/tensorflow_lite/src/tensorflow/lite/kernels\kernel_util.h **** TfLiteStatus GetOutputSafe(const TfLiteContext* context, const TfLiteNode* node,
  83:C:/Renesas/e2studio_2021_01_workspace_RZA2M_ANPR/ANPR_RZA2M_RDK/src/tensorflow_lite/src/tensorflow/lite/kernels\kernel_util.h ****                            int index, TfLiteTensor** tensor);
  84:C:/Renesas/e2studio_2021_01_workspace_RZA2M_ANPR/ANPR_RZA2M_RDK/src/tensorflow_lite/src/tensorflow/lite/kernels\kernel_util.h **** 
  85:C:/Renesas/e2studio_2021_01_workspace_RZA2M_ANPR/ANPR_RZA2M_RDK/src/tensorflow_lite/src/tensorflow/lite/kernels\kernel_util.h **** // Note: You must check if result is not null:
  86:C:/Renesas/e2studio_2021_01_workspace_RZA2M_ANPR/ANPR_RZA2M_RDK/src/tensorflow_lite/src/tensorflow/lite/kernels\kernel_util.h **** //
  87:C:/Renesas/e2studio_2021_01_workspace_RZA2M_ANPR/ANPR_RZA2M_RDK/src/tensorflow_lite/src/tensorflow/lite/kernels\kernel_util.h **** //   TfLiteTensor* my_tensor = GetOptionalInputTensor(context, node, kIdx);
  88:C:/Renesas/e2studio_2021_01_workspace_RZA2M_ANPR/ANPR_RZA2M_RDK/src/tensorflow_lite/src/tensorflow/lite/kernels\kernel_util.h **** //   TF_LITE_ENSURE(context, my_tensor != nullptr);
  89:C:/Renesas/e2studio_2021_01_workspace_RZA2M_ANPR/ANPR_RZA2M_RDK/src/tensorflow_lite/src/tensorflow/lite/kernels\kernel_util.h **** //
  90:C:/Renesas/e2studio_2021_01_workspace_RZA2M_ANPR/ANPR_RZA2M_RDK/src/tensorflow_lite/src/tensorflow/lite/kernels\kernel_util.h **** // This is because the index might point to the optional tensor constant
  91:C:/Renesas/e2studio_2021_01_workspace_RZA2M_ANPR/ANPR_RZA2M_RDK/src/tensorflow_lite/src/tensorflow/lite/kernels\kernel_util.h **** // (kTfLiteOptionalTensor) in which case there is no tensor to return.
  92:C:/Renesas/e2studio_2021_01_workspace_RZA2M_ANPR/ANPR_RZA2M_RDK/src/tensorflow_lite/src/tensorflow/lite/kernels\kernel_util.h **** //
  93:C:/Renesas/e2studio_2021_01_workspace_RZA2M_ANPR/ANPR_RZA2M_RDK/src/tensorflow_lite/src/tensorflow/lite/kernels\kernel_util.h **** // Deprecated. GetInput has the same functionality.
  94:C:/Renesas/e2studio_2021_01_workspace_RZA2M_ANPR/ANPR_RZA2M_RDK/src/tensorflow_lite/src/tensorflow/lite/kernels\kernel_util.h **** const TfLiteTensor* GetOptionalInputTensor(const TfLiteContext* context,
  95:C:/Renesas/e2studio_2021_01_workspace_RZA2M_ANPR/ANPR_RZA2M_RDK/src/tensorflow_lite/src/tensorflow/lite/kernels\kernel_util.h ****                                            const TfLiteNode* node, int index);
  96:C:/Renesas/e2studio_2021_01_workspace_RZA2M_ANPR/ANPR_RZA2M_RDK/src/tensorflow_lite/src/tensorflow/lite/kernels\kernel_util.h **** 
  97:C:/Renesas/e2studio_2021_01_workspace_RZA2M_ANPR/ANPR_RZA2M_RDK/src/tensorflow_lite/src/tensorflow/lite/kernels\kernel_util.h **** #ifndef TF_LITE_STATIC_MEMORY
  98:C:/Renesas/e2studio_2021_01_workspace_RZA2M_ANPR/ANPR_RZA2M_RDK/src/tensorflow_lite/src/tensorflow/lite/kernels\kernel_util.h **** // Note: You must check if result is not null:
  99:C:/Renesas/e2studio_2021_01_workspace_RZA2M_ANPR/ANPR_RZA2M_RDK/src/tensorflow_lite/src/tensorflow/lite/kernels\kernel_util.h **** //
 100:C:/Renesas/e2studio_2021_01_workspace_RZA2M_ANPR/ANPR_RZA2M_RDK/src/tensorflow_lite/src/tensorflow/lite/kernels\kernel_util.h **** //   TfLiteTensor* my_tensor = GetTemporary(context, node, kMyTensorIdx);
 101:C:/Renesas/e2studio_2021_01_workspace_RZA2M_ANPR/ANPR_RZA2M_RDK/src/tensorflow_lite/src/tensorflow/lite/kernels\kernel_util.h **** //   TF_LITE_ENSURE(context, my_tensor != nullptr);
 102:C:/Renesas/e2studio_2021_01_workspace_RZA2M_ANPR/ANPR_RZA2M_RDK/src/tensorflow_lite/src/tensorflow/lite/kernels\kernel_util.h **** //
 103:C:/Renesas/e2studio_2021_01_workspace_RZA2M_ANPR/ANPR_RZA2M_RDK/src/tensorflow_lite/src/tensorflow/lite/kernels\kernel_util.h **** // This is because the index might point to the optional tensor constant
 104:C:/Renesas/e2studio_2021_01_workspace_RZA2M_ANPR/ANPR_RZA2M_RDK/src/tensorflow_lite/src/tensorflow/lite/kernels\kernel_util.h **** // (kTfLiteOptionalTensor) in which case there is no tensor to return.
 105:C:/Renesas/e2studio_2021_01_workspace_RZA2M_ANPR/ANPR_RZA2M_RDK/src/tensorflow_lite/src/tensorflow/lite/kernels\kernel_util.h **** TfLiteTensor* GetTemporary(TfLiteContext* context, const TfLiteNode* node,
 106:C:/Renesas/e2studio_2021_01_workspace_RZA2M_ANPR/ANPR_RZA2M_RDK/src/tensorflow_lite/src/tensorflow/lite/kernels\kernel_util.h ****                            int index);
 107:C:/Renesas/e2studio_2021_01_workspace_RZA2M_ANPR/ANPR_RZA2M_RDK/src/tensorflow_lite/src/tensorflow/lite/kernels\kernel_util.h **** 
 108:C:/Renesas/e2studio_2021_01_workspace_RZA2M_ANPR/ANPR_RZA2M_RDK/src/tensorflow_lite/src/tensorflow/lite/kernels\kernel_util.h **** // Same as `GetTemporary` but returns boolean and uses output argument for
 109:C:/Renesas/e2studio_2021_01_workspace_RZA2M_ANPR/ANPR_RZA2M_RDK/src/tensorflow_lite/src/tensorflow/lite/kernels\kernel_util.h **** // tensor.
 110:C:/Renesas/e2studio_2021_01_workspace_RZA2M_ANPR/ANPR_RZA2M_RDK/src/tensorflow_lite/src/tensorflow/lite/kernels\kernel_util.h **** //
 111:C:/Renesas/e2studio_2021_01_workspace_RZA2M_ANPR/ANPR_RZA2M_RDK/src/tensorflow_lite/src/tensorflow/lite/kernels\kernel_util.h **** //   TfLiteTensor* my_tensor;
 112:C:/Renesas/e2studio_2021_01_workspace_RZA2M_ANPR/ANPR_RZA2M_RDK/src/tensorflow_lite/src/tensorflow/lite/kernels\kernel_util.h **** //   TF_LITE_ENSURE_OK(context,
 113:C:/Renesas/e2studio_2021_01_workspace_RZA2M_ANPR/ANPR_RZA2M_RDK/src/tensorflow_lite/src/tensorflow/lite/kernels\kernel_util.h **** //                     GetTemporarySafe(context, node, kMyTensorIdx,
 114:C:/Renesas/e2studio_2021_01_workspace_RZA2M_ANPR/ANPR_RZA2M_RDK/src/tensorflow_lite/src/tensorflow/lite/kernels\kernel_util.h **** //                     &my_tensor));
 115:C:/Renesas/e2studio_2021_01_workspace_RZA2M_ANPR/ANPR_RZA2M_RDK/src/tensorflow_lite/src/tensorflow/lite/kernels\kernel_util.h **** //   // can use my_tensor directly from here onwards, it is not nullptr
 116:C:/Renesas/e2studio_2021_01_workspace_RZA2M_ANPR/ANPR_RZA2M_RDK/src/tensorflow_lite/src/tensorflow/lite/kernels\kernel_util.h **** //
 117:C:/Renesas/e2studio_2021_01_workspace_RZA2M_ANPR/ANPR_RZA2M_RDK/src/tensorflow_lite/src/tensorflow/lite/kernels\kernel_util.h **** // Should be used in cases where the binary size is too large.
 118:C:/Renesas/e2studio_2021_01_workspace_RZA2M_ANPR/ANPR_RZA2M_RDK/src/tensorflow_lite/src/tensorflow/lite/kernels\kernel_util.h **** TfLiteStatus GetTemporarySafe(const TfLiteContext* context,
 119:C:/Renesas/e2studio_2021_01_workspace_RZA2M_ANPR/ANPR_RZA2M_RDK/src/tensorflow_lite/src/tensorflow/lite/kernels\kernel_util.h ****                               const TfLiteNode* node, int index,
 120:C:/Renesas/e2studio_2021_01_workspace_RZA2M_ANPR/ANPR_RZA2M_RDK/src/tensorflow_lite/src/tensorflow/lite/kernels\kernel_util.h ****                               TfLiteTensor** tensor);
 121:C:/Renesas/e2studio_2021_01_workspace_RZA2M_ANPR/ANPR_RZA2M_RDK/src/tensorflow_lite/src/tensorflow/lite/kernels\kernel_util.h **** 
 122:C:/Renesas/e2studio_2021_01_workspace_RZA2M_ANPR/ANPR_RZA2M_RDK/src/tensorflow_lite/src/tensorflow/lite/kernels\kernel_util.h **** // Note: You must check if result is not null:
 123:C:/Renesas/e2studio_2021_01_workspace_RZA2M_ANPR/ANPR_RZA2M_RDK/src/tensorflow_lite/src/tensorflow/lite/kernels\kernel_util.h **** //
 124:C:/Renesas/e2studio_2021_01_workspace_RZA2M_ANPR/ANPR_RZA2M_RDK/src/tensorflow_lite/src/tensorflow/lite/kernels\kernel_util.h **** //   TfLiteTensor* my_tensor = GetIntermediates(context, node, kMyTensorIdx);
 125:C:/Renesas/e2studio_2021_01_workspace_RZA2M_ANPR/ANPR_RZA2M_RDK/src/tensorflow_lite/src/tensorflow/lite/kernels\kernel_util.h **** //   TF_LITE_ENSURE(context, my_tensor != nullptr);
 126:C:/Renesas/e2studio_2021_01_workspace_RZA2M_ANPR/ANPR_RZA2M_RDK/src/tensorflow_lite/src/tensorflow/lite/kernels\kernel_util.h **** //
 127:C:/Renesas/e2studio_2021_01_workspace_RZA2M_ANPR/ANPR_RZA2M_RDK/src/tensorflow_lite/src/tensorflow/lite/kernels\kernel_util.h **** // This is because the index might point to the optional tensor constant
 128:C:/Renesas/e2studio_2021_01_workspace_RZA2M_ANPR/ANPR_RZA2M_RDK/src/tensorflow_lite/src/tensorflow/lite/kernels\kernel_util.h **** // (kTfLiteOptionalTensor) in which case there is no tensor to return.
 129:C:/Renesas/e2studio_2021_01_workspace_RZA2M_ANPR/ANPR_RZA2M_RDK/src/tensorflow_lite/src/tensorflow/lite/kernels\kernel_util.h **** const TfLiteTensor* GetIntermediates(TfLiteContext* context,
 130:C:/Renesas/e2studio_2021_01_workspace_RZA2M_ANPR/ANPR_RZA2M_RDK/src/tensorflow_lite/src/tensorflow/lite/kernels\kernel_util.h ****                                      const TfLiteNode* node, int index);
 131:C:/Renesas/e2studio_2021_01_workspace_RZA2M_ANPR/ANPR_RZA2M_RDK/src/tensorflow_lite/src/tensorflow/lite/kernels\kernel_util.h **** 
 132:C:/Renesas/e2studio_2021_01_workspace_RZA2M_ANPR/ANPR_RZA2M_RDK/src/tensorflow_lite/src/tensorflow/lite/kernels\kernel_util.h **** // Same as `GetIntermediates` but returns boolean and uses output argument for
 133:C:/Renesas/e2studio_2021_01_workspace_RZA2M_ANPR/ANPR_RZA2M_RDK/src/tensorflow_lite/src/tensorflow/lite/kernels\kernel_util.h **** // tensor.
 134:C:/Renesas/e2studio_2021_01_workspace_RZA2M_ANPR/ANPR_RZA2M_RDK/src/tensorflow_lite/src/tensorflow/lite/kernels\kernel_util.h **** //
 135:C:/Renesas/e2studio_2021_01_workspace_RZA2M_ANPR/ANPR_RZA2M_RDK/src/tensorflow_lite/src/tensorflow/lite/kernels\kernel_util.h **** //   TfLiteTensor* my_tensor;
 136:C:/Renesas/e2studio_2021_01_workspace_RZA2M_ANPR/ANPR_RZA2M_RDK/src/tensorflow_lite/src/tensorflow/lite/kernels\kernel_util.h **** //   TF_LITE_ENSURE_OK(context,
 137:C:/Renesas/e2studio_2021_01_workspace_RZA2M_ANPR/ANPR_RZA2M_RDK/src/tensorflow_lite/src/tensorflow/lite/kernels\kernel_util.h **** //                     GetIntermediatesSafe(context, node, kMyTensorIdx,
 138:C:/Renesas/e2studio_2021_01_workspace_RZA2M_ANPR/ANPR_RZA2M_RDK/src/tensorflow_lite/src/tensorflow/lite/kernels\kernel_util.h **** //                     &my_tensor));
 139:C:/Renesas/e2studio_2021_01_workspace_RZA2M_ANPR/ANPR_RZA2M_RDK/src/tensorflow_lite/src/tensorflow/lite/kernels\kernel_util.h **** //   // can use my_tensor directly from here onwards, it is not nullptr
 140:C:/Renesas/e2studio_2021_01_workspace_RZA2M_ANPR/ANPR_RZA2M_RDK/src/tensorflow_lite/src/tensorflow/lite/kernels\kernel_util.h **** //
 141:C:/Renesas/e2studio_2021_01_workspace_RZA2M_ANPR/ANPR_RZA2M_RDK/src/tensorflow_lite/src/tensorflow/lite/kernels\kernel_util.h **** // Should be used in cases where the binary size is too large.
 142:C:/Renesas/e2studio_2021_01_workspace_RZA2M_ANPR/ANPR_RZA2M_RDK/src/tensorflow_lite/src/tensorflow/lite/kernels\kernel_util.h **** TfLiteStatus GetIntermediatesSafe(const TfLiteContext* context,
 143:C:/Renesas/e2studio_2021_01_workspace_RZA2M_ANPR/ANPR_RZA2M_RDK/src/tensorflow_lite/src/tensorflow/lite/kernels\kernel_util.h ****                                   const TfLiteNode* node, int index,
 144:C:/Renesas/e2studio_2021_01_workspace_RZA2M_ANPR/ANPR_RZA2M_RDK/src/tensorflow_lite/src/tensorflow/lite/kernels\kernel_util.h ****                                   TfLiteTensor** tensor);
 145:C:/Renesas/e2studio_2021_01_workspace_RZA2M_ANPR/ANPR_RZA2M_RDK/src/tensorflow_lite/src/tensorflow/lite/kernels\kernel_util.h **** #endif  // TF_LITE_STATIC_MEMORY
 146:C:/Renesas/e2studio_2021_01_workspace_RZA2M_ANPR/ANPR_RZA2M_RDK/src/tensorflow_lite/src/tensorflow/lite/kernels\kernel_util.h **** 
 147:C:/Renesas/e2studio_2021_01_workspace_RZA2M_ANPR/ANPR_RZA2M_RDK/src/tensorflow_lite/src/tensorflow/lite/kernels\kernel_util.h **** inline int NumDimensions(const TfLiteTensor* t) { return t->dims->size; }
 148:C:/Renesas/e2studio_2021_01_workspace_RZA2M_ANPR/ANPR_RZA2M_RDK/src/tensorflow_lite/src/tensorflow/lite/kernels\kernel_util.h **** inline int SizeOfDimension(const TfLiteTensor* t, int dim) {
 149:C:/Renesas/e2studio_2021_01_workspace_RZA2M_ANPR/ANPR_RZA2M_RDK/src/tensorflow_lite/src/tensorflow/lite/kernels\kernel_util.h ****   return t->dims->data[dim];
 150:C:/Renesas/e2studio_2021_01_workspace_RZA2M_ANPR/ANPR_RZA2M_RDK/src/tensorflow_lite/src/tensorflow/lite/kernels\kernel_util.h **** }
 151:C:/Renesas/e2studio_2021_01_workspace_RZA2M_ANPR/ANPR_RZA2M_RDK/src/tensorflow_lite/src/tensorflow/lite/kernels\kernel_util.h **** 
 152:C:/Renesas/e2studio_2021_01_workspace_RZA2M_ANPR/ANPR_RZA2M_RDK/src/tensorflow_lite/src/tensorflow/lite/kernels\kernel_util.h **** inline int NumInputs(const TfLiteNode* node) { return node->inputs->size; }
  99              		.loc 2 152 0
 100 002c 002095E5 		ldr	r2, [r5]
 101              	.LBE2161:
 102              	.LBE2160:
 103              	.LBE2159:
 104              	.LBE2158:
  82:../src/tensorflow_lite/src/tensorflow/lite/micro/kernels/tanh.cpp ****   data->input_zero_point = input->params.zero_point;
 105              		.loc 1 82 0
 106 0030 103090E5 		ldr	r3, [r0, #16]
 107              	.LBB2177:
 108              	.LBB2173:
 109              	.LBB2163:
 110              	.LBB2162:
 111              		.loc 2 152 0
 112 0034 008092E5 		ldr	r8, [r2]
 113              	.LBE2162:
 114              	.LBE2163:
 115              	.LBE2173:
 116              	.LBE2177:
 117              		.loc 1 82 0
 118 0038 003087E5 		str	r3, [r7]
 119              	.LVL7:
 120              	.LBB2178:
 121              	.LBB2174:
  51:../src/tensorflow_lite/src/tensorflow/lite/micro/kernels/tanh.cpp ****   TF_LITE_ENSURE_EQ(context, NumOutputs(node), 1);
 122              		.loc 1 51 0
 123 003c 010058E3 		cmp	r8, #1
 124 0040 3F00001A 		bne	.L21
 125              	.LVL8:
 126              	.LBB2164:
 127              	.LBB2165:
 153:C:/Renesas/e2studio_2021_01_workspace_RZA2M_ANPR/ANPR_RZA2M_RDK/src/tensorflow_lite/src/tensorflow/lite/kernels\kernel_util.h **** inline int NumOutputs(const TfLiteNode* node) { return node->outputs->size; }
 128              		.loc 2 153 0
 129 0044 043095E5 		ldr	r3, [r5, #4]
 130 0048 004093E5 		ldr	r4, [r3]
 131              	.LBE2165:
 132              	.LBE2164:
  52:../src/tensorflow_lite/src/tensorflow/lite/micro/kernels/tanh.cpp ****   const TfLiteTensor* input = GetInput(context, node, kInputTensor);
 133              		.loc 1 52 0
 134 004c 010054E3 		cmp	r4, #1
 135 0050 1300000A 		beq	.L13
 136              	.LVL9:
 137 0054 000000E3 		movw	r0, #:lower16:.LC5
 138              	.LVL10:
 139 0058 003000E3 		movw	r3, #:lower16:.LC7
 140 005c 000040E3 		movt	r0, #:upper16:.LC5
 141 0060 003040E3 		movt	r3, #:upper16:.LC7
 142 0064 002000E3 		movw	r2, #:lower16:.LC1
 143 0068 001000E3 		movw	r1, #:lower16:.LC4
 144 006c 04008DE5 		str	r0, [sp, #4]
 145 0070 002040E3 		movt	r2, #:upper16:.LC1
 146 0074 00308DE5 		str	r3, [sp]
 147 0078 001040E3 		movt	r1, #:upper16:.LC4
 148 007c 0C808DE5 		str	r8, [sp, #12]
 149 0080 0600A0E1 		mov	r0, r6
 150 0084 08408DE5 		str	r4, [sp, #8]
 151 0088 3430A0E3 		mov	r3, #52
 152 008c 144096E5 		ldr	r4, [r6, #20]
 153 0090 34FF2FE1 		blx	r4
 154              	.LVL11:
 155 0094 0840A0E1 		mov	r4, r8
 156              	.LVL12:
 157              	.L11:
 158              	.LBE2174:
 159              	.LBE2178:
  83:../src/tensorflow_lite/src/tensorflow/lite/micro/kernels/tanh.cpp ****   return CalculateArithmeticOpData(context, node, data);
  84:../src/tensorflow_lite/src/tensorflow/lite/micro/kernels/tanh.cpp **** }
 160              		.loc 1 84 0
 161 0098 0400A0E1 		mov	r0, r4
 162 009c 10D08DE2 		add	sp, sp, #16
 163              		.cfi_remember_state
 164              		.cfi_def_cfa_offset 24
 165              		@ sp needed
 166 00a0 F081BDE8 		pop	{r4, r5, r6, r7, r8, pc}
 167              	.LVL13:
 168              	.L13:
 169              		.cfi_restore_state
 170              	.LBB2179:
 171              	.LBB2175:
  53:../src/tensorflow_lite/src/tensorflow/lite/micro/kernels/tanh.cpp ****   TF_LITE_ENSURE(context, input != nullptr);
 172              		.loc 1 53 0
 173 00a4 0020A0E3 		mov	r2, #0
 174 00a8 0510A0E1 		mov	r1, r5
 175 00ac 0600A0E1 		mov	r0, r6
 176              	.LVL14:
 177 00b0 FEFFFFEB 		bl	_ZN6tflite8GetInputEPK13TfLiteContextPK10TfLiteNodei
 178              	.LVL15:
  54:../src/tensorflow_lite/src/tensorflow/lite/micro/kernels/tanh.cpp ****   TfLiteTensor* output = GetOutput(context, node, kOutputTensor);
 179              		.loc 1 54 0
 180 00b4 008050E2 		subs	r8, r0, #0
 181 00b8 5700000A 		beq	.L22
  55:../src/tensorflow_lite/src/tensorflow/lite/micro/kernels/tanh.cpp ****   TF_LITE_ENSURE(context, output != nullptr);
 182              		.loc 1 55 0
 183 00bc 0510A0E1 		mov	r1, r5
 184 00c0 0020A0E3 		mov	r2, #0
 185 00c4 0600A0E1 		mov	r0, r6
 186              	.LVL16:
 187 00c8 FEFFFFEB 		bl	_ZN6tflite9GetOutputEP13TfLiteContextPK10TfLiteNodei
 188              	.LVL17:
  56:../src/tensorflow_lite/src/tensorflow/lite/micro/kernels/tanh.cpp **** 
 189              		.loc 1 56 0
 190 00cc 005050E2 		subs	r5, r0, #0
 191              	.LVL18:
 192 00d0 5D00000A 		beq	.L23
  58:../src/tensorflow_lite/src/tensorflow/lite/micro/kernels/tanh.cpp **** 
 193              		.loc 1 58 0
 194 00d4 0000D8E5 		ldrb	r0, [r8]	@ zero_extendqisi2
 195              	.LVL19:
 196 00d8 0030D5E5 		ldrb	r3, [r5]	@ zero_extendqisi2
 197 00dc 000053E1 		cmp	r3, r0
 198 00e0 3900001A 		bne	.L24
 199              	.LBB2166:
  60:../src/tensorflow_lite/src/tensorflow/lite/micro/kernels/tanh.cpp ****     static constexpr int kInputIntegerBits = 4;
 200              		.loc 1 60 0
 201 00e4 090053E3 		cmp	r3, #9
 202 00e8 03005313 		cmpne	r3, #3
 203 00ec 0030A013 		movne	r3, #0
 204 00f0 0130A003 		moveq	r3, #1
 205              	.LBE2166:
  72:../src/tensorflow_lite/src/tensorflow/lite/micro/kernels/tanh.cpp **** }
 206              		.loc 1 72 0
 207 00f4 0340A011 		movne	r4, r3
 208              	.LBB2171:
  60:../src/tensorflow_lite/src/tensorflow/lite/micro/kernels/tanh.cpp ****     static constexpr int kInputIntegerBits = 4;
 209              		.loc 1 60 0
 210 00f8 E6FFFF1A 		bne	.L11
 211              	.LVL20:
 212              	.LBB2167:
  63:../src/tensorflow_lite/src/tensorflow/lite/micro/kernels/tanh.cpp ****         static_cast<double>(1 << (31 - kInputIntegerBits));
 213              		.loc 1 63 0
 214 00fc 037AD8ED 		vldr.32	s15, [r8, #12]
  66:../src/tensorflow_lite/src/tensorflow/lite/micro/kernels/tanh.cpp ****     data->input_multiplier = static_cast<int32_t>(TfLiteRound(q * (1ll << 31)));
 215              		.loc 1 66 0
 216 0100 0C0087E2 		add	r0, r7, #12
  64:../src/tensorflow_lite/src/tensorflow/lite/micro/kernels/tanh.cpp **** 
 217              		.loc 1 64 0
 218 0104 5D0B9FED 		vldr.64	d0, .L25
 219              	.LBE2167:
 220              	.LBE2171:
  72:../src/tensorflow_lite/src/tensorflow/lite/micro/kernels/tanh.cpp **** }
 221              		.loc 1 72 0
 222 0108 0040A0E3 		mov	r4, #0
 223              	.LBB2172:
 224              	.LBB2170:
  63:../src/tensorflow_lite/src/tensorflow/lite/micro/kernels/tanh.cpp ****         static_cast<double>(1 << (31 - kInputIntegerBits));
 225              		.loc 1 63 0
 226 010c E70AF7EE 		vcvt.f64.f32	d16, s15
  66:../src/tensorflow_lite/src/tensorflow/lite/micro/kernels/tanh.cpp ****     data->input_multiplier = static_cast<int32_t>(TfLiteRound(q * (1ll << 31)));
 227              		.loc 1 66 0
 228 0110 800B20EE 		vmul.f64	d0, d16, d0
 229              	.LVL21:
 230 0114 FEFFFFEB 		bl	frexp
 231              	.LVL22:
  67:../src/tensorflow_lite/src/tensorflow/lite/micro/kernels/tanh.cpp **** 
 232              		.loc 1 67 0
 233 0118 5A0BDFED 		vldr.64	d16, .L25+8
 234              	.LBB2168:
 235              	.LBB2169:
 236              		.file 3 "C:/Renesas/e2studio_2021_01_workspace_RZA2M_ANPR/ANPR_RZA2M_RDK/src/tensorflow_lite/src/t
   1:C:/Renesas/e2studio_2021_01_workspace_RZA2M_ANPR/ANPR_RZA2M_RDK/src/tensorflow_lite/src/tensorflow/lite/kernels/internal\cppmath.h **** /* Copyright 2020 The TensorFlow Authors. All Rights Reserved.
   2:C:/Renesas/e2studio_2021_01_workspace_RZA2M_ANPR/ANPR_RZA2M_RDK/src/tensorflow_lite/src/tensorflow/lite/kernels/internal\cppmath.h **** 
   3:C:/Renesas/e2studio_2021_01_workspace_RZA2M_ANPR/ANPR_RZA2M_RDK/src/tensorflow_lite/src/tensorflow/lite/kernels/internal\cppmath.h **** Licensed under the Apache License, Version 2.0 (the "License");
   4:C:/Renesas/e2studio_2021_01_workspace_RZA2M_ANPR/ANPR_RZA2M_RDK/src/tensorflow_lite/src/tensorflow/lite/kernels/internal\cppmath.h **** you may not use this file except in compliance with the License.
   5:C:/Renesas/e2studio_2021_01_workspace_RZA2M_ANPR/ANPR_RZA2M_RDK/src/tensorflow_lite/src/tensorflow/lite/kernels/internal\cppmath.h **** You may obtain a copy of the License at
   6:C:/Renesas/e2studio_2021_01_workspace_RZA2M_ANPR/ANPR_RZA2M_RDK/src/tensorflow_lite/src/tensorflow/lite/kernels/internal\cppmath.h **** 
   7:C:/Renesas/e2studio_2021_01_workspace_RZA2M_ANPR/ANPR_RZA2M_RDK/src/tensorflow_lite/src/tensorflow/lite/kernels/internal\cppmath.h ****     http://www.apache.org/licenses/LICENSE-2.0
   8:C:/Renesas/e2studio_2021_01_workspace_RZA2M_ANPR/ANPR_RZA2M_RDK/src/tensorflow_lite/src/tensorflow/lite/kernels/internal\cppmath.h **** 
   9:C:/Renesas/e2studio_2021_01_workspace_RZA2M_ANPR/ANPR_RZA2M_RDK/src/tensorflow_lite/src/tensorflow/lite/kernels/internal\cppmath.h **** Unless required by applicable law or agreed to in writing, software
  10:C:/Renesas/e2studio_2021_01_workspace_RZA2M_ANPR/ANPR_RZA2M_RDK/src/tensorflow_lite/src/tensorflow/lite/kernels/internal\cppmath.h **** distributed under the License is distributed on an "AS IS" BASIS,
  11:C:/Renesas/e2studio_2021_01_workspace_RZA2M_ANPR/ANPR_RZA2M_RDK/src/tensorflow_lite/src/tensorflow/lite/kernels/internal\cppmath.h **** WITHOUT WARRANTIES OR CONDITIONS OF ANY KIND, either express or implied.
  12:C:/Renesas/e2studio_2021_01_workspace_RZA2M_ANPR/ANPR_RZA2M_RDK/src/tensorflow_lite/src/tensorflow/lite/kernels/internal\cppmath.h **** See the License for the specific language governing permissions and
  13:C:/Renesas/e2studio_2021_01_workspace_RZA2M_ANPR/ANPR_RZA2M_RDK/src/tensorflow_lite/src/tensorflow/lite/kernels/internal\cppmath.h **** limitations under the License.
  14:C:/Renesas/e2studio_2021_01_workspace_RZA2M_ANPR/ANPR_RZA2M_RDK/src/tensorflow_lite/src/tensorflow/lite/kernels/internal\cppmath.h **** ==============================================================================*/
  15:C:/Renesas/e2studio_2021_01_workspace_RZA2M_ANPR/ANPR_RZA2M_RDK/src/tensorflow_lite/src/tensorflow/lite/kernels/internal\cppmath.h **** #ifndef TENSORFLOW_LITE_KERNELS_INTERNAL_CPPMATH_H_
  16:C:/Renesas/e2studio_2021_01_workspace_RZA2M_ANPR/ANPR_RZA2M_RDK/src/tensorflow_lite/src/tensorflow/lite/kernels/internal\cppmath.h **** #define TENSORFLOW_LITE_KERNELS_INTERNAL_CPPMATH_H_
  17:C:/Renesas/e2studio_2021_01_workspace_RZA2M_ANPR/ANPR_RZA2M_RDK/src/tensorflow_lite/src/tensorflow/lite/kernels/internal\cppmath.h **** 
  18:C:/Renesas/e2studio_2021_01_workspace_RZA2M_ANPR/ANPR_RZA2M_RDK/src/tensorflow_lite/src/tensorflow/lite/kernels/internal\cppmath.h **** #include <cmath>
  19:C:/Renesas/e2studio_2021_01_workspace_RZA2M_ANPR/ANPR_RZA2M_RDK/src/tensorflow_lite/src/tensorflow/lite/kernels/internal\cppmath.h **** 
  20:C:/Renesas/e2studio_2021_01_workspace_RZA2M_ANPR/ANPR_RZA2M_RDK/src/tensorflow_lite/src/tensorflow/lite/kernels/internal\cppmath.h **** namespace tflite {
  21:C:/Renesas/e2studio_2021_01_workspace_RZA2M_ANPR/ANPR_RZA2M_RDK/src/tensorflow_lite/src/tensorflow/lite/kernels/internal\cppmath.h **** 
  22:C:/Renesas/e2studio_2021_01_workspace_RZA2M_ANPR/ANPR_RZA2M_RDK/src/tensorflow_lite/src/tensorflow/lite/kernels/internal\cppmath.h **** #if defined(TF_LITE_USE_GLOBAL_CMATH_FUNCTIONS) ||                           \
  23:C:/Renesas/e2studio_2021_01_workspace_RZA2M_ANPR/ANPR_RZA2M_RDK/src/tensorflow_lite/src/tensorflow/lite/kernels/internal\cppmath.h ****     (defined(__ANDROID__) && !defined(__NDK_MAJOR__)) || defined(ARDUINO) || \
  24:C:/Renesas/e2studio_2021_01_workspace_RZA2M_ANPR/ANPR_RZA2M_RDK/src/tensorflow_lite/src/tensorflow/lite/kernels/internal\cppmath.h ****     defined(__ZEPHYR__)
  25:C:/Renesas/e2studio_2021_01_workspace_RZA2M_ANPR/ANPR_RZA2M_RDK/src/tensorflow_lite/src/tensorflow/lite/kernels/internal\cppmath.h **** #define TF_LITE_GLOBAL_STD_PREFIX
  26:C:/Renesas/e2studio_2021_01_workspace_RZA2M_ANPR/ANPR_RZA2M_RDK/src/tensorflow_lite/src/tensorflow/lite/kernels/internal\cppmath.h **** #else
  27:C:/Renesas/e2studio_2021_01_workspace_RZA2M_ANPR/ANPR_RZA2M_RDK/src/tensorflow_lite/src/tensorflow/lite/kernels/internal\cppmath.h **** #define TF_LITE_GLOBAL_STD_PREFIX std
  28:C:/Renesas/e2studio_2021_01_workspace_RZA2M_ANPR/ANPR_RZA2M_RDK/src/tensorflow_lite/src/tensorflow/lite/kernels/internal\cppmath.h **** #endif
  29:C:/Renesas/e2studio_2021_01_workspace_RZA2M_ANPR/ANPR_RZA2M_RDK/src/tensorflow_lite/src/tensorflow/lite/kernels/internal\cppmath.h **** 
  30:C:/Renesas/e2studio_2021_01_workspace_RZA2M_ANPR/ANPR_RZA2M_RDK/src/tensorflow_lite/src/tensorflow/lite/kernels/internal\cppmath.h **** #define DECLARE_STD_GLOBAL_SWITCH1(tf_name, std_name) \
  31:C:/Renesas/e2studio_2021_01_workspace_RZA2M_ANPR/ANPR_RZA2M_RDK/src/tensorflow_lite/src/tensorflow/lite/kernels/internal\cppmath.h ****   template <class T>                                  \
  32:C:/Renesas/e2studio_2021_01_workspace_RZA2M_ANPR/ANPR_RZA2M_RDK/src/tensorflow_lite/src/tensorflow/lite/kernels/internal\cppmath.h ****   inline T tf_name(const T x) {                       \
  33:C:/Renesas/e2studio_2021_01_workspace_RZA2M_ANPR/ANPR_RZA2M_RDK/src/tensorflow_lite/src/tensorflow/lite/kernels/internal\cppmath.h ****     return TF_LITE_GLOBAL_STD_PREFIX::std_name(x);    \
  34:C:/Renesas/e2studio_2021_01_workspace_RZA2M_ANPR/ANPR_RZA2M_RDK/src/tensorflow_lite/src/tensorflow/lite/kernels/internal\cppmath.h ****   }
  35:C:/Renesas/e2studio_2021_01_workspace_RZA2M_ANPR/ANPR_RZA2M_RDK/src/tensorflow_lite/src/tensorflow/lite/kernels/internal\cppmath.h **** 
  36:C:/Renesas/e2studio_2021_01_workspace_RZA2M_ANPR/ANPR_RZA2M_RDK/src/tensorflow_lite/src/tensorflow/lite/kernels/internal\cppmath.h **** DECLARE_STD_GLOBAL_SWITCH1(TfLiteRound, round);
 237              		.loc 3 36 0
 238 011c 200B20EE 		vmul.f64	d0, d0, d16
 239              	.LVL23:
 240 0120 FEFFFFEB 		bl	round
 241              	.LVL24:
 242              	.LBE2169:
 243              	.LBE2168:
  67:../src/tensorflow_lite/src/tensorflow/lite/micro/kernels/tanh.cpp **** 
 244              		.loc 1 67 0
 245 0124 C00BBDEE 		vcvt.s32.f64	s0, d0
  70:../src/tensorflow_lite/src/tensorflow/lite/micro/kernels/tanh.cpp ****   }
 246              		.loc 1 70 0
 247 0128 1F20A0E3 		mov	r2, #31
 248 012c 0C1097E5 		ldr	r1, [r7, #12]
 249 0130 0400A0E3 		mov	r0, #4
  67:../src/tensorflow_lite/src/tensorflow/lite/micro/kernels/tanh.cpp **** 
 250              		.loc 1 67 0
 251 0134 020A87ED 		vstr.32	s0, [r7, #8]	@ int
  70:../src/tensorflow_lite/src/tensorflow/lite/micro/kernels/tanh.cpp ****   }
 252              		.loc 1 70 0
 253 0138 FEFFFFEB 		bl	_ZN6tflite20CalculateInputRadiusEiii
 254              	.LVL25:
  69:../src/tensorflow_lite/src/tensorflow/lite/micro/kernels/tanh.cpp ****         CalculateInputRadius(kInputIntegerBits, data->input_left_shift, 31);
 255              		.loc 1 69 0
 256 013c 040087E5 		str	r0, [r7, #4]
 257 0140 D4FFFFEA 		b	.L11
 258              	.LVL26:
 259              	.L21:
 260              	.LBE2170:
 261              	.LBE2172:
  51:../src/tensorflow_lite/src/tensorflow/lite/micro/kernels/tanh.cpp ****   TF_LITE_ENSURE_EQ(context, NumOutputs(node), 1);
 262              		.loc 1 51 0
 263 0144 000000E3 		movw	r0, #:lower16:.LC5
 264              	.LVL27:
 265 0148 003000E3 		movw	r3, #:lower16:.LC6
 266 014c 0140A0E3 		mov	r4, #1
 267 0150 000040E3 		movt	r0, #:upper16:.LC5
 268 0154 003040E3 		movt	r3, #:upper16:.LC6
 269 0158 002000E3 		movw	r2, #:lower16:.LC1
 270 015c 001000E3 		movw	r1, #:lower16:.LC4
 271 0160 01018DE9 		stmib	sp, {r0, r8}
 272 0164 00308DE5 		str	r3, [sp]
 273 0168 0600A0E1 		mov	r0, r6
 274 016c 0C408DE5 		str	r4, [sp, #12]
 275 0170 002040E3 		movt	r2, #:upper16:.LC1
 276 0174 001040E3 		movt	r1, #:upper16:.LC4
 277 0178 145096E5 		ldr	r5, [r6, #20]
 278              	.LVL28:
 279 017c 3330A0E3 		mov	r3, #51
 280 0180 35FF2FE1 		blx	r5
 281              	.LVL29:
 282              	.LBE2175:
 283              	.LBE2179:
 284              		.loc 1 84 0
 285 0184 0400A0E1 		mov	r0, r4
 286 0188 10D08DE2 		add	sp, sp, #16
 287              		.cfi_remember_state
 288              		.cfi_def_cfa_offset 24
 289              		@ sp needed
 290 018c F081BDE8 		pop	{r4, r5, r6, r7, r8, pc}
 291              	.LVL30:
 292              	.L20:
 293              		.cfi_restore_state
 294              	.LBB2180:
 295              	.LBB2181:
  81:../src/tensorflow_lite/src/tensorflow/lite/micro/kernels/tanh.cpp ****   data->input_zero_point = input->params.zero_point;
 296              		.loc 1 81 0
 297 0190 003000E3 		movw	r3, #:lower16:.LC3
 298 0194 002000E3 		movw	r2, #:lower16:.LC1
 299 0198 003040E3 		movt	r3, #:upper16:.LC3
 300 019c 001000E3 		movw	r1, #:lower16:.LC2
 301 01a0 00308DE5 		str	r3, [sp]
 302 01a4 0600A0E1 		mov	r0, r6
 303              	.LVL31:
 304 01a8 144096E5 		ldr	r4, [r6, #20]
 305 01ac 002040E3 		movt	r2, #:upper16:.LC1
 306 01b0 001040E3 		movt	r1, #:upper16:.LC2
 307 01b4 5130A0E3 		mov	r3, #81
 308 01b8 34FF2FE1 		blx	r4
 309              	.LVL32:
 310 01bc 0140A0E3 		mov	r4, #1
 311              	.LBE2181:
 312              	.LBE2180:
 313              		.loc 1 84 0
 314 01c0 0400A0E1 		mov	r0, r4
 315 01c4 10D08DE2 		add	sp, sp, #16
 316              		.cfi_remember_state
 317              		.cfi_def_cfa_offset 24
 318              		@ sp needed
 319 01c8 F081BDE8 		pop	{r4, r5, r6, r7, r8, pc}
 320              	.LVL33:
 321              	.L24:
 322              		.cfi_restore_state
 323              	.LBB2182:
 324              	.LBB2176:
  58:../src/tensorflow_lite/src/tensorflow/lite/micro/kernels/tanh.cpp **** 
 325              		.loc 1 58 0
 326 01cc 147096E5 		ldr	r7, [r6, #20]
 327              	.LVL34:
 328 01d0 FEFFFFEB 		bl	TfLiteTypeGetName
 329              	.LVL35:
 330 01d4 0080A0E1 		mov	r8, r0
 331              	.LVL36:
 332 01d8 0000D5E5 		ldrb	r0, [r5]	@ zero_extendqisi2
 333 01dc FEFFFFEB 		bl	TfLiteTypeGetName
 334              	.LVL37:
 335 01e0 00C000E3 		movw	ip, #:lower16:.LC10
 336 01e4 003000E3 		movw	r3, #:lower16:.LC11
 337 01e8 00C040E3 		movt	ip, #:upper16:.LC10
 338 01ec 003040E3 		movt	r3, #:upper16:.LC11
 339 01f0 002000E3 		movw	r2, #:lower16:.LC1
 340 01f4 001000E3 		movw	r1, #:lower16:.LC9
 341 01f8 0C008DE5 		str	r0, [sp, #12]
 342 01fc 002040E3 		movt	r2, #:upper16:.LC1
 343 0200 08108DE8 		stm	sp, {r3, ip}
 344 0204 0600A0E1 		mov	r0, r6
 345 0208 08808DE5 		str	r8, [sp, #8]
 346 020c 001040E3 		movt	r1, #:upper16:.LC9
 347 0210 3A30A0E3 		mov	r3, #58
 348 0214 37FF2FE1 		blx	r7
 349              	.LVL38:
 350 0218 9EFFFFEA 		b	.L11
 351              	.LVL39:
 352              	.L22:
  54:../src/tensorflow_lite/src/tensorflow/lite/micro/kernels/tanh.cpp ****   TfLiteTensor* output = GetOutput(context, node, kOutputTensor);
 353              		.loc 1 54 0
 354 021c 003000E3 		movw	r3, #:lower16:.LC3
 355 0220 002000E3 		movw	r2, #:lower16:.LC1
 356 0224 003040E3 		movt	r3, #:upper16:.LC3
 357 0228 001000E3 		movw	r1, #:lower16:.LC2
 358 022c 00308DE5 		str	r3, [sp]
 359 0230 002040E3 		movt	r2, #:upper16:.LC1
 360 0234 001040E3 		movt	r1, #:upper16:.LC2
 361 0238 145096E5 		ldr	r5, [r6, #20]
 362              	.LVL40:
 363 023c 0600A0E1 		mov	r0, r6
 364              	.LVL41:
 365 0240 3630A0E3 		mov	r3, #54
 366 0244 35FF2FE1 		blx	r5
 367              	.LVL42:
 368 0248 92FFFFEA 		b	.L11
 369              	.LVL43:
 370              	.L23:
  56:../src/tensorflow_lite/src/tensorflow/lite/micro/kernels/tanh.cpp **** 
 371              		.loc 1 56 0
 372 024c 003000E3 		movw	r3, #:lower16:.LC8
 373 0250 002000E3 		movw	r2, #:lower16:.LC1
 374 0254 003040E3 		movt	r3, #:upper16:.LC8
 375 0258 001000E3 		movw	r1, #:lower16:.LC2
 376 025c 00308DE5 		str	r3, [sp]
 377 0260 002040E3 		movt	r2, #:upper16:.LC1
 378 0264 001040E3 		movt	r1, #:upper16:.LC2
 379 0268 145096E5 		ldr	r5, [r6, #20]
 380 026c 0600A0E1 		mov	r0, r6
 381              	.LVL44:
 382 0270 3830A0E3 		mov	r3, #56
 383 0274 35FF2FE1 		blx	r5
 384              	.LVL45:
 385 0278 86FFFFEA 		b	.L11
 386              	.LVL46:
 387              	.L19:
 388              	.LBE2176:
 389              	.LBE2182:
  76:../src/tensorflow_lite/src/tensorflow/lite/micro/kernels/tanh.cpp **** 
 390              		.loc 1 76 0 discriminator 1
 391 027c FEFFFFEB 		bl	abort
 392              	.LVL47:
 393              	.L26:
 394              		.align	3
 395              	.L25:
 396 0280 00000000 		.word	0
 397 0284 0000A041 		.word	1101004800
 398 0288 00000000 		.word	0
 399 028c 0000E041 		.word	1105199104
 400              		.cfi_endproc
 401              	.LFE4182:
 402              		.fnend
 404              		.section	.text._ZN6tflite3ops5micro13Register_TANHEv,"ax",%progbits
 405              		.align	2
 406              		.global	_ZN6tflite3ops5micro13Register_TANHEv
 407              		.syntax unified
 408              		.arm
 409              		.fpu neon
 411              	_ZN6tflite3ops5micro13Register_TANHEv:
 412              		.fnstart
 413              	.LFB4184:
  85:../src/tensorflow_lite/src/tensorflow/lite/micro/kernels/tanh.cpp **** 
  86:../src/tensorflow_lite/src/tensorflow/lite/micro/kernels/tanh.cpp **** }  // namespace
  87:../src/tensorflow_lite/src/tensorflow/lite/micro/kernels/tanh.cpp **** 
  88:../src/tensorflow_lite/src/tensorflow/lite/micro/kernels/tanh.cpp **** TfLiteStatus TanhEval(TfLiteContext* context, TfLiteNode* node) {
  89:../src/tensorflow_lite/src/tensorflow/lite/micro/kernels/tanh.cpp ****   const TfLiteEvalTensor* input =
  90:../src/tensorflow_lite/src/tensorflow/lite/micro/kernels/tanh.cpp ****       tflite::micro::GetEvalInput(context, node, kInputTensor);
  91:../src/tensorflow_lite/src/tensorflow/lite/micro/kernels/tanh.cpp ****   TfLiteEvalTensor* output =
  92:../src/tensorflow_lite/src/tensorflow/lite/micro/kernels/tanh.cpp ****       tflite::micro::GetEvalOutput(context, node, kOutputTensor);
  93:../src/tensorflow_lite/src/tensorflow/lite/micro/kernels/tanh.cpp **** 
  94:../src/tensorflow_lite/src/tensorflow/lite/micro/kernels/tanh.cpp ****   TFLITE_DCHECK(node->user_data != nullptr);
  95:../src/tensorflow_lite/src/tensorflow/lite/micro/kernels/tanh.cpp ****   const OpData& data = *(static_cast<const OpData*>(node->user_data));
  96:../src/tensorflow_lite/src/tensorflow/lite/micro/kernels/tanh.cpp **** 
  97:../src/tensorflow_lite/src/tensorflow/lite/micro/kernels/tanh.cpp ****   switch (input->type) {
  98:../src/tensorflow_lite/src/tensorflow/lite/micro/kernels/tanh.cpp ****     case kTfLiteFloat32: {
  99:../src/tensorflow_lite/src/tensorflow/lite/micro/kernels/tanh.cpp ****       reference_ops::Tanh(tflite::micro::GetTensorShape(input),
 100:../src/tensorflow_lite/src/tensorflow/lite/micro/kernels/tanh.cpp ****                           tflite::micro::GetTensorData<float>(input),
 101:../src/tensorflow_lite/src/tensorflow/lite/micro/kernels/tanh.cpp ****                           tflite::micro::GetTensorShape(output),
 102:../src/tensorflow_lite/src/tensorflow/lite/micro/kernels/tanh.cpp ****                           tflite::micro::GetTensorData<float>(output));
 103:../src/tensorflow_lite/src/tensorflow/lite/micro/kernels/tanh.cpp ****       return kTfLiteOk;
 104:../src/tensorflow_lite/src/tensorflow/lite/micro/kernels/tanh.cpp ****     } break;
 105:../src/tensorflow_lite/src/tensorflow/lite/micro/kernels/tanh.cpp ****     case kTfLiteInt16: {
 106:../src/tensorflow_lite/src/tensorflow/lite/micro/kernels/tanh.cpp ****       TanhParams params;
 107:../src/tensorflow_lite/src/tensorflow/lite/micro/kernels/tanh.cpp ****       params.input_left_shift = data.input_left_shift;
 108:../src/tensorflow_lite/src/tensorflow/lite/micro/kernels/tanh.cpp ****       reference_ops::Tanh(params, tflite::micro::GetTensorShape(input),
 109:../src/tensorflow_lite/src/tensorflow/lite/micro/kernels/tanh.cpp ****                           tflite::micro::GetTensorData<int16_t>(input),
 110:../src/tensorflow_lite/src/tensorflow/lite/micro/kernels/tanh.cpp ****                           tflite::micro::GetTensorShape(output),
 111:../src/tensorflow_lite/src/tensorflow/lite/micro/kernels/tanh.cpp ****                           tflite::micro::GetTensorData<int16_t>(output));
 112:../src/tensorflow_lite/src/tensorflow/lite/micro/kernels/tanh.cpp ****       return kTfLiteOk;
 113:../src/tensorflow_lite/src/tensorflow/lite/micro/kernels/tanh.cpp ****     } break;
 114:../src/tensorflow_lite/src/tensorflow/lite/micro/kernels/tanh.cpp ****     case kTfLiteUInt8: {
 115:../src/tensorflow_lite/src/tensorflow/lite/micro/kernels/tanh.cpp ****       TanhParams params;
 116:../src/tensorflow_lite/src/tensorflow/lite/micro/kernels/tanh.cpp ****       params.input_zero_point = data.input_zero_point;
 117:../src/tensorflow_lite/src/tensorflow/lite/micro/kernels/tanh.cpp ****       params.input_range_radius = data.input_range_radius;
 118:../src/tensorflow_lite/src/tensorflow/lite/micro/kernels/tanh.cpp ****       params.input_multiplier = data.input_multiplier;
 119:../src/tensorflow_lite/src/tensorflow/lite/micro/kernels/tanh.cpp ****       params.input_left_shift = data.input_left_shift;
 120:../src/tensorflow_lite/src/tensorflow/lite/micro/kernels/tanh.cpp ****       reference_ops::Tanh(params, tflite::micro::GetTensorShape(input),
 121:../src/tensorflow_lite/src/tensorflow/lite/micro/kernels/tanh.cpp ****                           tflite::micro::GetTensorData<uint8_t>(input),
 122:../src/tensorflow_lite/src/tensorflow/lite/micro/kernels/tanh.cpp ****                           tflite::micro::GetTensorShape(output),
 123:../src/tensorflow_lite/src/tensorflow/lite/micro/kernels/tanh.cpp ****                           tflite::micro::GetTensorData<uint8_t>(output));
 124:../src/tensorflow_lite/src/tensorflow/lite/micro/kernels/tanh.cpp **** 
 125:../src/tensorflow_lite/src/tensorflow/lite/micro/kernels/tanh.cpp ****       return kTfLiteOk;
 126:../src/tensorflow_lite/src/tensorflow/lite/micro/kernels/tanh.cpp ****     } break;
 127:../src/tensorflow_lite/src/tensorflow/lite/micro/kernels/tanh.cpp ****     case kTfLiteInt8: {
 128:../src/tensorflow_lite/src/tensorflow/lite/micro/kernels/tanh.cpp ****       reference_integer_ops::Tanh(
 129:../src/tensorflow_lite/src/tensorflow/lite/micro/kernels/tanh.cpp ****           data.input_zero_point, data.input_range_radius, data.input_multiplier,
 130:../src/tensorflow_lite/src/tensorflow/lite/micro/kernels/tanh.cpp ****           data.input_left_shift, tflite::micro::GetTensorShape(input),
 131:../src/tensorflow_lite/src/tensorflow/lite/micro/kernels/tanh.cpp ****           tflite::micro::GetTensorData<int8_t>(input),
 132:../src/tensorflow_lite/src/tensorflow/lite/micro/kernels/tanh.cpp ****           tflite::micro::GetTensorShape(output),
 133:../src/tensorflow_lite/src/tensorflow/lite/micro/kernels/tanh.cpp ****           tflite::micro::GetTensorData<int8_t>(output));
 134:../src/tensorflow_lite/src/tensorflow/lite/micro/kernels/tanh.cpp ****       return kTfLiteOk;
 135:../src/tensorflow_lite/src/tensorflow/lite/micro/kernels/tanh.cpp ****     } break;
 136:../src/tensorflow_lite/src/tensorflow/lite/micro/kernels/tanh.cpp ****     default:
 137:../src/tensorflow_lite/src/tensorflow/lite/micro/kernels/tanh.cpp ****       TF_LITE_KERNEL_LOG(context, "Input %s, output %s not supported.",
 138:../src/tensorflow_lite/src/tensorflow/lite/micro/kernels/tanh.cpp ****                          TfLiteTypeGetName(input->type),
 139:../src/tensorflow_lite/src/tensorflow/lite/micro/kernels/tanh.cpp ****                          TfLiteTypeGetName(output->type));
 140:../src/tensorflow_lite/src/tensorflow/lite/micro/kernels/tanh.cpp ****       return kTfLiteError;
 141:../src/tensorflow_lite/src/tensorflow/lite/micro/kernels/tanh.cpp ****   }
 142:../src/tensorflow_lite/src/tensorflow/lite/micro/kernels/tanh.cpp **** }
 143:../src/tensorflow_lite/src/tensorflow/lite/micro/kernels/tanh.cpp **** 
 144:../src/tensorflow_lite/src/tensorflow/lite/micro/kernels/tanh.cpp **** }  // namespace activations
 145:../src/tensorflow_lite/src/tensorflow/lite/micro/kernels/tanh.cpp **** 
 146:../src/tensorflow_lite/src/tensorflow/lite/micro/kernels/tanh.cpp **** TfLiteRegistration Register_TANH() {
 414              		.loc 1 146 0
 415              		.cfi_startproc
 416              		@ args = 0, pretend = 0, frame = 0
 417              		@ frame_needed = 0, uses_anonymous_args = 0
 418              	.LVL48:
 147:../src/tensorflow_lite/src/tensorflow/lite/micro/kernels/tanh.cpp ****   return {/*init=*/activations::TanhInit,
 148:../src/tensorflow_lite/src/tensorflow/lite/micro/kernels/tanh.cpp ****           /*free=*/nullptr,
 149:../src/tensorflow_lite/src/tensorflow/lite/micro/kernels/tanh.cpp ****           /*prepare=*/activations::TanhPrepare,
 150:../src/tensorflow_lite/src/tensorflow/lite/micro/kernels/tanh.cpp ****           /*invoke=*/activations::TanhEval,
 151:../src/tensorflow_lite/src/tensorflow/lite/micro/kernels/tanh.cpp ****           /*profiling_string=*/nullptr,
 152:../src/tensorflow_lite/src/tensorflow/lite/micro/kernels/tanh.cpp ****           /*builtin_code=*/0,
 153:../src/tensorflow_lite/src/tensorflow/lite/micro/kernels/tanh.cpp ****           /*custom_name=*/nullptr,
 154:../src/tensorflow_lite/src/tensorflow/lite/micro/kernels/tanh.cpp ****           /*version=*/0};
 419              		.loc 1 154 0
 420 0000 00C000E3 		movw	ip, #:lower16:.LANCHOR0
 146:../src/tensorflow_lite/src/tensorflow/lite/micro/kernels/tanh.cpp ****   return {/*init=*/activations::TanhInit,
 421              		.loc 1 146 0
 422 0004 10402DE9 		push	{r4, lr}
 423              		.cfi_def_cfa_offset 8
 424              		.cfi_offset 4, -8
 425              		.cfi_offset 14, -4
 426              		.loc 1 154 0
 427 0008 00C040E3 		movt	ip, #:upper16:.LANCHOR0
 146:../src/tensorflow_lite/src/tensorflow/lite/micro/kernels/tanh.cpp ****   return {/*init=*/activations::TanhInit,
 428              		.loc 1 146 0
 429 000c 0040A0E1 		mov	r4, r0
 430              		.loc 1 154 0
 431 0010 00E0A0E1 		mov	lr, r0
 432 0014 0F00BCE8 		ldmia	ip!, {r0, r1, r2, r3}
 433              	.LVL49:
 434 0018 0F00AEE8 		stmia	lr!, {r0, r1, r2, r3}
 435 001c 0F009CE8 		ldm	ip, {r0, r1, r2, r3}
 436 0020 0F008EE8 		stm	lr, {r0, r1, r2, r3}
 155:../src/tensorflow_lite/src/tensorflow/lite/micro/kernels/tanh.cpp **** }
 437              		.loc 1 155 0
 438 0024 0400A0E1 		mov	r0, r4
 439 0028 1080BDE8 		pop	{r4, pc}
 440              		.cfi_endproc
 441              	.LFE4184:
 442              		.cantunwind
 443              		.fnend
 445              		.section	.text._ZN8gemmlowp40one_minus_x_over_one_plus_x_for_x_in_0_1IlEENS_10FixedPointIT_Li0EEES
 446              		.align	2
 447              		.weak	_ZN8gemmlowp40one_minus_x_over_one_plus_x_for_x_in_0_1IlEENS_10FixedPointIT_Li0EEES3_
 448              		.syntax unified
 449              		.arm
 450              		.fpu neon
 452              	_ZN8gemmlowp40one_minus_x_over_one_plus_x_for_x_in_0_1IlEENS_10FixedPointIT_Li0EEES3_:
 453              		.fnstart
 454              	.LFB4520:
 455              		.file 4 "C:/Renesas/e2studio_2021_01_workspace_RZA2M_ANPR/ANPR_RZA2M_RDK/src/tensorflow_lite/src/t
   1:C:/Renesas/e2studio_2021_01_workspace_RZA2M_ANPR/ANPR_RZA2M_RDK/src/tensorflow_lite/src/third_party/gemmlowp/fixedpoint\fixedpoint.h **** // Copyright 2015 The Gemmlowp Authors. All Rights Reserved.
   2:C:/Renesas/e2studio_2021_01_workspace_RZA2M_ANPR/ANPR_RZA2M_RDK/src/tensorflow_lite/src/third_party/gemmlowp/fixedpoint\fixedpoint.h **** //
   3:C:/Renesas/e2studio_2021_01_workspace_RZA2M_ANPR/ANPR_RZA2M_RDK/src/tensorflow_lite/src/third_party/gemmlowp/fixedpoint\fixedpoint.h **** // Licensed under the Apache License, Version 2.0 (the "License");
   4:C:/Renesas/e2studio_2021_01_workspace_RZA2M_ANPR/ANPR_RZA2M_RDK/src/tensorflow_lite/src/third_party/gemmlowp/fixedpoint\fixedpoint.h **** // you may not use this file except in compliance with the License.
   5:C:/Renesas/e2studio_2021_01_workspace_RZA2M_ANPR/ANPR_RZA2M_RDK/src/tensorflow_lite/src/third_party/gemmlowp/fixedpoint\fixedpoint.h **** // You may obtain a copy of the License at
   6:C:/Renesas/e2studio_2021_01_workspace_RZA2M_ANPR/ANPR_RZA2M_RDK/src/tensorflow_lite/src/third_party/gemmlowp/fixedpoint\fixedpoint.h **** //
   7:C:/Renesas/e2studio_2021_01_workspace_RZA2M_ANPR/ANPR_RZA2M_RDK/src/tensorflow_lite/src/third_party/gemmlowp/fixedpoint\fixedpoint.h **** //     http://www.apache.org/licenses/LICENSE-2.0
   8:C:/Renesas/e2studio_2021_01_workspace_RZA2M_ANPR/ANPR_RZA2M_RDK/src/tensorflow_lite/src/third_party/gemmlowp/fixedpoint\fixedpoint.h **** //
   9:C:/Renesas/e2studio_2021_01_workspace_RZA2M_ANPR/ANPR_RZA2M_RDK/src/tensorflow_lite/src/third_party/gemmlowp/fixedpoint\fixedpoint.h **** // Unless required by applicable law or agreed to in writing, software
  10:C:/Renesas/e2studio_2021_01_workspace_RZA2M_ANPR/ANPR_RZA2M_RDK/src/tensorflow_lite/src/third_party/gemmlowp/fixedpoint\fixedpoint.h **** // distributed under the License is distributed on an "AS IS" BASIS,
  11:C:/Renesas/e2studio_2021_01_workspace_RZA2M_ANPR/ANPR_RZA2M_RDK/src/tensorflow_lite/src/third_party/gemmlowp/fixedpoint\fixedpoint.h **** // WITHOUT WARRANTIES OR CONDITIONS OF ANY KIND, either express or implied.
  12:C:/Renesas/e2studio_2021_01_workspace_RZA2M_ANPR/ANPR_RZA2M_RDK/src/tensorflow_lite/src/third_party/gemmlowp/fixedpoint\fixedpoint.h **** // See the License for the specific language governing permissions and
  13:C:/Renesas/e2studio_2021_01_workspace_RZA2M_ANPR/ANPR_RZA2M_RDK/src/tensorflow_lite/src/third_party/gemmlowp/fixedpoint\fixedpoint.h **** // limitations under the License.
  14:C:/Renesas/e2studio_2021_01_workspace_RZA2M_ANPR/ANPR_RZA2M_RDK/src/tensorflow_lite/src/third_party/gemmlowp/fixedpoint\fixedpoint.h **** 
  15:C:/Renesas/e2studio_2021_01_workspace_RZA2M_ANPR/ANPR_RZA2M_RDK/src/tensorflow_lite/src/third_party/gemmlowp/fixedpoint\fixedpoint.h **** // fixedpoint.h: fixed-point arithmetic, with basic operations and
  16:C:/Renesas/e2studio_2021_01_workspace_RZA2M_ANPR/ANPR_RZA2M_RDK/src/tensorflow_lite/src/third_party/gemmlowp/fixedpoint\fixedpoint.h **** // a few math functions such as tanh.
  17:C:/Renesas/e2studio_2021_01_workspace_RZA2M_ANPR/ANPR_RZA2M_RDK/src/tensorflow_lite/src/third_party/gemmlowp/fixedpoint\fixedpoint.h **** 
  18:C:/Renesas/e2studio_2021_01_workspace_RZA2M_ANPR/ANPR_RZA2M_RDK/src/tensorflow_lite/src/third_party/gemmlowp/fixedpoint\fixedpoint.h **** #ifndef GEMMLOWP_INTERNAL_FIXEDPOINT_H_
  19:C:/Renesas/e2studio_2021_01_workspace_RZA2M_ANPR/ANPR_RZA2M_RDK/src/tensorflow_lite/src/third_party/gemmlowp/fixedpoint\fixedpoint.h **** #define GEMMLOWP_INTERNAL_FIXEDPOINT_H_
  20:C:/Renesas/e2studio_2021_01_workspace_RZA2M_ANPR/ANPR_RZA2M_RDK/src/tensorflow_lite/src/third_party/gemmlowp/fixedpoint\fixedpoint.h **** 
  21:C:/Renesas/e2studio_2021_01_workspace_RZA2M_ANPR/ANPR_RZA2M_RDK/src/tensorflow_lite/src/third_party/gemmlowp/fixedpoint\fixedpoint.h **** #include <algorithm>
  22:C:/Renesas/e2studio_2021_01_workspace_RZA2M_ANPR/ANPR_RZA2M_RDK/src/tensorflow_lite/src/third_party/gemmlowp/fixedpoint\fixedpoint.h **** #include <cassert>
  23:C:/Renesas/e2studio_2021_01_workspace_RZA2M_ANPR/ANPR_RZA2M_RDK/src/tensorflow_lite/src/third_party/gemmlowp/fixedpoint\fixedpoint.h **** #include <cmath>
  24:C:/Renesas/e2studio_2021_01_workspace_RZA2M_ANPR/ANPR_RZA2M_RDK/src/tensorflow_lite/src/third_party/gemmlowp/fixedpoint\fixedpoint.h **** #include <cstdint>
  25:C:/Renesas/e2studio_2021_01_workspace_RZA2M_ANPR/ANPR_RZA2M_RDK/src/tensorflow_lite/src/third_party/gemmlowp/fixedpoint\fixedpoint.h **** #include <limits>
  26:C:/Renesas/e2studio_2021_01_workspace_RZA2M_ANPR/ANPR_RZA2M_RDK/src/tensorflow_lite/src/third_party/gemmlowp/fixedpoint\fixedpoint.h **** 
  27:C:/Renesas/e2studio_2021_01_workspace_RZA2M_ANPR/ANPR_RZA2M_RDK/src/tensorflow_lite/src/third_party/gemmlowp/fixedpoint\fixedpoint.h **** #include "../internal/detect_platform.h"
  28:C:/Renesas/e2studio_2021_01_workspace_RZA2M_ANPR/ANPR_RZA2M_RDK/src/tensorflow_lite/src/third_party/gemmlowp/fixedpoint\fixedpoint.h **** 
  29:C:/Renesas/e2studio_2021_01_workspace_RZA2M_ANPR/ANPR_RZA2M_RDK/src/tensorflow_lite/src/third_party/gemmlowp/fixedpoint\fixedpoint.h **** namespace gemmlowp {
  30:C:/Renesas/e2studio_2021_01_workspace_RZA2M_ANPR/ANPR_RZA2M_RDK/src/tensorflow_lite/src/third_party/gemmlowp/fixedpoint\fixedpoint.h **** 
  31:C:/Renesas/e2studio_2021_01_workspace_RZA2M_ANPR/ANPR_RZA2M_RDK/src/tensorflow_lite/src/third_party/gemmlowp/fixedpoint\fixedpoint.h **** // Part 1: Low-level integer-arithmetic primitives.
  32:C:/Renesas/e2studio_2021_01_workspace_RZA2M_ANPR/ANPR_RZA2M_RDK/src/tensorflow_lite/src/third_party/gemmlowp/fixedpoint\fixedpoint.h **** // The implementations here are generic implementations valid for
  33:C:/Renesas/e2studio_2021_01_workspace_RZA2M_ANPR/ANPR_RZA2M_RDK/src/tensorflow_lite/src/third_party/gemmlowp/fixedpoint\fixedpoint.h **** // scalar types (e.g. std::int32_t). Architecture-specific SIMD types
  34:C:/Renesas/e2studio_2021_01_workspace_RZA2M_ANPR/ANPR_RZA2M_RDK/src/tensorflow_lite/src/third_party/gemmlowp/fixedpoint\fixedpoint.h **** // (e.g. NEON int32x4_t) may be supported by providing
  35:C:/Renesas/e2studio_2021_01_workspace_RZA2M_ANPR/ANPR_RZA2M_RDK/src/tensorflow_lite/src/third_party/gemmlowp/fixedpoint\fixedpoint.h **** // specializations for them in separate files.
  36:C:/Renesas/e2studio_2021_01_workspace_RZA2M_ANPR/ANPR_RZA2M_RDK/src/tensorflow_lite/src/third_party/gemmlowp/fixedpoint\fixedpoint.h **** //
  37:C:/Renesas/e2studio_2021_01_workspace_RZA2M_ANPR/ANPR_RZA2M_RDK/src/tensorflow_lite/src/third_party/gemmlowp/fixedpoint\fixedpoint.h **** // The purpose of these primitives is two-fold:
  38:C:/Renesas/e2studio_2021_01_workspace_RZA2M_ANPR/ANPR_RZA2M_RDK/src/tensorflow_lite/src/third_party/gemmlowp/fixedpoint\fixedpoint.h **** //  - They will be used to implement higher-level fixed-point
  39:C:/Renesas/e2studio_2021_01_workspace_RZA2M_ANPR/ANPR_RZA2M_RDK/src/tensorflow_lite/src/third_party/gemmlowp/fixedpoint\fixedpoint.h **** //    abstractions, namely the FixedPoint class and its arithmetic
  40:C:/Renesas/e2studio_2021_01_workspace_RZA2M_ANPR/ANPR_RZA2M_RDK/src/tensorflow_lite/src/third_party/gemmlowp/fixedpoint\fixedpoint.h **** //    operators.
  41:C:/Renesas/e2studio_2021_01_workspace_RZA2M_ANPR/ANPR_RZA2M_RDK/src/tensorflow_lite/src/third_party/gemmlowp/fixedpoint\fixedpoint.h **** //  - They will be directly used to implement some more involved
  42:C:/Renesas/e2studio_2021_01_workspace_RZA2M_ANPR/ANPR_RZA2M_RDK/src/tensorflow_lite/src/third_party/gemmlowp/fixedpoint\fixedpoint.h **** //    fixed-point computations, e.g. the fixed-point implementation
  43:C:/Renesas/e2studio_2021_01_workspace_RZA2M_ANPR/ANPR_RZA2M_RDK/src/tensorflow_lite/src/third_party/gemmlowp/fixedpoint\fixedpoint.h **** //    of math functions such as tanh.
  44:C:/Renesas/e2studio_2021_01_workspace_RZA2M_ANPR/ANPR_RZA2M_RDK/src/tensorflow_lite/src/third_party/gemmlowp/fixedpoint\fixedpoint.h **** 
  45:C:/Renesas/e2studio_2021_01_workspace_RZA2M_ANPR/ANPR_RZA2M_RDK/src/tensorflow_lite/src/third_party/gemmlowp/fixedpoint\fixedpoint.h **** // Some compile-time traits around raw types to handle SIMD aspects:
  46:C:/Renesas/e2studio_2021_01_workspace_RZA2M_ANPR/ANPR_RZA2M_RDK/src/tensorflow_lite/src/third_party/gemmlowp/fixedpoint\fixedpoint.h **** // number of lanes, underlying scalar type.
  47:C:/Renesas/e2studio_2021_01_workspace_RZA2M_ANPR/ANPR_RZA2M_RDK/src/tensorflow_lite/src/third_party/gemmlowp/fixedpoint\fixedpoint.h **** template <typename tIntegerType>
  48:C:/Renesas/e2studio_2021_01_workspace_RZA2M_ANPR/ANPR_RZA2M_RDK/src/tensorflow_lite/src/third_party/gemmlowp/fixedpoint\fixedpoint.h **** struct FixedPointRawTypeTraits {};
  49:C:/Renesas/e2studio_2021_01_workspace_RZA2M_ANPR/ANPR_RZA2M_RDK/src/tensorflow_lite/src/third_party/gemmlowp/fixedpoint\fixedpoint.h **** 
  50:C:/Renesas/e2studio_2021_01_workspace_RZA2M_ANPR/ANPR_RZA2M_RDK/src/tensorflow_lite/src/third_party/gemmlowp/fixedpoint\fixedpoint.h **** template <>
  51:C:/Renesas/e2studio_2021_01_workspace_RZA2M_ANPR/ANPR_RZA2M_RDK/src/tensorflow_lite/src/third_party/gemmlowp/fixedpoint\fixedpoint.h **** struct FixedPointRawTypeTraits<std::int32_t> {
  52:C:/Renesas/e2studio_2021_01_workspace_RZA2M_ANPR/ANPR_RZA2M_RDK/src/tensorflow_lite/src/third_party/gemmlowp/fixedpoint\fixedpoint.h ****   typedef std::int32_t ScalarRawType;
  53:C:/Renesas/e2studio_2021_01_workspace_RZA2M_ANPR/ANPR_RZA2M_RDK/src/tensorflow_lite/src/third_party/gemmlowp/fixedpoint\fixedpoint.h ****   static constexpr int kLanes = 1;
  54:C:/Renesas/e2studio_2021_01_workspace_RZA2M_ANPR/ANPR_RZA2M_RDK/src/tensorflow_lite/src/third_party/gemmlowp/fixedpoint\fixedpoint.h **** };
  55:C:/Renesas/e2studio_2021_01_workspace_RZA2M_ANPR/ANPR_RZA2M_RDK/src/tensorflow_lite/src/third_party/gemmlowp/fixedpoint\fixedpoint.h **** 
  56:C:/Renesas/e2studio_2021_01_workspace_RZA2M_ANPR/ANPR_RZA2M_RDK/src/tensorflow_lite/src/third_party/gemmlowp/fixedpoint\fixedpoint.h **** template <>
  57:C:/Renesas/e2studio_2021_01_workspace_RZA2M_ANPR/ANPR_RZA2M_RDK/src/tensorflow_lite/src/third_party/gemmlowp/fixedpoint\fixedpoint.h **** struct FixedPointRawTypeTraits<std::int16_t> {
  58:C:/Renesas/e2studio_2021_01_workspace_RZA2M_ANPR/ANPR_RZA2M_RDK/src/tensorflow_lite/src/third_party/gemmlowp/fixedpoint\fixedpoint.h ****   typedef std::int16_t ScalarRawType;
  59:C:/Renesas/e2studio_2021_01_workspace_RZA2M_ANPR/ANPR_RZA2M_RDK/src/tensorflow_lite/src/third_party/gemmlowp/fixedpoint\fixedpoint.h ****   static constexpr int kLanes = 1;
  60:C:/Renesas/e2studio_2021_01_workspace_RZA2M_ANPR/ANPR_RZA2M_RDK/src/tensorflow_lite/src/third_party/gemmlowp/fixedpoint\fixedpoint.h **** };
  61:C:/Renesas/e2studio_2021_01_workspace_RZA2M_ANPR/ANPR_RZA2M_RDK/src/tensorflow_lite/src/third_party/gemmlowp/fixedpoint\fixedpoint.h **** 
  62:C:/Renesas/e2studio_2021_01_workspace_RZA2M_ANPR/ANPR_RZA2M_RDK/src/tensorflow_lite/src/third_party/gemmlowp/fixedpoint\fixedpoint.h **** // Returns a SIMD value duplicating a scalar value across all lanes.
  63:C:/Renesas/e2studio_2021_01_workspace_RZA2M_ANPR/ANPR_RZA2M_RDK/src/tensorflow_lite/src/third_party/gemmlowp/fixedpoint\fixedpoint.h **** template <typename tRawType>
  64:C:/Renesas/e2studio_2021_01_workspace_RZA2M_ANPR/ANPR_RZA2M_RDK/src/tensorflow_lite/src/third_party/gemmlowp/fixedpoint\fixedpoint.h **** tRawType Dup(typename FixedPointRawTypeTraits<tRawType>::ScalarRawType x) {
  65:C:/Renesas/e2studio_2021_01_workspace_RZA2M_ANPR/ANPR_RZA2M_RDK/src/tensorflow_lite/src/third_party/gemmlowp/fixedpoint\fixedpoint.h ****   return x;
  66:C:/Renesas/e2studio_2021_01_workspace_RZA2M_ANPR/ANPR_RZA2M_RDK/src/tensorflow_lite/src/third_party/gemmlowp/fixedpoint\fixedpoint.h **** }
  67:C:/Renesas/e2studio_2021_01_workspace_RZA2M_ANPR/ANPR_RZA2M_RDK/src/tensorflow_lite/src/third_party/gemmlowp/fixedpoint\fixedpoint.h **** 
  68:C:/Renesas/e2studio_2021_01_workspace_RZA2M_ANPR/ANPR_RZA2M_RDK/src/tensorflow_lite/src/third_party/gemmlowp/fixedpoint\fixedpoint.h **** // Plain bit-wise AND
  69:C:/Renesas/e2studio_2021_01_workspace_RZA2M_ANPR/ANPR_RZA2M_RDK/src/tensorflow_lite/src/third_party/gemmlowp/fixedpoint\fixedpoint.h **** template <typename tIntegerType>
  70:C:/Renesas/e2studio_2021_01_workspace_RZA2M_ANPR/ANPR_RZA2M_RDK/src/tensorflow_lite/src/third_party/gemmlowp/fixedpoint\fixedpoint.h **** tIntegerType BitAnd(tIntegerType a, tIntegerType b) {
  71:C:/Renesas/e2studio_2021_01_workspace_RZA2M_ANPR/ANPR_RZA2M_RDK/src/tensorflow_lite/src/third_party/gemmlowp/fixedpoint\fixedpoint.h ****   return a & b;
  72:C:/Renesas/e2studio_2021_01_workspace_RZA2M_ANPR/ANPR_RZA2M_RDK/src/tensorflow_lite/src/third_party/gemmlowp/fixedpoint\fixedpoint.h **** }
  73:C:/Renesas/e2studio_2021_01_workspace_RZA2M_ANPR/ANPR_RZA2M_RDK/src/tensorflow_lite/src/third_party/gemmlowp/fixedpoint\fixedpoint.h **** 
  74:C:/Renesas/e2studio_2021_01_workspace_RZA2M_ANPR/ANPR_RZA2M_RDK/src/tensorflow_lite/src/third_party/gemmlowp/fixedpoint\fixedpoint.h **** // Plain bit-wise OR
  75:C:/Renesas/e2studio_2021_01_workspace_RZA2M_ANPR/ANPR_RZA2M_RDK/src/tensorflow_lite/src/third_party/gemmlowp/fixedpoint\fixedpoint.h **** template <typename tIntegerType>
  76:C:/Renesas/e2studio_2021_01_workspace_RZA2M_ANPR/ANPR_RZA2M_RDK/src/tensorflow_lite/src/third_party/gemmlowp/fixedpoint\fixedpoint.h **** tIntegerType BitOr(tIntegerType a, tIntegerType b) {
  77:C:/Renesas/e2studio_2021_01_workspace_RZA2M_ANPR/ANPR_RZA2M_RDK/src/tensorflow_lite/src/third_party/gemmlowp/fixedpoint\fixedpoint.h ****   return a | b;
  78:C:/Renesas/e2studio_2021_01_workspace_RZA2M_ANPR/ANPR_RZA2M_RDK/src/tensorflow_lite/src/third_party/gemmlowp/fixedpoint\fixedpoint.h **** }
  79:C:/Renesas/e2studio_2021_01_workspace_RZA2M_ANPR/ANPR_RZA2M_RDK/src/tensorflow_lite/src/third_party/gemmlowp/fixedpoint\fixedpoint.h **** 
  80:C:/Renesas/e2studio_2021_01_workspace_RZA2M_ANPR/ANPR_RZA2M_RDK/src/tensorflow_lite/src/third_party/gemmlowp/fixedpoint\fixedpoint.h **** // Plain bit-wise XOR
  81:C:/Renesas/e2studio_2021_01_workspace_RZA2M_ANPR/ANPR_RZA2M_RDK/src/tensorflow_lite/src/third_party/gemmlowp/fixedpoint\fixedpoint.h **** template <typename tIntegerType>
  82:C:/Renesas/e2studio_2021_01_workspace_RZA2M_ANPR/ANPR_RZA2M_RDK/src/tensorflow_lite/src/third_party/gemmlowp/fixedpoint\fixedpoint.h **** tIntegerType BitXor(tIntegerType a, tIntegerType b) {
  83:C:/Renesas/e2studio_2021_01_workspace_RZA2M_ANPR/ANPR_RZA2M_RDK/src/tensorflow_lite/src/third_party/gemmlowp/fixedpoint\fixedpoint.h ****   return a ^ b;
  84:C:/Renesas/e2studio_2021_01_workspace_RZA2M_ANPR/ANPR_RZA2M_RDK/src/tensorflow_lite/src/third_party/gemmlowp/fixedpoint\fixedpoint.h **** }
  85:C:/Renesas/e2studio_2021_01_workspace_RZA2M_ANPR/ANPR_RZA2M_RDK/src/tensorflow_lite/src/third_party/gemmlowp/fixedpoint\fixedpoint.h **** 
  86:C:/Renesas/e2studio_2021_01_workspace_RZA2M_ANPR/ANPR_RZA2M_RDK/src/tensorflow_lite/src/third_party/gemmlowp/fixedpoint\fixedpoint.h **** // Plain bit-wise NOT
  87:C:/Renesas/e2studio_2021_01_workspace_RZA2M_ANPR/ANPR_RZA2M_RDK/src/tensorflow_lite/src/third_party/gemmlowp/fixedpoint\fixedpoint.h **** template <typename tIntegerType>
  88:C:/Renesas/e2studio_2021_01_workspace_RZA2M_ANPR/ANPR_RZA2M_RDK/src/tensorflow_lite/src/third_party/gemmlowp/fixedpoint\fixedpoint.h **** tIntegerType BitNot(tIntegerType a) {
  89:C:/Renesas/e2studio_2021_01_workspace_RZA2M_ANPR/ANPR_RZA2M_RDK/src/tensorflow_lite/src/third_party/gemmlowp/fixedpoint\fixedpoint.h ****   return ~a;
  90:C:/Renesas/e2studio_2021_01_workspace_RZA2M_ANPR/ANPR_RZA2M_RDK/src/tensorflow_lite/src/third_party/gemmlowp/fixedpoint\fixedpoint.h **** }
  91:C:/Renesas/e2studio_2021_01_workspace_RZA2M_ANPR/ANPR_RZA2M_RDK/src/tensorflow_lite/src/third_party/gemmlowp/fixedpoint\fixedpoint.h **** 
  92:C:/Renesas/e2studio_2021_01_workspace_RZA2M_ANPR/ANPR_RZA2M_RDK/src/tensorflow_lite/src/third_party/gemmlowp/fixedpoint\fixedpoint.h **** // Integer addition. Not saturating. Overflow is undefined behavior.
  93:C:/Renesas/e2studio_2021_01_workspace_RZA2M_ANPR/ANPR_RZA2M_RDK/src/tensorflow_lite/src/third_party/gemmlowp/fixedpoint\fixedpoint.h **** template <typename tIntegerType>
  94:C:/Renesas/e2studio_2021_01_workspace_RZA2M_ANPR/ANPR_RZA2M_RDK/src/tensorflow_lite/src/third_party/gemmlowp/fixedpoint\fixedpoint.h **** tIntegerType Add(tIntegerType a, tIntegerType b) {
  95:C:/Renesas/e2studio_2021_01_workspace_RZA2M_ANPR/ANPR_RZA2M_RDK/src/tensorflow_lite/src/third_party/gemmlowp/fixedpoint\fixedpoint.h ****   return a + b;
  96:C:/Renesas/e2studio_2021_01_workspace_RZA2M_ANPR/ANPR_RZA2M_RDK/src/tensorflow_lite/src/third_party/gemmlowp/fixedpoint\fixedpoint.h **** }
  97:C:/Renesas/e2studio_2021_01_workspace_RZA2M_ANPR/ANPR_RZA2M_RDK/src/tensorflow_lite/src/third_party/gemmlowp/fixedpoint\fixedpoint.h **** 
  98:C:/Renesas/e2studio_2021_01_workspace_RZA2M_ANPR/ANPR_RZA2M_RDK/src/tensorflow_lite/src/third_party/gemmlowp/fixedpoint\fixedpoint.h **** // Integer subtraction. Not saturating. Overflow is undefined behavior.
  99:C:/Renesas/e2studio_2021_01_workspace_RZA2M_ANPR/ANPR_RZA2M_RDK/src/tensorflow_lite/src/third_party/gemmlowp/fixedpoint\fixedpoint.h **** template <typename tIntegerType>
 100:C:/Renesas/e2studio_2021_01_workspace_RZA2M_ANPR/ANPR_RZA2M_RDK/src/tensorflow_lite/src/third_party/gemmlowp/fixedpoint\fixedpoint.h **** tIntegerType Mul(tIntegerType a, tIntegerType b) {
 101:C:/Renesas/e2studio_2021_01_workspace_RZA2M_ANPR/ANPR_RZA2M_RDK/src/tensorflow_lite/src/third_party/gemmlowp/fixedpoint\fixedpoint.h ****   return a * b;
 102:C:/Renesas/e2studio_2021_01_workspace_RZA2M_ANPR/ANPR_RZA2M_RDK/src/tensorflow_lite/src/third_party/gemmlowp/fixedpoint\fixedpoint.h **** }
 103:C:/Renesas/e2studio_2021_01_workspace_RZA2M_ANPR/ANPR_RZA2M_RDK/src/tensorflow_lite/src/third_party/gemmlowp/fixedpoint\fixedpoint.h **** 
 104:C:/Renesas/e2studio_2021_01_workspace_RZA2M_ANPR/ANPR_RZA2M_RDK/src/tensorflow_lite/src/third_party/gemmlowp/fixedpoint\fixedpoint.h **** template <typename tIntegerType>
 105:C:/Renesas/e2studio_2021_01_workspace_RZA2M_ANPR/ANPR_RZA2M_RDK/src/tensorflow_lite/src/third_party/gemmlowp/fixedpoint\fixedpoint.h **** tIntegerType Sub(tIntegerType a, tIntegerType b) {
 106:C:/Renesas/e2studio_2021_01_workspace_RZA2M_ANPR/ANPR_RZA2M_RDK/src/tensorflow_lite/src/third_party/gemmlowp/fixedpoint\fixedpoint.h ****   return a - b;
 107:C:/Renesas/e2studio_2021_01_workspace_RZA2M_ANPR/ANPR_RZA2M_RDK/src/tensorflow_lite/src/third_party/gemmlowp/fixedpoint\fixedpoint.h **** }
 108:C:/Renesas/e2studio_2021_01_workspace_RZA2M_ANPR/ANPR_RZA2M_RDK/src/tensorflow_lite/src/third_party/gemmlowp/fixedpoint\fixedpoint.h **** 
 109:C:/Renesas/e2studio_2021_01_workspace_RZA2M_ANPR/ANPR_RZA2M_RDK/src/tensorflow_lite/src/third_party/gemmlowp/fixedpoint\fixedpoint.h **** // Integer unary negative. Not saturating. Overflow is undefined behavior.
 110:C:/Renesas/e2studio_2021_01_workspace_RZA2M_ANPR/ANPR_RZA2M_RDK/src/tensorflow_lite/src/third_party/gemmlowp/fixedpoint\fixedpoint.h **** template <typename tIntegerType>
 111:C:/Renesas/e2studio_2021_01_workspace_RZA2M_ANPR/ANPR_RZA2M_RDK/src/tensorflow_lite/src/third_party/gemmlowp/fixedpoint\fixedpoint.h **** tIntegerType Neg(tIntegerType a) {
 112:C:/Renesas/e2studio_2021_01_workspace_RZA2M_ANPR/ANPR_RZA2M_RDK/src/tensorflow_lite/src/third_party/gemmlowp/fixedpoint\fixedpoint.h ****   return -a;
 113:C:/Renesas/e2studio_2021_01_workspace_RZA2M_ANPR/ANPR_RZA2M_RDK/src/tensorflow_lite/src/third_party/gemmlowp/fixedpoint\fixedpoint.h **** }
 114:C:/Renesas/e2studio_2021_01_workspace_RZA2M_ANPR/ANPR_RZA2M_RDK/src/tensorflow_lite/src/third_party/gemmlowp/fixedpoint\fixedpoint.h **** 
 115:C:/Renesas/e2studio_2021_01_workspace_RZA2M_ANPR/ANPR_RZA2M_RDK/src/tensorflow_lite/src/third_party/gemmlowp/fixedpoint\fixedpoint.h **** // Integer arithmetic left-shift, equivalent to multiplying with a power of two.
 116:C:/Renesas/e2studio_2021_01_workspace_RZA2M_ANPR/ANPR_RZA2M_RDK/src/tensorflow_lite/src/third_party/gemmlowp/fixedpoint\fixedpoint.h **** // Negative values are OK. In case of overflow, no Undefined
 117:C:/Renesas/e2studio_2021_01_workspace_RZA2M_ANPR/ANPR_RZA2M_RDK/src/tensorflow_lite/src/third_party/gemmlowp/fixedpoint\fixedpoint.h **** // Behavior, but the results are implementation-defined (in practice,
 118:C:/Renesas/e2studio_2021_01_workspace_RZA2M_ANPR/ANPR_RZA2M_RDK/src/tensorflow_lite/src/third_party/gemmlowp/fixedpoint\fixedpoint.h **** // they currently are saturated, but we make no commitment to that). The idea
 119:C:/Renesas/e2studio_2021_01_workspace_RZA2M_ANPR/ANPR_RZA2M_RDK/src/tensorflow_lite/src/third_party/gemmlowp/fixedpoint\fixedpoint.h **** // is that the caller will want to implement the overflowing cases with
 120:C:/Renesas/e2studio_2021_01_workspace_RZA2M_ANPR/ANPR_RZA2M_RDK/src/tensorflow_lite/src/third_party/gemmlowp/fixedpoint\fixedpoint.h **** // saturation with compare-and-mask, so we don't care about the results
 121:C:/Renesas/e2studio_2021_01_workspace_RZA2M_ANPR/ANPR_RZA2M_RDK/src/tensorflow_lite/src/third_party/gemmlowp/fixedpoint\fixedpoint.h **** // in the overflow case, we just want to avoid undefined behavior.
 122:C:/Renesas/e2studio_2021_01_workspace_RZA2M_ANPR/ANPR_RZA2M_RDK/src/tensorflow_lite/src/third_party/gemmlowp/fixedpoint\fixedpoint.h **** //
 123:C:/Renesas/e2studio_2021_01_workspace_RZA2M_ANPR/ANPR_RZA2M_RDK/src/tensorflow_lite/src/third_party/gemmlowp/fixedpoint\fixedpoint.h **** // tIntegerType may be int32 or any narrower signed type.
 124:C:/Renesas/e2studio_2021_01_workspace_RZA2M_ANPR/ANPR_RZA2M_RDK/src/tensorflow_lite/src/third_party/gemmlowp/fixedpoint\fixedpoint.h **** template <typename tIntegerType>
 125:C:/Renesas/e2studio_2021_01_workspace_RZA2M_ANPR/ANPR_RZA2M_RDK/src/tensorflow_lite/src/third_party/gemmlowp/fixedpoint\fixedpoint.h **** tIntegerType ShiftLeft(tIntegerType a, int offset) {
 126:C:/Renesas/e2studio_2021_01_workspace_RZA2M_ANPR/ANPR_RZA2M_RDK/src/tensorflow_lite/src/third_party/gemmlowp/fixedpoint\fixedpoint.h ****   const std::int64_t wide_a = static_cast<std::int64_t>(a);
 127:C:/Renesas/e2studio_2021_01_workspace_RZA2M_ANPR/ANPR_RZA2M_RDK/src/tensorflow_lite/src/third_party/gemmlowp/fixedpoint\fixedpoint.h ****   const std::int64_t wide_shifted = wide_a * (1 << offset);
 128:C:/Renesas/e2studio_2021_01_workspace_RZA2M_ANPR/ANPR_RZA2M_RDK/src/tensorflow_lite/src/third_party/gemmlowp/fixedpoint\fixedpoint.h ****   const auto min = std::numeric_limits<tIntegerType>::min();
 129:C:/Renesas/e2studio_2021_01_workspace_RZA2M_ANPR/ANPR_RZA2M_RDK/src/tensorflow_lite/src/third_party/gemmlowp/fixedpoint\fixedpoint.h ****   const auto max = std::numeric_limits<tIntegerType>::max();
 130:C:/Renesas/e2studio_2021_01_workspace_RZA2M_ANPR/ANPR_RZA2M_RDK/src/tensorflow_lite/src/third_party/gemmlowp/fixedpoint\fixedpoint.h ****   return wide_shifted < min
 131:C:/Renesas/e2studio_2021_01_workspace_RZA2M_ANPR/ANPR_RZA2M_RDK/src/tensorflow_lite/src/third_party/gemmlowp/fixedpoint\fixedpoint.h ****              ? min
 132:C:/Renesas/e2studio_2021_01_workspace_RZA2M_ANPR/ANPR_RZA2M_RDK/src/tensorflow_lite/src/third_party/gemmlowp/fixedpoint\fixedpoint.h ****              : wide_shifted > max ? max
 133:C:/Renesas/e2studio_2021_01_workspace_RZA2M_ANPR/ANPR_RZA2M_RDK/src/tensorflow_lite/src/third_party/gemmlowp/fixedpoint\fixedpoint.h ****                                   : static_cast<tIntegerType>(wide_shifted);
 134:C:/Renesas/e2studio_2021_01_workspace_RZA2M_ANPR/ANPR_RZA2M_RDK/src/tensorflow_lite/src/third_party/gemmlowp/fixedpoint\fixedpoint.h **** }
 135:C:/Renesas/e2studio_2021_01_workspace_RZA2M_ANPR/ANPR_RZA2M_RDK/src/tensorflow_lite/src/third_party/gemmlowp/fixedpoint\fixedpoint.h **** 
 136:C:/Renesas/e2studio_2021_01_workspace_RZA2M_ANPR/ANPR_RZA2M_RDK/src/tensorflow_lite/src/third_party/gemmlowp/fixedpoint\fixedpoint.h **** // Integer arithmetic right-shift. Not rounding.
 137:C:/Renesas/e2studio_2021_01_workspace_RZA2M_ANPR/ANPR_RZA2M_RDK/src/tensorflow_lite/src/third_party/gemmlowp/fixedpoint\fixedpoint.h **** // Relying on implementation-defined, but in-practice-consistent,
 138:C:/Renesas/e2studio_2021_01_workspace_RZA2M_ANPR/ANPR_RZA2M_RDK/src/tensorflow_lite/src/third_party/gemmlowp/fixedpoint\fixedpoint.h **** // C++ compiler behavior.
 139:C:/Renesas/e2studio_2021_01_workspace_RZA2M_ANPR/ANPR_RZA2M_RDK/src/tensorflow_lite/src/third_party/gemmlowp/fixedpoint\fixedpoint.h **** template <typename tIntegerType>
 140:C:/Renesas/e2studio_2021_01_workspace_RZA2M_ANPR/ANPR_RZA2M_RDK/src/tensorflow_lite/src/third_party/gemmlowp/fixedpoint\fixedpoint.h **** tIntegerType ShiftRight(tIntegerType a, int offset) {
 141:C:/Renesas/e2studio_2021_01_workspace_RZA2M_ANPR/ANPR_RZA2M_RDK/src/tensorflow_lite/src/third_party/gemmlowp/fixedpoint\fixedpoint.h ****   return a >> offset;
 142:C:/Renesas/e2studio_2021_01_workspace_RZA2M_ANPR/ANPR_RZA2M_RDK/src/tensorflow_lite/src/third_party/gemmlowp/fixedpoint\fixedpoint.h **** }
 143:C:/Renesas/e2studio_2021_01_workspace_RZA2M_ANPR/ANPR_RZA2M_RDK/src/tensorflow_lite/src/third_party/gemmlowp/fixedpoint\fixedpoint.h **** 
 144:C:/Renesas/e2studio_2021_01_workspace_RZA2M_ANPR/ANPR_RZA2M_RDK/src/tensorflow_lite/src/third_party/gemmlowp/fixedpoint\fixedpoint.h **** // Each bit of the result is set to the corresponding bit of either then_val or
 145:C:/Renesas/e2studio_2021_01_workspace_RZA2M_ANPR/ANPR_RZA2M_RDK/src/tensorflow_lite/src/third_party/gemmlowp/fixedpoint\fixedpoint.h **** // else_val depending on whether the corresponding bit of if_mask is set.
 146:C:/Renesas/e2studio_2021_01_workspace_RZA2M_ANPR/ANPR_RZA2M_RDK/src/tensorflow_lite/src/third_party/gemmlowp/fixedpoint\fixedpoint.h **** // Equivalent to the VBSL instruction in ARM NEON.
 147:C:/Renesas/e2studio_2021_01_workspace_RZA2M_ANPR/ANPR_RZA2M_RDK/src/tensorflow_lite/src/third_party/gemmlowp/fixedpoint\fixedpoint.h **** template <typename tIntegerType>
 148:C:/Renesas/e2studio_2021_01_workspace_RZA2M_ANPR/ANPR_RZA2M_RDK/src/tensorflow_lite/src/third_party/gemmlowp/fixedpoint\fixedpoint.h **** tIntegerType SelectUsingMask(tIntegerType if_mask, tIntegerType then_val,
 149:C:/Renesas/e2studio_2021_01_workspace_RZA2M_ANPR/ANPR_RZA2M_RDK/src/tensorflow_lite/src/third_party/gemmlowp/fixedpoint\fixedpoint.h ****                              tIntegerType else_val) {
 150:C:/Renesas/e2studio_2021_01_workspace_RZA2M_ANPR/ANPR_RZA2M_RDK/src/tensorflow_lite/src/third_party/gemmlowp/fixedpoint\fixedpoint.h ****   return BitXor(BitAnd(if_mask, then_val), BitAnd(BitNot(if_mask), else_val));
 151:C:/Renesas/e2studio_2021_01_workspace_RZA2M_ANPR/ANPR_RZA2M_RDK/src/tensorflow_lite/src/third_party/gemmlowp/fixedpoint\fixedpoint.h **** }
 152:C:/Renesas/e2studio_2021_01_workspace_RZA2M_ANPR/ANPR_RZA2M_RDK/src/tensorflow_lite/src/third_party/gemmlowp/fixedpoint\fixedpoint.h **** 
 153:C:/Renesas/e2studio_2021_01_workspace_RZA2M_ANPR/ANPR_RZA2M_RDK/src/tensorflow_lite/src/third_party/gemmlowp/fixedpoint\fixedpoint.h **** // For each input scalar, the corresponding bits of the result are set if the
 154:C:/Renesas/e2studio_2021_01_workspace_RZA2M_ANPR/ANPR_RZA2M_RDK/src/tensorflow_lite/src/third_party/gemmlowp/fixedpoint\fixedpoint.h **** // input scalar is non-zero.
 155:C:/Renesas/e2studio_2021_01_workspace_RZA2M_ANPR/ANPR_RZA2M_RDK/src/tensorflow_lite/src/third_party/gemmlowp/fixedpoint\fixedpoint.h **** template <typename tIntegerType>
 156:C:/Renesas/e2studio_2021_01_workspace_RZA2M_ANPR/ANPR_RZA2M_RDK/src/tensorflow_lite/src/third_party/gemmlowp/fixedpoint\fixedpoint.h **** tIntegerType MaskIfNonZero(tIntegerType a) {
 157:C:/Renesas/e2studio_2021_01_workspace_RZA2M_ANPR/ANPR_RZA2M_RDK/src/tensorflow_lite/src/third_party/gemmlowp/fixedpoint\fixedpoint.h ****   static constexpr tIntegerType zero = 0;
 158:C:/Renesas/e2studio_2021_01_workspace_RZA2M_ANPR/ANPR_RZA2M_RDK/src/tensorflow_lite/src/third_party/gemmlowp/fixedpoint\fixedpoint.h ****   return a ? BitNot(zero) : zero;
 159:C:/Renesas/e2studio_2021_01_workspace_RZA2M_ANPR/ANPR_RZA2M_RDK/src/tensorflow_lite/src/third_party/gemmlowp/fixedpoint\fixedpoint.h **** }
 160:C:/Renesas/e2studio_2021_01_workspace_RZA2M_ANPR/ANPR_RZA2M_RDK/src/tensorflow_lite/src/third_party/gemmlowp/fixedpoint\fixedpoint.h **** 
 161:C:/Renesas/e2studio_2021_01_workspace_RZA2M_ANPR/ANPR_RZA2M_RDK/src/tensorflow_lite/src/third_party/gemmlowp/fixedpoint\fixedpoint.h **** // For each input scalar, the corresponding bits of the result are set if the
 162:C:/Renesas/e2studio_2021_01_workspace_RZA2M_ANPR/ANPR_RZA2M_RDK/src/tensorflow_lite/src/third_party/gemmlowp/fixedpoint\fixedpoint.h **** // input scalar is zero.
 163:C:/Renesas/e2studio_2021_01_workspace_RZA2M_ANPR/ANPR_RZA2M_RDK/src/tensorflow_lite/src/third_party/gemmlowp/fixedpoint\fixedpoint.h **** template <typename tIntegerType>
 164:C:/Renesas/e2studio_2021_01_workspace_RZA2M_ANPR/ANPR_RZA2M_RDK/src/tensorflow_lite/src/third_party/gemmlowp/fixedpoint\fixedpoint.h **** tIntegerType MaskIfZero(tIntegerType a) {
 165:C:/Renesas/e2studio_2021_01_workspace_RZA2M_ANPR/ANPR_RZA2M_RDK/src/tensorflow_lite/src/third_party/gemmlowp/fixedpoint\fixedpoint.h ****   return MaskIfNonZero<tIntegerType>(!a);
 166:C:/Renesas/e2studio_2021_01_workspace_RZA2M_ANPR/ANPR_RZA2M_RDK/src/tensorflow_lite/src/third_party/gemmlowp/fixedpoint\fixedpoint.h **** }
 167:C:/Renesas/e2studio_2021_01_workspace_RZA2M_ANPR/ANPR_RZA2M_RDK/src/tensorflow_lite/src/third_party/gemmlowp/fixedpoint\fixedpoint.h **** 
 168:C:/Renesas/e2studio_2021_01_workspace_RZA2M_ANPR/ANPR_RZA2M_RDK/src/tensorflow_lite/src/third_party/gemmlowp/fixedpoint\fixedpoint.h **** // For each pair of input scalars, the corresponding bits of the result are
 169:C:/Renesas/e2studio_2021_01_workspace_RZA2M_ANPR/ANPR_RZA2M_RDK/src/tensorflow_lite/src/third_party/gemmlowp/fixedpoint\fixedpoint.h **** // set if the input scalars are equal.
 170:C:/Renesas/e2studio_2021_01_workspace_RZA2M_ANPR/ANPR_RZA2M_RDK/src/tensorflow_lite/src/third_party/gemmlowp/fixedpoint\fixedpoint.h **** template <typename tIntegerType>
 171:C:/Renesas/e2studio_2021_01_workspace_RZA2M_ANPR/ANPR_RZA2M_RDK/src/tensorflow_lite/src/third_party/gemmlowp/fixedpoint\fixedpoint.h **** tIntegerType MaskIfEqual(tIntegerType a, tIntegerType b) {
 172:C:/Renesas/e2studio_2021_01_workspace_RZA2M_ANPR/ANPR_RZA2M_RDK/src/tensorflow_lite/src/third_party/gemmlowp/fixedpoint\fixedpoint.h ****   return MaskIfNonZero<tIntegerType>(a == b);
 173:C:/Renesas/e2studio_2021_01_workspace_RZA2M_ANPR/ANPR_RZA2M_RDK/src/tensorflow_lite/src/third_party/gemmlowp/fixedpoint\fixedpoint.h **** }
 174:C:/Renesas/e2studio_2021_01_workspace_RZA2M_ANPR/ANPR_RZA2M_RDK/src/tensorflow_lite/src/third_party/gemmlowp/fixedpoint\fixedpoint.h **** 
 175:C:/Renesas/e2studio_2021_01_workspace_RZA2M_ANPR/ANPR_RZA2M_RDK/src/tensorflow_lite/src/third_party/gemmlowp/fixedpoint\fixedpoint.h **** // For each pair of input scalars, the corresponding bits of the result are
 176:C:/Renesas/e2studio_2021_01_workspace_RZA2M_ANPR/ANPR_RZA2M_RDK/src/tensorflow_lite/src/third_party/gemmlowp/fixedpoint\fixedpoint.h **** // set if the input scalars are not equal.
 177:C:/Renesas/e2studio_2021_01_workspace_RZA2M_ANPR/ANPR_RZA2M_RDK/src/tensorflow_lite/src/third_party/gemmlowp/fixedpoint\fixedpoint.h **** template <typename tIntegerType>
 178:C:/Renesas/e2studio_2021_01_workspace_RZA2M_ANPR/ANPR_RZA2M_RDK/src/tensorflow_lite/src/third_party/gemmlowp/fixedpoint\fixedpoint.h **** tIntegerType MaskIfNotEqual(tIntegerType a, tIntegerType b) {
 179:C:/Renesas/e2studio_2021_01_workspace_RZA2M_ANPR/ANPR_RZA2M_RDK/src/tensorflow_lite/src/third_party/gemmlowp/fixedpoint\fixedpoint.h ****   return MaskIfNonZero<tIntegerType>(a != b);
 180:C:/Renesas/e2studio_2021_01_workspace_RZA2M_ANPR/ANPR_RZA2M_RDK/src/tensorflow_lite/src/third_party/gemmlowp/fixedpoint\fixedpoint.h **** }
 181:C:/Renesas/e2studio_2021_01_workspace_RZA2M_ANPR/ANPR_RZA2M_RDK/src/tensorflow_lite/src/third_party/gemmlowp/fixedpoint\fixedpoint.h **** 
 182:C:/Renesas/e2studio_2021_01_workspace_RZA2M_ANPR/ANPR_RZA2M_RDK/src/tensorflow_lite/src/third_party/gemmlowp/fixedpoint\fixedpoint.h **** // For each pair of input scalars, the corresponding bits of the result are
 183:C:/Renesas/e2studio_2021_01_workspace_RZA2M_ANPR/ANPR_RZA2M_RDK/src/tensorflow_lite/src/third_party/gemmlowp/fixedpoint\fixedpoint.h **** // set if the input scalars a, b satisfy a > b.
 184:C:/Renesas/e2studio_2021_01_workspace_RZA2M_ANPR/ANPR_RZA2M_RDK/src/tensorflow_lite/src/third_party/gemmlowp/fixedpoint\fixedpoint.h **** template <typename tIntegerType>
 185:C:/Renesas/e2studio_2021_01_workspace_RZA2M_ANPR/ANPR_RZA2M_RDK/src/tensorflow_lite/src/third_party/gemmlowp/fixedpoint\fixedpoint.h **** tIntegerType MaskIfGreaterThan(tIntegerType a, tIntegerType b) {
 186:C:/Renesas/e2studio_2021_01_workspace_RZA2M_ANPR/ANPR_RZA2M_RDK/src/tensorflow_lite/src/third_party/gemmlowp/fixedpoint\fixedpoint.h ****   return MaskIfNonZero<tIntegerType>(a > b);
 187:C:/Renesas/e2studio_2021_01_workspace_RZA2M_ANPR/ANPR_RZA2M_RDK/src/tensorflow_lite/src/third_party/gemmlowp/fixedpoint\fixedpoint.h **** }
 188:C:/Renesas/e2studio_2021_01_workspace_RZA2M_ANPR/ANPR_RZA2M_RDK/src/tensorflow_lite/src/third_party/gemmlowp/fixedpoint\fixedpoint.h **** 
 189:C:/Renesas/e2studio_2021_01_workspace_RZA2M_ANPR/ANPR_RZA2M_RDK/src/tensorflow_lite/src/third_party/gemmlowp/fixedpoint\fixedpoint.h **** // For each pair of input scalars, the corresponding bits of the result are
 190:C:/Renesas/e2studio_2021_01_workspace_RZA2M_ANPR/ANPR_RZA2M_RDK/src/tensorflow_lite/src/third_party/gemmlowp/fixedpoint\fixedpoint.h **** // set if the input scalars a, b satisfy a >= b.
 191:C:/Renesas/e2studio_2021_01_workspace_RZA2M_ANPR/ANPR_RZA2M_RDK/src/tensorflow_lite/src/third_party/gemmlowp/fixedpoint\fixedpoint.h **** template <typename tIntegerType>
 192:C:/Renesas/e2studio_2021_01_workspace_RZA2M_ANPR/ANPR_RZA2M_RDK/src/tensorflow_lite/src/third_party/gemmlowp/fixedpoint\fixedpoint.h **** tIntegerType MaskIfGreaterThanOrEqual(tIntegerType a, tIntegerType b) {
 193:C:/Renesas/e2studio_2021_01_workspace_RZA2M_ANPR/ANPR_RZA2M_RDK/src/tensorflow_lite/src/third_party/gemmlowp/fixedpoint\fixedpoint.h ****   return MaskIfNonZero<tIntegerType>(a >= b);
 194:C:/Renesas/e2studio_2021_01_workspace_RZA2M_ANPR/ANPR_RZA2M_RDK/src/tensorflow_lite/src/third_party/gemmlowp/fixedpoint\fixedpoint.h **** }
 195:C:/Renesas/e2studio_2021_01_workspace_RZA2M_ANPR/ANPR_RZA2M_RDK/src/tensorflow_lite/src/third_party/gemmlowp/fixedpoint\fixedpoint.h **** 
 196:C:/Renesas/e2studio_2021_01_workspace_RZA2M_ANPR/ANPR_RZA2M_RDK/src/tensorflow_lite/src/third_party/gemmlowp/fixedpoint\fixedpoint.h **** // For each pair of input scalars, the corresponding bits of the result are
 197:C:/Renesas/e2studio_2021_01_workspace_RZA2M_ANPR/ANPR_RZA2M_RDK/src/tensorflow_lite/src/third_party/gemmlowp/fixedpoint\fixedpoint.h **** // set if the input scalars a, b satisfy a < b.
 198:C:/Renesas/e2studio_2021_01_workspace_RZA2M_ANPR/ANPR_RZA2M_RDK/src/tensorflow_lite/src/third_party/gemmlowp/fixedpoint\fixedpoint.h **** template <typename tIntegerType>
 199:C:/Renesas/e2studio_2021_01_workspace_RZA2M_ANPR/ANPR_RZA2M_RDK/src/tensorflow_lite/src/third_party/gemmlowp/fixedpoint\fixedpoint.h **** tIntegerType MaskIfLessThan(tIntegerType a, tIntegerType b) {
 200:C:/Renesas/e2studio_2021_01_workspace_RZA2M_ANPR/ANPR_RZA2M_RDK/src/tensorflow_lite/src/third_party/gemmlowp/fixedpoint\fixedpoint.h ****   return MaskIfNonZero<tIntegerType>(a < b);
 201:C:/Renesas/e2studio_2021_01_workspace_RZA2M_ANPR/ANPR_RZA2M_RDK/src/tensorflow_lite/src/third_party/gemmlowp/fixedpoint\fixedpoint.h **** }
 202:C:/Renesas/e2studio_2021_01_workspace_RZA2M_ANPR/ANPR_RZA2M_RDK/src/tensorflow_lite/src/third_party/gemmlowp/fixedpoint\fixedpoint.h **** 
 203:C:/Renesas/e2studio_2021_01_workspace_RZA2M_ANPR/ANPR_RZA2M_RDK/src/tensorflow_lite/src/third_party/gemmlowp/fixedpoint\fixedpoint.h **** // For each pair of input scalars, the corresponding bits of the result are
 204:C:/Renesas/e2studio_2021_01_workspace_RZA2M_ANPR/ANPR_RZA2M_RDK/src/tensorflow_lite/src/third_party/gemmlowp/fixedpoint\fixedpoint.h **** // set if the input scalars a, b satisfy a <= b.
 205:C:/Renesas/e2studio_2021_01_workspace_RZA2M_ANPR/ANPR_RZA2M_RDK/src/tensorflow_lite/src/third_party/gemmlowp/fixedpoint\fixedpoint.h **** template <typename tIntegerType>
 206:C:/Renesas/e2studio_2021_01_workspace_RZA2M_ANPR/ANPR_RZA2M_RDK/src/tensorflow_lite/src/third_party/gemmlowp/fixedpoint\fixedpoint.h **** tIntegerType MaskIfLessThanOrEqual(tIntegerType a, tIntegerType b) {
 207:C:/Renesas/e2studio_2021_01_workspace_RZA2M_ANPR/ANPR_RZA2M_RDK/src/tensorflow_lite/src/third_party/gemmlowp/fixedpoint\fixedpoint.h ****   return MaskIfNonZero<tIntegerType>(a <= b);
 208:C:/Renesas/e2studio_2021_01_workspace_RZA2M_ANPR/ANPR_RZA2M_RDK/src/tensorflow_lite/src/third_party/gemmlowp/fixedpoint\fixedpoint.h **** }
 209:C:/Renesas/e2studio_2021_01_workspace_RZA2M_ANPR/ANPR_RZA2M_RDK/src/tensorflow_lite/src/third_party/gemmlowp/fixedpoint\fixedpoint.h **** 
 210:C:/Renesas/e2studio_2021_01_workspace_RZA2M_ANPR/ANPR_RZA2M_RDK/src/tensorflow_lite/src/third_party/gemmlowp/fixedpoint\fixedpoint.h **** // Returns true if all of the input scalars are nonzero.
 211:C:/Renesas/e2studio_2021_01_workspace_RZA2M_ANPR/ANPR_RZA2M_RDK/src/tensorflow_lite/src/third_party/gemmlowp/fixedpoint\fixedpoint.h **** // This function may currently assume that each of the input scalars has either
 212:C:/Renesas/e2studio_2021_01_workspace_RZA2M_ANPR/ANPR_RZA2M_RDK/src/tensorflow_lite/src/third_party/gemmlowp/fixedpoint\fixedpoint.h **** // all or none of its bits set. Otherwise, its behavior is currently undefined.
 213:C:/Renesas/e2studio_2021_01_workspace_RZA2M_ANPR/ANPR_RZA2M_RDK/src/tensorflow_lite/src/third_party/gemmlowp/fixedpoint\fixedpoint.h **** template <typename tIntegerType>
 214:C:/Renesas/e2studio_2021_01_workspace_RZA2M_ANPR/ANPR_RZA2M_RDK/src/tensorflow_lite/src/third_party/gemmlowp/fixedpoint\fixedpoint.h **** bool All(tIntegerType a) {
 215:C:/Renesas/e2studio_2021_01_workspace_RZA2M_ANPR/ANPR_RZA2M_RDK/src/tensorflow_lite/src/third_party/gemmlowp/fixedpoint\fixedpoint.h ****   return a;
 216:C:/Renesas/e2studio_2021_01_workspace_RZA2M_ANPR/ANPR_RZA2M_RDK/src/tensorflow_lite/src/third_party/gemmlowp/fixedpoint\fixedpoint.h **** }
 217:C:/Renesas/e2studio_2021_01_workspace_RZA2M_ANPR/ANPR_RZA2M_RDK/src/tensorflow_lite/src/third_party/gemmlowp/fixedpoint\fixedpoint.h **** 
 218:C:/Renesas/e2studio_2021_01_workspace_RZA2M_ANPR/ANPR_RZA2M_RDK/src/tensorflow_lite/src/third_party/gemmlowp/fixedpoint\fixedpoint.h **** // Returns true if any of the input scalars are nonzero.
 219:C:/Renesas/e2studio_2021_01_workspace_RZA2M_ANPR/ANPR_RZA2M_RDK/src/tensorflow_lite/src/third_party/gemmlowp/fixedpoint\fixedpoint.h **** // This function may currently assume that each of the input scalars has either
 220:C:/Renesas/e2studio_2021_01_workspace_RZA2M_ANPR/ANPR_RZA2M_RDK/src/tensorflow_lite/src/third_party/gemmlowp/fixedpoint\fixedpoint.h **** // all or none of its bits set. Otherwise, its behavior is currently undefined.
 221:C:/Renesas/e2studio_2021_01_workspace_RZA2M_ANPR/ANPR_RZA2M_RDK/src/tensorflow_lite/src/third_party/gemmlowp/fixedpoint\fixedpoint.h **** template <typename tIntegerType>
 222:C:/Renesas/e2studio_2021_01_workspace_RZA2M_ANPR/ANPR_RZA2M_RDK/src/tensorflow_lite/src/third_party/gemmlowp/fixedpoint\fixedpoint.h **** bool Any(tIntegerType a) {
 223:C:/Renesas/e2studio_2021_01_workspace_RZA2M_ANPR/ANPR_RZA2M_RDK/src/tensorflow_lite/src/third_party/gemmlowp/fixedpoint\fixedpoint.h ****   return a;
 224:C:/Renesas/e2studio_2021_01_workspace_RZA2M_ANPR/ANPR_RZA2M_RDK/src/tensorflow_lite/src/third_party/gemmlowp/fixedpoint\fixedpoint.h **** }
 225:C:/Renesas/e2studio_2021_01_workspace_RZA2M_ANPR/ANPR_RZA2M_RDK/src/tensorflow_lite/src/third_party/gemmlowp/fixedpoint\fixedpoint.h **** 
 226:C:/Renesas/e2studio_2021_01_workspace_RZA2M_ANPR/ANPR_RZA2M_RDK/src/tensorflow_lite/src/third_party/gemmlowp/fixedpoint\fixedpoint.h **** // Returns (a+b)/2, rounded to the nearest integer.
 227:C:/Renesas/e2studio_2021_01_workspace_RZA2M_ANPR/ANPR_RZA2M_RDK/src/tensorflow_lite/src/third_party/gemmlowp/fixedpoint\fixedpoint.h **** // Equivalent to VRHADD in the ARM NEON instruction set.
 228:C:/Renesas/e2studio_2021_01_workspace_RZA2M_ANPR/ANPR_RZA2M_RDK/src/tensorflow_lite/src/third_party/gemmlowp/fixedpoint\fixedpoint.h **** template <typename IntegerType>
 229:C:/Renesas/e2studio_2021_01_workspace_RZA2M_ANPR/ANPR_RZA2M_RDK/src/tensorflow_lite/src/third_party/gemmlowp/fixedpoint\fixedpoint.h **** IntegerType RoundingHalfSum(IntegerType a, IntegerType b) {
 230:C:/Renesas/e2studio_2021_01_workspace_RZA2M_ANPR/ANPR_RZA2M_RDK/src/tensorflow_lite/src/third_party/gemmlowp/fixedpoint\fixedpoint.h ****   static_assert(std::is_same<IntegerType, void>::value, "unimplemented");
 231:C:/Renesas/e2studio_2021_01_workspace_RZA2M_ANPR/ANPR_RZA2M_RDK/src/tensorflow_lite/src/third_party/gemmlowp/fixedpoint\fixedpoint.h ****   (void)b;
 232:C:/Renesas/e2studio_2021_01_workspace_RZA2M_ANPR/ANPR_RZA2M_RDK/src/tensorflow_lite/src/third_party/gemmlowp/fixedpoint\fixedpoint.h ****   return a;
 233:C:/Renesas/e2studio_2021_01_workspace_RZA2M_ANPR/ANPR_RZA2M_RDK/src/tensorflow_lite/src/third_party/gemmlowp/fixedpoint\fixedpoint.h **** }
 234:C:/Renesas/e2studio_2021_01_workspace_RZA2M_ANPR/ANPR_RZA2M_RDK/src/tensorflow_lite/src/third_party/gemmlowp/fixedpoint\fixedpoint.h **** 
 235:C:/Renesas/e2studio_2021_01_workspace_RZA2M_ANPR/ANPR_RZA2M_RDK/src/tensorflow_lite/src/third_party/gemmlowp/fixedpoint\fixedpoint.h **** template <>
 236:C:/Renesas/e2studio_2021_01_workspace_RZA2M_ANPR/ANPR_RZA2M_RDK/src/tensorflow_lite/src/third_party/gemmlowp/fixedpoint\fixedpoint.h **** inline std::int32_t RoundingHalfSum(std::int32_t a, std::int32_t b) {
 237:C:/Renesas/e2studio_2021_01_workspace_RZA2M_ANPR/ANPR_RZA2M_RDK/src/tensorflow_lite/src/third_party/gemmlowp/fixedpoint\fixedpoint.h ****   std::int64_t a64 = a;
 238:C:/Renesas/e2studio_2021_01_workspace_RZA2M_ANPR/ANPR_RZA2M_RDK/src/tensorflow_lite/src/third_party/gemmlowp/fixedpoint\fixedpoint.h ****   std::int64_t b64 = b;
 239:C:/Renesas/e2studio_2021_01_workspace_RZA2M_ANPR/ANPR_RZA2M_RDK/src/tensorflow_lite/src/third_party/gemmlowp/fixedpoint\fixedpoint.h ****   std::int64_t sum = a64 + b64;
 240:C:/Renesas/e2studio_2021_01_workspace_RZA2M_ANPR/ANPR_RZA2M_RDK/src/tensorflow_lite/src/third_party/gemmlowp/fixedpoint\fixedpoint.h ****   std::int64_t sign = sum >= 0 ? 1 : -1;
 241:C:/Renesas/e2studio_2021_01_workspace_RZA2M_ANPR/ANPR_RZA2M_RDK/src/tensorflow_lite/src/third_party/gemmlowp/fixedpoint\fixedpoint.h ****   return static_cast<std::int32_t>((sum + sign) / 2);
 242:C:/Renesas/e2studio_2021_01_workspace_RZA2M_ANPR/ANPR_RZA2M_RDK/src/tensorflow_lite/src/third_party/gemmlowp/fixedpoint\fixedpoint.h **** }
 243:C:/Renesas/e2studio_2021_01_workspace_RZA2M_ANPR/ANPR_RZA2M_RDK/src/tensorflow_lite/src/third_party/gemmlowp/fixedpoint\fixedpoint.h **** 
 244:C:/Renesas/e2studio_2021_01_workspace_RZA2M_ANPR/ANPR_RZA2M_RDK/src/tensorflow_lite/src/third_party/gemmlowp/fixedpoint\fixedpoint.h **** template <>
 245:C:/Renesas/e2studio_2021_01_workspace_RZA2M_ANPR/ANPR_RZA2M_RDK/src/tensorflow_lite/src/third_party/gemmlowp/fixedpoint\fixedpoint.h **** inline std::int16_t RoundingHalfSum(std::int16_t a, std::int16_t b) {
 246:C:/Renesas/e2studio_2021_01_workspace_RZA2M_ANPR/ANPR_RZA2M_RDK/src/tensorflow_lite/src/third_party/gemmlowp/fixedpoint\fixedpoint.h ****   std::int32_t a32 = a;
 247:C:/Renesas/e2studio_2021_01_workspace_RZA2M_ANPR/ANPR_RZA2M_RDK/src/tensorflow_lite/src/third_party/gemmlowp/fixedpoint\fixedpoint.h ****   std::int32_t b32 = b;
 248:C:/Renesas/e2studio_2021_01_workspace_RZA2M_ANPR/ANPR_RZA2M_RDK/src/tensorflow_lite/src/third_party/gemmlowp/fixedpoint\fixedpoint.h ****   std::int32_t sum = a32 + b32;
 249:C:/Renesas/e2studio_2021_01_workspace_RZA2M_ANPR/ANPR_RZA2M_RDK/src/tensorflow_lite/src/third_party/gemmlowp/fixedpoint\fixedpoint.h ****   std::int32_t sign = sum >= 0 ? 1 : -1;
 250:C:/Renesas/e2studio_2021_01_workspace_RZA2M_ANPR/ANPR_RZA2M_RDK/src/tensorflow_lite/src/third_party/gemmlowp/fixedpoint\fixedpoint.h ****   return static_cast<std::int16_t>((sum + sign) / 2);
 251:C:/Renesas/e2studio_2021_01_workspace_RZA2M_ANPR/ANPR_RZA2M_RDK/src/tensorflow_lite/src/third_party/gemmlowp/fixedpoint\fixedpoint.h **** }
 252:C:/Renesas/e2studio_2021_01_workspace_RZA2M_ANPR/ANPR_RZA2M_RDK/src/tensorflow_lite/src/third_party/gemmlowp/fixedpoint\fixedpoint.h **** 
 253:C:/Renesas/e2studio_2021_01_workspace_RZA2M_ANPR/ANPR_RZA2M_RDK/src/tensorflow_lite/src/third_party/gemmlowp/fixedpoint\fixedpoint.h **** template <typename IntegerType>
 254:C:/Renesas/e2studio_2021_01_workspace_RZA2M_ANPR/ANPR_RZA2M_RDK/src/tensorflow_lite/src/third_party/gemmlowp/fixedpoint\fixedpoint.h **** IntegerType SaturatingAdd(IntegerType a, IntegerType b) {
 255:C:/Renesas/e2studio_2021_01_workspace_RZA2M_ANPR/ANPR_RZA2M_RDK/src/tensorflow_lite/src/third_party/gemmlowp/fixedpoint\fixedpoint.h ****   static_assert(std::is_same<IntegerType, void>::value, "unimplemented");
 256:C:/Renesas/e2studio_2021_01_workspace_RZA2M_ANPR/ANPR_RZA2M_RDK/src/tensorflow_lite/src/third_party/gemmlowp/fixedpoint\fixedpoint.h ****   (void)b;
 257:C:/Renesas/e2studio_2021_01_workspace_RZA2M_ANPR/ANPR_RZA2M_RDK/src/tensorflow_lite/src/third_party/gemmlowp/fixedpoint\fixedpoint.h ****   return a;
 258:C:/Renesas/e2studio_2021_01_workspace_RZA2M_ANPR/ANPR_RZA2M_RDK/src/tensorflow_lite/src/third_party/gemmlowp/fixedpoint\fixedpoint.h **** }
 259:C:/Renesas/e2studio_2021_01_workspace_RZA2M_ANPR/ANPR_RZA2M_RDK/src/tensorflow_lite/src/third_party/gemmlowp/fixedpoint\fixedpoint.h **** 
 260:C:/Renesas/e2studio_2021_01_workspace_RZA2M_ANPR/ANPR_RZA2M_RDK/src/tensorflow_lite/src/third_party/gemmlowp/fixedpoint\fixedpoint.h **** // So far this is only needed for int16.
 261:C:/Renesas/e2studio_2021_01_workspace_RZA2M_ANPR/ANPR_RZA2M_RDK/src/tensorflow_lite/src/third_party/gemmlowp/fixedpoint\fixedpoint.h **** template <>
 262:C:/Renesas/e2studio_2021_01_workspace_RZA2M_ANPR/ANPR_RZA2M_RDK/src/tensorflow_lite/src/third_party/gemmlowp/fixedpoint\fixedpoint.h **** inline std::int16_t SaturatingAdd(std::int16_t a, std::int16_t b) {
 263:C:/Renesas/e2studio_2021_01_workspace_RZA2M_ANPR/ANPR_RZA2M_RDK/src/tensorflow_lite/src/third_party/gemmlowp/fixedpoint\fixedpoint.h ****   std::int32_t a32 = a;
 264:C:/Renesas/e2studio_2021_01_workspace_RZA2M_ANPR/ANPR_RZA2M_RDK/src/tensorflow_lite/src/third_party/gemmlowp/fixedpoint\fixedpoint.h ****   std::int32_t b32 = b;
 265:C:/Renesas/e2studio_2021_01_workspace_RZA2M_ANPR/ANPR_RZA2M_RDK/src/tensorflow_lite/src/third_party/gemmlowp/fixedpoint\fixedpoint.h ****   std::int32_t sum = a32 + b32;
 266:C:/Renesas/e2studio_2021_01_workspace_RZA2M_ANPR/ANPR_RZA2M_RDK/src/tensorflow_lite/src/third_party/gemmlowp/fixedpoint\fixedpoint.h ****   return static_cast<std::int16_t>(
 267:C:/Renesas/e2studio_2021_01_workspace_RZA2M_ANPR/ANPR_RZA2M_RDK/src/tensorflow_lite/src/third_party/gemmlowp/fixedpoint\fixedpoint.h ****       std::min(static_cast<std::int32_t>(32767),
 268:C:/Renesas/e2studio_2021_01_workspace_RZA2M_ANPR/ANPR_RZA2M_RDK/src/tensorflow_lite/src/third_party/gemmlowp/fixedpoint\fixedpoint.h ****                std::max(static_cast<std::int32_t>(-32768), sum)));
 269:C:/Renesas/e2studio_2021_01_workspace_RZA2M_ANPR/ANPR_RZA2M_RDK/src/tensorflow_lite/src/third_party/gemmlowp/fixedpoint\fixedpoint.h **** }
 270:C:/Renesas/e2studio_2021_01_workspace_RZA2M_ANPR/ANPR_RZA2M_RDK/src/tensorflow_lite/src/third_party/gemmlowp/fixedpoint\fixedpoint.h **** 
 271:C:/Renesas/e2studio_2021_01_workspace_RZA2M_ANPR/ANPR_RZA2M_RDK/src/tensorflow_lite/src/third_party/gemmlowp/fixedpoint\fixedpoint.h **** // Returns a+b, saturating if the integers are 16bit or narrower,
 272:C:/Renesas/e2studio_2021_01_workspace_RZA2M_ANPR/ANPR_RZA2M_RDK/src/tensorflow_lite/src/third_party/gemmlowp/fixedpoint\fixedpoint.h **** // otherwise just a plain addition.
 273:C:/Renesas/e2studio_2021_01_workspace_RZA2M_ANPR/ANPR_RZA2M_RDK/src/tensorflow_lite/src/third_party/gemmlowp/fixedpoint\fixedpoint.h **** template <typename IntegerType, bool Is16Bit>
 274:C:/Renesas/e2studio_2021_01_workspace_RZA2M_ANPR/ANPR_RZA2M_RDK/src/tensorflow_lite/src/third_party/gemmlowp/fixedpoint\fixedpoint.h **** struct AddSaturatingIf16BitImpl {
 275:C:/Renesas/e2studio_2021_01_workspace_RZA2M_ANPR/ANPR_RZA2M_RDK/src/tensorflow_lite/src/third_party/gemmlowp/fixedpoint\fixedpoint.h ****   static IntegerType Run(IntegerType a, IntegerType b) { return Add(a, b); }
 276:C:/Renesas/e2studio_2021_01_workspace_RZA2M_ANPR/ANPR_RZA2M_RDK/src/tensorflow_lite/src/third_party/gemmlowp/fixedpoint\fixedpoint.h **** };
 277:C:/Renesas/e2studio_2021_01_workspace_RZA2M_ANPR/ANPR_RZA2M_RDK/src/tensorflow_lite/src/third_party/gemmlowp/fixedpoint\fixedpoint.h **** template <typename IntegerType>
 278:C:/Renesas/e2studio_2021_01_workspace_RZA2M_ANPR/ANPR_RZA2M_RDK/src/tensorflow_lite/src/third_party/gemmlowp/fixedpoint\fixedpoint.h **** struct AddSaturatingIf16BitImpl<IntegerType, true> {
 279:C:/Renesas/e2studio_2021_01_workspace_RZA2M_ANPR/ANPR_RZA2M_RDK/src/tensorflow_lite/src/third_party/gemmlowp/fixedpoint\fixedpoint.h ****   static IntegerType Run(IntegerType a, IntegerType b) {
 280:C:/Renesas/e2studio_2021_01_workspace_RZA2M_ANPR/ANPR_RZA2M_RDK/src/tensorflow_lite/src/third_party/gemmlowp/fixedpoint\fixedpoint.h ****     return SaturatingAdd(a, b);
 281:C:/Renesas/e2studio_2021_01_workspace_RZA2M_ANPR/ANPR_RZA2M_RDK/src/tensorflow_lite/src/third_party/gemmlowp/fixedpoint\fixedpoint.h ****   }
 282:C:/Renesas/e2studio_2021_01_workspace_RZA2M_ANPR/ANPR_RZA2M_RDK/src/tensorflow_lite/src/third_party/gemmlowp/fixedpoint\fixedpoint.h **** };
 283:C:/Renesas/e2studio_2021_01_workspace_RZA2M_ANPR/ANPR_RZA2M_RDK/src/tensorflow_lite/src/third_party/gemmlowp/fixedpoint\fixedpoint.h **** template <typename IntegerType>
 284:C:/Renesas/e2studio_2021_01_workspace_RZA2M_ANPR/ANPR_RZA2M_RDK/src/tensorflow_lite/src/third_party/gemmlowp/fixedpoint\fixedpoint.h **** IntegerType AddSaturatingIf16Bit(IntegerType a, IntegerType b) {
 285:C:/Renesas/e2studio_2021_01_workspace_RZA2M_ANPR/ANPR_RZA2M_RDK/src/tensorflow_lite/src/third_party/gemmlowp/fixedpoint\fixedpoint.h ****   using ScalarType =
 286:C:/Renesas/e2studio_2021_01_workspace_RZA2M_ANPR/ANPR_RZA2M_RDK/src/tensorflow_lite/src/third_party/gemmlowp/fixedpoint\fixedpoint.h ****       typename FixedPointRawTypeTraits<IntegerType>::ScalarRawType;
 287:C:/Renesas/e2studio_2021_01_workspace_RZA2M_ANPR/ANPR_RZA2M_RDK/src/tensorflow_lite/src/third_party/gemmlowp/fixedpoint\fixedpoint.h ****   return AddSaturatingIf16BitImpl<IntegerType, sizeof(ScalarType) == 2>::Run(a,
 288:C:/Renesas/e2studio_2021_01_workspace_RZA2M_ANPR/ANPR_RZA2M_RDK/src/tensorflow_lite/src/third_party/gemmlowp/fixedpoint\fixedpoint.h ****                                                                              b);
 289:C:/Renesas/e2studio_2021_01_workspace_RZA2M_ANPR/ANPR_RZA2M_RDK/src/tensorflow_lite/src/third_party/gemmlowp/fixedpoint\fixedpoint.h **** }
 290:C:/Renesas/e2studio_2021_01_workspace_RZA2M_ANPR/ANPR_RZA2M_RDK/src/tensorflow_lite/src/third_party/gemmlowp/fixedpoint\fixedpoint.h **** 
 291:C:/Renesas/e2studio_2021_01_workspace_RZA2M_ANPR/ANPR_RZA2M_RDK/src/tensorflow_lite/src/third_party/gemmlowp/fixedpoint\fixedpoint.h **** // Returns the integer that represents the product of two fixed-point
 292:C:/Renesas/e2studio_2021_01_workspace_RZA2M_ANPR/ANPR_RZA2M_RDK/src/tensorflow_lite/src/third_party/gemmlowp/fixedpoint\fixedpoint.h **** // numbers, interpreting all integers as fixed-point values in the
 293:C:/Renesas/e2studio_2021_01_workspace_RZA2M_ANPR/ANPR_RZA2M_RDK/src/tensorflow_lite/src/third_party/gemmlowp/fixedpoint\fixedpoint.h **** // interval [-1, 1), rounding to the nearest value, and saturating
 294:C:/Renesas/e2studio_2021_01_workspace_RZA2M_ANPR/ANPR_RZA2M_RDK/src/tensorflow_lite/src/third_party/gemmlowp/fixedpoint\fixedpoint.h **** // -1 * -1 to the maximum value (since 1 is not in the half-open
 295:C:/Renesas/e2studio_2021_01_workspace_RZA2M_ANPR/ANPR_RZA2M_RDK/src/tensorflow_lite/src/third_party/gemmlowp/fixedpoint\fixedpoint.h **** // interval [-1, 1)).
 296:C:/Renesas/e2studio_2021_01_workspace_RZA2M_ANPR/ANPR_RZA2M_RDK/src/tensorflow_lite/src/third_party/gemmlowp/fixedpoint\fixedpoint.h **** //
 297:C:/Renesas/e2studio_2021_01_workspace_RZA2M_ANPR/ANPR_RZA2M_RDK/src/tensorflow_lite/src/third_party/gemmlowp/fixedpoint\fixedpoint.h **** // [The explanation below specializes to std::int32_t for example purpose.]
 298:C:/Renesas/e2studio_2021_01_workspace_RZA2M_ANPR/ANPR_RZA2M_RDK/src/tensorflow_lite/src/third_party/gemmlowp/fixedpoint\fixedpoint.h **** //
 299:C:/Renesas/e2studio_2021_01_workspace_RZA2M_ANPR/ANPR_RZA2M_RDK/src/tensorflow_lite/src/third_party/gemmlowp/fixedpoint\fixedpoint.h **** // The mapping between IntegerType and the interval [-1, 1) is unique and
 300:C:/Renesas/e2studio_2021_01_workspace_RZA2M_ANPR/ANPR_RZA2M_RDK/src/tensorflow_lite/src/third_party/gemmlowp/fixedpoint\fixedpoint.h **** // implied by IntegerType, which is assumed to be signed. For example,
 301:C:/Renesas/e2studio_2021_01_workspace_RZA2M_ANPR/ANPR_RZA2M_RDK/src/tensorflow_lite/src/third_party/gemmlowp/fixedpoint\fixedpoint.h **** // for IntegerType==std::int32_t, the mapping is
 302:C:/Renesas/e2studio_2021_01_workspace_RZA2M_ANPR/ANPR_RZA2M_RDK/src/tensorflow_lite/src/third_party/gemmlowp/fixedpoint\fixedpoint.h **** //   real_value = integer_value / 2^31.
 303:C:/Renesas/e2studio_2021_01_workspace_RZA2M_ANPR/ANPR_RZA2M_RDK/src/tensorflow_lite/src/third_party/gemmlowp/fixedpoint\fixedpoint.h **** // So in this case, and leaving aside rounding and saturating, this
 304:C:/Renesas/e2studio_2021_01_workspace_RZA2M_ANPR/ANPR_RZA2M_RDK/src/tensorflow_lite/src/third_party/gemmlowp/fixedpoint\fixedpoint.h **** // function computes ((a / 2^31) * (b / 2^31)) * 2^31, which simplifies to
 305:C:/Renesas/e2studio_2021_01_workspace_RZA2M_ANPR/ANPR_RZA2M_RDK/src/tensorflow_lite/src/third_party/gemmlowp/fixedpoint\fixedpoint.h **** //   (a * b) / 2^31.
 306:C:/Renesas/e2studio_2021_01_workspace_RZA2M_ANPR/ANPR_RZA2M_RDK/src/tensorflow_lite/src/third_party/gemmlowp/fixedpoint\fixedpoint.h **** //
 307:C:/Renesas/e2studio_2021_01_workspace_RZA2M_ANPR/ANPR_RZA2M_RDK/src/tensorflow_lite/src/third_party/gemmlowp/fixedpoint\fixedpoint.h **** // The 'doubling' part in the name of this function comes from the fact that
 308:C:/Renesas/e2studio_2021_01_workspace_RZA2M_ANPR/ANPR_RZA2M_RDK/src/tensorflow_lite/src/third_party/gemmlowp/fixedpoint\fixedpoint.h **** // this operation is very close to a "multiply-high" operation, keeping only
 309:C:/Renesas/e2studio_2021_01_workspace_RZA2M_ANPR/ANPR_RZA2M_RDK/src/tensorflow_lite/src/third_party/gemmlowp/fixedpoint\fixedpoint.h **** // the top half bits, except that that would be effectively computing
 310:C:/Renesas/e2studio_2021_01_workspace_RZA2M_ANPR/ANPR_RZA2M_RDK/src/tensorflow_lite/src/third_party/gemmlowp/fixedpoint\fixedpoint.h **** //   (a * b) / 2^32,
 311:C:/Renesas/e2studio_2021_01_workspace_RZA2M_ANPR/ANPR_RZA2M_RDK/src/tensorflow_lite/src/third_party/gemmlowp/fixedpoint\fixedpoint.h **** // so here we are computing 2x that, since
 312:C:/Renesas/e2studio_2021_01_workspace_RZA2M_ANPR/ANPR_RZA2M_RDK/src/tensorflow_lite/src/third_party/gemmlowp/fixedpoint\fixedpoint.h **** //   1/2^31 = 2 * 1/2^32.
 313:C:/Renesas/e2studio_2021_01_workspace_RZA2M_ANPR/ANPR_RZA2M_RDK/src/tensorflow_lite/src/third_party/gemmlowp/fixedpoint\fixedpoint.h **** // The idea is to use all of the available 32 bits in the destination int32
 314:C:/Renesas/e2studio_2021_01_workspace_RZA2M_ANPR/ANPR_RZA2M_RDK/src/tensorflow_lite/src/third_party/gemmlowp/fixedpoint\fixedpoint.h **** // value.
 315:C:/Renesas/e2studio_2021_01_workspace_RZA2M_ANPR/ANPR_RZA2M_RDK/src/tensorflow_lite/src/third_party/gemmlowp/fixedpoint\fixedpoint.h **** //
 316:C:/Renesas/e2studio_2021_01_workspace_RZA2M_ANPR/ANPR_RZA2M_RDK/src/tensorflow_lite/src/third_party/gemmlowp/fixedpoint\fixedpoint.h **** // [End of the explanation specializing to int32.]
 317:C:/Renesas/e2studio_2021_01_workspace_RZA2M_ANPR/ANPR_RZA2M_RDK/src/tensorflow_lite/src/third_party/gemmlowp/fixedpoint\fixedpoint.h **** //
 318:C:/Renesas/e2studio_2021_01_workspace_RZA2M_ANPR/ANPR_RZA2M_RDK/src/tensorflow_lite/src/third_party/gemmlowp/fixedpoint\fixedpoint.h **** // This is equivalent to the VQRDMULH instruction in ARM NEON.
 319:C:/Renesas/e2studio_2021_01_workspace_RZA2M_ANPR/ANPR_RZA2M_RDK/src/tensorflow_lite/src/third_party/gemmlowp/fixedpoint\fixedpoint.h **** template <typename IntegerType>
 320:C:/Renesas/e2studio_2021_01_workspace_RZA2M_ANPR/ANPR_RZA2M_RDK/src/tensorflow_lite/src/third_party/gemmlowp/fixedpoint\fixedpoint.h **** IntegerType SaturatingRoundingDoublingHighMul(IntegerType a, IntegerType b) {
 321:C:/Renesas/e2studio_2021_01_workspace_RZA2M_ANPR/ANPR_RZA2M_RDK/src/tensorflow_lite/src/third_party/gemmlowp/fixedpoint\fixedpoint.h ****   static_assert(std::is_same<IntegerType, void>::value, "unimplemented");
 322:C:/Renesas/e2studio_2021_01_workspace_RZA2M_ANPR/ANPR_RZA2M_RDK/src/tensorflow_lite/src/third_party/gemmlowp/fixedpoint\fixedpoint.h ****   (void)b;
 323:C:/Renesas/e2studio_2021_01_workspace_RZA2M_ANPR/ANPR_RZA2M_RDK/src/tensorflow_lite/src/third_party/gemmlowp/fixedpoint\fixedpoint.h ****   return a;
 324:C:/Renesas/e2studio_2021_01_workspace_RZA2M_ANPR/ANPR_RZA2M_RDK/src/tensorflow_lite/src/third_party/gemmlowp/fixedpoint\fixedpoint.h **** }
 325:C:/Renesas/e2studio_2021_01_workspace_RZA2M_ANPR/ANPR_RZA2M_RDK/src/tensorflow_lite/src/third_party/gemmlowp/fixedpoint\fixedpoint.h **** 
 326:C:/Renesas/e2studio_2021_01_workspace_RZA2M_ANPR/ANPR_RZA2M_RDK/src/tensorflow_lite/src/third_party/gemmlowp/fixedpoint\fixedpoint.h **** // This function implements the same computation as the ARMv7 NEON VQRDMULH
 327:C:/Renesas/e2studio_2021_01_workspace_RZA2M_ANPR/ANPR_RZA2M_RDK/src/tensorflow_lite/src/third_party/gemmlowp/fixedpoint\fixedpoint.h **** // instruction.
 328:C:/Renesas/e2studio_2021_01_workspace_RZA2M_ANPR/ANPR_RZA2M_RDK/src/tensorflow_lite/src/third_party/gemmlowp/fixedpoint\fixedpoint.h **** template <>
 329:C:/Renesas/e2studio_2021_01_workspace_RZA2M_ANPR/ANPR_RZA2M_RDK/src/tensorflow_lite/src/third_party/gemmlowp/fixedpoint\fixedpoint.h **** inline std::int32_t SaturatingRoundingDoublingHighMul(std::int32_t a,
 330:C:/Renesas/e2studio_2021_01_workspace_RZA2M_ANPR/ANPR_RZA2M_RDK/src/tensorflow_lite/src/third_party/gemmlowp/fixedpoint\fixedpoint.h ****                                                       std::int32_t b) {
 331:C:/Renesas/e2studio_2021_01_workspace_RZA2M_ANPR/ANPR_RZA2M_RDK/src/tensorflow_lite/src/third_party/gemmlowp/fixedpoint\fixedpoint.h ****   bool overflow = a == b && a == std::numeric_limits<std::int32_t>::min();
 332:C:/Renesas/e2studio_2021_01_workspace_RZA2M_ANPR/ANPR_RZA2M_RDK/src/tensorflow_lite/src/third_party/gemmlowp/fixedpoint\fixedpoint.h ****   std::int64_t a_64(a);
 333:C:/Renesas/e2studio_2021_01_workspace_RZA2M_ANPR/ANPR_RZA2M_RDK/src/tensorflow_lite/src/third_party/gemmlowp/fixedpoint\fixedpoint.h ****   std::int64_t b_64(b);
 334:C:/Renesas/e2studio_2021_01_workspace_RZA2M_ANPR/ANPR_RZA2M_RDK/src/tensorflow_lite/src/third_party/gemmlowp/fixedpoint\fixedpoint.h ****   std::int64_t ab_64 = a_64 * b_64;
 335:C:/Renesas/e2studio_2021_01_workspace_RZA2M_ANPR/ANPR_RZA2M_RDK/src/tensorflow_lite/src/third_party/gemmlowp/fixedpoint\fixedpoint.h ****   std::int32_t nudge = ab_64 >= 0 ? (1 << 30) : (1 - (1 << 30));
 336:C:/Renesas/e2studio_2021_01_workspace_RZA2M_ANPR/ANPR_RZA2M_RDK/src/tensorflow_lite/src/third_party/gemmlowp/fixedpoint\fixedpoint.h ****   std::int32_t ab_x2_high32 =
 337:C:/Renesas/e2studio_2021_01_workspace_RZA2M_ANPR/ANPR_RZA2M_RDK/src/tensorflow_lite/src/third_party/gemmlowp/fixedpoint\fixedpoint.h ****       static_cast<std::int32_t>((ab_64 + nudge) / (1ll << 31));
 338:C:/Renesas/e2studio_2021_01_workspace_RZA2M_ANPR/ANPR_RZA2M_RDK/src/tensorflow_lite/src/third_party/gemmlowp/fixedpoint\fixedpoint.h ****   return overflow ? std::numeric_limits<std::int32_t>::max() : ab_x2_high32;
 339:C:/Renesas/e2studio_2021_01_workspace_RZA2M_ANPR/ANPR_RZA2M_RDK/src/tensorflow_lite/src/third_party/gemmlowp/fixedpoint\fixedpoint.h **** }
 340:C:/Renesas/e2studio_2021_01_workspace_RZA2M_ANPR/ANPR_RZA2M_RDK/src/tensorflow_lite/src/third_party/gemmlowp/fixedpoint\fixedpoint.h **** 
 341:C:/Renesas/e2studio_2021_01_workspace_RZA2M_ANPR/ANPR_RZA2M_RDK/src/tensorflow_lite/src/third_party/gemmlowp/fixedpoint\fixedpoint.h **** template <>
 342:C:/Renesas/e2studio_2021_01_workspace_RZA2M_ANPR/ANPR_RZA2M_RDK/src/tensorflow_lite/src/third_party/gemmlowp/fixedpoint\fixedpoint.h **** inline std::int16_t SaturatingRoundingDoublingHighMul(std::int16_t a,
 343:C:/Renesas/e2studio_2021_01_workspace_RZA2M_ANPR/ANPR_RZA2M_RDK/src/tensorflow_lite/src/third_party/gemmlowp/fixedpoint\fixedpoint.h ****                                                       std::int16_t b) {
 344:C:/Renesas/e2studio_2021_01_workspace_RZA2M_ANPR/ANPR_RZA2M_RDK/src/tensorflow_lite/src/third_party/gemmlowp/fixedpoint\fixedpoint.h ****   bool overflow = a == b && a == std::numeric_limits<std::int16_t>::min();
 345:C:/Renesas/e2studio_2021_01_workspace_RZA2M_ANPR/ANPR_RZA2M_RDK/src/tensorflow_lite/src/third_party/gemmlowp/fixedpoint\fixedpoint.h ****   std::int32_t a_32(a);
 346:C:/Renesas/e2studio_2021_01_workspace_RZA2M_ANPR/ANPR_RZA2M_RDK/src/tensorflow_lite/src/third_party/gemmlowp/fixedpoint\fixedpoint.h ****   std::int32_t b_32(b);
 347:C:/Renesas/e2studio_2021_01_workspace_RZA2M_ANPR/ANPR_RZA2M_RDK/src/tensorflow_lite/src/third_party/gemmlowp/fixedpoint\fixedpoint.h ****   std::int32_t ab_32 = a_32 * b_32;
 348:C:/Renesas/e2studio_2021_01_workspace_RZA2M_ANPR/ANPR_RZA2M_RDK/src/tensorflow_lite/src/third_party/gemmlowp/fixedpoint\fixedpoint.h ****   std::int16_t nudge = ab_32 >= 0 ? (1 << 14) : (1 - (1 << 14));
 349:C:/Renesas/e2studio_2021_01_workspace_RZA2M_ANPR/ANPR_RZA2M_RDK/src/tensorflow_lite/src/third_party/gemmlowp/fixedpoint\fixedpoint.h ****   std::int16_t ab_x2_high16 =
 350:C:/Renesas/e2studio_2021_01_workspace_RZA2M_ANPR/ANPR_RZA2M_RDK/src/tensorflow_lite/src/third_party/gemmlowp/fixedpoint\fixedpoint.h ****       static_cast<std::int16_t>((ab_32 + nudge) / (1 << 15));
 351:C:/Renesas/e2studio_2021_01_workspace_RZA2M_ANPR/ANPR_RZA2M_RDK/src/tensorflow_lite/src/third_party/gemmlowp/fixedpoint\fixedpoint.h ****   return overflow ? std::numeric_limits<std::int16_t>::max() : ab_x2_high16;
 352:C:/Renesas/e2studio_2021_01_workspace_RZA2M_ANPR/ANPR_RZA2M_RDK/src/tensorflow_lite/src/third_party/gemmlowp/fixedpoint\fixedpoint.h **** }
 353:C:/Renesas/e2studio_2021_01_workspace_RZA2M_ANPR/ANPR_RZA2M_RDK/src/tensorflow_lite/src/third_party/gemmlowp/fixedpoint\fixedpoint.h **** 
 354:C:/Renesas/e2studio_2021_01_workspace_RZA2M_ANPR/ANPR_RZA2M_RDK/src/tensorflow_lite/src/third_party/gemmlowp/fixedpoint\fixedpoint.h **** // Correctly-rounded-to-nearest division by a power-of-two.
 355:C:/Renesas/e2studio_2021_01_workspace_RZA2M_ANPR/ANPR_RZA2M_RDK/src/tensorflow_lite/src/third_party/gemmlowp/fixedpoint\fixedpoint.h **** // Also known as a rounding arithmetic right shift.
 356:C:/Renesas/e2studio_2021_01_workspace_RZA2M_ANPR/ANPR_RZA2M_RDK/src/tensorflow_lite/src/third_party/gemmlowp/fixedpoint\fixedpoint.h **** template <typename IntegerType>
 357:C:/Renesas/e2studio_2021_01_workspace_RZA2M_ANPR/ANPR_RZA2M_RDK/src/tensorflow_lite/src/third_party/gemmlowp/fixedpoint\fixedpoint.h **** inline IntegerType RoundingDivideByPOT(IntegerType x, int exponent) {
 358:C:/Renesas/e2studio_2021_01_workspace_RZA2M_ANPR/ANPR_RZA2M_RDK/src/tensorflow_lite/src/third_party/gemmlowp/fixedpoint\fixedpoint.h ****   assert(exponent >= 0);
 359:C:/Renesas/e2studio_2021_01_workspace_RZA2M_ANPR/ANPR_RZA2M_RDK/src/tensorflow_lite/src/third_party/gemmlowp/fixedpoint\fixedpoint.h ****   assert(exponent <= 31);
 360:C:/Renesas/e2studio_2021_01_workspace_RZA2M_ANPR/ANPR_RZA2M_RDK/src/tensorflow_lite/src/third_party/gemmlowp/fixedpoint\fixedpoint.h ****   const IntegerType mask = Dup<IntegerType>((1ll << exponent) - 1);
 361:C:/Renesas/e2studio_2021_01_workspace_RZA2M_ANPR/ANPR_RZA2M_RDK/src/tensorflow_lite/src/third_party/gemmlowp/fixedpoint\fixedpoint.h ****   const IntegerType zero = Dup<IntegerType>(0);
 362:C:/Renesas/e2studio_2021_01_workspace_RZA2M_ANPR/ANPR_RZA2M_RDK/src/tensorflow_lite/src/third_party/gemmlowp/fixedpoint\fixedpoint.h ****   const IntegerType one = Dup<IntegerType>(1);
 363:C:/Renesas/e2studio_2021_01_workspace_RZA2M_ANPR/ANPR_RZA2M_RDK/src/tensorflow_lite/src/third_party/gemmlowp/fixedpoint\fixedpoint.h ****   const IntegerType remainder = BitAnd(x, mask);
 364:C:/Renesas/e2studio_2021_01_workspace_RZA2M_ANPR/ANPR_RZA2M_RDK/src/tensorflow_lite/src/third_party/gemmlowp/fixedpoint\fixedpoint.h ****   const IntegerType threshold =
 365:C:/Renesas/e2studio_2021_01_workspace_RZA2M_ANPR/ANPR_RZA2M_RDK/src/tensorflow_lite/src/third_party/gemmlowp/fixedpoint\fixedpoint.h ****       Add(ShiftRight(mask, 1), BitAnd(MaskIfLessThan(x, zero), one));
 366:C:/Renesas/e2studio_2021_01_workspace_RZA2M_ANPR/ANPR_RZA2M_RDK/src/tensorflow_lite/src/third_party/gemmlowp/fixedpoint\fixedpoint.h ****   return Add(ShiftRight(x, exponent),
 367:C:/Renesas/e2studio_2021_01_workspace_RZA2M_ANPR/ANPR_RZA2M_RDK/src/tensorflow_lite/src/third_party/gemmlowp/fixedpoint\fixedpoint.h ****              BitAnd(MaskIfGreaterThan(remainder, threshold), one));
 368:C:/Renesas/e2studio_2021_01_workspace_RZA2M_ANPR/ANPR_RZA2M_RDK/src/tensorflow_lite/src/third_party/gemmlowp/fixedpoint\fixedpoint.h **** }
 369:C:/Renesas/e2studio_2021_01_workspace_RZA2M_ANPR/ANPR_RZA2M_RDK/src/tensorflow_lite/src/third_party/gemmlowp/fixedpoint\fixedpoint.h **** 
 370:C:/Renesas/e2studio_2021_01_workspace_RZA2M_ANPR/ANPR_RZA2M_RDK/src/tensorflow_lite/src/third_party/gemmlowp/fixedpoint\fixedpoint.h **** // Returns the product of a run-time integer value by a compile-time power
 371:C:/Renesas/e2studio_2021_01_workspace_RZA2M_ANPR/ANPR_RZA2M_RDK/src/tensorflow_lite/src/third_party/gemmlowp/fixedpoint\fixedpoint.h **** // of two, with either a positive exponent (equivalent to an arithmetic
 372:C:/Renesas/e2studio_2021_01_workspace_RZA2M_ANPR/ANPR_RZA2M_RDK/src/tensorflow_lite/src/third_party/gemmlowp/fixedpoint\fixedpoint.h **** // left shift, saturating) or a negative exponent (equivalent to an arithmetic
 373:C:/Renesas/e2studio_2021_01_workspace_RZA2M_ANPR/ANPR_RZA2M_RDK/src/tensorflow_lite/src/third_party/gemmlowp/fixedpoint\fixedpoint.h **** // right shift, rounding to nearest).
 374:C:/Renesas/e2studio_2021_01_workspace_RZA2M_ANPR/ANPR_RZA2M_RDK/src/tensorflow_lite/src/third_party/gemmlowp/fixedpoint\fixedpoint.h **** template <int Exponent, typename IntegerType,
 375:C:/Renesas/e2studio_2021_01_workspace_RZA2M_ANPR/ANPR_RZA2M_RDK/src/tensorflow_lite/src/third_party/gemmlowp/fixedpoint\fixedpoint.h ****           int ExponentSign = (Exponent > 0 ? 1 : Exponent < 0 ? -1 : 0)>
 376:C:/Renesas/e2studio_2021_01_workspace_RZA2M_ANPR/ANPR_RZA2M_RDK/src/tensorflow_lite/src/third_party/gemmlowp/fixedpoint\fixedpoint.h **** struct ImplSaturatingRoundingMultiplyByPOT {};
 377:C:/Renesas/e2studio_2021_01_workspace_RZA2M_ANPR/ANPR_RZA2M_RDK/src/tensorflow_lite/src/third_party/gemmlowp/fixedpoint\fixedpoint.h **** 
 378:C:/Renesas/e2studio_2021_01_workspace_RZA2M_ANPR/ANPR_RZA2M_RDK/src/tensorflow_lite/src/third_party/gemmlowp/fixedpoint\fixedpoint.h **** template <int Exponent, typename IntegerType>
 379:C:/Renesas/e2studio_2021_01_workspace_RZA2M_ANPR/ANPR_RZA2M_RDK/src/tensorflow_lite/src/third_party/gemmlowp/fixedpoint\fixedpoint.h **** struct ImplSaturatingRoundingMultiplyByPOT<Exponent, IntegerType, 0> {
 380:C:/Renesas/e2studio_2021_01_workspace_RZA2M_ANPR/ANPR_RZA2M_RDK/src/tensorflow_lite/src/third_party/gemmlowp/fixedpoint\fixedpoint.h ****   static IntegerType eval(IntegerType x) { return x; }
 381:C:/Renesas/e2studio_2021_01_workspace_RZA2M_ANPR/ANPR_RZA2M_RDK/src/tensorflow_lite/src/third_party/gemmlowp/fixedpoint\fixedpoint.h **** };
 382:C:/Renesas/e2studio_2021_01_workspace_RZA2M_ANPR/ANPR_RZA2M_RDK/src/tensorflow_lite/src/third_party/gemmlowp/fixedpoint\fixedpoint.h **** 
 383:C:/Renesas/e2studio_2021_01_workspace_RZA2M_ANPR/ANPR_RZA2M_RDK/src/tensorflow_lite/src/third_party/gemmlowp/fixedpoint\fixedpoint.h **** template <int Exponent, typename IntegerType>
 384:C:/Renesas/e2studio_2021_01_workspace_RZA2M_ANPR/ANPR_RZA2M_RDK/src/tensorflow_lite/src/third_party/gemmlowp/fixedpoint\fixedpoint.h **** struct ImplSaturatingRoundingMultiplyByPOT<Exponent, IntegerType, 1> {
 385:C:/Renesas/e2studio_2021_01_workspace_RZA2M_ANPR/ANPR_RZA2M_RDK/src/tensorflow_lite/src/third_party/gemmlowp/fixedpoint\fixedpoint.h ****   static IntegerType eval(IntegerType x) {
 386:C:/Renesas/e2studio_2021_01_workspace_RZA2M_ANPR/ANPR_RZA2M_RDK/src/tensorflow_lite/src/third_party/gemmlowp/fixedpoint\fixedpoint.h ****     using ScalarIntegerType =
 387:C:/Renesas/e2studio_2021_01_workspace_RZA2M_ANPR/ANPR_RZA2M_RDK/src/tensorflow_lite/src/third_party/gemmlowp/fixedpoint\fixedpoint.h ****         typename FixedPointRawTypeTraits<IntegerType>::ScalarRawType;
 388:C:/Renesas/e2studio_2021_01_workspace_RZA2M_ANPR/ANPR_RZA2M_RDK/src/tensorflow_lite/src/third_party/gemmlowp/fixedpoint\fixedpoint.h ****     const IntegerType min =
 389:C:/Renesas/e2studio_2021_01_workspace_RZA2M_ANPR/ANPR_RZA2M_RDK/src/tensorflow_lite/src/third_party/gemmlowp/fixedpoint\fixedpoint.h ****         Dup<IntegerType>(std::numeric_limits<ScalarIntegerType>::min());
 390:C:/Renesas/e2studio_2021_01_workspace_RZA2M_ANPR/ANPR_RZA2M_RDK/src/tensorflow_lite/src/third_party/gemmlowp/fixedpoint\fixedpoint.h ****     const IntegerType max =
 391:C:/Renesas/e2studio_2021_01_workspace_RZA2M_ANPR/ANPR_RZA2M_RDK/src/tensorflow_lite/src/third_party/gemmlowp/fixedpoint\fixedpoint.h ****         Dup<IntegerType>(std::numeric_limits<ScalarIntegerType>::max());
 392:C:/Renesas/e2studio_2021_01_workspace_RZA2M_ANPR/ANPR_RZA2M_RDK/src/tensorflow_lite/src/third_party/gemmlowp/fixedpoint\fixedpoint.h ****     const int ScalarIntegerTypeBits = 8 * sizeof(ScalarIntegerType);
 393:C:/Renesas/e2studio_2021_01_workspace_RZA2M_ANPR/ANPR_RZA2M_RDK/src/tensorflow_lite/src/third_party/gemmlowp/fixedpoint\fixedpoint.h **** 
 394:C:/Renesas/e2studio_2021_01_workspace_RZA2M_ANPR/ANPR_RZA2M_RDK/src/tensorflow_lite/src/third_party/gemmlowp/fixedpoint\fixedpoint.h ****     const std::int32_t threshold =
 395:C:/Renesas/e2studio_2021_01_workspace_RZA2M_ANPR/ANPR_RZA2M_RDK/src/tensorflow_lite/src/third_party/gemmlowp/fixedpoint\fixedpoint.h ****         ((1 << (ScalarIntegerTypeBits - 1 - Exponent)) - 1);
 396:C:/Renesas/e2studio_2021_01_workspace_RZA2M_ANPR/ANPR_RZA2M_RDK/src/tensorflow_lite/src/third_party/gemmlowp/fixedpoint\fixedpoint.h ****     const IntegerType positive_mask =
 397:C:/Renesas/e2studio_2021_01_workspace_RZA2M_ANPR/ANPR_RZA2M_RDK/src/tensorflow_lite/src/third_party/gemmlowp/fixedpoint\fixedpoint.h ****         MaskIfGreaterThan(x, Dup<IntegerType>(threshold));
 398:C:/Renesas/e2studio_2021_01_workspace_RZA2M_ANPR/ANPR_RZA2M_RDK/src/tensorflow_lite/src/third_party/gemmlowp/fixedpoint\fixedpoint.h ****     const IntegerType negative_mask =
 399:C:/Renesas/e2studio_2021_01_workspace_RZA2M_ANPR/ANPR_RZA2M_RDK/src/tensorflow_lite/src/third_party/gemmlowp/fixedpoint\fixedpoint.h ****         MaskIfLessThan(x, Dup<IntegerType>(-threshold));
 400:C:/Renesas/e2studio_2021_01_workspace_RZA2M_ANPR/ANPR_RZA2M_RDK/src/tensorflow_lite/src/third_party/gemmlowp/fixedpoint\fixedpoint.h **** 
 401:C:/Renesas/e2studio_2021_01_workspace_RZA2M_ANPR/ANPR_RZA2M_RDK/src/tensorflow_lite/src/third_party/gemmlowp/fixedpoint\fixedpoint.h ****     IntegerType result = ShiftLeft(x, Exponent);
 402:C:/Renesas/e2studio_2021_01_workspace_RZA2M_ANPR/ANPR_RZA2M_RDK/src/tensorflow_lite/src/third_party/gemmlowp/fixedpoint\fixedpoint.h ****     result = SelectUsingMask(positive_mask, max, result);
 403:C:/Renesas/e2studio_2021_01_workspace_RZA2M_ANPR/ANPR_RZA2M_RDK/src/tensorflow_lite/src/third_party/gemmlowp/fixedpoint\fixedpoint.h ****     result = SelectUsingMask(negative_mask, min, result);
 404:C:/Renesas/e2studio_2021_01_workspace_RZA2M_ANPR/ANPR_RZA2M_RDK/src/tensorflow_lite/src/third_party/gemmlowp/fixedpoint\fixedpoint.h ****     return result;
 405:C:/Renesas/e2studio_2021_01_workspace_RZA2M_ANPR/ANPR_RZA2M_RDK/src/tensorflow_lite/src/third_party/gemmlowp/fixedpoint\fixedpoint.h ****   }
 406:C:/Renesas/e2studio_2021_01_workspace_RZA2M_ANPR/ANPR_RZA2M_RDK/src/tensorflow_lite/src/third_party/gemmlowp/fixedpoint\fixedpoint.h **** };
 407:C:/Renesas/e2studio_2021_01_workspace_RZA2M_ANPR/ANPR_RZA2M_RDK/src/tensorflow_lite/src/third_party/gemmlowp/fixedpoint\fixedpoint.h **** 
 408:C:/Renesas/e2studio_2021_01_workspace_RZA2M_ANPR/ANPR_RZA2M_RDK/src/tensorflow_lite/src/third_party/gemmlowp/fixedpoint\fixedpoint.h **** template <int Exponent, typename IntegerType>
 409:C:/Renesas/e2studio_2021_01_workspace_RZA2M_ANPR/ANPR_RZA2M_RDK/src/tensorflow_lite/src/third_party/gemmlowp/fixedpoint\fixedpoint.h **** struct ImplSaturatingRoundingMultiplyByPOT<Exponent, IntegerType, -1> {
 410:C:/Renesas/e2studio_2021_01_workspace_RZA2M_ANPR/ANPR_RZA2M_RDK/src/tensorflow_lite/src/third_party/gemmlowp/fixedpoint\fixedpoint.h ****   static IntegerType eval(IntegerType x) {
 411:C:/Renesas/e2studio_2021_01_workspace_RZA2M_ANPR/ANPR_RZA2M_RDK/src/tensorflow_lite/src/third_party/gemmlowp/fixedpoint\fixedpoint.h ****     return RoundingDivideByPOT<IntegerType>(x, -Exponent);
 412:C:/Renesas/e2studio_2021_01_workspace_RZA2M_ANPR/ANPR_RZA2M_RDK/src/tensorflow_lite/src/third_party/gemmlowp/fixedpoint\fixedpoint.h ****   }
 413:C:/Renesas/e2studio_2021_01_workspace_RZA2M_ANPR/ANPR_RZA2M_RDK/src/tensorflow_lite/src/third_party/gemmlowp/fixedpoint\fixedpoint.h **** };
 414:C:/Renesas/e2studio_2021_01_workspace_RZA2M_ANPR/ANPR_RZA2M_RDK/src/tensorflow_lite/src/third_party/gemmlowp/fixedpoint\fixedpoint.h **** 
 415:C:/Renesas/e2studio_2021_01_workspace_RZA2M_ANPR/ANPR_RZA2M_RDK/src/tensorflow_lite/src/third_party/gemmlowp/fixedpoint\fixedpoint.h **** template <int Exponent, typename IntegerType>
 416:C:/Renesas/e2studio_2021_01_workspace_RZA2M_ANPR/ANPR_RZA2M_RDK/src/tensorflow_lite/src/third_party/gemmlowp/fixedpoint\fixedpoint.h **** IntegerType SaturatingRoundingMultiplyByPOT(IntegerType x) {
 417:C:/Renesas/e2studio_2021_01_workspace_RZA2M_ANPR/ANPR_RZA2M_RDK/src/tensorflow_lite/src/third_party/gemmlowp/fixedpoint\fixedpoint.h ****   return ImplSaturatingRoundingMultiplyByPOT<Exponent, IntegerType>::eval(x);
 418:C:/Renesas/e2studio_2021_01_workspace_RZA2M_ANPR/ANPR_RZA2M_RDK/src/tensorflow_lite/src/third_party/gemmlowp/fixedpoint\fixedpoint.h **** }
 419:C:/Renesas/e2studio_2021_01_workspace_RZA2M_ANPR/ANPR_RZA2M_RDK/src/tensorflow_lite/src/third_party/gemmlowp/fixedpoint\fixedpoint.h **** 
 420:C:/Renesas/e2studio_2021_01_workspace_RZA2M_ANPR/ANPR_RZA2M_RDK/src/tensorflow_lite/src/third_party/gemmlowp/fixedpoint\fixedpoint.h **** // Part 2: the FixedPoint class.
 421:C:/Renesas/e2studio_2021_01_workspace_RZA2M_ANPR/ANPR_RZA2M_RDK/src/tensorflow_lite/src/third_party/gemmlowp/fixedpoint\fixedpoint.h **** 
 422:C:/Renesas/e2studio_2021_01_workspace_RZA2M_ANPR/ANPR_RZA2M_RDK/src/tensorflow_lite/src/third_party/gemmlowp/fixedpoint\fixedpoint.h **** // A FixedPoint object represents a fixed-point value stored in the underlying
 423:C:/Renesas/e2studio_2021_01_workspace_RZA2M_ANPR/ANPR_RZA2M_RDK/src/tensorflow_lite/src/third_party/gemmlowp/fixedpoint\fixedpoint.h **** // integer type tRawType, if tRawType is a plain scalar integer type.
 424:C:/Renesas/e2studio_2021_01_workspace_RZA2M_ANPR/ANPR_RZA2M_RDK/src/tensorflow_lite/src/third_party/gemmlowp/fixedpoint\fixedpoint.h **** // Alternatively, tRawType may be a SIMD type (e.g. NEON int32x4_t) in which
 425:C:/Renesas/e2studio_2021_01_workspace_RZA2M_ANPR/ANPR_RZA2M_RDK/src/tensorflow_lite/src/third_party/gemmlowp/fixedpoint\fixedpoint.h **** // case a FixedPoint object represents a corresponding SIMD vector of fixed
 426:C:/Renesas/e2studio_2021_01_workspace_RZA2M_ANPR/ANPR_RZA2M_RDK/src/tensorflow_lite/src/third_party/gemmlowp/fixedpoint\fixedpoint.h **** // point values.
 427:C:/Renesas/e2studio_2021_01_workspace_RZA2M_ANPR/ANPR_RZA2M_RDK/src/tensorflow_lite/src/third_party/gemmlowp/fixedpoint\fixedpoint.h **** //
 428:C:/Renesas/e2studio_2021_01_workspace_RZA2M_ANPR/ANPR_RZA2M_RDK/src/tensorflow_lite/src/third_party/gemmlowp/fixedpoint\fixedpoint.h **** // tIntegerBits describes the range of the fixed-point format: if
 429:C:/Renesas/e2studio_2021_01_workspace_RZA2M_ANPR/ANPR_RZA2M_RDK/src/tensorflow_lite/src/third_party/gemmlowp/fixedpoint\fixedpoint.h **** // tIntegerBits == m then the range of representable values is the half-open
 430:C:/Renesas/e2studio_2021_01_workspace_RZA2M_ANPR/ANPR_RZA2M_RDK/src/tensorflow_lite/src/third_party/gemmlowp/fixedpoint\fixedpoint.h **** // interval [-2^m; 2^m) where the open boundary on the right side means that
 431:C:/Renesas/e2studio_2021_01_workspace_RZA2M_ANPR/ANPR_RZA2M_RDK/src/tensorflow_lite/src/third_party/gemmlowp/fixedpoint\fixedpoint.h **** // 2^m is not representable (how close the maximum representable value is to
 432:C:/Renesas/e2studio_2021_01_workspace_RZA2M_ANPR/ANPR_RZA2M_RDK/src/tensorflow_lite/src/third_party/gemmlowp/fixedpoint\fixedpoint.h **** // it, depends on bit-depth of tRawType).
 433:C:/Renesas/e2studio_2021_01_workspace_RZA2M_ANPR/ANPR_RZA2M_RDK/src/tensorflow_lite/src/third_party/gemmlowp/fixedpoint\fixedpoint.h **** //
 434:C:/Renesas/e2studio_2021_01_workspace_RZA2M_ANPR/ANPR_RZA2M_RDK/src/tensorflow_lite/src/third_party/gemmlowp/fixedpoint\fixedpoint.h **** // In "Q format notation",
 435:C:/Renesas/e2studio_2021_01_workspace_RZA2M_ANPR/ANPR_RZA2M_RDK/src/tensorflow_lite/src/third_party/gemmlowp/fixedpoint\fixedpoint.h **** //   https://en.wikipedia.org/wiki/Q_(number_format)
 436:C:/Renesas/e2studio_2021_01_workspace_RZA2M_ANPR/ANPR_RZA2M_RDK/src/tensorflow_lite/src/third_party/gemmlowp/fixedpoint\fixedpoint.h **** // we are describing the format
 437:C:/Renesas/e2studio_2021_01_workspace_RZA2M_ANPR/ANPR_RZA2M_RDK/src/tensorflow_lite/src/third_party/gemmlowp/fixedpoint\fixedpoint.h **** //   Qm.n
 438:C:/Renesas/e2studio_2021_01_workspace_RZA2M_ANPR/ANPR_RZA2M_RDK/src/tensorflow_lite/src/third_party/gemmlowp/fixedpoint\fixedpoint.h **** // where
 439:C:/Renesas/e2studio_2021_01_workspace_RZA2M_ANPR/ANPR_RZA2M_RDK/src/tensorflow_lite/src/third_party/gemmlowp/fixedpoint\fixedpoint.h **** //   m = tIntegerBits
 440:C:/Renesas/e2studio_2021_01_workspace_RZA2M_ANPR/ANPR_RZA2M_RDK/src/tensorflow_lite/src/third_party/gemmlowp/fixedpoint\fixedpoint.h **** // and
 441:C:/Renesas/e2studio_2021_01_workspace_RZA2M_ANPR/ANPR_RZA2M_RDK/src/tensorflow_lite/src/third_party/gemmlowp/fixedpoint\fixedpoint.h **** //   n = NumberOfBits(tRawType) - (m + 1)
 442:C:/Renesas/e2studio_2021_01_workspace_RZA2M_ANPR/ANPR_RZA2M_RDK/src/tensorflow_lite/src/third_party/gemmlowp/fixedpoint\fixedpoint.h **** // Note that the (m + 1) in the above line is because we adopt the convention
 443:C:/Renesas/e2studio_2021_01_workspace_RZA2M_ANPR/ANPR_RZA2M_RDK/src/tensorflow_lite/src/third_party/gemmlowp/fixedpoint\fixedpoint.h **** // that we count the integer bits exclusively of the sign bit; so (m + 1) is
 444:C:/Renesas/e2studio_2021_01_workspace_RZA2M_ANPR/ANPR_RZA2M_RDK/src/tensorflow_lite/src/third_party/gemmlowp/fixedpoint\fixedpoint.h **** // the total number of integer bits inclusive of the sign bit.
 445:C:/Renesas/e2studio_2021_01_workspace_RZA2M_ANPR/ANPR_RZA2M_RDK/src/tensorflow_lite/src/third_party/gemmlowp/fixedpoint\fixedpoint.h **** //
 446:C:/Renesas/e2studio_2021_01_workspace_RZA2M_ANPR/ANPR_RZA2M_RDK/src/tensorflow_lite/src/third_party/gemmlowp/fixedpoint\fixedpoint.h **** // Accordingly, the number of integral representable values in our range
 447:C:/Renesas/e2studio_2021_01_workspace_RZA2M_ANPR/ANPR_RZA2M_RDK/src/tensorflow_lite/src/third_party/gemmlowp/fixedpoint\fixedpoint.h **** //   [-2^m ; 2^m)
 448:C:/Renesas/e2studio_2021_01_workspace_RZA2M_ANPR/ANPR_RZA2M_RDK/src/tensorflow_lite/src/third_party/gemmlowp/fixedpoint\fixedpoint.h **** // is equal to 2^(m+1).
 449:C:/Renesas/e2studio_2021_01_workspace_RZA2M_ANPR/ANPR_RZA2M_RDK/src/tensorflow_lite/src/third_party/gemmlowp/fixedpoint\fixedpoint.h **** template <typename tRawType, int tIntegerBits>
 450:C:/Renesas/e2studio_2021_01_workspace_RZA2M_ANPR/ANPR_RZA2M_RDK/src/tensorflow_lite/src/third_party/gemmlowp/fixedpoint\fixedpoint.h **** class FixedPoint {
 451:C:/Renesas/e2studio_2021_01_workspace_RZA2M_ANPR/ANPR_RZA2M_RDK/src/tensorflow_lite/src/third_party/gemmlowp/fixedpoint\fixedpoint.h ****  public:
 452:C:/Renesas/e2studio_2021_01_workspace_RZA2M_ANPR/ANPR_RZA2M_RDK/src/tensorflow_lite/src/third_party/gemmlowp/fixedpoint\fixedpoint.h ****   typedef tRawType RawType;
 453:C:/Renesas/e2studio_2021_01_workspace_RZA2M_ANPR/ANPR_RZA2M_RDK/src/tensorflow_lite/src/third_party/gemmlowp/fixedpoint\fixedpoint.h **** 
 454:C:/Renesas/e2studio_2021_01_workspace_RZA2M_ANPR/ANPR_RZA2M_RDK/src/tensorflow_lite/src/third_party/gemmlowp/fixedpoint\fixedpoint.h ****   typedef FixedPointRawTypeTraits<RawType> RawTypeTraits;
 455:C:/Renesas/e2studio_2021_01_workspace_RZA2M_ANPR/ANPR_RZA2M_RDK/src/tensorflow_lite/src/third_party/gemmlowp/fixedpoint\fixedpoint.h ****   typedef typename RawTypeTraits::ScalarRawType ScalarRawType;
 456:C:/Renesas/e2studio_2021_01_workspace_RZA2M_ANPR/ANPR_RZA2M_RDK/src/tensorflow_lite/src/third_party/gemmlowp/fixedpoint\fixedpoint.h **** 
 457:C:/Renesas/e2studio_2021_01_workspace_RZA2M_ANPR/ANPR_RZA2M_RDK/src/tensorflow_lite/src/third_party/gemmlowp/fixedpoint\fixedpoint.h ****   static constexpr int kTotalBits = 8 * sizeof(ScalarRawType);
 458:C:/Renesas/e2studio_2021_01_workspace_RZA2M_ANPR/ANPR_RZA2M_RDK/src/tensorflow_lite/src/third_party/gemmlowp/fixedpoint\fixedpoint.h ****   static constexpr int kIntegerBits = tIntegerBits;
 459:C:/Renesas/e2studio_2021_01_workspace_RZA2M_ANPR/ANPR_RZA2M_RDK/src/tensorflow_lite/src/third_party/gemmlowp/fixedpoint\fixedpoint.h ****   static constexpr int kFractionalBits = kTotalBits - 1 - kIntegerBits;
 460:C:/Renesas/e2studio_2021_01_workspace_RZA2M_ANPR/ANPR_RZA2M_RDK/src/tensorflow_lite/src/third_party/gemmlowp/fixedpoint\fixedpoint.h ****   static_assert(kIntegerBits >= 0 && kIntegerBits < kTotalBits,
 461:C:/Renesas/e2studio_2021_01_workspace_RZA2M_ANPR/ANPR_RZA2M_RDK/src/tensorflow_lite/src/third_party/gemmlowp/fixedpoint\fixedpoint.h ****                 "bad IntegerBits");
 462:C:/Renesas/e2studio_2021_01_workspace_RZA2M_ANPR/ANPR_RZA2M_RDK/src/tensorflow_lite/src/third_party/gemmlowp/fixedpoint\fixedpoint.h **** 
 463:C:/Renesas/e2studio_2021_01_workspace_RZA2M_ANPR/ANPR_RZA2M_RDK/src/tensorflow_lite/src/third_party/gemmlowp/fixedpoint\fixedpoint.h ****   typedef FixedPoint<ScalarRawType, kIntegerBits> ScalarFixedPointType;
 464:C:/Renesas/e2studio_2021_01_workspace_RZA2M_ANPR/ANPR_RZA2M_RDK/src/tensorflow_lite/src/third_party/gemmlowp/fixedpoint\fixedpoint.h **** 
 465:C:/Renesas/e2studio_2021_01_workspace_RZA2M_ANPR/ANPR_RZA2M_RDK/src/tensorflow_lite/src/third_party/gemmlowp/fixedpoint\fixedpoint.h ****   static const ScalarRawType ScalarRawMin() {
 466:C:/Renesas/e2studio_2021_01_workspace_RZA2M_ANPR/ANPR_RZA2M_RDK/src/tensorflow_lite/src/third_party/gemmlowp/fixedpoint\fixedpoint.h ****     return std::numeric_limits<ScalarRawType>::min();
 467:C:/Renesas/e2studio_2021_01_workspace_RZA2M_ANPR/ANPR_RZA2M_RDK/src/tensorflow_lite/src/third_party/gemmlowp/fixedpoint\fixedpoint.h ****   }
 468:C:/Renesas/e2studio_2021_01_workspace_RZA2M_ANPR/ANPR_RZA2M_RDK/src/tensorflow_lite/src/third_party/gemmlowp/fixedpoint\fixedpoint.h **** 
 469:C:/Renesas/e2studio_2021_01_workspace_RZA2M_ANPR/ANPR_RZA2M_RDK/src/tensorflow_lite/src/third_party/gemmlowp/fixedpoint\fixedpoint.h ****   static const ScalarRawType ScalarRawMax() {
 470:C:/Renesas/e2studio_2021_01_workspace_RZA2M_ANPR/ANPR_RZA2M_RDK/src/tensorflow_lite/src/third_party/gemmlowp/fixedpoint\fixedpoint.h ****     return std::numeric_limits<ScalarRawType>::max();
 471:C:/Renesas/e2studio_2021_01_workspace_RZA2M_ANPR/ANPR_RZA2M_RDK/src/tensorflow_lite/src/third_party/gemmlowp/fixedpoint\fixedpoint.h ****   }
 472:C:/Renesas/e2studio_2021_01_workspace_RZA2M_ANPR/ANPR_RZA2M_RDK/src/tensorflow_lite/src/third_party/gemmlowp/fixedpoint\fixedpoint.h **** 
 473:C:/Renesas/e2studio_2021_01_workspace_RZA2M_ANPR/ANPR_RZA2M_RDK/src/tensorflow_lite/src/third_party/gemmlowp/fixedpoint\fixedpoint.h ****   static const ScalarRawType RawMin() {
 474:C:/Renesas/e2studio_2021_01_workspace_RZA2M_ANPR/ANPR_RZA2M_RDK/src/tensorflow_lite/src/third_party/gemmlowp/fixedpoint\fixedpoint.h ****     return VectorFromScalar(ScalarRawMin());
 475:C:/Renesas/e2studio_2021_01_workspace_RZA2M_ANPR/ANPR_RZA2M_RDK/src/tensorflow_lite/src/third_party/gemmlowp/fixedpoint\fixedpoint.h ****   }
 476:C:/Renesas/e2studio_2021_01_workspace_RZA2M_ANPR/ANPR_RZA2M_RDK/src/tensorflow_lite/src/third_party/gemmlowp/fixedpoint\fixedpoint.h **** 
 477:C:/Renesas/e2studio_2021_01_workspace_RZA2M_ANPR/ANPR_RZA2M_RDK/src/tensorflow_lite/src/third_party/gemmlowp/fixedpoint\fixedpoint.h ****   static const ScalarRawType RawMax() {
 478:C:/Renesas/e2studio_2021_01_workspace_RZA2M_ANPR/ANPR_RZA2M_RDK/src/tensorflow_lite/src/third_party/gemmlowp/fixedpoint\fixedpoint.h ****     return VectorFromScalar(ScalarRawMax());
 479:C:/Renesas/e2studio_2021_01_workspace_RZA2M_ANPR/ANPR_RZA2M_RDK/src/tensorflow_lite/src/third_party/gemmlowp/fixedpoint\fixedpoint.h ****   }
 480:C:/Renesas/e2studio_2021_01_workspace_RZA2M_ANPR/ANPR_RZA2M_RDK/src/tensorflow_lite/src/third_party/gemmlowp/fixedpoint\fixedpoint.h **** 
 481:C:/Renesas/e2studio_2021_01_workspace_RZA2M_ANPR/ANPR_RZA2M_RDK/src/tensorflow_lite/src/third_party/gemmlowp/fixedpoint\fixedpoint.h ****   static FixedPoint FromRaw(RawType x) {
 482:C:/Renesas/e2studio_2021_01_workspace_RZA2M_ANPR/ANPR_RZA2M_RDK/src/tensorflow_lite/src/third_party/gemmlowp/fixedpoint\fixedpoint.h ****     FixedPoint retval;
 483:C:/Renesas/e2studio_2021_01_workspace_RZA2M_ANPR/ANPR_RZA2M_RDK/src/tensorflow_lite/src/third_party/gemmlowp/fixedpoint\fixedpoint.h ****     retval.raw() = x;
 484:C:/Renesas/e2studio_2021_01_workspace_RZA2M_ANPR/ANPR_RZA2M_RDK/src/tensorflow_lite/src/third_party/gemmlowp/fixedpoint\fixedpoint.h ****     return retval;
 485:C:/Renesas/e2studio_2021_01_workspace_RZA2M_ANPR/ANPR_RZA2M_RDK/src/tensorflow_lite/src/third_party/gemmlowp/fixedpoint\fixedpoint.h ****   }
 486:C:/Renesas/e2studio_2021_01_workspace_RZA2M_ANPR/ANPR_RZA2M_RDK/src/tensorflow_lite/src/third_party/gemmlowp/fixedpoint\fixedpoint.h **** 
 487:C:/Renesas/e2studio_2021_01_workspace_RZA2M_ANPR/ANPR_RZA2M_RDK/src/tensorflow_lite/src/third_party/gemmlowp/fixedpoint\fixedpoint.h ****   static FixedPoint FromScalarRaw(ScalarRawType x) {
 488:C:/Renesas/e2studio_2021_01_workspace_RZA2M_ANPR/ANPR_RZA2M_RDK/src/tensorflow_lite/src/third_party/gemmlowp/fixedpoint\fixedpoint.h ****     FixedPoint retval;
 489:C:/Renesas/e2studio_2021_01_workspace_RZA2M_ANPR/ANPR_RZA2M_RDK/src/tensorflow_lite/src/third_party/gemmlowp/fixedpoint\fixedpoint.h ****     retval.raw() = Dup<RawType>(x);
 490:C:/Renesas/e2studio_2021_01_workspace_RZA2M_ANPR/ANPR_RZA2M_RDK/src/tensorflow_lite/src/third_party/gemmlowp/fixedpoint\fixedpoint.h ****     return retval;
 491:C:/Renesas/e2studio_2021_01_workspace_RZA2M_ANPR/ANPR_RZA2M_RDK/src/tensorflow_lite/src/third_party/gemmlowp/fixedpoint\fixedpoint.h ****   }
 492:C:/Renesas/e2studio_2021_01_workspace_RZA2M_ANPR/ANPR_RZA2M_RDK/src/tensorflow_lite/src/third_party/gemmlowp/fixedpoint\fixedpoint.h **** 
 493:C:/Renesas/e2studio_2021_01_workspace_RZA2M_ANPR/ANPR_RZA2M_RDK/src/tensorflow_lite/src/third_party/gemmlowp/fixedpoint\fixedpoint.h ****   static FixedPoint FromScalarFixedPoint(ScalarFixedPointType x) {
 494:C:/Renesas/e2studio_2021_01_workspace_RZA2M_ANPR/ANPR_RZA2M_RDK/src/tensorflow_lite/src/third_party/gemmlowp/fixedpoint\fixedpoint.h ****     return FromScalarRaw(x.raw());
 495:C:/Renesas/e2studio_2021_01_workspace_RZA2M_ANPR/ANPR_RZA2M_RDK/src/tensorflow_lite/src/third_party/gemmlowp/fixedpoint\fixedpoint.h ****   }
 496:C:/Renesas/e2studio_2021_01_workspace_RZA2M_ANPR/ANPR_RZA2M_RDK/src/tensorflow_lite/src/third_party/gemmlowp/fixedpoint\fixedpoint.h **** 
 497:C:/Renesas/e2studio_2021_01_workspace_RZA2M_ANPR/ANPR_RZA2M_RDK/src/tensorflow_lite/src/third_party/gemmlowp/fixedpoint\fixedpoint.h ****   template <int Exponent>
 498:C:/Renesas/e2studio_2021_01_workspace_RZA2M_ANPR/ANPR_RZA2M_RDK/src/tensorflow_lite/src/third_party/gemmlowp/fixedpoint\fixedpoint.h ****   static FixedPoint ConstantPOT() {
 499:C:/Renesas/e2studio_2021_01_workspace_RZA2M_ANPR/ANPR_RZA2M_RDK/src/tensorflow_lite/src/third_party/gemmlowp/fixedpoint\fixedpoint.h ****     static constexpr int kOffset = kFractionalBits + Exponent;
 500:C:/Renesas/e2studio_2021_01_workspace_RZA2M_ANPR/ANPR_RZA2M_RDK/src/tensorflow_lite/src/third_party/gemmlowp/fixedpoint\fixedpoint.h ****     static_assert(
 501:C:/Renesas/e2studio_2021_01_workspace_RZA2M_ANPR/ANPR_RZA2M_RDK/src/tensorflow_lite/src/third_party/gemmlowp/fixedpoint\fixedpoint.h ****         kOffset < 31,
 502:C:/Renesas/e2studio_2021_01_workspace_RZA2M_ANPR/ANPR_RZA2M_RDK/src/tensorflow_lite/src/third_party/gemmlowp/fixedpoint\fixedpoint.h ****         "Constant not exactly representable in this fixed-point format");
 503:C:/Renesas/e2studio_2021_01_workspace_RZA2M_ANPR/ANPR_RZA2M_RDK/src/tensorflow_lite/src/third_party/gemmlowp/fixedpoint\fixedpoint.h ****     return FromScalarRaw(ScalarRawType(1) << kOffset);
 504:C:/Renesas/e2studio_2021_01_workspace_RZA2M_ANPR/ANPR_RZA2M_RDK/src/tensorflow_lite/src/third_party/gemmlowp/fixedpoint\fixedpoint.h ****   }
 505:C:/Renesas/e2studio_2021_01_workspace_RZA2M_ANPR/ANPR_RZA2M_RDK/src/tensorflow_lite/src/third_party/gemmlowp/fixedpoint\fixedpoint.h **** 
 506:C:/Renesas/e2studio_2021_01_workspace_RZA2M_ANPR/ANPR_RZA2M_RDK/src/tensorflow_lite/src/third_party/gemmlowp/fixedpoint\fixedpoint.h ****   static FixedPoint Zero() { return FromScalarRaw(0); }
 507:C:/Renesas/e2studio_2021_01_workspace_RZA2M_ANPR/ANPR_RZA2M_RDK/src/tensorflow_lite/src/third_party/gemmlowp/fixedpoint\fixedpoint.h **** 
 508:C:/Renesas/e2studio_2021_01_workspace_RZA2M_ANPR/ANPR_RZA2M_RDK/src/tensorflow_lite/src/third_party/gemmlowp/fixedpoint\fixedpoint.h ****   static FixedPoint One() {
 509:C:/Renesas/e2studio_2021_01_workspace_RZA2M_ANPR/ANPR_RZA2M_RDK/src/tensorflow_lite/src/third_party/gemmlowp/fixedpoint\fixedpoint.h ****     return FromScalarRaw(
 510:C:/Renesas/e2studio_2021_01_workspace_RZA2M_ANPR/ANPR_RZA2M_RDK/src/tensorflow_lite/src/third_party/gemmlowp/fixedpoint\fixedpoint.h ****         kIntegerBits == 0
 511:C:/Renesas/e2studio_2021_01_workspace_RZA2M_ANPR/ANPR_RZA2M_RDK/src/tensorflow_lite/src/third_party/gemmlowp/fixedpoint\fixedpoint.h ****             ? ScalarRawMax()
 512:C:/Renesas/e2studio_2021_01_workspace_RZA2M_ANPR/ANPR_RZA2M_RDK/src/tensorflow_lite/src/third_party/gemmlowp/fixedpoint\fixedpoint.h ****             : (ScalarRawType(1) << (kIntegerBits == 0 ? 0 : kFractionalBits)));
 513:C:/Renesas/e2studio_2021_01_workspace_RZA2M_ANPR/ANPR_RZA2M_RDK/src/tensorflow_lite/src/third_party/gemmlowp/fixedpoint\fixedpoint.h ****   }
 514:C:/Renesas/e2studio_2021_01_workspace_RZA2M_ANPR/ANPR_RZA2M_RDK/src/tensorflow_lite/src/third_party/gemmlowp/fixedpoint\fixedpoint.h **** 
 515:C:/Renesas/e2studio_2021_01_workspace_RZA2M_ANPR/ANPR_RZA2M_RDK/src/tensorflow_lite/src/third_party/gemmlowp/fixedpoint\fixedpoint.h ****   static FixedPoint FromDouble(double x) {
 516:C:/Renesas/e2studio_2021_01_workspace_RZA2M_ANPR/ANPR_RZA2M_RDK/src/tensorflow_lite/src/third_party/gemmlowp/fixedpoint\fixedpoint.h ****     const double min_bound = static_cast<double>(ScalarRawMin());
 517:C:/Renesas/e2studio_2021_01_workspace_RZA2M_ANPR/ANPR_RZA2M_RDK/src/tensorflow_lite/src/third_party/gemmlowp/fixedpoint\fixedpoint.h ****     const double max_bound = static_cast<double>(ScalarRawMax());
 518:C:/Renesas/e2studio_2021_01_workspace_RZA2M_ANPR/ANPR_RZA2M_RDK/src/tensorflow_lite/src/third_party/gemmlowp/fixedpoint\fixedpoint.h ****     return FromScalarRaw(static_cast<ScalarRawType>(std::min(
 519:C:/Renesas/e2studio_2021_01_workspace_RZA2M_ANPR/ANPR_RZA2M_RDK/src/tensorflow_lite/src/third_party/gemmlowp/fixedpoint\fixedpoint.h ****         std::max(round(x * static_cast<double>(1ll << kFractionalBits)),
 520:C:/Renesas/e2studio_2021_01_workspace_RZA2M_ANPR/ANPR_RZA2M_RDK/src/tensorflow_lite/src/third_party/gemmlowp/fixedpoint\fixedpoint.h ****                  min_bound),
 521:C:/Renesas/e2studio_2021_01_workspace_RZA2M_ANPR/ANPR_RZA2M_RDK/src/tensorflow_lite/src/third_party/gemmlowp/fixedpoint\fixedpoint.h ****         max_bound)));
 522:C:/Renesas/e2studio_2021_01_workspace_RZA2M_ANPR/ANPR_RZA2M_RDK/src/tensorflow_lite/src/third_party/gemmlowp/fixedpoint\fixedpoint.h ****   }
 523:C:/Renesas/e2studio_2021_01_workspace_RZA2M_ANPR/ANPR_RZA2M_RDK/src/tensorflow_lite/src/third_party/gemmlowp/fixedpoint\fixedpoint.h **** 
 524:C:/Renesas/e2studio_2021_01_workspace_RZA2M_ANPR/ANPR_RZA2M_RDK/src/tensorflow_lite/src/third_party/gemmlowp/fixedpoint\fixedpoint.h ****   RawType raw() const { return i_; }
 525:C:/Renesas/e2studio_2021_01_workspace_RZA2M_ANPR/ANPR_RZA2M_RDK/src/tensorflow_lite/src/third_party/gemmlowp/fixedpoint\fixedpoint.h ****   RawType& raw() { return i_; }
 526:C:/Renesas/e2studio_2021_01_workspace_RZA2M_ANPR/ANPR_RZA2M_RDK/src/tensorflow_lite/src/third_party/gemmlowp/fixedpoint\fixedpoint.h **** 
 527:C:/Renesas/e2studio_2021_01_workspace_RZA2M_ANPR/ANPR_RZA2M_RDK/src/tensorflow_lite/src/third_party/gemmlowp/fixedpoint\fixedpoint.h ****  private:
 528:C:/Renesas/e2studio_2021_01_workspace_RZA2M_ANPR/ANPR_RZA2M_RDK/src/tensorflow_lite/src/third_party/gemmlowp/fixedpoint\fixedpoint.h ****   RawType i_;
 529:C:/Renesas/e2studio_2021_01_workspace_RZA2M_ANPR/ANPR_RZA2M_RDK/src/tensorflow_lite/src/third_party/gemmlowp/fixedpoint\fixedpoint.h **** };
 530:C:/Renesas/e2studio_2021_01_workspace_RZA2M_ANPR/ANPR_RZA2M_RDK/src/tensorflow_lite/src/third_party/gemmlowp/fixedpoint\fixedpoint.h **** 
 531:C:/Renesas/e2studio_2021_01_workspace_RZA2M_ANPR/ANPR_RZA2M_RDK/src/tensorflow_lite/src/third_party/gemmlowp/fixedpoint\fixedpoint.h **** // Part 3: implementation of arithmetic operators for the
 532:C:/Renesas/e2studio_2021_01_workspace_RZA2M_ANPR/ANPR_RZA2M_RDK/src/tensorflow_lite/src/third_party/gemmlowp/fixedpoint\fixedpoint.h **** // FixedPoint class, and a few related functions.
 533:C:/Renesas/e2studio_2021_01_workspace_RZA2M_ANPR/ANPR_RZA2M_RDK/src/tensorflow_lite/src/third_party/gemmlowp/fixedpoint\fixedpoint.h **** 
 534:C:/Renesas/e2studio_2021_01_workspace_RZA2M_ANPR/ANPR_RZA2M_RDK/src/tensorflow_lite/src/third_party/gemmlowp/fixedpoint\fixedpoint.h **** // A FixedPoint multiplication is just a
 535:C:/Renesas/e2studio_2021_01_workspace_RZA2M_ANPR/ANPR_RZA2M_RDK/src/tensorflow_lite/src/third_party/gemmlowp/fixedpoint\fixedpoint.h **** // SaturatingRoundingDoublingHighMul operation on the underlying
 536:C:/Renesas/e2studio_2021_01_workspace_RZA2M_ANPR/ANPR_RZA2M_RDK/src/tensorflow_lite/src/third_party/gemmlowp/fixedpoint\fixedpoint.h **** // raw integer values. The IntegerBits simply add up, as is obvious
 537:C:/Renesas/e2studio_2021_01_workspace_RZA2M_ANPR/ANPR_RZA2M_RDK/src/tensorflow_lite/src/third_party/gemmlowp/fixedpoint\fixedpoint.h **** // from the fact that the range is [-2^IntegerBits, 2^IntegerBits).
 538:C:/Renesas/e2studio_2021_01_workspace_RZA2M_ANPR/ANPR_RZA2M_RDK/src/tensorflow_lite/src/third_party/gemmlowp/fixedpoint\fixedpoint.h **** template <typename tRawType, int tIntegerBits_a, int tIntegerBits_b>
 539:C:/Renesas/e2studio_2021_01_workspace_RZA2M_ANPR/ANPR_RZA2M_RDK/src/tensorflow_lite/src/third_party/gemmlowp/fixedpoint\fixedpoint.h **** FixedPoint<tRawType, tIntegerBits_a + tIntegerBits_b> operator*(
 540:C:/Renesas/e2studio_2021_01_workspace_RZA2M_ANPR/ANPR_RZA2M_RDK/src/tensorflow_lite/src/third_party/gemmlowp/fixedpoint\fixedpoint.h ****     FixedPoint<tRawType, tIntegerBits_a> a,
 541:C:/Renesas/e2studio_2021_01_workspace_RZA2M_ANPR/ANPR_RZA2M_RDK/src/tensorflow_lite/src/third_party/gemmlowp/fixedpoint\fixedpoint.h ****     FixedPoint<tRawType, tIntegerBits_b> b) {
 542:C:/Renesas/e2studio_2021_01_workspace_RZA2M_ANPR/ANPR_RZA2M_RDK/src/tensorflow_lite/src/third_party/gemmlowp/fixedpoint\fixedpoint.h ****   FixedPoint<tRawType, tIntegerBits_a + tIntegerBits_b> c;
 543:C:/Renesas/e2studio_2021_01_workspace_RZA2M_ANPR/ANPR_RZA2M_RDK/src/tensorflow_lite/src/third_party/gemmlowp/fixedpoint\fixedpoint.h ****   c.raw() = SaturatingRoundingDoublingHighMul(a.raw(), b.raw());
 544:C:/Renesas/e2studio_2021_01_workspace_RZA2M_ANPR/ANPR_RZA2M_RDK/src/tensorflow_lite/src/third_party/gemmlowp/fixedpoint\fixedpoint.h ****   return c;
 545:C:/Renesas/e2studio_2021_01_workspace_RZA2M_ANPR/ANPR_RZA2M_RDK/src/tensorflow_lite/src/third_party/gemmlowp/fixedpoint\fixedpoint.h **** }
 546:C:/Renesas/e2studio_2021_01_workspace_RZA2M_ANPR/ANPR_RZA2M_RDK/src/tensorflow_lite/src/third_party/gemmlowp/fixedpoint\fixedpoint.h **** 
 547:C:/Renesas/e2studio_2021_01_workspace_RZA2M_ANPR/ANPR_RZA2M_RDK/src/tensorflow_lite/src/third_party/gemmlowp/fixedpoint\fixedpoint.h **** // Tweaking IntegerBits gives exact multiplication by a power of two.
 548:C:/Renesas/e2studio_2021_01_workspace_RZA2M_ANPR/ANPR_RZA2M_RDK/src/tensorflow_lite/src/third_party/gemmlowp/fixedpoint\fixedpoint.h **** template <int tExponent, typename tRawType, int tIntegerBits>
 549:C:/Renesas/e2studio_2021_01_workspace_RZA2M_ANPR/ANPR_RZA2M_RDK/src/tensorflow_lite/src/third_party/gemmlowp/fixedpoint\fixedpoint.h **** FixedPoint<tRawType, tExponent + tIntegerBits> ExactMulByPot(
 550:C:/Renesas/e2studio_2021_01_workspace_RZA2M_ANPR/ANPR_RZA2M_RDK/src/tensorflow_lite/src/third_party/gemmlowp/fixedpoint\fixedpoint.h ****     FixedPoint<tRawType, tIntegerBits> a) {
 551:C:/Renesas/e2studio_2021_01_workspace_RZA2M_ANPR/ANPR_RZA2M_RDK/src/tensorflow_lite/src/third_party/gemmlowp/fixedpoint\fixedpoint.h ****   FixedPoint<tRawType, tExponent + tIntegerBits> c;
 552:C:/Renesas/e2studio_2021_01_workspace_RZA2M_ANPR/ANPR_RZA2M_RDK/src/tensorflow_lite/src/third_party/gemmlowp/fixedpoint\fixedpoint.h ****   c.raw() = a.raw();
 553:C:/Renesas/e2studio_2021_01_workspace_RZA2M_ANPR/ANPR_RZA2M_RDK/src/tensorflow_lite/src/third_party/gemmlowp/fixedpoint\fixedpoint.h ****   return c;
 554:C:/Renesas/e2studio_2021_01_workspace_RZA2M_ANPR/ANPR_RZA2M_RDK/src/tensorflow_lite/src/third_party/gemmlowp/fixedpoint\fixedpoint.h **** }
 555:C:/Renesas/e2studio_2021_01_workspace_RZA2M_ANPR/ANPR_RZA2M_RDK/src/tensorflow_lite/src/third_party/gemmlowp/fixedpoint\fixedpoint.h **** 
 556:C:/Renesas/e2studio_2021_01_workspace_RZA2M_ANPR/ANPR_RZA2M_RDK/src/tensorflow_lite/src/third_party/gemmlowp/fixedpoint\fixedpoint.h **** // If we want to leave IntegerBits fixed, then multiplication
 557:C:/Renesas/e2studio_2021_01_workspace_RZA2M_ANPR/ANPR_RZA2M_RDK/src/tensorflow_lite/src/third_party/gemmlowp/fixedpoint\fixedpoint.h **** // by a power of two has to be saturating/rounding, not exact anymore.
 558:C:/Renesas/e2studio_2021_01_workspace_RZA2M_ANPR/ANPR_RZA2M_RDK/src/tensorflow_lite/src/third_party/gemmlowp/fixedpoint\fixedpoint.h **** template <int tExponent, typename tRawType, int tIntegerBits>
 559:C:/Renesas/e2studio_2021_01_workspace_RZA2M_ANPR/ANPR_RZA2M_RDK/src/tensorflow_lite/src/third_party/gemmlowp/fixedpoint\fixedpoint.h **** FixedPoint<tRawType, tIntegerBits> SaturatingRoundingMultiplyByPOT(
 560:C:/Renesas/e2studio_2021_01_workspace_RZA2M_ANPR/ANPR_RZA2M_RDK/src/tensorflow_lite/src/third_party/gemmlowp/fixedpoint\fixedpoint.h ****     FixedPoint<tRawType, tIntegerBits> a) {
 561:C:/Renesas/e2studio_2021_01_workspace_RZA2M_ANPR/ANPR_RZA2M_RDK/src/tensorflow_lite/src/third_party/gemmlowp/fixedpoint\fixedpoint.h ****   return FixedPoint<tRawType, tIntegerBits>::FromRaw(
 562:C:/Renesas/e2studio_2021_01_workspace_RZA2M_ANPR/ANPR_RZA2M_RDK/src/tensorflow_lite/src/third_party/gemmlowp/fixedpoint\fixedpoint.h ****       SaturatingRoundingMultiplyByPOT<tExponent>(a.raw()));
 563:C:/Renesas/e2studio_2021_01_workspace_RZA2M_ANPR/ANPR_RZA2M_RDK/src/tensorflow_lite/src/third_party/gemmlowp/fixedpoint\fixedpoint.h **** }
 564:C:/Renesas/e2studio_2021_01_workspace_RZA2M_ANPR/ANPR_RZA2M_RDK/src/tensorflow_lite/src/third_party/gemmlowp/fixedpoint\fixedpoint.h **** 
 565:C:/Renesas/e2studio_2021_01_workspace_RZA2M_ANPR/ANPR_RZA2M_RDK/src/tensorflow_lite/src/third_party/gemmlowp/fixedpoint\fixedpoint.h **** // Generic arithmetic operators.
 566:C:/Renesas/e2studio_2021_01_workspace_RZA2M_ANPR/ANPR_RZA2M_RDK/src/tensorflow_lite/src/third_party/gemmlowp/fixedpoint\fixedpoint.h **** 
 567:C:/Renesas/e2studio_2021_01_workspace_RZA2M_ANPR/ANPR_RZA2M_RDK/src/tensorflow_lite/src/third_party/gemmlowp/fixedpoint\fixedpoint.h **** #define MAKE_FIXEDPOINT_UNARY_FUNC(FuncName, ImplFuncName)                     \
 568:C:/Renesas/e2studio_2021_01_workspace_RZA2M_ANPR/ANPR_RZA2M_RDK/src/tensorflow_lite/src/third_party/gemmlowp/fixedpoint\fixedpoint.h ****   template <typename tRawType, int tIntegerBits>                               \
 569:C:/Renesas/e2studio_2021_01_workspace_RZA2M_ANPR/ANPR_RZA2M_RDK/src/tensorflow_lite/src/third_party/gemmlowp/fixedpoint\fixedpoint.h ****   FixedPoint<tRawType, tIntegerBits> FuncName(                                 \
 570:C:/Renesas/e2studio_2021_01_workspace_RZA2M_ANPR/ANPR_RZA2M_RDK/src/tensorflow_lite/src/third_party/gemmlowp/fixedpoint\fixedpoint.h ****       FixedPoint<tRawType, tIntegerBits> a) {                                  \
 571:C:/Renesas/e2studio_2021_01_workspace_RZA2M_ANPR/ANPR_RZA2M_RDK/src/tensorflow_lite/src/third_party/gemmlowp/fixedpoint\fixedpoint.h ****     return FixedPoint<tRawType, tIntegerBits>::FromRaw(ImplFuncName(a.raw())); \
 572:C:/Renesas/e2studio_2021_01_workspace_RZA2M_ANPR/ANPR_RZA2M_RDK/src/tensorflow_lite/src/third_party/gemmlowp/fixedpoint\fixedpoint.h ****   }
 573:C:/Renesas/e2studio_2021_01_workspace_RZA2M_ANPR/ANPR_RZA2M_RDK/src/tensorflow_lite/src/third_party/gemmlowp/fixedpoint\fixedpoint.h **** 
 574:C:/Renesas/e2studio_2021_01_workspace_RZA2M_ANPR/ANPR_RZA2M_RDK/src/tensorflow_lite/src/third_party/gemmlowp/fixedpoint\fixedpoint.h **** #define MAKE_FIXEDPOINT_BINARY_FUNC(FuncName, ImplFuncName) \
 575:C:/Renesas/e2studio_2021_01_workspace_RZA2M_ANPR/ANPR_RZA2M_RDK/src/tensorflow_lite/src/third_party/gemmlowp/fixedpoint\fixedpoint.h ****   template <typename tRawType, int tIntegerBits>            \
 576:C:/Renesas/e2studio_2021_01_workspace_RZA2M_ANPR/ANPR_RZA2M_RDK/src/tensorflow_lite/src/third_party/gemmlowp/fixedpoint\fixedpoint.h ****   FixedPoint<tRawType, tIntegerBits> FuncName(              \
 577:C:/Renesas/e2studio_2021_01_workspace_RZA2M_ANPR/ANPR_RZA2M_RDK/src/tensorflow_lite/src/third_party/gemmlowp/fixedpoint\fixedpoint.h ****       FixedPoint<tRawType, tIntegerBits> a,                 \
 578:C:/Renesas/e2studio_2021_01_workspace_RZA2M_ANPR/ANPR_RZA2M_RDK/src/tensorflow_lite/src/third_party/gemmlowp/fixedpoint\fixedpoint.h ****       FixedPoint<tRawType, tIntegerBits> b) {               \
 579:C:/Renesas/e2studio_2021_01_workspace_RZA2M_ANPR/ANPR_RZA2M_RDK/src/tensorflow_lite/src/third_party/gemmlowp/fixedpoint\fixedpoint.h ****     return FixedPoint<tRawType, tIntegerBits>::FromRaw(     \
 580:C:/Renesas/e2studio_2021_01_workspace_RZA2M_ANPR/ANPR_RZA2M_RDK/src/tensorflow_lite/src/third_party/gemmlowp/fixedpoint\fixedpoint.h ****         ImplFuncName(a.raw(), b.raw()));                    \
 581:C:/Renesas/e2studio_2021_01_workspace_RZA2M_ANPR/ANPR_RZA2M_RDK/src/tensorflow_lite/src/third_party/gemmlowp/fixedpoint\fixedpoint.h ****   }
 582:C:/Renesas/e2studio_2021_01_workspace_RZA2M_ANPR/ANPR_RZA2M_RDK/src/tensorflow_lite/src/third_party/gemmlowp/fixedpoint\fixedpoint.h **** 
 583:C:/Renesas/e2studio_2021_01_workspace_RZA2M_ANPR/ANPR_RZA2M_RDK/src/tensorflow_lite/src/third_party/gemmlowp/fixedpoint\fixedpoint.h **** MAKE_FIXEDPOINT_UNARY_FUNC(operator-, Neg)
 584:C:/Renesas/e2studio_2021_01_workspace_RZA2M_ANPR/ANPR_RZA2M_RDK/src/tensorflow_lite/src/third_party/gemmlowp/fixedpoint\fixedpoint.h **** MAKE_FIXEDPOINT_UNARY_FUNC(operator~, BitNot)
 585:C:/Renesas/e2studio_2021_01_workspace_RZA2M_ANPR/ANPR_RZA2M_RDK/src/tensorflow_lite/src/third_party/gemmlowp/fixedpoint\fixedpoint.h **** MAKE_FIXEDPOINT_BINARY_FUNC(operator+, Add)
 586:C:/Renesas/e2studio_2021_01_workspace_RZA2M_ANPR/ANPR_RZA2M_RDK/src/tensorflow_lite/src/third_party/gemmlowp/fixedpoint\fixedpoint.h **** MAKE_FIXEDPOINT_BINARY_FUNC(operator-, Sub)
 587:C:/Renesas/e2studio_2021_01_workspace_RZA2M_ANPR/ANPR_RZA2M_RDK/src/tensorflow_lite/src/third_party/gemmlowp/fixedpoint\fixedpoint.h **** MAKE_FIXEDPOINT_BINARY_FUNC(operator&, BitAnd)
 588:C:/Renesas/e2studio_2021_01_workspace_RZA2M_ANPR/ANPR_RZA2M_RDK/src/tensorflow_lite/src/third_party/gemmlowp/fixedpoint\fixedpoint.h **** MAKE_FIXEDPOINT_BINARY_FUNC(operator^, BitXor)
 589:C:/Renesas/e2studio_2021_01_workspace_RZA2M_ANPR/ANPR_RZA2M_RDK/src/tensorflow_lite/src/third_party/gemmlowp/fixedpoint\fixedpoint.h **** MAKE_FIXEDPOINT_BINARY_FUNC(operator|, BitOr)
 590:C:/Renesas/e2studio_2021_01_workspace_RZA2M_ANPR/ANPR_RZA2M_RDK/src/tensorflow_lite/src/third_party/gemmlowp/fixedpoint\fixedpoint.h **** MAKE_FIXEDPOINT_BINARY_FUNC(RoundingHalfSum, RoundingHalfSum)
 591:C:/Renesas/e2studio_2021_01_workspace_RZA2M_ANPR/ANPR_RZA2M_RDK/src/tensorflow_lite/src/third_party/gemmlowp/fixedpoint\fixedpoint.h **** 
 592:C:/Renesas/e2studio_2021_01_workspace_RZA2M_ANPR/ANPR_RZA2M_RDK/src/tensorflow_lite/src/third_party/gemmlowp/fixedpoint\fixedpoint.h **** #undef MAKE_FIXEDPOINT_UNARY_FUNC
 593:C:/Renesas/e2studio_2021_01_workspace_RZA2M_ANPR/ANPR_RZA2M_RDK/src/tensorflow_lite/src/third_party/gemmlowp/fixedpoint\fixedpoint.h **** #undef MAKE_FIXEDPOINT_BINARY_FUNC
 594:C:/Renesas/e2studio_2021_01_workspace_RZA2M_ANPR/ANPR_RZA2M_RDK/src/tensorflow_lite/src/third_party/gemmlowp/fixedpoint\fixedpoint.h **** 
 595:C:/Renesas/e2studio_2021_01_workspace_RZA2M_ANPR/ANPR_RZA2M_RDK/src/tensorflow_lite/src/third_party/gemmlowp/fixedpoint\fixedpoint.h **** #define MAKE_FIXEDPOINT_UNARY_FUNC_RETURNING_RAW(FuncName)  \
 596:C:/Renesas/e2studio_2021_01_workspace_RZA2M_ANPR/ANPR_RZA2M_RDK/src/tensorflow_lite/src/third_party/gemmlowp/fixedpoint\fixedpoint.h ****   template <typename tRawType, int tIntegerBits>            \
 597:C:/Renesas/e2studio_2021_01_workspace_RZA2M_ANPR/ANPR_RZA2M_RDK/src/tensorflow_lite/src/third_party/gemmlowp/fixedpoint\fixedpoint.h ****   tRawType FuncName(FixedPoint<tRawType, tIntegerBits> a) { \
 598:C:/Renesas/e2studio_2021_01_workspace_RZA2M_ANPR/ANPR_RZA2M_RDK/src/tensorflow_lite/src/third_party/gemmlowp/fixedpoint\fixedpoint.h ****     return FuncName(a.raw());                               \
 599:C:/Renesas/e2studio_2021_01_workspace_RZA2M_ANPR/ANPR_RZA2M_RDK/src/tensorflow_lite/src/third_party/gemmlowp/fixedpoint\fixedpoint.h ****   }
 600:C:/Renesas/e2studio_2021_01_workspace_RZA2M_ANPR/ANPR_RZA2M_RDK/src/tensorflow_lite/src/third_party/gemmlowp/fixedpoint\fixedpoint.h **** 
 601:C:/Renesas/e2studio_2021_01_workspace_RZA2M_ANPR/ANPR_RZA2M_RDK/src/tensorflow_lite/src/third_party/gemmlowp/fixedpoint\fixedpoint.h **** #define MAKE_FIXEDPOINT_BINARY_FUNC_RETURNING_RAW(FuncName) \
 602:C:/Renesas/e2studio_2021_01_workspace_RZA2M_ANPR/ANPR_RZA2M_RDK/src/tensorflow_lite/src/third_party/gemmlowp/fixedpoint\fixedpoint.h ****   template <typename tRawType, int tIntegerBits>            \
 603:C:/Renesas/e2studio_2021_01_workspace_RZA2M_ANPR/ANPR_RZA2M_RDK/src/tensorflow_lite/src/third_party/gemmlowp/fixedpoint\fixedpoint.h ****   tRawType FuncName(FixedPoint<tRawType, tIntegerBits> a,   \
 604:C:/Renesas/e2studio_2021_01_workspace_RZA2M_ANPR/ANPR_RZA2M_RDK/src/tensorflow_lite/src/third_party/gemmlowp/fixedpoint\fixedpoint.h ****                     FixedPoint<tRawType, tIntegerBits> b) { \
 605:C:/Renesas/e2studio_2021_01_workspace_RZA2M_ANPR/ANPR_RZA2M_RDK/src/tensorflow_lite/src/third_party/gemmlowp/fixedpoint\fixedpoint.h ****     return FuncName(a.raw(), b.raw());                      \
 606:C:/Renesas/e2studio_2021_01_workspace_RZA2M_ANPR/ANPR_RZA2M_RDK/src/tensorflow_lite/src/third_party/gemmlowp/fixedpoint\fixedpoint.h ****   }
 607:C:/Renesas/e2studio_2021_01_workspace_RZA2M_ANPR/ANPR_RZA2M_RDK/src/tensorflow_lite/src/third_party/gemmlowp/fixedpoint\fixedpoint.h **** 
 608:C:/Renesas/e2studio_2021_01_workspace_RZA2M_ANPR/ANPR_RZA2M_RDK/src/tensorflow_lite/src/third_party/gemmlowp/fixedpoint\fixedpoint.h **** MAKE_FIXEDPOINT_UNARY_FUNC_RETURNING_RAW(MaskIfZero)
 609:C:/Renesas/e2studio_2021_01_workspace_RZA2M_ANPR/ANPR_RZA2M_RDK/src/tensorflow_lite/src/third_party/gemmlowp/fixedpoint\fixedpoint.h **** MAKE_FIXEDPOINT_UNARY_FUNC_RETURNING_RAW(MaskIfNonZero)
 610:C:/Renesas/e2studio_2021_01_workspace_RZA2M_ANPR/ANPR_RZA2M_RDK/src/tensorflow_lite/src/third_party/gemmlowp/fixedpoint\fixedpoint.h **** MAKE_FIXEDPOINT_BINARY_FUNC_RETURNING_RAW(MaskIfEqual)
 611:C:/Renesas/e2studio_2021_01_workspace_RZA2M_ANPR/ANPR_RZA2M_RDK/src/tensorflow_lite/src/third_party/gemmlowp/fixedpoint\fixedpoint.h **** MAKE_FIXEDPOINT_BINARY_FUNC_RETURNING_RAW(MaskIfNotEqual)
 612:C:/Renesas/e2studio_2021_01_workspace_RZA2M_ANPR/ANPR_RZA2M_RDK/src/tensorflow_lite/src/third_party/gemmlowp/fixedpoint\fixedpoint.h **** MAKE_FIXEDPOINT_BINARY_FUNC_RETURNING_RAW(MaskIfGreaterThan)
 613:C:/Renesas/e2studio_2021_01_workspace_RZA2M_ANPR/ANPR_RZA2M_RDK/src/tensorflow_lite/src/third_party/gemmlowp/fixedpoint\fixedpoint.h **** MAKE_FIXEDPOINT_BINARY_FUNC_RETURNING_RAW(MaskIfGreaterThanOrEqual)
 614:C:/Renesas/e2studio_2021_01_workspace_RZA2M_ANPR/ANPR_RZA2M_RDK/src/tensorflow_lite/src/third_party/gemmlowp/fixedpoint\fixedpoint.h **** MAKE_FIXEDPOINT_BINARY_FUNC_RETURNING_RAW(MaskIfLessThan)
 615:C:/Renesas/e2studio_2021_01_workspace_RZA2M_ANPR/ANPR_RZA2M_RDK/src/tensorflow_lite/src/third_party/gemmlowp/fixedpoint\fixedpoint.h **** MAKE_FIXEDPOINT_BINARY_FUNC_RETURNING_RAW(MaskIfLessThanOrEqual)
 616:C:/Renesas/e2studio_2021_01_workspace_RZA2M_ANPR/ANPR_RZA2M_RDK/src/tensorflow_lite/src/third_party/gemmlowp/fixedpoint\fixedpoint.h **** 
 617:C:/Renesas/e2studio_2021_01_workspace_RZA2M_ANPR/ANPR_RZA2M_RDK/src/tensorflow_lite/src/third_party/gemmlowp/fixedpoint\fixedpoint.h **** #undef MAKE_FIXEDPOINT_UNARY_FUNC_RETURNING_RAW
 618:C:/Renesas/e2studio_2021_01_workspace_RZA2M_ANPR/ANPR_RZA2M_RDK/src/tensorflow_lite/src/third_party/gemmlowp/fixedpoint\fixedpoint.h **** #undef MAKE_FIXEDPOINT_BINARY_FUNC_RETURNING_RAW
 619:C:/Renesas/e2studio_2021_01_workspace_RZA2M_ANPR/ANPR_RZA2M_RDK/src/tensorflow_lite/src/third_party/gemmlowp/fixedpoint\fixedpoint.h **** 
 620:C:/Renesas/e2studio_2021_01_workspace_RZA2M_ANPR/ANPR_RZA2M_RDK/src/tensorflow_lite/src/third_party/gemmlowp/fixedpoint\fixedpoint.h **** template <typename tRawType, int tIntegerBits>
 621:C:/Renesas/e2studio_2021_01_workspace_RZA2M_ANPR/ANPR_RZA2M_RDK/src/tensorflow_lite/src/third_party/gemmlowp/fixedpoint\fixedpoint.h **** FixedPoint<tRawType, tIntegerBits> SelectUsingMask(
 622:C:/Renesas/e2studio_2021_01_workspace_RZA2M_ANPR/ANPR_RZA2M_RDK/src/tensorflow_lite/src/third_party/gemmlowp/fixedpoint\fixedpoint.h ****     tRawType if_mask, FixedPoint<tRawType, tIntegerBits> then_val,
 623:C:/Renesas/e2studio_2021_01_workspace_RZA2M_ANPR/ANPR_RZA2M_RDK/src/tensorflow_lite/src/third_party/gemmlowp/fixedpoint\fixedpoint.h ****     FixedPoint<tRawType, tIntegerBits> else_val) {
 624:C:/Renesas/e2studio_2021_01_workspace_RZA2M_ANPR/ANPR_RZA2M_RDK/src/tensorflow_lite/src/third_party/gemmlowp/fixedpoint\fixedpoint.h ****   return FixedPoint<tRawType, tIntegerBits>::FromRaw(
 625:C:/Renesas/e2studio_2021_01_workspace_RZA2M_ANPR/ANPR_RZA2M_RDK/src/tensorflow_lite/src/third_party/gemmlowp/fixedpoint\fixedpoint.h ****       SelectUsingMask(if_mask, then_val.raw(), else_val.raw()));
 626:C:/Renesas/e2studio_2021_01_workspace_RZA2M_ANPR/ANPR_RZA2M_RDK/src/tensorflow_lite/src/third_party/gemmlowp/fixedpoint\fixedpoint.h **** }
 627:C:/Renesas/e2studio_2021_01_workspace_RZA2M_ANPR/ANPR_RZA2M_RDK/src/tensorflow_lite/src/third_party/gemmlowp/fixedpoint\fixedpoint.h **** 
 628:C:/Renesas/e2studio_2021_01_workspace_RZA2M_ANPR/ANPR_RZA2M_RDK/src/tensorflow_lite/src/third_party/gemmlowp/fixedpoint\fixedpoint.h **** template <typename tRawType, int tIntegerBits>
 629:C:/Renesas/e2studio_2021_01_workspace_RZA2M_ANPR/ANPR_RZA2M_RDK/src/tensorflow_lite/src/third_party/gemmlowp/fixedpoint\fixedpoint.h **** bool operator==(FixedPoint<tRawType, tIntegerBits> a,
 630:C:/Renesas/e2studio_2021_01_workspace_RZA2M_ANPR/ANPR_RZA2M_RDK/src/tensorflow_lite/src/third_party/gemmlowp/fixedpoint\fixedpoint.h ****                 FixedPoint<tRawType, tIntegerBits> b) {
 631:C:/Renesas/e2studio_2021_01_workspace_RZA2M_ANPR/ANPR_RZA2M_RDK/src/tensorflow_lite/src/third_party/gemmlowp/fixedpoint\fixedpoint.h ****   return All(MaskIfEqual(a.raw(), b.raw()));
 632:C:/Renesas/e2studio_2021_01_workspace_RZA2M_ANPR/ANPR_RZA2M_RDK/src/tensorflow_lite/src/third_party/gemmlowp/fixedpoint\fixedpoint.h **** }
 633:C:/Renesas/e2studio_2021_01_workspace_RZA2M_ANPR/ANPR_RZA2M_RDK/src/tensorflow_lite/src/third_party/gemmlowp/fixedpoint\fixedpoint.h **** 
 634:C:/Renesas/e2studio_2021_01_workspace_RZA2M_ANPR/ANPR_RZA2M_RDK/src/tensorflow_lite/src/third_party/gemmlowp/fixedpoint\fixedpoint.h **** template <typename tRawType, int tIntegerBits>
 635:C:/Renesas/e2studio_2021_01_workspace_RZA2M_ANPR/ANPR_RZA2M_RDK/src/tensorflow_lite/src/third_party/gemmlowp/fixedpoint\fixedpoint.h **** bool operator!=(FixedPoint<tRawType, tIntegerBits> a,
 636:C:/Renesas/e2studio_2021_01_workspace_RZA2M_ANPR/ANPR_RZA2M_RDK/src/tensorflow_lite/src/third_party/gemmlowp/fixedpoint\fixedpoint.h ****                 FixedPoint<tRawType, tIntegerBits> b) {
 637:C:/Renesas/e2studio_2021_01_workspace_RZA2M_ANPR/ANPR_RZA2M_RDK/src/tensorflow_lite/src/third_party/gemmlowp/fixedpoint\fixedpoint.h ****   return !(a == b);
 638:C:/Renesas/e2studio_2021_01_workspace_RZA2M_ANPR/ANPR_RZA2M_RDK/src/tensorflow_lite/src/third_party/gemmlowp/fixedpoint\fixedpoint.h **** }
 639:C:/Renesas/e2studio_2021_01_workspace_RZA2M_ANPR/ANPR_RZA2M_RDK/src/tensorflow_lite/src/third_party/gemmlowp/fixedpoint\fixedpoint.h **** 
 640:C:/Renesas/e2studio_2021_01_workspace_RZA2M_ANPR/ANPR_RZA2M_RDK/src/tensorflow_lite/src/third_party/gemmlowp/fixedpoint\fixedpoint.h **** template <typename tRawType, int tIntegerBits>
 641:C:/Renesas/e2studio_2021_01_workspace_RZA2M_ANPR/ANPR_RZA2M_RDK/src/tensorflow_lite/src/third_party/gemmlowp/fixedpoint\fixedpoint.h **** FixedPoint<tRawType, tIntegerBits> SaturatingAdd(
 642:C:/Renesas/e2studio_2021_01_workspace_RZA2M_ANPR/ANPR_RZA2M_RDK/src/tensorflow_lite/src/third_party/gemmlowp/fixedpoint\fixedpoint.h ****     FixedPoint<tRawType, tIntegerBits> a,
 643:C:/Renesas/e2studio_2021_01_workspace_RZA2M_ANPR/ANPR_RZA2M_RDK/src/tensorflow_lite/src/third_party/gemmlowp/fixedpoint\fixedpoint.h ****     FixedPoint<tRawType, tIntegerBits> b) {
 644:C:/Renesas/e2studio_2021_01_workspace_RZA2M_ANPR/ANPR_RZA2M_RDK/src/tensorflow_lite/src/third_party/gemmlowp/fixedpoint\fixedpoint.h ****   return FixedPoint<tRawType, tIntegerBits>::FromRaw(
 645:C:/Renesas/e2studio_2021_01_workspace_RZA2M_ANPR/ANPR_RZA2M_RDK/src/tensorflow_lite/src/third_party/gemmlowp/fixedpoint\fixedpoint.h ****       SaturatingAdd(a.raw(), b.raw()));
 646:C:/Renesas/e2studio_2021_01_workspace_RZA2M_ANPR/ANPR_RZA2M_RDK/src/tensorflow_lite/src/third_party/gemmlowp/fixedpoint\fixedpoint.h **** }
 647:C:/Renesas/e2studio_2021_01_workspace_RZA2M_ANPR/ANPR_RZA2M_RDK/src/tensorflow_lite/src/third_party/gemmlowp/fixedpoint\fixedpoint.h **** 
 648:C:/Renesas/e2studio_2021_01_workspace_RZA2M_ANPR/ANPR_RZA2M_RDK/src/tensorflow_lite/src/third_party/gemmlowp/fixedpoint\fixedpoint.h **** template <typename tRawType, int tIntegerBits>
 649:C:/Renesas/e2studio_2021_01_workspace_RZA2M_ANPR/ANPR_RZA2M_RDK/src/tensorflow_lite/src/third_party/gemmlowp/fixedpoint\fixedpoint.h **** FixedPoint<tRawType, tIntegerBits> AddSaturatingIf16Bit(
 650:C:/Renesas/e2studio_2021_01_workspace_RZA2M_ANPR/ANPR_RZA2M_RDK/src/tensorflow_lite/src/third_party/gemmlowp/fixedpoint\fixedpoint.h ****     FixedPoint<tRawType, tIntegerBits> a,
 651:C:/Renesas/e2studio_2021_01_workspace_RZA2M_ANPR/ANPR_RZA2M_RDK/src/tensorflow_lite/src/third_party/gemmlowp/fixedpoint\fixedpoint.h ****     FixedPoint<tRawType, tIntegerBits> b) {
 652:C:/Renesas/e2studio_2021_01_workspace_RZA2M_ANPR/ANPR_RZA2M_RDK/src/tensorflow_lite/src/third_party/gemmlowp/fixedpoint\fixedpoint.h ****   return FixedPoint<tRawType, tIntegerBits>::FromRaw(
 653:C:/Renesas/e2studio_2021_01_workspace_RZA2M_ANPR/ANPR_RZA2M_RDK/src/tensorflow_lite/src/third_party/gemmlowp/fixedpoint\fixedpoint.h ****       AddSaturatingIf16Bit(a.raw(), b.raw()));
 654:C:/Renesas/e2studio_2021_01_workspace_RZA2M_ANPR/ANPR_RZA2M_RDK/src/tensorflow_lite/src/third_party/gemmlowp/fixedpoint\fixedpoint.h **** }
 655:C:/Renesas/e2studio_2021_01_workspace_RZA2M_ANPR/ANPR_RZA2M_RDK/src/tensorflow_lite/src/third_party/gemmlowp/fixedpoint\fixedpoint.h **** 
 656:C:/Renesas/e2studio_2021_01_workspace_RZA2M_ANPR/ANPR_RZA2M_RDK/src/tensorflow_lite/src/third_party/gemmlowp/fixedpoint\fixedpoint.h **** // Conversion to floating-point.
 657:C:/Renesas/e2studio_2021_01_workspace_RZA2M_ANPR/ANPR_RZA2M_RDK/src/tensorflow_lite/src/third_party/gemmlowp/fixedpoint\fixedpoint.h **** template <typename tRawType, int tIntegerBits>
 658:C:/Renesas/e2studio_2021_01_workspace_RZA2M_ANPR/ANPR_RZA2M_RDK/src/tensorflow_lite/src/third_party/gemmlowp/fixedpoint\fixedpoint.h **** double ToDouble(FixedPoint<tRawType, tIntegerBits> x) {
 659:C:/Renesas/e2studio_2021_01_workspace_RZA2M_ANPR/ANPR_RZA2M_RDK/src/tensorflow_lite/src/third_party/gemmlowp/fixedpoint\fixedpoint.h ****   static_assert(FixedPointRawTypeTraits<tRawType>::kLanes == 1,
 660:C:/Renesas/e2studio_2021_01_workspace_RZA2M_ANPR/ANPR_RZA2M_RDK/src/tensorflow_lite/src/third_party/gemmlowp/fixedpoint\fixedpoint.h ****                 "not applicable to SIMD types");
 661:C:/Renesas/e2studio_2021_01_workspace_RZA2M_ANPR/ANPR_RZA2M_RDK/src/tensorflow_lite/src/third_party/gemmlowp/fixedpoint\fixedpoint.h ****   typedef FixedPoint<tRawType, tIntegerBits> F;
 662:C:/Renesas/e2studio_2021_01_workspace_RZA2M_ANPR/ANPR_RZA2M_RDK/src/tensorflow_lite/src/third_party/gemmlowp/fixedpoint\fixedpoint.h ****   return x.raw() / static_cast<double>(1ll << F::kFractionalBits);
 663:C:/Renesas/e2studio_2021_01_workspace_RZA2M_ANPR/ANPR_RZA2M_RDK/src/tensorflow_lite/src/third_party/gemmlowp/fixedpoint\fixedpoint.h **** }
 664:C:/Renesas/e2studio_2021_01_workspace_RZA2M_ANPR/ANPR_RZA2M_RDK/src/tensorflow_lite/src/third_party/gemmlowp/fixedpoint\fixedpoint.h **** 
 665:C:/Renesas/e2studio_2021_01_workspace_RZA2M_ANPR/ANPR_RZA2M_RDK/src/tensorflow_lite/src/third_party/gemmlowp/fixedpoint\fixedpoint.h **** // Rescale changes the number of IntegerBits and updates the underlying
 666:C:/Renesas/e2studio_2021_01_workspace_RZA2M_ANPR/ANPR_RZA2M_RDK/src/tensorflow_lite/src/third_party/gemmlowp/fixedpoint\fixedpoint.h **** // raw integer value accordingly.
 667:C:/Renesas/e2studio_2021_01_workspace_RZA2M_ANPR/ANPR_RZA2M_RDK/src/tensorflow_lite/src/third_party/gemmlowp/fixedpoint\fixedpoint.h **** template <int tIntegerBitsDst, typename tRawType, int tIntegerBitsSrc>
 668:C:/Renesas/e2studio_2021_01_workspace_RZA2M_ANPR/ANPR_RZA2M_RDK/src/tensorflow_lite/src/third_party/gemmlowp/fixedpoint\fixedpoint.h **** FixedPoint<tRawType, tIntegerBitsDst> Rescale(
 669:C:/Renesas/e2studio_2021_01_workspace_RZA2M_ANPR/ANPR_RZA2M_RDK/src/tensorflow_lite/src/third_party/gemmlowp/fixedpoint\fixedpoint.h ****     FixedPoint<tRawType, tIntegerBitsSrc> x) {
 670:C:/Renesas/e2studio_2021_01_workspace_RZA2M_ANPR/ANPR_RZA2M_RDK/src/tensorflow_lite/src/third_party/gemmlowp/fixedpoint\fixedpoint.h ****   static constexpr int kExponent = tIntegerBitsSrc - tIntegerBitsDst;
 671:C:/Renesas/e2studio_2021_01_workspace_RZA2M_ANPR/ANPR_RZA2M_RDK/src/tensorflow_lite/src/third_party/gemmlowp/fixedpoint\fixedpoint.h ****   FixedPoint<tRawType, tIntegerBitsDst> result;
 672:C:/Renesas/e2studio_2021_01_workspace_RZA2M_ANPR/ANPR_RZA2M_RDK/src/tensorflow_lite/src/third_party/gemmlowp/fixedpoint\fixedpoint.h ****   result.raw() = SaturatingRoundingMultiplyByPOT<kExponent>(x.raw());
 673:C:/Renesas/e2studio_2021_01_workspace_RZA2M_ANPR/ANPR_RZA2M_RDK/src/tensorflow_lite/src/third_party/gemmlowp/fixedpoint\fixedpoint.h ****   return result;
 674:C:/Renesas/e2studio_2021_01_workspace_RZA2M_ANPR/ANPR_RZA2M_RDK/src/tensorflow_lite/src/third_party/gemmlowp/fixedpoint\fixedpoint.h **** }
 675:C:/Renesas/e2studio_2021_01_workspace_RZA2M_ANPR/ANPR_RZA2M_RDK/src/tensorflow_lite/src/third_party/gemmlowp/fixedpoint\fixedpoint.h **** 
 676:C:/Renesas/e2studio_2021_01_workspace_RZA2M_ANPR/ANPR_RZA2M_RDK/src/tensorflow_lite/src/third_party/gemmlowp/fixedpoint\fixedpoint.h **** // CheckedFixedPointConstant allows to specify fixed-point constants
 677:C:/Renesas/e2studio_2021_01_workspace_RZA2M_ANPR/ANPR_RZA2M_RDK/src/tensorflow_lite/src/third_party/gemmlowp/fixedpoint\fixedpoint.h **** // initialized as real numbers, in a way that does not compile floating-point
 678:C:/Renesas/e2studio_2021_01_workspace_RZA2M_ANPR/ANPR_RZA2M_RDK/src/tensorflow_lite/src/third_party/gemmlowp/fixedpoint\fixedpoint.h **** // arithmetic in production code, yet still checks agreement with the
 679:C:/Renesas/e2studio_2021_01_workspace_RZA2M_ANPR/ANPR_RZA2M_RDK/src/tensorflow_lite/src/third_party/gemmlowp/fixedpoint\fixedpoint.h **** // floating-point expressions when asserts are enabled.
 680:C:/Renesas/e2studio_2021_01_workspace_RZA2M_ANPR/ANPR_RZA2M_RDK/src/tensorflow_lite/src/third_party/gemmlowp/fixedpoint\fixedpoint.h **** //
 681:C:/Renesas/e2studio_2021_01_workspace_RZA2M_ANPR/ANPR_RZA2M_RDK/src/tensorflow_lite/src/third_party/gemmlowp/fixedpoint\fixedpoint.h **** // The raw integer value provided is always a int32, encoding a 32-bit
 682:C:/Renesas/e2studio_2021_01_workspace_RZA2M_ANPR/ANPR_RZA2M_RDK/src/tensorflow_lite/src/third_party/gemmlowp/fixedpoint\fixedpoint.h **** // fixed-point value, regardless of the actual Scalar type. This allows
 683:C:/Renesas/e2studio_2021_01_workspace_RZA2M_ANPR/ANPR_RZA2M_RDK/src/tensorflow_lite/src/third_party/gemmlowp/fixedpoint\fixedpoint.h **** // writing generic code that applies just as well to the 32-bit and 16-bit
 684:C:/Renesas/e2studio_2021_01_workspace_RZA2M_ANPR/ANPR_RZA2M_RDK/src/tensorflow_lite/src/third_party/gemmlowp/fixedpoint\fixedpoint.h **** // cases. In the 16-bit case, the raw integer value is internally
 685:C:/Renesas/e2studio_2021_01_workspace_RZA2M_ANPR/ANPR_RZA2M_RDK/src/tensorflow_lite/src/third_party/gemmlowp/fixedpoint\fixedpoint.h **** // rounding-shifted by 16 bits to the right.
 686:C:/Renesas/e2studio_2021_01_workspace_RZA2M_ANPR/ANPR_RZA2M_RDK/src/tensorflow_lite/src/third_party/gemmlowp/fixedpoint\fixedpoint.h **** template <typename FixedPointType>
 687:C:/Renesas/e2studio_2021_01_workspace_RZA2M_ANPR/ANPR_RZA2M_RDK/src/tensorflow_lite/src/third_party/gemmlowp/fixedpoint\fixedpoint.h **** inline typename FixedPointType::ScalarRawType RescaleConstantInitializer(
 688:C:/Renesas/e2studio_2021_01_workspace_RZA2M_ANPR/ANPR_RZA2M_RDK/src/tensorflow_lite/src/third_party/gemmlowp/fixedpoint\fixedpoint.h ****     std::int32_t int32_value) {
 689:C:/Renesas/e2studio_2021_01_workspace_RZA2M_ANPR/ANPR_RZA2M_RDK/src/tensorflow_lite/src/third_party/gemmlowp/fixedpoint\fixedpoint.h ****   typedef typename FixedPointType::ScalarRawType ScalarRawType;
 690:C:/Renesas/e2studio_2021_01_workspace_RZA2M_ANPR/ANPR_RZA2M_RDK/src/tensorflow_lite/src/third_party/gemmlowp/fixedpoint\fixedpoint.h ****   static constexpr int ScalarTypeBits = 8 * sizeof(ScalarRawType);
 691:C:/Renesas/e2studio_2021_01_workspace_RZA2M_ANPR/ANPR_RZA2M_RDK/src/tensorflow_lite/src/third_party/gemmlowp/fixedpoint\fixedpoint.h ****   return static_cast<ScalarRawType>(
 692:C:/Renesas/e2studio_2021_01_workspace_RZA2M_ANPR/ANPR_RZA2M_RDK/src/tensorflow_lite/src/third_party/gemmlowp/fixedpoint\fixedpoint.h ****       RoundingDivideByPOT<std::int32_t>(int32_value, 32 - ScalarTypeBits));
 693:C:/Renesas/e2studio_2021_01_workspace_RZA2M_ANPR/ANPR_RZA2M_RDK/src/tensorflow_lite/src/third_party/gemmlowp/fixedpoint\fixedpoint.h **** }
 694:C:/Renesas/e2studio_2021_01_workspace_RZA2M_ANPR/ANPR_RZA2M_RDK/src/tensorflow_lite/src/third_party/gemmlowp/fixedpoint\fixedpoint.h **** #ifdef GEMMLOWP_ENABLE_FIXEDPOINT_CONSTANTS_CHECKS
 695:C:/Renesas/e2studio_2021_01_workspace_RZA2M_ANPR/ANPR_RZA2M_RDK/src/tensorflow_lite/src/third_party/gemmlowp/fixedpoint\fixedpoint.h **** template <typename FixedPointType>
 696:C:/Renesas/e2studio_2021_01_workspace_RZA2M_ANPR/ANPR_RZA2M_RDK/src/tensorflow_lite/src/third_party/gemmlowp/fixedpoint\fixedpoint.h **** FixedPointType CheckedFixedPointConstant(std::int32_t raw_value,
 697:C:/Renesas/e2studio_2021_01_workspace_RZA2M_ANPR/ANPR_RZA2M_RDK/src/tensorflow_lite/src/third_party/gemmlowp/fixedpoint\fixedpoint.h ****                                          double double_value) {
 698:C:/Renesas/e2studio_2021_01_workspace_RZA2M_ANPR/ANPR_RZA2M_RDK/src/tensorflow_lite/src/third_party/gemmlowp/fixedpoint\fixedpoint.h ****   const FixedPointType result = FixedPointType::FromScalarRaw(raw_value);
 699:C:/Renesas/e2studio_2021_01_workspace_RZA2M_ANPR/ANPR_RZA2M_RDK/src/tensorflow_lite/src/third_party/gemmlowp/fixedpoint\fixedpoint.h ****   assert(result == FixedPointType::FromDouble(double_value));
 700:C:/Renesas/e2studio_2021_01_workspace_RZA2M_ANPR/ANPR_RZA2M_RDK/src/tensorflow_lite/src/third_party/gemmlowp/fixedpoint\fixedpoint.h ****   return result;
 701:C:/Renesas/e2studio_2021_01_workspace_RZA2M_ANPR/ANPR_RZA2M_RDK/src/tensorflow_lite/src/third_party/gemmlowp/fixedpoint\fixedpoint.h **** }
 702:C:/Renesas/e2studio_2021_01_workspace_RZA2M_ANPR/ANPR_RZA2M_RDK/src/tensorflow_lite/src/third_party/gemmlowp/fixedpoint\fixedpoint.h **** #define GEMMLOWP_CHECKED_FIXEDPOINT_CONSTANT(FixedPointType,                   \
 703:C:/Renesas/e2studio_2021_01_workspace_RZA2M_ANPR/ANPR_RZA2M_RDK/src/tensorflow_lite/src/third_party/gemmlowp/fixedpoint\fixedpoint.h ****                                              ScalarRawInt32Value, DoubleValue) \
 704:C:/Renesas/e2studio_2021_01_workspace_RZA2M_ANPR/ANPR_RZA2M_RDK/src/tensorflow_lite/src/third_party/gemmlowp/fixedpoint\fixedpoint.h ****   (gemmlowp::CheckedFixedPointConstant<FixedPointType>(                        \
 705:C:/Renesas/e2studio_2021_01_workspace_RZA2M_ANPR/ANPR_RZA2M_RDK/src/tensorflow_lite/src/third_party/gemmlowp/fixedpoint\fixedpoint.h ****       gemmlowp::RescaleConstantInitializer<FixedPointType>(                    \
 706:C:/Renesas/e2studio_2021_01_workspace_RZA2M_ANPR/ANPR_RZA2M_RDK/src/tensorflow_lite/src/third_party/gemmlowp/fixedpoint\fixedpoint.h ****           ScalarRawInt32Value),                                                \
 707:C:/Renesas/e2studio_2021_01_workspace_RZA2M_ANPR/ANPR_RZA2M_RDK/src/tensorflow_lite/src/third_party/gemmlowp/fixedpoint\fixedpoint.h ****       DoubleValue))
 708:C:/Renesas/e2studio_2021_01_workspace_RZA2M_ANPR/ANPR_RZA2M_RDK/src/tensorflow_lite/src/third_party/gemmlowp/fixedpoint\fixedpoint.h **** 
 709:C:/Renesas/e2studio_2021_01_workspace_RZA2M_ANPR/ANPR_RZA2M_RDK/src/tensorflow_lite/src/third_party/gemmlowp/fixedpoint\fixedpoint.h **** #else
 710:C:/Renesas/e2studio_2021_01_workspace_RZA2M_ANPR/ANPR_RZA2M_RDK/src/tensorflow_lite/src/third_party/gemmlowp/fixedpoint\fixedpoint.h **** #define GEMMLOWP_CHECKED_FIXEDPOINT_CONSTANT(FixedPointType,                   \
 711:C:/Renesas/e2studio_2021_01_workspace_RZA2M_ANPR/ANPR_RZA2M_RDK/src/tensorflow_lite/src/third_party/gemmlowp/fixedpoint\fixedpoint.h ****                                              ScalarRawInt32Value, DoubleValue) \
 712:C:/Renesas/e2studio_2021_01_workspace_RZA2M_ANPR/ANPR_RZA2M_RDK/src/tensorflow_lite/src/third_party/gemmlowp/fixedpoint\fixedpoint.h ****   (FixedPointType::FromScalarRaw(                                              \
 713:C:/Renesas/e2studio_2021_01_workspace_RZA2M_ANPR/ANPR_RZA2M_RDK/src/tensorflow_lite/src/third_party/gemmlowp/fixedpoint\fixedpoint.h ****       gemmlowp::RescaleConstantInitializer<FixedPointType>(                    \
 714:C:/Renesas/e2studio_2021_01_workspace_RZA2M_ANPR/ANPR_RZA2M_RDK/src/tensorflow_lite/src/third_party/gemmlowp/fixedpoint\fixedpoint.h ****           ScalarRawInt32Value)))
 715:C:/Renesas/e2studio_2021_01_workspace_RZA2M_ANPR/ANPR_RZA2M_RDK/src/tensorflow_lite/src/third_party/gemmlowp/fixedpoint\fixedpoint.h **** #endif
 716:C:/Renesas/e2studio_2021_01_workspace_RZA2M_ANPR/ANPR_RZA2M_RDK/src/tensorflow_lite/src/third_party/gemmlowp/fixedpoint\fixedpoint.h **** 
 717:C:/Renesas/e2studio_2021_01_workspace_RZA2M_ANPR/ANPR_RZA2M_RDK/src/tensorflow_lite/src/third_party/gemmlowp/fixedpoint\fixedpoint.h **** // Implementation of exponential function.
 718:C:/Renesas/e2studio_2021_01_workspace_RZA2M_ANPR/ANPR_RZA2M_RDK/src/tensorflow_lite/src/third_party/gemmlowp/fixedpoint\fixedpoint.h **** 
 719:C:/Renesas/e2studio_2021_01_workspace_RZA2M_ANPR/ANPR_RZA2M_RDK/src/tensorflow_lite/src/third_party/gemmlowp/fixedpoint\fixedpoint.h **** // Returns exp(x) for x in [-1/4, 0).
 720:C:/Renesas/e2studio_2021_01_workspace_RZA2M_ANPR/ANPR_RZA2M_RDK/src/tensorflow_lite/src/third_party/gemmlowp/fixedpoint\fixedpoint.h **** template <typename tRawType>
 721:C:/Renesas/e2studio_2021_01_workspace_RZA2M_ANPR/ANPR_RZA2M_RDK/src/tensorflow_lite/src/third_party/gemmlowp/fixedpoint\fixedpoint.h **** FixedPoint<tRawType, 0> exp_on_interval_between_negative_one_quarter_and_0_excl(
 722:C:/Renesas/e2studio_2021_01_workspace_RZA2M_ANPR/ANPR_RZA2M_RDK/src/tensorflow_lite/src/third_party/gemmlowp/fixedpoint\fixedpoint.h ****     FixedPoint<tRawType, 0> a) {
 723:C:/Renesas/e2studio_2021_01_workspace_RZA2M_ANPR/ANPR_RZA2M_RDK/src/tensorflow_lite/src/third_party/gemmlowp/fixedpoint\fixedpoint.h ****   typedef FixedPoint<tRawType, 0> F;
 724:C:/Renesas/e2studio_2021_01_workspace_RZA2M_ANPR/ANPR_RZA2M_RDK/src/tensorflow_lite/src/third_party/gemmlowp/fixedpoint\fixedpoint.h ****   const F constant_term =
 725:C:/Renesas/e2studio_2021_01_workspace_RZA2M_ANPR/ANPR_RZA2M_RDK/src/tensorflow_lite/src/third_party/gemmlowp/fixedpoint\fixedpoint.h ****       GEMMLOWP_CHECKED_FIXEDPOINT_CONSTANT(F, 1895147668, std::exp(-1.0 / 8.0));
 726:C:/Renesas/e2studio_2021_01_workspace_RZA2M_ANPR/ANPR_RZA2M_RDK/src/tensorflow_lite/src/third_party/gemmlowp/fixedpoint\fixedpoint.h ****   const F constant_1_over_3 =
 727:C:/Renesas/e2studio_2021_01_workspace_RZA2M_ANPR/ANPR_RZA2M_RDK/src/tensorflow_lite/src/third_party/gemmlowp/fixedpoint\fixedpoint.h ****       GEMMLOWP_CHECKED_FIXEDPOINT_CONSTANT(F, 715827883, 1.0 / 3.0);
 728:C:/Renesas/e2studio_2021_01_workspace_RZA2M_ANPR/ANPR_RZA2M_RDK/src/tensorflow_lite/src/third_party/gemmlowp/fixedpoint\fixedpoint.h ****   // We're evaluating a Taylor expansion around -1/8, so we do the change of
 729:C:/Renesas/e2studio_2021_01_workspace_RZA2M_ANPR/ANPR_RZA2M_RDK/src/tensorflow_lite/src/third_party/gemmlowp/fixedpoint\fixedpoint.h ****   // variable: x = a + 1/8.
 730:C:/Renesas/e2studio_2021_01_workspace_RZA2M_ANPR/ANPR_RZA2M_RDK/src/tensorflow_lite/src/third_party/gemmlowp/fixedpoint\fixedpoint.h ****   // In fixed-point with 0 integer bits, 1/8 is represented by 1 << 28.
 731:C:/Renesas/e2studio_2021_01_workspace_RZA2M_ANPR/ANPR_RZA2M_RDK/src/tensorflow_lite/src/third_party/gemmlowp/fixedpoint\fixedpoint.h ****   F x = a + F::template ConstantPOT<-3>();
 732:C:/Renesas/e2studio_2021_01_workspace_RZA2M_ANPR/ANPR_RZA2M_RDK/src/tensorflow_lite/src/third_party/gemmlowp/fixedpoint\fixedpoint.h ****   F x2 = x * x;
 733:C:/Renesas/e2studio_2021_01_workspace_RZA2M_ANPR/ANPR_RZA2M_RDK/src/tensorflow_lite/src/third_party/gemmlowp/fixedpoint\fixedpoint.h ****   F x3 = x2 * x;
 734:C:/Renesas/e2studio_2021_01_workspace_RZA2M_ANPR/ANPR_RZA2M_RDK/src/tensorflow_lite/src/third_party/gemmlowp/fixedpoint\fixedpoint.h ****   F x4 = x2 * x2;
 735:C:/Renesas/e2studio_2021_01_workspace_RZA2M_ANPR/ANPR_RZA2M_RDK/src/tensorflow_lite/src/third_party/gemmlowp/fixedpoint\fixedpoint.h ****   F x4_over_4 = SaturatingRoundingMultiplyByPOT<-2>(x4);
 736:C:/Renesas/e2studio_2021_01_workspace_RZA2M_ANPR/ANPR_RZA2M_RDK/src/tensorflow_lite/src/third_party/gemmlowp/fixedpoint\fixedpoint.h ****   F x4_over_24_plus_x3_over_6_plus_x2_over_2 =
 737:C:/Renesas/e2studio_2021_01_workspace_RZA2M_ANPR/ANPR_RZA2M_RDK/src/tensorflow_lite/src/third_party/gemmlowp/fixedpoint\fixedpoint.h ****       SaturatingRoundingMultiplyByPOT<-1>(
 738:C:/Renesas/e2studio_2021_01_workspace_RZA2M_ANPR/ANPR_RZA2M_RDK/src/tensorflow_lite/src/third_party/gemmlowp/fixedpoint\fixedpoint.h ****           ((x4_over_4 + x3) * constant_1_over_3) + x2);
 739:C:/Renesas/e2studio_2021_01_workspace_RZA2M_ANPR/ANPR_RZA2M_RDK/src/tensorflow_lite/src/third_party/gemmlowp/fixedpoint\fixedpoint.h ****   return AddSaturatingIf16Bit(
 740:C:/Renesas/e2studio_2021_01_workspace_RZA2M_ANPR/ANPR_RZA2M_RDK/src/tensorflow_lite/src/third_party/gemmlowp/fixedpoint\fixedpoint.h ****       constant_term,
 741:C:/Renesas/e2studio_2021_01_workspace_RZA2M_ANPR/ANPR_RZA2M_RDK/src/tensorflow_lite/src/third_party/gemmlowp/fixedpoint\fixedpoint.h ****       constant_term * (x + x4_over_24_plus_x3_over_6_plus_x2_over_2));
 742:C:/Renesas/e2studio_2021_01_workspace_RZA2M_ANPR/ANPR_RZA2M_RDK/src/tensorflow_lite/src/third_party/gemmlowp/fixedpoint\fixedpoint.h **** }
 743:C:/Renesas/e2studio_2021_01_workspace_RZA2M_ANPR/ANPR_RZA2M_RDK/src/tensorflow_lite/src/third_party/gemmlowp/fixedpoint\fixedpoint.h **** 
 744:C:/Renesas/e2studio_2021_01_workspace_RZA2M_ANPR/ANPR_RZA2M_RDK/src/tensorflow_lite/src/third_party/gemmlowp/fixedpoint\fixedpoint.h **** // Returns exp(x) for x < 0.
 745:C:/Renesas/e2studio_2021_01_workspace_RZA2M_ANPR/ANPR_RZA2M_RDK/src/tensorflow_lite/src/third_party/gemmlowp/fixedpoint\fixedpoint.h **** template <typename tRawType, int tIntegerBits>
 746:C:/Renesas/e2studio_2021_01_workspace_RZA2M_ANPR/ANPR_RZA2M_RDK/src/tensorflow_lite/src/third_party/gemmlowp/fixedpoint\fixedpoint.h **** FixedPoint<tRawType, 0> exp_on_negative_values(
 747:C:/Renesas/e2studio_2021_01_workspace_RZA2M_ANPR/ANPR_RZA2M_RDK/src/tensorflow_lite/src/third_party/gemmlowp/fixedpoint\fixedpoint.h ****     FixedPoint<tRawType, tIntegerBits> a) {
 748:C:/Renesas/e2studio_2021_01_workspace_RZA2M_ANPR/ANPR_RZA2M_RDK/src/tensorflow_lite/src/third_party/gemmlowp/fixedpoint\fixedpoint.h ****   typedef FixedPoint<tRawType, tIntegerBits> InputF;
 749:C:/Renesas/e2studio_2021_01_workspace_RZA2M_ANPR/ANPR_RZA2M_RDK/src/tensorflow_lite/src/third_party/gemmlowp/fixedpoint\fixedpoint.h ****   typedef FixedPoint<tRawType, 0> ResultF;
 750:C:/Renesas/e2studio_2021_01_workspace_RZA2M_ANPR/ANPR_RZA2M_RDK/src/tensorflow_lite/src/third_party/gemmlowp/fixedpoint\fixedpoint.h ****   static constexpr int kFractionalBits = InputF::kFractionalBits;
 751:C:/Renesas/e2studio_2021_01_workspace_RZA2M_ANPR/ANPR_RZA2M_RDK/src/tensorflow_lite/src/third_party/gemmlowp/fixedpoint\fixedpoint.h ****   static constexpr int kIntegerBits = InputF::kIntegerBits;
 752:C:/Renesas/e2studio_2021_01_workspace_RZA2M_ANPR/ANPR_RZA2M_RDK/src/tensorflow_lite/src/third_party/gemmlowp/fixedpoint\fixedpoint.h ****   const InputF kOneQuarter = InputF::template ConstantPOT<-2>();
 753:C:/Renesas/e2studio_2021_01_workspace_RZA2M_ANPR/ANPR_RZA2M_RDK/src/tensorflow_lite/src/third_party/gemmlowp/fixedpoint\fixedpoint.h ****   InputF mask = kOneQuarter - InputF::FromScalarRaw(1);
 754:C:/Renesas/e2studio_2021_01_workspace_RZA2M_ANPR/ANPR_RZA2M_RDK/src/tensorflow_lite/src/third_party/gemmlowp/fixedpoint\fixedpoint.h ****   InputF a_mod_quarter_minus_one_quarter = (a & mask) - kOneQuarter;
 755:C:/Renesas/e2studio_2021_01_workspace_RZA2M_ANPR/ANPR_RZA2M_RDK/src/tensorflow_lite/src/third_party/gemmlowp/fixedpoint\fixedpoint.h ****   ResultF result = exp_on_interval_between_negative_one_quarter_and_0_excl(
 756:C:/Renesas/e2studio_2021_01_workspace_RZA2M_ANPR/ANPR_RZA2M_RDK/src/tensorflow_lite/src/third_party/gemmlowp/fixedpoint\fixedpoint.h ****       Rescale<0>(a_mod_quarter_minus_one_quarter));
 757:C:/Renesas/e2studio_2021_01_workspace_RZA2M_ANPR/ANPR_RZA2M_RDK/src/tensorflow_lite/src/third_party/gemmlowp/fixedpoint\fixedpoint.h ****   tRawType remainder = (a_mod_quarter_minus_one_quarter - a).raw();
 758:C:/Renesas/e2studio_2021_01_workspace_RZA2M_ANPR/ANPR_RZA2M_RDK/src/tensorflow_lite/src/third_party/gemmlowp/fixedpoint\fixedpoint.h **** 
 759:C:/Renesas/e2studio_2021_01_workspace_RZA2M_ANPR/ANPR_RZA2M_RDK/src/tensorflow_lite/src/third_party/gemmlowp/fixedpoint\fixedpoint.h **** #define GEMMLOWP_EXP_BARREL_SHIFTER(Exponent, FixedPointMultiplier)         \
 760:C:/Renesas/e2studio_2021_01_workspace_RZA2M_ANPR/ANPR_RZA2M_RDK/src/tensorflow_lite/src/third_party/gemmlowp/fixedpoint\fixedpoint.h ****   if (kIntegerBits > Exponent) {                                            \
 761:C:/Renesas/e2studio_2021_01_workspace_RZA2M_ANPR/ANPR_RZA2M_RDK/src/tensorflow_lite/src/third_party/gemmlowp/fixedpoint\fixedpoint.h ****     const ResultF kMultiplier = GEMMLOWP_CHECKED_FIXEDPOINT_CONSTANT(       \
 762:C:/Renesas/e2studio_2021_01_workspace_RZA2M_ANPR/ANPR_RZA2M_RDK/src/tensorflow_lite/src/third_party/gemmlowp/fixedpoint\fixedpoint.h ****         ResultF, FixedPointMultiplier, std::exp(-std::pow(2.0, Exponent))); \
 763:C:/Renesas/e2studio_2021_01_workspace_RZA2M_ANPR/ANPR_RZA2M_RDK/src/tensorflow_lite/src/third_party/gemmlowp/fixedpoint\fixedpoint.h ****     static constexpr int kShiftAmount =                                     \
 764:C:/Renesas/e2studio_2021_01_workspace_RZA2M_ANPR/ANPR_RZA2M_RDK/src/tensorflow_lite/src/third_party/gemmlowp/fixedpoint\fixedpoint.h ****         kIntegerBits > Exponent ? kFractionalBits + Exponent : 0;           \
 765:C:/Renesas/e2studio_2021_01_workspace_RZA2M_ANPR/ANPR_RZA2M_RDK/src/tensorflow_lite/src/third_party/gemmlowp/fixedpoint\fixedpoint.h ****     result = SelectUsingMask(                                               \
 766:C:/Renesas/e2studio_2021_01_workspace_RZA2M_ANPR/ANPR_RZA2M_RDK/src/tensorflow_lite/src/third_party/gemmlowp/fixedpoint\fixedpoint.h ****         MaskIfNonZero(BitAnd(remainder, Dup<tRawType>(1 << kShiftAmount))), \
 767:C:/Renesas/e2studio_2021_01_workspace_RZA2M_ANPR/ANPR_RZA2M_RDK/src/tensorflow_lite/src/third_party/gemmlowp/fixedpoint\fixedpoint.h ****         result * kMultiplier, result);                                      \
 768:C:/Renesas/e2studio_2021_01_workspace_RZA2M_ANPR/ANPR_RZA2M_RDK/src/tensorflow_lite/src/third_party/gemmlowp/fixedpoint\fixedpoint.h ****   }
 769:C:/Renesas/e2studio_2021_01_workspace_RZA2M_ANPR/ANPR_RZA2M_RDK/src/tensorflow_lite/src/third_party/gemmlowp/fixedpoint\fixedpoint.h **** 
 770:C:/Renesas/e2studio_2021_01_workspace_RZA2M_ANPR/ANPR_RZA2M_RDK/src/tensorflow_lite/src/third_party/gemmlowp/fixedpoint\fixedpoint.h ****   GEMMLOWP_EXP_BARREL_SHIFTER(-2, 1672461947);
 771:C:/Renesas/e2studio_2021_01_workspace_RZA2M_ANPR/ANPR_RZA2M_RDK/src/tensorflow_lite/src/third_party/gemmlowp/fixedpoint\fixedpoint.h ****   GEMMLOWP_EXP_BARREL_SHIFTER(-1, 1302514674);
 772:C:/Renesas/e2studio_2021_01_workspace_RZA2M_ANPR/ANPR_RZA2M_RDK/src/tensorflow_lite/src/third_party/gemmlowp/fixedpoint\fixedpoint.h ****   GEMMLOWP_EXP_BARREL_SHIFTER(+0, 790015084);
 773:C:/Renesas/e2studio_2021_01_workspace_RZA2M_ANPR/ANPR_RZA2M_RDK/src/tensorflow_lite/src/third_party/gemmlowp/fixedpoint\fixedpoint.h ****   GEMMLOWP_EXP_BARREL_SHIFTER(+1, 290630308);
 774:C:/Renesas/e2studio_2021_01_workspace_RZA2M_ANPR/ANPR_RZA2M_RDK/src/tensorflow_lite/src/third_party/gemmlowp/fixedpoint\fixedpoint.h ****   GEMMLOWP_EXP_BARREL_SHIFTER(+2, 39332535);
 775:C:/Renesas/e2studio_2021_01_workspace_RZA2M_ANPR/ANPR_RZA2M_RDK/src/tensorflow_lite/src/third_party/gemmlowp/fixedpoint\fixedpoint.h ****   GEMMLOWP_EXP_BARREL_SHIFTER(+3, 720401);
 776:C:/Renesas/e2studio_2021_01_workspace_RZA2M_ANPR/ANPR_RZA2M_RDK/src/tensorflow_lite/src/third_party/gemmlowp/fixedpoint\fixedpoint.h ****   GEMMLOWP_EXP_BARREL_SHIFTER(+4, 242);
 777:C:/Renesas/e2studio_2021_01_workspace_RZA2M_ANPR/ANPR_RZA2M_RDK/src/tensorflow_lite/src/third_party/gemmlowp/fixedpoint\fixedpoint.h **** 
 778:C:/Renesas/e2studio_2021_01_workspace_RZA2M_ANPR/ANPR_RZA2M_RDK/src/tensorflow_lite/src/third_party/gemmlowp/fixedpoint\fixedpoint.h **** #undef GEMMLOWP_EXP_BARREL_SHIFTER
 779:C:/Renesas/e2studio_2021_01_workspace_RZA2M_ANPR/ANPR_RZA2M_RDK/src/tensorflow_lite/src/third_party/gemmlowp/fixedpoint\fixedpoint.h **** 
 780:C:/Renesas/e2studio_2021_01_workspace_RZA2M_ANPR/ANPR_RZA2M_RDK/src/tensorflow_lite/src/third_party/gemmlowp/fixedpoint\fixedpoint.h ****   static constexpr int clampB = kIntegerBits > 5 ? 36 - kIntegerBits : 0;
 781:C:/Renesas/e2studio_2021_01_workspace_RZA2M_ANPR/ANPR_RZA2M_RDK/src/tensorflow_lite/src/third_party/gemmlowp/fixedpoint\fixedpoint.h ****   if (kIntegerBits > 5) {
 782:C:/Renesas/e2studio_2021_01_workspace_RZA2M_ANPR/ANPR_RZA2M_RDK/src/tensorflow_lite/src/third_party/gemmlowp/fixedpoint\fixedpoint.h ****     const InputF clamp =
 783:C:/Renesas/e2studio_2021_01_workspace_RZA2M_ANPR/ANPR_RZA2M_RDK/src/tensorflow_lite/src/third_party/gemmlowp/fixedpoint\fixedpoint.h ****         GEMMLOWP_CHECKED_FIXEDPOINT_CONSTANT(InputF, -(1 << clampB), -32.0);
 784:C:/Renesas/e2studio_2021_01_workspace_RZA2M_ANPR/ANPR_RZA2M_RDK/src/tensorflow_lite/src/third_party/gemmlowp/fixedpoint\fixedpoint.h ****     result = SelectUsingMask(MaskIfLessThan(a, clamp), ResultF::Zero(), result);
 785:C:/Renesas/e2studio_2021_01_workspace_RZA2M_ANPR/ANPR_RZA2M_RDK/src/tensorflow_lite/src/third_party/gemmlowp/fixedpoint\fixedpoint.h ****   }
 786:C:/Renesas/e2studio_2021_01_workspace_RZA2M_ANPR/ANPR_RZA2M_RDK/src/tensorflow_lite/src/third_party/gemmlowp/fixedpoint\fixedpoint.h **** 
 787:C:/Renesas/e2studio_2021_01_workspace_RZA2M_ANPR/ANPR_RZA2M_RDK/src/tensorflow_lite/src/third_party/gemmlowp/fixedpoint\fixedpoint.h ****   result = SelectUsingMask(MaskIfZero(a), ResultF::One(), result);
 788:C:/Renesas/e2studio_2021_01_workspace_RZA2M_ANPR/ANPR_RZA2M_RDK/src/tensorflow_lite/src/third_party/gemmlowp/fixedpoint\fixedpoint.h ****   return result;
 789:C:/Renesas/e2studio_2021_01_workspace_RZA2M_ANPR/ANPR_RZA2M_RDK/src/tensorflow_lite/src/third_party/gemmlowp/fixedpoint\fixedpoint.h **** }
 790:C:/Renesas/e2studio_2021_01_workspace_RZA2M_ANPR/ANPR_RZA2M_RDK/src/tensorflow_lite/src/third_party/gemmlowp/fixedpoint\fixedpoint.h **** 
 791:C:/Renesas/e2studio_2021_01_workspace_RZA2M_ANPR/ANPR_RZA2M_RDK/src/tensorflow_lite/src/third_party/gemmlowp/fixedpoint\fixedpoint.h **** // Implementation of tanh: (1 - exp(-2x)) / (1 + exp(-2x)).
 792:C:/Renesas/e2studio_2021_01_workspace_RZA2M_ANPR/ANPR_RZA2M_RDK/src/tensorflow_lite/src/third_party/gemmlowp/fixedpoint\fixedpoint.h **** 
 793:C:/Renesas/e2studio_2021_01_workspace_RZA2M_ANPR/ANPR_RZA2M_RDK/src/tensorflow_lite/src/third_party/gemmlowp/fixedpoint\fixedpoint.h **** // Returns (1 - x) / (1 + x) for x in (0, 1).
 794:C:/Renesas/e2studio_2021_01_workspace_RZA2M_ANPR/ANPR_RZA2M_RDK/src/tensorflow_lite/src/third_party/gemmlowp/fixedpoint\fixedpoint.h **** template <typename tRawType>
 795:C:/Renesas/e2studio_2021_01_workspace_RZA2M_ANPR/ANPR_RZA2M_RDK/src/tensorflow_lite/src/third_party/gemmlowp/fixedpoint\fixedpoint.h **** FixedPoint<tRawType, 0> one_minus_x_over_one_plus_x_for_x_in_0_1(
 456              		.loc 4 795 0
 457              		.cfi_startproc
 458              		@ args = 0, pretend = 0, frame = 0
 459              		@ frame_needed = 0, uses_anonymous_args = 0
 460              	.LVL50:
 461              	.LBB2322:
 462              	.LBB2323:
 463              	.LBB2324:
 240:C:/Renesas/e2studio_2021_01_workspace_RZA2M_ANPR/ANPR_RZA2M_RDK/src/tensorflow_lite/src/third_party/gemmlowp/fixedpoint\fixedpoint.h ****   return static_cast<std::int32_t>((sum + sign) / 2);
 464              		.loc 4 240 0
 465 0000 020150E3 		cmp	r0, #-2147483648
 466              	.LBE2324:
 467              	.LBE2323:
 468              	.LBE2322:
 469              		.loc 4 795 0
 470 0004 F0432DE9 		push	{r4, r5, r6, r7, r8, r9, lr}
 471              		.cfi_def_cfa_offset 28
 472              		.cfi_offset 4, -28
 473              		.cfi_offset 5, -24
 474              		.cfi_offset 6, -20
 475              		.cfi_offset 7, -16
 476              		.cfi_offset 8, -12
 477              		.cfi_offset 9, -8
 478              		.cfi_offset 14, -4
 479              	.LBB2335:
 480              	.LBB2330:
 481              	.LBB2325:
 240:C:/Renesas/e2studio_2021_01_workspace_RZA2M_ANPR/ANPR_RZA2M_RDK/src/tensorflow_lite/src/third_party/gemmlowp/fixedpoint\fixedpoint.h ****   return static_cast<std::int32_t>((sum + sign) / 2);
 482              		.loc 4 240 0
 483 0008 1D01000A 		beq	.L51
 484              	.LVL51:
 485 000c C01FA0E1 		asr	r1, r0, #31
 241:C:/Renesas/e2studio_2021_01_workspace_RZA2M_ANPR/ANPR_RZA2M_RDK/src/tensorflow_lite/src/third_party/gemmlowp/fixedpoint\fixedpoint.h **** }
 486              		.loc 4 241 0
 487 0010 020190E2 		adds	r0, r0, #-2147483648
 488              	.LVL52:
 489              	.LBE2325:
 490              	.LBE2330:
 491              	.LBE2335:
 492              	.LBB2336:
 493              	.LBB2337:
 494              	.LBB2338:
 495              	.LBB2339:
 334:C:/Renesas/e2studio_2021_01_workspace_RZA2M_ANPR/ANPR_RZA2M_RDK/src/tensorflow_lite/src/third_party/gemmlowp/fixedpoint\fixedpoint.h ****   std::int32_t nudge = ab_64 >= 0 ? (1 << 30) : (1 - (1 << 30));
 496              		.loc 4 334 0
 497 0014 C4330CE3 		movw	r3, #50116
 498              	.LBE2339:
 499              	.LBE2338:
 500              	.LBE2337:
 501              	.LBE2336:
 502              	.LBB2349:
 503              	.LBB2331:
 504              	.LBB2326:
 241:C:/Renesas/e2studio_2021_01_workspace_RZA2M_ANPR/ANPR_RZA2M_RDK/src/tensorflow_lite/src/third_party/gemmlowp/fixedpoint\fixedpoint.h **** }
 505              		.loc 4 241 0
 506 0018 0010A1E2 		adc	r1, r1, #0
 507              	.LBE2326:
 508              	.LBE2331:
 509              	.LBE2349:
 510              	.LBB2350:
 511              	.LBB2346:
 512              	.LBB2343:
 513              	.LBB2340:
 334:C:/Renesas/e2studio_2021_01_workspace_RZA2M_ANPR/ANPR_RZA2M_RDK/src/tensorflow_lite/src/third_party/gemmlowp/fixedpoint\fixedpoint.h ****   std::int32_t nudge = ab_64 >= 0 ? (1 << 30) : (1 - (1 << 30));
 514              		.loc 4 334 0
 515 001c C3334CE3 		movt	r3, 50115
 516              	.LBE2340:
 517              	.LBE2343:
 518              	.LBE2346:
 519              	.LBE2350:
 520              	.LBB2351:
 521              	.LBB2332:
 522              	.LBB2327:
 241:C:/Renesas/e2studio_2021_01_workspace_RZA2M_ANPR/ANPR_RZA2M_RDK/src/tensorflow_lite/src/third_party/gemmlowp/fixedpoint\fixedpoint.h **** }
 523              		.loc 4 241 0
 524 0020 C110B0E1 		movs	r1, r1, asr #1
 525 0024 6000A0E1 		mov	r0, r0, rrx
 526              	.LVL53:
 527              	.LBE2327:
 528              	.LBE2332:
 529              	.LBE2351:
 530              	.LBB2352:
 531              	.LBB2353:
 532              	.LBB2354:
  95:C:/Renesas/e2studio_2021_01_workspace_RZA2M_ANPR/ANPR_RZA2M_RDK/src/tensorflow_lite/src/third_party/gemmlowp/fixedpoint\fixedpoint.h **** }
 533              		.loc 4 95 0
 534 0028 5ACA05E3 		movw	ip, #23130
 535              	.LBE2354:
 536              	.LBE2353:
 537              	.LBE2352:
 538              	.LBB2363:
 539              	.LBB2347:
 540              	.LBB2344:
 541              	.LBB2341:
 334:C:/Renesas/e2studio_2021_01_workspace_RZA2M_ANPR/ANPR_RZA2M_RDK/src/tensorflow_lite/src/third_party/gemmlowp/fixedpoint\fixedpoint.h ****   std::int32_t nudge = ab_64 >= 0 ? (1 << 30) : (1 - (1 << 30));
 542              		.loc 4 334 0
 543 002c 002060E2 		rsb	r2, r0, #0
 544 0030 904385E0 		umull	r4, r5, r0, r3
 545              	.LBE2341:
 546              	.LBE2344:
 547              	.LBE2347:
 548              	.LBE2363:
 549              	.LBB2364:
 550              	.LBB2359:
 551              	.LBB2355:
  95:C:/Renesas/e2studio_2021_01_workspace_RZA2M_ANPR/ANPR_RZA2M_RDK/src/tensorflow_lite/src/third_party/gemmlowp/fixedpoint\fixedpoint.h **** }
 552              		.loc 4 95 0
 553 0034 5ACA45E3 		movt	ip, 23130
 554              	.LBE2355:
 555              	.LBE2359:
 556              	.LBE2364:
 557              	.LBB2365:
 558              	.LBB2348:
 559              	.LBB2345:
 560              	.LBB2342:
 334:C:/Renesas/e2studio_2021_01_workspace_RZA2M_ANPR/ANPR_RZA2M_RDK/src/tensorflow_lite/src/third_party/gemmlowp/fixedpoint\fixedpoint.h ****   std::int32_t nudge = ab_64 >= 0 ? (1 << 30) : (1 - (1 << 30));
 561              		.loc 4 334 0
 562 0038 932123E0 		mla	r3, r3, r1, r2
 563 003c 055083E0 		add	r5, r3, r5
 564              	.LVL54:
 335:C:/Renesas/e2studio_2021_01_workspace_RZA2M_ANPR/ANPR_RZA2M_RDK/src/tensorflow_lite/src/third_party/gemmlowp/fixedpoint\fixedpoint.h ****   std::int32_t ab_x2_high32 =
 565              		.loc 4 335 0
 566 0040 053094E1 		orrs	r3, r4, r5
 567 0044 0121A003 		moveq	r2, #1073741824
 568 0048 0721A013 		movne	r2, #-1073741823
 569 004c 0030A003 		moveq	r3, #0
 570 0050 0030E013 		mvnne	r3, #0
 571              	.LVL55:
 337:C:/Renesas/e2studio_2021_01_workspace_RZA2M_ANPR/ANPR_RZA2M_RDK/src/tensorflow_lite/src/third_party/gemmlowp/fixedpoint\fixedpoint.h ****   return overflow ? std::numeric_limits<std::int32_t>::max() : ab_x2_high32;
 572              		.loc 4 337 0
 573 0054 024094E0 		adds	r4, r4, r2
 574              	.LVL56:
 575 0058 0350A5E0 		adc	r5, r5, r3
 576 005c 0030A0E3 		mov	r3, #0
 577 0060 C52FA0E1 		asr	r2, r5, #31
 578 0064 0221C2E3 		bic	r2, r2, #-2147483648
 579 0068 042092E0 		adds	r2, r2, r4
 580 006c A22FA0E1 		lsr	r2, r2, #31
 581 0070 0530A3E0 		adc	r3, r3, r5
 582 0074 832082E1 		orr	r2, r2, r3, lsl #1
 583              	.LBE2342:
 584              	.LBE2345:
 585              	.LBE2348:
 586              	.LBE2365:
 587              	.LBB2366:
 588              	.LBB2360:
 589              	.LBB2356:
  95:C:/Renesas/e2studio_2021_01_workspace_RZA2M_ANPR/ANPR_RZA2M_RDK/src/tensorflow_lite/src/third_party/gemmlowp/fixedpoint\fixedpoint.h **** }
 590              		.loc 4 95 0
 591 0078 02C08CE0 		add	ip, ip, r2
 592              	.LVL57:
 593              	.LBE2356:
 594              	.LBE2360:
 595              	.LBE2366:
 596              	.LBB2367:
 597              	.LBB2368:
 598              	.LBB2369:
 599              	.LBB2370:
 600              	.LBB2371:
 601              	.LBB2372:
 333:C:/Renesas/e2studio_2021_01_workspace_RZA2M_ANPR/ANPR_RZA2M_RDK/src/tensorflow_lite/src/third_party/gemmlowp/fixedpoint\fixedpoint.h ****   std::int64_t ab_64 = a_64 * b_64;
 602              		.loc 4 333 0
 603 007c CC5FA0E1 		asr	r5, ip, #31
 334:C:/Renesas/e2studio_2021_01_workspace_RZA2M_ANPR/ANPR_RZA2M_RDK/src/tensorflow_lite/src/third_party/gemmlowp/fixedpoint\fixedpoint.h ****   std::int32_t nudge = ab_64 >= 0 ? (1 << 30) : (1 - (1 << 30));
 604              		.loc 4 334 0
 605 0080 902C83E0 		umull	r2, r3, r0, ip
 333:C:/Renesas/e2studio_2021_01_workspace_RZA2M_ANPR/ANPR_RZA2M_RDK/src/tensorflow_lite/src/third_party/gemmlowp/fixedpoint\fixedpoint.h ****   std::int64_t ab_64 = a_64 * b_64;
 606              		.loc 4 333 0
 607 0084 0C40A0E1 		mov	r4, ip
 608              	.LVL58:
 334:C:/Renesas/e2studio_2021_01_workspace_RZA2M_ANPR/ANPR_RZA2M_RDK/src/tensorflow_lite/src/third_party/gemmlowp/fixedpoint\fixedpoint.h ****   std::int32_t nudge = ab_64 >= 0 ? (1 << 30) : (1 - (1 << 30));
 609              		.loc 4 334 0
 610 0088 90050EE0 		mul	lr, r0, r5
 335:C:/Renesas/e2studio_2021_01_workspace_RZA2M_ANPR/ANPR_RZA2M_RDK/src/tensorflow_lite/src/third_party/gemmlowp/fixedpoint\fixedpoint.h ****   std::int32_t ab_x2_high32 =
 611              		.loc 4 335 0
 612 008c 000052E3 		cmp	r2, #0
 334:C:/Renesas/e2studio_2021_01_workspace_RZA2M_ANPR/ANPR_RZA2M_RDK/src/tensorflow_lite/src/third_party/gemmlowp/fixedpoint\fixedpoint.h ****   std::int32_t nudge = ab_64 >= 0 ? (1 << 30) : (1 - (1 << 30));
 613              		.loc 4 334 0
 614 0090 9CE12EE0 		mla	lr, ip, r1, lr
 615 0094 03308EE0 		add	r3, lr, r3
 616              	.LVL59:
 335:C:/Renesas/e2studio_2021_01_workspace_RZA2M_ANPR/ANPR_RZA2M_RDK/src/tensorflow_lite/src/third_party/gemmlowp/fixedpoint\fixedpoint.h ****   std::int32_t ab_x2_high32 =
 617              		.loc 4 335 0
 618 0098 00E0D3E2 		sbcs	lr, r3, #0
 619 009c 0161A0A3 		movge	r6, #1073741824
 620 00a0 0070A0A3 		movge	r7, #0
 621 00a4 FF0000BA 		blt	.L30
 622              	.LVL60:
 623              	.L32:
 337:C:/Renesas/e2studio_2021_01_workspace_RZA2M_ANPR/ANPR_RZA2M_RDK/src/tensorflow_lite/src/third_party/gemmlowp/fixedpoint\fixedpoint.h ****   return overflow ? std::numeric_limits<std::int32_t>::max() : ab_x2_high32;
 624              		.loc 4 337 0
 625 00a8 026096E0 		adds	r6, r6, r2
 626              	.LVL61:
 627 00ac 0370A7E0 		adc	r7, r7, r3
 628 00b0 0030A0E3 		mov	r3, #0
 629 00b4 C72FA0E1 		asr	r2, r7, #31
 630 00b8 0221C2E3 		bic	r2, r2, #-2147483648
 631 00bc 062092E0 		adds	r2, r2, r6
 632 00c0 A22FA0E1 		lsr	r2, r2, #31
 633 00c4 0730A3E0 		adc	r3, r3, r7
 634 00c8 832082E1 		orr	r2, r2, r3, lsl #1
 635              	.LBE2372:
 636              	.LBE2371:
 637              	.LBE2370:
 638              	.LBE2369:
 639              	.LBB2388:
 640              	.LBB2389:
 641              	.LBB2390:
 106:C:/Renesas/e2studio_2021_01_workspace_RZA2M_ANPR/ANPR_RZA2M_RDK/src/tensorflow_lite/src/third_party/gemmlowp/fixedpoint\fixedpoint.h **** }
 642              		.loc 4 106 0
 643 00cc 022262E2 		rsb	r2, r2, #536870912
 644              	.LBE2390:
 645              	.LBE2389:
 646              	.LBE2388:
 647              	.LBB2395:
 648              	.LBB2396:
 649              	.LBB2397:
 650              	.LBB2398:
 334:C:/Renesas/e2studio_2021_01_workspace_RZA2M_ANPR/ANPR_RZA2M_RDK/src/tensorflow_lite/src/third_party/gemmlowp/fixedpoint\fixedpoint.h ****   std::int32_t nudge = ab_64 >= 0 ? (1 << 30) : (1 - (1 << 30));
 651              		.loc 4 334 0
 652 00d0 92050EE0 		mul	lr, r2, r5
 333:C:/Renesas/e2studio_2021_01_workspace_RZA2M_ANPR/ANPR_RZA2M_RDK/src/tensorflow_lite/src/third_party/gemmlowp/fixedpoint\fixedpoint.h ****   std::int64_t ab_64 = a_64 * b_64;
 653              		.loc 4 333 0
 654 00d4 C27FA0E1 		asr	r7, r2, #31
 655 00d8 0260A0E1 		mov	r6, r2
 334:C:/Renesas/e2studio_2021_01_workspace_RZA2M_ANPR/ANPR_RZA2M_RDK/src/tensorflow_lite/src/third_party/gemmlowp/fixedpoint\fixedpoint.h ****   std::int32_t nudge = ab_64 >= 0 ? (1 << 30) : (1 - (1 << 30));
 656              		.loc 4 334 0
 657 00dc 922483E0 		umull	r2, r3, r2, r4
 658              	.LBE2398:
 659              	.LBE2397:
 660              	.LBE2396:
 661              	.LBE2395:
 662              	.LBB2414:
 663              	.LBB2415:
 664              	.LBB2416:
 665              	.LBB2417:
 666              	.LBB2418:
 667              	.LBB2419:
 668              	.LBB2420:
 131:C:/Renesas/e2studio_2021_01_workspace_RZA2M_ANPR/ANPR_RZA2M_RDK/src/tensorflow_lite/src/third_party/gemmlowp/fixedpoint\fixedpoint.h ****              : wide_shifted > max ? max
 669              		.loc 4 131 0
 670 00e0 0050E0E3 		mvn	r5, #0
 671              	.LBE2420:
 672              	.LBE2419:
 673              	.LBE2418:
 674              	.LBE2417:
 675              	.LBE2416:
 676              	.LBE2415:
 677              	.LBE2414:
 678              	.LBB2462:
 679              	.LBB2409:
 680              	.LBB2404:
 681              	.LBB2399:
 334:C:/Renesas/e2studio_2021_01_workspace_RZA2M_ANPR/ANPR_RZA2M_RDK/src/tensorflow_lite/src/third_party/gemmlowp/fixedpoint\fixedpoint.h ****   std::int32_t nudge = ab_64 >= 0 ? (1 << 30) : (1 - (1 << 30));
 682              		.loc 4 334 0
 683 00e4 94E724E0 		mla	r4, r4, r7, lr
 684              	.LVL62:
 335:C:/Renesas/e2studio_2021_01_workspace_RZA2M_ANPR/ANPR_RZA2M_RDK/src/tensorflow_lite/src/third_party/gemmlowp/fixedpoint\fixedpoint.h ****   std::int32_t ab_x2_high32 =
 685              		.loc 4 335 0
 686 00e8 000052E3 		cmp	r2, #0
 334:C:/Renesas/e2studio_2021_01_workspace_RZA2M_ANPR/ANPR_RZA2M_RDK/src/tensorflow_lite/src/third_party/gemmlowp/fixedpoint\fixedpoint.h ****   std::int32_t nudge = ab_64 >= 0 ? (1 << 30) : (1 - (1 << 30));
 687              		.loc 4 334 0
 688 00ec 033084E0 		add	r3, r4, r3
 689              	.LVL63:
 690              	.LBE2399:
 691              	.LBE2404:
 692              	.LBE2409:
 693              	.LBE2462:
 694              	.LBB2463:
 695              	.LBB2458:
 696              	.LBB2454:
 697              	.LBB2450:
 698              	.LBB2446:
 699              	.LBB2426:
 700              	.LBB2421:
 131:C:/Renesas/e2studio_2021_01_workspace_RZA2M_ANPR/ANPR_RZA2M_RDK/src/tensorflow_lite/src/third_party/gemmlowp/fixedpoint\fixedpoint.h ****              : wide_shifted > max ? max
 701              		.loc 4 131 0
 702 00f0 0241A0E3 		mov	r4, #-2147483648
 703              	.LBE2421:
 704              	.LBE2426:
 705              	.LBE2446:
 706              	.LBE2450:
 707              	.LBE2454:
 708              	.LBE2458:
 709              	.LBE2463:
 710              	.LBB2464:
 711              	.LBB2410:
 712              	.LBB2405:
 713              	.LBB2400:
 335:C:/Renesas/e2studio_2021_01_workspace_RZA2M_ANPR/ANPR_RZA2M_RDK/src/tensorflow_lite/src/third_party/gemmlowp/fixedpoint\fixedpoint.h ****   std::int32_t ab_x2_high32 =
 714              		.loc 4 335 0
 715 00f4 00E0D3E2 		sbcs	lr, r3, #0
 716 00f8 0161A0A3 		movge	r6, #1073741824
 717 00fc 0761A0B3 		movlt	r6, #-1073741823
 718 0100 0070A0A3 		movge	r7, #0
 719 0104 0070E0B3 		mvnlt	r7, #0
 720              	.LVL64:
 337:C:/Renesas/e2studio_2021_01_workspace_RZA2M_ANPR/ANPR_RZA2M_RDK/src/tensorflow_lite/src/third_party/gemmlowp/fixedpoint\fixedpoint.h ****   return overflow ? std::numeric_limits<std::int32_t>::max() : ab_x2_high32;
 721              		.loc 4 337 0
 722 0108 026096E0 		adds	r6, r6, r2
 723              	.LVL65:
 724 010c 0370A7E0 		adc	r7, r7, r3
 725 0110 0030A0E3 		mov	r3, #0
 726 0114 C72FA0E1 		asr	r2, r7, #31
 727              	.LVL66:
 728 0118 0221C2E3 		bic	r2, r2, #-2147483648
 729 011c 062092E0 		adds	r2, r2, r6
 730 0120 A22FA0E1 		lsr	r2, r2, #31
 731 0124 0730A3E0 		adc	r3, r3, r7
 732 0128 832082E1 		orr	r2, r2, r3, lsl #1
 733 012c C33FA0E1 		asr	r3, r3, #31
 734              	.LVL67:
 735              	.LBE2400:
 736              	.LBE2405:
 737              	.LBE2410:
 738              	.LBE2464:
 739              	.LBB2465:
 740              	.LBB2459:
 741              	.LBB2455:
 742              	.LBB2451:
 743              	.LBB2447:
 744              	.LBB2427:
 745              	.LBB2422:
 127:C:/Renesas/e2studio_2021_01_workspace_RZA2M_ANPR/ANPR_RZA2M_RDK/src/tensorflow_lite/src/third_party/gemmlowp/fixedpoint\fixedpoint.h ****   const auto min = std::numeric_limits<tIntegerType>::min();
 746              		.loc 4 127 0
 747 0130 0371A0E1 		lsl	r7, r3, #2
 748 0134 0261A0E1 		lsl	r6, r2, #2
 749 0138 227F87E1 		orr	r7, r7, r2, lsr #30
 750              	.LBE2422:
 751              	.LBE2427:
 752              	.LBB2428:
 753              	.LBB2429:
 754              	.LBB2430:
 158:C:/Renesas/e2studio_2021_01_workspace_RZA2M_ANPR/ANPR_RZA2M_RDK/src/tensorflow_lite/src/third_party/gemmlowp/fixedpoint\fixedpoint.h **** }
 755              		.loc 4 158 0
 756 013c 1E0252E3 		cmp	r2, #-536870911
 757 0140 0020A0A3 		movge	r2, #0
 758 0144 0120A0B3 		movlt	r2, #1
 759              	.LBE2430:
 760              	.LBE2429:
 761              	.LBE2428:
 762              	.LBB2435:
 763              	.LBB2423:
 131:C:/Renesas/e2studio_2021_01_workspace_RZA2M_ANPR/ANPR_RZA2M_RDK/src/tensorflow_lite/src/third_party/gemmlowp/fixedpoint\fixedpoint.h ****              : wide_shifted > max ? max
 764              		.loc 4 131 0
 765 0148 040056E1 		cmp	r6, r4
 766 014c 0530D7E0 		sbcs	r3, r7, r5
 767              	.LBE2423:
 768              	.LBE2435:
 769              	.LBB2436:
 770              	.LBB2433:
 771              	.LBB2431:
 158:C:/Renesas/e2studio_2021_01_workspace_RZA2M_ANPR/ANPR_RZA2M_RDK/src/tensorflow_lite/src/third_party/gemmlowp/fixedpoint\fixedpoint.h **** }
 772              		.loc 4 158 0
 773 0150 003062E2 		rsb	r3, r2, #0
 774 0154 012042E2 		sub	r2, r2, #1
 775              	.LVL68:
 776 0158 02E103E2 		and	lr, r3, #-2147483648
 777 015c 032022B0 		eorlt	r2, r2, r3
 778 0160 062002A0 		andge	r2, r2, r6
 779 0164 022102B2 		andlt	r2, r2, #-2147483648
 780 0168 0E2022A0 		eorge	r2, r2, lr
 781              	.LBE2431:
 782              	.LBE2433:
 783              	.LBE2436:
 784              	.LBE2447:
 785              	.LBE2451:
 786              	.LBE2455:
 787              	.LBE2459:
 788              	.LBE2465:
 789              	.LBB2466:
 790              	.LBB2467:
 791              	.LBB2468:
  95:C:/Renesas/e2studio_2021_01_workspace_RZA2M_ANPR/ANPR_RZA2M_RDK/src/tensorflow_lite/src/third_party/gemmlowp/fixedpoint\fixedpoint.h **** }
 792              		.loc 4 95 0
 793 016c 02208CE0 		add	r2, ip, r2
 794              	.LVL69:
 795              	.LBE2468:
 796              	.LBE2467:
 797              	.LBE2466:
 798              	.LBB2473:
 799              	.LBB2383:
 800              	.LBB2378:
 801              	.LBB2373:
 334:C:/Renesas/e2studio_2021_01_workspace_RZA2M_ANPR/ANPR_RZA2M_RDK/src/tensorflow_lite/src/third_party/gemmlowp/fixedpoint\fixedpoint.h ****   std::int32_t nudge = ab_64 >= 0 ? (1 << 30) : (1 - (1 << 30));
 802              		.loc 4 334 0
 803 0170 920103E0 		mul	r3, r2, r1
 333:C:/Renesas/e2studio_2021_01_workspace_RZA2M_ANPR/ANPR_RZA2M_RDK/src/tensorflow_lite/src/third_party/gemmlowp/fixedpoint\fixedpoint.h ****   std::int64_t ab_64 = a_64 * b_64;
 804              		.loc 4 333 0
 805 0174 C27FA0E1 		asr	r7, r2, #31
 806 0178 0260A0E1 		mov	r6, r2
 334:C:/Renesas/e2studio_2021_01_workspace_RZA2M_ANPR/ANPR_RZA2M_RDK/src/tensorflow_lite/src/third_party/gemmlowp/fixedpoint\fixedpoint.h ****   std::int32_t nudge = ab_64 >= 0 ? (1 << 30) : (1 - (1 << 30));
 807              		.loc 4 334 0
 808 017c 924085E0 		umull	r4, r5, r2, r0
 809 0180 903723E0 		mla	r3, r0, r7, r3
 335:C:/Renesas/e2studio_2021_01_workspace_RZA2M_ANPR/ANPR_RZA2M_RDK/src/tensorflow_lite/src/third_party/gemmlowp/fixedpoint\fixedpoint.h ****   std::int32_t ab_x2_high32 =
 810              		.loc 4 335 0
 811 0184 000054E3 		cmp	r4, #0
 334:C:/Renesas/e2studio_2021_01_workspace_RZA2M_ANPR/ANPR_RZA2M_RDK/src/tensorflow_lite/src/third_party/gemmlowp/fixedpoint\fixedpoint.h ****   std::int32_t nudge = ab_64 >= 0 ? (1 << 30) : (1 - (1 << 30));
 812              		.loc 4 334 0
 813 0188 055083E0 		add	r5, r3, r5
 814              	.LVL70:
 335:C:/Renesas/e2studio_2021_01_workspace_RZA2M_ANPR/ANPR_RZA2M_RDK/src/tensorflow_lite/src/third_party/gemmlowp/fixedpoint\fixedpoint.h ****   std::int32_t ab_x2_high32 =
 815              		.loc 4 335 0
 816 018c 0030D5E2 		sbcs	r3, r5, #0
 817 0190 0161A0A3 		movge	r6, #1073741824
 818 0194 0761A0B3 		movlt	r6, #-1073741823
 819 0198 0070A0A3 		movge	r7, #0
 820 019c 0070E0B3 		mvnlt	r7, #0
 821              	.LVL71:
 337:C:/Renesas/e2studio_2021_01_workspace_RZA2M_ANPR/ANPR_RZA2M_RDK/src/tensorflow_lite/src/third_party/gemmlowp/fixedpoint\fixedpoint.h ****   return overflow ? std::numeric_limits<std::int32_t>::max() : ab_x2_high32;
 822              		.loc 4 337 0
 823 01a0 046096E0 		adds	r6, r6, r4
 824              	.LVL72:
 825 01a4 0570A7E0 		adc	r7, r7, r5
 826 01a8 0050A0E3 		mov	r5, #0
 827 01ac C74FA0E1 		asr	r4, r7, #31
 828 01b0 0241C4E3 		bic	r4, r4, #-2147483648
 829 01b4 064094E0 		adds	r4, r4, r6
 830 01b8 A44FA0E1 		lsr	r4, r4, #31
 831 01bc 0750A5E0 		adc	r5, r5, r7
 832 01c0 854084E1 		orr	r4, r4, r5, lsl #1
 833              	.LBE2373:
 834              	.LBE2378:
 835              	.LBE2383:
 836              	.LBE2473:
 837              	.LBB2474:
 838              	.LBB2393:
 839              	.LBB2391:
 106:C:/Renesas/e2studio_2021_01_workspace_RZA2M_ANPR/ANPR_RZA2M_RDK/src/tensorflow_lite/src/third_party/gemmlowp/fixedpoint\fixedpoint.h **** }
 840              		.loc 4 106 0
 841 01c4 024264E2 		rsb	r4, r4, #536870912
 842              	.LVL73:
 843              	.LBE2391:
 844              	.LBE2393:
 845              	.LBE2474:
 846              	.LBB2475:
 847              	.LBB2411:
 848              	.LBB2406:
 849              	.LBB2401:
 334:C:/Renesas/e2studio_2021_01_workspace_RZA2M_ANPR/ANPR_RZA2M_RDK/src/tensorflow_lite/src/third_party/gemmlowp/fixedpoint\fixedpoint.h ****   std::int32_t nudge = ab_64 >= 0 ? (1 << 30) : (1 - (1 << 30));
 850              		.loc 4 334 0
 851 01c8 9462C7E0 		smull	r6, r7, r4, r2
 331:C:/Renesas/e2studio_2021_01_workspace_RZA2M_ANPR/ANPR_RZA2M_RDK/src/tensorflow_lite/src/third_party/gemmlowp/fixedpoint\fixedpoint.h ****   std::int64_t a_64(a);
 852              		.loc 4 331 0
 853 01cc 020152E3 		cmp	r2, #-2147483648
 854 01d0 02005401 		cmpeq	r4, r2
 855 01d4 0140A003 		moveq	r4, #1
 856              	.LVL74:
 857 01d8 0040A013 		movne	r4, #0
 858              	.LVL75:
 335:C:/Renesas/e2studio_2021_01_workspace_RZA2M_ANPR/ANPR_RZA2M_RDK/src/tensorflow_lite/src/third_party/gemmlowp/fixedpoint\fixedpoint.h ****   std::int32_t ab_x2_high32 =
 859              		.loc 4 335 0
 860 01dc 000056E3 		cmp	r6, #0
 861 01e0 0030D7E2 		sbcs	r3, r7, #0
 862 01e4 0181A0A3 		movge	r8, #1073741824
 863 01e8 0090A0A3 		movge	r9, #0
 864 01ec 0781A0B3 		movlt	r8, #-1073741823
 865 01f0 0090E0B3 		mvnlt	r9, #0
 866              	.LVL76:
 338:C:/Renesas/e2studio_2021_01_workspace_RZA2M_ANPR/ANPR_RZA2M_RDK/src/tensorflow_lite/src/third_party/gemmlowp/fixedpoint\fixedpoint.h **** }
 867              		.loc 4 338 0
 868 01f4 000054E3 		cmp	r4, #0
 869 01f8 0231E013 		mvnne	r3, #-2147483648
 870 01fc 2000001A 		bne	.L38
 337:C:/Renesas/e2studio_2021_01_workspace_RZA2M_ANPR/ANPR_RZA2M_RDK/src/tensorflow_lite/src/third_party/gemmlowp/fixedpoint\fixedpoint.h ****   return overflow ? std::numeric_limits<std::int32_t>::max() : ab_x2_high32;
 871              		.loc 4 337 0
 872 0200 068098E0 		adds	r8, r8, r6
 873              	.LVL77:
 874 0204 0790A9E0 		adc	r9, r9, r7
 875 0208 0070A0E3 		mov	r7, #0
 876 020c C96FA0E1 		asr	r6, r9, #31
 877              	.LVL78:
 878 0210 0261C6E3 		bic	r6, r6, #-2147483648
 879 0214 086096E0 		adds	r6, r6, r8
 880 0218 A66FA0E1 		lsr	r6, r6, #31
 881 021c 0970A7E0 		adc	r7, r7, r9
 882 0220 876086E1 		orr	r6, r6, r7, lsl #1
 883              	.LVL79:
 884              	.LBE2401:
 885              	.LBE2406:
 886              	.LBE2411:
 887              	.LBE2475:
 888              	.LBB2476:
 889              	.LBB2460:
 890              	.LBB2456:
 891              	.LBB2452:
 892              	.LBB2448:
 893              	.LBB2437:
 894              	.LBB2438:
 895              	.LBB2439:
 158:C:/Renesas/e2studio_2021_01_workspace_RZA2M_ANPR/ANPR_RZA2M_RDK/src/tensorflow_lite/src/third_party/gemmlowp/fixedpoint\fixedpoint.h **** }
 896              		.loc 4 158 0
 897 0224 1E0276E3 		cmn	r6, #-536870911
 898 0228 8B0000DA 		ble	.L39
 899 022c 02C1E0E3 		mvn	ip, #-2147483648
 900              	.LVL80:
 901 0230 0430A0E1 		mov	r3, r4
 902 0234 0C50A0E1 		mov	r5, ip
 903 0238 00E0E0E3 		mvn	lr, #0
 904              	.L42:
 905              	.LVL81:
 906              	.LBE2439:
 907              	.LBE2438:
 908              	.LBE2437:
 909              	.LBB2442:
 910              	.LBB2424:
 127:C:/Renesas/e2studio_2021_01_workspace_RZA2M_ANPR/ANPR_RZA2M_RDK/src/tensorflow_lite/src/third_party/gemmlowp/fixedpoint\fixedpoint.h ****   const auto min = std::numeric_limits<tIntegerType>::min();
 911              		.loc 4 127 0
 912 023c 906B80EE 		vdup.32	d16, r6
 131:C:/Renesas/e2studio_2021_01_workspace_RZA2M_ANPR/ANPR_RZA2M_RDK/src/tensorflow_lite/src/third_party/gemmlowp/fixedpoint\fixedpoint.h ****              : wide_shifted > max ? max
 913              		.loc 4 131 0
 914 0240 0261A0E3 		mov	r6, #-2147483648
 915              	.LVL82:
 916 0244 0070E0E3 		mvn	r7, #0
 917              	.LVL83:
 127:C:/Renesas/e2studio_2021_01_workspace_RZA2M_ANPR/ANPR_RZA2M_RDK/src/tensorflow_lite/src/third_party/gemmlowp/fixedpoint\fixedpoint.h ****   const auto min = std::numeric_limits<tIntegerType>::min();
 918              		.loc 4 127 0
 919 0248 B000E0F2 		vshr.s64	d16, d16, #32
 920 024c B015C2F2 		vshl.u64	d17, d16, #2
 921 0250 318B59EC 		vmov	r8, r9, d17	@ int
 922              	.LVL84:
 131:C:/Renesas/e2studio_2021_01_workspace_RZA2M_ANPR/ANPR_RZA2M_RDK/src/tensorflow_lite/src/third_party/gemmlowp/fixedpoint\fixedpoint.h ****              : wide_shifted > max ? max
 923              		.loc 4 131 0
 924 0254 060058E1 		cmp	r8, r6
 925 0258 0760D9E0 		sbcs	r6, r9, r7
 926 025c 0E400CB0 		andlt	r4, ip, lr
 927 0260 043023B0 		eorlt	r3, r3, r4
 928 0264 060000BA 		blt	.L38
 132:C:/Renesas/e2studio_2021_01_workspace_RZA2M_ANPR/ANPR_RZA2M_RDK/src/tensorflow_lite/src/third_party/gemmlowp/fixedpoint\fixedpoint.h ****                                   : static_cast<tIntegerType>(wide_shifted);
 929              		.loc 4 132 0
 930 0268 020158E3 		cmp	r8, #-2147483648
 931 026c 00C0D9E2 		sbcs	ip, r9, #0
 932 0270 08C004B0 		andlt	ip, r4, r8
 933 0274 0241CEA3 		bicge	r4, lr, #-2147483648
 934 0278 05402CB0 		eorlt	r4, ip, r5
 935 027c 0E4004B0 		andlt	r4, r4, lr
 936 0280 043023E0 		eor	r3, r3, r4
 937              	.LVL85:
 938              	.L38:
 939              	.LBE2424:
 940              	.LBE2442:
 941              	.LBE2448:
 942              	.LBE2452:
 943              	.LBE2456:
 944              	.LBE2460:
 945              	.LBE2476:
 946              	.LBB2477:
 947              	.LBB2471:
 948              	.LBB2469:
  95:C:/Renesas/e2studio_2021_01_workspace_RZA2M_ANPR/ANPR_RZA2M_RDK/src/tensorflow_lite/src/third_party/gemmlowp/fixedpoint\fixedpoint.h **** }
 949              		.loc 4 95 0
 950 0284 023083E0 		add	r3, r3, r2
 951              	.LVL86:
 952              	.LBE2469:
 953              	.LBE2471:
 954              	.LBE2477:
 955              	.LBB2478:
 956              	.LBB2384:
 957              	.LBB2379:
 958              	.LBB2374:
 334:C:/Renesas/e2studio_2021_01_workspace_RZA2M_ANPR/ANPR_RZA2M_RDK/src/tensorflow_lite/src/third_party/gemmlowp/fixedpoint\fixedpoint.h ****   std::int32_t nudge = ab_64 >= 0 ? (1 << 30) : (1 - (1 << 30));
 959              		.loc 4 334 0
 960 0288 930102E0 		mul	r2, r3, r1
 961              	.LVL87:
 333:C:/Renesas/e2studio_2021_01_workspace_RZA2M_ANPR/ANPR_RZA2M_RDK/src/tensorflow_lite/src/third_party/gemmlowp/fixedpoint\fixedpoint.h ****   std::int64_t ab_64 = a_64 * b_64;
 962              		.loc 4 333 0
 963 028c C37FA0E1 		asr	r7, r3, #31
 964 0290 0360A0E1 		mov	r6, r3
 334:C:/Renesas/e2studio_2021_01_workspace_RZA2M_ANPR/ANPR_RZA2M_RDK/src/tensorflow_lite/src/third_party/gemmlowp/fixedpoint\fixedpoint.h ****   std::int32_t nudge = ab_64 >= 0 ? (1 << 30) : (1 - (1 << 30));
 965              		.loc 4 334 0
 966 0294 934085E0 		umull	r4, r5, r3, r0
 967 0298 902720E0 		mla	r0, r0, r7, r2
 968              	.LVL88:
 335:C:/Renesas/e2studio_2021_01_workspace_RZA2M_ANPR/ANPR_RZA2M_RDK/src/tensorflow_lite/src/third_party/gemmlowp/fixedpoint\fixedpoint.h ****   std::int32_t ab_x2_high32 =
 969              		.loc 4 335 0
 970 029c 000054E3 		cmp	r4, #0
 334:C:/Renesas/e2studio_2021_01_workspace_RZA2M_ANPR/ANPR_RZA2M_RDK/src/tensorflow_lite/src/third_party/gemmlowp/fixedpoint\fixedpoint.h ****   std::int32_t nudge = ab_64 >= 0 ? (1 << 30) : (1 - (1 << 30));
 971              		.loc 4 334 0
 972 02a0 055080E0 		add	r5, r0, r5
 973              	.LVL89:
 335:C:/Renesas/e2studio_2021_01_workspace_RZA2M_ANPR/ANPR_RZA2M_RDK/src/tensorflow_lite/src/third_party/gemmlowp/fixedpoint\fixedpoint.h ****   std::int32_t ab_x2_high32 =
 974              		.loc 4 335 0
 975 02a4 0020D5E2 		sbcs	r2, r5, #0
 976 02a8 0101A0A3 		movge	r0, #1073741824
 977 02ac 0701A0B3 		movlt	r0, #-1073741823
 978 02b0 0010A0A3 		movge	r1, #0
 979 02b4 0010E0B3 		mvnlt	r1, #0
 980              	.LVL90:
 337:C:/Renesas/e2studio_2021_01_workspace_RZA2M_ANPR/ANPR_RZA2M_RDK/src/tensorflow_lite/src/third_party/gemmlowp/fixedpoint\fixedpoint.h ****   return overflow ? std::numeric_limits<std::int32_t>::max() : ab_x2_high32;
 981              		.loc 4 337 0
 982 02b8 004094E0 		adds	r4, r4, r0
 983              	.LVL91:
 984 02bc 0150A5E0 		adc	r5, r5, r1
 985 02c0 0010A0E3 		mov	r1, #0
 986 02c4 C50FA0E1 		asr	r0, r5, #31
 987 02c8 0201C0E3 		bic	r0, r0, #-2147483648
 988 02cc 040090E0 		adds	r0, r0, r4
 989 02d0 A00FA0E1 		lsr	r0, r0, #31
 990 02d4 0510A1E0 		adc	r1, r1, r5
 991 02d8 810080E1 		orr	r0, r0, r1, lsl #1
 992 02dc C11FA0E1 		asr	r1, r1, #31
 993              	.LBE2374:
 994              	.LBE2379:
 995              	.LBE2384:
 996              	.LBE2478:
 997              	.LBB2479:
 998              	.LBB2394:
 999              	.LBB2392:
 106:C:/Renesas/e2studio_2021_01_workspace_RZA2M_ANPR/ANPR_RZA2M_RDK/src/tensorflow_lite/src/third_party/gemmlowp/fixedpoint\fixedpoint.h **** }
 1000              		.loc 4 106 0
 1001 02e0 020260E2 		rsb	r0, r0, #536870912
 1002              	.LVL92:
 1003              	.LBE2392:
 1004              	.LBE2394:
 1005              	.LBE2479:
 1006              	.LBB2480:
 1007              	.LBB2412:
 1008              	.LBB2407:
 1009              	.LBB2402:
 334:C:/Renesas/e2studio_2021_01_workspace_RZA2M_ANPR/ANPR_RZA2M_RDK/src/tensorflow_lite/src/third_party/gemmlowp/fixedpoint\fixedpoint.h ****   std::int32_t nudge = ab_64 >= 0 ? (1 << 30) : (1 - (1 << 30));
 1010              		.loc 4 334 0
 1011 02e4 9043C5E0 		smull	r4, r5, r0, r3
 331:C:/Renesas/e2studio_2021_01_workspace_RZA2M_ANPR/ANPR_RZA2M_RDK/src/tensorflow_lite/src/third_party/gemmlowp/fixedpoint\fixedpoint.h ****   std::int64_t a_64(a);
 1012              		.loc 4 331 0
 1013 02e8 030050E1 		cmp	r0, r3
 1014 02ec 02015303 		cmpeq	r3, #-2147483648
 1015 02f0 0100A003 		moveq	r0, #1
 1016              	.LVL93:
 1017 02f4 0000A013 		movne	r0, #0
 1018              	.LVL94:
 335:C:/Renesas/e2studio_2021_01_workspace_RZA2M_ANPR/ANPR_RZA2M_RDK/src/tensorflow_lite/src/third_party/gemmlowp/fixedpoint\fixedpoint.h ****   std::int32_t ab_x2_high32 =
 1019              		.loc 4 335 0
 1020 02f8 000054E3 		cmp	r4, #0
 1021 02fc 0020D5E2 		sbcs	r2, r5, #0
 1022 0300 0161A0A3 		movge	r6, #1073741824
 1023 0304 0070A0A3 		movge	r7, #0
 1024 0308 0761A0B3 		movlt	r6, #-1073741823
 1025 030c 0070E0B3 		mvnlt	r7, #0
 1026              	.LVL95:
 338:C:/Renesas/e2studio_2021_01_workspace_RZA2M_ANPR/ANPR_RZA2M_RDK/src/tensorflow_lite/src/third_party/gemmlowp/fixedpoint\fixedpoint.h **** }
 1027              		.loc 4 338 0
 1028 0310 000050E3 		cmp	r0, #0
 1029 0314 0201E013 		mvnne	r0, #-2147483648
 1030              	.LVL96:
 1031 0318 2300000A 		beq	.L65
 1032              	.LVL97:
 1033              	.L45:
 1034              	.LBE2402:
 1035              	.LBE2407:
 1036              	.LBE2412:
 1037              	.LBE2480:
 1038              	.LBB2481:
 1039              	.LBB2472:
 1040              	.LBB2470:
  95:C:/Renesas/e2studio_2021_01_workspace_RZA2M_ANPR/ANPR_RZA2M_RDK/src/tensorflow_lite/src/third_party/gemmlowp/fixedpoint\fixedpoint.h **** }
 1041              		.loc 4 95 0
 1042 031c 003083E0 		add	r3, r3, r0
 1043              	.LVL98:
 1044              	.LBE2470:
 1045              	.LBE2472:
 1046              	.LBE2481:
 1047              	.LBE2368:
 1048              	.LBE2367:
 1049              	.LBB2490:
 1050              	.LBB2491:
 1051              	.LBB2492:
 106:C:/Renesas/e2studio_2021_01_workspace_RZA2M_ANPR/ANPR_RZA2M_RDK/src/tensorflow_lite/src/third_party/gemmlowp/fixedpoint\fixedpoint.h **** }
 1052              		.loc 4 106 0
 1053 0320 0E3283E2 		add	r3, r3, #-536870912
 1054              	.LVL99:
 1055              	.LBE2492:
 1056              	.LBE2491:
 1057              	.LBE2490:
 1058              	.LBB2493:
 1059              	.LBB2494:
 1060              	.LBB2495:
 1061              	.LBB2496:
 1062              	.LBB2497:
 1063              	.LBB2498:
 1064              	.LBB2499:
 1065              	.LBB2500:
 158:C:/Renesas/e2studio_2021_01_workspace_RZA2M_ANPR/ANPR_RZA2M_RDK/src/tensorflow_lite/src/third_party/gemmlowp/fixedpoint\fixedpoint.h **** }
 1066              		.loc 4 158 0
 1067 0324 1E0273E3 		cmn	r3, #-536870911
 1068 0328 190000CA 		bgt	.L62
 1069              	.LVL100:
 1070              	.LBE2500:
 1071              	.LBE2499:
 1072              	.LBE2498:
 1073              	.LBB2503:
 1074              	.LBB2504:
 1075              	.LBB2505:
 1076 032c 1E0253E3 		cmp	r3, #-536870911
 1077 0330 02C1A0E3 		mov	ip, #-2147483648
 1078 0334 0010A0A3 		movge	r1, #0
 1079 0338 0110A0B3 		movlt	r1, #1
 1080 033c 000061E2 		rsb	r0, r1, #0
 1081 0340 00E0E0E3 		mvn	lr, #0
 1082 0344 011041E2 		sub	r1, r1, #1
 1083 0348 0C0000E0 		and	r0, r0, ip
 1084 034c 0060A0E3 		mov	r6, #0
 1085              	.LVL101:
 1086              	.L49:
 1087              	.LBE2505:
 1088              	.LBE2504:
 1089              	.LBE2503:
 1090              	.LBB2506:
 1091              	.LBB2507:
 127:C:/Renesas/e2studio_2021_01_workspace_RZA2M_ANPR/ANPR_RZA2M_RDK/src/tensorflow_lite/src/third_party/gemmlowp/fixedpoint\fixedpoint.h ****   const auto min = std::numeric_limits<tIntegerType>::min();
 1092              		.loc 4 127 0
 1093 0350 903B80EE 		vdup.32	d16, r3
 131:C:/Renesas/e2studio_2021_01_workspace_RZA2M_ANPR/ANPR_RZA2M_RDK/src/tensorflow_lite/src/third_party/gemmlowp/fixedpoint\fixedpoint.h ****              : wide_shifted > max ? max
 1094              		.loc 4 131 0
 1095 0354 0241A0E3 		mov	r4, #-2147483648
 1096 0358 0050E0E3 		mvn	r5, #0
 127:C:/Renesas/e2studio_2021_01_workspace_RZA2M_ANPR/ANPR_RZA2M_RDK/src/tensorflow_lite/src/third_party/gemmlowp/fixedpoint\fixedpoint.h ****   const auto min = std::numeric_limits<tIntegerType>::min();
 1097              		.loc 4 127 0
 1098 035c B000E0F2 		vshr.s64	d16, d16, #32
 1099 0360 B015C2F2 		vshl.u64	d17, d16, #2
 1100 0364 312B53EC 		vmov	r2, r3, d17	@ int
 1101              	.LVL102:
 131:C:/Renesas/e2studio_2021_01_workspace_RZA2M_ANPR/ANPR_RZA2M_RDK/src/tensorflow_lite/src/third_party/gemmlowp/fixedpoint\fixedpoint.h ****              : wide_shifted > max ? max
 1102              		.loc 4 131 0
 1103 0368 040052E1 		cmp	r2, r4
 1104 036c 0540D3E0 		sbcs	r4, r3, r5
 1105 0370 040000BA 		blt	.L50
 132:C:/Renesas/e2studio_2021_01_workspace_RZA2M_ANPR/ANPR_RZA2M_RDK/src/tensorflow_lite/src/third_party/gemmlowp/fixedpoint\fixedpoint.h ****                                   : static_cast<tIntegerType>(wide_shifted);
 1106              		.loc 4 132 0
 1107 0374 020152E3 		cmp	r2, #-2147483648
 1108 0378 00C0D3E2 		sbcs	ip, r3, #0
 1109 037c 0E2002B0 		andlt	r2, r2, lr
 1110              	.LVL103:
 1111 0380 02C1E0A3 		mvnge	ip, #-2147483648
 1112 0384 06C022B0 		eorlt	ip, r2, r6
 1113              	.L50:
 1114              	.LVL104:
 1115              	.LBE2507:
 1116              	.LBE2506:
 1117              	.LBB2508:
 1118              	.LBB2509:
 1119              	.LBB2510:
  71:C:/Renesas/e2studio_2021_01_workspace_RZA2M_ANPR/ANPR_RZA2M_RDK/src/tensorflow_lite/src/third_party/gemmlowp/fixedpoint\fixedpoint.h **** }
 1120              		.loc 4 71 0
 1121 0388 0C1001E0 		and	r1, r1, ip
 1122              	.LVL105:
 1123              	.LBE2510:
 1124              	.LBE2509:
 1125              	.LBE2508:
 1126              	.LBE2497:
 1127              	.LBE2496:
 1128              	.LBE2495:
 1129              	.LBE2494:
 1130              	.LBE2493:
 796:C:/Renesas/e2studio_2021_01_workspace_RZA2M_ANPR/ANPR_RZA2M_RDK/src/tensorflow_lite/src/third_party/gemmlowp/fixedpoint\fixedpoint.h ****     FixedPoint<tRawType, 0> a) {
 797:C:/Renesas/e2studio_2021_01_workspace_RZA2M_ANPR/ANPR_RZA2M_RDK/src/tensorflow_lite/src/third_party/gemmlowp/fixedpoint\fixedpoint.h ****   typedef FixedPoint<tRawType, 0> F0;
 798:C:/Renesas/e2studio_2021_01_workspace_RZA2M_ANPR/ANPR_RZA2M_RDK/src/tensorflow_lite/src/third_party/gemmlowp/fixedpoint\fixedpoint.h ****   typedef FixedPoint<tRawType, 2> F2;
 799:C:/Renesas/e2studio_2021_01_workspace_RZA2M_ANPR/ANPR_RZA2M_RDK/src/tensorflow_lite/src/third_party/gemmlowp/fixedpoint\fixedpoint.h ****   F0 half_denominator = RoundingHalfSum(a, F0::One());
 800:C:/Renesas/e2studio_2021_01_workspace_RZA2M_ANPR/ANPR_RZA2M_RDK/src/tensorflow_lite/src/third_party/gemmlowp/fixedpoint\fixedpoint.h ****   // Newton-Raphson division
 801:C:/Renesas/e2studio_2021_01_workspace_RZA2M_ANPR/ANPR_RZA2M_RDK/src/tensorflow_lite/src/third_party/gemmlowp/fixedpoint\fixedpoint.h ****   // https://en.wikipedia.org/wiki/Division_algorithm#Newton.E2.80.93Raphson_division
 802:C:/Renesas/e2studio_2021_01_workspace_RZA2M_ANPR/ANPR_RZA2M_RDK/src/tensorflow_lite/src/third_party/gemmlowp/fixedpoint\fixedpoint.h ****   // Refer to that page for the logic behind the 48/17 and 32/17 constants.
 803:C:/Renesas/e2studio_2021_01_workspace_RZA2M_ANPR/ANPR_RZA2M_RDK/src/tensorflow_lite/src/third_party/gemmlowp/fixedpoint\fixedpoint.h ****   const F2 constant_48_over_17 =
 804:C:/Renesas/e2studio_2021_01_workspace_RZA2M_ANPR/ANPR_RZA2M_RDK/src/tensorflow_lite/src/third_party/gemmlowp/fixedpoint\fixedpoint.h ****       GEMMLOWP_CHECKED_FIXEDPOINT_CONSTANT(F2, 1515870810, 48.0 / 17.0);
 805:C:/Renesas/e2studio_2021_01_workspace_RZA2M_ANPR/ANPR_RZA2M_RDK/src/tensorflow_lite/src/third_party/gemmlowp/fixedpoint\fixedpoint.h ****   const F2 constant_neg_32_over_17 =
 806:C:/Renesas/e2studio_2021_01_workspace_RZA2M_ANPR/ANPR_RZA2M_RDK/src/tensorflow_lite/src/third_party/gemmlowp/fixedpoint\fixedpoint.h ****       GEMMLOWP_CHECKED_FIXEDPOINT_CONSTANT(F2, -1010580540, -32.0 / 17.0);
 807:C:/Renesas/e2studio_2021_01_workspace_RZA2M_ANPR/ANPR_RZA2M_RDK/src/tensorflow_lite/src/third_party/gemmlowp/fixedpoint\fixedpoint.h ****   F2 x = constant_48_over_17 + half_denominator * constant_neg_32_over_17;
 808:C:/Renesas/e2studio_2021_01_workspace_RZA2M_ANPR/ANPR_RZA2M_RDK/src/tensorflow_lite/src/third_party/gemmlowp/fixedpoint\fixedpoint.h ****   for (int i = 0; i < 3; i++) {
 809:C:/Renesas/e2studio_2021_01_workspace_RZA2M_ANPR/ANPR_RZA2M_RDK/src/tensorflow_lite/src/third_party/gemmlowp/fixedpoint\fixedpoint.h ****     F2 half_denominator_times_x = half_denominator * x;
 810:C:/Renesas/e2studio_2021_01_workspace_RZA2M_ANPR/ANPR_RZA2M_RDK/src/tensorflow_lite/src/third_party/gemmlowp/fixedpoint\fixedpoint.h ****     F2 one_minus_half_denominator_times_x =
 811:C:/Renesas/e2studio_2021_01_workspace_RZA2M_ANPR/ANPR_RZA2M_RDK/src/tensorflow_lite/src/third_party/gemmlowp/fixedpoint\fixedpoint.h ****         F2::One() - half_denominator_times_x;
 812:C:/Renesas/e2studio_2021_01_workspace_RZA2M_ANPR/ANPR_RZA2M_RDK/src/tensorflow_lite/src/third_party/gemmlowp/fixedpoint\fixedpoint.h ****     x = x + Rescale<2>(x * one_minus_half_denominator_times_x);
 813:C:/Renesas/e2studio_2021_01_workspace_RZA2M_ANPR/ANPR_RZA2M_RDK/src/tensorflow_lite/src/third_party/gemmlowp/fixedpoint\fixedpoint.h ****   }
 814:C:/Renesas/e2studio_2021_01_workspace_RZA2M_ANPR/ANPR_RZA2M_RDK/src/tensorflow_lite/src/third_party/gemmlowp/fixedpoint\fixedpoint.h ****   return Rescale<0>(x - F2::One());
 815:C:/Renesas/e2studio_2021_01_workspace_RZA2M_ANPR/ANPR_RZA2M_RDK/src/tensorflow_lite/src/third_party/gemmlowp/fixedpoint\fixedpoint.h **** }
 1131              		.loc 4 815 0
 1132 038c 010020E0 		eor	r0, r0, r1
 1133              	.LVL106:
 1134 0390 F083BDE8 		pop	{r4, r5, r6, r7, r8, r9, pc}
 1135              	.LVL107:
 1136              	.L62:
 1137              	.LBB2516:
 1138              	.LBB2515:
 1139              	.LBB2514:
 1140              	.LBB2513:
 1141              	.LBB2512:
 1142              	.LBB2511:
 1143              	.LBB2502:
 1144              	.LBB2501:
 158:C:/Renesas/e2studio_2021_01_workspace_RZA2M_ANPR/ANPR_RZA2M_RDK/src/tensorflow_lite/src/third_party/gemmlowp/fixedpoint\fixedpoint.h **** }
 1145              		.loc 4 158 0
 1146 0394 02C1E0E3 		mvn	ip, #-2147483648
 1147 0398 0000A0E3 		mov	r0, #0
 1148 039c 0C60A0E1 		mov	r6, ip
 1149 03a0 00E0A0E1 		mov	lr, r0
 1150 03a4 0010E0E3 		mvn	r1, #0
 1151 03a8 E8FFFFEA 		b	.L49
 1152              	.LVL108:
 1153              	.L65:
 1154              	.LBE2501:
 1155              	.LBE2502:
 1156              	.LBE2511:
 1157              	.LBE2512:
 1158              	.LBE2513:
 1159              	.LBE2514:
 1160              	.LBE2515:
 1161              	.LBE2516:
 1162              	.LBB2517:
 1163              	.LBB2487:
 1164              	.LBB2482:
 1165              	.LBB2413:
 1166              	.LBB2408:
 1167              	.LBB2403:
 337:C:/Renesas/e2studio_2021_01_workspace_RZA2M_ANPR/ANPR_RZA2M_RDK/src/tensorflow_lite/src/third_party/gemmlowp/fixedpoint\fixedpoint.h ****   return overflow ? std::numeric_limits<std::int32_t>::max() : ab_x2_high32;
 1168              		.loc 4 337 0
 1169 03ac 046096E0 		adds	r6, r6, r4
 1170              	.LVL109:
 1171 03b0 0570A7E0 		adc	r7, r7, r5
 1172 03b4 0050A0E3 		mov	r5, #0
 1173 03b8 C74FA0E1 		asr	r4, r7, #31
 1174              	.LVL110:
 1175 03bc 0241C4E3 		bic	r4, r4, #-2147483648
 1176 03c0 064094E0 		adds	r4, r4, r6
 1177 03c4 A44FA0E1 		lsr	r4, r4, #31
 1178 03c8 0750A5E0 		adc	r5, r5, r7
 1179 03cc 854084E1 		orr	r4, r4, r5, lsl #1
 1180              	.LVL111:
 1181              	.LBE2403:
 1182              	.LBE2408:
 1183              	.LBE2413:
 1184              	.LBE2482:
 1185              	.LBB2483:
 1186              	.LBB2461:
 1187              	.LBB2457:
 1188              	.LBB2453:
 1189              	.LBB2449:
 1190              	.LBB2443:
 1191              	.LBB2441:
 1192              	.LBB2440:
 158:C:/Renesas/e2studio_2021_01_workspace_RZA2M_ANPR/ANPR_RZA2M_RDK/src/tensorflow_lite/src/third_party/gemmlowp/fixedpoint\fixedpoint.h **** }
 1193              		.loc 4 158 0
 1194 03d0 1E0274E3 		cmn	r4, #-536870911
 1195 03d4 160000DA 		ble	.L66
 1196 03d8 0221E0E3 		mvn	r2, #-2147483648
 1197 03dc 0010A0E1 		mov	r1, r0
 1198 03e0 02E0A0E1 		mov	lr, r2
 1199 03e4 00C0E0E3 		mvn	ip, #0
 1200              	.L46:
 1201              	.LVL112:
 1202              	.LBE2440:
 1203              	.LBE2441:
 1204              	.LBE2443:
 1205              	.LBB2444:
 1206              	.LBB2425:
 127:C:/Renesas/e2studio_2021_01_workspace_RZA2M_ANPR/ANPR_RZA2M_RDK/src/tensorflow_lite/src/third_party/gemmlowp/fixedpoint\fixedpoint.h ****   const auto min = std::numeric_limits<tIntegerType>::min();
 1207              		.loc 4 127 0
 1208 03e8 904B80EE 		vdup.32	d16, r4
 131:C:/Renesas/e2studio_2021_01_workspace_RZA2M_ANPR/ANPR_RZA2M_RDK/src/tensorflow_lite/src/third_party/gemmlowp/fixedpoint\fixedpoint.h ****              : wide_shifted > max ? max
 1209              		.loc 4 131 0
 1210 03ec 0261A0E3 		mov	r6, #-2147483648
 1211 03f0 0070E0E3 		mvn	r7, #0
 127:C:/Renesas/e2studio_2021_01_workspace_RZA2M_ANPR/ANPR_RZA2M_RDK/src/tensorflow_lite/src/third_party/gemmlowp/fixedpoint\fixedpoint.h ****   const auto min = std::numeric_limits<tIntegerType>::min();
 1212              		.loc 4 127 0
 1213 03f4 B000E0F2 		vshr.s64	d16, d16, #32
 1214 03f8 B015C2F2 		vshl.u64	d17, d16, #2
 1215 03fc 314B55EC 		vmov	r4, r5, d17	@ int
 1216              	.LVL113:
 131:C:/Renesas/e2studio_2021_01_workspace_RZA2M_ANPR/ANPR_RZA2M_RDK/src/tensorflow_lite/src/third_party/gemmlowp/fixedpoint\fixedpoint.h ****              : wide_shifted > max ? max
 1217              		.loc 4 131 0
 1218 0400 060054E1 		cmp	r4, r6
 1219 0404 0760D5E0 		sbcs	r6, r5, r7
 1220 0408 02000CB0 		andlt	r0, ip, r2
 1221 040c 010020B0 		eorlt	r0, r0, r1
 1222 0410 C1FFFFBA 		blt	.L45
 132:C:/Renesas/e2studio_2021_01_workspace_RZA2M_ANPR/ANPR_RZA2M_RDK/src/tensorflow_lite/src/third_party/gemmlowp/fixedpoint\fixedpoint.h ****                                   : static_cast<tIntegerType>(wide_shifted);
 1223              		.loc 4 132 0
 1224 0414 020154E3 		cmp	r4, #-2147483648
 1225 0418 0020D5E2 		sbcs	r2, r5, #0
 1226 041c 042000B0 		andlt	r2, r0, r4
 1227 0420 0201CCA3 		bicge	r0, ip, #-2147483648
 1228 0424 0E0022B0 		eorlt	r0, r2, lr
 1229 0428 0C0000B0 		andlt	r0, r0, ip
 1230 042c 010020E0 		eor	r0, r0, r1
 1231 0430 B9FFFFEA 		b	.L45
 1232              	.LVL114:
 1233              	.L66:
 1234              	.LBE2425:
 1235              	.LBE2444:
 1236              	.LBB2445:
 1237              	.LBB2434:
 1238              	.LBB2432:
 158:C:/Renesas/e2studio_2021_01_workspace_RZA2M_ANPR/ANPR_RZA2M_RDK/src/tensorflow_lite/src/third_party/gemmlowp/fixedpoint\fixedpoint.h **** }
 1239              		.loc 4 158 0
 1240 0434 1E0254E3 		cmp	r4, #-536870911
 1241 0438 00E0A0E1 		mov	lr, r0
 1242 043c 0020A0A3 		movge	r2, #0
 1243 0440 0120A0B3 		movlt	r2, #1
 1244 0444 000062E2 		rsb	r0, r2, #0
 1245 0448 01C042E2 		sub	ip, r2, #1
 1246 044c 021100E2 		and	r1, r0, #-2147483648
 1247 0450 0221A0E3 		mov	r2, #-2147483648
 1248 0454 0000E0E3 		mvn	r0, #0
 1249 0458 E2FFFFEA 		b	.L46
 1250              	.LVL115:
 1251              	.L39:
 1252 045c 1E0256E3 		cmp	r6, #-536870911
 1253 0460 0450A0E1 		mov	r5, r4
 1254 0464 00E0A0A3 		movge	lr, #0
 1255 0468 01E0A0B3 		movlt	lr, #1
 1256 046c 00306EE2 		rsb	r3, lr, #0
 1257 0470 02C1A0E3 		mov	ip, #-2147483648
 1258              	.LVL116:
 1259 0474 01E04EE2 		sub	lr, lr, #1
 1260 0478 023103E2 		and	r3, r3, #-2147483648
 1261 047c 0040E0E3 		mvn	r4, #0
 1262 0480 6DFFFFEA 		b	.L42
 1263              	.LVL117:
 1264              	.L51:
 1265              	.LBE2432:
 1266              	.LBE2434:
 1267              	.LBE2445:
 1268              	.LBE2449:
 1269              	.LBE2453:
 1270              	.LBE2457:
 1271              	.LBE2461:
 1272              	.LBE2483:
 1273              	.LBB2484:
 1274              	.LBB2385:
 1275              	.LBB2380:
 1276              	.LBB2375:
 334:C:/Renesas/e2studio_2021_01_workspace_RZA2M_ANPR/ANPR_RZA2M_RDK/src/tensorflow_lite/src/third_party/gemmlowp/fixedpoint\fixedpoint.h ****   std::int32_t nudge = ab_64 >= 0 ? (1 << 30) : (1 - (1 << 30));
 1277              		.loc 4 334 0
 1278 0484 2C308FE2 		adr	r3, .L67
 1279 0488 D020C3E1 		ldrd	r2, [r3]
 1280              	.LBE2375:
 1281              	.LBE2380:
 1282              	.LBE2385:
 1283              	.LBE2484:
 1284              	.LBE2487:
 1285              	.LBE2517:
 1286              	.LBB2518:
 1287              	.LBB2361:
 1288              	.LBB2357:
  95:C:/Renesas/e2studio_2021_01_workspace_RZA2M_ANPR/ANPR_RZA2M_RDK/src/tensorflow_lite/src/third_party/gemmlowp/fixedpoint\fixedpoint.h **** }
 1289              		.loc 4 95 0
 1290 048c 5ACA05E3 		movw	ip, #23130
 1291              	.LBE2357:
 1292              	.LBE2361:
 1293              	.LBE2518:
 1294              	.LBB2519:
 1295              	.LBB2488:
 1296              	.LBB2485:
 1297              	.LBB2386:
 1298              	.LBB2381:
 1299              	.LBB2376:
 333:C:/Renesas/e2studio_2021_01_workspace_RZA2M_ANPR/ANPR_RZA2M_RDK/src/tensorflow_lite/src/third_party/gemmlowp/fixedpoint\fixedpoint.h ****   std::int64_t ab_64 = a_64 * b_64;
 1300              		.loc 4 333 0
 1301 0490 5A4A05E3 		movw	r4, #23130
 1302              	.LBE2376:
 1303              	.LBE2381:
 1304              	.LBE2386:
 1305              	.LBE2485:
 1306              	.LBE2488:
 1307              	.LBE2519:
 1308              	.LBB2520:
 1309              	.LBB2333:
 1310              	.LBB2328:
 241:C:/Renesas/e2studio_2021_01_workspace_RZA2M_ANPR/ANPR_RZA2M_RDK/src/tensorflow_lite/src/third_party/gemmlowp/fixedpoint\fixedpoint.h **** }
 1311              		.loc 4 241 0
 1312 0494 0000E0E3 		mvn	r0, #0
 1313              	.LVL118:
 1314 0498 0010E0E3 		mvn	r1, #0
 1315              	.LBE2328:
 1316              	.LBE2333:
 1317              	.LBE2520:
 1318              	.LBB2521:
 1319              	.LBB2362:
 1320              	.LBB2358:
  95:C:/Renesas/e2studio_2021_01_workspace_RZA2M_ANPR/ANPR_RZA2M_RDK/src/tensorflow_lite/src/third_party/gemmlowp/fixedpoint\fixedpoint.h **** }
 1321              		.loc 4 95 0
 1322 049c 5ACA45E3 		movt	ip, 23130
 1323              	.LBE2358:
 1324              	.LBE2362:
 1325              	.LBE2521:
 1326              	.LBB2522:
 1327              	.LBB2489:
 1328              	.LBB2486:
 1329              	.LBB2387:
 1330              	.LBB2382:
 1331              	.LBB2377:
 333:C:/Renesas/e2studio_2021_01_workspace_RZA2M_ANPR/ANPR_RZA2M_RDK/src/tensorflow_lite/src/third_party/gemmlowp/fixedpoint\fixedpoint.h ****   std::int64_t ab_64 = a_64 * b_64;
 1332              		.loc 4 333 0
 1333 04a0 5A4A45E3 		movt	r4, 23130
 1334 04a4 0050A0E3 		mov	r5, #0
 1335              	.LVL119:
 1336              	.L30:
 1337              	.LBE2377:
 1338              	.LBE2382:
 1339              	.LBE2387:
 1340              	.LBE2486:
 1341              	.LBE2489:
 1342              	.LBE2522:
 1343              	.LBB2523:
 1344              	.LBB2334:
 1345              	.LBB2329:
 241:C:/Renesas/e2studio_2021_01_workspace_RZA2M_ANPR/ANPR_RZA2M_RDK/src/tensorflow_lite/src/third_party/gemmlowp/fixedpoint\fixedpoint.h **** }
 1346              		.loc 4 241 0
 1347 04a8 0761A0E3 		mov	r6, #-1073741823
 1348 04ac 0070E0E3 		mvn	r7, #0
 1349 04b0 FCFEFFEA 		b	.L32
 1350              	.L68:
 1351 04b4 00F020E3 		.align	3
 1352              	.L67:
 1353 04b8 A6A5A5A5 		.word	-1515870810
 1354 04bc FFFFFFFF 		.word	-1
 1355              	.LBE2329:
 1356              	.LBE2334:
 1357              	.LBE2523:
 1358              		.cfi_endproc
 1359              	.LFE4520:
 1360              		.cantunwind
 1361              		.fnend
 1363              		.section	.text._ZN8gemmlowp40one_minus_x_over_one_plus_x_for_x_in_0_1IsEENS_10FixedPointIT_Li0EEES
 1364              		.align	2
 1365              		.weak	_ZN8gemmlowp40one_minus_x_over_one_plus_x_for_x_in_0_1IsEENS_10FixedPointIT_Li0EEES3_
 1366              		.syntax unified
 1367              		.arm
 1368              		.fpu neon
 1370              	_ZN8gemmlowp40one_minus_x_over_one_plus_x_for_x_in_0_1IsEENS_10FixedPointIT_Li0EEES3_:
 1371              		.fnstart
 1372              	.LFB4528:
 795:C:/Renesas/e2studio_2021_01_workspace_RZA2M_ANPR/ANPR_RZA2M_RDK/src/tensorflow_lite/src/third_party/gemmlowp/fixedpoint\fixedpoint.h ****     FixedPoint<tRawType, 0> a) {
 1373              		.loc 4 795 0
 1374              		.cfi_startproc
 1375              		@ args = 0, pretend = 0, frame = 0
 1376              		@ frame_needed = 0, uses_anonymous_args = 0
 1377              	.LVL120:
 1378              	.LBB2663:
 1379              	.LBB2664:
 1380              	.LBB2665:
 246:C:/Renesas/e2studio_2021_01_workspace_RZA2M_ANPR/ANPR_RZA2M_RDK/src/tensorflow_lite/src/third_party/gemmlowp/fixedpoint\fixedpoint.h ****   std::int32_t b32 = b;
 1381              		.loc 4 246 0
 1382 0000 7000BFE6 		sxth	r0, r0
 1383              	.LVL121:
 1384              	.LBE2665:
 1385              	.LBE2664:
 1386              	.LBE2663:
 795:C:/Renesas/e2studio_2021_01_workspace_RZA2M_ANPR/ANPR_RZA2M_RDK/src/tensorflow_lite/src/third_party/gemmlowp/fixedpoint\fixedpoint.h ****     FixedPoint<tRawType, 0> a) {
 1387              		.loc 4 795 0
 1388 0004 F0432DE9 		push	{r4, r5, r6, r7, r8, r9, lr}
 1389              		.cfi_def_cfa_offset 28
 1390              		.cfi_offset 4, -28
 1391              		.cfi_offset 5, -24
 1392              		.cfi_offset 6, -20
 1393              		.cfi_offset 7, -16
 1394              		.cfi_offset 8, -12
 1395              		.cfi_offset 9, -8
 1396              		.cfi_offset 14, -4
 1397              	.LBB2672:
 1398              	.LBB2669:
 1399              	.LBB2666:
 249:C:/Renesas/e2studio_2021_01_workspace_RZA2M_ANPR/ANPR_RZA2M_RDK/src/tensorflow_lite/src/third_party/gemmlowp/fixedpoint\fixedpoint.h ****   return static_cast<std::int16_t>((sum + sign) / 2);
 1400              		.loc 4 249 0
 1401 0008 020970E3 		cmn	r0, #32768
 1402 000c F300000A 		beq	.L91
 1403              	.LVL122:
 250:C:/Renesas/e2studio_2021_01_workspace_RZA2M_ANPR/ANPR_RZA2M_RDK/src/tensorflow_lite/src/third_party/gemmlowp/fixedpoint\fixedpoint.h **** }
 1404              		.loc 4 250 0
 1405 0010 022980E2 		add	r2, r0, #32768
 1406              	.LBE2666:
 1407              	.LBE2669:
 1408              	.LBE2672:
 1409              	.LBB2673:
 1410              	.LBB2674:
 1411              	.LBB2675:
 1412              	.LBB2676:
 347:C:/Renesas/e2studio_2021_01_workspace_RZA2M_ANPR/ANPR_RZA2M_RDK/src/tensorflow_lite/src/third_party/gemmlowp/fixedpoint\fixedpoint.h ****   std::int16_t nudge = ab_32 >= 0 ? (1 << 14) : (1 - (1 << 14));
 1413              		.loc 4 347 0
 1414 0014 C4330CE3 		movw	r3, #50116
 1415              	.LBE2676:
 1416              	.LBE2675:
 1417              	.LBE2674:
 1418              	.LBE2673:
 1419              	.LBB2683:
 1420              	.LBB2670:
 1421              	.LBB2667:
 250:C:/Renesas/e2studio_2021_01_workspace_RZA2M_ANPR/ANPR_RZA2M_RDK/src/tensorflow_lite/src/third_party/gemmlowp/fixedpoint\fixedpoint.h **** }
 1422              		.loc 4 250 0
 1423 0018 C220A0E1 		asr	r2, r2, #1
 1424              	.LVL123:
 1425              	.LBE2667:
 1426              	.LBE2670:
 1427              	.LBE2683:
 1428              	.LBB2684:
 1429              	.LBB2681:
 1430              	.LBB2679:
 1431              	.LBB2677:
 347:C:/Renesas/e2studio_2021_01_workspace_RZA2M_ANPR/ANPR_RZA2M_RDK/src/tensorflow_lite/src/third_party/gemmlowp/fixedpoint\fixedpoint.h ****   std::int16_t nudge = ab_32 >= 0 ? (1 << 14) : (1 - (1 << 14));
 1432              		.loc 4 347 0
 1433 001c FF3F4FE3 		movt	r3, 65535
 348:C:/Renesas/e2studio_2021_01_workspace_RZA2M_ANPR/ANPR_RZA2M_RDK/src/tensorflow_lite/src/third_party/gemmlowp/fixedpoint\fixedpoint.h ****   std::int16_t ab_x2_high16 =
 1434              		.loc 4 348 0
 1435 0020 01100CE3 		movw	r1, #49153
 347:C:/Renesas/e2studio_2021_01_workspace_RZA2M_ANPR/ANPR_RZA2M_RDK/src/tensorflow_lite/src/third_party/gemmlowp/fixedpoint\fixedpoint.h ****   std::int16_t nudge = ab_32 >= 0 ? (1 << 14) : (1 - (1 << 14));
 1436              		.loc 4 347 0
 1437 0024 930203E0 		mul	r3, r3, r2
 1438              	.LVL124:
 348:C:/Renesas/e2studio_2021_01_workspace_RZA2M_ANPR/ANPR_RZA2M_RDK/src/tensorflow_lite/src/third_party/gemmlowp/fixedpoint\fixedpoint.h ****   std::int16_t ab_x2_high16 =
 1439              		.loc 4 348 0
 1440 0028 FF1F4FE3 		movt	r1, 65535
 1441              	.LBE2677:
 1442              	.LBE2679:
 1443              	.LBE2681:
 1444              	.LBE2684:
 1445              	.LBB2685:
 1446              	.LBB2686:
 1447              	.LBB2687:
  95:C:/Renesas/e2studio_2021_01_workspace_RZA2M_ANPR/ANPR_RZA2M_RDK/src/tensorflow_lite/src/third_party/gemmlowp/fixedpoint\fixedpoint.h **** }
 1448              		.loc 4 95 0
 1449 002c 5ACA05E3 		movw	ip, #23130
 1450              	.LBE2687:
 1451              	.LBE2686:
 1452              	.LBE2685:
 1453              	.LBB2692:
 1454              	.LBB2682:
 1455              	.LBB2680:
 1456              	.LBB2678:
 348:C:/Renesas/e2studio_2021_01_workspace_RZA2M_ANPR/ANPR_RZA2M_RDK/src/tensorflow_lite/src/third_party/gemmlowp/fixedpoint\fixedpoint.h ****   std::int16_t ab_x2_high16 =
 1457              		.loc 4 348 0
 1458 0030 000053E3 		cmp	r3, #0
 1459 0034 0119A003 		moveq	r1, #16384
 1460              	.LVL125:
 350:C:/Renesas/e2studio_2021_01_workspace_RZA2M_ANPR/ANPR_RZA2M_RDK/src/tensorflow_lite/src/third_party/gemmlowp/fixedpoint\fixedpoint.h ****   return overflow ? std::numeric_limits<std::int16_t>::max() : ab_x2_high16;
 1461              		.loc 4 350 0
 1462 0038 013083E0 		add	r3, r3, r1
 1463              	.LVL126:
 1464 003c 7F1C83E2 		add	r1, r3, #32512
 1465 0040 000053E3 		cmp	r3, #0
 1466 0044 FF1081E2 		add	r1, r1, #255
 1467 0048 0130A0B1 		movlt	r3, r1
 1468              	.LBE2678:
 1469              	.LBE2680:
 1470              	.LBE2682:
 1471              	.LBE2692:
 1472              	.LBB2693:
 1473              	.LBB2690:
 1474              	.LBB2688:
  95:C:/Renesas/e2studio_2021_01_workspace_RZA2M_ANPR/ANPR_RZA2M_RDK/src/tensorflow_lite/src/third_party/gemmlowp/fixedpoint\fixedpoint.h **** }
 1475              		.loc 4 95 0
 1476 004c C3378CE0 		add	r3, ip, r3, asr #15
 1477 0050 73C0FFE6 		uxth	ip, r3
 1478              	.LVL127:
 1479              	.LBE2688:
 1480              	.LBE2690:
 1481              	.LBE2693:
 1482              	.LBB2694:
 1483              	.LBB2695:
 1484              	.LBB2696:
 1485              	.LBB2697:
 1486              	.LBB2698:
 1487              	.LBB2699:
 347:C:/Renesas/e2studio_2021_01_workspace_RZA2M_ANPR/ANPR_RZA2M_RDK/src/tensorflow_lite/src/third_party/gemmlowp/fixedpoint\fixedpoint.h ****   std::int16_t nudge = ab_32 >= 0 ? (1 << 14) : (1 - (1 << 14));
 1488              		.loc 4 347 0
 1489 0054 9C0200E0 		mul	r0, ip, r2
 1490              	.LVL128:
 346:C:/Renesas/e2studio_2021_01_workspace_RZA2M_ANPR/ANPR_RZA2M_RDK/src/tensorflow_lite/src/third_party/gemmlowp/fixedpoint\fixedpoint.h ****   std::int32_t ab_32 = a_32 * b_32;
 1491              		.loc 4 346 0
 1492 0058 0C30A0E1 		mov	r3, ip
 1493              	.LVL129:
 348:C:/Renesas/e2studio_2021_01_workspace_RZA2M_ANPR/ANPR_RZA2M_RDK/src/tensorflow_lite/src/third_party/gemmlowp/fixedpoint\fixedpoint.h ****   std::int16_t ab_x2_high16 =
 1494              		.loc 4 348 0
 1495 005c 000050E3 		cmp	r0, #0
 1496 0060 0119A0A3 		movge	r1, #16384
 1497 0064 E20000BA 		blt	.L70
 1498              	.LVL130:
 1499              	.L72:
 350:C:/Renesas/e2studio_2021_01_workspace_RZA2M_ANPR/ANPR_RZA2M_RDK/src/tensorflow_lite/src/third_party/gemmlowp/fixedpoint\fixedpoint.h ****   return overflow ? std::numeric_limits<std::int16_t>::max() : ab_x2_high16;
 1500              		.loc 4 350 0
 1501 0068 001081E0 		add	r1, r1, r0
 1502              	.LVL131:
 1503 006c FF0F07E3 		movw	r0, #32767
 1504 0070 00E081E0 		add	lr, r1, r0
 1505 0074 000051E3 		cmp	r1, #0
 1506 0078 0E10A0B1 		movlt	r1, lr
 1507              	.LVL132:
 1508              	.LBE2699:
 1509              	.LBE2698:
 1510              	.LBE2697:
 1511              	.LBE2696:
 1512              	.LBB2724:
 1513              	.LBB2725:
 1514              	.LBB2726:
 1515              	.LBB2727:
 348:C:/Renesas/e2studio_2021_01_workspace_RZA2M_ANPR/ANPR_RZA2M_RDK/src/tensorflow_lite/src/third_party/gemmlowp/fixedpoint\fixedpoint.h ****   std::int16_t ab_x2_high16 =
 1516              		.loc 4 348 0
 1517 007c 01600CE3 		movw	r6, #49153
 1518              	.LBE2727:
 1519              	.LBE2726:
 1520              	.LBE2725:
 1521              	.LBE2724:
 1522              	.LBB2749:
 1523              	.LBB2716:
 1524              	.LBB2708:
 1525              	.LBB2700:
 350:C:/Renesas/e2studio_2021_01_workspace_RZA2M_ANPR/ANPR_RZA2M_RDK/src/tensorflow_lite/src/third_party/gemmlowp/fixedpoint\fixedpoint.h ****   return overflow ? std::numeric_limits<std::int16_t>::max() : ab_x2_high16;
 1526              		.loc 4 350 0
 1527 0080 C117A0E1 		asr	r1, r1, #15
 1528              	.LBE2700:
 1529              	.LBE2708:
 1530              	.LBE2716:
 1531              	.LBE2749:
 1532              	.LBB2750:
 1533              	.LBB2742:
 1534              	.LBB2735:
 1535              	.LBB2728:
 348:C:/Renesas/e2studio_2021_01_workspace_RZA2M_ANPR/ANPR_RZA2M_RDK/src/tensorflow_lite/src/third_party/gemmlowp/fixedpoint\fixedpoint.h ****   std::int16_t ab_x2_high16 =
 1536              		.loc 4 348 0
 1537 0084 FF6F4FE3 		movt	r6, 65535
 1538 0088 02E9A0E3 		mov	lr, #32768
 1539              	.LVL133:
 1540              	.LBE2728:
 1541              	.LBE2735:
 1542              	.LBE2742:
 1543              	.LBE2750:
 1544              	.LBB2751:
 1545              	.LBB2752:
 1546              	.LBB2753:
 106:C:/Renesas/e2studio_2021_01_workspace_RZA2M_ANPR/ANPR_RZA2M_RDK/src/tensorflow_lite/src/third_party/gemmlowp/fixedpoint\fixedpoint.h **** }
 1547              		.loc 4 106 0
 1548 008c 021A61E2 		rsb	r1, r1, #8192
 1549              	.LBE2753:
 1550              	.LBE2752:
 1551              	.LBE2751:
 1552              	.LBB2758:
 1553              	.LBB2759:
 1554              	.LBB2760:
 1555              	.LBB2761:
 1556              	.LBB2762:
 1557              	.LBB2763:
 1558              	.LBB2764:
 131:C:/Renesas/e2studio_2021_01_workspace_RZA2M_ANPR/ANPR_RZA2M_RDK/src/tensorflow_lite/src/third_party/gemmlowp/fixedpoint\fixedpoint.h ****              : wide_shifted > max ? max
 1559              		.loc 4 131 0
 1560 0090 0249A0E3 		mov	r4, #32768
 1561              	.LBE2764:
 1562              	.LBE2763:
 1563              	.LBE2762:
 1564              	.LBE2761:
 1565              	.LBE2760:
 1566              	.LBE2759:
 1567              	.LBE2758:
 1568              	.LBB2817:
 1569              	.LBB2743:
 1570              	.LBB2736:
 1571              	.LBB2729:
 346:C:/Renesas/e2studio_2021_01_workspace_RZA2M_ANPR/ANPR_RZA2M_RDK/src/tensorflow_lite/src/third_party/gemmlowp/fixedpoint\fixedpoint.h ****   std::int32_t ab_32 = a_32 * b_32;
 1572              		.loc 4 346 0
 1573 0094 7110BFE6 		sxth	r1, r1
 1574 0098 FFEF4FE3 		movt	lr, 65535
 1575              	.LBE2729:
 1576              	.LBE2736:
 1577              	.LBE2743:
 1578              	.LBE2817:
 1579              	.LBB2818:
 1580              	.LBB2812:
 1581              	.LBB2807:
 1582              	.LBB2802:
 1583              	.LBB2797:
 1584              	.LBB2772:
 1585              	.LBB2765:
 131:C:/Renesas/e2studio_2021_01_workspace_RZA2M_ANPR/ANPR_RZA2M_RDK/src/tensorflow_lite/src/third_party/gemmlowp/fixedpoint\fixedpoint.h ****              : wide_shifted > max ? max
 1586              		.loc 4 131 0
 1587 009c FF4F4FE3 		movt	r4, 65535
 1588              	.LBE2765:
 1589              	.LBE2772:
 1590              	.LBE2797:
 1591              	.LBE2802:
 1592              	.LBE2807:
 1593              	.LBE2812:
 1594              	.LBE2818:
 1595              	.LBB2819:
 1596              	.LBB2744:
 1597              	.LBB2737:
 1598              	.LBB2730:
 347:C:/Renesas/e2studio_2021_01_workspace_RZA2M_ANPR/ANPR_RZA2M_RDK/src/tensorflow_lite/src/third_party/gemmlowp/fixedpoint\fixedpoint.h ****   std::int16_t nudge = ab_32 >= 0 ? (1 << 14) : (1 - (1 << 14));
 1599              		.loc 4 347 0
 1600 00a0 930103E0 		mul	r3, r3, r1
 1601              	.LVL134:
 1602              	.LBE2730:
 1603              	.LBE2737:
 1604              	.LBE2744:
 1605              	.LBE2819:
 1606              	.LBB2820:
 1607              	.LBB2813:
 1608              	.LBB2808:
 1609              	.LBB2803:
 1610              	.LBB2798:
 1611              	.LBB2773:
 1612              	.LBB2766:
 131:C:/Renesas/e2studio_2021_01_workspace_RZA2M_ANPR/ANPR_RZA2M_RDK/src/tensorflow_lite/src/third_party/gemmlowp/fixedpoint\fixedpoint.h ****              : wide_shifted > max ? max
 1613              		.loc 4 131 0
 1614 00a4 0050E0E3 		mvn	r5, #0
 1615              	.LBE2766:
 1616              	.LBE2773:
 1617              	.LBE2798:
 1618              	.LBE2803:
 1619              	.LBE2808:
 1620              	.LBE2813:
 1621              	.LBE2820:
 1622              	.LBB2821:
 1623              	.LBB2745:
 1624              	.LBB2738:
 1625              	.LBB2731:
 348:C:/Renesas/e2studio_2021_01_workspace_RZA2M_ANPR/ANPR_RZA2M_RDK/src/tensorflow_lite/src/third_party/gemmlowp/fixedpoint\fixedpoint.h ****   std::int16_t ab_x2_high16 =
 1626              		.loc 4 348 0
 1627 00a8 000053E3 		cmp	r3, #0
 1628 00ac 0169A0A3 		movge	r6, #16384
 1629              	.LVL135:
 350:C:/Renesas/e2studio_2021_01_workspace_RZA2M_ANPR/ANPR_RZA2M_RDK/src/tensorflow_lite/src/third_party/gemmlowp/fixedpoint\fixedpoint.h ****   return overflow ? std::numeric_limits<std::int16_t>::max() : ab_x2_high16;
 1630              		.loc 4 350 0
 1631 00b0 063083E0 		add	r3, r3, r6
 1632              	.LVL136:
 1633 00b4 000083E0 		add	r0, r3, r0
 1634 00b8 000053E3 		cmp	r3, #0
 1635 00bc 0030A0B1 		movlt	r3, r0
 1636              	.LVL137:
 1637 00c0 C337A0E1 		asr	r3, r3, #15
 1638              	.LVL138:
 1639              	.LBE2731:
 1640              	.LBE2738:
 1641              	.LBE2745:
 1642              	.LBE2821:
 1643              	.LBB2822:
 1644              	.LBB2814:
 1645              	.LBB2809:
 1646              	.LBB2804:
 1647              	.LBB2799:
 1648              	.LBB2774:
 1649              	.LBB2775:
 1650              	.LBB2776:
 158:C:/Renesas/e2studio_2021_01_workspace_RZA2M_ANPR/ANPR_RZA2M_RDK/src/tensorflow_lite/src/third_party/gemmlowp/fixedpoint\fixedpoint.h **** }
 1651              		.loc 4 158 0
 1652 00c4 7360BFE6 		sxth	r6, r3
 1653              	.LBE2776:
 1654              	.LBE2775:
 1655              	.LBE2774:
 1656              	.LBB2783:
 1657              	.LBB2767:
 127:C:/Renesas/e2studio_2021_01_workspace_RZA2M_ANPR/ANPR_RZA2M_RDK/src/tensorflow_lite/src/third_party/gemmlowp/fixedpoint\fixedpoint.h ****   const auto min = std::numeric_limits<tIntegerType>::min();
 1658              		.loc 4 127 0
 1659 00c8 903B80EE 		vdup.32	d16, r3
 1660              	.LBE2767:
 1661              	.LBE2783:
 1662              	.LBB2784:
 1663              	.LBB2780:
 1664              	.LBB2777:
 158:C:/Renesas/e2studio_2021_01_workspace_RZA2M_ANPR/ANPR_RZA2M_RDK/src/tensorflow_lite/src/third_party/gemmlowp/fixedpoint\fixedpoint.h **** }
 1665              		.loc 4 158 0
 1666 00cc 020A76E3 		cmn	r6, #8192
 1667              	.LBE2777:
 1668              	.LBE2780:
 1669              	.LBE2784:
 1670              	.LBB2785:
 1671              	.LBB2768:
 127:C:/Renesas/e2studio_2021_01_workspace_RZA2M_ANPR/ANPR_RZA2M_RDK/src/tensorflow_lite/src/third_party/gemmlowp/fixedpoint\fixedpoint.h ****   const auto min = std::numeric_limits<tIntegerType>::min();
 1672              		.loc 4 127 0
 1673 00d0 B000E0F2 		vshr.s64	d16, d16, #32
 1674              	.LBE2768:
 1675              	.LBE2785:
 1676              	.LBB2786:
 1677              	.LBB2781:
 1678              	.LBB2778:
 158:C:/Renesas/e2studio_2021_01_workspace_RZA2M_ANPR/ANPR_RZA2M_RDK/src/tensorflow_lite/src/third_party/gemmlowp/fixedpoint\fixedpoint.h **** }
 1679              		.loc 4 158 0
 1680 00d4 0030A0C3 		movgt	r3, #0
 1681 00d8 0130A0D3 		movle	r3, #1
 1682 00dc 007063E2 		rsb	r7, r3, #0
 1683 00e0 013043E2 		sub	r3, r3, #1
 1684              	.LBE2778:
 1685              	.LBE2781:
 1686              	.LBE2786:
 1687              	.LBB2787:
 1688              	.LBB2769:
 127:C:/Renesas/e2studio_2021_01_workspace_RZA2M_ANPR/ANPR_RZA2M_RDK/src/tensorflow_lite/src/third_party/gemmlowp/fixedpoint\fixedpoint.h ****   const auto min = std::numeric_limits<tIntegerType>::min();
 1689              		.loc 4 127 0
 1690 00e4 B015C2F2 		vshl.u64	d17, d16, #2
 1691 00e8 000057E3 		cmp	r7, #0
 1692 00ec 7330BFE6 		sxth	r3, r3
 1693              	.LVL139:
 1694 00f0 0E60A011 		movne	r6, lr
 1695 00f4 0060A003 		moveq	r6, #0
 1696 00f8 310B51EC 		vmov	r0, r1, d17	@ int
 131:C:/Renesas/e2studio_2021_01_workspace_RZA2M_ANPR/ANPR_RZA2M_RDK/src/tensorflow_lite/src/third_party/gemmlowp/fixedpoint\fixedpoint.h ****              : wide_shifted > max ? max
 1697              		.loc 4 131 0
 1698 00fc 040050E1 		cmp	r0, r4
 1699 0100 0540D1E0 		sbcs	r4, r1, r5
 1700 0104 003003A0 		andge	r3, r3, r0
 1701 0108 073023B0 		eorlt	r3, r3, r7
 1702 010c 03E00EB0 		andlt	lr, lr, r3
 1703 0110 063023A0 		eorge	r3, r3, r6
 1704 0114 7E10FFB6 		uxthlt	r1, lr
 1705 0118 7310FFA6 		uxthge	r1, r3
 1706              	.LBE2769:
 1707              	.LBE2787:
 1708              	.LBE2799:
 1709              	.LBE2804:
 1710              	.LBE2809:
 1711              	.LBE2814:
 1712              	.LBE2822:
 1713              	.LBB2823:
 1714              	.LBB2824:
 1715              	.LBB2825:
  95:C:/Renesas/e2studio_2021_01_workspace_RZA2M_ANPR/ANPR_RZA2M_RDK/src/tensorflow_lite/src/third_party/gemmlowp/fixedpoint\fixedpoint.h **** }
 1716              		.loc 4 95 0
 1717 011c 01108CE0 		add	r1, ip, r1
 1718              	.LBE2825:
 1719              	.LBE2824:
 1720              	.LBE2823:
 1721              	.LBB2836:
 1722              	.LBB2717:
 1723              	.LBB2709:
 1724              	.LBB2701:
 348:C:/Renesas/e2studio_2021_01_workspace_RZA2M_ANPR/ANPR_RZA2M_RDK/src/tensorflow_lite/src/third_party/gemmlowp/fixedpoint\fixedpoint.h ****   std::int16_t ab_x2_high16 =
 1725              		.loc 4 348 0
 1726 0120 01E00CE3 		movw	lr, #49153
 1727              	.LBE2701:
 1728              	.LBE2709:
 1729              	.LBE2717:
 1730              	.LBE2836:
 1731              	.LBB2837:
 1732              	.LBB2831:
 1733              	.LBB2826:
  95:C:/Renesas/e2studio_2021_01_workspace_RZA2M_ANPR/ANPR_RZA2M_RDK/src/tensorflow_lite/src/third_party/gemmlowp/fixedpoint\fixedpoint.h **** }
 1734              		.loc 4 95 0
 1735 0124 7110FFE6 		uxth	r1, r1
 1736              	.LBE2826:
 1737              	.LBE2831:
 1738              	.LBE2837:
 1739              	.LBB2838:
 1740              	.LBB2718:
 1741              	.LBB2710:
 1742              	.LBB2702:
 348:C:/Renesas/e2studio_2021_01_workspace_RZA2M_ANPR/ANPR_RZA2M_RDK/src/tensorflow_lite/src/third_party/gemmlowp/fixedpoint\fixedpoint.h ****   std::int16_t ab_x2_high16 =
 1743              		.loc 4 348 0
 1744 0128 FFEF4FE3 		movt	lr, 65535
 350:C:/Renesas/e2studio_2021_01_workspace_RZA2M_ANPR/ANPR_RZA2M_RDK/src/tensorflow_lite/src/third_party/gemmlowp/fixedpoint\fixedpoint.h ****   return overflow ? std::numeric_limits<std::int16_t>::max() : ab_x2_high16;
 1745              		.loc 4 350 0
 1746 012c FF3F07E3 		movw	r3, #32767
 1747              	.LBE2702:
 1748              	.LBE2710:
 1749              	.LBE2718:
 1750              	.LBE2838:
 1751              	.LBB2839:
 1752              	.LBB2832:
 1753              	.LBB2827:
  95:C:/Renesas/e2studio_2021_01_workspace_RZA2M_ANPR/ANPR_RZA2M_RDK/src/tensorflow_lite/src/third_party/gemmlowp/fixedpoint\fixedpoint.h **** }
 1754              		.loc 4 95 0
 1755 0130 7140BFE6 		sxth	r4, r1
 1756              	.LVL140:
 1757              	.LBE2827:
 1758              	.LBE2832:
 1759              	.LBE2839:
 1760              	.LBB2840:
 1761              	.LBB2719:
 1762              	.LBB2711:
 1763              	.LBB2703:
 347:C:/Renesas/e2studio_2021_01_workspace_RZA2M_ANPR/ANPR_RZA2M_RDK/src/tensorflow_lite/src/third_party/gemmlowp/fixedpoint\fixedpoint.h ****   std::int16_t nudge = ab_32 >= 0 ? (1 << 14) : (1 - (1 << 14));
 1764              		.loc 4 347 0
 1765 0134 920400E0 		mul	r0, r2, r4
 1766              	.LVL141:
 348:C:/Renesas/e2studio_2021_01_workspace_RZA2M_ANPR/ANPR_RZA2M_RDK/src/tensorflow_lite/src/third_party/gemmlowp/fixedpoint\fixedpoint.h ****   std::int16_t ab_x2_high16 =
 1767              		.loc 4 348 0
 1768 0138 000050E3 		cmp	r0, #0
 1769 013c 0EC0A0B1 		movlt	ip, lr
 1770 0140 01C9A0A3 		movge	ip, #16384
 1771              	.LVL142:
 350:C:/Renesas/e2studio_2021_01_workspace_RZA2M_ANPR/ANPR_RZA2M_RDK/src/tensorflow_lite/src/third_party/gemmlowp/fixedpoint\fixedpoint.h ****   return overflow ? std::numeric_limits<std::int16_t>::max() : ab_x2_high16;
 1772              		.loc 4 350 0
 1773 0144 00C08CE0 		add	ip, ip, r0
 1774              	.LVL143:
 1775 0148 03008CE0 		add	r0, ip, r3
 1776 014c 00005CE3 		cmp	ip, #0
 1777 0150 00C0A0B1 		movlt	ip, r0
 1778 0154 CC07A0E1 		asr	r0, ip, #15
 1779              	.LBE2703:
 1780              	.LBE2711:
 1781              	.LBE2719:
 1782              	.LBE2840:
 1783              	.LBB2841:
 1784              	.LBB2756:
 1785              	.LBB2754:
 106:C:/Renesas/e2studio_2021_01_workspace_RZA2M_ANPR/ANPR_RZA2M_RDK/src/tensorflow_lite/src/third_party/gemmlowp/fixedpoint\fixedpoint.h **** }
 1786              		.loc 4 106 0
 1787 0158 020A60E2 		rsb	r0, r0, #8192
 1788 015c 7000BFE6 		sxth	r0, r0
 1789              	.LVL144:
 1790              	.LBE2754:
 1791              	.LBE2756:
 1792              	.LBE2841:
 1793              	.LBB2842:
 1794              	.LBB2746:
 1795              	.LBB2739:
 1796              	.LBB2732:
 347:C:/Renesas/e2studio_2021_01_workspace_RZA2M_ANPR/ANPR_RZA2M_RDK/src/tensorflow_lite/src/third_party/gemmlowp/fixedpoint\fixedpoint.h ****   std::int16_t nudge = ab_32 >= 0 ? (1 << 14) : (1 - (1 << 14));
 1797              		.loc 4 347 0
 1798 0160 80046CE1 		smulbb	ip, r0, r4
 1799              	.LVL145:
 348:C:/Renesas/e2studio_2021_01_workspace_RZA2M_ANPR/ANPR_RZA2M_RDK/src/tensorflow_lite/src/third_party/gemmlowp/fixedpoint\fixedpoint.h ****   std::int16_t ab_x2_high16 =
 1800              		.loc 4 348 0
 1801 0164 00005CE3 		cmp	ip, #0
 1802 0168 01E9A0A3 		movge	lr, #16384
 1803              	.LVL146:
 351:C:/Renesas/e2studio_2021_01_workspace_RZA2M_ANPR/ANPR_RZA2M_RDK/src/tensorflow_lite/src/third_party/gemmlowp/fixedpoint\fixedpoint.h **** }
 1804              		.loc 4 351 0
 1805 016c 040050E1 		cmp	r0, r4
 1806 0170 02097403 		cmneq	r4, #32768
 1807 0174 0140A003 		moveq	r4, #1
 1808              	.LVL147:
 1809 0178 0040A013 		movne	r4, #0
 1810 017c 1C00000A 		beq	.L78
 350:C:/Renesas/e2studio_2021_01_workspace_RZA2M_ANPR/ANPR_RZA2M_RDK/src/tensorflow_lite/src/third_party/gemmlowp/fixedpoint\fixedpoint.h ****   return overflow ? std::numeric_limits<std::int16_t>::max() : ab_x2_high16;
 1811              		.loc 4 350 0
 1812 0180 0CE08EE0 		add	lr, lr, ip
 1813              	.LVL148:
 1814 0184 00005EE3 		cmp	lr, #0
 1815 0188 03008EE0 		add	r0, lr, r3
 1816              	.LVL149:
 1817 018c 00E0A0B1 		movlt	lr, r0
 1818              	.LVL150:
 1819 0190 DEE7AFE7 		sbfx	lr, lr, #15, #16
 1820              	.LVL151:
 1821              	.LBE2732:
 1822              	.LBE2739:
 1823              	.LBE2746:
 1824              	.LBE2842:
 1825              	.LBB2843:
 1826              	.LBB2815:
 1827              	.LBB2810:
 1828              	.LBB2805:
 1829              	.LBB2800:
 1830              	.LBB2788:
 1831              	.LBB2789:
 1832              	.LBB2790:
 158:C:/Renesas/e2studio_2021_01_workspace_RZA2M_ANPR/ANPR_RZA2M_RDK/src/tensorflow_lite/src/third_party/gemmlowp/fixedpoint\fixedpoint.h **** }
 1833              		.loc 4 158 0
 1834 0194 020A5EE3 		cmp	lr, #8192
 1835 0198 770000BA 		blt	.L79
 1836 019c 0400A0E1 		mov	r0, r4
 1837              	.LVL152:
 1838 01a0 0390A0E1 		mov	r9, r3
 1839 01a4 04C0A0E1 		mov	ip, r4
 1840 01a8 0080E0E3 		mvn	r8, #0
 1841              	.L82:
 1842              	.LVL153:
 1843              	.LBE2790:
 1844              	.LBE2789:
 1845              	.LBE2788:
 1846              	.LBB2793:
 1847              	.LBB2770:
 127:C:/Renesas/e2studio_2021_01_workspace_RZA2M_ANPR/ANPR_RZA2M_RDK/src/tensorflow_lite/src/third_party/gemmlowp/fixedpoint\fixedpoint.h ****   const auto min = std::numeric_limits<tIntegerType>::min();
 1848              		.loc 4 127 0
 1849 01ac 90EB80EE 		vdup.32	d16, lr
 131:C:/Renesas/e2studio_2021_01_workspace_RZA2M_ANPR/ANPR_RZA2M_RDK/src/tensorflow_lite/src/third_party/gemmlowp/fixedpoint\fixedpoint.h ****              : wide_shifted > max ? max
 1850              		.loc 4 131 0
 1851 01b0 0269A0E3 		mov	r6, #32768
 1852 01b4 FF6F4FE3 		movt	r6, 65535
 1853 01b8 0070E0E3 		mvn	r7, #0
 127:C:/Renesas/e2studio_2021_01_workspace_RZA2M_ANPR/ANPR_RZA2M_RDK/src/tensorflow_lite/src/third_party/gemmlowp/fixedpoint\fixedpoint.h ****   const auto min = std::numeric_limits<tIntegerType>::min();
 1854              		.loc 4 127 0
 1855 01bc B000E0F2 		vshr.s64	d16, d16, #32
 1856 01c0 B015C2F2 		vshl.u64	d17, d16, #2
 1857 01c4 314B55EC 		vmov	r4, r5, d17	@ int
 1858              	.LVL154:
 131:C:/Renesas/e2studio_2021_01_workspace_RZA2M_ANPR/ANPR_RZA2M_RDK/src/tensorflow_lite/src/third_party/gemmlowp/fixedpoint\fixedpoint.h ****              : wide_shifted > max ? max
 1859              		.loc 4 131 0
 1860 01c8 060054E1 		cmp	r4, r6
 1861 01cc 07E0D5E0 		sbcs	lr, r5, r7
 1862              	.LVL155:
 1863 01d0 040000BA 		blt	.L105
 132:C:/Renesas/e2studio_2021_01_workspace_RZA2M_ANPR/ANPR_RZA2M_RDK/src/tensorflow_lite/src/third_party/gemmlowp/fixedpoint\fixedpoint.h ****                                   : static_cast<tIntegerType>(wide_shifted);
 1864              		.loc 4 132 0
 1865 01d4 020954E3 		cmp	r4, #32768
 1866 01d8 0030D5E2 		sbcs	r3, r5, #0
 1867 01dc 043000B0 		andlt	r3, r0, r4
 1868 01e0 093023B0 		eorlt	r3, r3, r9
 1869 01e4 890000AA 		bge	.L106
 1870              	.L105:
 1871 01e8 083003E0 		and	r3, r3, r8
 1872 01ec 0C3023E0 		eor	r3, r3, ip
 1873 01f0 7330FFE6 		uxth	r3, r3
 1874              	.LVL156:
 1875              	.L78:
 1876              	.LBE2770:
 1877              	.LBE2793:
 1878              	.LBE2800:
 1879              	.LBE2805:
 1880              	.LBE2810:
 1881              	.LBE2815:
 1882              	.LBE2843:
 1883              	.LBB2844:
 1884              	.LBB2833:
 1885              	.LBB2828:
  95:C:/Renesas/e2studio_2021_01_workspace_RZA2M_ANPR/ANPR_RZA2M_RDK/src/tensorflow_lite/src/third_party/gemmlowp/fixedpoint\fixedpoint.h **** }
 1886              		.loc 4 95 0
 1887 01f4 013083E0 		add	r3, r3, r1
 1888 01f8 7310FFE6 		uxth	r1, r3
 1889              	.LVL157:
 1890              	.LBE2828:
 1891              	.LBE2833:
 1892              	.LBE2844:
 1893              	.LBB2845:
 1894              	.LBB2720:
 1895              	.LBB2712:
 1896              	.LBB2704:
 348:C:/Renesas/e2studio_2021_01_workspace_RZA2M_ANPR/ANPR_RZA2M_RDK/src/tensorflow_lite/src/third_party/gemmlowp/fixedpoint\fixedpoint.h ****   std::int16_t ab_x2_high16 =
 1897              		.loc 4 348 0
 1898 01fc 01C00CE3 		movw	ip, #49153
 1899 0200 FFCF4FE3 		movt	ip, 65535
 1900              	.LBE2704:
 1901              	.LBE2712:
 1902              	.LBE2720:
 1903              	.LBE2845:
 1904              	.LBB2846:
 1905              	.LBB2834:
 1906              	.LBB2829:
  95:C:/Renesas/e2studio_2021_01_workspace_RZA2M_ANPR/ANPR_RZA2M_RDK/src/tensorflow_lite/src/third_party/gemmlowp/fixedpoint\fixedpoint.h **** }
 1907              		.loc 4 95 0
 1908 0204 7100BFE6 		sxth	r0, r1
 1909              	.LVL158:
 1910              	.LBE2829:
 1911              	.LBE2834:
 1912              	.LBE2846:
 1913              	.LBB2847:
 1914              	.LBB2721:
 1915              	.LBB2713:
 1916              	.LBB2705:
 350:C:/Renesas/e2studio_2021_01_workspace_RZA2M_ANPR/ANPR_RZA2M_RDK/src/tensorflow_lite/src/third_party/gemmlowp/fixedpoint\fixedpoint.h ****   return overflow ? std::numeric_limits<std::int16_t>::max() : ab_x2_high16;
 1917              		.loc 4 350 0
 1918 0208 FFEF07E3 		movw	lr, #32767
 347:C:/Renesas/e2studio_2021_01_workspace_RZA2M_ANPR/ANPR_RZA2M_RDK/src/tensorflow_lite/src/third_party/gemmlowp/fixedpoint\fixedpoint.h ****   std::int16_t nudge = ab_32 >= 0 ? (1 << 14) : (1 - (1 << 14));
 1919              		.loc 4 347 0
 1920 020c 920002E0 		mul	r2, r2, r0
 1921              	.LVL159:
 348:C:/Renesas/e2studio_2021_01_workspace_RZA2M_ANPR/ANPR_RZA2M_RDK/src/tensorflow_lite/src/third_party/gemmlowp/fixedpoint\fixedpoint.h ****   std::int16_t ab_x2_high16 =
 1922              		.loc 4 348 0
 1923 0210 000052E3 		cmp	r2, #0
 1924 0214 0C30A0B1 		movlt	r3, ip
 1925 0218 0139A0A3 		movge	r3, #16384
 1926              	.LVL160:
 350:C:/Renesas/e2studio_2021_01_workspace_RZA2M_ANPR/ANPR_RZA2M_RDK/src/tensorflow_lite/src/third_party/gemmlowp/fixedpoint\fixedpoint.h ****   return overflow ? std::numeric_limits<std::int16_t>::max() : ab_x2_high16;
 1927              		.loc 4 350 0
 1928 021c 032082E0 		add	r2, r2, r3
 1929              	.LVL161:
 1930 0220 0E3082E0 		add	r3, r2, lr
 1931 0224 000052E3 		cmp	r2, #0
 1932 0228 0320A0B1 		movlt	r2, r3
 1933 022c C237A0E1 		asr	r3, r2, #15
 1934              	.LBE2705:
 1935              	.LBE2713:
 1936              	.LBE2721:
 1937              	.LBE2847:
 1938              	.LBB2848:
 1939              	.LBB2757:
 1940              	.LBB2755:
 106:C:/Renesas/e2studio_2021_01_workspace_RZA2M_ANPR/ANPR_RZA2M_RDK/src/tensorflow_lite/src/third_party/gemmlowp/fixedpoint\fixedpoint.h **** }
 1941              		.loc 4 106 0
 1942 0230 023A63E2 		rsb	r3, r3, #8192
 1943 0234 7330BFE6 		sxth	r3, r3
 1944              	.LVL162:
 1945              	.LBE2755:
 1946              	.LBE2757:
 1947              	.LBE2848:
 1948              	.LBB2849:
 1949              	.LBB2747:
 1950              	.LBB2740:
 1951              	.LBB2733:
 347:C:/Renesas/e2studio_2021_01_workspace_RZA2M_ANPR/ANPR_RZA2M_RDK/src/tensorflow_lite/src/third_party/gemmlowp/fixedpoint\fixedpoint.h ****   std::int16_t nudge = ab_32 >= 0 ? (1 << 14) : (1 - (1 << 14));
 1952              		.loc 4 347 0
 1953 0238 830062E1 		smulbb	r2, r3, r0
 1954              	.LVL163:
 348:C:/Renesas/e2studio_2021_01_workspace_RZA2M_ANPR/ANPR_RZA2M_RDK/src/tensorflow_lite/src/third_party/gemmlowp/fixedpoint\fixedpoint.h ****   std::int16_t ab_x2_high16 =
 1955              		.loc 4 348 0
 1956 023c 000052E3 		cmp	r2, #0
 1957 0240 01C9A0A3 		movge	ip, #16384
 1958              	.LVL164:
 351:C:/Renesas/e2studio_2021_01_workspace_RZA2M_ANPR/ANPR_RZA2M_RDK/src/tensorflow_lite/src/third_party/gemmlowp/fixedpoint\fixedpoint.h **** }
 1959              		.loc 4 351 0
 1960 0244 000053E1 		cmp	r3, r0
 1961 0248 02097003 		cmneq	r0, #32768
 1962 024c 0100A003 		moveq	r0, #1
 1963              	.LVL165:
 1964 0250 0000A013 		movne	r0, #0
 1965 0254 2900001A 		bne	.L107
 1966              	.LVL166:
 1967              	.L85:
 1968              	.LBE2733:
 1969              	.LBE2740:
 1970              	.LBE2747:
 1971              	.LBE2849:
 1972              	.LBB2850:
 1973              	.LBB2835:
 1974              	.LBB2830:
  95:C:/Renesas/e2studio_2021_01_workspace_RZA2M_ANPR/ANPR_RZA2M_RDK/src/tensorflow_lite/src/third_party/gemmlowp/fixedpoint\fixedpoint.h **** }
 1975              		.loc 4 95 0
 1976 0258 0E3081E0 		add	r3, r1, lr
 1977              	.LVL167:
 1978              	.LBE2830:
 1979              	.LBE2835:
 1980              	.LBE2850:
 1981              	.LBE2695:
 1982              	.LBE2694:
 1983              	.LBB2857:
 1984              	.LBB2858:
 1985              	.LBB2859:
 106:C:/Renesas/e2studio_2021_01_workspace_RZA2M_ANPR/ANPR_RZA2M_RDK/src/tensorflow_lite/src/third_party/gemmlowp/fixedpoint\fixedpoint.h **** }
 1986              		.loc 4 106 0
 1987 025c 023A43E2 		sub	r3, r3, #8192
 1988 0260 7330BFE6 		sxth	r3, r3
 1989              	.LVL168:
 1990              	.LBE2859:
 1991              	.LBE2858:
 1992              	.LBE2857:
 1993              	.LBB2860:
 1994              	.LBB2861:
 1995              	.LBB2862:
 1996              	.LBB2863:
 1997              	.LBB2864:
 1998              	.LBB2865:
 1999              	.LBB2866:
 2000              	.LBB2867:
 158:C:/Renesas/e2studio_2021_01_workspace_RZA2M_ANPR/ANPR_RZA2M_RDK/src/tensorflow_lite/src/third_party/gemmlowp/fixedpoint\fixedpoint.h **** }
 2001              		.loc 4 158 0
 2002 0264 020A53E3 		cmp	r3, #8192
 2003 0268 1E0000AA 		bge	.L102
 2004              	.LVL169:
 2005              	.LBE2867:
 2006              	.LBE2866:
 2007              	.LBE2865:
 2008              	.LBB2870:
 2009              	.LBB2871:
 2010              	.LBB2872:
 2011 026c 020A73E3 		cmn	r3, #8192
 2012 0270 02C9A0E3 		mov	ip, #32768
 2013 0274 0010A0C3 		movgt	r1, #0
 2014              	.LVL170:
 2015 0278 0110A0D3 		movle	r1, #1
 2016 027c 011041E2 		sub	r1, r1, #1
 2017 0280 020A73E3 		cmn	r3, #8192
 2018 0284 FFCF4FE3 		movt	ip, 65535
 2019 0288 7110BFE6 		sxth	r1, r1
 2020 028c 0C00A0D1 		movle	r0, ip
 2021 0290 0000A0C3 		movgt	r0, #0
 2022 0294 0060E0E3 		mvn	r6, #0
 2023 0298 00E0A0E3 		mov	lr, #0
 2024              	.LVL171:
 2025              	.L89:
 2026              	.LBE2872:
 2027              	.LBE2871:
 2028              	.LBE2870:
 2029              	.LBB2873:
 2030              	.LBB2874:
 127:C:/Renesas/e2studio_2021_01_workspace_RZA2M_ANPR/ANPR_RZA2M_RDK/src/tensorflow_lite/src/third_party/gemmlowp/fixedpoint\fixedpoint.h ****   const auto min = std::numeric_limits<tIntegerType>::min();
 2031              		.loc 4 127 0
 2032 029c 903B80EE 		vdup.32	d16, r3
 131:C:/Renesas/e2studio_2021_01_workspace_RZA2M_ANPR/ANPR_RZA2M_RDK/src/tensorflow_lite/src/third_party/gemmlowp/fixedpoint\fixedpoint.h ****              : wide_shifted > max ? max
 2033              		.loc 4 131 0
 2034 02a0 0249A0E3 		mov	r4, #32768
 2035 02a4 FF4F4FE3 		movt	r4, 65535
 2036 02a8 0050E0E3 		mvn	r5, #0
 127:C:/Renesas/e2studio_2021_01_workspace_RZA2M_ANPR/ANPR_RZA2M_RDK/src/tensorflow_lite/src/third_party/gemmlowp/fixedpoint\fixedpoint.h ****   const auto min = std::numeric_limits<tIntegerType>::min();
 2037              		.loc 4 127 0
 2038 02ac B000E0F2 		vshr.s64	d16, d16, #32
 2039 02b0 B015C2F2 		vshl.u64	d17, d16, #2
 2040 02b4 312B53EC 		vmov	r2, r3, d17	@ int
 2041              	.LVL172:
 131:C:/Renesas/e2studio_2021_01_workspace_RZA2M_ANPR/ANPR_RZA2M_RDK/src/tensorflow_lite/src/third_party/gemmlowp/fixedpoint\fixedpoint.h ****              : wide_shifted > max ? max
 2042              		.loc 4 131 0
 2043 02b8 040052E1 		cmp	r2, r4
 2044 02bc 0540D3E0 		sbcs	r4, r3, r5
 2045 02c0 050000BA 		blt	.L90
 132:C:/Renesas/e2studio_2021_01_workspace_RZA2M_ANPR/ANPR_RZA2M_RDK/src/tensorflow_lite/src/third_party/gemmlowp/fixedpoint\fixedpoint.h ****                                   : static_cast<tIntegerType>(wide_shifted);
 2046              		.loc 4 132 0
 2047 02c4 020952E3 		cmp	r2, #32768
 2048 02c8 00C0D3E2 		sbcs	ip, r3, #0
 2049 02cc 023006B0 		andlt	r3, r6, r2
 2050              	.LVL173:
 2051 02d0 FFCF07A3 		movwge	ip, #32767
 2052 02d4 0E3023B0 		eorlt	r3, r3, lr
 2053 02d8 73C0BFB6 		sxthlt	ip, r3
 2054              	.L90:
 2055              	.LVL174:
 2056              	.LBE2874:
 2057              	.LBE2873:
 2058              	.LBB2875:
 2059              	.LBB2876:
 2060              	.LBB2877:
  71:C:/Renesas/e2studio_2021_01_workspace_RZA2M_ANPR/ANPR_RZA2M_RDK/src/tensorflow_lite/src/third_party/gemmlowp/fixedpoint\fixedpoint.h **** }
 2061              		.loc 4 71 0
 2062 02dc 0C1001E0 		and	r1, r1, ip
 2063              	.LVL175:
 2064              	.LBE2877:
 2065              	.LBE2876:
 2066              	.LBE2875:
 2067              	.LBE2864:
 2068              	.LBE2863:
 2069              	.LBE2862:
 2070              	.LBE2861:
 2071              	.LBE2860:
 2072              		.loc 4 815 0
 2073 02e0 010020E0 		eor	r0, r0, r1
 2074 02e4 F083BDE8 		pop	{r4, r5, r6, r7, r8, r9, pc}
 2075              	.LVL176:
 2076              	.L102:
 2077              	.LBB2883:
 2078              	.LBB2882:
 2079              	.LBB2881:
 2080              	.LBB2880:
 2081              	.LBB2879:
 2082              	.LBB2878:
 2083              	.LBB2869:
 2084              	.LBB2868:
 158:C:/Renesas/e2studio_2021_01_workspace_RZA2M_ANPR/ANPR_RZA2M_RDK/src/tensorflow_lite/src/third_party/gemmlowp/fixedpoint\fixedpoint.h **** }
 2085              		.loc 4 158 0
 2086 02e8 FFCF07E3 		movw	ip, #32767
 2087 02ec 0000A0E3 		mov	r0, #0
 2088 02f0 0CE0A0E1 		mov	lr, ip
 2089              	.LVL177:
 2090 02f4 0060A0E1 		mov	r6, r0
 2091 02f8 0010E0E3 		mvn	r1, #0
 2092              	.LVL178:
 2093 02fc E6FFFFEA 		b	.L89
 2094              	.LVL179:
 2095              	.L107:
 2096              	.LBE2868:
 2097              	.LBE2869:
 2098              	.LBE2878:
 2099              	.LBE2879:
 2100              	.LBE2880:
 2101              	.LBE2881:
 2102              	.LBE2882:
 2103              	.LBE2883:
 2104              	.LBB2884:
 2105              	.LBB2855:
 2106              	.LBB2851:
 2107              	.LBB2748:
 2108              	.LBB2741:
 2109              	.LBB2734:
 350:C:/Renesas/e2studio_2021_01_workspace_RZA2M_ANPR/ANPR_RZA2M_RDK/src/tensorflow_lite/src/third_party/gemmlowp/fixedpoint\fixedpoint.h ****   return overflow ? std::numeric_limits<std::int16_t>::max() : ab_x2_high16;
 2110              		.loc 4 350 0
 2111 0300 0C2082E0 		add	r2, r2, ip
 2112              	.LVL180:
 2113 0304 0EC082E0 		add	ip, r2, lr
 2114              	.LVL181:
 2115 0308 000052E3 		cmp	r2, #0
 2116 030c 0C20A0B1 		movlt	r2, ip
 2117 0310 D2C7AFE7 		sbfx	ip, r2, #15, #16
 2118              	.LVL182:
 2119              	.LBE2734:
 2120              	.LBE2741:
 2121              	.LBE2748:
 2122              	.LBE2851:
 2123              	.LBB2852:
 2124              	.LBB2816:
 2125              	.LBB2811:
 2126              	.LBB2806:
 2127              	.LBB2801:
 2128              	.LBB2794:
 2129              	.LBB2792:
 2130              	.LBB2791:
 158:C:/Renesas/e2studio_2021_01_workspace_RZA2M_ANPR/ANPR_RZA2M_RDK/src/tensorflow_lite/src/third_party/gemmlowp/fixedpoint\fixedpoint.h **** }
 2131              		.loc 4 158 0
 2132 0314 020A5CE3 		cmp	ip, #8192
 2133 0318 240000BA 		blt	.L108
 2134 031c 0080A0E1 		mov	r8, r0
 2135 0320 0050E0E3 		mvn	r5, #0
 2136 0324 0E00A0E1 		mov	r0, lr
 2137 0328 0840A0E1 		mov	r4, r8
 2138              	.L86:
 2139              	.LVL183:
 2140              	.LBE2791:
 2141              	.LBE2792:
 2142              	.LBE2794:
 2143              	.LBB2795:
 2144              	.LBB2771:
 127:C:/Renesas/e2studio_2021_01_workspace_RZA2M_ANPR/ANPR_RZA2M_RDK/src/tensorflow_lite/src/third_party/gemmlowp/fixedpoint\fixedpoint.h ****   const auto min = std::numeric_limits<tIntegerType>::min();
 2145              		.loc 4 127 0
 2146 032c 90CB80EE 		vdup.32	d16, ip
 131:C:/Renesas/e2studio_2021_01_workspace_RZA2M_ANPR/ANPR_RZA2M_RDK/src/tensorflow_lite/src/third_party/gemmlowp/fixedpoint\fixedpoint.h ****              : wide_shifted > max ? max
 2147              		.loc 4 131 0
 2148 0330 0269A0E3 		mov	r6, #32768
 2149 0334 FF6F4FE3 		movt	r6, 65535
 2150 0338 0070E0E3 		mvn	r7, #0
 127:C:/Renesas/e2studio_2021_01_workspace_RZA2M_ANPR/ANPR_RZA2M_RDK/src/tensorflow_lite/src/third_party/gemmlowp/fixedpoint\fixedpoint.h ****   const auto min = std::numeric_limits<tIntegerType>::min();
 2151              		.loc 4 127 0
 2152 033c B000E0F2 		vshr.s64	d16, d16, #32
 2153 0340 B015C2F2 		vshl.u64	d17, d16, #2
 2154 0344 312B53EC 		vmov	r2, r3, d17	@ int
 2155              	.LVL184:
 131:C:/Renesas/e2studio_2021_01_workspace_RZA2M_ANPR/ANPR_RZA2M_RDK/src/tensorflow_lite/src/third_party/gemmlowp/fixedpoint\fixedpoint.h ****              : wide_shifted > max ? max
 2156              		.loc 4 131 0
 2157 0348 060052E1 		cmp	r2, r6
 2158 034c 07C0D3E0 		sbcs	ip, r3, r7
 2159              	.LVL185:
 2160 0350 2A0000BA 		blt	.L109
 132:C:/Renesas/e2studio_2021_01_workspace_RZA2M_ANPR/ANPR_RZA2M_RDK/src/tensorflow_lite/src/third_party/gemmlowp/fixedpoint\fixedpoint.h ****                                   : static_cast<tIntegerType>(wide_shifted);
 2161              		.loc 4 132 0
 2162 0354 020952E3 		cmp	r2, #32768
 2163 0358 00C0D3E2 		sbcs	ip, r3, #0
 2164 035c 082002B0 		andlt	r2, r2, r8
 2165              	.LVL186:
 2166 0360 55E0EEA7 		ubfxge	lr, r5, #0, #15
 2167 0364 020020B0 		eorlt	r0, r0, r2
 2168 0368 04E02EA0 		eorge	lr, lr, r4
 2169 036c 050000B0 		andlt	r0, r0, r5
 2170 0370 00E024B0 		eorlt	lr, r4, r0
 2171 0374 7EE0FFE6 		uxth	lr, lr
 2172 0378 B6FFFFEA 		b	.L85
 2173              	.LVL187:
 2174              	.L79:
 2175              	.LBE2771:
 2176              	.LBE2795:
 2177              	.LBB2796:
 2178              	.LBB2782:
 2179              	.LBB2779:
 158:C:/Renesas/e2studio_2021_01_workspace_RZA2M_ANPR/ANPR_RZA2M_RDK/src/tensorflow_lite/src/third_party/gemmlowp/fixedpoint\fixedpoint.h **** }
 2180              		.loc 4 158 0
 2181 037c 020A7EE3 		cmn	lr, #8192
 2182 0380 0239A0E3 		mov	r3, #32768
 2183 0384 0080A0C3 		movgt	r8, #0
 2184 0388 0180A0D3 		movle	r8, #1
 2185 038c 018048E2 		sub	r8, r8, #1
 2186 0390 020A7EE3 		cmn	lr, #8192
 2187 0394 FF3F4FE3 		movt	r3, 65535
 2188 0398 0490A0E1 		mov	r9, r4
 2189 039c 7880BFE6 		sxth	r8, r8
 2190 03a0 03C0A0D1 		movle	ip, r3
 2191 03a4 00C0A0C3 		movgt	ip, #0
 2192 03a8 0000E0E3 		mvn	r0, #0
 2193              	.LVL188:
 2194 03ac 7EFFFFEA 		b	.L82
 2195              	.LVL189:
 2196              	.L108:
 2197 03b0 020A7CE3 		cmn	ip, #8192
 2198 03b4 02E9A0E3 		mov	lr, #32768
 2199 03b8 0050A0C3 		movgt	r5, #0
 2200 03bc 0150A0D3 		movle	r5, #1
 2201 03c0 015045E2 		sub	r5, r5, #1
 2202 03c4 020A7CE3 		cmn	ip, #8192
 2203 03c8 FFEF4FE3 		movt	lr, 65535
 2204 03cc 7550BFE6 		sxth	r5, r5
 2205 03d0 0E40A0D1 		movle	r4, lr
 2206 03d4 0040A0C3 		movgt	r4, #0
 2207 03d8 0080E0E3 		mvn	r8, #0
 2208 03dc D2FFFFEA 		b	.L86
 2209              	.LVL190:
 2210              	.L91:
 2211              	.LBE2779:
 2212              	.LBE2782:
 2213              	.LBE2796:
 2214              	.LBE2801:
 2215              	.LBE2806:
 2216              	.LBE2811:
 2217              	.LBE2816:
 2218              	.LBE2852:
 2219              	.LBB2853:
 2220              	.LBB2722:
 2221              	.LBB2714:
 2222              	.LBB2706:
 346:C:/Renesas/e2studio_2021_01_workspace_RZA2M_ANPR/ANPR_RZA2M_RDK/src/tensorflow_lite/src/third_party/gemmlowp/fixedpoint\fixedpoint.h ****   std::int32_t ab_32 = a_32 * b_32;
 2223              		.loc 4 346 0
 2224 03e0 5A3A05E3 		movw	r3, #23130
 347:C:/Renesas/e2studio_2021_01_workspace_RZA2M_ANPR/ANPR_RZA2M_RDK/src/tensorflow_lite/src/third_party/gemmlowp/fixedpoint\fixedpoint.h ****   std::int16_t nudge = ab_32 >= 0 ? (1 << 14) : (1 - (1 << 14));
 2225              		.loc 4 347 0
 2226 03e4 A6050AE3 		movw	r0, #42406
 2227              	.LVL191:
 2228              	.LBE2706:
 2229              	.LBE2714:
 2230              	.LBE2722:
 2231              	.LBE2853:
 2232              	.LBE2855:
 2233              	.LBE2884:
 2234              	.LBB2885:
 2235              	.LBB2691:
 2236              	.LBB2689:
  95:C:/Renesas/e2studio_2021_01_workspace_RZA2M_ANPR/ANPR_RZA2M_RDK/src/tensorflow_lite/src/third_party/gemmlowp/fixedpoint\fixedpoint.h **** }
 2237              		.loc 4 95 0
 2238 03e8 03C0A0E1 		mov	ip, r3
 2239              	.LBE2689:
 2240              	.LBE2691:
 2241              	.LBE2885:
 2242              	.LBB2886:
 2243              	.LBB2856:
 2244              	.LBB2854:
 2245              	.LBB2723:
 2246              	.LBB2715:
 2247              	.LBB2707:
 347:C:/Renesas/e2studio_2021_01_workspace_RZA2M_ANPR/ANPR_RZA2M_RDK/src/tensorflow_lite/src/third_party/gemmlowp/fixedpoint\fixedpoint.h ****   std::int16_t nudge = ab_32 >= 0 ? (1 << 14) : (1 - (1 << 14));
 2248              		.loc 4 347 0
 2249 03ec FF0F4FE3 		movt	r0, 65535
 2250              	.LBE2707:
 2251              	.LBE2715:
 2252              	.LBE2723:
 2253              	.LBE2854:
 2254              	.LBE2856:
 2255              	.LBE2886:
 2256              	.LBB2887:
 2257              	.LBB2671:
 2258              	.LBB2668:
 250:C:/Renesas/e2studio_2021_01_workspace_RZA2M_ANPR/ANPR_RZA2M_RDK/src/tensorflow_lite/src/third_party/gemmlowp/fixedpoint\fixedpoint.h **** }
 2259              		.loc 4 250 0
 2260 03f0 0020E0E3 		mvn	r2, #0
 2261              	.LVL192:
 2262              	.L70:
 2263 03f4 01100CE3 		movw	r1, #49153
 2264 03f8 FF1F4FE3 		movt	r1, 65535
 2265 03fc 19FFFFEA 		b	.L72
 2266              	.LVL193:
 2267              	.L109:
 2268 0400 05E00EE0 		and	lr, lr, r5
 2269 0404 04E02EE0 		eor	lr, lr, r4
 2270 0408 7EE0FFE6 		uxth	lr, lr
 2271 040c 91FFFFEA 		b	.L85
 2272              	.LVL194:
 2273              	.L106:
 2274 0410 5830EEE7 		ubfx	r3, r8, #0, #15
 2275 0414 0C3023E0 		eor	r3, r3, ip
 2276 0418 7330FFE6 		uxth	r3, r3
 2277 041c 74FFFFEA 		b	.L78
 2278              	.LBE2668:
 2279              	.LBE2671:
 2280              	.LBE2887:
 2281              		.cfi_endproc
 2282              	.LFE4528:
 2283              		.cantunwind
 2284              		.fnend
 2286              		.section	.text._ZN8gemmlowp55exp_on_interval_between_negative_one_quarter_and_0_exclIlEENS_10Fixed
 2287              		.align	2
 2288              		.weak	_ZN8gemmlowp55exp_on_interval_between_negative_one_quarter_and_0_exclIlEENS_10FixedPointIT_L
 2289              		.syntax unified
 2290              		.arm
 2291              		.fpu neon
 2293              	_ZN8gemmlowp55exp_on_interval_between_negative_one_quarter_and_0_exclIlEENS_10FixedPointIT_Li0EEES3
 2294              		.fnstart
 2295              	.LFB4559:
 721:C:/Renesas/e2studio_2021_01_workspace_RZA2M_ANPR/ANPR_RZA2M_RDK/src/tensorflow_lite/src/third_party/gemmlowp/fixedpoint\fixedpoint.h ****     FixedPoint<tRawType, 0> a) {
 2296              		.loc 4 721 0
 2297              		.cfi_startproc
 2298              		@ args = 0, pretend = 0, frame = 0
 2299              		@ frame_needed = 0, uses_anonymous_args = 0
 2300              		@ link register save eliminated.
 2301              	.LVL195:
 2302 0000 F0032DE9 		push	{r4, r5, r6, r7, r8, r9}
 2303              		.cfi_def_cfa_offset 24
 2304              		.cfi_offset 4, -24
 2305              		.cfi_offset 5, -20
 2306              		.cfi_offset 6, -16
 2307              		.cfi_offset 7, -12
 2308              		.cfi_offset 8, -8
 2309              		.cfi_offset 9, -4
 2310              	.LBB3026:
 2311              	.LBB3027:
 2312              	.LBB3028:
 2313              	.LBB3029:
 337:C:/Renesas/e2studio_2021_01_workspace_RZA2M_ANPR/ANPR_RZA2M_RDK/src/tensorflow_lite/src/third_party/gemmlowp/fixedpoint\fixedpoint.h ****   return overflow ? std::numeric_limits<std::int32_t>::max() : ab_x2_high32;
 2314              		.loc 4 337 0
 2315 0004 0141A0E3 		mov	r4, #1073741824
 2316 0008 0050A0E3 		mov	r5, #0
 2317              	.LBE3029:
 2318              	.LBE3028:
 2319              	.LBE3027:
 2320              	.LBE3026:
 2321              	.LBB3033:
 2322              	.LBB3034:
 2323              	.LBB3035:
  95:C:/Renesas/e2studio_2021_01_workspace_RZA2M_ANPR/ANPR_RZA2M_RDK/src/tensorflow_lite/src/third_party/gemmlowp/fixedpoint\fixedpoint.h **** }
 2324              		.loc 4 95 0
 2325 000c 010280E2 		add	r0, r0, #268435456
 2326              	.LVL196:
 2327              	.LBE3035:
 2328              	.LBE3034:
 2329              	.LBE3033:
 2330              	.LBB3036:
 2331              	.LBB3032:
 2332              	.LBB3031:
 2333              	.LBB3030:
 337:C:/Renesas/e2studio_2021_01_workspace_RZA2M_ANPR/ANPR_RZA2M_RDK/src/tensorflow_lite/src/third_party/gemmlowp/fixedpoint\fixedpoint.h ****   return overflow ? std::numeric_limits<std::int32_t>::max() : ab_x2_high32;
 2334              		.loc 4 337 0
 2335 0010 0460A0E1 		mov	r6, r4
 2336 0014 0570A0E1 		mov	r7, r5
 2337 0018 9060E7E0 		smlal	r6, r7, r0, r0
 2338 001c 0030A0E3 		mov	r3, #0
 2339 0020 C72FA0E1 		asr	r2, r7, #31
 2340 0024 0221C2E3 		bic	r2, r2, #-2147483648
 2341 0028 062092E0 		adds	r2, r2, r6
 2342 002c A22FA0E1 		lsr	r2, r2, #31
 2343 0030 0730A3E0 		adc	r3, r3, r7
 2344 0034 832082E1 		orr	r2, r2, r3, lsl #1
 2345              	.LVL197:
 2346              	.LBE3030:
 2347              	.LBE3031:
 2348              	.LBE3032:
 2349              	.LBE3036:
 2350              	.LBB3037:
 2351              	.LBB3038:
 2352              	.LBB3039:
 2353              	.LBB3040:
 334:C:/Renesas/e2studio_2021_01_workspace_RZA2M_ANPR/ANPR_RZA2M_RDK/src/tensorflow_lite/src/third_party/gemmlowp/fixedpoint\fixedpoint.h ****   std::int32_t nudge = ab_64 >= 0 ? (1 << 30) : (1 - (1 << 30));
 2354              		.loc 4 334 0
 2355 0038 9260C7E0 		smull	r6, r7, r2, r0
 331:C:/Renesas/e2studio_2021_01_workspace_RZA2M_ANPR/ANPR_RZA2M_RDK/src/tensorflow_lite/src/third_party/gemmlowp/fixedpoint\fixedpoint.h ****   std::int64_t a_64(a);
 2356              		.loc 4 331 0
 2357 003c 020050E1 		cmp	r0, r2
 2358 0040 02015203 		cmpeq	r2, #-2147483648
 2359 0044 0110A003 		moveq	r1, #1
 2360 0048 0010A013 		movne	r1, #0
 2361              	.LVL198:
 335:C:/Renesas/e2studio_2021_01_workspace_RZA2M_ANPR/ANPR_RZA2M_RDK/src/tensorflow_lite/src/third_party/gemmlowp/fixedpoint\fixedpoint.h ****   std::int32_t ab_x2_high32 =
 2362              		.loc 4 335 0
 2363 004c 000056E3 		cmp	r6, #0
 2364 0050 00C0D7E2 		sbcs	ip, r7, #0
 2365 0054 0741A0B3 		movlt	r4, #-1073741823
 2366 0058 0050E0B3 		mvnlt	r5, #0
 2367              	.LVL199:
 338:C:/Renesas/e2studio_2021_01_workspace_RZA2M_ANPR/ANPR_RZA2M_RDK/src/tensorflow_lite/src/third_party/gemmlowp/fixedpoint\fixedpoint.h **** }
 2368              		.loc 4 338 0
 2369 005c 000051E3 		cmp	r1, #0
 2370 0060 4D00001A 		bne	.L118
 337:C:/Renesas/e2studio_2021_01_workspace_RZA2M_ANPR/ANPR_RZA2M_RDK/src/tensorflow_lite/src/third_party/gemmlowp/fixedpoint\fixedpoint.h ****   return overflow ? std::numeric_limits<std::int32_t>::max() : ab_x2_high32;
 2371              		.loc 4 337 0
 2372 0064 046096E0 		adds	r6, r6, r4
 2373              	.LVL200:
 2374 0068 0570A7E0 		adc	r7, r7, r5
 2375 006c 0050A0E3 		mov	r5, #0
 2376 0070 C74FA0E1 		asr	r4, r7, #31
 2377              	.LVL201:
 2378 0074 0241C4E3 		bic	r4, r4, #-2147483648
 2379 0078 046096E0 		adds	r6, r6, r4
 2380 007c 0570A7E0 		adc	r7, r7, r5
 2381 0080 A66FA0E1 		lsr	r6, r6, #31
 2382              	.LBE3040:
 2383              	.LBE3039:
 2384              	.LBE3038:
 2385              	.LBE3037:
 2386              	.LBB3047:
 2387              	.LBB3048:
 2388              	.LBB3049:
 2389              	.LBB3050:
 338:C:/Renesas/e2studio_2021_01_workspace_RZA2M_ANPR/ANPR_RZA2M_RDK/src/tensorflow_lite/src/third_party/gemmlowp/fixedpoint\fixedpoint.h **** }
 2390              		.loc 4 338 0
 2391 0084 020152E3 		cmp	r2, #-2147483648
 2392              	.LBE3050:
 2393              	.LBE3049:
 2394              	.LBE3048:
 2395              	.LBE3047:
 2396              	.LBB3057:
 2397              	.LBB3045:
 2398              	.LBB3043:
 2399              	.LBB3041:
 337:C:/Renesas/e2studio_2021_01_workspace_RZA2M_ANPR/ANPR_RZA2M_RDK/src/tensorflow_lite/src/third_party/gemmlowp/fixedpoint\fixedpoint.h ****   return overflow ? std::numeric_limits<std::int32_t>::max() : ab_x2_high32;
 2400              		.loc 4 337 0
 2401 0088 876086E1 		orr	r6, r6, r7, lsl #1
 2402              	.LVL202:
 2403              	.LBE3041:
 2404              	.LBE3043:
 2405              	.LBE3045:
 2406              	.LBE3057:
 2407              	.LBB3058:
 2408              	.LBB3055:
 2409              	.LBB3053:
 2410              	.LBB3051:
 338:C:/Renesas/e2studio_2021_01_workspace_RZA2M_ANPR/ANPR_RZA2M_RDK/src/tensorflow_lite/src/third_party/gemmlowp/fixedpoint\fixedpoint.h **** }
 2411              		.loc 4 338 0
 2412 008c 0242A003 		moveq	r4, #536870912
 2413 0090 2F00001A 		bne	.L124
 2414              	.LVL203:
 2415              	.L113:
 2416              	.LBE3051:
 2417              	.LBE3053:
 2418              	.LBE3055:
 2419              	.LBE3058:
 2420              	.LBB3059:
 2421              	.LBB3060:
 2422              	.LBB3061:
 2423              	.LBB3062:
 334:C:/Renesas/e2studio_2021_01_workspace_RZA2M_ANPR/ANPR_RZA2M_RDK/src/tensorflow_lite/src/third_party/gemmlowp/fixedpoint\fixedpoint.h ****   std::int32_t nudge = ab_64 >= 0 ? (1 << 30) : (1 - (1 << 30));
 2424              		.loc 4 334 0
 2425 0094 AB1A0AE3 		movw	r1, #43691
 2426              	.LBE3062:
 2427              	.LBE3061:
 2428              	.LBE3060:
 2429              	.LBE3059:
 2430              	.LBB3072:
 2431              	.LBB3073:
 2432              	.LBB3074:
  95:C:/Renesas/e2studio_2021_01_workspace_RZA2M_ANPR/ANPR_RZA2M_RDK/src/tensorflow_lite/src/third_party/gemmlowp/fixedpoint\fixedpoint.h **** }
 2433              		.loc 4 95 0
 2434 0098 064084E0 		add	r4, r4, r6
 2435              	.LVL204:
 2436              	.LBE3074:
 2437              	.LBE3073:
 2438              	.LBE3072:
 2439              	.LBB3075:
 2440              	.LBB3069:
 2441              	.LBB3066:
 2442              	.LBB3063:
 334:C:/Renesas/e2studio_2021_01_workspace_RZA2M_ANPR/ANPR_RZA2M_RDK/src/tensorflow_lite/src/third_party/gemmlowp/fixedpoint\fixedpoint.h ****   std::int32_t nudge = ab_64 >= 0 ? (1 << 30) : (1 - (1 << 30));
 2443              		.loc 4 334 0
 2444 009c AA1A42E3 		movt	r1, 10922
 2445 00a0 9441C5E0 		smull	r4, r5, r4, r1
 2446              	.LVL205:
 335:C:/Renesas/e2studio_2021_01_workspace_RZA2M_ANPR/ANPR_RZA2M_RDK/src/tensorflow_lite/src/third_party/gemmlowp/fixedpoint\fixedpoint.h ****   std::int32_t ab_x2_high32 =
 2447              		.loc 4 335 0
 2448 00a4 000054E3 		cmp	r4, #0
 2449 00a8 0010D5E2 		sbcs	r1, r5, #0
 2450 00ac 3F0000BA 		blt	.L120
 2451 00b0 0161A0E3 		mov	r6, #1073741824
 2452 00b4 0070A0E3 		mov	r7, #0
 2453              	.LVL206:
 2454              	.L112:
 337:C:/Renesas/e2studio_2021_01_workspace_RZA2M_ANPR/ANPR_RZA2M_RDK/src/tensorflow_lite/src/third_party/gemmlowp/fixedpoint\fixedpoint.h ****   return overflow ? std::numeric_limits<std::int32_t>::max() : ab_x2_high32;
 2455              		.loc 4 337 0
 2456 00b8 046096E0 		adds	r6, r6, r4
 2457              	.LVL207:
 2458 00bc 0570A7E0 		adc	r7, r7, r5
 2459 00c0 0050A0E3 		mov	r5, #0
 2460 00c4 C74FA0E1 		asr	r4, r7, #31
 2461 00c8 0241C4E3 		bic	r4, r4, #-2147483648
 2462 00cc 064094E0 		adds	r4, r4, r6
 2463 00d0 A44FA0E1 		lsr	r4, r4, #31
 2464 00d4 0750A5E0 		adc	r5, r5, r7
 2465 00d8 854084E1 		orr	r4, r4, r5, lsl #1
 2466              	.LVL208:
 2467              	.LBE3063:
 2468              	.LBE3066:
 2469              	.LBE3069:
 2470              	.LBE3075:
 2471              	.LBB3076:
 2472              	.LBB3077:
 2473              	.LBB3078:
 2474              	.LBB3079:
 2475              	.LBB3080:
 2476              	.LBB3081:
 2477              	.LBB3082:
 2478              	.LBB3083:
 158:C:/Renesas/e2studio_2021_01_workspace_RZA2M_ANPR/ANPR_RZA2M_RDK/src/tensorflow_lite/src/third_party/gemmlowp/fixedpoint\fixedpoint.h **** }
 2479              		.loc 4 158 0
 2480 00dc 042092E0 		adds	r2, r2, r4
 2481              	.LVL209:
 2482              	.LBE3083:
 2483              	.LBE3082:
 2484              	.LBE3081:
 2485              	.LBE3080:
 2486              	.LBE3079:
 2487              	.LBE3078:
 2488              	.LBE3077:
 2489              	.LBE3076:
 742:C:/Renesas/e2studio_2021_01_workspace_RZA2M_ANPR/ANPR_RZA2M_RDK/src/tensorflow_lite/src/third_party/gemmlowp/fixedpoint\fixedpoint.h **** 
 2490              		.loc 4 742 0
 2491 00e0 F003BDE8 		pop	{r4, r5, r6, r7, r8, r9}
 2492              		.cfi_remember_state
 2493              		.cfi_restore 9
 2494              		.cfi_restore 8
 2495              		.cfi_restore 7
 2496              		.cfi_restore 6
 2497              		.cfi_restore 5
 2498              		.cfi_restore 4
 2499              		.cfi_def_cfa_offset 0
 2500              	.LBB3092:
 2501              	.LBB3091:
 2502              	.LBB3090:
 2503              	.LBB3089:
 2504              	.LBB3088:
 2505              	.LBB3084:
 2506              	.LBB3085:
 141:C:/Renesas/e2studio_2021_01_workspace_RZA2M_ANPR/ANPR_RZA2M_RDK/src/tensorflow_lite/src/third_party/gemmlowp/fixedpoint\fixedpoint.h **** }
 2507              		.loc 4 141 0
 2508 00e4 C230A0E1 		asr	r3, r2, #1
 2509 00e8 0020A043 		movmi	r2, #0
 2510              	.LVL210:
 2511 00ec 01200252 		andpl	r2, r2, #1
 2512              	.LVL211:
 2513              	.LBE3085:
 2514              	.LBE3084:
 2515              	.LBB3086:
 2516              	.LBB3087:
  95:C:/Renesas/e2studio_2021_01_workspace_RZA2M_ANPR/ANPR_RZA2M_RDK/src/tensorflow_lite/src/third_party/gemmlowp/fixedpoint\fixedpoint.h **** }
 2517              		.loc 4 95 0
 2518 00f0 022083E0 		add	r2, r3, r2
 2519              	.LVL212:
 2520              	.LBE3087:
 2521              	.LBE3086:
 2522              	.LBE3088:
 2523              	.LBE3089:
 2524              	.LBE3090:
 2525              	.LBE3091:
 2526              	.LBE3092:
 2527              	.LBB3093:
 2528              	.LBB3094:
 2529              	.LBB3095:
 2530              	.LBB3096:
 334:C:/Renesas/e2studio_2021_01_workspace_RZA2M_ANPR/ANPR_RZA2M_RDK/src/tensorflow_lite/src/third_party/gemmlowp/fixedpoint\fixedpoint.h ****   std::int32_t nudge = ab_64 >= 0 ? (1 << 30) : (1 - (1 << 30));
 2531              		.loc 4 334 0
 2532 00f4 94380AE3 		movw	r3, #43156
 2533              	.LBE3096:
 2534              	.LBE3095:
 2535              	.LBE3094:
 2536              	.LBE3093:
 2537              	.LBB3100:
 2538              	.LBB3101:
 2539              	.LBB3102:
  95:C:/Renesas/e2studio_2021_01_workspace_RZA2M_ANPR/ANPR_RZA2M_RDK/src/tensorflow_lite/src/third_party/gemmlowp/fixedpoint\fixedpoint.h **** }
 2540              		.loc 4 95 0
 2541 00f8 002082E0 		add	r2, r2, r0
 2542              	.LBE3102:
 2543              	.LBE3101:
 2544              	.LBE3100:
 2545              	.LBB3103:
 2546              	.LBB3099:
 2547              	.LBB3098:
 2548              	.LBB3097:
 334:C:/Renesas/e2studio_2021_01_workspace_RZA2M_ANPR/ANPR_RZA2M_RDK/src/tensorflow_lite/src/third_party/gemmlowp/fixedpoint\fixedpoint.h ****   std::int32_t nudge = ab_64 >= 0 ? (1 << 30) : (1 - (1 << 30));
 2549              		.loc 4 334 0
 2550 00fc F53047E3 		movt	r3, 28917
 2551 0100 9203C1E0 		smull	r0, r1, r2, r3
 2552              	.LVL213:
 335:C:/Renesas/e2studio_2021_01_workspace_RZA2M_ANPR/ANPR_RZA2M_RDK/src/tensorflow_lite/src/third_party/gemmlowp/fixedpoint\fixedpoint.h ****   std::int32_t ab_x2_high32 =
 2553              		.loc 4 335 0
 2554 0104 000050E3 		cmp	r0, #0
 2555 0108 0030D1E2 		sbcs	r3, r1, #0
 2556 010c 0121A0A3 		movge	r2, #1073741824
 2557 0110 0721A0B3 		movlt	r2, #-1073741823
 2558 0114 0030A0A3 		movge	r3, #0
 2559 0118 0030E0B3 		mvnlt	r3, #0
 2560              	.LVL214:
 337:C:/Renesas/e2studio_2021_01_workspace_RZA2M_ANPR/ANPR_RZA2M_RDK/src/tensorflow_lite/src/third_party/gemmlowp/fixedpoint\fixedpoint.h ****   return overflow ? std::numeric_limits<std::int32_t>::max() : ab_x2_high32;
 2561              		.loc 4 337 0
 2562 011c 002092E0 		adds	r2, r2, r0
 2563              	.LVL215:
 2564 0120 0130A3E0 		adc	r3, r3, r1
 2565 0124 0010A0E3 		mov	r1, #0
 2566 0128 C30FA0E1 		asr	r0, r3, #31
 2567 012c 0201C0E3 		bic	r0, r0, #-2147483648
 2568 0130 020090E0 		adds	r0, r0, r2
 2569 0134 A00FA0E1 		lsr	r0, r0, #31
 2570 0138 0310A1E0 		adc	r1, r1, r3
 2571 013c 810080E1 		orr	r0, r0, r1, lsl #1
 2572              	.LBE3097:
 2573              	.LBE3098:
 2574              	.LBE3099:
 2575              	.LBE3103:
 2576              	.LBB3104:
 2577              	.LBB3105:
 2578              	.LBB3106:
 2579              	.LBB3107:
 2580              	.LBB3108:
 2581              	.LBB3109:
  95:C:/Renesas/e2studio_2021_01_workspace_RZA2M_ANPR/ANPR_RZA2M_RDK/src/tensorflow_lite/src/third_party/gemmlowp/fixedpoint\fixedpoint.h **** }
 2582              		.loc 4 95 0
 2583 0140 070280E2 		add	r0, r0, #1879048192
 2584 0144 F50880E2 		add	r0, r0, #16056320
 2585 0148 2A0B80E2 		add	r0, r0, #43008
 2586 014c 940080E2 		add	r0, r0, #148
 2587              	.LVL216:
 2588              	.LBE3109:
 2589              	.LBE3108:
 2590              	.LBE3107:
 2591              	.LBE3106:
 2592              	.LBE3105:
 2593              	.LBE3104:
 742:C:/Renesas/e2studio_2021_01_workspace_RZA2M_ANPR/ANPR_RZA2M_RDK/src/tensorflow_lite/src/third_party/gemmlowp/fixedpoint\fixedpoint.h **** 
 2594              		.loc 4 742 0
 2595 0150 1EFF2FE1 		bx	lr
 2596              	.LVL217:
 2597              	.L124:
 2598              		.cfi_restore_state
 2599              	.LBB3110:
 2600              	.LBB3056:
 2601              	.LBB3054:
 2602              	.LBB3052:
 337:C:/Renesas/e2studio_2021_01_workspace_RZA2M_ANPR/ANPR_RZA2M_RDK/src/tensorflow_lite/src/third_party/gemmlowp/fixedpoint\fixedpoint.h ****   return overflow ? std::numeric_limits<std::int32_t>::max() : ab_x2_high32;
 2603              		.loc 4 337 0
 2604 0154 0141A0E3 		mov	r4, #1073741824
 2605 0158 0050A0E3 		mov	r5, #0
 2606 015c 9242E5E0 		smlal	r4, r5, r2, r2
 2607 0160 0090A0E3 		mov	r9, #0
 2608 0164 C58FA0E1 		asr	r8, r5, #31
 2609 0168 0281C8E3 		bic	r8, r8, #-2147483648
 2610 016c 048098E0 		adds	r8, r8, r4
 2611 0170 A88FA0E1 		lsr	r8, r8, #31
 2612 0174 0590A9E0 		adc	r9, r9, r5
 2613 0178 898088E1 		orr	r8, r8, r9, lsl #1
 2614              	.LVL218:
 2615 017c A84FA0E1 		lsr	r4, r8, #31
 2616 0180 4811A0E1 		asr	r1, r8, #2
 2617 0184 01C084E2 		add	ip, r4, #1
 2618              	.LBE3052:
 2619              	.LBE3054:
 2620              	.LBE3056:
 2621              	.LBE3110:
 2622              	.LBB3111:
 2623              	.LBB3112:
 2624              	.LBB3113:
 2625              	.LBB3114:
 2626              	.LBB3115:
 2627              	.LBB3116:
 2628              	.LBB3117:
  71:C:/Renesas/e2studio_2021_01_workspace_RZA2M_ANPR/ANPR_RZA2M_RDK/src/tensorflow_lite/src/third_party/gemmlowp/fixedpoint\fixedpoint.h **** }
 2629              		.loc 4 71 0
 2630 0188 034008E2 		and	r4, r8, #3
 2631 018c 0C0054E1 		cmp	r4, ip
 2632 0190 0140A0D1 		movle	r4, r1
 2633 0194 014081C2 		addgt	r4, r1, #1
 2634 0198 BDFFFFEA 		b	.L113
 2635              	.LVL219:
 2636              	.L118:
 2637              	.LBE3117:
 2638              	.LBE3116:
 2639              	.LBE3115:
 2640              	.LBE3114:
 2641              	.LBE3113:
 2642              	.LBE3112:
 2643              	.LBE3111:
 2644              	.LBB3118:
 2645              	.LBB3070:
 2646              	.LBB3067:
 2647              	.LBB3064:
 334:C:/Renesas/e2studio_2021_01_workspace_RZA2M_ANPR/ANPR_RZA2M_RDK/src/tensorflow_lite/src/third_party/gemmlowp/fixedpoint\fixedpoint.h ****   std::int32_t nudge = ab_64 >= 0 ? (1 << 30) : (1 - (1 << 30));
 2648              		.loc 4 334 0
 2649 019c 1C508FE2 		adr	r5, .L125
 2650 01a0 D040C5E1 		ldrd	r4, [r5]
 2651              	.LVL220:
 2652              	.LBE3064:
 2653              	.LBE3067:
 2654              	.LBE3070:
 2655              	.LBE3118:
 2656              	.LBB3119:
 2657              	.LBB3046:
 2658              	.LBB3044:
 2659              	.LBB3042:
 338:C:/Renesas/e2studio_2021_01_workspace_RZA2M_ANPR/ANPR_RZA2M_RDK/src/tensorflow_lite/src/third_party/gemmlowp/fixedpoint\fixedpoint.h **** }
 2660              		.loc 4 338 0
 2661 01a4 0761A0E3 		mov	r6, #-1073741823
 2662              	.LVL221:
 2663 01a8 0070E0E3 		mvn	r7, #0
 2664 01ac C1FFFFEA 		b	.L112
 2665              	.LVL222:
 2666              	.L120:
 2667              	.LBE3042:
 2668              	.LBE3044:
 2669              	.LBE3046:
 2670              	.LBE3119:
 2671              	.LBB3120:
 2672              	.LBB3071:
 2673              	.LBB3068:
 2674              	.LBB3065:
 335:C:/Renesas/e2studio_2021_01_workspace_RZA2M_ANPR/ANPR_RZA2M_RDK/src/tensorflow_lite/src/third_party/gemmlowp/fixedpoint\fixedpoint.h ****   std::int32_t ab_x2_high32 =
 2675              		.loc 4 335 0
 2676 01b0 0761A0E3 		mov	r6, #-1073741823
 2677 01b4 0070E0E3 		mvn	r7, #0
 2678 01b8 BEFFFFEA 		b	.L112
 2679              	.L126:
 2680 01bc 00F020E3 		.align	3
 2681              	.L125:
 2682 01c0 555555B5 		.word	-1252698795
 2683 01c4 FFFFFFEF 		.word	-268435457
 2684              	.LBE3065:
 2685              	.LBE3068:
 2686              	.LBE3071:
 2687              	.LBE3120:
 2688              		.cfi_endproc
 2689              	.LFE4559:
 2690              		.cantunwind
 2691              		.fnend
 2693              		.section	.text._ZN8gemmlowp22exp_on_negative_valuesIlLi5EEENS_10FixedPointIT_Li0EEENS1_IS2_XT0_EEE
 2694              		.align	2
 2695              		.weak	_ZN8gemmlowp22exp_on_negative_valuesIlLi5EEENS_10FixedPointIT_Li0EEENS1_IS2_XT0_EEE
 2696              		.syntax unified
 2697              		.arm
 2698              		.fpu neon
 2700              	_ZN8gemmlowp22exp_on_negative_valuesIlLi5EEENS_10FixedPointIT_Li0EEENS1_IS2_XT0_EEE:
 2701              		.fnstart
 2702              	.LFB4519:
 746:C:/Renesas/e2studio_2021_01_workspace_RZA2M_ANPR/ANPR_RZA2M_RDK/src/tensorflow_lite/src/third_party/gemmlowp/fixedpoint\fixedpoint.h ****     FixedPoint<tRawType, tIntegerBits> a) {
 2703              		.loc 4 746 0
 2704              		.cfi_startproc
 2705              		@ args = 0, pretend = 0, frame = 0
 2706              		@ frame_needed = 0, uses_anonymous_args = 0
 2707              	.LVL223:
 2708 0000 F84F2DE9 		push	{r3, r4, r5, r6, r7, r8, r9, r10, fp, lr}
 2709              		.cfi_def_cfa_offset 40
 2710              		.cfi_offset 3, -40
 2711              		.cfi_offset 4, -36
 2712              		.cfi_offset 5, -32
 2713              		.cfi_offset 6, -28
 2714              		.cfi_offset 7, -24
 2715              		.cfi_offset 8, -20
 2716              		.cfi_offset 9, -16
 2717              		.cfi_offset 10, -12
 2718              		.cfi_offset 11, -8
 2719              		.cfi_offset 14, -4
 2720              	.LBB3476:
 2721              	.LBB3477:
 2722              	.LBB3478:
 106:C:/Renesas/e2studio_2021_01_workspace_RZA2M_ANPR/ANPR_RZA2M_RDK/src/tensorflow_lite/src/third_party/gemmlowp/fixedpoint\fixedpoint.h **** }
 2723              		.loc 4 106 0
 2724 0004 FF5480E3 		orr	r5, r0, #-16777216
 2725              	.LBE3478:
 2726              	.LBE3477:
 2727              	.LBE3476:
 2728              	.LBB3479:
 2729              	.LBB3480:
 2730              	.LBB3481:
 2731              	.LBB3482:
 2732              	.LBB3483:
 334:C:/Renesas/e2studio_2021_01_workspace_RZA2M_ANPR/ANPR_RZA2M_RDK/src/tensorflow_lite/src/third_party/gemmlowp/fixedpoint\fixedpoint.h ****   std::int32_t nudge = ab_64 >= 0 ? (1 << 30) : (1 - (1 << 30));
 2733              		.loc 4 334 0
 2734 0008 7B8E0BE3 		movw	r8, #48763
 2735              	.LBE3483:
 2736              	.LBE3482:
 2737              	.LBE3481:
 2738              	.LBE3480:
 2739              	.LBE3479:
 746:C:/Renesas/e2studio_2021_01_workspace_RZA2M_ANPR/ANPR_RZA2M_RDK/src/tensorflow_lite/src/third_party/gemmlowp/fixedpoint\fixedpoint.h ****     FixedPoint<tRawType, tIntegerBits> a) {
 2740              		.loc 4 746 0
 2741 000c 0040A0E1 		mov	r4, r0
 2742              	.LVL224:
 2743              	.LBB3526:
 2744              	.LBB3505:
 2745              	.LBB3498:
 2746              	.LBB3491:
 2747              	.LBB3484:
 334:C:/Renesas/e2studio_2021_01_workspace_RZA2M_ANPR/ANPR_RZA2M_RDK/src/tensorflow_lite/src/third_party/gemmlowp/fixedpoint\fixedpoint.h ****   std::int32_t nudge = ab_64 >= 0 ? (1 << 30) : (1 - (1 << 30));
 2748              		.loc 4 334 0
 2749 0010 AF8346E3 		movt	r8, 25519
 2750              	.LBE3484:
 2751              	.LBE3491:
 2752              	.LBE3498:
 2753              	.LBE3505:
 2754              	.LBE3526:
 756:C:/Renesas/e2studio_2021_01_workspace_RZA2M_ANPR/ANPR_RZA2M_RDK/src/tensorflow_lite/src/third_party/gemmlowp/fixedpoint\fixedpoint.h ****   tRawType remainder = (a_mod_quarter_minus_one_quarter - a).raw();
 2755              		.loc 4 756 0
 2756 0014 8502A0E1 		lsl	r0, r5, #5
 2757              	.LVL225:
 2758 0018 FEFFFFEB 		bl	_ZN8gemmlowp55exp_on_interval_between_negative_one_quarter_and_0_exclIlEENS_10FixedPointIT_Li0E
 2759              	.LVL226:
 2760              	.LBB3527:
 2761              	.LBB3506:
 2762              	.LBB3499:
 2763              	.LBB3492:
 2764              	.LBB3485:
 334:C:/Renesas/e2studio_2021_01_workspace_RZA2M_ANPR/ANPR_RZA2M_RDK/src/tensorflow_lite/src/third_party/gemmlowp/fixedpoint\fixedpoint.h ****   std::int32_t nudge = ab_64 >= 0 ? (1 << 30) : (1 - (1 << 30));
 2765              		.loc 4 334 0
 2766 001c 9088C9E0 		smull	r8, r9, r0, r8
 2767              	.LBE3485:
 2768              	.LBE3492:
 2769              	.LBE3499:
 2770              	.LBE3506:
 2771              	.LBE3527:
 2772              	.LBB3528:
 2773              	.LBB3529:
 2774              	.LBB3530:
 106:C:/Renesas/e2studio_2021_01_workspace_RZA2M_ANPR/ANPR_RZA2M_RDK/src/tensorflow_lite/src/third_party/gemmlowp/fixedpoint\fixedpoint.h **** }
 2775              		.loc 4 106 0
 2776 0020 043045E0 		sub	r3, r5, r4
 2777              	.LVL227:
 2778              	.LBE3530:
 2779              	.LBE3529:
 2780              	.LBE3528:
 2781              	.LBB3531:
 2782              	.LBB3507:
 2783              	.LBB3508:
 158:C:/Renesas/e2studio_2021_01_workspace_RZA2M_ANPR/ANPR_RZA2M_RDK/src/tensorflow_lite/src/third_party/gemmlowp/fixedpoint\fixedpoint.h **** }
 2784              		.loc 4 158 0
 2785 0024 532CE0E7 		ubfx	r2, r3, #24, #1
 2786              	.LBE3508:
 2787              	.LBE3507:
 2788              	.LBE3531:
 2789              	.LBB3532:
 2790              	.LBB3533:
 2791              	.LBB3534:
 2792 0028 535DE0E7 		ubfx	r5, r3, #26, #1
 2793              	.LVL228:
 2794              	.LBE3534:
 2795              	.LBE3533:
 2796              	.LBE3532:
 2797              	.LBB3567:
 2798              	.LBB3510:
 2799              	.LBB3509:
 2800 002c 001062E2 		rsb	r1, r2, #0
 2801              	.LVL229:
 2802              	.LBE3509:
 2803              	.LBE3510:
 2804              	.LBB3511:
 2805              	.LBB3512:
 2806              	.LBB3513:
 2807              	.LBB3514:
  71:C:/Renesas/e2studio_2021_01_workspace_RZA2M_ANPR/ANPR_RZA2M_RDK/src/tensorflow_lite/src/third_party/gemmlowp/fixedpoint\fixedpoint.h **** }
 2808              		.loc 4 71 0
 2809 0030 012042E2 		sub	r2, r2, #1
 2810 0034 020000E0 		and	r0, r0, r2
 2811              	.LVL230:
 2812              	.LBE3514:
 2813              	.LBE3513:
 2814              	.LBE3512:
 2815              	.LBE3511:
 2816              	.LBE3567:
 2817              	.LBB3568:
 2818              	.LBB3569:
 2819              	.LBB3570:
 2820              	.LBB3571:
 2821              	.LBB3572:
 334:C:/Renesas/e2studio_2021_01_workspace_RZA2M_ANPR/ANPR_RZA2M_RDK/src/tensorflow_lite/src/third_party/gemmlowp/fixedpoint\fixedpoint.h ****   std::int32_t nudge = ab_64 >= 0 ? (1 << 30) : (1 - (1 << 30));
 2822              		.loc 4 334 0
 2823 0038 F22B0CE3 		movw	r2, #52210
 2824              	.LBE3572:
 2825              	.LBE3571:
 2826              	.LBE3570:
 2827              	.LBE3569:
 2828              	.LBE3568:
 2829              	.LBB3613:
 2830              	.LBB3614:
 2831              	.LBB3615:
 2832              	.LBB3616:
 158:C:/Renesas/e2studio_2021_01_workspace_RZA2M_ANPR/ANPR_RZA2M_RDK/src/tensorflow_lite/src/third_party/gemmlowp/fixedpoint\fixedpoint.h **** }
 2833              		.loc 4 158 0
 2834 003c 144F6FE1 		clz	r4, r4
 2835              	.LVL231:
 2836              	.LBE3616:
 2837              	.LBE3615:
 2838              	.LBE3614:
 2839              	.LBE3613:
 2840              	.LBB3623:
 2841              	.LBB3520:
 2842              	.LBB3500:
 2843              	.LBB3493:
 2844              	.LBB3486:
 335:C:/Renesas/e2studio_2021_01_workspace_RZA2M_ANPR/ANPR_RZA2M_RDK/src/tensorflow_lite/src/third_party/gemmlowp/fixedpoint\fixedpoint.h ****   std::int32_t ab_x2_high32 =
 2845              		.loc 4 335 0
 2846 0040 000058E3 		cmp	r8, #0
 2847              	.LBE3486:
 2848              	.LBE3493:
 2849              	.LBE3500:
 2850              	.LBE3520:
 2851              	.LBE3623:
 2852              	.LBB3624:
 2853              	.LBB3588:
 2854              	.LBB3583:
 2855              	.LBB3578:
 2856              	.LBB3573:
 334:C:/Renesas/e2studio_2021_01_workspace_RZA2M_ANPR/ANPR_RZA2M_RDK/src/tensorflow_lite/src/third_party/gemmlowp/fixedpoint\fixedpoint.h ****   std::int32_t nudge = ab_64 >= 0 ? (1 << 30) : (1 - (1 << 30));
 2857              		.loc 4 334 0
 2858 0044 A22D44E3 		movt	r2, 19874
 2859              	.LBE3573:
 2860              	.LBE3578:
 2861              	.LBE3583:
 2862              	.LBE3588:
 2863              	.LBE3624:
 2864              	.LBB3625:
 2865              	.LBB3521:
 2866              	.LBB3501:
 2867              	.LBB3494:
 2868              	.LBB3487:
 335:C:/Renesas/e2studio_2021_01_workspace_RZA2M_ANPR/ANPR_RZA2M_RDK/src/tensorflow_lite/src/third_party/gemmlowp/fixedpoint\fixedpoint.h ****   std::int32_t ab_x2_high32 =
 2869              		.loc 4 335 0
 2870 0048 00C0D9E2 		sbcs	ip, r9, #0
 2871              	.LBE3487:
 2872              	.LBE3494:
 2873              	.LBE3501:
 2874              	.LBE3521:
 2875              	.LBE3625:
 2876              	.LBB3626:
 2877              	.LBB3589:
 2878              	.LBB3590:
 158:C:/Renesas/e2studio_2021_01_workspace_RZA2M_ANPR/ANPR_RZA2M_RDK/src/tensorflow_lite/src/third_party/gemmlowp/fixedpoint\fixedpoint.h **** }
 2879              		.loc 4 158 0
 2880 004c D3CCE0E7 		ubfx	ip, r3, #25, #1
 2881              	.LBE3590:
 2882              	.LBE3589:
 2883              	.LBE3626:
 2884              	.LBB3627:
 2885              	.LBB3522:
 2886              	.LBB3502:
 2887              	.LBB3495:
 2888              	.LBB3488:
 335:C:/Renesas/e2studio_2021_01_workspace_RZA2M_ANPR/ANPR_RZA2M_RDK/src/tensorflow_lite/src/third_party/gemmlowp/fixedpoint\fixedpoint.h ****   std::int32_t ab_x2_high32 =
 2889              		.loc 4 335 0
 2890 0050 0161A0A3 		movge	r6, #1073741824
 2891 0054 0761A0B3 		movlt	r6, #-1073741823
 2892 0058 0070A0A3 		movge	r7, #0
 2893 005c 0070E0B3 		mvnlt	r7, #0
 2894              	.LVL232:
 337:C:/Renesas/e2studio_2021_01_workspace_RZA2M_ANPR/ANPR_RZA2M_RDK/src/tensorflow_lite/src/third_party/gemmlowp/fixedpoint\fixedpoint.h ****   return overflow ? std::numeric_limits<std::int32_t>::max() : ab_x2_high32;
 2895              		.loc 4 337 0
 2896 0060 068098E0 		adds	r8, r8, r6
 2897              	.LVL233:
 2898              	.LBE3488:
 2899              	.LBE3495:
 2900              	.LBE3502:
 2901              	.LBE3522:
 2902              	.LBE3627:
 2903              	.LBB3628:
 2904              	.LBB3592:
 2905              	.LBB3591:
 158:C:/Renesas/e2studio_2021_01_workspace_RZA2M_ANPR/ANPR_RZA2M_RDK/src/tensorflow_lite/src/third_party/gemmlowp/fixedpoint\fixedpoint.h **** }
 2906              		.loc 4 158 0
 2907 0064 00E06CE2 		rsb	lr, ip, #0
 2908              	.LBE3591:
 2909              	.LBE3592:
 2910              	.LBE3628:
 2911              	.LBB3629:
 2912              	.LBB3523:
 2913              	.LBB3503:
 2914              	.LBB3496:
 2915              	.LBB3489:
 337:C:/Renesas/e2studio_2021_01_workspace_RZA2M_ANPR/ANPR_RZA2M_RDK/src/tensorflow_lite/src/third_party/gemmlowp/fixedpoint\fixedpoint.h ****   return overflow ? std::numeric_limits<std::int32_t>::max() : ab_x2_high32;
 2916              		.loc 4 337 0
 2917 0068 0790A9E0 		adc	r9, r9, r7
 2918 006c 0070A0E3 		mov	r7, #0
 2919 0070 C96FA0E1 		asr	r6, r9, #31
 2920              	.LBE3489:
 2921              	.LBE3496:
 2922              	.LBE3503:
 2923              	.LBE3523:
 2924              	.LBE3629:
 2925              	.LBB3630:
 2926              	.LBB3593:
 2927              	.LBB3594:
 2928              	.LBB3595:
 2929              	.LBB3596:
  71:C:/Renesas/e2studio_2021_01_workspace_RZA2M_ANPR/ANPR_RZA2M_RDK/src/tensorflow_lite/src/third_party/gemmlowp/fixedpoint\fixedpoint.h **** }
 2930              		.loc 4 71 0
 2931 0074 01C04CE2 		sub	ip, ip, #1
 2932              	.LBE3596:
 2933              	.LBE3595:
 2934              	.LBE3594:
 2935              	.LBE3593:
 2936              	.LBE3630:
 2937              	.LBB3631:
 2938              	.LBB3621:
 2939              	.LBB3619:
 2940              	.LBB3617:
 158:C:/Renesas/e2studio_2021_01_workspace_RZA2M_ANPR/ANPR_RZA2M_RDK/src/tensorflow_lite/src/third_party/gemmlowp/fixedpoint\fixedpoint.h **** }
 2941              		.loc 4 158 0
 2942 0078 A442A0E1 		lsr	r4, r4, #5
 2943              	.LBE3617:
 2944              	.LBE3619:
 2945              	.LBE3621:
 2946              	.LBE3631:
 2947              	.LBB3632:
 2948              	.LBB3524:
 2949              	.LBB3504:
 2950              	.LBB3497:
 2951              	.LBB3490:
 337:C:/Renesas/e2studio_2021_01_workspace_RZA2M_ANPR/ANPR_RZA2M_RDK/src/tensorflow_lite/src/third_party/gemmlowp/fixedpoint\fixedpoint.h ****   return overflow ? std::numeric_limits<std::int32_t>::max() : ab_x2_high32;
 2952              		.loc 4 337 0
 2953 007c 0261C6E3 		bic	r6, r6, #-2147483648
 2954 0080 086096E0 		adds	r6, r6, r8
 2955 0084 A66FA0E1 		lsr	r6, r6, #31
 2956 0088 0970A7E0 		adc	r7, r7, r9
 2957 008c 876086E1 		orr	r6, r6, r7, lsl #1
 2958              	.LBE3490:
 2959              	.LBE3497:
 2960              	.LBE3504:
 2961              	.LBE3524:
 2962              	.LBB3525:
 2963              	.LBB3519:
 2964              	.LBB3515:
 2965              	.LBB3516:
  71:C:/Renesas/e2studio_2021_01_workspace_RZA2M_ANPR/ANPR_RZA2M_RDK/src/tensorflow_lite/src/third_party/gemmlowp/fixedpoint\fixedpoint.h **** }
 2966              		.loc 4 71 0
 2967 0090 061001E0 		and	r1, r1, r6
 2968              	.LVL234:
 2969              	.LBE3516:
 2970              	.LBE3515:
 2971              	.LBB3517:
 2972              	.LBB3518:
  83:C:/Renesas/e2studio_2021_01_workspace_RZA2M_ANPR/ANPR_RZA2M_RDK/src/tensorflow_lite/src/third_party/gemmlowp/fixedpoint\fixedpoint.h **** }
 2973              		.loc 4 83 0
 2974 0094 010020E0 		eor	r0, r0, r1
 2975              	.LVL235:
 2976              	.LBE3518:
 2977              	.LBE3517:
 2978              	.LBE3519:
 2979              	.LBE3525:
 2980              	.LBE3632:
 2981              	.LBB3633:
 2982              	.LBB3536:
 2983              	.LBB3537:
 2984              	.LBB3538:
 2985              	.LBB3539:
 334:C:/Renesas/e2studio_2021_01_workspace_RZA2M_ANPR/ANPR_RZA2M_RDK/src/tensorflow_lite/src/third_party/gemmlowp/fixedpoint\fixedpoint.h ****   std::int32_t nudge = ab_64 >= 0 ? (1 << 30) : (1 - (1 << 30));
 2986              		.loc 4 334 0
 2987 0098 6C1C0AE3 		movw	r1, #44140
 2988              	.LBE3539:
 2989              	.LBE3538:
 2990              	.LBE3537:
 2991              	.LBE3536:
 2992              	.LBE3633:
 2993              	.LBB3634:
 2994              	.LBB3606:
 2995              	.LBB3584:
 2996              	.LBB3579:
 2997              	.LBB3574:
 2998 009c 9082C9E0 		smull	r8, r9, r0, r2
 2999              	.LVL236:
 3000              	.LBE3574:
 3001              	.LBE3579:
 3002              	.LBE3584:
 3003              	.LBE3606:
 3004              	.LBB3607:
 3005              	.LBB3603:
 3006              	.LBB3598:
 3007              	.LBB3597:
  71:C:/Renesas/e2studio_2021_01_workspace_RZA2M_ANPR/ANPR_RZA2M_RDK/src/tensorflow_lite/src/third_party/gemmlowp/fixedpoint\fixedpoint.h **** }
 3008              		.loc 4 71 0
 3009 00a0 0C0000E0 		and	r0, r0, ip
 3010              	.LVL237:
 3011              	.LBE3597:
 3012              	.LBE3598:
 3013              	.LBE3603:
 3014              	.LBE3607:
 3015              	.LBE3634:
 3016              	.LBB3635:
 3017              	.LBB3549:
 3018              	.LBB3546:
 3019              	.LBB3543:
 3020              	.LBB3540:
 334:C:/Renesas/e2studio_2021_01_workspace_RZA2M_ANPR/ANPR_RZA2M_RDK/src/tensorflow_lite/src/third_party/gemmlowp/fixedpoint\fixedpoint.h ****   std::int32_t nudge = ab_64 >= 0 ? (1 << 30) : (1 - (1 << 30));
 3021              		.loc 4 334 0
 3022 00a4 161F42E3 		movt	r1, 12054
 3023              	.LBE3540:
 3024              	.LBE3543:
 3025              	.LBE3546:
 3026              	.LBE3549:
 3027              	.LBE3635:
 3028              	.LBB3636:
 3029              	.LBB3637:
 3030              	.LBB3638:
 3031              	.LBB3639:
 3032              	.LBB3640:
 3033 00a8 A4CA0AE3 		movw	ip, #43684
 3034 00ac 52C141E3 		movt	ip, 4434
 3035              	.LBE3640:
 3036              	.LBE3639:
 3037              	.LBE3638:
 3038              	.LBE3637:
 3039              	.LBE3636:
 3040              	.LBB3681:
 3041              	.LBB3608:
 3042              	.LBB3585:
 3043              	.LBB3580:
 3044              	.LBB3575:
 335:C:/Renesas/e2studio_2021_01_workspace_RZA2M_ANPR/ANPR_RZA2M_RDK/src/tensorflow_lite/src/third_party/gemmlowp/fixedpoint\fixedpoint.h ****   std::int32_t ab_x2_high32 =
 3045              		.loc 4 335 0
 3046 00b0 000058E3 		cmp	r8, #0
 3047 00b4 0020D9E2 		sbcs	r2, r9, #0
 3048              	.LBE3575:
 3049              	.LBE3580:
 3050              	.LBE3585:
 3051              	.LBE3608:
 3052              	.LBE3681:
 3053              	.LBB3682:
 3054              	.LBB3550:
 3055              	.LBB3535:
 158:C:/Renesas/e2studio_2021_01_workspace_RZA2M_ANPR/ANPR_RZA2M_RDK/src/tensorflow_lite/src/third_party/gemmlowp/fixedpoint\fixedpoint.h **** }
 3056              		.loc 4 158 0
 3057 00b8 002065E2 		rsb	r2, r5, #0
 3058              	.LBE3535:
 3059              	.LBE3550:
 3060              	.LBE3682:
 3061              	.LBB3683:
 3062              	.LBB3609:
 3063              	.LBB3586:
 3064              	.LBB3581:
 3065              	.LBB3576:
 335:C:/Renesas/e2studio_2021_01_workspace_RZA2M_ANPR/ANPR_RZA2M_RDK/src/tensorflow_lite/src/third_party/gemmlowp/fixedpoint\fixedpoint.h ****   std::int32_t ab_x2_high32 =
 3066              		.loc 4 335 0
 3067 00bc 0161A0A3 		movge	r6, #1073741824
 3068 00c0 0761A0B3 		movlt	r6, #-1073741823
 3069 00c4 0070A0A3 		movge	r7, #0
 3070 00c8 0070E0B3 		mvnlt	r7, #0
 3071              	.LVL238:
 337:C:/Renesas/e2studio_2021_01_workspace_RZA2M_ANPR/ANPR_RZA2M_RDK/src/tensorflow_lite/src/third_party/gemmlowp/fixedpoint\fixedpoint.h ****   return overflow ? std::numeric_limits<std::int32_t>::max() : ab_x2_high32;
 3072              		.loc 4 337 0
 3073 00cc 068098E0 		adds	r8, r8, r6
 3074              	.LVL239:
 3075              	.LBE3576:
 3076              	.LBE3581:
 3077              	.LBE3586:
 3078              	.LBE3609:
 3079              	.LBE3683:
 3080              	.LBB3684:
 3081              	.LBB3551:
 3082              	.LBB3552:
 3083              	.LBB3553:
 3084              	.LBB3554:
  71:C:/Renesas/e2studio_2021_01_workspace_RZA2M_ANPR/ANPR_RZA2M_RDK/src/tensorflow_lite/src/third_party/gemmlowp/fixedpoint\fixedpoint.h **** }
 3085              		.loc 4 71 0
 3086 00d0 015045E2 		sub	r5, r5, #1
 3087              	.LBE3554:
 3088              	.LBE3553:
 3089              	.LBE3552:
 3090              	.LBE3551:
 3091              	.LBE3684:
 3092              	.LBB3685:
 3093              	.LBB3610:
 3094              	.LBB3587:
 3095              	.LBB3582:
 3096              	.LBB3577:
 337:C:/Renesas/e2studio_2021_01_workspace_RZA2M_ANPR/ANPR_RZA2M_RDK/src/tensorflow_lite/src/third_party/gemmlowp/fixedpoint\fixedpoint.h ****   return overflow ? std::numeric_limits<std::int32_t>::max() : ab_x2_high32;
 3097              		.loc 4 337 0
 3098 00d4 0790A9E0 		adc	r9, r9, r7
 3099 00d8 0070A0E3 		mov	r7, #0
 3100 00dc C96FA0E1 		asr	r6, r9, #31
 3101 00e0 0261C6E3 		bic	r6, r6, #-2147483648
 3102 00e4 086096E0 		adds	r6, r6, r8
 3103 00e8 A66FA0E1 		lsr	r6, r6, #31
 3104 00ec 0970A7E0 		adc	r7, r7, r9
 3105 00f0 876086E1 		orr	r6, r6, r7, lsl #1
 3106              	.LBE3577:
 3107              	.LBE3582:
 3108              	.LBE3587:
 3109              	.LBE3610:
 3110              	.LBB3611:
 3111              	.LBB3604:
 3112              	.LBB3599:
 3113              	.LBB3600:
  71:C:/Renesas/e2studio_2021_01_workspace_RZA2M_ANPR/ANPR_RZA2M_RDK/src/tensorflow_lite/src/third_party/gemmlowp/fixedpoint\fixedpoint.h **** }
 3114              		.loc 4 71 0
 3115 00f4 06E00EE0 		and	lr, lr, r6
 3116              	.LVL240:
 3117              	.LBE3600:
 3118              	.LBE3599:
 3119              	.LBE3604:
 3120              	.LBE3611:
 3121              	.LBE3685:
 3122              	.LBB3686:
 3123              	.LBB3687:
 3124              	.LBB3688:
 158:C:/Renesas/e2studio_2021_01_workspace_RZA2M_ANPR/ANPR_RZA2M_RDK/src/tensorflow_lite/src/third_party/gemmlowp/fixedpoint\fixedpoint.h **** }
 3125              		.loc 4 158 0
 3126 00f8 536EE0E7 		ubfx	r6, r3, #28, #1
 3127              	.LBE3688:
 3128              	.LBE3687:
 3129              	.LBE3686:
 3130              	.LBB3729:
 3131              	.LBB3612:
 3132              	.LBB3605:
 3133              	.LBB3601:
 3134              	.LBB3602:
  83:C:/Renesas/e2studio_2021_01_workspace_RZA2M_ANPR/ANPR_RZA2M_RDK/src/tensorflow_lite/src/third_party/gemmlowp/fixedpoint\fixedpoint.h **** }
 3135              		.loc 4 83 0
 3136 00fc 0E0020E0 		eor	r0, r0, lr
 3137              	.LVL241:
 3138              	.LBE3602:
 3139              	.LBE3601:
 3140              	.LBE3605:
 3141              	.LBE3612:
 3142              	.LBE3729:
 3143              	.LBB3730:
 3144              	.LBB3656:
 3145              	.LBB3657:
 158:C:/Renesas/e2studio_2021_01_workspace_RZA2M_ANPR/ANPR_RZA2M_RDK/src/tensorflow_lite/src/third_party/gemmlowp/fixedpoint\fixedpoint.h **** }
 3146              		.loc 4 158 0
 3147 0100 D3EDE0E7 		ubfx	lr, r3, #27, #1
 3148              	.LBE3657:
 3149              	.LBE3656:
 3150              	.LBE3730:
 3151              	.LBB3731:
 3152              	.LBB3563:
 3153              	.LBB3547:
 3154              	.LBB3544:
 3155              	.LBB3541:
 334:C:/Renesas/e2studio_2021_01_workspace_RZA2M_ANPR/ANPR_RZA2M_RDK/src/tensorflow_lite/src/third_party/gemmlowp/fixedpoint\fixedpoint.h ****   std::int32_t nudge = ab_64 >= 0 ? (1 << 30) : (1 - (1 << 30));
 3156              		.loc 4 334 0
 3157 0104 9081C9E0 		smull	r8, r9, r0, r1
 3158              	.LVL242:
 3159              	.LBE3541:
 3160              	.LBE3544:
 3161              	.LBE3547:
 3162              	.LBE3563:
 3163              	.LBB3564:
 3164              	.LBB3561:
 3165              	.LBB3556:
 3166              	.LBB3555:
  71:C:/Renesas/e2studio_2021_01_workspace_RZA2M_ANPR/ANPR_RZA2M_RDK/src/tensorflow_lite/src/third_party/gemmlowp/fixedpoint\fixedpoint.h **** }
 3167              		.loc 4 71 0
 3168 0108 005005E0 		and	r5, r5, r0
 3169              	.LBE3555:
 3170              	.LBE3556:
 3171              	.LBE3561:
 3172              	.LBE3564:
 3173              	.LBE3731:
 3174              	.LBB3732:
 3175              	.LBB3659:
 3176              	.LBB3658:
 158:C:/Renesas/e2studio_2021_01_workspace_RZA2M_ANPR/ANPR_RZA2M_RDK/src/tensorflow_lite/src/third_party/gemmlowp/fixedpoint\fixedpoint.h **** }
 3177              		.loc 4 158 0
 3178 010c 00706EE2 		rsb	r7, lr, #0
 3179              	.LBE3658:
 3180              	.LBE3659:
 3181              	.LBB3660:
 3182              	.LBB3661:
 3183              	.LBB3662:
 3184              	.LBB3663:
  71:C:/Renesas/e2studio_2021_01_workspace_RZA2M_ANPR/ANPR_RZA2M_RDK/src/tensorflow_lite/src/third_party/gemmlowp/fixedpoint\fixedpoint.h **** }
 3185              		.loc 4 71 0
 3186 0110 01E04EE2 		sub	lr, lr, #1
 3187              	.LBE3663:
 3188              	.LBE3662:
 3189              	.LBE3661:
 3190              	.LBE3660:
 3191              	.LBE3732:
 3192              	.LBB3733:
 3193              	.LBB3565:
 3194              	.LBB3548:
 3195              	.LBB3545:
 3196              	.LBB3542:
 335:C:/Renesas/e2studio_2021_01_workspace_RZA2M_ANPR/ANPR_RZA2M_RDK/src/tensorflow_lite/src/third_party/gemmlowp/fixedpoint\fixedpoint.h ****   std::int32_t ab_x2_high32 =
 3197              		.loc 4 335 0
 3198 0114 000058E3 		cmp	r8, #0
 3199 0118 0010D9E2 		sbcs	r1, r9, #0
 337:C:/Renesas/e2studio_2021_01_workspace_RZA2M_ANPR/ANPR_RZA2M_RDK/src/tensorflow_lite/src/third_party/gemmlowp/fixedpoint\fixedpoint.h ****   return overflow ? std::numeric_limits<std::int32_t>::max() : ab_x2_high32;
 3200              		.loc 4 337 0
 3201 011c 0010A0E3 		mov	r1, #0
 335:C:/Renesas/e2studio_2021_01_workspace_RZA2M_ANPR/ANPR_RZA2M_RDK/src/tensorflow_lite/src/third_party/gemmlowp/fixedpoint\fixedpoint.h ****   std::int32_t ab_x2_high32 =
 3202              		.loc 4 335 0
 3203 0120 01A1A0A3 		movge	r10, #1073741824
 3204 0124 07A1A0B3 		movlt	r10, #-1073741823
 3205 0128 00B0A0A3 		movge	fp, #0
 3206 012c 00B0E0B3 		mvnlt	fp, #0
 3207              	.LVL243:
 337:C:/Renesas/e2studio_2021_01_workspace_RZA2M_ANPR/ANPR_RZA2M_RDK/src/tensorflow_lite/src/third_party/gemmlowp/fixedpoint\fixedpoint.h ****   return overflow ? std::numeric_limits<std::int32_t>::max() : ab_x2_high32;
 3208              		.loc 4 337 0
 3209 0130 0A8098E0 		adds	r8, r8, r10
 3210              	.LVL244:
 3211 0134 0B90A9E0 		adc	r9, r9, fp
 3212 0138 C90FA0E1 		asr	r0, r9, #31
 3213              	.LVL245:
 3214 013c 0201C0E3 		bic	r0, r0, #-2147483648
 3215 0140 080090E0 		adds	r0, r0, r8
 3216 0144 A00FA0E1 		lsr	r0, r0, #31
 3217 0148 0910A1E0 		adc	r1, r1, r9
 3218 014c 810080E1 		orr	r0, r0, r1, lsl #1
 3219              	.LBE3542:
 3220              	.LBE3545:
 3221              	.LBE3548:
 3222              	.LBE3565:
 3223              	.LBE3733:
 3224              	.LBB3734:
 3225              	.LBB3673:
 3226              	.LBB3651:
 3227              	.LBB3646:
 3228              	.LBB3641:
 3229 0150 0010A0E3 		mov	r1, #0
 3230              	.LBE3641:
 3231              	.LBE3646:
 3232              	.LBE3651:
 3233              	.LBE3673:
 3234              	.LBE3734:
 3235              	.LBB3735:
 3236              	.LBB3566:
 3237              	.LBB3562:
 3238              	.LBB3557:
 3239              	.LBB3558:
  71:C:/Renesas/e2studio_2021_01_workspace_RZA2M_ANPR/ANPR_RZA2M_RDK/src/tensorflow_lite/src/third_party/gemmlowp/fixedpoint\fixedpoint.h **** }
 3240              		.loc 4 71 0
 3241 0154 002002E0 		and	r2, r2, r0
 3242              	.LVL246:
 3243              	.LBE3558:
 3244              	.LBE3557:
 3245              	.LBB3559:
 3246              	.LBB3560:
  83:C:/Renesas/e2studio_2021_01_workspace_RZA2M_ANPR/ANPR_RZA2M_RDK/src/tensorflow_lite/src/third_party/gemmlowp/fixedpoint\fixedpoint.h **** }
 3247              		.loc 4 83 0
 3248 0158 025025E0 		eor	r5, r5, r2
 3249              	.LVL247:
 3250              	.LBE3560:
 3251              	.LBE3559:
 3252              	.LBE3562:
 3253              	.LBE3566:
 3254              	.LBE3735:
 3255              	.LBB3736:
 3256              	.LBB3674:
 3257              	.LBB3652:
 3258              	.LBB3647:
 3259              	.LBB3642:
 334:C:/Renesas/e2studio_2021_01_workspace_RZA2M_ANPR/ANPR_RZA2M_RDK/src/tensorflow_lite/src/third_party/gemmlowp/fixedpoint\fixedpoint.h ****   std::int32_t nudge = ab_64 >= 0 ? (1 << 30) : (1 - (1 << 30));
 3260              		.loc 4 334 0
 3261 015c 958CC9E0 		smull	r8, r9, r5, ip
 3262              	.LVL248:
 3263              	.LBE3642:
 3264              	.LBE3647:
 3265              	.LBE3652:
 3266              	.LBE3674:
 3267              	.LBB3675:
 3268              	.LBB3670:
 3269              	.LBB3665:
 3270              	.LBB3664:
  71:C:/Renesas/e2studio_2021_01_workspace_RZA2M_ANPR/ANPR_RZA2M_RDK/src/tensorflow_lite/src/third_party/gemmlowp/fixedpoint\fixedpoint.h **** }
 3271              		.loc 4 71 0
 3272 0160 05E00EE0 		and	lr, lr, r5
 3273              	.LBE3664:
 3274              	.LBE3665:
 3275              	.LBE3670:
 3276              	.LBE3675:
 3277              	.LBE3736:
 3278              	.LBB3737:
 3279              	.LBB3690:
 3280              	.LBB3689:
 158:C:/Renesas/e2studio_2021_01_workspace_RZA2M_ANPR/ANPR_RZA2M_RDK/src/tensorflow_lite/src/third_party/gemmlowp/fixedpoint\fixedpoint.h **** }
 3281              		.loc 4 158 0
 3282 0164 00C066E2 		rsb	ip, r6, #0
 3283              	.LBE3689:
 3284              	.LBE3690:
 3285              	.LBB3691:
 3286              	.LBB3692:
 3287              	.LBB3693:
 3288              	.LBB3694:
  71:C:/Renesas/e2studio_2021_01_workspace_RZA2M_ANPR/ANPR_RZA2M_RDK/src/tensorflow_lite/src/third_party/gemmlowp/fixedpoint\fixedpoint.h **** }
 3289              		.loc 4 71 0
 3290 0168 016046E2 		sub	r6, r6, #1
 3291              	.LBE3694:
 3292              	.LBE3693:
 3293              	.LBE3692:
 3294              	.LBE3691:
 3295              	.LBE3737:
 3296              	.LBB3738:
 3297              	.LBB3739:
 3298              	.LBB3740:
 3299              	.LBB3741:
 3300              	.LBB3742:
 334:C:/Renesas/e2studio_2021_01_workspace_RZA2M_ANPR/ANPR_RZA2M_RDK/src/tensorflow_lite/src/third_party/gemmlowp/fixedpoint\fixedpoint.h ****   std::int32_t nudge = ab_64 >= 0 ? (1 << 30) : (1 - (1 << 30));
 3301              		.loc 4 334 0
 3302 016c F250A0E3 		mov	r5, #242
 3303              	.LVL249:
 3304              	.LBE3742:
 3305              	.LBE3741:
 3306              	.LBE3740:
 3307              	.LBE3739:
 3308              	.LBE3738:
 3309              	.LBB3781:
 3310              	.LBB3676:
 3311              	.LBB3653:
 3312              	.LBB3648:
 3313              	.LBB3643:
 335:C:/Renesas/e2studio_2021_01_workspace_RZA2M_ANPR/ANPR_RZA2M_RDK/src/tensorflow_lite/src/third_party/gemmlowp/fixedpoint\fixedpoint.h ****   std::int32_t ab_x2_high32 =
 3314              		.loc 4 335 0
 3315 0170 000058E3 		cmp	r8, #0
 3316 0174 0020D9E2 		sbcs	r2, r9, #0
 3317              	.LBE3643:
 3318              	.LBE3648:
 3319              	.LBE3653:
 3320              	.LBE3676:
 3321              	.LBE3781:
 3322              	.LBB3782:
 3323              	.LBB3703:
 3324              	.LBB3704:
 3325              	.LBB3705:
 3326              	.LBB3706:
 334:C:/Renesas/e2studio_2021_01_workspace_RZA2M_ANPR/ANPR_RZA2M_RDK/src/tensorflow_lite/src/third_party/gemmlowp/fixedpoint\fixedpoint.h ****   std::int32_t nudge = ab_64 >= 0 ? (1 << 30) : (1 - (1 << 30));
 3327              		.loc 4 334 0
 3328 0178 B72A02E3 		movw	r2, #10935
 3329              	.LBE3706:
 3330              	.LBE3705:
 3331              	.LBE3704:
 3332              	.LBE3703:
 3333              	.LBE3782:
 3334              	.LBB3783:
 3335              	.LBB3677:
 3336              	.LBB3654:
 3337              	.LBB3649:
 3338              	.LBB3644:
 335:C:/Renesas/e2studio_2021_01_workspace_RZA2M_ANPR/ANPR_RZA2M_RDK/src/tensorflow_lite/src/third_party/gemmlowp/fixedpoint\fixedpoint.h ****   std::int32_t ab_x2_high32 =
 3339              		.loc 4 335 0
 3340 017c 01A1A0A3 		movge	r10, #1073741824
 3341 0180 07A1A0B3 		movlt	r10, #-1073741823
 3342 0184 00B0A0A3 		movge	fp, #0
 3343 0188 00B0E0B3 		mvnlt	fp, #0
 3344              	.LVL250:
 337:C:/Renesas/e2studio_2021_01_workspace_RZA2M_ANPR/ANPR_RZA2M_RDK/src/tensorflow_lite/src/third_party/gemmlowp/fixedpoint\fixedpoint.h ****   return overflow ? std::numeric_limits<std::int32_t>::max() : ab_x2_high32;
 3345              		.loc 4 337 0
 3346 018c 0A8098E0 		adds	r8, r8, r10
 3347              	.LVL251:
 3348              	.LBE3644:
 3349              	.LBE3649:
 3350              	.LBE3654:
 3351              	.LBE3677:
 3352              	.LBE3783:
 3353              	.LBB3784:
 3354              	.LBB3722:
 3355              	.LBB3717:
 3356              	.LBB3712:
 3357              	.LBB3707:
 334:C:/Renesas/e2studio_2021_01_workspace_RZA2M_ANPR/ANPR_RZA2M_RDK/src/tensorflow_lite/src/third_party/gemmlowp/fixedpoint\fixedpoint.h ****   std::int32_t nudge = ab_64 >= 0 ? (1 << 30) : (1 - (1 << 30));
 3358              		.loc 4 334 0
 3359 0190 582240E3 		movt	r2, 600
 3360              	.LBE3707:
 3361              	.LBE3712:
 3362              	.LBE3717:
 3363              	.LBE3722:
 3364              	.LBE3784:
 3365              	.LBB3785:
 3366              	.LBB3678:
 3367              	.LBB3655:
 3368              	.LBB3650:
 3369              	.LBB3645:
 337:C:/Renesas/e2studio_2021_01_workspace_RZA2M_ANPR/ANPR_RZA2M_RDK/src/tensorflow_lite/src/third_party/gemmlowp/fixedpoint\fixedpoint.h ****   return overflow ? std::numeric_limits<std::int32_t>::max() : ab_x2_high32;
 3370              		.loc 4 337 0
 3371 0194 0B90A9E0 		adc	r9, r9, fp
 3372 0198 C90FA0E1 		asr	r0, r9, #31
 3373 019c 0201C0E3 		bic	r0, r0, #-2147483648
 3374 01a0 080090E0 		adds	r0, r0, r8
 3375 01a4 A00FA0E1 		lsr	r0, r0, #31
 3376 01a8 0910A1E0 		adc	r1, r1, r9
 3377 01ac 810080E1 		orr	r0, r0, r1, lsl #1
 3378              	.LBE3645:
 3379              	.LBE3650:
 3380              	.LBE3655:
 3381              	.LBE3678:
 3382              	.LBE3785:
 3383              	.LBB3786:
 3384              	.LBB3787:
 3385              	.LBB3788:
 3386              	.LBB3789:
 3387              	.LBB3790:
 334:C:/Renesas/e2studio_2021_01_workspace_RZA2M_ANPR/ANPR_RZA2M_RDK/src/tensorflow_lite/src/third_party/gemmlowp/fixedpoint\fixedpoint.h ****   std::int32_t nudge = ab_64 >= 0 ? (1 << 30) : (1 - (1 << 30));
 3388              		.loc 4 334 0
 3389 01b0 111E0FE3 		movw	r1, #65041
 3390 01b4 0A1040E3 		movt	r1, 10
 3391              	.LBE3790:
 3392              	.LBE3789:
 3393              	.LBE3788:
 3394              	.LBE3787:
 3395              	.LBE3786:
 3396              	.LBB3825:
 3397              	.LBB3679:
 3398              	.LBB3671:
 3399              	.LBB3666:
 3400              	.LBB3667:
  71:C:/Renesas/e2studio_2021_01_workspace_RZA2M_ANPR/ANPR_RZA2M_RDK/src/tensorflow_lite/src/third_party/gemmlowp/fixedpoint\fixedpoint.h **** }
 3401              		.loc 4 71 0
 3402 01b8 007007E0 		and	r7, r7, r0
 3403              	.LVL252:
 3404              	.LBE3667:
 3405              	.LBE3666:
 3406              	.LBE3671:
 3407              	.LBE3679:
 3408              	.LBE3825:
 3409              	.LBB3826:
 3410              	.LBB3803:
 3411              	.LBB3804:
 158:C:/Renesas/e2studio_2021_01_workspace_RZA2M_ANPR/ANPR_RZA2M_RDK/src/tensorflow_lite/src/third_party/gemmlowp/fixedpoint\fixedpoint.h **** }
 3412              		.loc 4 158 0
 3413 01bc D30EE0E7 		ubfx	r0, r3, #29, #1
 3414              	.LBE3804:
 3415              	.LBE3803:
 3416              	.LBE3826:
 3417              	.LBB3827:
 3418              	.LBB3680:
 3419              	.LBB3672:
 3420              	.LBB3668:
 3421              	.LBB3669:
  83:C:/Renesas/e2studio_2021_01_workspace_RZA2M_ANPR/ANPR_RZA2M_RDK/src/tensorflow_lite/src/third_party/gemmlowp/fixedpoint\fixedpoint.h **** }
 3422              		.loc 4 83 0
 3423 01c0 07E02EE0 		eor	lr, lr, r7
 3424              	.LVL253:
 3425              	.LBE3669:
 3426              	.LBE3668:
 3427              	.LBE3672:
 3428              	.LBE3680:
 3429              	.LBE3827:
 3430              	.LBB3828:
 3431              	.LBB3723:
 3432              	.LBB3718:
 3433              	.LBB3713:
 3434              	.LBB3708:
 337:C:/Renesas/e2studio_2021_01_workspace_RZA2M_ANPR/ANPR_RZA2M_RDK/src/tensorflow_lite/src/third_party/gemmlowp/fixedpoint\fixedpoint.h ****   return overflow ? std::numeric_limits<std::int32_t>::max() : ab_x2_high32;
 3435              		.loc 4 337 0
 3436 01c4 0070A0E3 		mov	r7, #0
 334:C:/Renesas/e2studio_2021_01_workspace_RZA2M_ANPR/ANPR_RZA2M_RDK/src/tensorflow_lite/src/third_party/gemmlowp/fixedpoint\fixedpoint.h ****   std::int32_t nudge = ab_64 >= 0 ? (1 << 30) : (1 - (1 << 30));
 3437              		.loc 4 334 0
 3438 01c8 9E82C9E0 		smull	r8, r9, lr, r2
 3439              	.LVL254:
 3440              	.LBE3708:
 3441              	.LBE3713:
 3442              	.LBE3718:
 3443              	.LBE3723:
 3444              	.LBB3724:
 3445              	.LBB3701:
 3446              	.LBB3696:
 3447              	.LBB3695:
  71:C:/Renesas/e2studio_2021_01_workspace_RZA2M_ANPR/ANPR_RZA2M_RDK/src/tensorflow_lite/src/third_party/gemmlowp/fixedpoint\fixedpoint.h **** }
 3448              		.loc 4 71 0
 3449 01cc 06E00EE0 		and	lr, lr, r6
 3450              	.LVL255:
 3451              	.LBE3695:
 3452              	.LBE3696:
 3453              	.LBE3701:
 3454              	.LBE3724:
 3455              	.LBE3828:
 3456              	.LBB3829:
 3457              	.LBB3758:
 3458              	.LBB3759:
 158:C:/Renesas/e2studio_2021_01_workspace_RZA2M_ANPR/ANPR_RZA2M_RDK/src/tensorflow_lite/src/third_party/gemmlowp/fixedpoint\fixedpoint.h **** }
 3459              		.loc 4 158 0
 3460 01d0 533FE0E7 		ubfx	r3, r3, #30, #1
 3461              	.LVL256:
 3462              	.LBE3759:
 3463              	.LBE3758:
 3464              	.LBE3829:
 3465              	.LBB3830:
 3466              	.LBB3725:
 3467              	.LBB3719:
 3468              	.LBB3714:
 3469              	.LBB3709:
 335:C:/Renesas/e2studio_2021_01_workspace_RZA2M_ANPR/ANPR_RZA2M_RDK/src/tensorflow_lite/src/third_party/gemmlowp/fixedpoint\fixedpoint.h ****   std::int32_t ab_x2_high32 =
 3470              		.loc 4 335 0
 3471 01d4 000058E3 		cmp	r8, #0
 3472 01d8 0020D9E2 		sbcs	r2, r9, #0
 3473              	.LBE3709:
 3474              	.LBE3714:
 3475              	.LBE3719:
 3476              	.LBE3725:
 3477              	.LBE3830:
 3478              	.LBB3831:
 3479              	.LBB3806:
 3480              	.LBB3805:
 158:C:/Renesas/e2studio_2021_01_workspace_RZA2M_ANPR/ANPR_RZA2M_RDK/src/tensorflow_lite/src/third_party/gemmlowp/fixedpoint\fixedpoint.h **** }
 3481              		.loc 4 158 0
 3482 01dc 002060E2 		rsb	r2, r0, #0
 3483              	.LBE3805:
 3484              	.LBE3806:
 3485              	.LBE3831:
 3486              	.LBB3832:
 3487              	.LBB3726:
 3488              	.LBB3720:
 3489              	.LBB3715:
 3490              	.LBB3710:
 335:C:/Renesas/e2studio_2021_01_workspace_RZA2M_ANPR/ANPR_RZA2M_RDK/src/tensorflow_lite/src/third_party/gemmlowp/fixedpoint\fixedpoint.h ****   std::int32_t ab_x2_high32 =
 3491              		.loc 4 335 0
 3492 01e0 01A1A0A3 		movge	r10, #1073741824
 3493 01e4 07A1A0B3 		movlt	r10, #-1073741823
 3494 01e8 00B0A0A3 		movge	fp, #0
 3495 01ec 00B0E0B3 		mvnlt	fp, #0
 3496              	.LVL257:
 337:C:/Renesas/e2studio_2021_01_workspace_RZA2M_ANPR/ANPR_RZA2M_RDK/src/tensorflow_lite/src/third_party/gemmlowp/fixedpoint\fixedpoint.h ****   return overflow ? std::numeric_limits<std::int32_t>::max() : ab_x2_high32;
 3497              		.loc 4 337 0
 3498 01f0 0A8098E0 		adds	r8, r8, r10
 3499              	.LVL258:
 3500              	.LBE3710:
 3501              	.LBE3715:
 3502              	.LBE3720:
 3503              	.LBE3726:
 3504              	.LBE3832:
 3505              	.LBB3833:
 3506              	.LBB3807:
 3507              	.LBB3808:
 3508              	.LBB3809:
 3509              	.LBB3810:
  71:C:/Renesas/e2studio_2021_01_workspace_RZA2M_ANPR/ANPR_RZA2M_RDK/src/tensorflow_lite/src/third_party/gemmlowp/fixedpoint\fixedpoint.h **** }
 3510              		.loc 4 71 0
 3511 01f4 010040E2 		sub	r0, r0, #1
 3512              	.LBE3810:
 3513              	.LBE3809:
 3514              	.LBE3808:
 3515              	.LBE3807:
 3516              	.LBE3833:
 3517              	.LBB3834:
 3518              	.LBB3727:
 3519              	.LBB3721:
 3520              	.LBB3716:
 3521              	.LBB3711:
 337:C:/Renesas/e2studio_2021_01_workspace_RZA2M_ANPR/ANPR_RZA2M_RDK/src/tensorflow_lite/src/third_party/gemmlowp/fixedpoint\fixedpoint.h ****   return overflow ? std::numeric_limits<std::int32_t>::max() : ab_x2_high32;
 3522              		.loc 4 337 0
 3523 01f8 0B90A9E0 		adc	r9, r9, fp
 3524 01fc C96FA0E1 		asr	r6, r9, #31
 3525 0200 0261C6E3 		bic	r6, r6, #-2147483648
 3526 0204 068098E0 		adds	r8, r8, r6
 3527 0208 A88FA0E1 		lsr	r8, r8, #31
 3528 020c 0790A9E0 		adc	r9, r9, r7
 3529 0210 898088E1 		orr	r8, r8, r9, lsl #1
 3530              	.LBE3711:
 3531              	.LBE3716:
 3532              	.LBE3721:
 3533              	.LBE3727:
 3534              	.LBB3728:
 3535              	.LBB3702:
 3536              	.LBB3697:
 3537              	.LBB3698:
  71:C:/Renesas/e2studio_2021_01_workspace_RZA2M_ANPR/ANPR_RZA2M_RDK/src/tensorflow_lite/src/third_party/gemmlowp/fixedpoint\fixedpoint.h **** }
 3538              		.loc 4 71 0
 3539 0214 0C8008E0 		and	r8, r8, ip
 3540              	.LBE3698:
 3541              	.LBE3697:
 3542              	.LBB3699:
 3543              	.LBB3700:
  83:C:/Renesas/e2studio_2021_01_workspace_RZA2M_ANPR/ANPR_RZA2M_RDK/src/tensorflow_lite/src/third_party/gemmlowp/fixedpoint\fixedpoint.h **** }
 3544              		.loc 4 83 0
 3545 0218 08E02EE0 		eor	lr, lr, r8
 3546              	.LVL259:
 3547              	.LBE3700:
 3548              	.LBE3699:
 3549              	.LBE3702:
 3550              	.LBE3728:
 3551              	.LBE3834:
 3552              	.LBB3835:
 3553              	.LBB3819:
 3554              	.LBB3799:
 3555              	.LBB3795:
 3556              	.LBB3791:
 334:C:/Renesas/e2studio_2021_01_workspace_RZA2M_ANPR/ANPR_RZA2M_RDK/src/tensorflow_lite/src/third_party/gemmlowp/fixedpoint\fixedpoint.h ****   std::int32_t nudge = ab_64 >= 0 ? (1 << 30) : (1 - (1 << 30));
 3557              		.loc 4 334 0
 3558 021c 9EA1CBE0 		smull	r10, fp, lr, r1
 3559              	.LVL260:
 3560              	.LBE3791:
 3561              	.LBE3795:
 3562              	.LBE3799:
 3563              	.LBE3819:
 3564              	.LBB3820:
 3565              	.LBB3817:
 3566              	.LBB3812:
 3567              	.LBB3811:
  71:C:/Renesas/e2studio_2021_01_workspace_RZA2M_ANPR/ANPR_RZA2M_RDK/src/tensorflow_lite/src/third_party/gemmlowp/fixedpoint\fixedpoint.h **** }
 3568              		.loc 4 71 0
 3569 0220 0E0000E0 		and	r0, r0, lr
 3570              	.LBE3811:
 3571              	.LBE3812:
 3572              	.LBE3817:
 3573              	.LBE3820:
 3574              	.LBB3821:
 3575              	.LBB3800:
 3576              	.LBB3796:
 3577              	.LBB3792:
 335:C:/Renesas/e2studio_2021_01_workspace_RZA2M_ANPR/ANPR_RZA2M_RDK/src/tensorflow_lite/src/third_party/gemmlowp/fixedpoint\fixedpoint.h ****   std::int32_t ab_x2_high32 =
 3578              		.loc 4 335 0
 3579 0224 00005AE3 		cmp	r10, #0
 3580 0228 0010DBE2 		sbcs	r1, fp, #0
 3581              	.LBE3792:
 3582              	.LBE3796:
 3583              	.LBE3800:
 3584              	.LBE3821:
 3585              	.LBE3835:
 3586              	.LBB3836:
 3587              	.LBB3761:
 3588              	.LBB3760:
 158:C:/Renesas/e2studio_2021_01_workspace_RZA2M_ANPR/ANPR_RZA2M_RDK/src/tensorflow_lite/src/third_party/gemmlowp/fixedpoint\fixedpoint.h **** }
 3589              		.loc 4 158 0
 3590 022c 001063E2 		rsb	r1, r3, #0
 3591              	.LBE3760:
 3592              	.LBE3761:
 3593              	.LBE3836:
 3594              	.LBB3837:
 3595              	.LBB3822:
 3596              	.LBB3801:
 3597              	.LBB3797:
 3598              	.LBB3793:
 335:C:/Renesas/e2studio_2021_01_workspace_RZA2M_ANPR/ANPR_RZA2M_RDK/src/tensorflow_lite/src/third_party/gemmlowp/fixedpoint\fixedpoint.h ****   std::int32_t ab_x2_high32 =
 3599              		.loc 4 335 0
 3600 0230 0161A0A3 		movge	r6, #1073741824
 3601 0234 0761A0B3 		movlt	r6, #-1073741823
 3602 0238 0070A0A3 		movge	r7, #0
 3603 023c 0070E0B3 		mvnlt	r7, #0
 3604              	.LVL261:
 337:C:/Renesas/e2studio_2021_01_workspace_RZA2M_ANPR/ANPR_RZA2M_RDK/src/tensorflow_lite/src/third_party/gemmlowp/fixedpoint\fixedpoint.h ****   return overflow ? std::numeric_limits<std::int32_t>::max() : ab_x2_high32;
 3605              		.loc 4 337 0
 3606 0240 06A09AE0 		adds	r10, r10, r6
 3607              	.LVL262:
 3608              	.LBE3793:
 3609              	.LBE3797:
 3610              	.LBE3801:
 3611              	.LBE3822:
 3612              	.LBE3837:
 3613              	.LBB3838:
 3614              	.LBB3762:
 3615              	.LBB3763:
 3616              	.LBB3764:
 3617              	.LBB3765:
  71:C:/Renesas/e2studio_2021_01_workspace_RZA2M_ANPR/ANPR_RZA2M_RDK/src/tensorflow_lite/src/third_party/gemmlowp/fixedpoint\fixedpoint.h **** }
 3618              		.loc 4 71 0
 3619 0244 013043E2 		sub	r3, r3, #1
 3620              	.LBE3765:
 3621              	.LBE3764:
 3622              	.LBE3763:
 3623              	.LBE3762:
 3624              	.LBE3838:
 3625              	.LBB3839:
 3626              	.LBB3823:
 3627              	.LBB3802:
 3628              	.LBB3798:
 3629              	.LBB3794:
 337:C:/Renesas/e2studio_2021_01_workspace_RZA2M_ANPR/ANPR_RZA2M_RDK/src/tensorflow_lite/src/third_party/gemmlowp/fixedpoint\fixedpoint.h ****   return overflow ? std::numeric_limits<std::int32_t>::max() : ab_x2_high32;
 3630              		.loc 4 337 0
 3631 0248 07B0ABE0 		adc	fp, fp, r7
 3632 024c 0070A0E3 		mov	r7, #0
 3633 0250 CB6FA0E1 		asr	r6, fp, #31
 3634 0254 0261C6E3 		bic	r6, r6, #-2147483648
 3635 0258 06A09AE0 		adds	r10, r10, r6
 3636 025c AAAFA0E1 		lsr	r10, r10, #31
 3637 0260 07B0ABE0 		adc	fp, fp, r7
 3638 0264 8BA08AE1 		orr	r10, r10, fp, lsl #1
 3639 0268 CBBFA0E1 		asr	fp, fp, #31
 3640              	.LBE3794:
 3641              	.LBE3798:
 3642              	.LBE3802:
 3643              	.LBE3823:
 3644              	.LBB3824:
 3645              	.LBB3818:
 3646              	.LBB3813:
 3647              	.LBB3814:
  71:C:/Renesas/e2studio_2021_01_workspace_RZA2M_ANPR/ANPR_RZA2M_RDK/src/tensorflow_lite/src/third_party/gemmlowp/fixedpoint\fixedpoint.h **** }
 3648              		.loc 4 71 0
 3649 026c 02A00AE0 		and	r10, r10, r2
 3650              	.LBE3814:
 3651              	.LBE3813:
 3652              	.LBB3815:
 3653              	.LBB3816:
  83:C:/Renesas/e2studio_2021_01_workspace_RZA2M_ANPR/ANPR_RZA2M_RDK/src/tensorflow_lite/src/third_party/gemmlowp/fixedpoint\fixedpoint.h **** }
 3654              		.loc 4 83 0
 3655 0270 0A0020E0 		eor	r0, r0, r10
 3656              	.LVL263:
 3657              	.LBE3816:
 3658              	.LBE3815:
 3659              	.LBE3818:
 3660              	.LBE3824:
 3661              	.LBE3839:
 3662              	.LBB3840:
 3663              	.LBB3774:
 3664              	.LBB3753:
 3665              	.LBB3748:
 3666              	.LBB3743:
 334:C:/Renesas/e2studio_2021_01_workspace_RZA2M_ANPR/ANPR_RZA2M_RDK/src/tensorflow_lite/src/third_party/gemmlowp/fixedpoint\fixedpoint.h ****   std::int32_t nudge = ab_64 >= 0 ? (1 << 30) : (1 - (1 << 30));
 3667              		.loc 4 334 0
 3668 0274 9065C7E0 		smull	r6, r7, r0, r5
 3669              	.LVL264:
 3670              	.LBE3743:
 3671              	.LBE3748:
 3672              	.LBE3753:
 3673              	.LBE3774:
 3674              	.LBB3775:
 3675              	.LBB3772:
 3676              	.LBB3767:
 3677              	.LBB3766:
  71:C:/Renesas/e2studio_2021_01_workspace_RZA2M_ANPR/ANPR_RZA2M_RDK/src/tensorflow_lite/src/third_party/gemmlowp/fixedpoint\fixedpoint.h **** }
 3678              		.loc 4 71 0
 3679 0278 003003E0 		and	r3, r3, r0
 3680              	.LBE3766:
 3681              	.LBE3767:
 3682              	.LBE3772:
 3683              	.LBE3775:
 3684              	.LBB3776:
 3685              	.LBB3754:
 3686              	.LBB3749:
 3687              	.LBB3744:
 335:C:/Renesas/e2studio_2021_01_workspace_RZA2M_ANPR/ANPR_RZA2M_RDK/src/tensorflow_lite/src/third_party/gemmlowp/fixedpoint\fixedpoint.h ****   std::int32_t ab_x2_high32 =
 3688              		.loc 4 335 0
 3689 027c 000056E3 		cmp	r6, #0
 3690 0280 0020D7E2 		sbcs	r2, r7, #0
 3691              	.LBE3744:
 3692              	.LBE3749:
 3693              	.LBE3754:
 3694              	.LBE3776:
 3695              	.LBE3840:
 3696              	.LBB3841:
 3697              	.LBB3842:
 3698              	.LBB3843:
 3699              	.LBB3844:
  71:C:/Renesas/e2studio_2021_01_workspace_RZA2M_ANPR/ANPR_RZA2M_RDK/src/tensorflow_lite/src/third_party/gemmlowp/fixedpoint\fixedpoint.h **** }
 3700              		.loc 4 71 0
 3701 0284 012044E2 		sub	r2, r4, #1
 3702              	.LBE3844:
 3703              	.LBE3843:
 3704              	.LBE3842:
 3705              	.LBE3841:
 3706              	.LBB3851:
 3707              	.LBB3777:
 3708              	.LBB3755:
 3709              	.LBB3750:
 3710              	.LBB3745:
 335:C:/Renesas/e2studio_2021_01_workspace_RZA2M_ANPR/ANPR_RZA2M_RDK/src/tensorflow_lite/src/third_party/gemmlowp/fixedpoint\fixedpoint.h ****   std::int32_t ab_x2_high32 =
 3711              		.loc 4 335 0
 3712 0288 0181A0A3 		movge	r8, #1073741824
 3713 028c 0781A0B3 		movlt	r8, #-1073741823
 3714 0290 0090A0A3 		movge	r9, #0
 3715 0294 0090E0B3 		mvnlt	r9, #0
 3716              	.LVL265:
 337:C:/Renesas/e2studio_2021_01_workspace_RZA2M_ANPR/ANPR_RZA2M_RDK/src/tensorflow_lite/src/third_party/gemmlowp/fixedpoint\fixedpoint.h ****   return overflow ? std::numeric_limits<std::int32_t>::max() : ab_x2_high32;
 3717              		.loc 4 337 0
 3718 0298 086096E0 		adds	r6, r6, r8
 3719              	.LVL266:
 3720              	.LBE3745:
 3721              	.LBE3750:
 3722              	.LBE3755:
 3723              	.LBE3777:
 3724              	.LBE3851:
 3725              	.LBB3852:
 3726              	.LBB3622:
 3727              	.LBB3620:
 3728              	.LBB3618:
 158:C:/Renesas/e2studio_2021_01_workspace_RZA2M_ANPR/ANPR_RZA2M_RDK/src/tensorflow_lite/src/third_party/gemmlowp/fixedpoint\fixedpoint.h **** }
 3729              		.loc 4 158 0
 3730 029c 004064E2 		rsb	r4, r4, #0
 3731              	.LBE3618:
 3732              	.LBE3620:
 3733              	.LBE3622:
 3734              	.LBE3852:
 3735              	.LBB3853:
 3736              	.LBB3778:
 3737              	.LBB3756:
 3738              	.LBB3751:
 3739              	.LBB3746:
 337:C:/Renesas/e2studio_2021_01_workspace_RZA2M_ANPR/ANPR_RZA2M_RDK/src/tensorflow_lite/src/third_party/gemmlowp/fixedpoint\fixedpoint.h ****   return overflow ? std::numeric_limits<std::int32_t>::max() : ab_x2_high32;
 3740              		.loc 4 337 0
 3741 02a0 0970A7E0 		adc	r7, r7, r9
 3742 02a4 0090A0E3 		mov	r9, #0
 3743 02a8 C78FA0E1 		asr	r8, r7, #31
 3744              	.LVL267:
 3745              	.LBE3746:
 3746              	.LBE3751:
 3747              	.LBE3756:
 3748              	.LBE3778:
 3749              	.LBE3853:
 3750              	.LBB3854:
 3751              	.LBB3849:
 3752              	.LBB3846:
 3753              	.LBB3847:
  71:C:/Renesas/e2studio_2021_01_workspace_RZA2M_ANPR/ANPR_RZA2M_RDK/src/tensorflow_lite/src/third_party/gemmlowp/fixedpoint\fixedpoint.h **** }
 3754              		.loc 4 71 0
 3755 02ac 0241C4E3 		bic	r4, r4, #-2147483648
 3756              	.LBE3847:
 3757              	.LBE3846:
 3758              	.LBE3849:
 3759              	.LBE3854:
 3760              	.LBB3855:
 3761              	.LBB3779:
 3762              	.LBB3757:
 3763              	.LBB3752:
 3764              	.LBB3747:
 337:C:/Renesas/e2studio_2021_01_workspace_RZA2M_ANPR/ANPR_RZA2M_RDK/src/tensorflow_lite/src/third_party/gemmlowp/fixedpoint\fixedpoint.h ****   return overflow ? std::numeric_limits<std::int32_t>::max() : ab_x2_high32;
 3765              		.loc 4 337 0
 3766 02b0 0281C8E3 		bic	r8, r8, #-2147483648
 3767 02b4 086096E0 		adds	r6, r6, r8
 3768 02b8 A66FA0E1 		lsr	r6, r6, #31
 3769 02bc 0970A7E0 		adc	r7, r7, r9
 3770 02c0 876086E1 		orr	r6, r6, r7, lsl #1
 3771 02c4 C77FA0E1 		asr	r7, r7, #31
 3772              	.LBE3747:
 3773              	.LBE3752:
 3774              	.LBE3757:
 3775              	.LBE3779:
 3776              	.LBB3780:
 3777              	.LBB3773:
 3778              	.LBB3768:
 3779              	.LBB3769:
  71:C:/Renesas/e2studio_2021_01_workspace_RZA2M_ANPR/ANPR_RZA2M_RDK/src/tensorflow_lite/src/third_party/gemmlowp/fixedpoint\fixedpoint.h **** }
 3780              		.loc 4 71 0
 3781 02c8 060001E0 		and	r0, r1, r6
 3782              	.LVL268:
 3783              	.LBE3769:
 3784              	.LBE3768:
 3785              	.LBB3770:
 3786              	.LBB3771:
  83:C:/Renesas/e2studio_2021_01_workspace_RZA2M_ANPR/ANPR_RZA2M_RDK/src/tensorflow_lite/src/third_party/gemmlowp/fixedpoint\fixedpoint.h **** }
 3787              		.loc 4 83 0
 3788 02cc 030020E0 		eor	r0, r0, r3
 3789              	.LBE3771:
 3790              	.LBE3770:
 3791              	.LBE3773:
 3792              	.LBE3780:
 3793              	.LBE3855:
 3794              	.LBB3856:
 3795              	.LBB3850:
 3796              	.LBB3848:
 3797              	.LBB3845:
  71:C:/Renesas/e2studio_2021_01_workspace_RZA2M_ANPR/ANPR_RZA2M_RDK/src/tensorflow_lite/src/third_party/gemmlowp/fixedpoint\fixedpoint.h **** }
 3798              		.loc 4 71 0
 3799 02d0 020000E0 		and	r0, r0, r2
 3800              	.LBE3845:
 3801              	.LBE3848:
 3802              	.LBE3850:
 3803              	.LBE3856:
 789:C:/Renesas/e2studio_2021_01_workspace_RZA2M_ANPR/ANPR_RZA2M_RDK/src/tensorflow_lite/src/third_party/gemmlowp/fixedpoint\fixedpoint.h **** 
 3804              		.loc 4 789 0
 3805 02d4 040020E0 		eor	r0, r0, r4
 3806 02d8 F88FBDE8 		pop	{r3, r4, r5, r6, r7, r8, r9, r10, fp, pc}
 3807              		.cfi_endproc
 3808              	.LFE4519:
 3809              		.cantunwind
 3810              		.fnend
 3812              		.section	.text._ZN8gemmlowp55exp_on_interval_between_negative_one_quarter_and_0_exclIsEENS_10Fixed
 3813              		.align	2
 3814              		.weak	_ZN8gemmlowp55exp_on_interval_between_negative_one_quarter_and_0_exclIsEENS_10FixedPointIT_L
 3815              		.syntax unified
 3816              		.arm
 3817              		.fpu neon
 3819              	_ZN8gemmlowp55exp_on_interval_between_negative_one_quarter_and_0_exclIsEENS_10FixedPointIT_Li0EEES3
 3820              		.fnstart
 3821              	.LFB4575:
 721:C:/Renesas/e2studio_2021_01_workspace_RZA2M_ANPR/ANPR_RZA2M_RDK/src/tensorflow_lite/src/third_party/gemmlowp/fixedpoint\fixedpoint.h ****     FixedPoint<tRawType, 0> a) {
 3822              		.loc 4 721 0
 3823              		.cfi_startproc
 3824              		@ args = 0, pretend = 0, frame = 0
 3825              		@ frame_needed = 0, uses_anonymous_args = 0
 3826              	.LVL269:
 3827              	.LBB3999:
 3828              	.LBB4000:
 3829              	.LBB4001:
  95:C:/Renesas/e2studio_2021_01_workspace_RZA2M_ANPR/ANPR_RZA2M_RDK/src/tensorflow_lite/src/third_party/gemmlowp/fixedpoint\fixedpoint.h **** }
 3830              		.loc 4 95 0
 3831 0000 010A80E2 		add	r0, r0, #4096
 3832              	.LVL270:
 3833              	.LBE4001:
 3834              	.LBE4000:
 3835              	.LBE3999:
 721:C:/Renesas/e2studio_2021_01_workspace_RZA2M_ANPR/ANPR_RZA2M_RDK/src/tensorflow_lite/src/third_party/gemmlowp/fixedpoint\fixedpoint.h ****     FixedPoint<tRawType, 0> a) {
 3836              		.loc 4 721 0
 3837 0004 30402DE9 		push	{r4, r5, lr}
 3838              		.cfi_def_cfa_offset 12
 3839              		.cfi_offset 4, -12
 3840              		.cfi_offset 5, -8
 3841              		.cfi_offset 14, -4
 3842              	.LBB4004:
 3843              	.LBB4003:
 3844              	.LBB4002:
  95:C:/Renesas/e2studio_2021_01_workspace_RZA2M_ANPR/ANPR_RZA2M_RDK/src/tensorflow_lite/src/third_party/gemmlowp/fixedpoint\fixedpoint.h **** }
 3845              		.loc 4 95 0
 3846 0008 7000FFE6 		uxth	r0, r0
 3847 000c 7030BFE6 		sxth	r3, r0
 3848              	.LVL271:
 3849              	.LBE4002:
 3850              	.LBE4003:
 3851              	.LBE4004:
 3852              	.LBB4005:
 3853              	.LBB4006:
 3854              	.LBB4007:
 3855              	.LBB4008:
 351:C:/Renesas/e2studio_2021_01_workspace_RZA2M_ANPR/ANPR_RZA2M_RDK/src/tensorflow_lite/src/third_party/gemmlowp/fixedpoint\fixedpoint.h **** }
 3856              		.loc 4 351 0
 3857 0010 020973E3 		cmn	r3, #32768
 3858 0014 3E00000A 		beq	.L152
 350:C:/Renesas/e2studio_2021_01_workspace_RZA2M_ANPR/ANPR_RZA2M_RDK/src/tensorflow_lite/src/third_party/gemmlowp/fixedpoint\fixedpoint.h ****   return overflow ? std::numeric_limits<std::int16_t>::max() : ab_x2_high16;
 3859              		.loc 4 350 0
 3860 0018 0149A0E3 		mov	r4, #16384
 3861 001c FF1F07E3 		movw	r1, #32767
 3862 0020 834302E1 		smlabb	r2, r3, r3, r4
 3863 0024 000052E3 		cmp	r2, #0
 3864 0028 01C082E0 		add	ip, r2, r1
 3865 002c 0C20A0B1 		movlt	r2, ip
 3866 0030 C227A0E1 		asr	r2, r2, #15
 3867              	.LVL272:
 3868              	.LBE4008:
 3869              	.LBE4007:
 3870              	.LBE4006:
 3871              	.LBE4005:
 3872              	.LBB4015:
 3873              	.LBB4016:
 3874              	.LBB4017:
 3875              	.LBB4018:
 347:C:/Renesas/e2studio_2021_01_workspace_RZA2M_ANPR/ANPR_RZA2M_RDK/src/tensorflow_lite/src/third_party/gemmlowp/fixedpoint\fixedpoint.h ****   std::int16_t nudge = ab_32 >= 0 ? (1 << 14) : (1 - (1 << 14));
 3876              		.loc 4 347 0
 3877 0034 920305E0 		mul	r5, r2, r3
 3878              	.LVL273:
 348:C:/Renesas/e2studio_2021_01_workspace_RZA2M_ANPR/ANPR_RZA2M_RDK/src/tensorflow_lite/src/third_party/gemmlowp/fixedpoint\fixedpoint.h ****   std::int16_t ab_x2_high16 =
 3879              		.loc 4 348 0
 3880 0038 000055E3 		cmp	r5, #0
 3881 003c 3B0000BA 		blt	.L158
 3882 0040 92020EE0 		mul	lr, r2, r2
 3883              	.LVL274:
 3884 0044 7220FFE6 		uxth	r2, r2
 3885              	.LVL275:
 3886 0048 01E98EE2 		add	lr, lr, #16384
 3887 004c 01108EE0 		add	r1, lr, r1
 3888 0050 00005EE3 		cmp	lr, #0
 3889 0054 01E0A0B1 		movlt	lr, r1
 3890 0058 DEE7AFE7 		sbfx	lr, lr, #15, #16
 3891              	.LVL276:
 3892              	.L144:
 350:C:/Renesas/e2studio_2021_01_workspace_RZA2M_ANPR/ANPR_RZA2M_RDK/src/tensorflow_lite/src/third_party/gemmlowp/fixedpoint\fixedpoint.h ****   return overflow ? std::numeric_limits<std::int16_t>::max() : ab_x2_high16;
 3893              		.loc 4 350 0
 3894 005c 044085E0 		add	r4, r5, r4
 3895              	.LVL277:
 3896              	.LBE4018:
 3897              	.LBE4017:
 3898              	.LBE4016:
 3899              	.LBE4015:
 3900              	.LBB4037:
 3901              	.LBB4038:
 3902              	.LBB4039:
  95:C:/Renesas/e2studio_2021_01_workspace_RZA2M_ANPR/ANPR_RZA2M_RDK/src/tensorflow_lite/src/third_party/gemmlowp/fixedpoint\fixedpoint.h **** }
 3903              		.loc 4 95 0
 3904 0060 4EC1A0E1 		asr	ip, lr, #2
 3905              	.LBE4039:
 3906              	.LBE4038:
 3907              	.LBE4037:
 3908              	.LBB4048:
 3909              	.LBB4031:
 3910              	.LBB4025:
 3911              	.LBB4019:
 350:C:/Renesas/e2studio_2021_01_workspace_RZA2M_ANPR/ANPR_RZA2M_RDK/src/tensorflow_lite/src/third_party/gemmlowp/fixedpoint\fixedpoint.h ****   return overflow ? std::numeric_limits<std::int16_t>::max() : ab_x2_high16;
 3912              		.loc 4 350 0
 3913 0064 FF3F07E3 		movw	r3, #32767
 3914              	.LBE4019:
 3915              	.LBE4025:
 3916              	.LBE4031:
 3917              	.LBE4048:
 3918              	.LBB4049:
 3919              	.LBB4044:
 3920              	.LBB4040:
  95:C:/Renesas/e2studio_2021_01_workspace_RZA2M_ANPR/ANPR_RZA2M_RDK/src/tensorflow_lite/src/third_party/gemmlowp/fixedpoint\fixedpoint.h **** }
 3921              		.loc 4 95 0
 3922 0068 DE17E0E7 		ubfx	r1, lr, #15, #1
 3923              	.LBE4040:
 3924              	.LBE4044:
 3925              	.LBE4049:
 3926              	.LBB4050:
 3927              	.LBB4032:
 3928              	.LBB4026:
 3929              	.LBB4020:
 350:C:/Renesas/e2studio_2021_01_workspace_RZA2M_ANPR/ANPR_RZA2M_RDK/src/tensorflow_lite/src/third_party/gemmlowp/fixedpoint\fixedpoint.h ****   return overflow ? std::numeric_limits<std::int16_t>::max() : ab_x2_high16;
 3930              		.loc 4 350 0
 3931 006c 000054E3 		cmp	r4, #0
 3932 0070 035084E0 		add	r5, r4, r3
 3933              	.LBE4020:
 3934              	.LBE4026:
 3935              	.LBE4032:
 3936              	.LBE4050:
 3937              	.LBB4051:
 3938              	.LBB4045:
 3939              	.LBB4041:
  95:C:/Renesas/e2studio_2021_01_workspace_RZA2M_ANPR/ANPR_RZA2M_RDK/src/tensorflow_lite/src/third_party/gemmlowp/fixedpoint\fixedpoint.h **** }
 3940              		.loc 4 95 0
 3941 0074 03E00EE2 		and	lr, lr, #3
 3942              	.LVL278:
 3943 0078 011081E2 		add	r1, r1, #1
 3944              	.LBE4041:
 3945              	.LBE4045:
 3946              	.LBE4051:
 3947              	.LBB4052:
 3948              	.LBB4033:
 3949              	.LBB4027:
 3950              	.LBB4021:
 350:C:/Renesas/e2studio_2021_01_workspace_RZA2M_ANPR/ANPR_RZA2M_RDK/src/tensorflow_lite/src/third_party/gemmlowp/fixedpoint\fixedpoint.h ****   return overflow ? std::numeric_limits<std::int16_t>::max() : ab_x2_high16;
 3951              		.loc 4 350 0
 3952 007c 0540A0B1 		movlt	r4, r5
 3953              	.LBE4021:
 3954              	.LBE4027:
 3955              	.LBE4033:
 3956              	.LBE4052:
 3957              	.LBB4053:
 3958              	.LBB4046:
 3959              	.LBB4042:
  95:C:/Renesas/e2studio_2021_01_workspace_RZA2M_ANPR/ANPR_RZA2M_RDK/src/tensorflow_lite/src/third_party/gemmlowp/fixedpoint\fixedpoint.h **** }
 3960              		.loc 4 95 0
 3961 0080 01005EE1 		cmp	lr, r1
 3962 0084 0C10A0D1 		movle	r1, ip
 3963 0088 01108CC2 		addgt	r1, ip, #1
 3964              	.LBE4042:
 3965              	.LBE4046:
 3966              	.LBE4053:
 3967              	.LBB4054:
 3968              	.LBB4055:
 3969              	.LBB4056:
 3970              	.LBB4057:
 347:C:/Renesas/e2studio_2021_01_workspace_RZA2M_ANPR/ANPR_RZA2M_RDK/src/tensorflow_lite/src/third_party/gemmlowp/fixedpoint\fixedpoint.h ****   std::int16_t nudge = ab_32 >= 0 ? (1 << 14) : (1 - (1 << 14));
 3971              		.loc 4 347 0
 3972 008c ABEA02E3 		movw	lr, #10923
 3973              	.LBE4057:
 3974              	.LBE4056:
 3975              	.LBE4055:
 3976              	.LBE4054:
 3977              	.LBB4061:
 3978              	.LBB4047:
 3979              	.LBB4043:
  95:C:/Renesas/e2studio_2021_01_workspace_RZA2M_ANPR/ANPR_RZA2M_RDK/src/tensorflow_lite/src/third_party/gemmlowp/fixedpoint\fixedpoint.h **** }
 3980              		.loc 4 95 0
 3981 0090 C41781E0 		add	r1, r1, r4, asr #15
 3982              	.LBE4043:
 3983              	.LBE4047:
 3984              	.LBE4061:
 3985              	.LBB4062:
 3986              	.LBB4060:
 3987              	.LBB4059:
 3988              	.LBB4058:
 348:C:/Renesas/e2studio_2021_01_workspace_RZA2M_ANPR/ANPR_RZA2M_RDK/src/tensorflow_lite/src/third_party/gemmlowp/fixedpoint\fixedpoint.h ****   std::int16_t ab_x2_high16 =
 3989              		.loc 4 348 0
 3990 0094 01C00CE3 		movw	ip, #49153
 3991 0098 FFCF4FE3 		movt	ip, 65535
 347:C:/Renesas/e2studio_2021_01_workspace_RZA2M_ANPR/ANPR_RZA2M_RDK/src/tensorflow_lite/src/third_party/gemmlowp/fixedpoint\fixedpoint.h ****   std::int16_t nudge = ab_32 >= 0 ? (1 << 14) : (1 - (1 << 14));
 3992              		.loc 4 347 0
 3993 009c 810E61E1 		smulbb	r1, r1, lr
 3994              	.LVL279:
 348:C:/Renesas/e2studio_2021_01_workspace_RZA2M_ANPR/ANPR_RZA2M_RDK/src/tensorflow_lite/src/third_party/gemmlowp/fixedpoint\fixedpoint.h ****   std::int16_t ab_x2_high16 =
 3995              		.loc 4 348 0
 3996 00a0 000051E3 		cmp	r1, #0
 3997 00a4 01C9A0A3 		movge	ip, #16384
 3998              	.LVL280:
 350:C:/Renesas/e2studio_2021_01_workspace_RZA2M_ANPR/ANPR_RZA2M_RDK/src/tensorflow_lite/src/third_party/gemmlowp/fixedpoint\fixedpoint.h ****   return overflow ? std::numeric_limits<std::int16_t>::max() : ab_x2_high16;
 3999              		.loc 4 350 0
 4000 00a8 0C1081E0 		add	r1, r1, ip
 4001              	.LVL281:
 4002 00ac 033081E0 		add	r3, r1, r3
 4003 00b0 000051E3 		cmp	r1, #0
 4004 00b4 0310A0B1 		movlt	r1, r3
 4005              	.LBE4058:
 4006              	.LBE4059:
 4007              	.LBE4060:
 4008              	.LBE4062:
 4009              	.LBB4063:
 4010              	.LBB4064:
 4011              	.LBB4065:
  95:C:/Renesas/e2studio_2021_01_workspace_RZA2M_ANPR/ANPR_RZA2M_RDK/src/tensorflow_lite/src/third_party/gemmlowp/fixedpoint\fixedpoint.h **** }
 4012              		.loc 4 95 0
 4013 00b8 C12782E0 		add	r2, r2, r1, asr #15
 4014              	.LBE4065:
 4015              	.LBE4064:
 4016              	.LBE4063:
 4017              	.LBB4068:
 4018              	.LBB4069:
 4019              	.LBB4070:
 4020              	.LBB4071:
 350:C:/Renesas/e2studio_2021_01_workspace_RZA2M_ANPR/ANPR_RZA2M_RDK/src/tensorflow_lite/src/third_party/gemmlowp/fixedpoint\fixedpoint.h ****   return overflow ? std::numeric_limits<std::int16_t>::max() : ab_x2_high16;
 4021              		.loc 4 350 0
 4022 00bc FF1F07E3 		movw	r1, #32767
 4023              	.LBE4071:
 4024              	.LBE4070:
 4025              	.LBE4069:
 4026              	.LBE4068:
 4027              	.LBB4075:
 4028              	.LBB4067:
 4029              	.LBB4066:
  95:C:/Renesas/e2studio_2021_01_workspace_RZA2M_ANPR/ANPR_RZA2M_RDK/src/tensorflow_lite/src/third_party/gemmlowp/fixedpoint\fixedpoint.h **** }
 4030              		.loc 4 95 0
 4031 00c0 7230BFE6 		sxth	r3, r2
 4032              	.LVL282:
 4033              	.LBE4066:
 4034              	.LBE4067:
 4035              	.LBE4075:
 4036              	.LBB4076:
 4037              	.LBB4077:
 4038              	.LBB4078:
 4039              	.LBB4079:
 4040              	.LBB4080:
 4041              	.LBB4081:
 4042              	.LBB4082:
 4043              	.LBB4083:
 158:C:/Renesas/e2studio_2021_01_workspace_RZA2M_ANPR/ANPR_RZA2M_RDK/src/tensorflow_lite/src/third_party/gemmlowp/fixedpoint\fixedpoint.h **** }
 4044              		.loc 4 158 0
 4045 00c4 000053E3 		cmp	r3, #0
 4046              	.LBE4083:
 4047              	.LBE4082:
 4048              	.LBE4081:
 4049              	.LBB4084:
 4050              	.LBB4085:
 141:C:/Renesas/e2studio_2021_01_workspace_RZA2M_ANPR/ANPR_RZA2M_RDK/src/tensorflow_lite/src/third_party/gemmlowp/fixedpoint\fixedpoint.h **** }
 4051              		.loc 4 141 0
 4052 00c8 C320A0E1 		asr	r2, r3, #1
 4053 00cc 013003A2 		andge	r3, r3, #1
 4054              	.LVL283:
 4055 00d0 0030A0B3 		movlt	r3, #0
 4056              	.LVL284:
 4057              	.LBE4085:
 4058              	.LBE4084:
 4059              	.LBE4080:
 4060              	.LBE4079:
 4061              	.LBE4078:
 4062              	.LBE4077:
 4063              	.LBE4076:
 4064              	.LBB4086:
 4065              	.LBB4087:
 4066              	.LBB4088:
  95:C:/Renesas/e2studio_2021_01_workspace_RZA2M_ANPR/ANPR_RZA2M_RDK/src/tensorflow_lite/src/third_party/gemmlowp/fixedpoint\fixedpoint.h **** }
 4067              		.loc 4 95 0
 4068 00d4 033080E0 		add	r3, r0, r3
 4069              	.LVL285:
 4070 00d8 020083E0 		add	r0, r3, r2
 4071              	.LVL286:
 4072              	.LBE4088:
 4073              	.LBE4087:
 4074              	.LBE4086:
 4075              	.LBB4089:
 4076              	.LBB4074:
 4077              	.LBB4073:
 4078              	.LBB4072:
 347:C:/Renesas/e2studio_2021_01_workspace_RZA2M_ANPR/ANPR_RZA2M_RDK/src/tensorflow_lite/src/third_party/gemmlowp/fixedpoint\fixedpoint.h ****   std::int16_t nudge = ab_32 >= 0 ? (1 << 14) : (1 - (1 << 14));
 4079              		.loc 4 347 0
 4080 00dc F63007E3 		movw	r3, #28918
 4081 00e0 800360E1 		smulbb	r0, r0, r3
 4082              	.LVL287:
 348:C:/Renesas/e2studio_2021_01_workspace_RZA2M_ANPR/ANPR_RZA2M_RDK/src/tensorflow_lite/src/third_party/gemmlowp/fixedpoint\fixedpoint.h ****   std::int16_t ab_x2_high16 =
 4083              		.loc 4 348 0
 4084 00e4 01200CE3 		movw	r2, #49153
 4085 00e8 FF2F4FE3 		movt	r2, 65535
 4086 00ec 000050E3 		cmp	r0, #0
 4087 00f0 0129A0A3 		movge	r2, #16384
 4088              	.LVL288:
 350:C:/Renesas/e2studio_2021_01_workspace_RZA2M_ANPR/ANPR_RZA2M_RDK/src/tensorflow_lite/src/third_party/gemmlowp/fixedpoint\fixedpoint.h ****   return overflow ? std::numeric_limits<std::int16_t>::max() : ab_x2_high16;
 4089              		.loc 4 350 0
 4090 00f4 020080E0 		add	r0, r0, r2
 4091              	.LVL289:
 4092 00f8 012080E0 		add	r2, r0, r1
 4093 00fc 000050E3 		cmp	r0, #0
 4094 0100 0200A0B1 		movlt	r0, r2
 4095              	.LBE4072:
 4096              	.LBE4073:
 4097              	.LBE4074:
 4098              	.LBE4089:
 4099              	.LBB4090:
 4100              	.LBB4091:
 4101              	.LBB4092:
 4102              	.LBB4093:
 4103              	.LBB4094:
 4104              	.LBB4095:
 265:C:/Renesas/e2studio_2021_01_workspace_RZA2M_ANPR/ANPR_RZA2M_RDK/src/tensorflow_lite/src/third_party/gemmlowp/fixedpoint\fixedpoint.h ****   return static_cast<std::int16_t>(
 4105              		.loc 4 265 0
 4106 0104 C00783E0 		add	r0, r3, r0, asr #15
 4107              	.LVL290:
 4108              	.LBB4096:
 4109              	.LBB4097:
 4110              		.file 5 "c:\\program files (x86)\\gnu tools arm embedded\\6 2017-q2-update\\arm-none-eabi\\include
   1:c:\program files (x86)\gnu tools arm embedded\6 2017-q2-update\arm-none-eabi\include\c++\6.3.1\bits\stl_algobase.h **** // Core algorithmic facilities -*- C++ -*-
   2:c:\program files (x86)\gnu tools arm embedded\6 2017-q2-update\arm-none-eabi\include\c++\6.3.1\bits\stl_algobase.h **** 
   3:c:\program files (x86)\gnu tools arm embedded\6 2017-q2-update\arm-none-eabi\include\c++\6.3.1\bits\stl_algobase.h **** // Copyright (C) 2001-2016 Free Software Foundation, Inc.
   4:c:\program files (x86)\gnu tools arm embedded\6 2017-q2-update\arm-none-eabi\include\c++\6.3.1\bits\stl_algobase.h **** //
   5:c:\program files (x86)\gnu tools arm embedded\6 2017-q2-update\arm-none-eabi\include\c++\6.3.1\bits\stl_algobase.h **** // This file is part of the GNU ISO C++ Library.  This library is free
   6:c:\program files (x86)\gnu tools arm embedded\6 2017-q2-update\arm-none-eabi\include\c++\6.3.1\bits\stl_algobase.h **** // software; you can redistribute it and/or modify it under the
   7:c:\program files (x86)\gnu tools arm embedded\6 2017-q2-update\arm-none-eabi\include\c++\6.3.1\bits\stl_algobase.h **** // terms of the GNU General Public License as published by the
   8:c:\program files (x86)\gnu tools arm embedded\6 2017-q2-update\arm-none-eabi\include\c++\6.3.1\bits\stl_algobase.h **** // Free Software Foundation; either version 3, or (at your option)
   9:c:\program files (x86)\gnu tools arm embedded\6 2017-q2-update\arm-none-eabi\include\c++\6.3.1\bits\stl_algobase.h **** // any later version.
  10:c:\program files (x86)\gnu tools arm embedded\6 2017-q2-update\arm-none-eabi\include\c++\6.3.1\bits\stl_algobase.h **** 
  11:c:\program files (x86)\gnu tools arm embedded\6 2017-q2-update\arm-none-eabi\include\c++\6.3.1\bits\stl_algobase.h **** // This library is distributed in the hope that it will be useful,
  12:c:\program files (x86)\gnu tools arm embedded\6 2017-q2-update\arm-none-eabi\include\c++\6.3.1\bits\stl_algobase.h **** // but WITHOUT ANY WARRANTY; without even the implied warranty of
  13:c:\program files (x86)\gnu tools arm embedded\6 2017-q2-update\arm-none-eabi\include\c++\6.3.1\bits\stl_algobase.h **** // MERCHANTABILITY or FITNESS FOR A PARTICULAR PURPOSE.  See the
  14:c:\program files (x86)\gnu tools arm embedded\6 2017-q2-update\arm-none-eabi\include\c++\6.3.1\bits\stl_algobase.h **** // GNU General Public License for more details.
  15:c:\program files (x86)\gnu tools arm embedded\6 2017-q2-update\arm-none-eabi\include\c++\6.3.1\bits\stl_algobase.h **** 
  16:c:\program files (x86)\gnu tools arm embedded\6 2017-q2-update\arm-none-eabi\include\c++\6.3.1\bits\stl_algobase.h **** // Under Section 7 of GPL version 3, you are granted additional
  17:c:\program files (x86)\gnu tools arm embedded\6 2017-q2-update\arm-none-eabi\include\c++\6.3.1\bits\stl_algobase.h **** // permissions described in the GCC Runtime Library Exception, version
  18:c:\program files (x86)\gnu tools arm embedded\6 2017-q2-update\arm-none-eabi\include\c++\6.3.1\bits\stl_algobase.h **** // 3.1, as published by the Free Software Foundation.
  19:c:\program files (x86)\gnu tools arm embedded\6 2017-q2-update\arm-none-eabi\include\c++\6.3.1\bits\stl_algobase.h **** 
  20:c:\program files (x86)\gnu tools arm embedded\6 2017-q2-update\arm-none-eabi\include\c++\6.3.1\bits\stl_algobase.h **** // You should have received a copy of the GNU General Public License and
  21:c:\program files (x86)\gnu tools arm embedded\6 2017-q2-update\arm-none-eabi\include\c++\6.3.1\bits\stl_algobase.h **** // a copy of the GCC Runtime Library Exception along with this program;
  22:c:\program files (x86)\gnu tools arm embedded\6 2017-q2-update\arm-none-eabi\include\c++\6.3.1\bits\stl_algobase.h **** // see the files COPYING3 and COPYING.RUNTIME respectively.  If not, see
  23:c:\program files (x86)\gnu tools arm embedded\6 2017-q2-update\arm-none-eabi\include\c++\6.3.1\bits\stl_algobase.h **** // <http://www.gnu.org/licenses/>.
  24:c:\program files (x86)\gnu tools arm embedded\6 2017-q2-update\arm-none-eabi\include\c++\6.3.1\bits\stl_algobase.h **** 
  25:c:\program files (x86)\gnu tools arm embedded\6 2017-q2-update\arm-none-eabi\include\c++\6.3.1\bits\stl_algobase.h **** /*
  26:c:\program files (x86)\gnu tools arm embedded\6 2017-q2-update\arm-none-eabi\include\c++\6.3.1\bits\stl_algobase.h ****  *
  27:c:\program files (x86)\gnu tools arm embedded\6 2017-q2-update\arm-none-eabi\include\c++\6.3.1\bits\stl_algobase.h ****  * Copyright (c) 1994
  28:c:\program files (x86)\gnu tools arm embedded\6 2017-q2-update\arm-none-eabi\include\c++\6.3.1\bits\stl_algobase.h ****  * Hewlett-Packard Company
  29:c:\program files (x86)\gnu tools arm embedded\6 2017-q2-update\arm-none-eabi\include\c++\6.3.1\bits\stl_algobase.h ****  *
  30:c:\program files (x86)\gnu tools arm embedded\6 2017-q2-update\arm-none-eabi\include\c++\6.3.1\bits\stl_algobase.h ****  * Permission to use, copy, modify, distribute and sell this software
  31:c:\program files (x86)\gnu tools arm embedded\6 2017-q2-update\arm-none-eabi\include\c++\6.3.1\bits\stl_algobase.h ****  * and its documentation for any purpose is hereby granted without fee,
  32:c:\program files (x86)\gnu tools arm embedded\6 2017-q2-update\arm-none-eabi\include\c++\6.3.1\bits\stl_algobase.h ****  * provided that the above copyright notice appear in all copies and
  33:c:\program files (x86)\gnu tools arm embedded\6 2017-q2-update\arm-none-eabi\include\c++\6.3.1\bits\stl_algobase.h ****  * that both that copyright notice and this permission notice appear
  34:c:\program files (x86)\gnu tools arm embedded\6 2017-q2-update\arm-none-eabi\include\c++\6.3.1\bits\stl_algobase.h ****  * in supporting documentation.  Hewlett-Packard Company makes no
  35:c:\program files (x86)\gnu tools arm embedded\6 2017-q2-update\arm-none-eabi\include\c++\6.3.1\bits\stl_algobase.h ****  * representations about the suitability of this software for any
  36:c:\program files (x86)\gnu tools arm embedded\6 2017-q2-update\arm-none-eabi\include\c++\6.3.1\bits\stl_algobase.h ****  * purpose.  It is provided "as is" without express or implied warranty.
  37:c:\program files (x86)\gnu tools arm embedded\6 2017-q2-update\arm-none-eabi\include\c++\6.3.1\bits\stl_algobase.h ****  *
  38:c:\program files (x86)\gnu tools arm embedded\6 2017-q2-update\arm-none-eabi\include\c++\6.3.1\bits\stl_algobase.h ****  *
  39:c:\program files (x86)\gnu tools arm embedded\6 2017-q2-update\arm-none-eabi\include\c++\6.3.1\bits\stl_algobase.h ****  * Copyright (c) 1996-1998
  40:c:\program files (x86)\gnu tools arm embedded\6 2017-q2-update\arm-none-eabi\include\c++\6.3.1\bits\stl_algobase.h ****  * Silicon Graphics Computer Systems, Inc.
  41:c:\program files (x86)\gnu tools arm embedded\6 2017-q2-update\arm-none-eabi\include\c++\6.3.1\bits\stl_algobase.h ****  *
  42:c:\program files (x86)\gnu tools arm embedded\6 2017-q2-update\arm-none-eabi\include\c++\6.3.1\bits\stl_algobase.h ****  * Permission to use, copy, modify, distribute and sell this software
  43:c:\program files (x86)\gnu tools arm embedded\6 2017-q2-update\arm-none-eabi\include\c++\6.3.1\bits\stl_algobase.h ****  * and its documentation for any purpose is hereby granted without fee,
  44:c:\program files (x86)\gnu tools arm embedded\6 2017-q2-update\arm-none-eabi\include\c++\6.3.1\bits\stl_algobase.h ****  * provided that the above copyright notice appear in all copies and
  45:c:\program files (x86)\gnu tools arm embedded\6 2017-q2-update\arm-none-eabi\include\c++\6.3.1\bits\stl_algobase.h ****  * that both that copyright notice and this permission notice appear
  46:c:\program files (x86)\gnu tools arm embedded\6 2017-q2-update\arm-none-eabi\include\c++\6.3.1\bits\stl_algobase.h ****  * in supporting documentation.  Silicon Graphics makes no
  47:c:\program files (x86)\gnu tools arm embedded\6 2017-q2-update\arm-none-eabi\include\c++\6.3.1\bits\stl_algobase.h ****  * representations about the suitability of this software for any
  48:c:\program files (x86)\gnu tools arm embedded\6 2017-q2-update\arm-none-eabi\include\c++\6.3.1\bits\stl_algobase.h ****  * purpose.  It is provided "as is" without express or implied warranty.
  49:c:\program files (x86)\gnu tools arm embedded\6 2017-q2-update\arm-none-eabi\include\c++\6.3.1\bits\stl_algobase.h ****  */
  50:c:\program files (x86)\gnu tools arm embedded\6 2017-q2-update\arm-none-eabi\include\c++\6.3.1\bits\stl_algobase.h **** 
  51:c:\program files (x86)\gnu tools arm embedded\6 2017-q2-update\arm-none-eabi\include\c++\6.3.1\bits\stl_algobase.h **** /** @file bits/stl_algobase.h
  52:c:\program files (x86)\gnu tools arm embedded\6 2017-q2-update\arm-none-eabi\include\c++\6.3.1\bits\stl_algobase.h ****  *  This is an internal header file, included by other library headers.
  53:c:\program files (x86)\gnu tools arm embedded\6 2017-q2-update\arm-none-eabi\include\c++\6.3.1\bits\stl_algobase.h ****  *  Do not attempt to use it directly. @headername{algorithm}
  54:c:\program files (x86)\gnu tools arm embedded\6 2017-q2-update\arm-none-eabi\include\c++\6.3.1\bits\stl_algobase.h ****  */
  55:c:\program files (x86)\gnu tools arm embedded\6 2017-q2-update\arm-none-eabi\include\c++\6.3.1\bits\stl_algobase.h **** 
  56:c:\program files (x86)\gnu tools arm embedded\6 2017-q2-update\arm-none-eabi\include\c++\6.3.1\bits\stl_algobase.h **** #ifndef _STL_ALGOBASE_H
  57:c:\program files (x86)\gnu tools arm embedded\6 2017-q2-update\arm-none-eabi\include\c++\6.3.1\bits\stl_algobase.h **** #define _STL_ALGOBASE_H 1
  58:c:\program files (x86)\gnu tools arm embedded\6 2017-q2-update\arm-none-eabi\include\c++\6.3.1\bits\stl_algobase.h **** 
  59:c:\program files (x86)\gnu tools arm embedded\6 2017-q2-update\arm-none-eabi\include\c++\6.3.1\bits\stl_algobase.h **** #include <bits/c++config.h>
  60:c:\program files (x86)\gnu tools arm embedded\6 2017-q2-update\arm-none-eabi\include\c++\6.3.1\bits\stl_algobase.h **** #include <bits/functexcept.h>
  61:c:\program files (x86)\gnu tools arm embedded\6 2017-q2-update\arm-none-eabi\include\c++\6.3.1\bits\stl_algobase.h **** #include <bits/cpp_type_traits.h>
  62:c:\program files (x86)\gnu tools arm embedded\6 2017-q2-update\arm-none-eabi\include\c++\6.3.1\bits\stl_algobase.h **** #include <ext/type_traits.h>
  63:c:\program files (x86)\gnu tools arm embedded\6 2017-q2-update\arm-none-eabi\include\c++\6.3.1\bits\stl_algobase.h **** #include <ext/numeric_traits.h>
  64:c:\program files (x86)\gnu tools arm embedded\6 2017-q2-update\arm-none-eabi\include\c++\6.3.1\bits\stl_algobase.h **** #include <bits/stl_pair.h>
  65:c:\program files (x86)\gnu tools arm embedded\6 2017-q2-update\arm-none-eabi\include\c++\6.3.1\bits\stl_algobase.h **** #include <bits/stl_iterator_base_types.h>
  66:c:\program files (x86)\gnu tools arm embedded\6 2017-q2-update\arm-none-eabi\include\c++\6.3.1\bits\stl_algobase.h **** #include <bits/stl_iterator_base_funcs.h>
  67:c:\program files (x86)\gnu tools arm embedded\6 2017-q2-update\arm-none-eabi\include\c++\6.3.1\bits\stl_algobase.h **** #include <bits/stl_iterator.h>
  68:c:\program files (x86)\gnu tools arm embedded\6 2017-q2-update\arm-none-eabi\include\c++\6.3.1\bits\stl_algobase.h **** #include <bits/concept_check.h>
  69:c:\program files (x86)\gnu tools arm embedded\6 2017-q2-update\arm-none-eabi\include\c++\6.3.1\bits\stl_algobase.h **** #include <debug/debug.h>
  70:c:\program files (x86)\gnu tools arm embedded\6 2017-q2-update\arm-none-eabi\include\c++\6.3.1\bits\stl_algobase.h **** #include <bits/move.h> // For std::swap and _GLIBCXX_MOVE
  71:c:\program files (x86)\gnu tools arm embedded\6 2017-q2-update\arm-none-eabi\include\c++\6.3.1\bits\stl_algobase.h **** #include <bits/predefined_ops.h>
  72:c:\program files (x86)\gnu tools arm embedded\6 2017-q2-update\arm-none-eabi\include\c++\6.3.1\bits\stl_algobase.h **** 
  73:c:\program files (x86)\gnu tools arm embedded\6 2017-q2-update\arm-none-eabi\include\c++\6.3.1\bits\stl_algobase.h **** namespace std _GLIBCXX_VISIBILITY(default)
  74:c:\program files (x86)\gnu tools arm embedded\6 2017-q2-update\arm-none-eabi\include\c++\6.3.1\bits\stl_algobase.h **** {
  75:c:\program files (x86)\gnu tools arm embedded\6 2017-q2-update\arm-none-eabi\include\c++\6.3.1\bits\stl_algobase.h **** _GLIBCXX_BEGIN_NAMESPACE_VERSION
  76:c:\program files (x86)\gnu tools arm embedded\6 2017-q2-update\arm-none-eabi\include\c++\6.3.1\bits\stl_algobase.h **** 
  77:c:\program files (x86)\gnu tools arm embedded\6 2017-q2-update\arm-none-eabi\include\c++\6.3.1\bits\stl_algobase.h **** #if __cplusplus < 201103L
  78:c:\program files (x86)\gnu tools arm embedded\6 2017-q2-update\arm-none-eabi\include\c++\6.3.1\bits\stl_algobase.h ****   // See http://gcc.gnu.org/ml/libstdc++/2004-08/msg00167.html: in a
  79:c:\program files (x86)\gnu tools arm embedded\6 2017-q2-update\arm-none-eabi\include\c++\6.3.1\bits\stl_algobase.h ****   // nutshell, we are partially implementing the resolution of DR 187,
  80:c:\program files (x86)\gnu tools arm embedded\6 2017-q2-update\arm-none-eabi\include\c++\6.3.1\bits\stl_algobase.h ****   // when it's safe, i.e., the value_types are equal.
  81:c:\program files (x86)\gnu tools arm embedded\6 2017-q2-update\arm-none-eabi\include\c++\6.3.1\bits\stl_algobase.h ****   template<bool _BoolType>
  82:c:\program files (x86)\gnu tools arm embedded\6 2017-q2-update\arm-none-eabi\include\c++\6.3.1\bits\stl_algobase.h ****     struct __iter_swap
  83:c:\program files (x86)\gnu tools arm embedded\6 2017-q2-update\arm-none-eabi\include\c++\6.3.1\bits\stl_algobase.h ****     {
  84:c:\program files (x86)\gnu tools arm embedded\6 2017-q2-update\arm-none-eabi\include\c++\6.3.1\bits\stl_algobase.h ****       template<typename _ForwardIterator1, typename _ForwardIterator2>
  85:c:\program files (x86)\gnu tools arm embedded\6 2017-q2-update\arm-none-eabi\include\c++\6.3.1\bits\stl_algobase.h ****         static void
  86:c:\program files (x86)\gnu tools arm embedded\6 2017-q2-update\arm-none-eabi\include\c++\6.3.1\bits\stl_algobase.h ****         iter_swap(_ForwardIterator1 __a, _ForwardIterator2 __b)
  87:c:\program files (x86)\gnu tools arm embedded\6 2017-q2-update\arm-none-eabi\include\c++\6.3.1\bits\stl_algobase.h ****         {
  88:c:\program files (x86)\gnu tools arm embedded\6 2017-q2-update\arm-none-eabi\include\c++\6.3.1\bits\stl_algobase.h ****           typedef typename iterator_traits<_ForwardIterator1>::value_type
  89:c:\program files (x86)\gnu tools arm embedded\6 2017-q2-update\arm-none-eabi\include\c++\6.3.1\bits\stl_algobase.h ****             _ValueType1;
  90:c:\program files (x86)\gnu tools arm embedded\6 2017-q2-update\arm-none-eabi\include\c++\6.3.1\bits\stl_algobase.h ****           _ValueType1 __tmp = _GLIBCXX_MOVE(*__a);
  91:c:\program files (x86)\gnu tools arm embedded\6 2017-q2-update\arm-none-eabi\include\c++\6.3.1\bits\stl_algobase.h ****           *__a = _GLIBCXX_MOVE(*__b);
  92:c:\program files (x86)\gnu tools arm embedded\6 2017-q2-update\arm-none-eabi\include\c++\6.3.1\bits\stl_algobase.h ****           *__b = _GLIBCXX_MOVE(__tmp);
  93:c:\program files (x86)\gnu tools arm embedded\6 2017-q2-update\arm-none-eabi\include\c++\6.3.1\bits\stl_algobase.h **** 	}
  94:c:\program files (x86)\gnu tools arm embedded\6 2017-q2-update\arm-none-eabi\include\c++\6.3.1\bits\stl_algobase.h ****     };
  95:c:\program files (x86)\gnu tools arm embedded\6 2017-q2-update\arm-none-eabi\include\c++\6.3.1\bits\stl_algobase.h **** 
  96:c:\program files (x86)\gnu tools arm embedded\6 2017-q2-update\arm-none-eabi\include\c++\6.3.1\bits\stl_algobase.h ****   template<>
  97:c:\program files (x86)\gnu tools arm embedded\6 2017-q2-update\arm-none-eabi\include\c++\6.3.1\bits\stl_algobase.h ****     struct __iter_swap<true>
  98:c:\program files (x86)\gnu tools arm embedded\6 2017-q2-update\arm-none-eabi\include\c++\6.3.1\bits\stl_algobase.h ****     {
  99:c:\program files (x86)\gnu tools arm embedded\6 2017-q2-update\arm-none-eabi\include\c++\6.3.1\bits\stl_algobase.h ****       template<typename _ForwardIterator1, typename _ForwardIterator2>
 100:c:\program files (x86)\gnu tools arm embedded\6 2017-q2-update\arm-none-eabi\include\c++\6.3.1\bits\stl_algobase.h ****         static void 
 101:c:\program files (x86)\gnu tools arm embedded\6 2017-q2-update\arm-none-eabi\include\c++\6.3.1\bits\stl_algobase.h ****         iter_swap(_ForwardIterator1 __a, _ForwardIterator2 __b)
 102:c:\program files (x86)\gnu tools arm embedded\6 2017-q2-update\arm-none-eabi\include\c++\6.3.1\bits\stl_algobase.h ****         {
 103:c:\program files (x86)\gnu tools arm embedded\6 2017-q2-update\arm-none-eabi\include\c++\6.3.1\bits\stl_algobase.h ****           swap(*__a, *__b);
 104:c:\program files (x86)\gnu tools arm embedded\6 2017-q2-update\arm-none-eabi\include\c++\6.3.1\bits\stl_algobase.h ****         }
 105:c:\program files (x86)\gnu tools arm embedded\6 2017-q2-update\arm-none-eabi\include\c++\6.3.1\bits\stl_algobase.h ****     };
 106:c:\program files (x86)\gnu tools arm embedded\6 2017-q2-update\arm-none-eabi\include\c++\6.3.1\bits\stl_algobase.h **** #endif
 107:c:\program files (x86)\gnu tools arm embedded\6 2017-q2-update\arm-none-eabi\include\c++\6.3.1\bits\stl_algobase.h **** 
 108:c:\program files (x86)\gnu tools arm embedded\6 2017-q2-update\arm-none-eabi\include\c++\6.3.1\bits\stl_algobase.h ****   /**
 109:c:\program files (x86)\gnu tools arm embedded\6 2017-q2-update\arm-none-eabi\include\c++\6.3.1\bits\stl_algobase.h ****    *  @brief Swaps the contents of two iterators.
 110:c:\program files (x86)\gnu tools arm embedded\6 2017-q2-update\arm-none-eabi\include\c++\6.3.1\bits\stl_algobase.h ****    *  @ingroup mutating_algorithms
 111:c:\program files (x86)\gnu tools arm embedded\6 2017-q2-update\arm-none-eabi\include\c++\6.3.1\bits\stl_algobase.h ****    *  @param  __a  An iterator.
 112:c:\program files (x86)\gnu tools arm embedded\6 2017-q2-update\arm-none-eabi\include\c++\6.3.1\bits\stl_algobase.h ****    *  @param  __b  Another iterator.
 113:c:\program files (x86)\gnu tools arm embedded\6 2017-q2-update\arm-none-eabi\include\c++\6.3.1\bits\stl_algobase.h ****    *  @return   Nothing.
 114:c:\program files (x86)\gnu tools arm embedded\6 2017-q2-update\arm-none-eabi\include\c++\6.3.1\bits\stl_algobase.h ****    *
 115:c:\program files (x86)\gnu tools arm embedded\6 2017-q2-update\arm-none-eabi\include\c++\6.3.1\bits\stl_algobase.h ****    *  This function swaps the values pointed to by two iterators, not the
 116:c:\program files (x86)\gnu tools arm embedded\6 2017-q2-update\arm-none-eabi\include\c++\6.3.1\bits\stl_algobase.h ****    *  iterators themselves.
 117:c:\program files (x86)\gnu tools arm embedded\6 2017-q2-update\arm-none-eabi\include\c++\6.3.1\bits\stl_algobase.h ****   */
 118:c:\program files (x86)\gnu tools arm embedded\6 2017-q2-update\arm-none-eabi\include\c++\6.3.1\bits\stl_algobase.h ****   template<typename _ForwardIterator1, typename _ForwardIterator2>
 119:c:\program files (x86)\gnu tools arm embedded\6 2017-q2-update\arm-none-eabi\include\c++\6.3.1\bits\stl_algobase.h ****     inline void
 120:c:\program files (x86)\gnu tools arm embedded\6 2017-q2-update\arm-none-eabi\include\c++\6.3.1\bits\stl_algobase.h ****     iter_swap(_ForwardIterator1 __a, _ForwardIterator2 __b)
 121:c:\program files (x86)\gnu tools arm embedded\6 2017-q2-update\arm-none-eabi\include\c++\6.3.1\bits\stl_algobase.h ****     {
 122:c:\program files (x86)\gnu tools arm embedded\6 2017-q2-update\arm-none-eabi\include\c++\6.3.1\bits\stl_algobase.h ****       // concept requirements
 123:c:\program files (x86)\gnu tools arm embedded\6 2017-q2-update\arm-none-eabi\include\c++\6.3.1\bits\stl_algobase.h ****       __glibcxx_function_requires(_Mutable_ForwardIteratorConcept<
 124:c:\program files (x86)\gnu tools arm embedded\6 2017-q2-update\arm-none-eabi\include\c++\6.3.1\bits\stl_algobase.h **** 				  _ForwardIterator1>)
 125:c:\program files (x86)\gnu tools arm embedded\6 2017-q2-update\arm-none-eabi\include\c++\6.3.1\bits\stl_algobase.h ****       __glibcxx_function_requires(_Mutable_ForwardIteratorConcept<
 126:c:\program files (x86)\gnu tools arm embedded\6 2017-q2-update\arm-none-eabi\include\c++\6.3.1\bits\stl_algobase.h **** 				  _ForwardIterator2>)
 127:c:\program files (x86)\gnu tools arm embedded\6 2017-q2-update\arm-none-eabi\include\c++\6.3.1\bits\stl_algobase.h **** 
 128:c:\program files (x86)\gnu tools arm embedded\6 2017-q2-update\arm-none-eabi\include\c++\6.3.1\bits\stl_algobase.h **** #if __cplusplus < 201103L
 129:c:\program files (x86)\gnu tools arm embedded\6 2017-q2-update\arm-none-eabi\include\c++\6.3.1\bits\stl_algobase.h ****       typedef typename iterator_traits<_ForwardIterator1>::value_type
 130:c:\program files (x86)\gnu tools arm embedded\6 2017-q2-update\arm-none-eabi\include\c++\6.3.1\bits\stl_algobase.h **** 	_ValueType1;
 131:c:\program files (x86)\gnu tools arm embedded\6 2017-q2-update\arm-none-eabi\include\c++\6.3.1\bits\stl_algobase.h ****       typedef typename iterator_traits<_ForwardIterator2>::value_type
 132:c:\program files (x86)\gnu tools arm embedded\6 2017-q2-update\arm-none-eabi\include\c++\6.3.1\bits\stl_algobase.h **** 	_ValueType2;
 133:c:\program files (x86)\gnu tools arm embedded\6 2017-q2-update\arm-none-eabi\include\c++\6.3.1\bits\stl_algobase.h **** 
 134:c:\program files (x86)\gnu tools arm embedded\6 2017-q2-update\arm-none-eabi\include\c++\6.3.1\bits\stl_algobase.h ****       __glibcxx_function_requires(_ConvertibleConcept<_ValueType1,
 135:c:\program files (x86)\gnu tools arm embedded\6 2017-q2-update\arm-none-eabi\include\c++\6.3.1\bits\stl_algobase.h **** 				  _ValueType2>)
 136:c:\program files (x86)\gnu tools arm embedded\6 2017-q2-update\arm-none-eabi\include\c++\6.3.1\bits\stl_algobase.h ****       __glibcxx_function_requires(_ConvertibleConcept<_ValueType2,
 137:c:\program files (x86)\gnu tools arm embedded\6 2017-q2-update\arm-none-eabi\include\c++\6.3.1\bits\stl_algobase.h **** 				  _ValueType1>)
 138:c:\program files (x86)\gnu tools arm embedded\6 2017-q2-update\arm-none-eabi\include\c++\6.3.1\bits\stl_algobase.h **** 
 139:c:\program files (x86)\gnu tools arm embedded\6 2017-q2-update\arm-none-eabi\include\c++\6.3.1\bits\stl_algobase.h ****       typedef typename iterator_traits<_ForwardIterator1>::reference
 140:c:\program files (x86)\gnu tools arm embedded\6 2017-q2-update\arm-none-eabi\include\c++\6.3.1\bits\stl_algobase.h **** 	_ReferenceType1;
 141:c:\program files (x86)\gnu tools arm embedded\6 2017-q2-update\arm-none-eabi\include\c++\6.3.1\bits\stl_algobase.h ****       typedef typename iterator_traits<_ForwardIterator2>::reference
 142:c:\program files (x86)\gnu tools arm embedded\6 2017-q2-update\arm-none-eabi\include\c++\6.3.1\bits\stl_algobase.h **** 	_ReferenceType2;
 143:c:\program files (x86)\gnu tools arm embedded\6 2017-q2-update\arm-none-eabi\include\c++\6.3.1\bits\stl_algobase.h ****       std::__iter_swap<__are_same<_ValueType1, _ValueType2>::__value
 144:c:\program files (x86)\gnu tools arm embedded\6 2017-q2-update\arm-none-eabi\include\c++\6.3.1\bits\stl_algobase.h **** 	&& __are_same<_ValueType1&, _ReferenceType1>::__value
 145:c:\program files (x86)\gnu tools arm embedded\6 2017-q2-update\arm-none-eabi\include\c++\6.3.1\bits\stl_algobase.h **** 	&& __are_same<_ValueType2&, _ReferenceType2>::__value>::
 146:c:\program files (x86)\gnu tools arm embedded\6 2017-q2-update\arm-none-eabi\include\c++\6.3.1\bits\stl_algobase.h **** 	iter_swap(__a, __b);
 147:c:\program files (x86)\gnu tools arm embedded\6 2017-q2-update\arm-none-eabi\include\c++\6.3.1\bits\stl_algobase.h **** #else
 148:c:\program files (x86)\gnu tools arm embedded\6 2017-q2-update\arm-none-eabi\include\c++\6.3.1\bits\stl_algobase.h ****       swap(*__a, *__b);
 149:c:\program files (x86)\gnu tools arm embedded\6 2017-q2-update\arm-none-eabi\include\c++\6.3.1\bits\stl_algobase.h **** #endif
 150:c:\program files (x86)\gnu tools arm embedded\6 2017-q2-update\arm-none-eabi\include\c++\6.3.1\bits\stl_algobase.h ****     }
 151:c:\program files (x86)\gnu tools arm embedded\6 2017-q2-update\arm-none-eabi\include\c++\6.3.1\bits\stl_algobase.h **** 
 152:c:\program files (x86)\gnu tools arm embedded\6 2017-q2-update\arm-none-eabi\include\c++\6.3.1\bits\stl_algobase.h ****   /**
 153:c:\program files (x86)\gnu tools arm embedded\6 2017-q2-update\arm-none-eabi\include\c++\6.3.1\bits\stl_algobase.h ****    *  @brief Swap the elements of two sequences.
 154:c:\program files (x86)\gnu tools arm embedded\6 2017-q2-update\arm-none-eabi\include\c++\6.3.1\bits\stl_algobase.h ****    *  @ingroup mutating_algorithms
 155:c:\program files (x86)\gnu tools arm embedded\6 2017-q2-update\arm-none-eabi\include\c++\6.3.1\bits\stl_algobase.h ****    *  @param  __first1  A forward iterator.
 156:c:\program files (x86)\gnu tools arm embedded\6 2017-q2-update\arm-none-eabi\include\c++\6.3.1\bits\stl_algobase.h ****    *  @param  __last1   A forward iterator.
 157:c:\program files (x86)\gnu tools arm embedded\6 2017-q2-update\arm-none-eabi\include\c++\6.3.1\bits\stl_algobase.h ****    *  @param  __first2  A forward iterator.
 158:c:\program files (x86)\gnu tools arm embedded\6 2017-q2-update\arm-none-eabi\include\c++\6.3.1\bits\stl_algobase.h ****    *  @return   An iterator equal to @p first2+(last1-first1).
 159:c:\program files (x86)\gnu tools arm embedded\6 2017-q2-update\arm-none-eabi\include\c++\6.3.1\bits\stl_algobase.h ****    *
 160:c:\program files (x86)\gnu tools arm embedded\6 2017-q2-update\arm-none-eabi\include\c++\6.3.1\bits\stl_algobase.h ****    *  Swaps each element in the range @p [first1,last1) with the
 161:c:\program files (x86)\gnu tools arm embedded\6 2017-q2-update\arm-none-eabi\include\c++\6.3.1\bits\stl_algobase.h ****    *  corresponding element in the range @p [first2,(last1-first1)).
 162:c:\program files (x86)\gnu tools arm embedded\6 2017-q2-update\arm-none-eabi\include\c++\6.3.1\bits\stl_algobase.h ****    *  The ranges must not overlap.
 163:c:\program files (x86)\gnu tools arm embedded\6 2017-q2-update\arm-none-eabi\include\c++\6.3.1\bits\stl_algobase.h ****   */
 164:c:\program files (x86)\gnu tools arm embedded\6 2017-q2-update\arm-none-eabi\include\c++\6.3.1\bits\stl_algobase.h ****   template<typename _ForwardIterator1, typename _ForwardIterator2>
 165:c:\program files (x86)\gnu tools arm embedded\6 2017-q2-update\arm-none-eabi\include\c++\6.3.1\bits\stl_algobase.h ****     _ForwardIterator2
 166:c:\program files (x86)\gnu tools arm embedded\6 2017-q2-update\arm-none-eabi\include\c++\6.3.1\bits\stl_algobase.h ****     swap_ranges(_ForwardIterator1 __first1, _ForwardIterator1 __last1,
 167:c:\program files (x86)\gnu tools arm embedded\6 2017-q2-update\arm-none-eabi\include\c++\6.3.1\bits\stl_algobase.h **** 		_ForwardIterator2 __first2)
 168:c:\program files (x86)\gnu tools arm embedded\6 2017-q2-update\arm-none-eabi\include\c++\6.3.1\bits\stl_algobase.h ****     {
 169:c:\program files (x86)\gnu tools arm embedded\6 2017-q2-update\arm-none-eabi\include\c++\6.3.1\bits\stl_algobase.h ****       // concept requirements
 170:c:\program files (x86)\gnu tools arm embedded\6 2017-q2-update\arm-none-eabi\include\c++\6.3.1\bits\stl_algobase.h ****       __glibcxx_function_requires(_Mutable_ForwardIteratorConcept<
 171:c:\program files (x86)\gnu tools arm embedded\6 2017-q2-update\arm-none-eabi\include\c++\6.3.1\bits\stl_algobase.h **** 				  _ForwardIterator1>)
 172:c:\program files (x86)\gnu tools arm embedded\6 2017-q2-update\arm-none-eabi\include\c++\6.3.1\bits\stl_algobase.h ****       __glibcxx_function_requires(_Mutable_ForwardIteratorConcept<
 173:c:\program files (x86)\gnu tools arm embedded\6 2017-q2-update\arm-none-eabi\include\c++\6.3.1\bits\stl_algobase.h **** 				  _ForwardIterator2>)
 174:c:\program files (x86)\gnu tools arm embedded\6 2017-q2-update\arm-none-eabi\include\c++\6.3.1\bits\stl_algobase.h ****       __glibcxx_requires_valid_range(__first1, __last1);
 175:c:\program files (x86)\gnu tools arm embedded\6 2017-q2-update\arm-none-eabi\include\c++\6.3.1\bits\stl_algobase.h **** 
 176:c:\program files (x86)\gnu tools arm embedded\6 2017-q2-update\arm-none-eabi\include\c++\6.3.1\bits\stl_algobase.h ****       for (; __first1 != __last1; ++__first1, (void)++__first2)
 177:c:\program files (x86)\gnu tools arm embedded\6 2017-q2-update\arm-none-eabi\include\c++\6.3.1\bits\stl_algobase.h **** 	std::iter_swap(__first1, __first2);
 178:c:\program files (x86)\gnu tools arm embedded\6 2017-q2-update\arm-none-eabi\include\c++\6.3.1\bits\stl_algobase.h ****       return __first2;
 179:c:\program files (x86)\gnu tools arm embedded\6 2017-q2-update\arm-none-eabi\include\c++\6.3.1\bits\stl_algobase.h ****     }
 180:c:\program files (x86)\gnu tools arm embedded\6 2017-q2-update\arm-none-eabi\include\c++\6.3.1\bits\stl_algobase.h **** 
 181:c:\program files (x86)\gnu tools arm embedded\6 2017-q2-update\arm-none-eabi\include\c++\6.3.1\bits\stl_algobase.h ****   /**
 182:c:\program files (x86)\gnu tools arm embedded\6 2017-q2-update\arm-none-eabi\include\c++\6.3.1\bits\stl_algobase.h ****    *  @brief This does what you think it does.
 183:c:\program files (x86)\gnu tools arm embedded\6 2017-q2-update\arm-none-eabi\include\c++\6.3.1\bits\stl_algobase.h ****    *  @ingroup sorting_algorithms
 184:c:\program files (x86)\gnu tools arm embedded\6 2017-q2-update\arm-none-eabi\include\c++\6.3.1\bits\stl_algobase.h ****    *  @param  __a  A thing of arbitrary type.
 185:c:\program files (x86)\gnu tools arm embedded\6 2017-q2-update\arm-none-eabi\include\c++\6.3.1\bits\stl_algobase.h ****    *  @param  __b  Another thing of arbitrary type.
 186:c:\program files (x86)\gnu tools arm embedded\6 2017-q2-update\arm-none-eabi\include\c++\6.3.1\bits\stl_algobase.h ****    *  @return   The lesser of the parameters.
 187:c:\program files (x86)\gnu tools arm embedded\6 2017-q2-update\arm-none-eabi\include\c++\6.3.1\bits\stl_algobase.h ****    *
 188:c:\program files (x86)\gnu tools arm embedded\6 2017-q2-update\arm-none-eabi\include\c++\6.3.1\bits\stl_algobase.h ****    *  This is the simple classic generic implementation.  It will work on
 189:c:\program files (x86)\gnu tools arm embedded\6 2017-q2-update\arm-none-eabi\include\c++\6.3.1\bits\stl_algobase.h ****    *  temporary expressions, since they are only evaluated once, unlike a
 190:c:\program files (x86)\gnu tools arm embedded\6 2017-q2-update\arm-none-eabi\include\c++\6.3.1\bits\stl_algobase.h ****    *  preprocessor macro.
 191:c:\program files (x86)\gnu tools arm embedded\6 2017-q2-update\arm-none-eabi\include\c++\6.3.1\bits\stl_algobase.h ****   */
 192:c:\program files (x86)\gnu tools arm embedded\6 2017-q2-update\arm-none-eabi\include\c++\6.3.1\bits\stl_algobase.h ****   template<typename _Tp>
 193:c:\program files (x86)\gnu tools arm embedded\6 2017-q2-update\arm-none-eabi\include\c++\6.3.1\bits\stl_algobase.h ****     _GLIBCXX14_CONSTEXPR
 194:c:\program files (x86)\gnu tools arm embedded\6 2017-q2-update\arm-none-eabi\include\c++\6.3.1\bits\stl_algobase.h ****     inline const _Tp&
 195:c:\program files (x86)\gnu tools arm embedded\6 2017-q2-update\arm-none-eabi\include\c++\6.3.1\bits\stl_algobase.h ****     min(const _Tp& __a, const _Tp& __b)
 196:c:\program files (x86)\gnu tools arm embedded\6 2017-q2-update\arm-none-eabi\include\c++\6.3.1\bits\stl_algobase.h ****     {
 197:c:\program files (x86)\gnu tools arm embedded\6 2017-q2-update\arm-none-eabi\include\c++\6.3.1\bits\stl_algobase.h ****       // concept requirements
 198:c:\program files (x86)\gnu tools arm embedded\6 2017-q2-update\arm-none-eabi\include\c++\6.3.1\bits\stl_algobase.h ****       __glibcxx_function_requires(_LessThanComparableConcept<_Tp>)
 199:c:\program files (x86)\gnu tools arm embedded\6 2017-q2-update\arm-none-eabi\include\c++\6.3.1\bits\stl_algobase.h ****       //return __b < __a ? __b : __a;
 200:c:\program files (x86)\gnu tools arm embedded\6 2017-q2-update\arm-none-eabi\include\c++\6.3.1\bits\stl_algobase.h ****       if (__b < __a)
 4111              		.loc 5 200 0
 4112 0108 010050E1 		cmp	r0, r1
 4113 010c 0100A0A1 		movge	r0, r1
 4114              	.LVL291:
 4115              	.LBE4097:
 4116              	.LBE4096:
 4117              	.LBE4095:
 4118              	.LBE4094:
 4119              	.LBE4093:
 4120              	.LBE4092:
 4121              	.LBE4091:
 4122              	.LBE4090:
 742:C:/Renesas/e2studio_2021_01_workspace_RZA2M_ANPR/ANPR_RZA2M_RDK/src/tensorflow_lite/src/third_party/gemmlowp/fixedpoint\fixedpoint.h **** 
 4123              		.loc 4 742 0
 4124 0110 3080BDE8 		pop	{r4, r5, pc}
 4125              	.LVL292:
 4126              	.L152:
 4127              	.LBB4098:
 4128              	.LBB4034:
 4129              	.LBB4028:
 4130              	.LBB4022:
 347:C:/Renesas/e2studio_2021_01_workspace_RZA2M_ANPR/ANPR_RZA2M_RDK/src/tensorflow_lite/src/third_party/gemmlowp/fixedpoint\fixedpoint.h ****   std::int16_t nudge = ab_32 >= 0 ? (1 << 14) : (1 - (1 << 14));
 4131              		.loc 4 347 0
 4132 0114 0259A0E3 		mov	r5, #32768
 4133              	.LBE4022:
 4134              	.LBE4028:
 4135              	.LBE4034:
 4136              	.LBE4098:
 4137              	.LBB4099:
 4138              	.LBB4013:
 4139              	.LBB4011:
 4140              	.LBB4009:
 351:C:/Renesas/e2studio_2021_01_workspace_RZA2M_ANPR/ANPR_RZA2M_RDK/src/tensorflow_lite/src/third_party/gemmlowp/fixedpoint\fixedpoint.h **** }
 4141              		.loc 4 351 0
 4142 0118 01400CE3 		movw	r4, #49153
 4143              	.LBE4009:
 4144              	.LBE4011:
 4145              	.LBE4013:
 4146              	.LBE4099:
 4147              	.LBB4100:
 4148              	.LBB4035:
 4149              	.LBB4029:
 4150              	.LBB4023:
 347:C:/Renesas/e2studio_2021_01_workspace_RZA2M_ANPR/ANPR_RZA2M_RDK/src/tensorflow_lite/src/third_party/gemmlowp/fixedpoint\fixedpoint.h ****   std::int16_t nudge = ab_32 >= 0 ? (1 << 14) : (1 - (1 << 14));
 4151              		.loc 4 347 0
 4152 011c 00504CE3 		movt	r5, 49152
 4153              	.LBE4023:
 4154              	.LBE4029:
 4155              	.LBE4035:
 4156              	.LBE4100:
 4157              	.LBB4101:
 4158              	.LBB4014:
 4159              	.LBB4012:
 4160              	.LBB4010:
 351:C:/Renesas/e2studio_2021_01_workspace_RZA2M_ANPR/ANPR_RZA2M_RDK/src/tensorflow_lite/src/third_party/gemmlowp/fixedpoint\fixedpoint.h **** }
 4161              		.loc 4 351 0
 4162 0120 FF4F4FE3 		movt	r4, 65535
 4163 0124 FF2F07E3 		movw	r2, #32767
 4164 0128 FEEF07E3 		movw	lr, #32766
 4165 012c CAFFFFEA 		b	.L144
 4166              	.LVL293:
 4167              	.L158:
 4168 0130 92020CE0 		mul	ip, r2, r2
 4169              	.LBE4010:
 4170              	.LBE4012:
 4171              	.LBE4014:
 4172              	.LBE4101:
 4173              	.LBB4102:
 4174              	.LBB4036:
 4175              	.LBB4030:
 4176              	.LBB4024:
 348:C:/Renesas/e2studio_2021_01_workspace_RZA2M_ANPR/ANPR_RZA2M_RDK/src/tensorflow_lite/src/third_party/gemmlowp/fixedpoint\fixedpoint.h ****   std::int16_t ab_x2_high16 =
 4177              		.loc 4 348 0
 4178 0134 01400CE3 		movw	r4, #49153
 4179 0138 7220FFE6 		uxth	r2, r2
 4180              	.LVL294:
 4181 013c FF4F4FE3 		movt	r4, 65535
 4182 0140 01398CE2 		add	r3, ip, #16384
 4183              	.LVL295:
 4184 0144 011083E0 		add	r1, r3, r1
 4185              	.LVL296:
 4186 0148 000053E3 		cmp	r3, #0
 4187 014c 0130A0B1 		movlt	r3, r1
 4188 0150 D3E7AFE7 		sbfx	lr, r3, #15, #16
 4189 0154 C0FFFFEA 		b	.L144
 4190              	.LBE4024:
 4191              	.LBE4030:
 4192              	.LBE4036:
 4193              	.LBE4102:
 4194              		.cfi_endproc
 4195              	.LFE4575:
 4196              		.cantunwind
 4197              		.fnend
 4199              		.section	.text._ZN8gemmlowp22exp_on_negative_valuesIsLi4EEENS_10FixedPointIT_Li0EEENS1_IS2_XT0_EEE
 4200              		.align	2
 4201              		.weak	_ZN8gemmlowp22exp_on_negative_valuesIsLi4EEENS_10FixedPointIT_Li0EEENS1_IS2_XT0_EEE
 4202              		.syntax unified
 4203              		.arm
 4204              		.fpu neon
 4206              	_ZN8gemmlowp22exp_on_negative_valuesIsLi4EEENS_10FixedPointIT_Li0EEENS1_IS2_XT0_EEE:
 4207              		.fnstart
 4208              	.LFB4527:
 746:C:/Renesas/e2studio_2021_01_workspace_RZA2M_ANPR/ANPR_RZA2M_RDK/src/tensorflow_lite/src/third_party/gemmlowp/fixedpoint\fixedpoint.h ****     FixedPoint<tRawType, tIntegerBits> a) {
 4209              		.loc 4 746 0
 4210              		.cfi_startproc
 4211              		@ args = 0, pretend = 0, frame = 0
 4212              		@ frame_needed = 0, uses_anonymous_args = 0
 4213              	.LVL297:
 4214 0000 F0412DE9 		push	{r4, r5, r6, r7, r8, lr}
 4215              		.cfi_def_cfa_offset 24
 4216              		.cfi_offset 4, -24
 4217              		.cfi_offset 5, -20
 4218              		.cfi_offset 6, -16
 4219              		.cfi_offset 7, -12
 4220              		.cfi_offset 8, -8
 4221              		.cfi_offset 14, -4
 4222 0004 7060BFE6 		sxth	r6, r0
 4223              	.LVL298:
 746:C:/Renesas/e2studio_2021_01_workspace_RZA2M_ANPR/ANPR_RZA2M_RDK/src/tensorflow_lite/src/third_party/gemmlowp/fixedpoint\fixedpoint.h ****     FixedPoint<tRawType, tIntegerBits> a) {
 4224              		.loc 4 746 0
 4225 0008 0070A0E1 		mov	r7, r0	@ movhi
 4226              	.LBB4415:
 4227              	.LBB4416:
 4228              	.LBB4417:
 106:C:/Renesas/e2studio_2021_01_workspace_RZA2M_ANPR/ANPR_RZA2M_RDK/src/tensorflow_lite/src/third_party/gemmlowp/fixedpoint\fixedpoint.h **** }
 4229              		.loc 4 106 0
 4230 000c 862BE0E1 		mvn	r2, r6, lsl #23
 4231              	.LBE4417:
 4232              	.LBE4416:
 4233              	.LBE4415:
 4234              	.LBB4420:
 4235              	.LBB4421:
 4236              	.LBB4422:
 4237              	.LBB4423:
 4238              	.LBB4424:
 348:C:/Renesas/e2studio_2021_01_workspace_RZA2M_ANPR/ANPR_RZA2M_RDK/src/tensorflow_lite/src/third_party/gemmlowp/fixedpoint\fixedpoint.h ****   std::int16_t ab_x2_high16 =
 4239              		.loc 4 348 0
 4240 0010 01400CE3 		movw	r4, #49153
 4241 0014 FF4F4FE3 		movt	r4, 65535
 4242              	.LBE4424:
 4243              	.LBE4423:
 4244              	.LBE4422:
 4245              	.LBE4421:
 4246              	.LBE4420:
 4247              	.LBB4471:
 4248              	.LBB4419:
 4249              	.LBB4418:
 106:C:/Renesas/e2studio_2021_01_workspace_RZA2M_ANPR/ANPR_RZA2M_RDK/src/tensorflow_lite/src/third_party/gemmlowp/fixedpoint\fixedpoint.h **** }
 4250              		.loc 4 106 0
 4251 0018 A22BE0E1 		mvn	r2, r2, lsr #23
 4252 001c 7250FFE6 		uxth	r5, r2
 4253              	.LVL299:
 4254              	.LBE4418:
 4255              	.LBE4419:
 4256              	.LBE4471:
 756:C:/Renesas/e2studio_2021_01_workspace_RZA2M_ANPR/ANPR_RZA2M_RDK/src/tensorflow_lite/src/third_party/gemmlowp/fixedpoint\fixedpoint.h ****   tRawType remainder = (a_mod_quarter_minus_one_quarter - a).raw();
 4257              		.loc 4 756 0
 4258 0020 0502A0E1 		lsl	r0, r5, #4
 4259              	.LVL300:
 4260 0024 FEFFFFEB 		bl	_ZN8gemmlowp55exp_on_interval_between_negative_one_quarter_and_0_exclIsEENS_10FixedPointIT_Li0E
 4261              	.LVL301:
 4262 0028 7000BFE6 		sxth	r0, r0
 4263              	.LVL302:
 4264              	.LBB4472:
 4265              	.LBB4473:
 4266              	.LBB4474:
 106:C:/Renesas/e2studio_2021_01_workspace_RZA2M_ANPR/ANPR_RZA2M_RDK/src/tensorflow_lite/src/third_party/gemmlowp/fixedpoint\fixedpoint.h **** }
 4267              		.loc 4 106 0
 4268 002c 073045E0 		sub	r3, r5, r7
 4269              	.LVL303:
 4270              	.LBE4474:
 4271              	.LBE4473:
 4272              	.LBE4472:
 4273              	.LBB4475:
 4274              	.LBB4440:
 4275              	.LBB4441:
 158:C:/Renesas/e2studio_2021_01_workspace_RZA2M_ANPR/ANPR_RZA2M_RDK/src/tensorflow_lite/src/third_party/gemmlowp/fixedpoint\fixedpoint.h **** }
 4276              		.loc 4 158 0
 4277 0030 7330FFE6 		uxth	r3, r3
 4278              	.LBE4441:
 4279              	.LBE4440:
 4280              	.LBB4444:
 4281              	.LBB4435:
 4282              	.LBB4430:
 4283              	.LBB4425:
 350:C:/Renesas/e2studio_2021_01_workspace_RZA2M_ANPR/ANPR_RZA2M_RDK/src/tensorflow_lite/src/third_party/gemmlowp/fixedpoint\fixedpoint.h ****   return overflow ? std::numeric_limits<std::int16_t>::max() : ab_x2_high16;
 4284              		.loc 4 350 0
 4285 0034 FFEF07E3 		movw	lr, #32767
 347:C:/Renesas/e2studio_2021_01_workspace_RZA2M_ANPR/ANPR_RZA2M_RDK/src/tensorflow_lite/src/third_party/gemmlowp/fixedpoint\fixedpoint.h ****   std::int16_t nudge = ab_32 >= 0 ? (1 << 14) : (1 - (1 << 14));
 4286              		.loc 4 347 0
 4287 0038 001180E0 		add	r1, r0, r0, lsl #2
 4288              	.LBE4425:
 4289              	.LBE4430:
 4290              	.LBE4435:
 4291              	.LBE4444:
 4292              	.LBE4475:
 4293              	.LBB4476:
 4294              	.LBB4477:
 4295              	.LBB4478:
 4296              	.LBB4479:
 158:C:/Renesas/e2studio_2021_01_workspace_RZA2M_ANPR/ANPR_RZA2M_RDK/src/tensorflow_lite/src/third_party/gemmlowp/fixedpoint\fixedpoint.h **** }
 4297              		.loc 4 158 0
 4298 003c 16CF6FE1 		clz	ip, r6
 4299              	.LBE4479:
 4300              	.LBE4478:
 4301              	.LBE4477:
 4302              	.LBE4476:
 4303              	.LBB4486:
 4304              	.LBB4445:
 4305              	.LBB4442:
 4306 0040 D354E0E7 		ubfx	r5, r3, #9, #1
 4307              	.LVL304:
 4308              	.LBE4442:
 4309              	.LBE4445:
 4310              	.LBE4486:
 4311              	.LBB4487:
 4312              	.LBB4484:
 4313              	.LBB4482:
 4314              	.LBB4480:
 4315 0044 ACC2A0E1 		lsr	ip, ip, #5
 4316              	.LBE4480:
 4317              	.LBE4482:
 4318              	.LBE4484:
 4319              	.LBE4487:
 4320              	.LBB4488:
 4321              	.LBB4446:
 4322              	.LBB4436:
 4323              	.LBB4431:
 4324              	.LBB4426:
 347:C:/Renesas/e2studio_2021_01_workspace_RZA2M_ANPR/ANPR_RZA2M_RDK/src/tensorflow_lite/src/third_party/gemmlowp/fixedpoint\fixedpoint.h ****   std::int16_t nudge = ab_32 >= 0 ? (1 << 14) : (1 - (1 << 14));
 4325              		.loc 4 347 0
 4326 0048 011360E0 		rsb	r1, r0, r1, lsl #6
 4327              	.LBE4426:
 4328              	.LBE4431:
 4329              	.LBE4436:
 4330              	.LBE4446:
 4331              	.LBB4447:
 4332              	.LBB4443:
 158:C:/Renesas/e2studio_2021_01_workspace_RZA2M_ANPR/ANPR_RZA2M_RDK/src/tensorflow_lite/src/third_party/gemmlowp/fixedpoint\fixedpoint.h **** }
 4333              		.loc 4 158 0
 4334 004c 002065E2 		rsb	r2, r5, #0
 4335              	.LVL305:
 4336              	.LBE4443:
 4337              	.LBE4447:
 4338              	.LBB4448:
 4339              	.LBB4449:
 4340              	.LBB4450:
 4341              	.LBB4451:
  71:C:/Renesas/e2studio_2021_01_workspace_RZA2M_ANPR/ANPR_RZA2M_RDK/src/tensorflow_lite/src/third_party/gemmlowp/fixedpoint\fixedpoint.h **** }
 4342              		.loc 4 71 0
 4343 0050 015045E2 		sub	r5, r5, #1
 4344              	.LBE4451:
 4345              	.LBE4450:
 4346              	.LBE4449:
 4347              	.LBE4448:
 4348              	.LBB4464:
 4349              	.LBB4437:
 4350              	.LBB4432:
 4351              	.LBB4427:
 347:C:/Renesas/e2studio_2021_01_workspace_RZA2M_ANPR/ANPR_RZA2M_RDK/src/tensorflow_lite/src/third_party/gemmlowp/fixedpoint\fixedpoint.h ****   std::int16_t nudge = ab_32 >= 0 ? (1 << 14) : (1 - (1 << 14));
 4352              		.loc 4 347 0
 4353 0054 011181E0 		add	r1, r1, r1, lsl #2
 4354              	.LVL306:
 4355              	.LBE4427:
 4356              	.LBE4432:
 4357              	.LBE4437:
 4358              	.LBE4464:
 4359              	.LBB4465:
 4360              	.LBB4460:
 4361              	.LBB4453:
 4362              	.LBB4452:
  71:C:/Renesas/e2studio_2021_01_workspace_RZA2M_ANPR/ANPR_RZA2M_RDK/src/tensorflow_lite/src/third_party/gemmlowp/fixedpoint\fixedpoint.h **** }
 4363              		.loc 4 71 0
 4364 0058 057000E0 		and	r7, r0, r5
 4365              	.LVL307:
 4366              	.LBE4452:
 4367              	.LBE4453:
 4368              	.LBE4460:
 4369              	.LBE4465:
 4370              	.LBE4488:
 4371              	.LBB4489:
 4372              	.LBB4490:
 4373              	.LBB4491:
 4374              	.LBB4492:
 4375              	.LBB4493:
 347:C:/Renesas/e2studio_2021_01_workspace_RZA2M_ANPR/ANPR_RZA2M_RDK/src/tensorflow_lite/src/third_party/gemmlowp/fixedpoint\fixedpoint.h ****   std::int16_t nudge = ab_32 >= 0 ? (1 << 14) : (1 - (1 << 14));
 4376              		.loc 4 347 0
 4377 005c A30D04E3 		movw	r0, #19875
 4378              	.LVL308:
 4379              	.LBE4493:
 4380              	.LBE4492:
 4381              	.LBE4491:
 4382              	.LBE4490:
 4383              	.LBE4489:
 4384              	.LBB4526:
 4385              	.LBB4466:
 4386              	.LBB4438:
 4387              	.LBB4433:
 4388              	.LBB4428:
 348:C:/Renesas/e2studio_2021_01_workspace_RZA2M_ANPR/ANPR_RZA2M_RDK/src/tensorflow_lite/src/third_party/gemmlowp/fixedpoint\fixedpoint.h ****   std::int16_t ab_x2_high16 =
 4389              		.loc 4 348 0
 4390 0060 0112B0E1 		lsls	r1, r1, #4
 4391              	.LVL309:
 4392              	.LBE4428:
 4393              	.LBE4433:
 4394              	.LBE4438:
 4395              	.LBE4466:
 4396              	.LBE4526:
 4397              	.LBB4527:
 4398              	.LBB4500:
 4399              	.LBB4501:
 158:C:/Renesas/e2studio_2021_01_workspace_RZA2M_ANPR/ANPR_RZA2M_RDK/src/tensorflow_lite/src/third_party/gemmlowp/fixedpoint\fixedpoint.h **** }
 4400              		.loc 4 158 0
 4401 0064 5365E0E7 		ubfx	r6, r3, #10, #1
 4402              	.LVL310:
 4403              	.LBE4501:
 4404              	.LBE4500:
 4405              	.LBE4527:
 4406              	.LBB4528:
 4407              	.LBB4529:
 4408              	.LBB4530:
 4409 0068 5386E0E7 		ubfx	r8, r3, #12, #1
 4410              	.LBE4530:
 4411              	.LBE4529:
 4412              	.LBE4528:
 4413              	.LBB4561:
 4414              	.LBB4467:
 4415              	.LBB4439:
 4416              	.LBB4434:
 4417              	.LBB4429:
 348:C:/Renesas/e2studio_2021_01_workspace_RZA2M_ANPR/ANPR_RZA2M_RDK/src/tensorflow_lite/src/third_party/gemmlowp/fixedpoint\fixedpoint.h ****   std::int16_t ab_x2_high16 =
 4418              		.loc 4 348 0
 4419 006c 0450A041 		movmi	r5, r4
 4420 0070 0159A053 		movpl	r5, #16384
 4421              	.LVL311:
 350:C:/Renesas/e2studio_2021_01_workspace_RZA2M_ANPR/ANPR_RZA2M_RDK/src/tensorflow_lite/src/third_party/gemmlowp/fixedpoint\fixedpoint.h ****   return overflow ? std::numeric_limits<std::int16_t>::max() : ab_x2_high16;
 4422              		.loc 4 350 0
 4423 0074 051081E0 		add	r1, r1, r5
 4424              	.LVL312:
 4425 0078 0E5081E0 		add	r5, r1, lr
 4426 007c 000051E3 		cmp	r1, #0
 4427 0080 0510A0B1 		movlt	r1, r5
 4428              	.LBE4429:
 4429              	.LBE4434:
 4430              	.LBE4439:
 4431              	.LBE4467:
 4432              	.LBE4561:
 4433              	.LBB4562:
 4434              	.LBB4503:
 4435              	.LBB4502:
 158:C:/Renesas/e2studio_2021_01_workspace_RZA2M_ANPR/ANPR_RZA2M_RDK/src/tensorflow_lite/src/third_party/gemmlowp/fixedpoint\fixedpoint.h **** }
 4436              		.loc 4 158 0
 4437 0084 005066E2 		rsb	r5, r6, #0
 4438              	.LBE4502:
 4439              	.LBE4503:
 4440              	.LBE4562:
 4441              	.LBB4563:
 4442              	.LBB4468:
 4443              	.LBB4461:
 4444              	.LBB4454:
 4445              	.LBB4455:
  71:C:/Renesas/e2studio_2021_01_workspace_RZA2M_ANPR/ANPR_RZA2M_RDK/src/tensorflow_lite/src/third_party/gemmlowp/fixedpoint\fixedpoint.h **** }
 4446              		.loc 4 71 0
 4447 0088 C11702E0 		and	r1, r2, r1, asr #15
 4448              	.LBE4455:
 4449              	.LBE4454:
 4450              	.LBE4461:
 4451              	.LBE4468:
 4452              	.LBE4563:
 4453              	.LBB4564:
 4454              	.LBB4504:
 4455              	.LBB4505:
 4456              	.LBB4506:
 4457              	.LBB4507:
 4458 008c 016046E2 		sub	r6, r6, #1
 4459              	.LBE4507:
 4460              	.LBE4506:
 4461              	.LBE4505:
 4462              	.LBE4504:
 4463              	.LBE4564:
 4464              	.LBB4565:
 4465              	.LBB4566:
 4466              	.LBB4567:
 4467              	.LBB4568:
 4468              	.LBB4569:
 347:C:/Renesas/e2studio_2021_01_workspace_RZA2M_ANPR/ANPR_RZA2M_RDK/src/tensorflow_lite/src/third_party/gemmlowp/fixedpoint\fixedpoint.h ****   std::int16_t nudge = ab_32 >= 0 ? (1 << 14) : (1 - (1 << 14));
 4469              		.loc 4 347 0
 4470 0090 172F02E3 		movw	r2, #12055
 4471              	.LVL313:
 4472              	.LBE4569:
 4473              	.LBE4568:
 4474              	.LBE4567:
 4475              	.LBE4566:
 4476              	.LBE4565:
 4477              	.LBB4602:
 4478              	.LBB4469:
 4479              	.LBB4462:
 4480              	.LBB4456:
 4481              	.LBB4457:
  83:C:/Renesas/e2studio_2021_01_workspace_RZA2M_ANPR/ANPR_RZA2M_RDK/src/tensorflow_lite/src/third_party/gemmlowp/fixedpoint\fixedpoint.h **** }
 4482              		.loc 4 83 0
 4483 0094 071021E0 		eor	r1, r1, r7
 4484              	.LBE4457:
 4485              	.LBE4456:
 4486              	.LBE4462:
 4487              	.LBE4469:
 4488              	.LBE4602:
 4489              	.LBB4603:
 4490              	.LBB4576:
 4491              	.LBB4577:
 158:C:/Renesas/e2studio_2021_01_workspace_RZA2M_ANPR/ANPR_RZA2M_RDK/src/tensorflow_lite/src/third_party/gemmlowp/fixedpoint\fixedpoint.h **** }
 4492              		.loc 4 158 0
 4493 0098 D375E0E7 		ubfx	r7, r3, #11, #1
 4494              	.LBE4577:
 4495              	.LBE4576:
 4496              	.LBE4603:
 4497              	.LBB4604:
 4498              	.LBB4470:
 4499              	.LBB4463:
 4500              	.LBB4459:
 4501              	.LBB4458:
  83:C:/Renesas/e2studio_2021_01_workspace_RZA2M_ANPR/ANPR_RZA2M_RDK/src/tensorflow_lite/src/third_party/gemmlowp/fixedpoint\fixedpoint.h **** }
 4502              		.loc 4 83 0
 4503 009c 7110BFE6 		sxth	r1, r1
 4504              	.LVL314:
 4505              	.LBE4458:
 4506              	.LBE4459:
 4507              	.LBE4463:
 4508              	.LBE4470:
 4509              	.LBE4604:
 4510              	.LBB4605:
 4511              	.LBB4520:
 4512              	.LBB4498:
 4513              	.LBB4496:
 4514              	.LBB4494:
 347:C:/Renesas/e2studio_2021_01_workspace_RZA2M_ANPR/ANPR_RZA2M_RDK/src/tensorflow_lite/src/third_party/gemmlowp/fixedpoint\fixedpoint.h ****   std::int16_t nudge = ab_32 >= 0 ? (1 << 14) : (1 - (1 << 14));
 4515              		.loc 4 347 0
 4516 00a0 810060E1 		smulbb	r0, r1, r0
 4517              	.LVL315:
 4518              	.LBE4494:
 4519              	.LBE4496:
 4520              	.LBE4498:
 4521              	.LBE4520:
 4522              	.LBB4521:
 4523              	.LBB4516:
 4524              	.LBB4509:
 4525              	.LBB4508:
  71:C:/Renesas/e2studio_2021_01_workspace_RZA2M_ANPR/ANPR_RZA2M_RDK/src/tensorflow_lite/src/third_party/gemmlowp/fixedpoint\fixedpoint.h **** }
 4526              		.loc 4 71 0
 4527 00a4 061001E0 		and	r1, r1, r6
 4528              	.LVL316:
 4529              	.LBE4508:
 4530              	.LBE4509:
 4531              	.LBE4516:
 4532              	.LBE4521:
 4533              	.LBB4522:
 4534              	.LBB4499:
 4535              	.LBB4497:
 4536              	.LBB4495:
 348:C:/Renesas/e2studio_2021_01_workspace_RZA2M_ANPR/ANPR_RZA2M_RDK/src/tensorflow_lite/src/third_party/gemmlowp/fixedpoint\fixedpoint.h ****   std::int16_t ab_x2_high16 =
 4537              		.loc 4 348 0
 4538 00a8 000050E3 		cmp	r0, #0
 4539 00ac 0460A0B1 		movlt	r6, r4
 4540 00b0 0169A0A3 		movge	r6, #16384
 4541              	.LVL317:
 350:C:/Renesas/e2studio_2021_01_workspace_RZA2M_ANPR/ANPR_RZA2M_RDK/src/tensorflow_lite/src/third_party/gemmlowp/fixedpoint\fixedpoint.h ****   return overflow ? std::numeric_limits<std::int16_t>::max() : ab_x2_high16;
 4542              		.loc 4 350 0
 4543 00b4 060080E0 		add	r0, r0, r6
 4544              	.LVL318:
 4545 00b8 0E6080E0 		add	r6, r0, lr
 4546 00bc 000050E3 		cmp	r0, #0
 4547 00c0 0600A0B1 		movlt	r0, r6
 4548              	.LBE4495:
 4549              	.LBE4497:
 4550              	.LBE4499:
 4551              	.LBE4522:
 4552              	.LBE4605:
 4553              	.LBB4606:
 4554              	.LBB4579:
 4555              	.LBB4578:
 158:C:/Renesas/e2studio_2021_01_workspace_RZA2M_ANPR/ANPR_RZA2M_RDK/src/tensorflow_lite/src/third_party/gemmlowp/fixedpoint\fixedpoint.h **** }
 4556              		.loc 4 158 0
 4557 00c4 006067E2 		rsb	r6, r7, #0
 4558              	.LBE4578:
 4559              	.LBE4579:
 4560              	.LBE4606:
 4561              	.LBB4607:
 4562              	.LBB4523:
 4563              	.LBB4517:
 4564              	.LBB4510:
 4565              	.LBB4511:
  71:C:/Renesas/e2studio_2021_01_workspace_RZA2M_ANPR/ANPR_RZA2M_RDK/src/tensorflow_lite/src/third_party/gemmlowp/fixedpoint\fixedpoint.h **** }
 4566              		.loc 4 71 0
 4567 00c8 C00705E0 		and	r0, r5, r0, asr #15
 4568              	.LBE4511:
 4569              	.LBE4510:
 4570              	.LBE4517:
 4571              	.LBE4523:
 4572              	.LBE4607:
 4573              	.LBB4608:
 4574              	.LBB4580:
 4575              	.LBB4581:
 4576              	.LBB4582:
 4577              	.LBB4583:
 4578 00cc 015047E2 		sub	r5, r7, #1
 4579              	.LVL319:
 4580              	.LBE4583:
 4581              	.LBE4582:
 4582              	.LBE4581:
 4583              	.LBE4580:
 4584              	.LBE4608:
 4585              	.LBB4609:
 4586              	.LBB4610:
 4587              	.LBB4611:
 4588              	.LBB4612:
 4589 00d0 01704CE2 		sub	r7, ip, #1
 4590              	.LBE4612:
 4591              	.LBE4611:
 4592              	.LBE4610:
 4593              	.LBE4609:
 4594              	.LBB4619:
 4595              	.LBB4524:
 4596              	.LBB4518:
 4597              	.LBB4512:
 4598              	.LBB4513:
  83:C:/Renesas/e2studio_2021_01_workspace_RZA2M_ANPR/ANPR_RZA2M_RDK/src/tensorflow_lite/src/third_party/gemmlowp/fixedpoint\fixedpoint.h **** }
 4599              		.loc 4 83 0
 4600 00d4 010020E0 		eor	r0, r0, r1
 4601              	.LBE4513:
 4602              	.LBE4512:
 4603              	.LBE4518:
 4604              	.LBE4524:
 4605              	.LBE4619:
 4606              	.LBB4620:
 4607              	.LBB4485:
 4608              	.LBB4483:
 4609              	.LBB4481:
 158:C:/Renesas/e2studio_2021_01_workspace_RZA2M_ANPR/ANPR_RZA2M_RDK/src/tensorflow_lite/src/third_party/gemmlowp/fixedpoint\fixedpoint.h **** }
 4610              		.loc 4 158 0
 4611 00d8 00C06CE2 		rsb	ip, ip, #0
 4612              	.LBE4481:
 4613              	.LBE4483:
 4614              	.LBE4485:
 4615              	.LBE4620:
 4616              	.LBB4621:
 4617              	.LBB4525:
 4618              	.LBB4519:
 4619              	.LBB4515:
 4620              	.LBB4514:
  83:C:/Renesas/e2studio_2021_01_workspace_RZA2M_ANPR/ANPR_RZA2M_RDK/src/tensorflow_lite/src/third_party/gemmlowp/fixedpoint\fixedpoint.h **** }
 4621              		.loc 4 83 0
 4622 00dc 7010BFE6 		sxth	r1, r0
 4623              	.LVL320:
 4624              	.LBE4514:
 4625              	.LBE4515:
 4626              	.LBE4519:
 4627              	.LBE4525:
 4628              	.LBE4621:
 4629              	.LBB4622:
 4630              	.LBB4532:
 4631              	.LBB4533:
 4632              	.LBB4534:
 4633              	.LBB4535:
 347:C:/Renesas/e2studio_2021_01_workspace_RZA2M_ANPR/ANPR_RZA2M_RDK/src/tensorflow_lite/src/third_party/gemmlowp/fixedpoint\fixedpoint.h ****   std::int16_t nudge = ab_32 >= 0 ? (1 << 14) : (1 - (1 << 14));
 4634              		.loc 4 347 0
 4635 00e0 530101E3 		movw	r0, #4435
 4636              	.LBE4535:
 4637              	.LBE4534:
 4638              	.LBE4533:
 4639              	.LBE4532:
 4640              	.LBE4622:
 4641              	.LBB4623:
 4642              	.LBB4617:
 4643              	.LBB4614:
 4644              	.LBB4615:
  71:C:/Renesas/e2studio_2021_01_workspace_RZA2M_ANPR/ANPR_RZA2M_RDK/src/tensorflow_lite/src/third_party/gemmlowp/fixedpoint\fixedpoint.h **** }
 4645              		.loc 4 71 0
 4646 00e4 5CC0EEE7 		ubfx	ip, ip, #0, #15
 4647              	.LBE4615:
 4648              	.LBE4614:
 4649              	.LBE4617:
 4650              	.LBE4623:
 4651              	.LBB4624:
 4652              	.LBB4596:
 4653              	.LBB4574:
 4654              	.LBB4572:
 4655              	.LBB4570:
 347:C:/Renesas/e2studio_2021_01_workspace_RZA2M_ANPR/ANPR_RZA2M_RDK/src/tensorflow_lite/src/third_party/gemmlowp/fixedpoint\fixedpoint.h ****   std::int16_t nudge = ab_32 >= 0 ? (1 << 14) : (1 - (1 << 14));
 4656              		.loc 4 347 0
 4657 00e8 810262E1 		smulbb	r2, r1, r2
 4658              	.LVL321:
 4659              	.LBE4570:
 4660              	.LBE4572:
 4661              	.LBE4574:
 4662              	.LBE4596:
 4663              	.LBB4597:
 4664              	.LBB4592:
 4665              	.LBB4585:
 4666              	.LBB4584:
  71:C:/Renesas/e2studio_2021_01_workspace_RZA2M_ANPR/ANPR_RZA2M_RDK/src/tensorflow_lite/src/third_party/gemmlowp/fixedpoint\fixedpoint.h **** }
 4667              		.loc 4 71 0
 4668 00ec 051001E0 		and	r1, r1, r5
 4669              	.LVL322:
 4670              	.LBE4584:
 4671              	.LBE4585:
 4672              	.LBE4592:
 4673              	.LBE4597:
 4674              	.LBB4598:
 4675              	.LBB4575:
 4676              	.LBB4573:
 4677              	.LBB4571:
 348:C:/Renesas/e2studio_2021_01_workspace_RZA2M_ANPR/ANPR_RZA2M_RDK/src/tensorflow_lite/src/third_party/gemmlowp/fixedpoint\fixedpoint.h ****   std::int16_t ab_x2_high16 =
 4678              		.loc 4 348 0
 4679 00f0 000052E3 		cmp	r2, #0
 4680 00f4 0450A0B1 		movlt	r5, r4
 4681 00f8 0159A0A3 		movge	r5, #16384
 4682              	.LVL323:
 350:C:/Renesas/e2studio_2021_01_workspace_RZA2M_ANPR/ANPR_RZA2M_RDK/src/tensorflow_lite/src/third_party/gemmlowp/fixedpoint\fixedpoint.h ****   return overflow ? std::numeric_limits<std::int16_t>::max() : ab_x2_high16;
 4683              		.loc 4 350 0
 4684 00fc 052082E0 		add	r2, r2, r5
 4685              	.LVL324:
 4686 0100 0E5082E0 		add	r5, r2, lr
 4687 0104 000052E3 		cmp	r2, #0
 4688 0108 0520A0B1 		movlt	r2, r5
 4689              	.LBE4571:
 4690              	.LBE4573:
 4691              	.LBE4575:
 4692              	.LBE4598:
 4693              	.LBE4624:
 4694              	.LBB4625:
 4695              	.LBB4626:
 4696              	.LBB4627:
 158:C:/Renesas/e2studio_2021_01_workspace_RZA2M_ANPR/ANPR_RZA2M_RDK/src/tensorflow_lite/src/third_party/gemmlowp/fixedpoint\fixedpoint.h **** }
 4697              		.loc 4 158 0
 4698 010c D356E0E7 		ubfx	r5, r3, #13, #1
 4699              	.LBE4627:
 4700              	.LBE4626:
 4701              	.LBE4625:
 4702              	.LBB4652:
 4703              	.LBB4599:
 4704              	.LBB4593:
 4705              	.LBB4586:
 4706              	.LBB4587:
  71:C:/Renesas/e2studio_2021_01_workspace_RZA2M_ANPR/ANPR_RZA2M_RDK/src/tensorflow_lite/src/third_party/gemmlowp/fixedpoint\fixedpoint.h **** }
 4707              		.loc 4 71 0
 4708 0110 C22706E0 		and	r2, r6, r2, asr #15
 4709              	.LBE4587:
 4710              	.LBE4586:
 4711              	.LBE4593:
 4712              	.LBE4599:
 4713              	.LBE4652:
 4714              	.LBB4653:
 4715              	.LBB4542:
 4716              	.LBB4531:
 158:C:/Renesas/e2studio_2021_01_workspace_RZA2M_ANPR/ANPR_RZA2M_RDK/src/tensorflow_lite/src/third_party/gemmlowp/fixedpoint\fixedpoint.h **** }
 4717              		.loc 4 158 0
 4718 0114 006068E2 		rsb	r6, r8, #0
 4719              	.LVL325:
 4720              	.LBE4531:
 4721              	.LBE4542:
 4722              	.LBB4543:
 4723              	.LBB4544:
 4724              	.LBB4545:
 4725              	.LBB4546:
  71:C:/Renesas/e2studio_2021_01_workspace_RZA2M_ANPR/ANPR_RZA2M_RDK/src/tensorflow_lite/src/third_party/gemmlowp/fixedpoint\fixedpoint.h **** }
 4726              		.loc 4 71 0
 4727 0118 018048E2 		sub	r8, r8, #1
 4728              	.LBE4546:
 4729              	.LBE4545:
 4730              	.LBE4544:
 4731              	.LBE4543:
 4732              	.LBE4653:
 4733              	.LBB4654:
 4734              	.LBB4600:
 4735              	.LBB4594:
 4736              	.LBB4588:
 4737              	.LBB4589:
  83:C:/Renesas/e2studio_2021_01_workspace_RZA2M_ANPR/ANPR_RZA2M_RDK/src/tensorflow_lite/src/third_party/gemmlowp/fixedpoint\fixedpoint.h **** }
 4738              		.loc 4 83 0
 4739 011c 021021E0 		eor	r1, r1, r2
 4740              	.LBE4589:
 4741              	.LBE4588:
 4742              	.LBE4594:
 4743              	.LBE4600:
 4744              	.LBE4654:
 4745              	.LBB4655:
 4746              	.LBB4629:
 4747              	.LBB4630:
 4748              	.LBB4631:
 4749              	.LBB4632:
  71:C:/Renesas/e2studio_2021_01_workspace_RZA2M_ANPR/ANPR_RZA2M_RDK/src/tensorflow_lite/src/third_party/gemmlowp/fixedpoint\fixedpoint.h **** }
 4750              		.loc 4 71 0
 4751 0120 012045E2 		sub	r2, r5, #1
 4752              	.LBE4632:
 4753              	.LBE4631:
 4754              	.LBE4630:
 4755              	.LBE4629:
 4756              	.LBE4655:
 4757              	.LBB4656:
 4758              	.LBB4601:
 4759              	.LBB4595:
 4760              	.LBB4591:
 4761              	.LBB4590:
  83:C:/Renesas/e2studio_2021_01_workspace_RZA2M_ANPR/ANPR_RZA2M_RDK/src/tensorflow_lite/src/third_party/gemmlowp/fixedpoint\fixedpoint.h **** }
 4762              		.loc 4 83 0
 4763 0124 7110BFE6 		sxth	r1, r1
 4764              	.LVL326:
 4765              	.LBE4590:
 4766              	.LBE4591:
 4767              	.LBE4595:
 4768              	.LBE4601:
 4769              	.LBE4656:
 4770              	.LBB4657:
 4771              	.LBB4658:
 4772              	.LBB4659:
 158:C:/Renesas/e2studio_2021_01_workspace_RZA2M_ANPR/ANPR_RZA2M_RDK/src/tensorflow_lite/src/third_party/gemmlowp/fixedpoint\fixedpoint.h **** }
 4773              		.loc 4 158 0
 4774 0128 5337E0E7 		ubfx	r3, r3, #14, #1
 4775              	.LVL327:
 4776              	.LBE4659:
 4777              	.LBE4658:
 4778              	.LBE4657:
 4779              	.LBB4684:
 4780              	.LBB4556:
 4781              	.LBB4540:
 4782              	.LBB4538:
 4783              	.LBB4536:
 347:C:/Renesas/e2studio_2021_01_workspace_RZA2M_ANPR/ANPR_RZA2M_RDK/src/tensorflow_lite/src/third_party/gemmlowp/fixedpoint\fixedpoint.h ****   std::int16_t nudge = ab_32 >= 0 ? (1 << 14) : (1 - (1 << 14));
 4784              		.loc 4 347 0
 4785 012c 810060E1 		smulbb	r0, r1, r0
 4786              	.LVL328:
 4787              	.LBE4536:
 4788              	.LBE4538:
 4789              	.LBE4540:
 4790              	.LBE4556:
 4791              	.LBB4557:
 4792              	.LBB4553:
 4793              	.LBB4548:
 4794              	.LBB4547:
  71:C:/Renesas/e2studio_2021_01_workspace_RZA2M_ANPR/ANPR_RZA2M_RDK/src/tensorflow_lite/src/third_party/gemmlowp/fixedpoint\fixedpoint.h **** }
 4795              		.loc 4 71 0
 4796 0130 018008E0 		and	r8, r8, r1
 4797              	.LBE4547:
 4798              	.LBE4548:
 4799              	.LBE4553:
 4800              	.LBE4557:
 4801              	.LBE4684:
 4802              	.LBB4685:
 4803              	.LBB4641:
 4804              	.LBB4628:
 158:C:/Renesas/e2studio_2021_01_workspace_RZA2M_ANPR/ANPR_RZA2M_RDK/src/tensorflow_lite/src/third_party/gemmlowp/fixedpoint\fixedpoint.h **** }
 4805              		.loc 4 158 0
 4806 0134 001065E2 		rsb	r1, r5, #0
 4807              	.LVL329:
 4808              	.LBE4628:
 4809              	.LBE4641:
 4810              	.LBE4685:
 4811              	.LBB4686:
 4812              	.LBB4558:
 4813              	.LBB4541:
 4814              	.LBB4539:
 4815              	.LBB4537:
 348:C:/Renesas/e2studio_2021_01_workspace_RZA2M_ANPR/ANPR_RZA2M_RDK/src/tensorflow_lite/src/third_party/gemmlowp/fixedpoint\fixedpoint.h ****   std::int16_t ab_x2_high16 =
 4816              		.loc 4 348 0
 4817 0138 000050E3 		cmp	r0, #0
 4818 013c 0450A0B1 		movlt	r5, r4
 4819 0140 0159A0A3 		movge	r5, #16384
 4820              	.LVL330:
 350:C:/Renesas/e2studio_2021_01_workspace_RZA2M_ANPR/ANPR_RZA2M_RDK/src/tensorflow_lite/src/third_party/gemmlowp/fixedpoint\fixedpoint.h ****   return overflow ? std::numeric_limits<std::int16_t>::max() : ab_x2_high16;
 4821              		.loc 4 350 0
 4822 0144 050080E0 		add	r0, r0, r5
 4823              	.LVL331:
 4824 0148 0E5080E0 		add	r5, r0, lr
 4825 014c 000050E3 		cmp	r0, #0
 4826 0150 0500A0B1 		movlt	r0, r5
 4827              	.LBE4537:
 4828              	.LBE4539:
 4829              	.LBE4541:
 4830              	.LBE4558:
 4831              	.LBB4559:
 4832              	.LBB4554:
 4833              	.LBB4549:
 4834              	.LBB4550:
  71:C:/Renesas/e2studio_2021_01_workspace_RZA2M_ANPR/ANPR_RZA2M_RDK/src/tensorflow_lite/src/third_party/gemmlowp/fixedpoint\fixedpoint.h **** }
 4835              		.loc 4 71 0
 4836 0154 C00706E0 		and	r0, r6, r0, asr #15
 4837              	.LBE4550:
 4838              	.LBE4549:
 4839              	.LBE4554:
 4840              	.LBE4559:
 4841              	.LBE4686:
 4842              	.LBB4687:
 4843              	.LBB4661:
 4844              	.LBB4660:
 158:C:/Renesas/e2studio_2021_01_workspace_RZA2M_ANPR/ANPR_RZA2M_RDK/src/tensorflow_lite/src/third_party/gemmlowp/fixedpoint\fixedpoint.h **** }
 4845              		.loc 4 158 0
 4846 0158 006063E2 		rsb	r6, r3, #0
 4847              	.LVL332:
 4848              	.LBE4660:
 4849              	.LBE4661:
 4850              	.LBB4662:
 4851              	.LBB4663:
 4852              	.LBB4664:
 4853              	.LBB4665:
  71:C:/Renesas/e2studio_2021_01_workspace_RZA2M_ANPR/ANPR_RZA2M_RDK/src/tensorflow_lite/src/third_party/gemmlowp/fixedpoint\fixedpoint.h **** }
 4854              		.loc 4 71 0
 4855 015c 013043E2 		sub	r3, r3, #1
 4856              	.LBE4665:
 4857              	.LBE4664:
 4858              	.LBE4663:
 4859              	.LBE4662:
 4860              	.LBE4687:
 4861              	.LBB4688:
 4862              	.LBB4560:
 4863              	.LBB4555:
 4864              	.LBB4551:
 4865              	.LBB4552:
  83:C:/Renesas/e2studio_2021_01_workspace_RZA2M_ANPR/ANPR_RZA2M_RDK/src/tensorflow_lite/src/third_party/gemmlowp/fixedpoint\fixedpoint.h **** }
 4866              		.loc 4 83 0
 4867 0160 080020E0 		eor	r0, r0, r8
 4868 0164 7050BFE6 		sxth	r5, r0
 4869              	.LVL333:
 4870              	.LBE4552:
 4871              	.LBE4551:
 4872              	.LBE4555:
 4873              	.LBE4560:
 4874              	.LBE4688:
 4875              	.LBB4689:
 4876              	.LBB4642:
 4877              	.LBB4643:
 4878              	.LBB4644:
 4879              	.LBB4645:
 347:C:/Renesas/e2studio_2021_01_workspace_RZA2M_ANPR/ANPR_RZA2M_RDK/src/tensorflow_lite/src/third_party/gemmlowp/fixedpoint\fixedpoint.h ****   std::int16_t nudge = ab_32 >= 0 ? (1 << 14) : (1 - (1 << 14));
 4880              		.loc 4 347 0
 4881 0168 050185E0 		add	r0, r5, r5, lsl #2
 4882              	.LBE4645:
 4883              	.LBE4644:
 4884              	.LBE4643:
 4885              	.LBE4642:
 4886              	.LBB4649:
 4887              	.LBB4639:
 4888              	.LBB4634:
 4889              	.LBB4633:
  71:C:/Renesas/e2studio_2021_01_workspace_RZA2M_ANPR/ANPR_RZA2M_RDK/src/tensorflow_lite/src/third_party/gemmlowp/fixedpoint\fixedpoint.h **** }
 4890              		.loc 4 71 0
 4891 016c 025005E0 		and	r5, r5, r2
 4892              	.LVL334:
 4893              	.LBE4633:
 4894              	.LBE4634:
 4895              	.LBE4639:
 4896              	.LBE4649:
 4897              	.LBB4650:
 4898              	.LBB4648:
 4899              	.LBB4647:
 4900              	.LBB4646:
 347:C:/Renesas/e2studio_2021_01_workspace_RZA2M_ANPR/ANPR_RZA2M_RDK/src/tensorflow_lite/src/third_party/gemmlowp/fixedpoint\fixedpoint.h ****   std::int16_t nudge = ab_32 >= 0 ? (1 << 14) : (1 - (1 << 14));
 4901              		.loc 4 347 0
 4902 0170 000260E0 		rsb	r0, r0, r0, lsl #4
 4903              	.LVL335:
 348:C:/Renesas/e2studio_2021_01_workspace_RZA2M_ANPR/ANPR_RZA2M_RDK/src/tensorflow_lite/src/third_party/gemmlowp/fixedpoint\fixedpoint.h ****   std::int16_t ab_x2_high16 =
 4904              		.loc 4 348 0
 4905 0174 000050E3 		cmp	r0, #0
 4906 0178 0420A0B1 		movlt	r2, r4
 4907 017c 0129A0A3 		movge	r2, #16384
 4908              	.LVL336:
 350:C:/Renesas/e2studio_2021_01_workspace_RZA2M_ANPR/ANPR_RZA2M_RDK/src/tensorflow_lite/src/third_party/gemmlowp/fixedpoint\fixedpoint.h ****   return overflow ? std::numeric_limits<std::int16_t>::max() : ab_x2_high16;
 4909              		.loc 4 350 0
 4910 0180 802182E0 		add	r2, r2, r0, lsl #3
 4911              	.LVL337:
 4912 0184 0E0082E0 		add	r0, r2, lr
 4913              	.LVL338:
 4914 0188 000052E3 		cmp	r2, #0
 4915 018c 0020A0B1 		movlt	r2, r0
 4916              	.LBE4646:
 4917              	.LBE4647:
 4918              	.LBE4648:
 4919              	.LBE4650:
 4920              	.LBB4651:
 4921              	.LBB4640:
 4922              	.LBB4635:
 4923              	.LBB4636:
  71:C:/Renesas/e2studio_2021_01_workspace_RZA2M_ANPR/ANPR_RZA2M_RDK/src/tensorflow_lite/src/third_party/gemmlowp/fixedpoint\fixedpoint.h **** }
 4924              		.loc 4 71 0
 4925 0190 C21701E0 		and	r1, r1, r2, asr #15
 4926              	.LVL339:
 4927              	.LBE4636:
 4928              	.LBE4635:
 4929              	.LBB4637:
 4930              	.LBB4638:
  83:C:/Renesas/e2studio_2021_01_workspace_RZA2M_ANPR/ANPR_RZA2M_RDK/src/tensorflow_lite/src/third_party/gemmlowp/fixedpoint\fixedpoint.h **** }
 4931              		.loc 4 83 0
 4932 0194 052021E0 		eor	r2, r1, r5
 4933              	.LVL340:
 4934              	.LBE4638:
 4935              	.LBE4637:
 4936              	.LBE4640:
 4937              	.LBE4651:
 4938              	.LBE4689:
 4939              	.LBB4690:
 4940              	.LBB4674:
 4941              	.LBB4675:
 4942              	.LBB4676:
 4943              	.LBB4677:
 347:C:/Renesas/e2studio_2021_01_workspace_RZA2M_ANPR/ANPR_RZA2M_RDK/src/tensorflow_lite/src/third_party/gemmlowp/fixedpoint\fixedpoint.h ****   std::int16_t nudge = ab_32 >= 0 ? (1 << 14) : (1 - (1 << 14));
 4944              		.loc 4 347 0
 4945 0198 821082E0 		add	r1, r2, r2, lsl #1
 4946              	.LVL341:
 4947              	.LBE4677:
 4948              	.LBE4676:
 4949              	.LBE4675:
 4950              	.LBE4674:
 4951              	.LBB4681:
 4952              	.LBB4672:
 4953              	.LBB4667:
 4954              	.LBB4666:
  71:C:/Renesas/e2studio_2021_01_workspace_RZA2M_ANPR/ANPR_RZA2M_RDK/src/tensorflow_lite/src/third_party/gemmlowp/fixedpoint\fixedpoint.h **** }
 4955              		.loc 4 71 0
 4956 019c 030002E0 		and	r0, r2, r3
 4957              	.LBE4666:
 4958              	.LBE4667:
 4959              	.LBE4672:
 4960              	.LBE4681:
 4961              	.LBB4682:
 4962              	.LBB4680:
 4963              	.LBB4679:
 4964              	.LBB4678:
 348:C:/Renesas/e2studio_2021_01_workspace_RZA2M_ANPR/ANPR_RZA2M_RDK/src/tensorflow_lite/src/third_party/gemmlowp/fixedpoint\fixedpoint.h ****   std::int16_t ab_x2_high16 =
 4965              		.loc 4 348 0
 4966 01a0 012172E0 		rsbs	r2, r2, r1, lsl #2
 4967              	.LVL342:
 4968 01a4 0149A053 		movpl	r4, #16384
 4969              	.LVL343:
 350:C:/Renesas/e2studio_2021_01_workspace_RZA2M_ANPR/ANPR_RZA2M_RDK/src/tensorflow_lite/src/third_party/gemmlowp/fixedpoint\fixedpoint.h ****   return overflow ? std::numeric_limits<std::int16_t>::max() : ab_x2_high16;
 4970              		.loc 4 350 0
 4971 01a8 042082E0 		add	r2, r2, r4
 4972              	.LVL344:
 4973 01ac 0EE082E0 		add	lr, r2, lr
 4974 01b0 000052E3 		cmp	r2, #0
 4975 01b4 0E20A0B1 		movlt	r2, lr
 4976              	.LBE4678:
 4977              	.LBE4679:
 4978              	.LBE4680:
 4979              	.LBE4682:
 4980              	.LBB4683:
 4981              	.LBB4673:
 4982              	.LBB4668:
 4983              	.LBB4669:
  71:C:/Renesas/e2studio_2021_01_workspace_RZA2M_ANPR/ANPR_RZA2M_RDK/src/tensorflow_lite/src/third_party/gemmlowp/fixedpoint\fixedpoint.h **** }
 4984              		.loc 4 71 0
 4985 01b8 C22706E0 		and	r2, r6, r2, asr #15
 4986              	.LBE4669:
 4987              	.LBE4668:
 4988              	.LBB4670:
 4989              	.LBB4671:
  83:C:/Renesas/e2studio_2021_01_workspace_RZA2M_ANPR/ANPR_RZA2M_RDK/src/tensorflow_lite/src/third_party/gemmlowp/fixedpoint\fixedpoint.h **** }
 4990              		.loc 4 83 0
 4991 01bc 020020E0 		eor	r0, r0, r2
 4992              	.LBE4671:
 4993              	.LBE4670:
 4994              	.LBE4673:
 4995              	.LBE4683:
 4996              	.LBE4690:
 4997              	.LBB4691:
 4998              	.LBB4618:
 4999              	.LBB4616:
 5000              	.LBB4613:
  71:C:/Renesas/e2studio_2021_01_workspace_RZA2M_ANPR/ANPR_RZA2M_RDK/src/tensorflow_lite/src/third_party/gemmlowp/fixedpoint\fixedpoint.h **** }
 5001              		.loc 4 71 0
 5002 01c0 070000E0 		and	r0, r0, r7
 5003              	.LBE4613:
 5004              	.LBE4616:
 5005              	.LBE4618:
 5006              	.LBE4691:
 789:C:/Renesas/e2studio_2021_01_workspace_RZA2M_ANPR/ANPR_RZA2M_RDK/src/tensorflow_lite/src/third_party/gemmlowp/fixedpoint\fixedpoint.h **** 
 5007              		.loc 4 789 0
 5008 01c4 0C0020E0 		eor	r0, r0, ip
 5009 01c8 F081BDE8 		pop	{r4, r5, r6, r7, r8, pc}
 5010              		.cfi_endproc
 5011              	.LFE4527:
 5012              		.cantunwind
 5013              		.fnend
 5015              		.section	.text._ZN6tflite3ops5micro11activations8TanhEvalEP13TfLiteContextP10TfLiteNode,"ax",%prog
 5016              		.align	2
 5017              		.global	_ZN6tflite3ops5micro11activations8TanhEvalEP13TfLiteContextP10TfLiteNode
 5018              		.syntax unified
 5019              		.arm
 5020              		.fpu neon
 5022              	_ZN6tflite3ops5micro11activations8TanhEvalEP13TfLiteContextP10TfLiteNode:
 5023              		.fnstart
 5024              	.LFB4183:
  88:../src/tensorflow_lite/src/tensorflow/lite/micro/kernels/tanh.cpp ****   const TfLiteEvalTensor* input =
 5025              		.loc 1 88 0
 5026              		.cfi_startproc
 5027              		.cfi_personality 0,__gxx_personality_v0
 5028              		.cfi_lsda 0,.LLSDA4183
 5029              		@ args = 0, pretend = 0, frame = 80
 5030              		@ frame_needed = 0, uses_anonymous_args = 0
 5031              	.LVL345:
 5032 0000 F04F2DE9 		push	{r4, r5, r6, r7, r8, r9, r10, fp, lr}
 5033              		.save {r4, r5, r6, r7, r8, r9, r10, fp, lr}
 5034              		.cfi_def_cfa_offset 36
 5035              		.cfi_offset 4, -36
 5036              		.cfi_offset 5, -32
 5037              		.cfi_offset 6, -28
 5038              		.cfi_offset 7, -24
 5039              		.cfi_offset 8, -20
 5040              		.cfi_offset 9, -16
 5041              		.cfi_offset 10, -12
 5042              		.cfi_offset 11, -8
 5043              		.cfi_offset 14, -4
 5044              	.LBB5102:
 5045              	.LBB5103:
 5046              	.LBB5104:
 5047              		.file 6 "C:/Renesas/e2studio_2021_01_workspace_RZA2M_ANPR/ANPR_RZA2M_RDK/src/tensorflow_lite/src/t
   1:C:/Renesas/e2studio_2021_01_workspace_RZA2M_ANPR/ANPR_RZA2M_RDK/src/tensorflow_lite/src/tensorflow/lite/micro/kernels\kernel_util.h **** /* Copyright 2020 The TensorFlow Authors. All Rights Reserved.
   2:C:/Renesas/e2studio_2021_01_workspace_RZA2M_ANPR/ANPR_RZA2M_RDK/src/tensorflow_lite/src/tensorflow/lite/micro/kernels\kernel_util.h **** 
   3:C:/Renesas/e2studio_2021_01_workspace_RZA2M_ANPR/ANPR_RZA2M_RDK/src/tensorflow_lite/src/tensorflow/lite/micro/kernels\kernel_util.h **** Licensed under the Apache License, Version 2.0 (the "License");
   4:C:/Renesas/e2studio_2021_01_workspace_RZA2M_ANPR/ANPR_RZA2M_RDK/src/tensorflow_lite/src/tensorflow/lite/micro/kernels\kernel_util.h **** you may not use this file except in compliance with the License.
   5:C:/Renesas/e2studio_2021_01_workspace_RZA2M_ANPR/ANPR_RZA2M_RDK/src/tensorflow_lite/src/tensorflow/lite/micro/kernels\kernel_util.h **** You may obtain a copy of the License at
   6:C:/Renesas/e2studio_2021_01_workspace_RZA2M_ANPR/ANPR_RZA2M_RDK/src/tensorflow_lite/src/tensorflow/lite/micro/kernels\kernel_util.h **** 
   7:C:/Renesas/e2studio_2021_01_workspace_RZA2M_ANPR/ANPR_RZA2M_RDK/src/tensorflow_lite/src/tensorflow/lite/micro/kernels\kernel_util.h ****     http://www.apache.org/licenses/LICENSE-2.0
   8:C:/Renesas/e2studio_2021_01_workspace_RZA2M_ANPR/ANPR_RZA2M_RDK/src/tensorflow_lite/src/tensorflow/lite/micro/kernels\kernel_util.h **** 
   9:C:/Renesas/e2studio_2021_01_workspace_RZA2M_ANPR/ANPR_RZA2M_RDK/src/tensorflow_lite/src/tensorflow/lite/micro/kernels\kernel_util.h **** Unless required by applicable law or agreed to in writing, software
  10:C:/Renesas/e2studio_2021_01_workspace_RZA2M_ANPR/ANPR_RZA2M_RDK/src/tensorflow_lite/src/tensorflow/lite/micro/kernels\kernel_util.h **** distributed under the License is distributed on an "AS IS" BASIS,
  11:C:/Renesas/e2studio_2021_01_workspace_RZA2M_ANPR/ANPR_RZA2M_RDK/src/tensorflow_lite/src/tensorflow/lite/micro/kernels\kernel_util.h **** WITHOUT WARRANTIES OR CONDITIONS OF ANY KIND, either express or implied.
  12:C:/Renesas/e2studio_2021_01_workspace_RZA2M_ANPR/ANPR_RZA2M_RDK/src/tensorflow_lite/src/tensorflow/lite/micro/kernels\kernel_util.h **** See the License for the specific language governing permissions and
  13:C:/Renesas/e2studio_2021_01_workspace_RZA2M_ANPR/ANPR_RZA2M_RDK/src/tensorflow_lite/src/tensorflow/lite/micro/kernels\kernel_util.h **** limitations under the License.
  14:C:/Renesas/e2studio_2021_01_workspace_RZA2M_ANPR/ANPR_RZA2M_RDK/src/tensorflow_lite/src/tensorflow/lite/micro/kernels\kernel_util.h **** ==============================================================================*/
  15:C:/Renesas/e2studio_2021_01_workspace_RZA2M_ANPR/ANPR_RZA2M_RDK/src/tensorflow_lite/src/tensorflow/lite/micro/kernels\kernel_util.h **** 
  16:C:/Renesas/e2studio_2021_01_workspace_RZA2M_ANPR/ANPR_RZA2M_RDK/src/tensorflow_lite/src/tensorflow/lite/micro/kernels\kernel_util.h **** #ifndef TENSORFLOW_LITE_MICRO_KERNELS_KERNEL_UTIL_H_
  17:C:/Renesas/e2studio_2021_01_workspace_RZA2M_ANPR/ANPR_RZA2M_RDK/src/tensorflow_lite/src/tensorflow/lite/micro/kernels\kernel_util.h **** #define TENSORFLOW_LITE_MICRO_KERNELS_KERNEL_UTIL_H_
  18:C:/Renesas/e2studio_2021_01_workspace_RZA2M_ANPR/ANPR_RZA2M_RDK/src/tensorflow_lite/src/tensorflow/lite/micro/kernels\kernel_util.h **** 
  19:C:/Renesas/e2studio_2021_01_workspace_RZA2M_ANPR/ANPR_RZA2M_RDK/src/tensorflow_lite/src/tensorflow/lite/micro/kernels\kernel_util.h **** #include <cstdint>
  20:C:/Renesas/e2studio_2021_01_workspace_RZA2M_ANPR/ANPR_RZA2M_RDK/src/tensorflow_lite/src/tensorflow/lite/micro/kernels\kernel_util.h **** 
  21:C:/Renesas/e2studio_2021_01_workspace_RZA2M_ANPR/ANPR_RZA2M_RDK/src/tensorflow_lite/src/tensorflow/lite/micro/kernels\kernel_util.h **** #include "tensorflow/lite/c/builtin_op_data.h"
  22:C:/Renesas/e2studio_2021_01_workspace_RZA2M_ANPR/ANPR_RZA2M_RDK/src/tensorflow_lite/src/tensorflow/lite/micro/kernels\kernel_util.h **** #include "tensorflow/lite/c/common.h"
  23:C:/Renesas/e2studio_2021_01_workspace_RZA2M_ANPR/ANPR_RZA2M_RDK/src/tensorflow_lite/src/tensorflow/lite/micro/kernels\kernel_util.h **** #include "tensorflow/lite/kernels/internal/compatibility.h"
  24:C:/Renesas/e2studio_2021_01_workspace_RZA2M_ANPR/ANPR_RZA2M_RDK/src/tensorflow_lite/src/tensorflow/lite/micro/kernels\kernel_util.h **** #include "tensorflow/lite/kernels/internal/types.h"
  25:C:/Renesas/e2studio_2021_01_workspace_RZA2M_ANPR/ANPR_RZA2M_RDK/src/tensorflow_lite/src/tensorflow/lite/micro/kernels\kernel_util.h **** 
  26:C:/Renesas/e2studio_2021_01_workspace_RZA2M_ANPR/ANPR_RZA2M_RDK/src/tensorflow_lite/src/tensorflow/lite/micro/kernels\kernel_util.h **** namespace tflite {
  27:C:/Renesas/e2studio_2021_01_workspace_RZA2M_ANPR/ANPR_RZA2M_RDK/src/tensorflow_lite/src/tensorflow/lite/micro/kernels\kernel_util.h **** namespace micro {
  28:C:/Renesas/e2studio_2021_01_workspace_RZA2M_ANPR/ANPR_RZA2M_RDK/src/tensorflow_lite/src/tensorflow/lite/micro/kernels\kernel_util.h **** 
  29:C:/Renesas/e2studio_2021_01_workspace_RZA2M_ANPR/ANPR_RZA2M_RDK/src/tensorflow_lite/src/tensorflow/lite/micro/kernels\kernel_util.h **** // Returns a mutable tensor for a given input index. is_variable must be checked
  30:C:/Renesas/e2studio_2021_01_workspace_RZA2M_ANPR/ANPR_RZA2M_RDK/src/tensorflow_lite/src/tensorflow/lite/micro/kernels\kernel_util.h **** // during prepare when the full TfLiteTensor is available.
  31:C:/Renesas/e2studio_2021_01_workspace_RZA2M_ANPR/ANPR_RZA2M_RDK/src/tensorflow_lite/src/tensorflow/lite/micro/kernels\kernel_util.h **** inline TfLiteEvalTensor* GetMutableEvalInput(const TfLiteContext* context,
  32:C:/Renesas/e2studio_2021_01_workspace_RZA2M_ANPR/ANPR_RZA2M_RDK/src/tensorflow_lite/src/tensorflow/lite/micro/kernels\kernel_util.h ****                                              const TfLiteNode* node,
  33:C:/Renesas/e2studio_2021_01_workspace_RZA2M_ANPR/ANPR_RZA2M_RDK/src/tensorflow_lite/src/tensorflow/lite/micro/kernels\kernel_util.h ****                                              int index) {
  34:C:/Renesas/e2studio_2021_01_workspace_RZA2M_ANPR/ANPR_RZA2M_RDK/src/tensorflow_lite/src/tensorflow/lite/micro/kernels\kernel_util.h ****   TFLITE_DCHECK(context != nullptr);
 5048              		.loc 6 34 0
 5049 0004 006050E2 		subs	r6, r0, #0
 5050              	.LVL346:
 5051              	.LBE5104:
 5052              	.LBE5103:
 5053              	.LBE5102:
  88:../src/tensorflow_lite/src/tensorflow/lite/micro/kernels/tanh.cpp ****   const TfLiteEvalTensor* input =
 5054              		.loc 1 88 0
 5055              		.pad #84
 5056 0008 54D04DE2 		sub	sp, sp, #84
 5057              		.cfi_def_cfa_offset 120
 5058              	.LBB5111:
 5059              	.LBB5108:
 5060              	.LBB5105:
 5061              		.loc 6 34 0
 5062 000c 4604000A 		beq	.L175
  35:C:/Renesas/e2studio_2021_01_workspace_RZA2M_ANPR/ANPR_RZA2M_RDK/src/tensorflow_lite/src/tensorflow/lite/micro/kernels\kernel_util.h ****   TFLITE_DCHECK(node != nullptr);
 5063              		.loc 6 35 0
 5064 0010 000051E3 		cmp	r1, #0
 5065 0014 0150A0E1 		mov	r5, r1
 5066 0018 4304000A 		beq	.L175
  36:C:/Renesas/e2studio_2021_01_workspace_RZA2M_ANPR/ANPR_RZA2M_RDK/src/tensorflow_lite/src/tensorflow/lite/micro/kernels\kernel_util.h ****   return context->GetEvalTensor(context, node->inputs->data[index]);
 5067              		.loc 6 36 0
 5068 001c 002091E5 		ldr	r2, [r1]
 5069 0020 543096E5 		ldr	r3, [r6, #84]
 5070 0024 041092E5 		ldr	r1, [r2, #4]
 5071              	.LVL347:
 5072              	.LEHB0:
 5073 0028 33FF2FE1 		blx	r3
 5074              	.LVL348:
 5075              	.LBE5105:
 5076              	.LBE5108:
 5077              	.LBE5111:
 5078              	.LBB5112:
 5079              	.LBB5113:
  37:C:/Renesas/e2studio_2021_01_workspace_RZA2M_ANPR/ANPR_RZA2M_RDK/src/tensorflow_lite/src/tensorflow/lite/micro/kernels\kernel_util.h **** }
  38:C:/Renesas/e2studio_2021_01_workspace_RZA2M_ANPR/ANPR_RZA2M_RDK/src/tensorflow_lite/src/tensorflow/lite/micro/kernels\kernel_util.h **** 
  39:C:/Renesas/e2studio_2021_01_workspace_RZA2M_ANPR/ANPR_RZA2M_RDK/src/tensorflow_lite/src/tensorflow/lite/micro/kernels\kernel_util.h **** // Returns the TfLiteEvalTensor struct for a given input index in a node.
  40:C:/Renesas/e2studio_2021_01_workspace_RZA2M_ANPR/ANPR_RZA2M_RDK/src/tensorflow_lite/src/tensorflow/lite/micro/kernels\kernel_util.h **** inline const TfLiteEvalTensor* GetEvalInput(const TfLiteContext* context,
  41:C:/Renesas/e2studio_2021_01_workspace_RZA2M_ANPR/ANPR_RZA2M_RDK/src/tensorflow_lite/src/tensorflow/lite/micro/kernels\kernel_util.h ****                                             const TfLiteNode* node, int index) {
  42:C:/Renesas/e2studio_2021_01_workspace_RZA2M_ANPR/ANPR_RZA2M_RDK/src/tensorflow_lite/src/tensorflow/lite/micro/kernels\kernel_util.h ****   return GetMutableEvalInput(context, node, index);
  43:C:/Renesas/e2studio_2021_01_workspace_RZA2M_ANPR/ANPR_RZA2M_RDK/src/tensorflow_lite/src/tensorflow/lite/micro/kernels\kernel_util.h **** }
  44:C:/Renesas/e2studio_2021_01_workspace_RZA2M_ANPR/ANPR_RZA2M_RDK/src/tensorflow_lite/src/tensorflow/lite/micro/kernels\kernel_util.h **** 
  45:C:/Renesas/e2studio_2021_01_workspace_RZA2M_ANPR/ANPR_RZA2M_RDK/src/tensorflow_lite/src/tensorflow/lite/micro/kernels\kernel_util.h **** // Returns the TfLiteEvalTensor struct for a given output index in a node.
  46:C:/Renesas/e2studio_2021_01_workspace_RZA2M_ANPR/ANPR_RZA2M_RDK/src/tensorflow_lite/src/tensorflow/lite/micro/kernels\kernel_util.h **** inline TfLiteEvalTensor* GetEvalOutput(const TfLiteContext* context,
  47:C:/Renesas/e2studio_2021_01_workspace_RZA2M_ANPR/ANPR_RZA2M_RDK/src/tensorflow_lite/src/tensorflow/lite/micro/kernels\kernel_util.h ****                                        const TfLiteNode* node, int index) {
  48:C:/Renesas/e2studio_2021_01_workspace_RZA2M_ANPR/ANPR_RZA2M_RDK/src/tensorflow_lite/src/tensorflow/lite/micro/kernels\kernel_util.h ****   TFLITE_DCHECK(context != nullptr);
  49:C:/Renesas/e2studio_2021_01_workspace_RZA2M_ANPR/ANPR_RZA2M_RDK/src/tensorflow_lite/src/tensorflow/lite/micro/kernels\kernel_util.h ****   TFLITE_DCHECK(node != nullptr);
  50:C:/Renesas/e2studio_2021_01_workspace_RZA2M_ANPR/ANPR_RZA2M_RDK/src/tensorflow_lite/src/tensorflow/lite/micro/kernels\kernel_util.h ****   return context->GetEvalTensor(context, node->outputs->data[index]);
 5080              		.loc 6 50 0
 5081 002c 042095E5 		ldr	r2, [r5, #4]
 5082              	.LBE5113:
 5083              	.LBE5112:
 5084              	.LBB5116:
 5085              	.LBB5109:
 5086              	.LBB5106:
  36:C:/Renesas/e2studio_2021_01_workspace_RZA2M_ANPR/ANPR_RZA2M_RDK/src/tensorflow_lite/src/tensorflow/lite/micro/kernels\kernel_util.h ****   return context->GetEvalTensor(context, node->inputs->data[index]);
 5087              		.loc 6 36 0
 5088 0030 0070A0E1 		mov	r7, r0
 5089              	.LVL349:
 5090              	.LBE5106:
 5091              	.LBE5109:
 5092              	.LBE5116:
 5093              	.LBB5117:
 5094              	.LBB5114:
 5095              		.loc 6 50 0
 5096 0034 543096E5 		ldr	r3, [r6, #84]
 5097 0038 0600A0E1 		mov	r0, r6
 5098 003c 041092E5 		ldr	r1, [r2, #4]
 5099 0040 33FF2FE1 		blx	r3
 5100              	.LVL350:
 5101              	.LBE5114:
 5102              	.LBE5117:
  94:../src/tensorflow_lite/src/tensorflow/lite/micro/kernels/tanh.cpp ****   const OpData& data = *(static_cast<const OpData*>(node->user_data));
 5103              		.loc 1 94 0
 5104 0044 103095E5 		ldr	r3, [r5, #16]
 5105              	.LBB5118:
 5106              	.LBB5115:
 5107              		.loc 6 50 0
 5108 0048 0040A0E1 		mov	r4, r0
 5109              	.LVL351:
 5110              	.LBE5115:
 5111              	.LBE5118:
  94:../src/tensorflow_lite/src/tensorflow/lite/micro/kernels/tanh.cpp ****   const OpData& data = *(static_cast<const OpData*>(node->user_data));
 5112              		.loc 1 94 0
 5113 004c 000053E3 		cmp	r3, #0
 5114 0050 3504000A 		beq	.L175
 5115              	.LVL352:
 5116              	.LBB5119:
  97:../src/tensorflow_lite/src/tensorflow/lite/micro/kernels/tanh.cpp ****     case kTfLiteFloat32: {
 5117              		.loc 1 97 0
 5118 0054 0800D7E5 		ldrb	r0, [r7, #8]	@ zero_extendqisi2
 5119 0058 012040E2 		sub	r2, r0, #1
 5120 005c 080052E3 		cmp	r2, #8
 5121 0060 02F19F97 		ldrls	pc, [pc, r2, asl #2]
 5122 0064 680300EA 		b	.L176
 5123              	.L178:
 5124 0068 EC0A0000 		.word	.L177
 5125 006c 0C0E0000 		.word	.L176
 5126 0070 80070000 		.word	.L179
 5127 0074 0C0E0000 		.word	.L176
 5128 0078 0C0E0000 		.word	.L176
 5129 007c 0C0E0000 		.word	.L176
 5130 0080 2C040000 		.word	.L180
 5131 0084 0C0E0000 		.word	.L176
 5132 0088 8C000000 		.word	.L181
 5133              	.L181:
 5134              	.LBB5120:
 129:../src/tensorflow_lite/src/tensorflow/lite/micro/kernels/tanh.cpp ****           data.input_left_shift, tflite::micro::GetTensorShape(input),
 5135              		.loc 1 129 0
 5136 008c 082093E5 		ldr	r2, [r3, #8]
 130:../src/tensorflow_lite/src/tensorflow/lite/micro/kernels/tanh.cpp ****           tflite::micro::GetTensorData<int8_t>(input),
 5137              		.loc 1 130 0
 5138 0090 0710A0E1 		mov	r1, r7
 5139 0094 20008DE2 		add	r0, sp, #32
 129:../src/tensorflow_lite/src/tensorflow/lite/micro/kernels/tanh.cpp ****           data.input_left_shift, tflite::micro::GetTensorShape(input),
 5140              		.loc 1 129 0
 5141 0098 000693E8 		ldm	r3, {r9, r10}
 130:../src/tensorflow_lite/src/tensorflow/lite/micro/kernels/tanh.cpp ****           tflite::micro::GetTensorData<int8_t>(input),
 5142              		.loc 1 130 0
 5143 009c 0C5093E5 		ldr	r5, [r3, #12]
 5144              	.LVL353:
 129:../src/tensorflow_lite/src/tensorflow/lite/micro/kernels/tanh.cpp ****           data.input_left_shift, tflite::micro::GetTensorShape(input),
 5145              		.loc 1 129 0
 5146 00a0 10208DE5 		str	r2, [sp, #16]
 130:../src/tensorflow_lite/src/tensorflow/lite/micro/kernels/tanh.cpp ****           tflite::micro::GetTensorData<int8_t>(input),
 5147              		.loc 1 130 0
 5148 00a4 FEFFFFEB 		bl	_ZN6tflite5micro14GetTensorShapeEPK16TfLiteEvalTensor
 5149              	.LVL354:
 5150              	.LEHE0:
 132:../src/tensorflow_lite/src/tensorflow/lite/micro/kernels/tanh.cpp ****           tflite::micro::GetTensorData<int8_t>(output));
 5151              		.loc 1 132 0
 5152 00a8 0410A0E1 		mov	r1, r4
 5153 00ac 38008DE2 		add	r0, sp, #56
 5154              	.LBB5121:
 5155              	.LBB5122:
  51:C:/Renesas/e2studio_2021_01_workspace_RZA2M_ANPR/ANPR_RZA2M_RDK/src/tensorflow_lite/src/tensorflow/lite/micro/kernels\kernel_util.h **** }
  52:C:/Renesas/e2studio_2021_01_workspace_RZA2M_ANPR/ANPR_RZA2M_RDK/src/tensorflow_lite/src/tensorflow/lite/micro/kernels\kernel_util.h **** 
  53:C:/Renesas/e2studio_2021_01_workspace_RZA2M_ANPR/ANPR_RZA2M_RDK/src/tensorflow_lite/src/tensorflow/lite/micro/kernels\kernel_util.h **** // Returns data for a TfLiteEvalTensor struct.
  54:C:/Renesas/e2studio_2021_01_workspace_RZA2M_ANPR/ANPR_RZA2M_RDK/src/tensorflow_lite/src/tensorflow/lite/micro/kernels\kernel_util.h **** template <typename T>
  55:C:/Renesas/e2studio_2021_01_workspace_RZA2M_ANPR/ANPR_RZA2M_RDK/src/tensorflow_lite/src/tensorflow/lite/micro/kernels\kernel_util.h **** T* GetTensorData(TfLiteEvalTensor* tensor) {
  56:C:/Renesas/e2studio_2021_01_workspace_RZA2M_ANPR/ANPR_RZA2M_RDK/src/tensorflow_lite/src/tensorflow/lite/micro/kernels\kernel_util.h ****   return tensor != nullptr ? reinterpret_cast<T*>(tensor->data.raw) : nullptr;
  57:C:/Renesas/e2studio_2021_01_workspace_RZA2M_ANPR/ANPR_RZA2M_RDK/src/tensorflow_lite/src/tensorflow/lite/micro/kernels\kernel_util.h **** }
  58:C:/Renesas/e2studio_2021_01_workspace_RZA2M_ANPR/ANPR_RZA2M_RDK/src/tensorflow_lite/src/tensorflow/lite/micro/kernels\kernel_util.h **** 
  59:C:/Renesas/e2studio_2021_01_workspace_RZA2M_ANPR/ANPR_RZA2M_RDK/src/tensorflow_lite/src/tensorflow/lite/micro/kernels\kernel_util.h **** // Returns const data for a TfLiteEvalTensor struct.
  60:C:/Renesas/e2studio_2021_01_workspace_RZA2M_ANPR/ANPR_RZA2M_RDK/src/tensorflow_lite/src/tensorflow/lite/micro/kernels\kernel_util.h **** template <typename T>
  61:C:/Renesas/e2studio_2021_01_workspace_RZA2M_ANPR/ANPR_RZA2M_RDK/src/tensorflow_lite/src/tensorflow/lite/micro/kernels\kernel_util.h **** const T* GetTensorData(const TfLiteEvalTensor* tensor) {
  62:C:/Renesas/e2studio_2021_01_workspace_RZA2M_ANPR/ANPR_RZA2M_RDK/src/tensorflow_lite/src/tensorflow/lite/micro/kernels\kernel_util.h ****   TFLITE_DCHECK(tensor != nullptr);
  63:C:/Renesas/e2studio_2021_01_workspace_RZA2M_ANPR/ANPR_RZA2M_RDK/src/tensorflow_lite/src/tensorflow/lite/micro/kernels\kernel_util.h ****   return reinterpret_cast<const T*>(tensor->data.raw);
 5156              		.loc 6 63 0
 5157 00b0 007097E5 		ldr	r7, [r7]
 5158              	.LEHB1:
 5159              	.LBE5122:
 5160              	.LBE5121:
 132:../src/tensorflow_lite/src/tensorflow/lite/micro/kernels/tanh.cpp ****           tflite::micro::GetTensorData<int8_t>(output));
 5161              		.loc 1 132 0
 5162 00b4 FEFFFFEB 		bl	_ZN6tflite5micro14GetTensorShapeEPK16TfLiteEvalTensor
 5163              	.LVL355:
 5164              	.LEHE1:
 5165 00b8 20309DE5 		ldr	r3, [sp, #32]
 5166              	.LBB5123:
 5167              	.LBB5124:
  56:C:/Renesas/e2studio_2021_01_workspace_RZA2M_ANPR/ANPR_RZA2M_RDK/src/tensorflow_lite/src/tensorflow/lite/micro/kernels\kernel_util.h **** }
 5168              		.loc 6 56 0
 5169 00bc 000054E3 		cmp	r4, #0
 5170 00c0 38609DE5 		ldr	r6, [sp, #56]
 5171              	.LVL356:
 5172 00c4 00409415 		ldrne	r4, [r4]
 5173              	.LVL357:
 5174              	.LBE5124:
 5175              	.LBE5123:
 5176              	.LBB5125:
 5177              	.LBB5126:
 5178              	.LBB5127:
 5179              	.LBB5128:
 5180              		.file 7 "C:/Renesas/e2studio_2021_01_workspace_RZA2M_ANPR/ANPR_RZA2M_RDK/src/tensorflow_lite/src/t
   1:C:/Renesas/e2studio_2021_01_workspace_RZA2M_ANPR/ANPR_RZA2M_RDK/src/tensorflow_lite/src/tensorflow/lite/kernels/internal\types.h **** /* Copyright 2018 The TensorFlow Authors. All Rights Reserved.
   2:C:/Renesas/e2studio_2021_01_workspace_RZA2M_ANPR/ANPR_RZA2M_RDK/src/tensorflow_lite/src/tensorflow/lite/kernels/internal\types.h **** 
   3:C:/Renesas/e2studio_2021_01_workspace_RZA2M_ANPR/ANPR_RZA2M_RDK/src/tensorflow_lite/src/tensorflow/lite/kernels/internal\types.h **** Licensed under the Apache License, Version 2.0 (the "License");
   4:C:/Renesas/e2studio_2021_01_workspace_RZA2M_ANPR/ANPR_RZA2M_RDK/src/tensorflow_lite/src/tensorflow/lite/kernels/internal\types.h **** you may not use this file except in compliance with the License.
   5:C:/Renesas/e2studio_2021_01_workspace_RZA2M_ANPR/ANPR_RZA2M_RDK/src/tensorflow_lite/src/tensorflow/lite/kernels/internal\types.h **** You may obtain a copy of the License at
   6:C:/Renesas/e2studio_2021_01_workspace_RZA2M_ANPR/ANPR_RZA2M_RDK/src/tensorflow_lite/src/tensorflow/lite/kernels/internal\types.h **** 
   7:C:/Renesas/e2studio_2021_01_workspace_RZA2M_ANPR/ANPR_RZA2M_RDK/src/tensorflow_lite/src/tensorflow/lite/kernels/internal\types.h ****     http://www.apache.org/licenses/LICENSE-2.0
   8:C:/Renesas/e2studio_2021_01_workspace_RZA2M_ANPR/ANPR_RZA2M_RDK/src/tensorflow_lite/src/tensorflow/lite/kernels/internal\types.h **** 
   9:C:/Renesas/e2studio_2021_01_workspace_RZA2M_ANPR/ANPR_RZA2M_RDK/src/tensorflow_lite/src/tensorflow/lite/kernels/internal\types.h **** Unless required by applicable law or agreed to in writing, software
  10:C:/Renesas/e2studio_2021_01_workspace_RZA2M_ANPR/ANPR_RZA2M_RDK/src/tensorflow_lite/src/tensorflow/lite/kernels/internal\types.h **** distributed under the License is distributed on an "AS IS" BASIS,
  11:C:/Renesas/e2studio_2021_01_workspace_RZA2M_ANPR/ANPR_RZA2M_RDK/src/tensorflow_lite/src/tensorflow/lite/kernels/internal\types.h **** WITHOUT WARRANTIES OR CONDITIONS OF ANY KIND, either express or implied.
  12:C:/Renesas/e2studio_2021_01_workspace_RZA2M_ANPR/ANPR_RZA2M_RDK/src/tensorflow_lite/src/tensorflow/lite/kernels/internal\types.h **** See the License for the specific language governing permissions and
  13:C:/Renesas/e2studio_2021_01_workspace_RZA2M_ANPR/ANPR_RZA2M_RDK/src/tensorflow_lite/src/tensorflow/lite/kernels/internal\types.h **** limitations under the License.
  14:C:/Renesas/e2studio_2021_01_workspace_RZA2M_ANPR/ANPR_RZA2M_RDK/src/tensorflow_lite/src/tensorflow/lite/kernels/internal\types.h **** ==============================================================================*/
  15:C:/Renesas/e2studio_2021_01_workspace_RZA2M_ANPR/ANPR_RZA2M_RDK/src/tensorflow_lite/src/tensorflow/lite/kernels/internal\types.h **** #ifndef TENSORFLOW_LITE_KERNELS_INTERNAL_TYPES_H_
  16:C:/Renesas/e2studio_2021_01_workspace_RZA2M_ANPR/ANPR_RZA2M_RDK/src/tensorflow_lite/src/tensorflow/lite/kernels/internal\types.h **** #define TENSORFLOW_LITE_KERNELS_INTERNAL_TYPES_H_
  17:C:/Renesas/e2studio_2021_01_workspace_RZA2M_ANPR/ANPR_RZA2M_RDK/src/tensorflow_lite/src/tensorflow/lite/kernels/internal\types.h **** 
  18:C:/Renesas/e2studio_2021_01_workspace_RZA2M_ANPR/ANPR_RZA2M_RDK/src/tensorflow_lite/src/tensorflow/lite/kernels/internal\types.h **** #include <algorithm>
  19:C:/Renesas/e2studio_2021_01_workspace_RZA2M_ANPR/ANPR_RZA2M_RDK/src/tensorflow_lite/src/tensorflow/lite/kernels/internal\types.h **** #include <cstdint>
  20:C:/Renesas/e2studio_2021_01_workspace_RZA2M_ANPR/ANPR_RZA2M_RDK/src/tensorflow_lite/src/tensorflow/lite/kernels/internal\types.h **** #include <cstring>
  21:C:/Renesas/e2studio_2021_01_workspace_RZA2M_ANPR/ANPR_RZA2M_RDK/src/tensorflow_lite/src/tensorflow/lite/kernels/internal\types.h **** #include <initializer_list>
  22:C:/Renesas/e2studio_2021_01_workspace_RZA2M_ANPR/ANPR_RZA2M_RDK/src/tensorflow_lite/src/tensorflow/lite/kernels/internal\types.h **** 
  23:C:/Renesas/e2studio_2021_01_workspace_RZA2M_ANPR/ANPR_RZA2M_RDK/src/tensorflow_lite/src/tensorflow/lite/kernels/internal\types.h **** #include "tensorflow/lite/kernels/internal/compatibility.h"
  24:C:/Renesas/e2studio_2021_01_workspace_RZA2M_ANPR/ANPR_RZA2M_RDK/src/tensorflow_lite/src/tensorflow/lite/kernels/internal\types.h **** 
  25:C:/Renesas/e2studio_2021_01_workspace_RZA2M_ANPR/ANPR_RZA2M_RDK/src/tensorflow_lite/src/tensorflow/lite/kernels/internal\types.h **** namespace tflite {
  26:C:/Renesas/e2studio_2021_01_workspace_RZA2M_ANPR/ANPR_RZA2M_RDK/src/tensorflow_lite/src/tensorflow/lite/kernels/internal\types.h **** 
  27:C:/Renesas/e2studio_2021_01_workspace_RZA2M_ANPR/ANPR_RZA2M_RDK/src/tensorflow_lite/src/tensorflow/lite/kernels/internal\types.h **** enum class FusedActivationFunctionType : uint8_t {
  28:C:/Renesas/e2studio_2021_01_workspace_RZA2M_ANPR/ANPR_RZA2M_RDK/src/tensorflow_lite/src/tensorflow/lite/kernels/internal\types.h ****   kNone,
  29:C:/Renesas/e2studio_2021_01_workspace_RZA2M_ANPR/ANPR_RZA2M_RDK/src/tensorflow_lite/src/tensorflow/lite/kernels/internal\types.h ****   kRelu6,
  30:C:/Renesas/e2studio_2021_01_workspace_RZA2M_ANPR/ANPR_RZA2M_RDK/src/tensorflow_lite/src/tensorflow/lite/kernels/internal\types.h ****   kRelu1,
  31:C:/Renesas/e2studio_2021_01_workspace_RZA2M_ANPR/ANPR_RZA2M_RDK/src/tensorflow_lite/src/tensorflow/lite/kernels/internal\types.h ****   kRelu
  32:C:/Renesas/e2studio_2021_01_workspace_RZA2M_ANPR/ANPR_RZA2M_RDK/src/tensorflow_lite/src/tensorflow/lite/kernels/internal\types.h **** };
  33:C:/Renesas/e2studio_2021_01_workspace_RZA2M_ANPR/ANPR_RZA2M_RDK/src/tensorflow_lite/src/tensorflow/lite/kernels/internal\types.h **** enum class PaddingType : uint8_t { kNone, kSame, kValid };
  34:C:/Renesas/e2studio_2021_01_workspace_RZA2M_ANPR/ANPR_RZA2M_RDK/src/tensorflow_lite/src/tensorflow/lite/kernels/internal\types.h **** 
  35:C:/Renesas/e2studio_2021_01_workspace_RZA2M_ANPR/ANPR_RZA2M_RDK/src/tensorflow_lite/src/tensorflow/lite/kernels/internal\types.h **** struct PaddingValues {
  36:C:/Renesas/e2studio_2021_01_workspace_RZA2M_ANPR/ANPR_RZA2M_RDK/src/tensorflow_lite/src/tensorflow/lite/kernels/internal\types.h ****   int16_t width;
  37:C:/Renesas/e2studio_2021_01_workspace_RZA2M_ANPR/ANPR_RZA2M_RDK/src/tensorflow_lite/src/tensorflow/lite/kernels/internal\types.h ****   int16_t height;
  38:C:/Renesas/e2studio_2021_01_workspace_RZA2M_ANPR/ANPR_RZA2M_RDK/src/tensorflow_lite/src/tensorflow/lite/kernels/internal\types.h ****   // offset is used for calculating "remaining" padding, for example, `width`
  39:C:/Renesas/e2studio_2021_01_workspace_RZA2M_ANPR/ANPR_RZA2M_RDK/src/tensorflow_lite/src/tensorflow/lite/kernels/internal\types.h ****   // is 1 and `width_offset` is 1, so padding_left is 1 while padding_right is
  40:C:/Renesas/e2studio_2021_01_workspace_RZA2M_ANPR/ANPR_RZA2M_RDK/src/tensorflow_lite/src/tensorflow/lite/kernels/internal\types.h ****   // 1 + 1 = 2.
  41:C:/Renesas/e2studio_2021_01_workspace_RZA2M_ANPR/ANPR_RZA2M_RDK/src/tensorflow_lite/src/tensorflow/lite/kernels/internal\types.h ****   int16_t width_offset;
  42:C:/Renesas/e2studio_2021_01_workspace_RZA2M_ANPR/ANPR_RZA2M_RDK/src/tensorflow_lite/src/tensorflow/lite/kernels/internal\types.h ****   // Same as width_offset except it's over the height dimension.
  43:C:/Renesas/e2studio_2021_01_workspace_RZA2M_ANPR/ANPR_RZA2M_RDK/src/tensorflow_lite/src/tensorflow/lite/kernels/internal\types.h ****   int16_t height_offset;
  44:C:/Renesas/e2studio_2021_01_workspace_RZA2M_ANPR/ANPR_RZA2M_RDK/src/tensorflow_lite/src/tensorflow/lite/kernels/internal\types.h **** };
  45:C:/Renesas/e2studio_2021_01_workspace_RZA2M_ANPR/ANPR_RZA2M_RDK/src/tensorflow_lite/src/tensorflow/lite/kernels/internal\types.h **** 
  46:C:/Renesas/e2studio_2021_01_workspace_RZA2M_ANPR/ANPR_RZA2M_RDK/src/tensorflow_lite/src/tensorflow/lite/kernels/internal\types.h **** struct Padding3DValues {
  47:C:/Renesas/e2studio_2021_01_workspace_RZA2M_ANPR/ANPR_RZA2M_RDK/src/tensorflow_lite/src/tensorflow/lite/kernels/internal\types.h ****   int16_t width;
  48:C:/Renesas/e2studio_2021_01_workspace_RZA2M_ANPR/ANPR_RZA2M_RDK/src/tensorflow_lite/src/tensorflow/lite/kernels/internal\types.h ****   int16_t height;
  49:C:/Renesas/e2studio_2021_01_workspace_RZA2M_ANPR/ANPR_RZA2M_RDK/src/tensorflow_lite/src/tensorflow/lite/kernels/internal\types.h ****   int16_t depth;
  50:C:/Renesas/e2studio_2021_01_workspace_RZA2M_ANPR/ANPR_RZA2M_RDK/src/tensorflow_lite/src/tensorflow/lite/kernels/internal\types.h ****   // offset is used for calculating "remaining" padding, for example, `width`
  51:C:/Renesas/e2studio_2021_01_workspace_RZA2M_ANPR/ANPR_RZA2M_RDK/src/tensorflow_lite/src/tensorflow/lite/kernels/internal\types.h ****   // is 1 and `width_offset` is 1, so padding_left is 1 while padding_right is
  52:C:/Renesas/e2studio_2021_01_workspace_RZA2M_ANPR/ANPR_RZA2M_RDK/src/tensorflow_lite/src/tensorflow/lite/kernels/internal\types.h ****   // 1 + 1 = 2.
  53:C:/Renesas/e2studio_2021_01_workspace_RZA2M_ANPR/ANPR_RZA2M_RDK/src/tensorflow_lite/src/tensorflow/lite/kernels/internal\types.h ****   int16_t width_offset;
  54:C:/Renesas/e2studio_2021_01_workspace_RZA2M_ANPR/ANPR_RZA2M_RDK/src/tensorflow_lite/src/tensorflow/lite/kernels/internal\types.h ****   // Same as width_offset except it's over the height dimension.
  55:C:/Renesas/e2studio_2021_01_workspace_RZA2M_ANPR/ANPR_RZA2M_RDK/src/tensorflow_lite/src/tensorflow/lite/kernels/internal\types.h ****   int16_t height_offset;
  56:C:/Renesas/e2studio_2021_01_workspace_RZA2M_ANPR/ANPR_RZA2M_RDK/src/tensorflow_lite/src/tensorflow/lite/kernels/internal\types.h ****   // Same as width_offset except it's over the depth dimension.
  57:C:/Renesas/e2studio_2021_01_workspace_RZA2M_ANPR/ANPR_RZA2M_RDK/src/tensorflow_lite/src/tensorflow/lite/kernels/internal\types.h ****   int16_t depth_offset;
  58:C:/Renesas/e2studio_2021_01_workspace_RZA2M_ANPR/ANPR_RZA2M_RDK/src/tensorflow_lite/src/tensorflow/lite/kernels/internal\types.h **** };
  59:C:/Renesas/e2studio_2021_01_workspace_RZA2M_ANPR/ANPR_RZA2M_RDK/src/tensorflow_lite/src/tensorflow/lite/kernels/internal\types.h **** 
  60:C:/Renesas/e2studio_2021_01_workspace_RZA2M_ANPR/ANPR_RZA2M_RDK/src/tensorflow_lite/src/tensorflow/lite/kernels/internal\types.h **** // This enumeration allows for non-default formats for the weights array
  61:C:/Renesas/e2studio_2021_01_workspace_RZA2M_ANPR/ANPR_RZA2M_RDK/src/tensorflow_lite/src/tensorflow/lite/kernels/internal\types.h **** // of a fully-connected operator, allowing the use of special optimized
  62:C:/Renesas/e2studio_2021_01_workspace_RZA2M_ANPR/ANPR_RZA2M_RDK/src/tensorflow_lite/src/tensorflow/lite/kernels/internal\types.h **** // runtime paths.
  63:C:/Renesas/e2studio_2021_01_workspace_RZA2M_ANPR/ANPR_RZA2M_RDK/src/tensorflow_lite/src/tensorflow/lite/kernels/internal\types.h **** enum class FullyConnectedWeightsFormat : uint8_t {
  64:C:/Renesas/e2studio_2021_01_workspace_RZA2M_ANPR/ANPR_RZA2M_RDK/src/tensorflow_lite/src/tensorflow/lite/kernels/internal\types.h ****   // Default format (flat 2D layout, the inner contiguous dimension
  65:C:/Renesas/e2studio_2021_01_workspace_RZA2M_ANPR/ANPR_RZA2M_RDK/src/tensorflow_lite/src/tensorflow/lite/kernels/internal\types.h ****   // is input_depth, the outer non-contiguous dimension is output_depth)
  66:C:/Renesas/e2studio_2021_01_workspace_RZA2M_ANPR/ANPR_RZA2M_RDK/src/tensorflow_lite/src/tensorflow/lite/kernels/internal\types.h ****   kDefault,
  67:C:/Renesas/e2studio_2021_01_workspace_RZA2M_ANPR/ANPR_RZA2M_RDK/src/tensorflow_lite/src/tensorflow/lite/kernels/internal\types.h ****   // Summary: optimized layout for fast CPU runtime implementation,
  68:C:/Renesas/e2studio_2021_01_workspace_RZA2M_ANPR/ANPR_RZA2M_RDK/src/tensorflow_lite/src/tensorflow/lite/kernels/internal\types.h ****   // aimed specifically at ARM CPUs at the moment, and specialized for
  69:C:/Renesas/e2studio_2021_01_workspace_RZA2M_ANPR/ANPR_RZA2M_RDK/src/tensorflow_lite/src/tensorflow/lite/kernels/internal\types.h ****   // 8-bit quantized layers.
  70:C:/Renesas/e2studio_2021_01_workspace_RZA2M_ANPR/ANPR_RZA2M_RDK/src/tensorflow_lite/src/tensorflow/lite/kernels/internal\types.h ****   //
  71:C:/Renesas/e2studio_2021_01_workspace_RZA2M_ANPR/ANPR_RZA2M_RDK/src/tensorflow_lite/src/tensorflow/lite/kernels/internal\types.h ****   // The use case we're concerned with here is: 8-bit quantization,
  72:C:/Renesas/e2studio_2021_01_workspace_RZA2M_ANPR/ANPR_RZA2M_RDK/src/tensorflow_lite/src/tensorflow/lite/kernels/internal\types.h ****   // large weights matrix that doesn't fit in cache (e.g. 4096x2048 in
  73:C:/Renesas/e2studio_2021_01_workspace_RZA2M_ANPR/ANPR_RZA2M_RDK/src/tensorflow_lite/src/tensorflow/lite/kernels/internal\types.h ****   // a key application that drove this), very small batch size (e.g. 1 -- 4).
  74:C:/Renesas/e2studio_2021_01_workspace_RZA2M_ANPR/ANPR_RZA2M_RDK/src/tensorflow_lite/src/tensorflow/lite/kernels/internal\types.h ****   //
  75:C:/Renesas/e2studio_2021_01_workspace_RZA2M_ANPR/ANPR_RZA2M_RDK/src/tensorflow_lite/src/tensorflow/lite/kernels/internal\types.h ****   // Even with 8-bit quantization of weights, the performance of memory
  76:C:/Renesas/e2studio_2021_01_workspace_RZA2M_ANPR/ANPR_RZA2M_RDK/src/tensorflow_lite/src/tensorflow/lite/kernels/internal\types.h ****   // accesses to the weights can become the dominant issue when
  77:C:/Renesas/e2studio_2021_01_workspace_RZA2M_ANPR/ANPR_RZA2M_RDK/src/tensorflow_lite/src/tensorflow/lite/kernels/internal\types.h ****   // the batch size is small, so each weight value is used in only a few
  78:C:/Renesas/e2studio_2021_01_workspace_RZA2M_ANPR/ANPR_RZA2M_RDK/src/tensorflow_lite/src/tensorflow/lite/kernels/internal\types.h ****   // arithmetic ops, i.e. the fully-connected node has a low arithmetic
  79:C:/Renesas/e2studio_2021_01_workspace_RZA2M_ANPR/ANPR_RZA2M_RDK/src/tensorflow_lite/src/tensorflow/lite/kernels/internal\types.h ****   // intensity. The specific issues that arise are of three kinds:
  80:C:/Renesas/e2studio_2021_01_workspace_RZA2M_ANPR/ANPR_RZA2M_RDK/src/tensorflow_lite/src/tensorflow/lite/kernels/internal\types.h ****   // (1) One may, ideally, max out DRAM bandwidth, i.e. be truly memory
  81:C:/Renesas/e2studio_2021_01_workspace_RZA2M_ANPR/ANPR_RZA2M_RDK/src/tensorflow_lite/src/tensorflow/lite/kernels/internal\types.h ****   //     bound. That's the "good" issue to run into.
  82:C:/Renesas/e2studio_2021_01_workspace_RZA2M_ANPR/ANPR_RZA2M_RDK/src/tensorflow_lite/src/tensorflow/lite/kernels/internal\types.h ****   // (2) One may run into sub-optimal pre-fetching: the data hasn't been
  83:C:/Renesas/e2studio_2021_01_workspace_RZA2M_ANPR/ANPR_RZA2M_RDK/src/tensorflow_lite/src/tensorflow/lite/kernels/internal\types.h ****   //     prefetched into the cache by the time we need it.
  84:C:/Renesas/e2studio_2021_01_workspace_RZA2M_ANPR/ANPR_RZA2M_RDK/src/tensorflow_lite/src/tensorflow/lite/kernels/internal\types.h ****   // (3) One may run into cache aliasing: multiple values that are
  85:C:/Renesas/e2studio_2021_01_workspace_RZA2M_ANPR/ANPR_RZA2M_RDK/src/tensorflow_lite/src/tensorflow/lite/kernels/internal\types.h ****   //     pre-fetched, alias each other in the L1 cache (which typically
  86:C:/Renesas/e2studio_2021_01_workspace_RZA2M_ANPR/ANPR_RZA2M_RDK/src/tensorflow_lite/src/tensorflow/lite/kernels/internal\types.h ****   //     has only 4-way set associativity in ARM CPUs) and thus evict
  87:C:/Renesas/e2studio_2021_01_workspace_RZA2M_ANPR/ANPR_RZA2M_RDK/src/tensorflow_lite/src/tensorflow/lite/kernels/internal\types.h ****   //     each other before we get to using them.
  88:C:/Renesas/e2studio_2021_01_workspace_RZA2M_ANPR/ANPR_RZA2M_RDK/src/tensorflow_lite/src/tensorflow/lite/kernels/internal\types.h ****   //
  89:C:/Renesas/e2studio_2021_01_workspace_RZA2M_ANPR/ANPR_RZA2M_RDK/src/tensorflow_lite/src/tensorflow/lite/kernels/internal\types.h ****   // The point of this shuffling is to avoid issues (2) and (3) so that
  90:C:/Renesas/e2studio_2021_01_workspace_RZA2M_ANPR/ANPR_RZA2M_RDK/src/tensorflow_lite/src/tensorflow/lite/kernels/internal\types.h ****   // we get as fast as possible given only the hard constraint (1).
  91:C:/Renesas/e2studio_2021_01_workspace_RZA2M_ANPR/ANPR_RZA2M_RDK/src/tensorflow_lite/src/tensorflow/lite/kernels/internal\types.h ****   // This is achieved by turning the difficulty into a solution: the
  92:C:/Renesas/e2studio_2021_01_workspace_RZA2M_ANPR/ANPR_RZA2M_RDK/src/tensorflow_lite/src/tensorflow/lite/kernels/internal\types.h ****   // difficulty, that each value loaded from memory is used only in
  93:C:/Renesas/e2studio_2021_01_workspace_RZA2M_ANPR/ANPR_RZA2M_RDK/src/tensorflow_lite/src/tensorflow/lite/kernels/internal\types.h ****   // one kernel iteration, making this operation memory-intensive, hints at
  94:C:/Renesas/e2studio_2021_01_workspace_RZA2M_ANPR/ANPR_RZA2M_RDK/src/tensorflow_lite/src/tensorflow/lite/kernels/internal\types.h ****   // the solution, of shuffling the weights so that they are stored in the
  95:C:/Renesas/e2studio_2021_01_workspace_RZA2M_ANPR/ANPR_RZA2M_RDK/src/tensorflow_lite/src/tensorflow/lite/kernels/internal\types.h ****   // exact order as the kernel needs to load them, so that the memory
  96:C:/Renesas/e2studio_2021_01_workspace_RZA2M_ANPR/ANPR_RZA2M_RDK/src/tensorflow_lite/src/tensorflow/lite/kernels/internal\types.h ****   // accesses made by the kernel are trivial. This solves (2) because the
  97:C:/Renesas/e2studio_2021_01_workspace_RZA2M_ANPR/ANPR_RZA2M_RDK/src/tensorflow_lite/src/tensorflow/lite/kernels/internal\types.h ****   // trivial memory access pattern allows the CPU's automatic prefetching
  98:C:/Renesas/e2studio_2021_01_workspace_RZA2M_ANPR/ANPR_RZA2M_RDK/src/tensorflow_lite/src/tensorflow/lite/kernels/internal\types.h ****   // to perform very well (no need even for preload instructions), and this
  99:C:/Renesas/e2studio_2021_01_workspace_RZA2M_ANPR/ANPR_RZA2M_RDK/src/tensorflow_lite/src/tensorflow/lite/kernels/internal\types.h ****   // solves (3) because the values being loaded concurrently are now
 100:C:/Renesas/e2studio_2021_01_workspace_RZA2M_ANPR/ANPR_RZA2M_RDK/src/tensorflow_lite/src/tensorflow/lite/kernels/internal\types.h ****   // contiguous in the address space, thus don't alias each other in the cache.
 101:C:/Renesas/e2studio_2021_01_workspace_RZA2M_ANPR/ANPR_RZA2M_RDK/src/tensorflow_lite/src/tensorflow/lite/kernels/internal\types.h ****   //
 102:C:/Renesas/e2studio_2021_01_workspace_RZA2M_ANPR/ANPR_RZA2M_RDK/src/tensorflow_lite/src/tensorflow/lite/kernels/internal\types.h ****   // On ARM, we typically want our kernel to process a 4x16 block of weights
 103:C:/Renesas/e2studio_2021_01_workspace_RZA2M_ANPR/ANPR_RZA2M_RDK/src/tensorflow_lite/src/tensorflow/lite/kernels/internal\types.h ****   // at a time, because:
 104:C:/Renesas/e2studio_2021_01_workspace_RZA2M_ANPR/ANPR_RZA2M_RDK/src/tensorflow_lite/src/tensorflow/lite/kernels/internal\types.h ****   //   - 16 is the number of bytes in a NEON register.
 105:C:/Renesas/e2studio_2021_01_workspace_RZA2M_ANPR/ANPR_RZA2M_RDK/src/tensorflow_lite/src/tensorflow/lite/kernels/internal\types.h ****   //   - 4 is how many rows we need to handle concurrently in the kernel in
 106:C:/Renesas/e2studio_2021_01_workspace_RZA2M_ANPR/ANPR_RZA2M_RDK/src/tensorflow_lite/src/tensorflow/lite/kernels/internal\types.h ****   //     order to have sufficient mutual independence of instructions to
 107:C:/Renesas/e2studio_2021_01_workspace_RZA2M_ANPR/ANPR_RZA2M_RDK/src/tensorflow_lite/src/tensorflow/lite/kernels/internal\types.h ****   //     maximize arithmetic throughput.
 108:C:/Renesas/e2studio_2021_01_workspace_RZA2M_ANPR/ANPR_RZA2M_RDK/src/tensorflow_lite/src/tensorflow/lite/kernels/internal\types.h ****   //
 109:C:/Renesas/e2studio_2021_01_workspace_RZA2M_ANPR/ANPR_RZA2M_RDK/src/tensorflow_lite/src/tensorflow/lite/kernels/internal\types.h ****   // Finally, the 'Int8' part in the name refers to the fact that this
 110:C:/Renesas/e2studio_2021_01_workspace_RZA2M_ANPR/ANPR_RZA2M_RDK/src/tensorflow_lite/src/tensorflow/lite/kernels/internal\types.h ****   // weights format has each weights value encoded as a signed int8_t value,
 111:C:/Renesas/e2studio_2021_01_workspace_RZA2M_ANPR/ANPR_RZA2M_RDK/src/tensorflow_lite/src/tensorflow/lite/kernels/internal\types.h ****   // even if the data type of the weights buffer is uint8_t.  This is intended
 112:C:/Renesas/e2studio_2021_01_workspace_RZA2M_ANPR/ANPR_RZA2M_RDK/src/tensorflow_lite/src/tensorflow/lite/kernels/internal\types.h ****   // to save runtime kernels the effort to have to XOR the top bit of these
 113:C:/Renesas/e2studio_2021_01_workspace_RZA2M_ANPR/ANPR_RZA2M_RDK/src/tensorflow_lite/src/tensorflow/lite/kernels/internal\types.h ****   // bytes before using them in signed arithmetic, see this file for more
 114:C:/Renesas/e2studio_2021_01_workspace_RZA2M_ANPR/ANPR_RZA2M_RDK/src/tensorflow_lite/src/tensorflow/lite/kernels/internal\types.h ****   // explanations on the 'signed int8_t trick' in matrix multiplication kernels:
 115:C:/Renesas/e2studio_2021_01_workspace_RZA2M_ANPR/ANPR_RZA2M_RDK/src/tensorflow_lite/src/tensorflow/lite/kernels/internal\types.h ****   //
 116:C:/Renesas/e2studio_2021_01_workspace_RZA2M_ANPR/ANPR_RZA2M_RDK/src/tensorflow_lite/src/tensorflow/lite/kernels/internal\types.h ****   //   tensorflow/lite/toco/graph_transformations/ensure_uint8_weights_safe_for_fast_int8_kernels.c
 117:C:/Renesas/e2studio_2021_01_workspace_RZA2M_ANPR/ANPR_RZA2M_RDK/src/tensorflow_lite/src/tensorflow/lite/kernels/internal\types.h ****   //
 118:C:/Renesas/e2studio_2021_01_workspace_RZA2M_ANPR/ANPR_RZA2M_RDK/src/tensorflow_lite/src/tensorflow/lite/kernels/internal\types.h ****   kShuffled4x16Int8,
 119:C:/Renesas/e2studio_2021_01_workspace_RZA2M_ANPR/ANPR_RZA2M_RDK/src/tensorflow_lite/src/tensorflow/lite/kernels/internal\types.h **** };
 120:C:/Renesas/e2studio_2021_01_workspace_RZA2M_ANPR/ANPR_RZA2M_RDK/src/tensorflow_lite/src/tensorflow/lite/kernels/internal\types.h **** 
 121:C:/Renesas/e2studio_2021_01_workspace_RZA2M_ANPR/ANPR_RZA2M_RDK/src/tensorflow_lite/src/tensorflow/lite/kernels/internal\types.h **** // Quantization parameters, determining the mapping of quantized values
 122:C:/Renesas/e2studio_2021_01_workspace_RZA2M_ANPR/ANPR_RZA2M_RDK/src/tensorflow_lite/src/tensorflow/lite/kernels/internal\types.h **** // to real values (i.e. determining how quantized values are mathematically
 123:C:/Renesas/e2studio_2021_01_workspace_RZA2M_ANPR/ANPR_RZA2M_RDK/src/tensorflow_lite/src/tensorflow/lite/kernels/internal\types.h **** // interpreted).
 124:C:/Renesas/e2studio_2021_01_workspace_RZA2M_ANPR/ANPR_RZA2M_RDK/src/tensorflow_lite/src/tensorflow/lite/kernels/internal\types.h **** //
 125:C:/Renesas/e2studio_2021_01_workspace_RZA2M_ANPR/ANPR_RZA2M_RDK/src/tensorflow_lite/src/tensorflow/lite/kernels/internal\types.h **** // The correspondence is as follows:
 126:C:/Renesas/e2studio_2021_01_workspace_RZA2M_ANPR/ANPR_RZA2M_RDK/src/tensorflow_lite/src/tensorflow/lite/kernels/internal\types.h **** //
 127:C:/Renesas/e2studio_2021_01_workspace_RZA2M_ANPR/ANPR_RZA2M_RDK/src/tensorflow_lite/src/tensorflow/lite/kernels/internal\types.h **** //   real_value = scale * (quantized_value - zero_point);
 128:C:/Renesas/e2studio_2021_01_workspace_RZA2M_ANPR/ANPR_RZA2M_RDK/src/tensorflow_lite/src/tensorflow/lite/kernels/internal\types.h **** //
 129:C:/Renesas/e2studio_2021_01_workspace_RZA2M_ANPR/ANPR_RZA2M_RDK/src/tensorflow_lite/src/tensorflow/lite/kernels/internal\types.h **** // In other words, zero_point designates which quantized value corresponds to
 130:C:/Renesas/e2studio_2021_01_workspace_RZA2M_ANPR/ANPR_RZA2M_RDK/src/tensorflow_lite/src/tensorflow/lite/kernels/internal\types.h **** // the real 0 value, and scale designates the difference between the real values
 131:C:/Renesas/e2studio_2021_01_workspace_RZA2M_ANPR/ANPR_RZA2M_RDK/src/tensorflow_lite/src/tensorflow/lite/kernels/internal\types.h **** // corresponding to consecutive quantized values differing by 1.
 132:C:/Renesas/e2studio_2021_01_workspace_RZA2M_ANPR/ANPR_RZA2M_RDK/src/tensorflow_lite/src/tensorflow/lite/kernels/internal\types.h **** struct QuantizationParams {
 133:C:/Renesas/e2studio_2021_01_workspace_RZA2M_ANPR/ANPR_RZA2M_RDK/src/tensorflow_lite/src/tensorflow/lite/kernels/internal\types.h ****   int32_t zero_point = 0;
 134:C:/Renesas/e2studio_2021_01_workspace_RZA2M_ANPR/ANPR_RZA2M_RDK/src/tensorflow_lite/src/tensorflow/lite/kernels/internal\types.h ****   double scale = 0.0;
 135:C:/Renesas/e2studio_2021_01_workspace_RZA2M_ANPR/ANPR_RZA2M_RDK/src/tensorflow_lite/src/tensorflow/lite/kernels/internal\types.h **** };
 136:C:/Renesas/e2studio_2021_01_workspace_RZA2M_ANPR/ANPR_RZA2M_RDK/src/tensorflow_lite/src/tensorflow/lite/kernels/internal\types.h **** 
 137:C:/Renesas/e2studio_2021_01_workspace_RZA2M_ANPR/ANPR_RZA2M_RDK/src/tensorflow_lite/src/tensorflow/lite/kernels/internal\types.h **** inline bool operator==(const QuantizationParams& qp1,
 138:C:/Renesas/e2studio_2021_01_workspace_RZA2M_ANPR/ANPR_RZA2M_RDK/src/tensorflow_lite/src/tensorflow/lite/kernels/internal\types.h ****                        const QuantizationParams& qp2) {
 139:C:/Renesas/e2studio_2021_01_workspace_RZA2M_ANPR/ANPR_RZA2M_RDK/src/tensorflow_lite/src/tensorflow/lite/kernels/internal\types.h ****   return qp1.zero_point == qp2.zero_point && qp1.scale == qp2.scale;
 140:C:/Renesas/e2studio_2021_01_workspace_RZA2M_ANPR/ANPR_RZA2M_RDK/src/tensorflow_lite/src/tensorflow/lite/kernels/internal\types.h **** }
 141:C:/Renesas/e2studio_2021_01_workspace_RZA2M_ANPR/ANPR_RZA2M_RDK/src/tensorflow_lite/src/tensorflow/lite/kernels/internal\types.h **** 
 142:C:/Renesas/e2studio_2021_01_workspace_RZA2M_ANPR/ANPR_RZA2M_RDK/src/tensorflow_lite/src/tensorflow/lite/kernels/internal\types.h **** template <int N>
 143:C:/Renesas/e2studio_2021_01_workspace_RZA2M_ANPR/ANPR_RZA2M_RDK/src/tensorflow_lite/src/tensorflow/lite/kernels/internal\types.h **** struct Dims {
 144:C:/Renesas/e2studio_2021_01_workspace_RZA2M_ANPR/ANPR_RZA2M_RDK/src/tensorflow_lite/src/tensorflow/lite/kernels/internal\types.h ****   int sizes[N];
 145:C:/Renesas/e2studio_2021_01_workspace_RZA2M_ANPR/ANPR_RZA2M_RDK/src/tensorflow_lite/src/tensorflow/lite/kernels/internal\types.h ****   int strides[N];
 146:C:/Renesas/e2studio_2021_01_workspace_RZA2M_ANPR/ANPR_RZA2M_RDK/src/tensorflow_lite/src/tensorflow/lite/kernels/internal\types.h **** };
 147:C:/Renesas/e2studio_2021_01_workspace_RZA2M_ANPR/ANPR_RZA2M_RDK/src/tensorflow_lite/src/tensorflow/lite/kernels/internal\types.h **** 
 148:C:/Renesas/e2studio_2021_01_workspace_RZA2M_ANPR/ANPR_RZA2M_RDK/src/tensorflow_lite/src/tensorflow/lite/kernels/internal\types.h **** class RuntimeShape {
 149:C:/Renesas/e2studio_2021_01_workspace_RZA2M_ANPR/ANPR_RZA2M_RDK/src/tensorflow_lite/src/tensorflow/lite/kernels/internal\types.h ****  public:
 150:C:/Renesas/e2studio_2021_01_workspace_RZA2M_ANPR/ANPR_RZA2M_RDK/src/tensorflow_lite/src/tensorflow/lite/kernels/internal\types.h ****   // Shapes with dimensions up to 5 are stored directly in the structure, while
 151:C:/Renesas/e2studio_2021_01_workspace_RZA2M_ANPR/ANPR_RZA2M_RDK/src/tensorflow_lite/src/tensorflow/lite/kernels/internal\types.h ****   // larger shapes are separately allocated.
 152:C:/Renesas/e2studio_2021_01_workspace_RZA2M_ANPR/ANPR_RZA2M_RDK/src/tensorflow_lite/src/tensorflow/lite/kernels/internal\types.h ****   static constexpr int kMaxSmallSize = 5;
 153:C:/Renesas/e2studio_2021_01_workspace_RZA2M_ANPR/ANPR_RZA2M_RDK/src/tensorflow_lite/src/tensorflow/lite/kernels/internal\types.h **** 
 154:C:/Renesas/e2studio_2021_01_workspace_RZA2M_ANPR/ANPR_RZA2M_RDK/src/tensorflow_lite/src/tensorflow/lite/kernels/internal\types.h ****   RuntimeShape& operator=(RuntimeShape const&) = delete;
 155:C:/Renesas/e2studio_2021_01_workspace_RZA2M_ANPR/ANPR_RZA2M_RDK/src/tensorflow_lite/src/tensorflow/lite/kernels/internal\types.h **** 
 156:C:/Renesas/e2studio_2021_01_workspace_RZA2M_ANPR/ANPR_RZA2M_RDK/src/tensorflow_lite/src/tensorflow/lite/kernels/internal\types.h ****   RuntimeShape() : size_(0) {}
 157:C:/Renesas/e2studio_2021_01_workspace_RZA2M_ANPR/ANPR_RZA2M_RDK/src/tensorflow_lite/src/tensorflow/lite/kernels/internal\types.h **** 
 158:C:/Renesas/e2studio_2021_01_workspace_RZA2M_ANPR/ANPR_RZA2M_RDK/src/tensorflow_lite/src/tensorflow/lite/kernels/internal\types.h ****   explicit RuntimeShape(int dimensions_count) : size_(dimensions_count) {
 159:C:/Renesas/e2studio_2021_01_workspace_RZA2M_ANPR/ANPR_RZA2M_RDK/src/tensorflow_lite/src/tensorflow/lite/kernels/internal\types.h ****     if (dimensions_count > kMaxSmallSize) {
 160:C:/Renesas/e2studio_2021_01_workspace_RZA2M_ANPR/ANPR_RZA2M_RDK/src/tensorflow_lite/src/tensorflow/lite/kernels/internal\types.h **** #ifdef TF_LITE_STATIC_MEMORY
 161:C:/Renesas/e2studio_2021_01_workspace_RZA2M_ANPR/ANPR_RZA2M_RDK/src/tensorflow_lite/src/tensorflow/lite/kernels/internal\types.h ****       TFLITE_CHECK(false && "No shape resizing supported on this platform");
 162:C:/Renesas/e2studio_2021_01_workspace_RZA2M_ANPR/ANPR_RZA2M_RDK/src/tensorflow_lite/src/tensorflow/lite/kernels/internal\types.h **** #else  // TF_LITE_STATIC_MEMORY
 163:C:/Renesas/e2studio_2021_01_workspace_RZA2M_ANPR/ANPR_RZA2M_RDK/src/tensorflow_lite/src/tensorflow/lite/kernels/internal\types.h ****       dims_pointer_ = new int32_t[dimensions_count];
 164:C:/Renesas/e2studio_2021_01_workspace_RZA2M_ANPR/ANPR_RZA2M_RDK/src/tensorflow_lite/src/tensorflow/lite/kernels/internal\types.h **** #endif  // TF_LITE_STATIC_MEMORY
 165:C:/Renesas/e2studio_2021_01_workspace_RZA2M_ANPR/ANPR_RZA2M_RDK/src/tensorflow_lite/src/tensorflow/lite/kernels/internal\types.h ****     }
 166:C:/Renesas/e2studio_2021_01_workspace_RZA2M_ANPR/ANPR_RZA2M_RDK/src/tensorflow_lite/src/tensorflow/lite/kernels/internal\types.h ****   }
 167:C:/Renesas/e2studio_2021_01_workspace_RZA2M_ANPR/ANPR_RZA2M_RDK/src/tensorflow_lite/src/tensorflow/lite/kernels/internal\types.h **** 
 168:C:/Renesas/e2studio_2021_01_workspace_RZA2M_ANPR/ANPR_RZA2M_RDK/src/tensorflow_lite/src/tensorflow/lite/kernels/internal\types.h ****   RuntimeShape(int shape_size, int32_t value) : size_(0) {
 169:C:/Renesas/e2studio_2021_01_workspace_RZA2M_ANPR/ANPR_RZA2M_RDK/src/tensorflow_lite/src/tensorflow/lite/kernels/internal\types.h ****     Resize(shape_size);
 170:C:/Renesas/e2studio_2021_01_workspace_RZA2M_ANPR/ANPR_RZA2M_RDK/src/tensorflow_lite/src/tensorflow/lite/kernels/internal\types.h ****     for (int i = 0; i < shape_size; ++i) {
 171:C:/Renesas/e2studio_2021_01_workspace_RZA2M_ANPR/ANPR_RZA2M_RDK/src/tensorflow_lite/src/tensorflow/lite/kernels/internal\types.h ****       SetDim(i, value);
 172:C:/Renesas/e2studio_2021_01_workspace_RZA2M_ANPR/ANPR_RZA2M_RDK/src/tensorflow_lite/src/tensorflow/lite/kernels/internal\types.h ****     }
 173:C:/Renesas/e2studio_2021_01_workspace_RZA2M_ANPR/ANPR_RZA2M_RDK/src/tensorflow_lite/src/tensorflow/lite/kernels/internal\types.h ****   }
 174:C:/Renesas/e2studio_2021_01_workspace_RZA2M_ANPR/ANPR_RZA2M_RDK/src/tensorflow_lite/src/tensorflow/lite/kernels/internal\types.h **** 
 175:C:/Renesas/e2studio_2021_01_workspace_RZA2M_ANPR/ANPR_RZA2M_RDK/src/tensorflow_lite/src/tensorflow/lite/kernels/internal\types.h ****   RuntimeShape(int dimensions_count, const int32_t* dims_data) : size_(0) {
 176:C:/Renesas/e2studio_2021_01_workspace_RZA2M_ANPR/ANPR_RZA2M_RDK/src/tensorflow_lite/src/tensorflow/lite/kernels/internal\types.h ****     ReplaceWith(dimensions_count, dims_data);
 177:C:/Renesas/e2studio_2021_01_workspace_RZA2M_ANPR/ANPR_RZA2M_RDK/src/tensorflow_lite/src/tensorflow/lite/kernels/internal\types.h ****   }
 178:C:/Renesas/e2studio_2021_01_workspace_RZA2M_ANPR/ANPR_RZA2M_RDK/src/tensorflow_lite/src/tensorflow/lite/kernels/internal\types.h **** 
 179:C:/Renesas/e2studio_2021_01_workspace_RZA2M_ANPR/ANPR_RZA2M_RDK/src/tensorflow_lite/src/tensorflow/lite/kernels/internal\types.h ****   RuntimeShape(const std::initializer_list<int> init_list) : size_(0) {
 180:C:/Renesas/e2studio_2021_01_workspace_RZA2M_ANPR/ANPR_RZA2M_RDK/src/tensorflow_lite/src/tensorflow/lite/kernels/internal\types.h ****     BuildFrom(init_list);
 181:C:/Renesas/e2studio_2021_01_workspace_RZA2M_ANPR/ANPR_RZA2M_RDK/src/tensorflow_lite/src/tensorflow/lite/kernels/internal\types.h ****   }
 182:C:/Renesas/e2studio_2021_01_workspace_RZA2M_ANPR/ANPR_RZA2M_RDK/src/tensorflow_lite/src/tensorflow/lite/kernels/internal\types.h **** 
 183:C:/Renesas/e2studio_2021_01_workspace_RZA2M_ANPR/ANPR_RZA2M_RDK/src/tensorflow_lite/src/tensorflow/lite/kernels/internal\types.h ****   // Avoid using this constructor.  We should be able to delete it when C++17
 184:C:/Renesas/e2studio_2021_01_workspace_RZA2M_ANPR/ANPR_RZA2M_RDK/src/tensorflow_lite/src/tensorflow/lite/kernels/internal\types.h ****   // rolls out.
 185:C:/Renesas/e2studio_2021_01_workspace_RZA2M_ANPR/ANPR_RZA2M_RDK/src/tensorflow_lite/src/tensorflow/lite/kernels/internal\types.h ****   RuntimeShape(RuntimeShape const& other) : size_(other.DimensionsCount()) {
 186:C:/Renesas/e2studio_2021_01_workspace_RZA2M_ANPR/ANPR_RZA2M_RDK/src/tensorflow_lite/src/tensorflow/lite/kernels/internal\types.h ****     if (size_ > kMaxSmallSize) {
 187:C:/Renesas/e2studio_2021_01_workspace_RZA2M_ANPR/ANPR_RZA2M_RDK/src/tensorflow_lite/src/tensorflow/lite/kernels/internal\types.h **** #ifdef TF_LITE_STATIC_MEMORY
 188:C:/Renesas/e2studio_2021_01_workspace_RZA2M_ANPR/ANPR_RZA2M_RDK/src/tensorflow_lite/src/tensorflow/lite/kernels/internal\types.h ****       TFLITE_CHECK(false && "No shape resizing supported on this platform");
 189:C:/Renesas/e2studio_2021_01_workspace_RZA2M_ANPR/ANPR_RZA2M_RDK/src/tensorflow_lite/src/tensorflow/lite/kernels/internal\types.h **** #else
 190:C:/Renesas/e2studio_2021_01_workspace_RZA2M_ANPR/ANPR_RZA2M_RDK/src/tensorflow_lite/src/tensorflow/lite/kernels/internal\types.h ****       dims_pointer_ = new int32_t[size_];
 191:C:/Renesas/e2studio_2021_01_workspace_RZA2M_ANPR/ANPR_RZA2M_RDK/src/tensorflow_lite/src/tensorflow/lite/kernels/internal\types.h **** #endif
 192:C:/Renesas/e2studio_2021_01_workspace_RZA2M_ANPR/ANPR_RZA2M_RDK/src/tensorflow_lite/src/tensorflow/lite/kernels/internal\types.h ****     }
 193:C:/Renesas/e2studio_2021_01_workspace_RZA2M_ANPR/ANPR_RZA2M_RDK/src/tensorflow_lite/src/tensorflow/lite/kernels/internal\types.h ****     std::memcpy(DimsData(), other.DimsData(), sizeof(int32_t) * size_);
 194:C:/Renesas/e2studio_2021_01_workspace_RZA2M_ANPR/ANPR_RZA2M_RDK/src/tensorflow_lite/src/tensorflow/lite/kernels/internal\types.h ****   }
 195:C:/Renesas/e2studio_2021_01_workspace_RZA2M_ANPR/ANPR_RZA2M_RDK/src/tensorflow_lite/src/tensorflow/lite/kernels/internal\types.h **** 
 196:C:/Renesas/e2studio_2021_01_workspace_RZA2M_ANPR/ANPR_RZA2M_RDK/src/tensorflow_lite/src/tensorflow/lite/kernels/internal\types.h ****   bool operator==(const RuntimeShape& comp) const {
 197:C:/Renesas/e2studio_2021_01_workspace_RZA2M_ANPR/ANPR_RZA2M_RDK/src/tensorflow_lite/src/tensorflow/lite/kernels/internal\types.h ****     return this->size_ == comp.size_ &&
 198:C:/Renesas/e2studio_2021_01_workspace_RZA2M_ANPR/ANPR_RZA2M_RDK/src/tensorflow_lite/src/tensorflow/lite/kernels/internal\types.h ****            std::memcmp(DimsData(), comp.DimsData(), size_ * sizeof(int32_t)) ==
 199:C:/Renesas/e2studio_2021_01_workspace_RZA2M_ANPR/ANPR_RZA2M_RDK/src/tensorflow_lite/src/tensorflow/lite/kernels/internal\types.h ****                0;
 200:C:/Renesas/e2studio_2021_01_workspace_RZA2M_ANPR/ANPR_RZA2M_RDK/src/tensorflow_lite/src/tensorflow/lite/kernels/internal\types.h ****   }
 201:C:/Renesas/e2studio_2021_01_workspace_RZA2M_ANPR/ANPR_RZA2M_RDK/src/tensorflow_lite/src/tensorflow/lite/kernels/internal\types.h **** 
 202:C:/Renesas/e2studio_2021_01_workspace_RZA2M_ANPR/ANPR_RZA2M_RDK/src/tensorflow_lite/src/tensorflow/lite/kernels/internal\types.h ****   ~RuntimeShape() {
 203:C:/Renesas/e2studio_2021_01_workspace_RZA2M_ANPR/ANPR_RZA2M_RDK/src/tensorflow_lite/src/tensorflow/lite/kernels/internal\types.h ****     if (size_ > kMaxSmallSize) {
 204:C:/Renesas/e2studio_2021_01_workspace_RZA2M_ANPR/ANPR_RZA2M_RDK/src/tensorflow_lite/src/tensorflow/lite/kernels/internal\types.h **** #ifdef TF_LITE_STATIC_MEMORY
 205:C:/Renesas/e2studio_2021_01_workspace_RZA2M_ANPR/ANPR_RZA2M_RDK/src/tensorflow_lite/src/tensorflow/lite/kernels/internal\types.h ****       TFLITE_CHECK(false && "No shape resizing supported on this platform");
 206:C:/Renesas/e2studio_2021_01_workspace_RZA2M_ANPR/ANPR_RZA2M_RDK/src/tensorflow_lite/src/tensorflow/lite/kernels/internal\types.h **** #else  // TF_LITE_STATIC_MEMORY
 207:C:/Renesas/e2studio_2021_01_workspace_RZA2M_ANPR/ANPR_RZA2M_RDK/src/tensorflow_lite/src/tensorflow/lite/kernels/internal\types.h ****       delete[] dims_pointer_;
 208:C:/Renesas/e2studio_2021_01_workspace_RZA2M_ANPR/ANPR_RZA2M_RDK/src/tensorflow_lite/src/tensorflow/lite/kernels/internal\types.h **** #endif  // TF_LITE_STATIC_MEMORY
 209:C:/Renesas/e2studio_2021_01_workspace_RZA2M_ANPR/ANPR_RZA2M_RDK/src/tensorflow_lite/src/tensorflow/lite/kernels/internal\types.h ****     }
 210:C:/Renesas/e2studio_2021_01_workspace_RZA2M_ANPR/ANPR_RZA2M_RDK/src/tensorflow_lite/src/tensorflow/lite/kernels/internal\types.h ****   }
 211:C:/Renesas/e2studio_2021_01_workspace_RZA2M_ANPR/ANPR_RZA2M_RDK/src/tensorflow_lite/src/tensorflow/lite/kernels/internal\types.h **** 
 212:C:/Renesas/e2studio_2021_01_workspace_RZA2M_ANPR/ANPR_RZA2M_RDK/src/tensorflow_lite/src/tensorflow/lite/kernels/internal\types.h ****   inline int32_t DimensionsCount() const { return size_; }
 213:C:/Renesas/e2studio_2021_01_workspace_RZA2M_ANPR/ANPR_RZA2M_RDK/src/tensorflow_lite/src/tensorflow/lite/kernels/internal\types.h ****   inline int32_t Dims(int i) const {
 214:C:/Renesas/e2studio_2021_01_workspace_RZA2M_ANPR/ANPR_RZA2M_RDK/src/tensorflow_lite/src/tensorflow/lite/kernels/internal\types.h ****     TFLITE_DCHECK_GE(i, 0);
 215:C:/Renesas/e2studio_2021_01_workspace_RZA2M_ANPR/ANPR_RZA2M_RDK/src/tensorflow_lite/src/tensorflow/lite/kernels/internal\types.h ****     TFLITE_DCHECK_LT(i, size_);
 216:C:/Renesas/e2studio_2021_01_workspace_RZA2M_ANPR/ANPR_RZA2M_RDK/src/tensorflow_lite/src/tensorflow/lite/kernels/internal\types.h ****     return size_ > kMaxSmallSize ? dims_pointer_[i] : dims_[i];
 217:C:/Renesas/e2studio_2021_01_workspace_RZA2M_ANPR/ANPR_RZA2M_RDK/src/tensorflow_lite/src/tensorflow/lite/kernels/internal\types.h ****   }
 218:C:/Renesas/e2studio_2021_01_workspace_RZA2M_ANPR/ANPR_RZA2M_RDK/src/tensorflow_lite/src/tensorflow/lite/kernels/internal\types.h ****   inline void SetDim(int i, int32_t val) {
 219:C:/Renesas/e2studio_2021_01_workspace_RZA2M_ANPR/ANPR_RZA2M_RDK/src/tensorflow_lite/src/tensorflow/lite/kernels/internal\types.h ****     TFLITE_DCHECK_GE(i, 0);
 220:C:/Renesas/e2studio_2021_01_workspace_RZA2M_ANPR/ANPR_RZA2M_RDK/src/tensorflow_lite/src/tensorflow/lite/kernels/internal\types.h ****     TFLITE_DCHECK_LT(i, size_);
 221:C:/Renesas/e2studio_2021_01_workspace_RZA2M_ANPR/ANPR_RZA2M_RDK/src/tensorflow_lite/src/tensorflow/lite/kernels/internal\types.h ****     if (size_ > kMaxSmallSize) {
 222:C:/Renesas/e2studio_2021_01_workspace_RZA2M_ANPR/ANPR_RZA2M_RDK/src/tensorflow_lite/src/tensorflow/lite/kernels/internal\types.h ****       dims_pointer_[i] = val;
 223:C:/Renesas/e2studio_2021_01_workspace_RZA2M_ANPR/ANPR_RZA2M_RDK/src/tensorflow_lite/src/tensorflow/lite/kernels/internal\types.h ****     } else {
 224:C:/Renesas/e2studio_2021_01_workspace_RZA2M_ANPR/ANPR_RZA2M_RDK/src/tensorflow_lite/src/tensorflow/lite/kernels/internal\types.h ****       dims_[i] = val;
 225:C:/Renesas/e2studio_2021_01_workspace_RZA2M_ANPR/ANPR_RZA2M_RDK/src/tensorflow_lite/src/tensorflow/lite/kernels/internal\types.h ****     }
 226:C:/Renesas/e2studio_2021_01_workspace_RZA2M_ANPR/ANPR_RZA2M_RDK/src/tensorflow_lite/src/tensorflow/lite/kernels/internal\types.h ****   }
 227:C:/Renesas/e2studio_2021_01_workspace_RZA2M_ANPR/ANPR_RZA2M_RDK/src/tensorflow_lite/src/tensorflow/lite/kernels/internal\types.h **** 
 228:C:/Renesas/e2studio_2021_01_workspace_RZA2M_ANPR/ANPR_RZA2M_RDK/src/tensorflow_lite/src/tensorflow/lite/kernels/internal\types.h ****   inline int32_t* DimsData() {
 229:C:/Renesas/e2studio_2021_01_workspace_RZA2M_ANPR/ANPR_RZA2M_RDK/src/tensorflow_lite/src/tensorflow/lite/kernels/internal\types.h ****     return size_ > kMaxSmallSize ? dims_pointer_ : dims_;
 230:C:/Renesas/e2studio_2021_01_workspace_RZA2M_ANPR/ANPR_RZA2M_RDK/src/tensorflow_lite/src/tensorflow/lite/kernels/internal\types.h ****   }
 231:C:/Renesas/e2studio_2021_01_workspace_RZA2M_ANPR/ANPR_RZA2M_RDK/src/tensorflow_lite/src/tensorflow/lite/kernels/internal\types.h ****   inline const int32_t* DimsData() const {
 232:C:/Renesas/e2studio_2021_01_workspace_RZA2M_ANPR/ANPR_RZA2M_RDK/src/tensorflow_lite/src/tensorflow/lite/kernels/internal\types.h ****     return size_ > kMaxSmallSize ? dims_pointer_ : dims_;
 233:C:/Renesas/e2studio_2021_01_workspace_RZA2M_ANPR/ANPR_RZA2M_RDK/src/tensorflow_lite/src/tensorflow/lite/kernels/internal\types.h ****   }
 234:C:/Renesas/e2studio_2021_01_workspace_RZA2M_ANPR/ANPR_RZA2M_RDK/src/tensorflow_lite/src/tensorflow/lite/kernels/internal\types.h ****   // The caller must ensure that the shape is no bigger than 5-D.
 235:C:/Renesas/e2studio_2021_01_workspace_RZA2M_ANPR/ANPR_RZA2M_RDK/src/tensorflow_lite/src/tensorflow/lite/kernels/internal\types.h ****   inline const int32_t* DimsDataUpTo5D() const { return dims_; }
 236:C:/Renesas/e2studio_2021_01_workspace_RZA2M_ANPR/ANPR_RZA2M_RDK/src/tensorflow_lite/src/tensorflow/lite/kernels/internal\types.h **** 
 237:C:/Renesas/e2studio_2021_01_workspace_RZA2M_ANPR/ANPR_RZA2M_RDK/src/tensorflow_lite/src/tensorflow/lite/kernels/internal\types.h ****   inline void Resize(int dimensions_count) {
 238:C:/Renesas/e2studio_2021_01_workspace_RZA2M_ANPR/ANPR_RZA2M_RDK/src/tensorflow_lite/src/tensorflow/lite/kernels/internal\types.h ****     if (size_ > kMaxSmallSize) {
 239:C:/Renesas/e2studio_2021_01_workspace_RZA2M_ANPR/ANPR_RZA2M_RDK/src/tensorflow_lite/src/tensorflow/lite/kernels/internal\types.h **** #ifdef TF_LITE_STATIC_MEMORY
 240:C:/Renesas/e2studio_2021_01_workspace_RZA2M_ANPR/ANPR_RZA2M_RDK/src/tensorflow_lite/src/tensorflow/lite/kernels/internal\types.h ****       TFLITE_CHECK(false && "No shape resizing supported on this platform");
 241:C:/Renesas/e2studio_2021_01_workspace_RZA2M_ANPR/ANPR_RZA2M_RDK/src/tensorflow_lite/src/tensorflow/lite/kernels/internal\types.h **** #else  // TF_LITE_STATIC_MEMORY
 242:C:/Renesas/e2studio_2021_01_workspace_RZA2M_ANPR/ANPR_RZA2M_RDK/src/tensorflow_lite/src/tensorflow/lite/kernels/internal\types.h ****       delete[] dims_pointer_;
 243:C:/Renesas/e2studio_2021_01_workspace_RZA2M_ANPR/ANPR_RZA2M_RDK/src/tensorflow_lite/src/tensorflow/lite/kernels/internal\types.h **** #endif  // TF_LITE_STATIC_MEMORY
 244:C:/Renesas/e2studio_2021_01_workspace_RZA2M_ANPR/ANPR_RZA2M_RDK/src/tensorflow_lite/src/tensorflow/lite/kernels/internal\types.h ****     }
 245:C:/Renesas/e2studio_2021_01_workspace_RZA2M_ANPR/ANPR_RZA2M_RDK/src/tensorflow_lite/src/tensorflow/lite/kernels/internal\types.h ****     size_ = dimensions_count;
 246:C:/Renesas/e2studio_2021_01_workspace_RZA2M_ANPR/ANPR_RZA2M_RDK/src/tensorflow_lite/src/tensorflow/lite/kernels/internal\types.h ****     if (dimensions_count > kMaxSmallSize) {
 247:C:/Renesas/e2studio_2021_01_workspace_RZA2M_ANPR/ANPR_RZA2M_RDK/src/tensorflow_lite/src/tensorflow/lite/kernels/internal\types.h **** #ifdef TF_LITE_STATIC_MEMORY
 248:C:/Renesas/e2studio_2021_01_workspace_RZA2M_ANPR/ANPR_RZA2M_RDK/src/tensorflow_lite/src/tensorflow/lite/kernels/internal\types.h ****       TFLITE_CHECK(false && "No shape resizing supported on this platform");
 249:C:/Renesas/e2studio_2021_01_workspace_RZA2M_ANPR/ANPR_RZA2M_RDK/src/tensorflow_lite/src/tensorflow/lite/kernels/internal\types.h **** #else  // TF_LITE_STATIC_MEMORY
 250:C:/Renesas/e2studio_2021_01_workspace_RZA2M_ANPR/ANPR_RZA2M_RDK/src/tensorflow_lite/src/tensorflow/lite/kernels/internal\types.h ****       dims_pointer_ = new int32_t[dimensions_count];
 251:C:/Renesas/e2studio_2021_01_workspace_RZA2M_ANPR/ANPR_RZA2M_RDK/src/tensorflow_lite/src/tensorflow/lite/kernels/internal\types.h **** #endif  // TF_LITE_STATIC_MEMORY
 252:C:/Renesas/e2studio_2021_01_workspace_RZA2M_ANPR/ANPR_RZA2M_RDK/src/tensorflow_lite/src/tensorflow/lite/kernels/internal\types.h ****     }
 253:C:/Renesas/e2studio_2021_01_workspace_RZA2M_ANPR/ANPR_RZA2M_RDK/src/tensorflow_lite/src/tensorflow/lite/kernels/internal\types.h ****   }
 254:C:/Renesas/e2studio_2021_01_workspace_RZA2M_ANPR/ANPR_RZA2M_RDK/src/tensorflow_lite/src/tensorflow/lite/kernels/internal\types.h **** 
 255:C:/Renesas/e2studio_2021_01_workspace_RZA2M_ANPR/ANPR_RZA2M_RDK/src/tensorflow_lite/src/tensorflow/lite/kernels/internal\types.h ****   inline void ReplaceWith(int dimensions_count, const int32_t* dims_data) {
 256:C:/Renesas/e2studio_2021_01_workspace_RZA2M_ANPR/ANPR_RZA2M_RDK/src/tensorflow_lite/src/tensorflow/lite/kernels/internal\types.h ****     Resize(dimensions_count);
 257:C:/Renesas/e2studio_2021_01_workspace_RZA2M_ANPR/ANPR_RZA2M_RDK/src/tensorflow_lite/src/tensorflow/lite/kernels/internal\types.h ****     int32_t* dst_dims = DimsData();
 258:C:/Renesas/e2studio_2021_01_workspace_RZA2M_ANPR/ANPR_RZA2M_RDK/src/tensorflow_lite/src/tensorflow/lite/kernels/internal\types.h ****     std::memcpy(dst_dims, dims_data, dimensions_count * sizeof(int32_t));
 259:C:/Renesas/e2studio_2021_01_workspace_RZA2M_ANPR/ANPR_RZA2M_RDK/src/tensorflow_lite/src/tensorflow/lite/kernels/internal\types.h ****   }
 260:C:/Renesas/e2studio_2021_01_workspace_RZA2M_ANPR/ANPR_RZA2M_RDK/src/tensorflow_lite/src/tensorflow/lite/kernels/internal\types.h **** 
 261:C:/Renesas/e2studio_2021_01_workspace_RZA2M_ANPR/ANPR_RZA2M_RDK/src/tensorflow_lite/src/tensorflow/lite/kernels/internal\types.h ****   template <typename T>
 262:C:/Renesas/e2studio_2021_01_workspace_RZA2M_ANPR/ANPR_RZA2M_RDK/src/tensorflow_lite/src/tensorflow/lite/kernels/internal\types.h ****   inline void BuildFrom(const T& src_iterable) {
 263:C:/Renesas/e2studio_2021_01_workspace_RZA2M_ANPR/ANPR_RZA2M_RDK/src/tensorflow_lite/src/tensorflow/lite/kernels/internal\types.h ****     const int dimensions_count =
 264:C:/Renesas/e2studio_2021_01_workspace_RZA2M_ANPR/ANPR_RZA2M_RDK/src/tensorflow_lite/src/tensorflow/lite/kernels/internal\types.h ****         std::distance(src_iterable.begin(), src_iterable.end());
 265:C:/Renesas/e2studio_2021_01_workspace_RZA2M_ANPR/ANPR_RZA2M_RDK/src/tensorflow_lite/src/tensorflow/lite/kernels/internal\types.h ****     Resize(dimensions_count);
 266:C:/Renesas/e2studio_2021_01_workspace_RZA2M_ANPR/ANPR_RZA2M_RDK/src/tensorflow_lite/src/tensorflow/lite/kernels/internal\types.h ****     int32_t* data = DimsData();
 267:C:/Renesas/e2studio_2021_01_workspace_RZA2M_ANPR/ANPR_RZA2M_RDK/src/tensorflow_lite/src/tensorflow/lite/kernels/internal\types.h ****     for (auto it : src_iterable) {
 268:C:/Renesas/e2studio_2021_01_workspace_RZA2M_ANPR/ANPR_RZA2M_RDK/src/tensorflow_lite/src/tensorflow/lite/kernels/internal\types.h ****       *data = it;
 269:C:/Renesas/e2studio_2021_01_workspace_RZA2M_ANPR/ANPR_RZA2M_RDK/src/tensorflow_lite/src/tensorflow/lite/kernels/internal\types.h ****       ++data;
 270:C:/Renesas/e2studio_2021_01_workspace_RZA2M_ANPR/ANPR_RZA2M_RDK/src/tensorflow_lite/src/tensorflow/lite/kernels/internal\types.h ****     }
 271:C:/Renesas/e2studio_2021_01_workspace_RZA2M_ANPR/ANPR_RZA2M_RDK/src/tensorflow_lite/src/tensorflow/lite/kernels/internal\types.h ****   }
 272:C:/Renesas/e2studio_2021_01_workspace_RZA2M_ANPR/ANPR_RZA2M_RDK/src/tensorflow_lite/src/tensorflow/lite/kernels/internal\types.h **** 
 273:C:/Renesas/e2studio_2021_01_workspace_RZA2M_ANPR/ANPR_RZA2M_RDK/src/tensorflow_lite/src/tensorflow/lite/kernels/internal\types.h ****   // This will probably be factored out. Old code made substantial use of 4-D
 274:C:/Renesas/e2studio_2021_01_workspace_RZA2M_ANPR/ANPR_RZA2M_RDK/src/tensorflow_lite/src/tensorflow/lite/kernels/internal\types.h ****   // shapes, and so this function is used to extend smaller shapes. Note that
 275:C:/Renesas/e2studio_2021_01_workspace_RZA2M_ANPR/ANPR_RZA2M_RDK/src/tensorflow_lite/src/tensorflow/lite/kernels/internal\types.h ****   // (a) as Dims<4>-dependent code is eliminated, the reliance on this should be
 276:C:/Renesas/e2studio_2021_01_workspace_RZA2M_ANPR/ANPR_RZA2M_RDK/src/tensorflow_lite/src/tensorflow/lite/kernels/internal\types.h ****   // reduced, and (b) some kernels are stricly 4-D, but then the shapes of their
 277:C:/Renesas/e2studio_2021_01_workspace_RZA2M_ANPR/ANPR_RZA2M_RDK/src/tensorflow_lite/src/tensorflow/lite/kernels/internal\types.h ****   // inputs should already be 4-D, so this function should not be needed.
 278:C:/Renesas/e2studio_2021_01_workspace_RZA2M_ANPR/ANPR_RZA2M_RDK/src/tensorflow_lite/src/tensorflow/lite/kernels/internal\types.h ****   inline static RuntimeShape ExtendedShape(int new_shape_size,
 279:C:/Renesas/e2studio_2021_01_workspace_RZA2M_ANPR/ANPR_RZA2M_RDK/src/tensorflow_lite/src/tensorflow/lite/kernels/internal\types.h ****                                            const RuntimeShape& shape) {
 280:C:/Renesas/e2studio_2021_01_workspace_RZA2M_ANPR/ANPR_RZA2M_RDK/src/tensorflow_lite/src/tensorflow/lite/kernels/internal\types.h ****     return RuntimeShape(new_shape_size, shape, 1);
 281:C:/Renesas/e2studio_2021_01_workspace_RZA2M_ANPR/ANPR_RZA2M_RDK/src/tensorflow_lite/src/tensorflow/lite/kernels/internal\types.h ****   }
 282:C:/Renesas/e2studio_2021_01_workspace_RZA2M_ANPR/ANPR_RZA2M_RDK/src/tensorflow_lite/src/tensorflow/lite/kernels/internal\types.h **** 
 283:C:/Renesas/e2studio_2021_01_workspace_RZA2M_ANPR/ANPR_RZA2M_RDK/src/tensorflow_lite/src/tensorflow/lite/kernels/internal\types.h ****   inline void BuildFrom(const std::initializer_list<int> init_list) {
 284:C:/Renesas/e2studio_2021_01_workspace_RZA2M_ANPR/ANPR_RZA2M_RDK/src/tensorflow_lite/src/tensorflow/lite/kernels/internal\types.h ****     BuildFrom<const std::initializer_list<int>>(init_list);
 285:C:/Renesas/e2studio_2021_01_workspace_RZA2M_ANPR/ANPR_RZA2M_RDK/src/tensorflow_lite/src/tensorflow/lite/kernels/internal\types.h ****   }
 286:C:/Renesas/e2studio_2021_01_workspace_RZA2M_ANPR/ANPR_RZA2M_RDK/src/tensorflow_lite/src/tensorflow/lite/kernels/internal\types.h **** 
 287:C:/Renesas/e2studio_2021_01_workspace_RZA2M_ANPR/ANPR_RZA2M_RDK/src/tensorflow_lite/src/tensorflow/lite/kernels/internal\types.h ****   // Returns the total count of elements, that is the size when flattened into a
 288:C:/Renesas/e2studio_2021_01_workspace_RZA2M_ANPR/ANPR_RZA2M_RDK/src/tensorflow_lite/src/tensorflow/lite/kernels/internal\types.h ****   // vector.
 289:C:/Renesas/e2studio_2021_01_workspace_RZA2M_ANPR/ANPR_RZA2M_RDK/src/tensorflow_lite/src/tensorflow/lite/kernels/internal\types.h ****   inline int FlatSize() const {
 290:C:/Renesas/e2studio_2021_01_workspace_RZA2M_ANPR/ANPR_RZA2M_RDK/src/tensorflow_lite/src/tensorflow/lite/kernels/internal\types.h ****     int buffer_size = 1;
 291:C:/Renesas/e2studio_2021_01_workspace_RZA2M_ANPR/ANPR_RZA2M_RDK/src/tensorflow_lite/src/tensorflow/lite/kernels/internal\types.h ****     const int* dims_data = reinterpret_cast<const int*>(DimsData());
 292:C:/Renesas/e2studio_2021_01_workspace_RZA2M_ANPR/ANPR_RZA2M_RDK/src/tensorflow_lite/src/tensorflow/lite/kernels/internal\types.h ****     for (int i = 0; i < size_; i++) {
 293:C:/Renesas/e2studio_2021_01_workspace_RZA2M_ANPR/ANPR_RZA2M_RDK/src/tensorflow_lite/src/tensorflow/lite/kernels/internal\types.h ****       buffer_size *= dims_data[i];
 294:C:/Renesas/e2studio_2021_01_workspace_RZA2M_ANPR/ANPR_RZA2M_RDK/src/tensorflow_lite/src/tensorflow/lite/kernels/internal\types.h ****     }
 295:C:/Renesas/e2studio_2021_01_workspace_RZA2M_ANPR/ANPR_RZA2M_RDK/src/tensorflow_lite/src/tensorflow/lite/kernels/internal\types.h ****     return buffer_size;
 296:C:/Renesas/e2studio_2021_01_workspace_RZA2M_ANPR/ANPR_RZA2M_RDK/src/tensorflow_lite/src/tensorflow/lite/kernels/internal\types.h ****   }
 297:C:/Renesas/e2studio_2021_01_workspace_RZA2M_ANPR/ANPR_RZA2M_RDK/src/tensorflow_lite/src/tensorflow/lite/kernels/internal\types.h **** 
 298:C:/Renesas/e2studio_2021_01_workspace_RZA2M_ANPR/ANPR_RZA2M_RDK/src/tensorflow_lite/src/tensorflow/lite/kernels/internal\types.h ****   bool operator!=(const RuntimeShape& comp) const { return !((*this) == comp); }
 299:C:/Renesas/e2studio_2021_01_workspace_RZA2M_ANPR/ANPR_RZA2M_RDK/src/tensorflow_lite/src/tensorflow/lite/kernels/internal\types.h **** 
 300:C:/Renesas/e2studio_2021_01_workspace_RZA2M_ANPR/ANPR_RZA2M_RDK/src/tensorflow_lite/src/tensorflow/lite/kernels/internal\types.h ****  private:
 301:C:/Renesas/e2studio_2021_01_workspace_RZA2M_ANPR/ANPR_RZA2M_RDK/src/tensorflow_lite/src/tensorflow/lite/kernels/internal\types.h ****   // For use only by ExtendedShape(), written to guarantee (return-value) copy
 302:C:/Renesas/e2studio_2021_01_workspace_RZA2M_ANPR/ANPR_RZA2M_RDK/src/tensorflow_lite/src/tensorflow/lite/kernels/internal\types.h ****   // elision in C++17.
 303:C:/Renesas/e2studio_2021_01_workspace_RZA2M_ANPR/ANPR_RZA2M_RDK/src/tensorflow_lite/src/tensorflow/lite/kernels/internal\types.h ****   // This creates a shape padded to the desired size with the specified value.
 304:C:/Renesas/e2studio_2021_01_workspace_RZA2M_ANPR/ANPR_RZA2M_RDK/src/tensorflow_lite/src/tensorflow/lite/kernels/internal\types.h ****   RuntimeShape(int new_shape_size, const RuntimeShape& shape, int pad_value)
 305:C:/Renesas/e2studio_2021_01_workspace_RZA2M_ANPR/ANPR_RZA2M_RDK/src/tensorflow_lite/src/tensorflow/lite/kernels/internal\types.h ****       : size_(0) {
 306:C:/Renesas/e2studio_2021_01_workspace_RZA2M_ANPR/ANPR_RZA2M_RDK/src/tensorflow_lite/src/tensorflow/lite/kernels/internal\types.h ****     // If the following check fails, it is likely because a 4D-only kernel is
 307:C:/Renesas/e2studio_2021_01_workspace_RZA2M_ANPR/ANPR_RZA2M_RDK/src/tensorflow_lite/src/tensorflow/lite/kernels/internal\types.h ****     // being used with an array of larger dimension count.
 308:C:/Renesas/e2studio_2021_01_workspace_RZA2M_ANPR/ANPR_RZA2M_RDK/src/tensorflow_lite/src/tensorflow/lite/kernels/internal\types.h ****     TFLITE_CHECK_GE(new_shape_size, shape.DimensionsCount());
 309:C:/Renesas/e2studio_2021_01_workspace_RZA2M_ANPR/ANPR_RZA2M_RDK/src/tensorflow_lite/src/tensorflow/lite/kernels/internal\types.h ****     Resize(new_shape_size);
 310:C:/Renesas/e2studio_2021_01_workspace_RZA2M_ANPR/ANPR_RZA2M_RDK/src/tensorflow_lite/src/tensorflow/lite/kernels/internal\types.h ****     const int size_increase = new_shape_size - shape.DimensionsCount();
 311:C:/Renesas/e2studio_2021_01_workspace_RZA2M_ANPR/ANPR_RZA2M_RDK/src/tensorflow_lite/src/tensorflow/lite/kernels/internal\types.h ****     for (int i = 0; i < size_increase; ++i) {
 312:C:/Renesas/e2studio_2021_01_workspace_RZA2M_ANPR/ANPR_RZA2M_RDK/src/tensorflow_lite/src/tensorflow/lite/kernels/internal\types.h ****       SetDim(i, pad_value);
 313:C:/Renesas/e2studio_2021_01_workspace_RZA2M_ANPR/ANPR_RZA2M_RDK/src/tensorflow_lite/src/tensorflow/lite/kernels/internal\types.h ****     }
 314:C:/Renesas/e2studio_2021_01_workspace_RZA2M_ANPR/ANPR_RZA2M_RDK/src/tensorflow_lite/src/tensorflow/lite/kernels/internal\types.h ****     std::memcpy(DimsData() + size_increase, shape.DimsData(),
 315:C:/Renesas/e2studio_2021_01_workspace_RZA2M_ANPR/ANPR_RZA2M_RDK/src/tensorflow_lite/src/tensorflow/lite/kernels/internal\types.h ****                 sizeof(int32_t) * shape.DimensionsCount());
 316:C:/Renesas/e2studio_2021_01_workspace_RZA2M_ANPR/ANPR_RZA2M_RDK/src/tensorflow_lite/src/tensorflow/lite/kernels/internal\types.h ****   }
 317:C:/Renesas/e2studio_2021_01_workspace_RZA2M_ANPR/ANPR_RZA2M_RDK/src/tensorflow_lite/src/tensorflow/lite/kernels/internal\types.h **** 
 318:C:/Renesas/e2studio_2021_01_workspace_RZA2M_ANPR/ANPR_RZA2M_RDK/src/tensorflow_lite/src/tensorflow/lite/kernels/internal\types.h ****   int32_t size_;
 319:C:/Renesas/e2studio_2021_01_workspace_RZA2M_ANPR/ANPR_RZA2M_RDK/src/tensorflow_lite/src/tensorflow/lite/kernels/internal\types.h ****   union {
 320:C:/Renesas/e2studio_2021_01_workspace_RZA2M_ANPR/ANPR_RZA2M_RDK/src/tensorflow_lite/src/tensorflow/lite/kernels/internal\types.h ****     int32_t dims_[kMaxSmallSize];
 321:C:/Renesas/e2studio_2021_01_workspace_RZA2M_ANPR/ANPR_RZA2M_RDK/src/tensorflow_lite/src/tensorflow/lite/kernels/internal\types.h ****     int32_t* dims_pointer_;
 322:C:/Renesas/e2studio_2021_01_workspace_RZA2M_ANPR/ANPR_RZA2M_RDK/src/tensorflow_lite/src/tensorflow/lite/kernels/internal\types.h ****   };
 323:C:/Renesas/e2studio_2021_01_workspace_RZA2M_ANPR/ANPR_RZA2M_RDK/src/tensorflow_lite/src/tensorflow/lite/kernels/internal\types.h **** };
 324:C:/Renesas/e2studio_2021_01_workspace_RZA2M_ANPR/ANPR_RZA2M_RDK/src/tensorflow_lite/src/tensorflow/lite/kernels/internal\types.h **** 
 325:C:/Renesas/e2studio_2021_01_workspace_RZA2M_ANPR/ANPR_RZA2M_RDK/src/tensorflow_lite/src/tensorflow/lite/kernels/internal\types.h **** // Converts inference-style shape to legacy tflite::Dims<4>.
 326:C:/Renesas/e2studio_2021_01_workspace_RZA2M_ANPR/ANPR_RZA2M_RDK/src/tensorflow_lite/src/tensorflow/lite/kernels/internal\types.h **** inline tflite::Dims<4> ToRuntimeDims(const tflite::RuntimeShape& array_shape) {
 327:C:/Renesas/e2studio_2021_01_workspace_RZA2M_ANPR/ANPR_RZA2M_RDK/src/tensorflow_lite/src/tensorflow/lite/kernels/internal\types.h ****   tflite::Dims<4> result;
 328:C:/Renesas/e2studio_2021_01_workspace_RZA2M_ANPR/ANPR_RZA2M_RDK/src/tensorflow_lite/src/tensorflow/lite/kernels/internal\types.h ****   const int dimensions_count = array_shape.DimensionsCount();
 329:C:/Renesas/e2studio_2021_01_workspace_RZA2M_ANPR/ANPR_RZA2M_RDK/src/tensorflow_lite/src/tensorflow/lite/kernels/internal\types.h ****   TFLITE_CHECK_LE(dimensions_count, 4);
 330:C:/Renesas/e2studio_2021_01_workspace_RZA2M_ANPR/ANPR_RZA2M_RDK/src/tensorflow_lite/src/tensorflow/lite/kernels/internal\types.h ****   int cum_prod = 1;
 331:C:/Renesas/e2studio_2021_01_workspace_RZA2M_ANPR/ANPR_RZA2M_RDK/src/tensorflow_lite/src/tensorflow/lite/kernels/internal\types.h ****   for (int i = 0; i < 4; i++) {
 332:C:/Renesas/e2studio_2021_01_workspace_RZA2M_ANPR/ANPR_RZA2M_RDK/src/tensorflow_lite/src/tensorflow/lite/kernels/internal\types.h ****     const int new_dim =
 333:C:/Renesas/e2studio_2021_01_workspace_RZA2M_ANPR/ANPR_RZA2M_RDK/src/tensorflow_lite/src/tensorflow/lite/kernels/internal\types.h ****         (i < dimensions_count) ? array_shape.Dims(dimensions_count - 1 - i) : 1;
 334:C:/Renesas/e2studio_2021_01_workspace_RZA2M_ANPR/ANPR_RZA2M_RDK/src/tensorflow_lite/src/tensorflow/lite/kernels/internal\types.h ****     result.sizes[i] = new_dim;
 335:C:/Renesas/e2studio_2021_01_workspace_RZA2M_ANPR/ANPR_RZA2M_RDK/src/tensorflow_lite/src/tensorflow/lite/kernels/internal\types.h ****     result.strides[i] = cum_prod;
 336:C:/Renesas/e2studio_2021_01_workspace_RZA2M_ANPR/ANPR_RZA2M_RDK/src/tensorflow_lite/src/tensorflow/lite/kernels/internal\types.h ****     cum_prod *= new_dim;
 337:C:/Renesas/e2studio_2021_01_workspace_RZA2M_ANPR/ANPR_RZA2M_RDK/src/tensorflow_lite/src/tensorflow/lite/kernels/internal\types.h ****   }
 338:C:/Renesas/e2studio_2021_01_workspace_RZA2M_ANPR/ANPR_RZA2M_RDK/src/tensorflow_lite/src/tensorflow/lite/kernels/internal\types.h ****   return result;
 339:C:/Renesas/e2studio_2021_01_workspace_RZA2M_ANPR/ANPR_RZA2M_RDK/src/tensorflow_lite/src/tensorflow/lite/kernels/internal\types.h **** }
 340:C:/Renesas/e2studio_2021_01_workspace_RZA2M_ANPR/ANPR_RZA2M_RDK/src/tensorflow_lite/src/tensorflow/lite/kernels/internal\types.h **** 
 341:C:/Renesas/e2studio_2021_01_workspace_RZA2M_ANPR/ANPR_RZA2M_RDK/src/tensorflow_lite/src/tensorflow/lite/kernels/internal\types.h **** // TODO(b/80418076): Move to legacy ops file, update invocations.
 342:C:/Renesas/e2studio_2021_01_workspace_RZA2M_ANPR/ANPR_RZA2M_RDK/src/tensorflow_lite/src/tensorflow/lite/kernels/internal\types.h **** inline RuntimeShape DimsToShape(const tflite::Dims<4>& dims) {
 343:C:/Renesas/e2studio_2021_01_workspace_RZA2M_ANPR/ANPR_RZA2M_RDK/src/tensorflow_lite/src/tensorflow/lite/kernels/internal\types.h ****   return RuntimeShape(
 344:C:/Renesas/e2studio_2021_01_workspace_RZA2M_ANPR/ANPR_RZA2M_RDK/src/tensorflow_lite/src/tensorflow/lite/kernels/internal\types.h ****       {dims.sizes[3], dims.sizes[2], dims.sizes[1], dims.sizes[0]});
 345:C:/Renesas/e2studio_2021_01_workspace_RZA2M_ANPR/ANPR_RZA2M_RDK/src/tensorflow_lite/src/tensorflow/lite/kernels/internal\types.h **** }
 346:C:/Renesas/e2studio_2021_01_workspace_RZA2M_ANPR/ANPR_RZA2M_RDK/src/tensorflow_lite/src/tensorflow/lite/kernels/internal\types.h **** 
 347:C:/Renesas/e2studio_2021_01_workspace_RZA2M_ANPR/ANPR_RZA2M_RDK/src/tensorflow_lite/src/tensorflow/lite/kernels/internal\types.h **** // Gets next index to iterate through a multidimensional array.
 348:C:/Renesas/e2studio_2021_01_workspace_RZA2M_ANPR/ANPR_RZA2M_RDK/src/tensorflow_lite/src/tensorflow/lite/kernels/internal\types.h **** inline bool NextIndex(const int num_dims, const int* dims, int* current) {
 349:C:/Renesas/e2studio_2021_01_workspace_RZA2M_ANPR/ANPR_RZA2M_RDK/src/tensorflow_lite/src/tensorflow/lite/kernels/internal\types.h ****   if (num_dims == 0) {
 350:C:/Renesas/e2studio_2021_01_workspace_RZA2M_ANPR/ANPR_RZA2M_RDK/src/tensorflow_lite/src/tensorflow/lite/kernels/internal\types.h ****     return false;
 351:C:/Renesas/e2studio_2021_01_workspace_RZA2M_ANPR/ANPR_RZA2M_RDK/src/tensorflow_lite/src/tensorflow/lite/kernels/internal\types.h ****   }
 352:C:/Renesas/e2studio_2021_01_workspace_RZA2M_ANPR/ANPR_RZA2M_RDK/src/tensorflow_lite/src/tensorflow/lite/kernels/internal\types.h ****   TFLITE_DCHECK(dims != nullptr);
 353:C:/Renesas/e2studio_2021_01_workspace_RZA2M_ANPR/ANPR_RZA2M_RDK/src/tensorflow_lite/src/tensorflow/lite/kernels/internal\types.h ****   TFLITE_DCHECK(current != nullptr);
 354:C:/Renesas/e2studio_2021_01_workspace_RZA2M_ANPR/ANPR_RZA2M_RDK/src/tensorflow_lite/src/tensorflow/lite/kernels/internal\types.h ****   int carry = 1;
 355:C:/Renesas/e2studio_2021_01_workspace_RZA2M_ANPR/ANPR_RZA2M_RDK/src/tensorflow_lite/src/tensorflow/lite/kernels/internal\types.h ****   for (int idx = num_dims - 1; idx >= 0; --idx) {
 356:C:/Renesas/e2studio_2021_01_workspace_RZA2M_ANPR/ANPR_RZA2M_RDK/src/tensorflow_lite/src/tensorflow/lite/kernels/internal\types.h ****     int current_val = current[idx] + carry;
 357:C:/Renesas/e2studio_2021_01_workspace_RZA2M_ANPR/ANPR_RZA2M_RDK/src/tensorflow_lite/src/tensorflow/lite/kernels/internal\types.h ****     TFLITE_DCHECK_GE(dims[idx], current_val);
 358:C:/Renesas/e2studio_2021_01_workspace_RZA2M_ANPR/ANPR_RZA2M_RDK/src/tensorflow_lite/src/tensorflow/lite/kernels/internal\types.h ****     if (dims[idx] == current_val) {
 359:C:/Renesas/e2studio_2021_01_workspace_RZA2M_ANPR/ANPR_RZA2M_RDK/src/tensorflow_lite/src/tensorflow/lite/kernels/internal\types.h ****       current[idx] = 0;
 360:C:/Renesas/e2studio_2021_01_workspace_RZA2M_ANPR/ANPR_RZA2M_RDK/src/tensorflow_lite/src/tensorflow/lite/kernels/internal\types.h ****     } else {
 361:C:/Renesas/e2studio_2021_01_workspace_RZA2M_ANPR/ANPR_RZA2M_RDK/src/tensorflow_lite/src/tensorflow/lite/kernels/internal\types.h ****       current[idx] = current_val;
 362:C:/Renesas/e2studio_2021_01_workspace_RZA2M_ANPR/ANPR_RZA2M_RDK/src/tensorflow_lite/src/tensorflow/lite/kernels/internal\types.h ****       carry = 0;
 363:C:/Renesas/e2studio_2021_01_workspace_RZA2M_ANPR/ANPR_RZA2M_RDK/src/tensorflow_lite/src/tensorflow/lite/kernels/internal\types.h ****       break;
 364:C:/Renesas/e2studio_2021_01_workspace_RZA2M_ANPR/ANPR_RZA2M_RDK/src/tensorflow_lite/src/tensorflow/lite/kernels/internal\types.h ****     }
 365:C:/Renesas/e2studio_2021_01_workspace_RZA2M_ANPR/ANPR_RZA2M_RDK/src/tensorflow_lite/src/tensorflow/lite/kernels/internal\types.h ****   }
 366:C:/Renesas/e2studio_2021_01_workspace_RZA2M_ANPR/ANPR_RZA2M_RDK/src/tensorflow_lite/src/tensorflow/lite/kernels/internal\types.h ****   return (carry == 0);
 367:C:/Renesas/e2studio_2021_01_workspace_RZA2M_ANPR/ANPR_RZA2M_RDK/src/tensorflow_lite/src/tensorflow/lite/kernels/internal\types.h **** }
 368:C:/Renesas/e2studio_2021_01_workspace_RZA2M_ANPR/ANPR_RZA2M_RDK/src/tensorflow_lite/src/tensorflow/lite/kernels/internal\types.h **** 
 369:C:/Renesas/e2studio_2021_01_workspace_RZA2M_ANPR/ANPR_RZA2M_RDK/src/tensorflow_lite/src/tensorflow/lite/kernels/internal\types.h **** // Gets offset of index if reducing on axis. When reducing, the flattened offset
 370:C:/Renesas/e2studio_2021_01_workspace_RZA2M_ANPR/ANPR_RZA2M_RDK/src/tensorflow_lite/src/tensorflow/lite/kernels/internal\types.h **** // will not change, if the input index changes on the given axis. For example,
 371:C:/Renesas/e2studio_2021_01_workspace_RZA2M_ANPR/ANPR_RZA2M_RDK/src/tensorflow_lite/src/tensorflow/lite/kernels/internal\types.h **** // if you have a 3D tensor and you are reducing to 2D by eliminating axis 0,
 372:C:/Renesas/e2studio_2021_01_workspace_RZA2M_ANPR/ANPR_RZA2M_RDK/src/tensorflow_lite/src/tensorflow/lite/kernels/internal\types.h **** // then index (0, 1, 2) and index (1, 1, 2) will map to the same flattened
 373:C:/Renesas/e2studio_2021_01_workspace_RZA2M_ANPR/ANPR_RZA2M_RDK/src/tensorflow_lite/src/tensorflow/lite/kernels/internal\types.h **** // offset.
 374:C:/Renesas/e2studio_2021_01_workspace_RZA2M_ANPR/ANPR_RZA2M_RDK/src/tensorflow_lite/src/tensorflow/lite/kernels/internal\types.h **** // TODO(kanlig): uses Dims to represent dimensions.
 375:C:/Renesas/e2studio_2021_01_workspace_RZA2M_ANPR/ANPR_RZA2M_RDK/src/tensorflow_lite/src/tensorflow/lite/kernels/internal\types.h **** inline size_t ReducedOutputOffset(const int num_dims, const int* dims,
 376:C:/Renesas/e2studio_2021_01_workspace_RZA2M_ANPR/ANPR_RZA2M_RDK/src/tensorflow_lite/src/tensorflow/lite/kernels/internal\types.h ****                                   const int* index, const int num_axis,
 377:C:/Renesas/e2studio_2021_01_workspace_RZA2M_ANPR/ANPR_RZA2M_RDK/src/tensorflow_lite/src/tensorflow/lite/kernels/internal\types.h ****                                   const int* axis) {
 378:C:/Renesas/e2studio_2021_01_workspace_RZA2M_ANPR/ANPR_RZA2M_RDK/src/tensorflow_lite/src/tensorflow/lite/kernels/internal\types.h ****   if (num_dims == 0) {
 379:C:/Renesas/e2studio_2021_01_workspace_RZA2M_ANPR/ANPR_RZA2M_RDK/src/tensorflow_lite/src/tensorflow/lite/kernels/internal\types.h ****     return 0;
 380:C:/Renesas/e2studio_2021_01_workspace_RZA2M_ANPR/ANPR_RZA2M_RDK/src/tensorflow_lite/src/tensorflow/lite/kernels/internal\types.h ****   }
 381:C:/Renesas/e2studio_2021_01_workspace_RZA2M_ANPR/ANPR_RZA2M_RDK/src/tensorflow_lite/src/tensorflow/lite/kernels/internal\types.h ****   TFLITE_DCHECK(dims != nullptr);
 382:C:/Renesas/e2studio_2021_01_workspace_RZA2M_ANPR/ANPR_RZA2M_RDK/src/tensorflow_lite/src/tensorflow/lite/kernels/internal\types.h ****   TFLITE_DCHECK(index != nullptr);
 383:C:/Renesas/e2studio_2021_01_workspace_RZA2M_ANPR/ANPR_RZA2M_RDK/src/tensorflow_lite/src/tensorflow/lite/kernels/internal\types.h ****   size_t offset = 0;
 384:C:/Renesas/e2studio_2021_01_workspace_RZA2M_ANPR/ANPR_RZA2M_RDK/src/tensorflow_lite/src/tensorflow/lite/kernels/internal\types.h ****   for (int idx = 0; idx < num_dims; ++idx) {
 385:C:/Renesas/e2studio_2021_01_workspace_RZA2M_ANPR/ANPR_RZA2M_RDK/src/tensorflow_lite/src/tensorflow/lite/kernels/internal\types.h ****     // if we need to skip this axis
 386:C:/Renesas/e2studio_2021_01_workspace_RZA2M_ANPR/ANPR_RZA2M_RDK/src/tensorflow_lite/src/tensorflow/lite/kernels/internal\types.h ****     bool is_axis = false;
 387:C:/Renesas/e2studio_2021_01_workspace_RZA2M_ANPR/ANPR_RZA2M_RDK/src/tensorflow_lite/src/tensorflow/lite/kernels/internal\types.h ****     if (axis != nullptr) {
 388:C:/Renesas/e2studio_2021_01_workspace_RZA2M_ANPR/ANPR_RZA2M_RDK/src/tensorflow_lite/src/tensorflow/lite/kernels/internal\types.h ****       for (int axis_idx = 0; axis_idx < num_axis; ++axis_idx) {
 389:C:/Renesas/e2studio_2021_01_workspace_RZA2M_ANPR/ANPR_RZA2M_RDK/src/tensorflow_lite/src/tensorflow/lite/kernels/internal\types.h ****         if (idx == axis[axis_idx]) {
 390:C:/Renesas/e2studio_2021_01_workspace_RZA2M_ANPR/ANPR_RZA2M_RDK/src/tensorflow_lite/src/tensorflow/lite/kernels/internal\types.h ****           is_axis = true;
 391:C:/Renesas/e2studio_2021_01_workspace_RZA2M_ANPR/ANPR_RZA2M_RDK/src/tensorflow_lite/src/tensorflow/lite/kernels/internal\types.h ****           break;
 392:C:/Renesas/e2studio_2021_01_workspace_RZA2M_ANPR/ANPR_RZA2M_RDK/src/tensorflow_lite/src/tensorflow/lite/kernels/internal\types.h ****         }
 393:C:/Renesas/e2studio_2021_01_workspace_RZA2M_ANPR/ANPR_RZA2M_RDK/src/tensorflow_lite/src/tensorflow/lite/kernels/internal\types.h ****       }
 394:C:/Renesas/e2studio_2021_01_workspace_RZA2M_ANPR/ANPR_RZA2M_RDK/src/tensorflow_lite/src/tensorflow/lite/kernels/internal\types.h ****     }
 395:C:/Renesas/e2studio_2021_01_workspace_RZA2M_ANPR/ANPR_RZA2M_RDK/src/tensorflow_lite/src/tensorflow/lite/kernels/internal\types.h ****     if (!is_axis) {
 396:C:/Renesas/e2studio_2021_01_workspace_RZA2M_ANPR/ANPR_RZA2M_RDK/src/tensorflow_lite/src/tensorflow/lite/kernels/internal\types.h ****       offset = offset * static_cast<size_t>(dims[idx]) +
 397:C:/Renesas/e2studio_2021_01_workspace_RZA2M_ANPR/ANPR_RZA2M_RDK/src/tensorflow_lite/src/tensorflow/lite/kernels/internal\types.h ****                static_cast<size_t>(index[idx]);
 398:C:/Renesas/e2studio_2021_01_workspace_RZA2M_ANPR/ANPR_RZA2M_RDK/src/tensorflow_lite/src/tensorflow/lite/kernels/internal\types.h ****     }
 399:C:/Renesas/e2studio_2021_01_workspace_RZA2M_ANPR/ANPR_RZA2M_RDK/src/tensorflow_lite/src/tensorflow/lite/kernels/internal\types.h ****   }
 400:C:/Renesas/e2studio_2021_01_workspace_RZA2M_ANPR/ANPR_RZA2M_RDK/src/tensorflow_lite/src/tensorflow/lite/kernels/internal\types.h ****   return offset;
 401:C:/Renesas/e2studio_2021_01_workspace_RZA2M_ANPR/ANPR_RZA2M_RDK/src/tensorflow_lite/src/tensorflow/lite/kernels/internal\types.h **** }
 402:C:/Renesas/e2studio_2021_01_workspace_RZA2M_ANPR/ANPR_RZA2M_RDK/src/tensorflow_lite/src/tensorflow/lite/kernels/internal\types.h **** 
 403:C:/Renesas/e2studio_2021_01_workspace_RZA2M_ANPR/ANPR_RZA2M_RDK/src/tensorflow_lite/src/tensorflow/lite/kernels/internal\types.h **** inline int Offset(const RuntimeShape& shape, int i0, int i1, int i2, int i3) {
 404:C:/Renesas/e2studio_2021_01_workspace_RZA2M_ANPR/ANPR_RZA2M_RDK/src/tensorflow_lite/src/tensorflow/lite/kernels/internal\types.h ****   TFLITE_DCHECK_EQ(shape.DimensionsCount(), 4);
 405:C:/Renesas/e2studio_2021_01_workspace_RZA2M_ANPR/ANPR_RZA2M_RDK/src/tensorflow_lite/src/tensorflow/lite/kernels/internal\types.h ****   const int* dims_data = reinterpret_cast<const int*>(shape.DimsDataUpTo5D());
 406:C:/Renesas/e2studio_2021_01_workspace_RZA2M_ANPR/ANPR_RZA2M_RDK/src/tensorflow_lite/src/tensorflow/lite/kernels/internal\types.h ****   TFLITE_DCHECK(i0 >= 0 && i0 < dims_data[0]);
 407:C:/Renesas/e2studio_2021_01_workspace_RZA2M_ANPR/ANPR_RZA2M_RDK/src/tensorflow_lite/src/tensorflow/lite/kernels/internal\types.h ****   TFLITE_DCHECK(i1 >= 0 && i1 < dims_data[1]);
 408:C:/Renesas/e2studio_2021_01_workspace_RZA2M_ANPR/ANPR_RZA2M_RDK/src/tensorflow_lite/src/tensorflow/lite/kernels/internal\types.h ****   TFLITE_DCHECK(i2 >= 0 && i2 < dims_data[2]);
 409:C:/Renesas/e2studio_2021_01_workspace_RZA2M_ANPR/ANPR_RZA2M_RDK/src/tensorflow_lite/src/tensorflow/lite/kernels/internal\types.h ****   TFLITE_DCHECK(i3 >= 0 && i3 < dims_data[3]);
 410:C:/Renesas/e2studio_2021_01_workspace_RZA2M_ANPR/ANPR_RZA2M_RDK/src/tensorflow_lite/src/tensorflow/lite/kernels/internal\types.h ****   return ((i0 * dims_data[1] + i1) * dims_data[2] + i2) * dims_data[3] + i3;
 411:C:/Renesas/e2studio_2021_01_workspace_RZA2M_ANPR/ANPR_RZA2M_RDK/src/tensorflow_lite/src/tensorflow/lite/kernels/internal\types.h **** }
 412:C:/Renesas/e2studio_2021_01_workspace_RZA2M_ANPR/ANPR_RZA2M_RDK/src/tensorflow_lite/src/tensorflow/lite/kernels/internal\types.h **** 
 413:C:/Renesas/e2studio_2021_01_workspace_RZA2M_ANPR/ANPR_RZA2M_RDK/src/tensorflow_lite/src/tensorflow/lite/kernels/internal\types.h **** inline int Offset(const RuntimeShape& shape, int i0, int i1, int i2, int i3,
 414:C:/Renesas/e2studio_2021_01_workspace_RZA2M_ANPR/ANPR_RZA2M_RDK/src/tensorflow_lite/src/tensorflow/lite/kernels/internal\types.h ****                   int i4) {
 415:C:/Renesas/e2studio_2021_01_workspace_RZA2M_ANPR/ANPR_RZA2M_RDK/src/tensorflow_lite/src/tensorflow/lite/kernels/internal\types.h ****   TFLITE_DCHECK_EQ(shape.DimensionsCount(), 5);
 416:C:/Renesas/e2studio_2021_01_workspace_RZA2M_ANPR/ANPR_RZA2M_RDK/src/tensorflow_lite/src/tensorflow/lite/kernels/internal\types.h ****   const int* dims_data = reinterpret_cast<const int*>(shape.DimsDataUpTo5D());
 417:C:/Renesas/e2studio_2021_01_workspace_RZA2M_ANPR/ANPR_RZA2M_RDK/src/tensorflow_lite/src/tensorflow/lite/kernels/internal\types.h ****   TFLITE_DCHECK(i0 >= 0 && i0 < dims_data[0]);
 418:C:/Renesas/e2studio_2021_01_workspace_RZA2M_ANPR/ANPR_RZA2M_RDK/src/tensorflow_lite/src/tensorflow/lite/kernels/internal\types.h ****   TFLITE_DCHECK(i1 >= 0 && i1 < dims_data[1]);
 419:C:/Renesas/e2studio_2021_01_workspace_RZA2M_ANPR/ANPR_RZA2M_RDK/src/tensorflow_lite/src/tensorflow/lite/kernels/internal\types.h ****   TFLITE_DCHECK(i2 >= 0 && i2 < dims_data[2]);
 420:C:/Renesas/e2studio_2021_01_workspace_RZA2M_ANPR/ANPR_RZA2M_RDK/src/tensorflow_lite/src/tensorflow/lite/kernels/internal\types.h ****   TFLITE_DCHECK(i3 >= 0 && i3 < dims_data[3]);
 421:C:/Renesas/e2studio_2021_01_workspace_RZA2M_ANPR/ANPR_RZA2M_RDK/src/tensorflow_lite/src/tensorflow/lite/kernels/internal\types.h ****   TFLITE_DCHECK(i4 >= 0 && i4 < dims_data[4]);
 422:C:/Renesas/e2studio_2021_01_workspace_RZA2M_ANPR/ANPR_RZA2M_RDK/src/tensorflow_lite/src/tensorflow/lite/kernels/internal\types.h ****   return (((i0 * dims_data[1] + i1) * dims_data[2] + i2) * dims_data[3] + i3) *
 423:C:/Renesas/e2studio_2021_01_workspace_RZA2M_ANPR/ANPR_RZA2M_RDK/src/tensorflow_lite/src/tensorflow/lite/kernels/internal\types.h ****              dims_data[4] +
 424:C:/Renesas/e2studio_2021_01_workspace_RZA2M_ANPR/ANPR_RZA2M_RDK/src/tensorflow_lite/src/tensorflow/lite/kernels/internal\types.h ****          i4;
 425:C:/Renesas/e2studio_2021_01_workspace_RZA2M_ANPR/ANPR_RZA2M_RDK/src/tensorflow_lite/src/tensorflow/lite/kernels/internal\types.h **** }
 426:C:/Renesas/e2studio_2021_01_workspace_RZA2M_ANPR/ANPR_RZA2M_RDK/src/tensorflow_lite/src/tensorflow/lite/kernels/internal\types.h **** 
 427:C:/Renesas/e2studio_2021_01_workspace_RZA2M_ANPR/ANPR_RZA2M_RDK/src/tensorflow_lite/src/tensorflow/lite/kernels/internal\types.h **** inline int Offset(const Dims<4>& dims, int i0, int i1, int i2, int i3) {
 428:C:/Renesas/e2studio_2021_01_workspace_RZA2M_ANPR/ANPR_RZA2M_RDK/src/tensorflow_lite/src/tensorflow/lite/kernels/internal\types.h ****   TFLITE_DCHECK(i0 >= 0 && i0 < dims.sizes[0]);
 429:C:/Renesas/e2studio_2021_01_workspace_RZA2M_ANPR/ANPR_RZA2M_RDK/src/tensorflow_lite/src/tensorflow/lite/kernels/internal\types.h ****   TFLITE_DCHECK(i1 >= 0 && i1 < dims.sizes[1]);
 430:C:/Renesas/e2studio_2021_01_workspace_RZA2M_ANPR/ANPR_RZA2M_RDK/src/tensorflow_lite/src/tensorflow/lite/kernels/internal\types.h ****   TFLITE_DCHECK(i2 >= 0 && i2 < dims.sizes[2]);
 431:C:/Renesas/e2studio_2021_01_workspace_RZA2M_ANPR/ANPR_RZA2M_RDK/src/tensorflow_lite/src/tensorflow/lite/kernels/internal\types.h ****   TFLITE_DCHECK(i3 >= 0 && i3 < dims.sizes[3]);
 432:C:/Renesas/e2studio_2021_01_workspace_RZA2M_ANPR/ANPR_RZA2M_RDK/src/tensorflow_lite/src/tensorflow/lite/kernels/internal\types.h ****   return i0 * dims.strides[0] + i1 * dims.strides[1] + i2 * dims.strides[2] +
 433:C:/Renesas/e2studio_2021_01_workspace_RZA2M_ANPR/ANPR_RZA2M_RDK/src/tensorflow_lite/src/tensorflow/lite/kernels/internal\types.h ****          i3 * dims.strides[3];
 434:C:/Renesas/e2studio_2021_01_workspace_RZA2M_ANPR/ANPR_RZA2M_RDK/src/tensorflow_lite/src/tensorflow/lite/kernels/internal\types.h **** }
 435:C:/Renesas/e2studio_2021_01_workspace_RZA2M_ANPR/ANPR_RZA2M_RDK/src/tensorflow_lite/src/tensorflow/lite/kernels/internal\types.h **** 
 436:C:/Renesas/e2studio_2021_01_workspace_RZA2M_ANPR/ANPR_RZA2M_RDK/src/tensorflow_lite/src/tensorflow/lite/kernels/internal\types.h **** inline int Offset(const Dims<4>& dims, int* index) {
 437:C:/Renesas/e2studio_2021_01_workspace_RZA2M_ANPR/ANPR_RZA2M_RDK/src/tensorflow_lite/src/tensorflow/lite/kernels/internal\types.h ****   return Offset(dims, index[0], index[1], index[2], index[3]);
 438:C:/Renesas/e2studio_2021_01_workspace_RZA2M_ANPR/ANPR_RZA2M_RDK/src/tensorflow_lite/src/tensorflow/lite/kernels/internal\types.h **** }
 439:C:/Renesas/e2studio_2021_01_workspace_RZA2M_ANPR/ANPR_RZA2M_RDK/src/tensorflow_lite/src/tensorflow/lite/kernels/internal\types.h **** 
 440:C:/Renesas/e2studio_2021_01_workspace_RZA2M_ANPR/ANPR_RZA2M_RDK/src/tensorflow_lite/src/tensorflow/lite/kernels/internal\types.h **** inline int Offset(const RuntimeShape& shape, int* index) {
 441:C:/Renesas/e2studio_2021_01_workspace_RZA2M_ANPR/ANPR_RZA2M_RDK/src/tensorflow_lite/src/tensorflow/lite/kernels/internal\types.h ****   return Offset(shape, index[0], index[1], index[2], index[3]);
 442:C:/Renesas/e2studio_2021_01_workspace_RZA2M_ANPR/ANPR_RZA2M_RDK/src/tensorflow_lite/src/tensorflow/lite/kernels/internal\types.h **** }
 443:C:/Renesas/e2studio_2021_01_workspace_RZA2M_ANPR/ANPR_RZA2M_RDK/src/tensorflow_lite/src/tensorflow/lite/kernels/internal\types.h **** 
 444:C:/Renesas/e2studio_2021_01_workspace_RZA2M_ANPR/ANPR_RZA2M_RDK/src/tensorflow_lite/src/tensorflow/lite/kernels/internal\types.h **** // Get array size, DCHECKing that the dim index is in range.
 445:C:/Renesas/e2studio_2021_01_workspace_RZA2M_ANPR/ANPR_RZA2M_RDK/src/tensorflow_lite/src/tensorflow/lite/kernels/internal\types.h **** //
 446:C:/Renesas/e2studio_2021_01_workspace_RZA2M_ANPR/ANPR_RZA2M_RDK/src/tensorflow_lite/src/tensorflow/lite/kernels/internal\types.h **** // Note that this will be phased out with Dims<4>, since RuntimeShape::Dims()
 447:C:/Renesas/e2studio_2021_01_workspace_RZA2M_ANPR/ANPR_RZA2M_RDK/src/tensorflow_lite/src/tensorflow/lite/kernels/internal\types.h **** // already performs this check.
 448:C:/Renesas/e2studio_2021_01_workspace_RZA2M_ANPR/ANPR_RZA2M_RDK/src/tensorflow_lite/src/tensorflow/lite/kernels/internal\types.h **** template <int N>
 449:C:/Renesas/e2studio_2021_01_workspace_RZA2M_ANPR/ANPR_RZA2M_RDK/src/tensorflow_lite/src/tensorflow/lite/kernels/internal\types.h **** int ArraySize(const Dims<N>& array, int index) {
 450:C:/Renesas/e2studio_2021_01_workspace_RZA2M_ANPR/ANPR_RZA2M_RDK/src/tensorflow_lite/src/tensorflow/lite/kernels/internal\types.h ****   TFLITE_DCHECK(index >= 0 && index < N);
 451:C:/Renesas/e2studio_2021_01_workspace_RZA2M_ANPR/ANPR_RZA2M_RDK/src/tensorflow_lite/src/tensorflow/lite/kernels/internal\types.h ****   return array.sizes[index];
 452:C:/Renesas/e2studio_2021_01_workspace_RZA2M_ANPR/ANPR_RZA2M_RDK/src/tensorflow_lite/src/tensorflow/lite/kernels/internal\types.h **** }
 453:C:/Renesas/e2studio_2021_01_workspace_RZA2M_ANPR/ANPR_RZA2M_RDK/src/tensorflow_lite/src/tensorflow/lite/kernels/internal\types.h **** 
 454:C:/Renesas/e2studio_2021_01_workspace_RZA2M_ANPR/ANPR_RZA2M_RDK/src/tensorflow_lite/src/tensorflow/lite/kernels/internal\types.h **** // Get common array size, DCHECKing that they all agree.
 455:C:/Renesas/e2studio_2021_01_workspace_RZA2M_ANPR/ANPR_RZA2M_RDK/src/tensorflow_lite/src/tensorflow/lite/kernels/internal\types.h **** template <typename ArrayType1, typename ArrayType2>
 456:C:/Renesas/e2studio_2021_01_workspace_RZA2M_ANPR/ANPR_RZA2M_RDK/src/tensorflow_lite/src/tensorflow/lite/kernels/internal\types.h **** int MatchingArraySize(const ArrayType1& array1, int index1,
 457:C:/Renesas/e2studio_2021_01_workspace_RZA2M_ANPR/ANPR_RZA2M_RDK/src/tensorflow_lite/src/tensorflow/lite/kernels/internal\types.h ****                       const ArrayType2& array2, int index2) {
 458:C:/Renesas/e2studio_2021_01_workspace_RZA2M_ANPR/ANPR_RZA2M_RDK/src/tensorflow_lite/src/tensorflow/lite/kernels/internal\types.h ****   TFLITE_DCHECK_EQ(ArraySize(array1, index1), ArraySize(array2, index2));
 459:C:/Renesas/e2studio_2021_01_workspace_RZA2M_ANPR/ANPR_RZA2M_RDK/src/tensorflow_lite/src/tensorflow/lite/kernels/internal\types.h ****   return ArraySize(array1, index1);
 460:C:/Renesas/e2studio_2021_01_workspace_RZA2M_ANPR/ANPR_RZA2M_RDK/src/tensorflow_lite/src/tensorflow/lite/kernels/internal\types.h **** }
 461:C:/Renesas/e2studio_2021_01_workspace_RZA2M_ANPR/ANPR_RZA2M_RDK/src/tensorflow_lite/src/tensorflow/lite/kernels/internal\types.h **** 
 462:C:/Renesas/e2studio_2021_01_workspace_RZA2M_ANPR/ANPR_RZA2M_RDK/src/tensorflow_lite/src/tensorflow/lite/kernels/internal\types.h **** template <typename ArrayType1, typename ArrayType2, typename... Args>
 463:C:/Renesas/e2studio_2021_01_workspace_RZA2M_ANPR/ANPR_RZA2M_RDK/src/tensorflow_lite/src/tensorflow/lite/kernels/internal\types.h **** int MatchingArraySize(const ArrayType1& array1, int index1,
 464:C:/Renesas/e2studio_2021_01_workspace_RZA2M_ANPR/ANPR_RZA2M_RDK/src/tensorflow_lite/src/tensorflow/lite/kernels/internal\types.h ****                       const ArrayType2& array2, int index2, Args... args) {
 465:C:/Renesas/e2studio_2021_01_workspace_RZA2M_ANPR/ANPR_RZA2M_RDK/src/tensorflow_lite/src/tensorflow/lite/kernels/internal\types.h ****   TFLITE_DCHECK_EQ(ArraySize(array1, index1), ArraySize(array2, index2));
 466:C:/Renesas/e2studio_2021_01_workspace_RZA2M_ANPR/ANPR_RZA2M_RDK/src/tensorflow_lite/src/tensorflow/lite/kernels/internal\types.h ****   return MatchingArraySize(array1, index1, args...);
 467:C:/Renesas/e2studio_2021_01_workspace_RZA2M_ANPR/ANPR_RZA2M_RDK/src/tensorflow_lite/src/tensorflow/lite/kernels/internal\types.h **** }
 468:C:/Renesas/e2studio_2021_01_workspace_RZA2M_ANPR/ANPR_RZA2M_RDK/src/tensorflow_lite/src/tensorflow/lite/kernels/internal\types.h **** 
 469:C:/Renesas/e2studio_2021_01_workspace_RZA2M_ANPR/ANPR_RZA2M_RDK/src/tensorflow_lite/src/tensorflow/lite/kernels/internal\types.h **** // Get common shape dim, DCHECKing that they all agree.
 470:C:/Renesas/e2studio_2021_01_workspace_RZA2M_ANPR/ANPR_RZA2M_RDK/src/tensorflow_lite/src/tensorflow/lite/kernels/internal\types.h **** inline int MatchingDim(const RuntimeShape& shape1, int index1,
 471:C:/Renesas/e2studio_2021_01_workspace_RZA2M_ANPR/ANPR_RZA2M_RDK/src/tensorflow_lite/src/tensorflow/lite/kernels/internal\types.h ****                        const RuntimeShape& shape2, int index2) {
 472:C:/Renesas/e2studio_2021_01_workspace_RZA2M_ANPR/ANPR_RZA2M_RDK/src/tensorflow_lite/src/tensorflow/lite/kernels/internal\types.h ****   TFLITE_DCHECK_EQ(shape1.Dims(index1), shape2.Dims(index2));
 473:C:/Renesas/e2studio_2021_01_workspace_RZA2M_ANPR/ANPR_RZA2M_RDK/src/tensorflow_lite/src/tensorflow/lite/kernels/internal\types.h ****   return std::min(shape1.Dims(index1), shape2.Dims(index2));
 474:C:/Renesas/e2studio_2021_01_workspace_RZA2M_ANPR/ANPR_RZA2M_RDK/src/tensorflow_lite/src/tensorflow/lite/kernels/internal\types.h **** }
 475:C:/Renesas/e2studio_2021_01_workspace_RZA2M_ANPR/ANPR_RZA2M_RDK/src/tensorflow_lite/src/tensorflow/lite/kernels/internal\types.h **** 
 476:C:/Renesas/e2studio_2021_01_workspace_RZA2M_ANPR/ANPR_RZA2M_RDK/src/tensorflow_lite/src/tensorflow/lite/kernels/internal\types.h **** template <typename... Args>
 477:C:/Renesas/e2studio_2021_01_workspace_RZA2M_ANPR/ANPR_RZA2M_RDK/src/tensorflow_lite/src/tensorflow/lite/kernels/internal\types.h **** int MatchingDim(const RuntimeShape& shape1, int index1,
 478:C:/Renesas/e2studio_2021_01_workspace_RZA2M_ANPR/ANPR_RZA2M_RDK/src/tensorflow_lite/src/tensorflow/lite/kernels/internal\types.h ****                 const RuntimeShape& shape2, int index2, Args... args) {
 479:C:/Renesas/e2studio_2021_01_workspace_RZA2M_ANPR/ANPR_RZA2M_RDK/src/tensorflow_lite/src/tensorflow/lite/kernels/internal\types.h ****   TFLITE_DCHECK_EQ(shape1.Dims(index1), shape2.Dims(index2));
 480:C:/Renesas/e2studio_2021_01_workspace_RZA2M_ANPR/ANPR_RZA2M_RDK/src/tensorflow_lite/src/tensorflow/lite/kernels/internal\types.h ****   return MatchingDim(shape1, index1, args...);
 481:C:/Renesas/e2studio_2021_01_workspace_RZA2M_ANPR/ANPR_RZA2M_RDK/src/tensorflow_lite/src/tensorflow/lite/kernels/internal\types.h **** }
 482:C:/Renesas/e2studio_2021_01_workspace_RZA2M_ANPR/ANPR_RZA2M_RDK/src/tensorflow_lite/src/tensorflow/lite/kernels/internal\types.h **** 
 483:C:/Renesas/e2studio_2021_01_workspace_RZA2M_ANPR/ANPR_RZA2M_RDK/src/tensorflow_lite/src/tensorflow/lite/kernels/internal\types.h **** // Will be phased out with Dims<4>, replaced by RuntimeShape::FlatSize().
 484:C:/Renesas/e2studio_2021_01_workspace_RZA2M_ANPR/ANPR_RZA2M_RDK/src/tensorflow_lite/src/tensorflow/lite/kernels/internal\types.h **** template <int N>
 485:C:/Renesas/e2studio_2021_01_workspace_RZA2M_ANPR/ANPR_RZA2M_RDK/src/tensorflow_lite/src/tensorflow/lite/kernels/internal\types.h **** inline int FlatSize(const Dims<N>& dims) {
 486:C:/Renesas/e2studio_2021_01_workspace_RZA2M_ANPR/ANPR_RZA2M_RDK/src/tensorflow_lite/src/tensorflow/lite/kernels/internal\types.h ****   int flat_size = 1;
 487:C:/Renesas/e2studio_2021_01_workspace_RZA2M_ANPR/ANPR_RZA2M_RDK/src/tensorflow_lite/src/tensorflow/lite/kernels/internal\types.h ****   for (int i = 0; i < N; ++i) {
 488:C:/Renesas/e2studio_2021_01_workspace_RZA2M_ANPR/ANPR_RZA2M_RDK/src/tensorflow_lite/src/tensorflow/lite/kernels/internal\types.h ****     flat_size *= dims.sizes[i];
 489:C:/Renesas/e2studio_2021_01_workspace_RZA2M_ANPR/ANPR_RZA2M_RDK/src/tensorflow_lite/src/tensorflow/lite/kernels/internal\types.h ****   }
 490:C:/Renesas/e2studio_2021_01_workspace_RZA2M_ANPR/ANPR_RZA2M_RDK/src/tensorflow_lite/src/tensorflow/lite/kernels/internal\types.h ****   return flat_size;
 491:C:/Renesas/e2studio_2021_01_workspace_RZA2M_ANPR/ANPR_RZA2M_RDK/src/tensorflow_lite/src/tensorflow/lite/kernels/internal\types.h **** }
 492:C:/Renesas/e2studio_2021_01_workspace_RZA2M_ANPR/ANPR_RZA2M_RDK/src/tensorflow_lite/src/tensorflow/lite/kernels/internal\types.h **** 
 493:C:/Renesas/e2studio_2021_01_workspace_RZA2M_ANPR/ANPR_RZA2M_RDK/src/tensorflow_lite/src/tensorflow/lite/kernels/internal\types.h **** TFLITE_DEPRECATED("Prefer FlatSize.")
 494:C:/Renesas/e2studio_2021_01_workspace_RZA2M_ANPR/ANPR_RZA2M_RDK/src/tensorflow_lite/src/tensorflow/lite/kernels/internal\types.h **** inline int RequiredBufferSizeForDims(const Dims<4>& dims) {
 495:C:/Renesas/e2studio_2021_01_workspace_RZA2M_ANPR/ANPR_RZA2M_RDK/src/tensorflow_lite/src/tensorflow/lite/kernels/internal\types.h ****   return FlatSize(dims);
 496:C:/Renesas/e2studio_2021_01_workspace_RZA2M_ANPR/ANPR_RZA2M_RDK/src/tensorflow_lite/src/tensorflow/lite/kernels/internal\types.h **** }
 497:C:/Renesas/e2studio_2021_01_workspace_RZA2M_ANPR/ANPR_RZA2M_RDK/src/tensorflow_lite/src/tensorflow/lite/kernels/internal\types.h **** 
 498:C:/Renesas/e2studio_2021_01_workspace_RZA2M_ANPR/ANPR_RZA2M_RDK/src/tensorflow_lite/src/tensorflow/lite/kernels/internal\types.h **** inline int MatchingElementsSize(const RuntimeShape& shape,
 499:C:/Renesas/e2studio_2021_01_workspace_RZA2M_ANPR/ANPR_RZA2M_RDK/src/tensorflow_lite/src/tensorflow/lite/kernels/internal\types.h ****                                 const RuntimeShape& check_shape_0) {
 500:C:/Renesas/e2studio_2021_01_workspace_RZA2M_ANPR/ANPR_RZA2M_RDK/src/tensorflow_lite/src/tensorflow/lite/kernels/internal\types.h ****   const int size_1 = shape.FlatSize();
 501:C:/Renesas/e2studio_2021_01_workspace_RZA2M_ANPR/ANPR_RZA2M_RDK/src/tensorflow_lite/src/tensorflow/lite/kernels/internal\types.h ****   const int size_2 = check_shape_0.FlatSize();
 502:C:/Renesas/e2studio_2021_01_workspace_RZA2M_ANPR/ANPR_RZA2M_RDK/src/tensorflow_lite/src/tensorflow/lite/kernels/internal\types.h ****   TFLITE_CHECK_EQ(size_1, size_2);
 503:C:/Renesas/e2studio_2021_01_workspace_RZA2M_ANPR/ANPR_RZA2M_RDK/src/tensorflow_lite/src/tensorflow/lite/kernels/internal\types.h ****   return size_1;
 504:C:/Renesas/e2studio_2021_01_workspace_RZA2M_ANPR/ANPR_RZA2M_RDK/src/tensorflow_lite/src/tensorflow/lite/kernels/internal\types.h **** }
 505:C:/Renesas/e2studio_2021_01_workspace_RZA2M_ANPR/ANPR_RZA2M_RDK/src/tensorflow_lite/src/tensorflow/lite/kernels/internal\types.h **** 
 506:C:/Renesas/e2studio_2021_01_workspace_RZA2M_ANPR/ANPR_RZA2M_RDK/src/tensorflow_lite/src/tensorflow/lite/kernels/internal\types.h **** inline int MatchingElementsSize(const RuntimeShape& shape,
 507:C:/Renesas/e2studio_2021_01_workspace_RZA2M_ANPR/ANPR_RZA2M_RDK/src/tensorflow_lite/src/tensorflow/lite/kernels/internal\types.h ****                                 const RuntimeShape& check_shape_0,
 508:C:/Renesas/e2studio_2021_01_workspace_RZA2M_ANPR/ANPR_RZA2M_RDK/src/tensorflow_lite/src/tensorflow/lite/kernels/internal\types.h ****                                 const RuntimeShape& check_shape_1) {
 509:C:/Renesas/e2studio_2021_01_workspace_RZA2M_ANPR/ANPR_RZA2M_RDK/src/tensorflow_lite/src/tensorflow/lite/kernels/internal\types.h ****   const int size_1 = shape.FlatSize();
 510:C:/Renesas/e2studio_2021_01_workspace_RZA2M_ANPR/ANPR_RZA2M_RDK/src/tensorflow_lite/src/tensorflow/lite/kernels/internal\types.h ****   const int size_2 = check_shape_0.FlatSize();
 511:C:/Renesas/e2studio_2021_01_workspace_RZA2M_ANPR/ANPR_RZA2M_RDK/src/tensorflow_lite/src/tensorflow/lite/kernels/internal\types.h ****   const int size_3 = check_shape_1.FlatSize();
 512:C:/Renesas/e2studio_2021_01_workspace_RZA2M_ANPR/ANPR_RZA2M_RDK/src/tensorflow_lite/src/tensorflow/lite/kernels/internal\types.h ****   TFLITE_CHECK_EQ(size_1, size_2);
 513:C:/Renesas/e2studio_2021_01_workspace_RZA2M_ANPR/ANPR_RZA2M_RDK/src/tensorflow_lite/src/tensorflow/lite/kernels/internal\types.h ****   TFLITE_CHECK_EQ(size_2, size_3);
 514:C:/Renesas/e2studio_2021_01_workspace_RZA2M_ANPR/ANPR_RZA2M_RDK/src/tensorflow_lite/src/tensorflow/lite/kernels/internal\types.h ****   return size_1;
 515:C:/Renesas/e2studio_2021_01_workspace_RZA2M_ANPR/ANPR_RZA2M_RDK/src/tensorflow_lite/src/tensorflow/lite/kernels/internal\types.h **** }
 516:C:/Renesas/e2studio_2021_01_workspace_RZA2M_ANPR/ANPR_RZA2M_RDK/src/tensorflow_lite/src/tensorflow/lite/kernels/internal\types.h **** 
 517:C:/Renesas/e2studio_2021_01_workspace_RZA2M_ANPR/ANPR_RZA2M_RDK/src/tensorflow_lite/src/tensorflow/lite/kernels/internal\types.h **** // Flat size calculation, checking that dimensions match with one or more other
 518:C:/Renesas/e2studio_2021_01_workspace_RZA2M_ANPR/ANPR_RZA2M_RDK/src/tensorflow_lite/src/tensorflow/lite/kernels/internal\types.h **** // arrays.
 519:C:/Renesas/e2studio_2021_01_workspace_RZA2M_ANPR/ANPR_RZA2M_RDK/src/tensorflow_lite/src/tensorflow/lite/kernels/internal\types.h **** inline int MatchingFlatSize(const RuntimeShape& shape,
 520:C:/Renesas/e2studio_2021_01_workspace_RZA2M_ANPR/ANPR_RZA2M_RDK/src/tensorflow_lite/src/tensorflow/lite/kernels/internal\types.h ****                             const RuntimeShape& check_shape_0) {
 521:C:/Renesas/e2studio_2021_01_workspace_RZA2M_ANPR/ANPR_RZA2M_RDK/src/tensorflow_lite/src/tensorflow/lite/kernels/internal\types.h ****   TFLITE_DCHECK_EQ(shape.DimensionsCount(), check_shape_0.DimensionsCount());
 5181              		.loc 7 521 0
 5182 00c8 060053E1 		cmp	r3, r6
 5183 00cc 2D04001A 		bne	.L278
 5184              	.LVL358:
 5185              	.LBB5129:
 522:C:/Renesas/e2studio_2021_01_workspace_RZA2M_ANPR/ANPR_RZA2M_RDK/src/tensorflow_lite/src/tensorflow/lite/kernels/internal\types.h ****   const int dims_count = shape.DimensionsCount();
 523:C:/Renesas/e2studio_2021_01_workspace_RZA2M_ANPR/ANPR_RZA2M_RDK/src/tensorflow_lite/src/tensorflow/lite/kernels/internal\types.h ****   for (int i = 0; i < dims_count; ++i) {
 5186              		.loc 7 523 0
 5187 00d0 000053E3 		cmp	r3, #0
 5188 00d4 CE0300DA 		ble	.L389
 5189 00d8 050053E3 		cmp	r3, #5
 5190              	.LBB5130:
 5191              	.LBB5131:
 216:C:/Renesas/e2studio_2021_01_workspace_RZA2M_ANPR/ANPR_RZA2M_RDK/src/tensorflow_lite/src/tensorflow/lite/kernels/internal\types.h ****   }
 5192              		.loc 7 216 0
 5193 00dc 24109DE5 		ldr	r1, [sp, #36]
 5194              	.LBE5131:
 5195              	.LBE5130:
 5196              	.LBB5137:
 5197              	.LBB5138:
 5198 00e0 3C009DE5 		ldr	r0, [sp, #60]
 5199 00e4 BC0300CA 		bgt	.L281
 5200              	.LVL359:
 215:C:/Renesas/e2studio_2021_01_workspace_RZA2M_ANPR/ANPR_RZA2M_RDK/src/tensorflow_lite/src/tensorflow/lite/kernels/internal\types.h ****     return size_ > kMaxSmallSize ? dims_pointer_[i] : dims_[i];
 5201              		.loc 7 215 0
 5202 00e8 000053E3 		cmp	r3, #0
 5203 00ec 060400DA 		ble	.L282
 5204              	.LVL360:
 5205              	.LBE5138:
 5206              	.LBE5137:
 524:C:/Renesas/e2studio_2021_01_workspace_RZA2M_ANPR/ANPR_RZA2M_RDK/src/tensorflow_lite/src/tensorflow/lite/kernels/internal\types.h ****     TFLITE_DCHECK_EQ(shape.Dims(i), check_shape_0.Dims(i));
 5207              		.loc 7 524 0
 5208 00f0 000051E1 		cmp	r1, r0
 5209 00f4 0204001A 		bne	.L283
 5210              	.LVL361:
 523:C:/Renesas/e2studio_2021_01_workspace_RZA2M_ANPR/ANPR_RZA2M_RDK/src/tensorflow_lite/src/tensorflow/lite/kernels/internal\types.h ****     TFLITE_DCHECK_EQ(shape.Dims(i), check_shape_0.Dims(i));
 5211              		.loc 7 523 0
 5212 00f8 010053E3 		cmp	r3, #1
 5213 00fc 1900000A 		beq	.L388
 5214              	.LVL362:
 5215              	.LBB5146:
 5216              	.LBB5132:
 216:C:/Renesas/e2studio_2021_01_workspace_RZA2M_ANPR/ANPR_RZA2M_RDK/src/tensorflow_lite/src/tensorflow/lite/kernels/internal\types.h ****   }
 5217              		.loc 7 216 0
 5218 0100 28109DE5 		ldr	r1, [sp, #40]
 5219              	.LVL363:
 5220              	.LBE5132:
 5221              	.LBE5146:
 5222              		.loc 7 524 0
 5223 0104 40209DE5 		ldr	r2, [sp, #64]
 5224 0108 020051E1 		cmp	r1, r2
 5225 010c FC03001A 		bne	.L283
 5226              	.LVL364:
 523:C:/Renesas/e2studio_2021_01_workspace_RZA2M_ANPR/ANPR_RZA2M_RDK/src/tensorflow_lite/src/tensorflow/lite/kernels/internal\types.h ****     TFLITE_DCHECK_EQ(shape.Dims(i), check_shape_0.Dims(i));
 5227              		.loc 7 523 0
 5228 0110 020053E3 		cmp	r3, #2
 5229 0114 1300000A 		beq	.L388
 5230              	.LVL365:
 5231              	.LBB5147:
 5232              	.LBB5133:
 216:C:/Renesas/e2studio_2021_01_workspace_RZA2M_ANPR/ANPR_RZA2M_RDK/src/tensorflow_lite/src/tensorflow/lite/kernels/internal\types.h ****   }
 5233              		.loc 7 216 0
 5234 0118 2C109DE5 		ldr	r1, [sp, #44]
 5235              	.LVL366:
 5236              	.LBE5133:
 5237              	.LBE5147:
 5238              		.loc 7 524 0
 5239 011c 44209DE5 		ldr	r2, [sp, #68]
 5240 0120 020051E1 		cmp	r1, r2
 5241 0124 F603001A 		bne	.L283
 5242              	.LVL367:
 523:C:/Renesas/e2studio_2021_01_workspace_RZA2M_ANPR/ANPR_RZA2M_RDK/src/tensorflow_lite/src/tensorflow/lite/kernels/internal\types.h ****     TFLITE_DCHECK_EQ(shape.Dims(i), check_shape_0.Dims(i));
 5243              		.loc 7 523 0
 5244 0128 030053E3 		cmp	r3, #3
 5245 012c 0D00000A 		beq	.L388
 5246              	.LVL368:
 5247              	.LBB5148:
 5248              	.LBB5139:
 215:C:/Renesas/e2studio_2021_01_workspace_RZA2M_ANPR/ANPR_RZA2M_RDK/src/tensorflow_lite/src/tensorflow/lite/kernels/internal\types.h ****     return size_ > kMaxSmallSize ? dims_pointer_[i] : dims_[i];
 5249              		.loc 7 215 0
 5250 0130 030056E3 		cmp	r6, #3
 5251              	.LBE5139:
 5252              	.LBE5148:
 5253              	.LBB5149:
 5254              	.LBB5134:
 216:C:/Renesas/e2studio_2021_01_workspace_RZA2M_ANPR/ANPR_RZA2M_RDK/src/tensorflow_lite/src/tensorflow/lite/kernels/internal\types.h ****   }
 5255              		.loc 7 216 0
 5256 0134 30109DE5 		ldr	r1, [sp, #48]
 5257              	.LVL369:
 5258              	.LBE5134:
 5259              	.LBE5149:
 5260              	.LBB5150:
 5261              	.LBB5140:
 215:C:/Renesas/e2studio_2021_01_workspace_RZA2M_ANPR/ANPR_RZA2M_RDK/src/tensorflow_lite/src/tensorflow/lite/kernels/internal\types.h ****     return size_ > kMaxSmallSize ? dims_pointer_[i] : dims_[i];
 5262              		.loc 7 215 0
 5263 0138 F303000A 		beq	.L282
 5264              	.LVL370:
 5265              	.LBE5140:
 5266              	.LBE5150:
 5267              		.loc 7 524 0
 5268 013c 48209DE5 		ldr	r2, [sp, #72]
 5269 0140 020051E1 		cmp	r1, r2
 5270 0144 EE03001A 		bne	.L283
 5271              	.LVL371:
 523:C:/Renesas/e2studio_2021_01_workspace_RZA2M_ANPR/ANPR_RZA2M_RDK/src/tensorflow_lite/src/tensorflow/lite/kernels/internal\types.h ****     TFLITE_DCHECK_EQ(shape.Dims(i), check_shape_0.Dims(i));
 5272              		.loc 7 523 0
 5273 0148 040053E3 		cmp	r3, #4
 5274 014c 0500000A 		beq	.L388
 5275              	.LVL372:
 5276              	.LBB5151:
 5277              	.LBB5141:
 215:C:/Renesas/e2studio_2021_01_workspace_RZA2M_ANPR/ANPR_RZA2M_RDK/src/tensorflow_lite/src/tensorflow/lite/kernels/internal\types.h ****     return size_ > kMaxSmallSize ? dims_pointer_[i] : dims_[i];
 5278              		.loc 7 215 0
 5279 0150 040056E3 		cmp	r6, #4
 5280              	.LBE5141:
 5281              	.LBE5151:
 5282              	.LBB5152:
 5283              	.LBB5135:
 216:C:/Renesas/e2studio_2021_01_workspace_RZA2M_ANPR/ANPR_RZA2M_RDK/src/tensorflow_lite/src/tensorflow/lite/kernels/internal\types.h ****   }
 5284              		.loc 7 216 0
 5285 0154 34209DE5 		ldr	r2, [sp, #52]
 5286              	.LVL373:
 5287              	.LBE5135:
 5288              	.LBE5152:
 5289              	.LBB5153:
 5290              	.LBB5142:
 215:C:/Renesas/e2studio_2021_01_workspace_RZA2M_ANPR/ANPR_RZA2M_RDK/src/tensorflow_lite/src/tensorflow/lite/kernels/internal\types.h ****     return size_ > kMaxSmallSize ? dims_pointer_[i] : dims_[i];
 5291              		.loc 7 215 0
 5292 0158 EB03000A 		beq	.L282
 5293              	.LVL374:
 5294              	.LBE5142:
 5295              	.LBE5153:
 5296              		.loc 7 524 0
 5297 015c 4C109DE5 		ldr	r1, [sp, #76]
 5298 0160 020051E1 		cmp	r1, r2
 5299 0164 E603001A 		bne	.L283
 5300              	.LVL375:
 5301              	.L388:
 5302              	.LBE5129:
 5303              	.LBB5158:
 5304              	.LBB5159:
 5305              	.LBB5160:
 5306              	.LBB5161:
 232:C:/Renesas/e2studio_2021_01_workspace_RZA2M_ANPR/ANPR_RZA2M_RDK/src/tensorflow_lite/src/tensorflow/lite/kernels/internal\types.h ****   }
 5307              		.loc 7 232 0
 5308 0168 24108DE2 		add	r1, sp, #36
 5309              	.L284:
 5310              	.LVL376:
 5311 016c 5121A0E7 		sbfx	r2, r1, #2, #1
 5312 0170 032002E2 		and	r2, r2, #3
 5313 0174 030052E1 		cmp	r2, r3
 5314 0178 0320A021 		movcs	r2, r3
 5315 017c 080053E3 		cmp	r3, #8
 5316 0180 0320A091 		movls	r2, r3
 5317 0184 000052E3 		cmp	r2, #0
 5318 0188 B603000A 		beq	.L390
 5319 018c 010052E3 		cmp	r2, #1
 5320              	.LBE5161:
 5321              	.LBE5160:
 5322              	.LBB5162:
 293:C:/Renesas/e2studio_2021_01_workspace_RZA2M_ANPR/ANPR_RZA2M_RDK/src/tensorflow_lite/src/tensorflow/lite/kernels/internal\types.h ****     }
 5323              		.loc 7 293 0
 5324 0190 006091E5 		ldr	r6, [r1]
 5325              	.LVL377:
 5326 0194 4003000A 		beq	.L397
 5327 0198 040091E5 		ldr	r0, [r1, #4]
 5328 019c 020052E3 		cmp	r2, #2
 5329 01a0 900606E0 		mul	r6, r0, r6
 5330              	.LVL378:
 5331 01a4 3C03000A 		beq	.L397
 5332 01a8 080091E5 		ldr	r0, [r1, #8]
 5333 01ac 030052E3 		cmp	r2, #3
 5334 01b0 900606E0 		mul	r6, r0, r6
 5335              	.LVL379:
 5336 01b4 3803000A 		beq	.L397
 5337 01b8 0C0091E5 		ldr	r0, [r1, #12]
 5338 01bc 040052E3 		cmp	r2, #4
 5339 01c0 900606E0 		mul	r6, r0, r6
 5340              	.LVL380:
 5341 01c4 3403000A 		beq	.L397
 5342 01c8 100091E5 		ldr	r0, [r1, #16]
 5343 01cc 050052E3 		cmp	r2, #5
 5344 01d0 900606E0 		mul	r6, r0, r6
 5345              	.LVL381:
 5346 01d4 3003000A 		beq	.L397
 5347 01d8 140091E5 		ldr	r0, [r1, #20]
 5348 01dc 060052E3 		cmp	r2, #6
 5349 01e0 900606E0 		mul	r6, r0, r6
 5350              	.LVL382:
 5351 01e4 2C03000A 		beq	.L397
 5352 01e8 180091E5 		ldr	r0, [r1, #24]
 5353 01ec 070052E3 		cmp	r2, #7
 5354 01f0 900606E0 		mul	r6, r0, r6
 5355              	.LVL383:
 5356 01f4 2803000A 		beq	.L397
 5357 01f8 1CC091E5 		ldr	ip, [r1, #28]
 292:C:/Renesas/e2studio_2021_01_workspace_RZA2M_ANPR/ANPR_RZA2M_RDK/src/tensorflow_lite/src/tensorflow/lite/kernels/internal\types.h ****       buffer_size *= dims_data[i];
 5358              		.loc 7 292 0
 5359 01fc 0800A0E3 		mov	r0, #8
 293:C:/Renesas/e2studio_2021_01_workspace_RZA2M_ANPR/ANPR_RZA2M_RDK/src/tensorflow_lite/src/tensorflow/lite/kernels/internal\types.h ****     }
 5360              		.loc 7 293 0
 5361 0200 9C0606E0 		mul	r6, ip, r6
 5362              	.LVL384:
 5363              	.L291:
 5364 0204 030052E1 		cmp	r2, r3
 5365 0208 2800000A 		beq	.L292
 5366              	.LVL385:
 5367              	.L290:
 5368 020c 028043E0 		sub	r8, r3, r2
 5369 0210 01E043E2 		sub	lr, r3, #1
 5370 0214 04C048E2 		sub	ip, r8, #4
 5371 0218 02E04EE0 		sub	lr, lr, r2
 5372 021c 2CC1A0E1 		lsr	ip, ip, #2
 5373 0220 02005EE3 		cmp	lr, #2
 5374 0224 01C08CE2 		add	ip, ip, #1
 5375 0228 0CB1A0E1 		lsl	fp, ip, #2
 5376 022c 1200009A 		bls	.L293
 5377 0230 022181E0 		add	r2, r1, r2, lsl #2
 292:C:/Renesas/e2studio_2021_01_workspace_RZA2M_ANPR/ANPR_RZA2M_RDK/src/tensorflow_lite/src/tensorflow/lite/kernels/internal\types.h ****       buffer_size *= dims_data[i];
 5378              		.loc 7 292 0
 5379 0234 5120C0F2 		vmov.i32	q9, #1  @ v4si
 5380 0238 00E0A0E3 		mov	lr, #0
 5381              	.L295:
 5382 023c 01E08EE2 		add	lr, lr, #1
 293:C:/Renesas/e2studio_2021_01_workspace_RZA2M_ANPR/ANPR_RZA2M_RDK/src/tensorflow_lite/src/tensorflow/lite/kernels/internal\types.h ****     }
 5383              		.loc 7 293 0
 5384 0240 DF0A62F4 		vld1.64	{d16-d17}, [r2:64]
 5385 0244 0E005CE1 		cmp	ip, lr
 5386 0248 102082E2 		add	r2, r2, #16
 5387 024c F02962F2 		vmul.i32	q9, q9, q8
 5388 0250 F9FFFF8A 		bhi	.L295
 5389 0254 08005BE1 		cmp	fp, r8
 5390 0258 0B0080E0 		add	r0, r0, fp
 5391 025c 5000C0F2 		vmov.i32	q8, #0  @ v4si
 5392 0260 E048F2F2 		vext.32	q10, q9, q8, #2
 5393 0264 F22964F2 		vmul.i32	q9, q10, q9
 5394 0268 E004F2F2 		vext.32	q8, q9, q8, #1
 5395 026c F20960F2 		vmul.i32	q8, q8, q9
 5396 0270 902B10EE 		vmov.32	r2, d16[0]
 5397 0274 920606E0 		mul	r6, r2, r6
 5398 0278 0C00000A 		beq	.L292
 5399              	.L293:
 5400              	.LVL386:
 5401 027c 00C191E7 		ldr	ip, [r1, r0, lsl #2]
 292:C:/Renesas/e2studio_2021_01_workspace_RZA2M_ANPR/ANPR_RZA2M_RDK/src/tensorflow_lite/src/tensorflow/lite/kernels/internal\types.h ****       buffer_size *= dims_data[i];
 5402              		.loc 7 292 0
 5403 0280 012080E2 		add	r2, r0, #1
 5404 0284 020053E1 		cmp	r3, r2
 293:C:/Renesas/e2studio_2021_01_workspace_RZA2M_ANPR/ANPR_RZA2M_RDK/src/tensorflow_lite/src/tensorflow/lite/kernels/internal\types.h ****     }
 5405              		.loc 7 293 0
 5406 0288 0021A0E1 		lsl	r2, r0, #2
 5407 028c 9C0606E0 		mul	r6, ip, r6
 5408              	.LVL387:
 292:C:/Renesas/e2studio_2021_01_workspace_RZA2M_ANPR/ANPR_RZA2M_RDK/src/tensorflow_lite/src/tensorflow/lite/kernels/internal\types.h ****       buffer_size *= dims_data[i];
 5409              		.loc 7 292 0
 5410 0290 060000DA 		ble	.L292
 293:C:/Renesas/e2studio_2021_01_workspace_RZA2M_ANPR/ANPR_RZA2M_RDK/src/tensorflow_lite/src/tensorflow/lite/kernels/internal\types.h ****     }
 5411              		.loc 7 293 0
 5412 0294 021081E0 		add	r1, r1, r2
 292:C:/Renesas/e2studio_2021_01_workspace_RZA2M_ANPR/ANPR_RZA2M_RDK/src/tensorflow_lite/src/tensorflow/lite/kernels/internal\types.h ****       buffer_size *= dims_data[i];
 5413              		.loc 7 292 0
 5414 0298 020080E2 		add	r0, r0, #2
 293:C:/Renesas/e2studio_2021_01_workspace_RZA2M_ANPR/ANPR_RZA2M_RDK/src/tensorflow_lite/src/tensorflow/lite/kernels/internal\types.h ****     }
 5415              		.loc 7 293 0
 5416 029c 042091E5 		ldr	r2, [r1, #4]
 292:C:/Renesas/e2studio_2021_01_workspace_RZA2M_ANPR/ANPR_RZA2M_RDK/src/tensorflow_lite/src/tensorflow/lite/kernels/internal\types.h ****       buffer_size *= dims_data[i];
 5417              		.loc 7 292 0
 5418 02a0 000053E1 		cmp	r3, r0
 293:C:/Renesas/e2studio_2021_01_workspace_RZA2M_ANPR/ANPR_RZA2M_RDK/src/tensorflow_lite/src/tensorflow/lite/kernels/internal\types.h ****     }
 5419              		.loc 7 293 0
 5420 02a4 920606E0 		mul	r6, r2, r6
 5421              	.LVL388:
 292:C:/Renesas/e2studio_2021_01_workspace_RZA2M_ANPR/ANPR_RZA2M_RDK/src/tensorflow_lite/src/tensorflow/lite/kernels/internal\types.h ****       buffer_size *= dims_data[i];
 5422              		.loc 7 292 0
 293:C:/Renesas/e2studio_2021_01_workspace_RZA2M_ANPR/ANPR_RZA2M_RDK/src/tensorflow_lite/src/tensorflow/lite/kernels/internal\types.h ****     }
 5423              		.loc 7 293 0
 5424 02a8 082091C5 		ldrgt	r2, [r1, #8]
 5425 02ac 920606C0 		mulgt	r6, r2, r6
 5426              	.LVL389:
 5427              	.L292:
 5428              	.LBE5162:
 5429              	.LBE5159:
 5430              	.LBE5158:
 5431              	.LBE5128:
 5432              	.LBE5127:
 5433              	.LBB5179:
 5434              		.file 8 "C:/Renesas/e2studio_2021_01_workspace_RZA2M_ANPR/ANPR_RZA2M_RDK/src/tensorflow_lite/src/t
   1:C:/Renesas/e2studio_2021_01_workspace_RZA2M_ANPR/ANPR_RZA2M_RDK/src/tensorflow_lite/src/tensorflow/lite/kernels/internal/reference/integer_ops\tanh.h **** /* Copyright 2019 The TensorFlow Authors. All Rights Reserved.
   2:C:/Renesas/e2studio_2021_01_workspace_RZA2M_ANPR/ANPR_RZA2M_RDK/src/tensorflow_lite/src/tensorflow/lite/kernels/internal/reference/integer_ops\tanh.h **** 
   3:C:/Renesas/e2studio_2021_01_workspace_RZA2M_ANPR/ANPR_RZA2M_RDK/src/tensorflow_lite/src/tensorflow/lite/kernels/internal/reference/integer_ops\tanh.h **** Licensed under the Apache License, Version 2.0 (the "License");
   4:C:/Renesas/e2studio_2021_01_workspace_RZA2M_ANPR/ANPR_RZA2M_RDK/src/tensorflow_lite/src/tensorflow/lite/kernels/internal/reference/integer_ops\tanh.h **** you may not use this file except in compliance with the License.
   5:C:/Renesas/e2studio_2021_01_workspace_RZA2M_ANPR/ANPR_RZA2M_RDK/src/tensorflow_lite/src/tensorflow/lite/kernels/internal/reference/integer_ops\tanh.h **** You may obtain a copy of the License at
   6:C:/Renesas/e2studio_2021_01_workspace_RZA2M_ANPR/ANPR_RZA2M_RDK/src/tensorflow_lite/src/tensorflow/lite/kernels/internal/reference/integer_ops\tanh.h **** 
   7:C:/Renesas/e2studio_2021_01_workspace_RZA2M_ANPR/ANPR_RZA2M_RDK/src/tensorflow_lite/src/tensorflow/lite/kernels/internal/reference/integer_ops\tanh.h ****     http://www.apache.org/licenses/LICENSE-2.0
   8:C:/Renesas/e2studio_2021_01_workspace_RZA2M_ANPR/ANPR_RZA2M_RDK/src/tensorflow_lite/src/tensorflow/lite/kernels/internal/reference/integer_ops\tanh.h **** 
   9:C:/Renesas/e2studio_2021_01_workspace_RZA2M_ANPR/ANPR_RZA2M_RDK/src/tensorflow_lite/src/tensorflow/lite/kernels/internal/reference/integer_ops\tanh.h **** Unless required by applicable law or agreed to in writing, software
  10:C:/Renesas/e2studio_2021_01_workspace_RZA2M_ANPR/ANPR_RZA2M_RDK/src/tensorflow_lite/src/tensorflow/lite/kernels/internal/reference/integer_ops\tanh.h **** distributed under the License is distributed on an "AS IS" BASIS,
  11:C:/Renesas/e2studio_2021_01_workspace_RZA2M_ANPR/ANPR_RZA2M_RDK/src/tensorflow_lite/src/tensorflow/lite/kernels/internal/reference/integer_ops\tanh.h **** WITHOUT WARRANTIES OR CONDITIONS OF ANY KIND, either express or implied.
  12:C:/Renesas/e2studio_2021_01_workspace_RZA2M_ANPR/ANPR_RZA2M_RDK/src/tensorflow_lite/src/tensorflow/lite/kernels/internal/reference/integer_ops\tanh.h **** See the License for the specific language governing permissions and
  13:C:/Renesas/e2studio_2021_01_workspace_RZA2M_ANPR/ANPR_RZA2M_RDK/src/tensorflow_lite/src/tensorflow/lite/kernels/internal/reference/integer_ops\tanh.h **** limitations under the License.
  14:C:/Renesas/e2studio_2021_01_workspace_RZA2M_ANPR/ANPR_RZA2M_RDK/src/tensorflow_lite/src/tensorflow/lite/kernels/internal/reference/integer_ops\tanh.h **** ==============================================================================*/
  15:C:/Renesas/e2studio_2021_01_workspace_RZA2M_ANPR/ANPR_RZA2M_RDK/src/tensorflow_lite/src/tensorflow/lite/kernels/internal/reference/integer_ops\tanh.h **** #ifndef TENSORFLOW_LITE_KERNELS_INTERNAL_REFERENCE_INTEGER_OPS_TANH_H_
  16:C:/Renesas/e2studio_2021_01_workspace_RZA2M_ANPR/ANPR_RZA2M_RDK/src/tensorflow_lite/src/tensorflow/lite/kernels/internal/reference/integer_ops\tanh.h **** #define TENSORFLOW_LITE_KERNELS_INTERNAL_REFERENCE_INTEGER_OPS_TANH_H_
  17:C:/Renesas/e2studio_2021_01_workspace_RZA2M_ANPR/ANPR_RZA2M_RDK/src/tensorflow_lite/src/tensorflow/lite/kernels/internal/reference/integer_ops\tanh.h **** 
  18:C:/Renesas/e2studio_2021_01_workspace_RZA2M_ANPR/ANPR_RZA2M_RDK/src/tensorflow_lite/src/tensorflow/lite/kernels/internal/reference/integer_ops\tanh.h **** #include <limits>
  19:C:/Renesas/e2studio_2021_01_workspace_RZA2M_ANPR/ANPR_RZA2M_RDK/src/tensorflow_lite/src/tensorflow/lite/kernels/internal/reference/integer_ops\tanh.h **** 
  20:C:/Renesas/e2studio_2021_01_workspace_RZA2M_ANPR/ANPR_RZA2M_RDK/src/tensorflow_lite/src/tensorflow/lite/kernels/internal/reference/integer_ops\tanh.h **** #include "third_party/gemmlowp/fixedpoint/fixedpoint.h"
  21:C:/Renesas/e2studio_2021_01_workspace_RZA2M_ANPR/ANPR_RZA2M_RDK/src/tensorflow_lite/src/tensorflow/lite/kernels/internal/reference/integer_ops\tanh.h **** #include "tensorflow/lite/kernels/internal/common.h"
  22:C:/Renesas/e2studio_2021_01_workspace_RZA2M_ANPR/ANPR_RZA2M_RDK/src/tensorflow_lite/src/tensorflow/lite/kernels/internal/reference/integer_ops\tanh.h **** 
  23:C:/Renesas/e2studio_2021_01_workspace_RZA2M_ANPR/ANPR_RZA2M_RDK/src/tensorflow_lite/src/tensorflow/lite/kernels/internal/reference/integer_ops\tanh.h **** namespace tflite {
  24:C:/Renesas/e2studio_2021_01_workspace_RZA2M_ANPR/ANPR_RZA2M_RDK/src/tensorflow_lite/src/tensorflow/lite/kernels/internal/reference/integer_ops\tanh.h **** namespace reference_integer_ops {
  25:C:/Renesas/e2studio_2021_01_workspace_RZA2M_ANPR/ANPR_RZA2M_RDK/src/tensorflow_lite/src/tensorflow/lite/kernels/internal/reference/integer_ops\tanh.h **** 
  26:C:/Renesas/e2studio_2021_01_workspace_RZA2M_ANPR/ANPR_RZA2M_RDK/src/tensorflow_lite/src/tensorflow/lite/kernels/internal/reference/integer_ops\tanh.h **** inline void Tanh(int32_t input_zero_point, int32_t input_range_radius,
  27:C:/Renesas/e2studio_2021_01_workspace_RZA2M_ANPR/ANPR_RZA2M_RDK/src/tensorflow_lite/src/tensorflow/lite/kernels/internal/reference/integer_ops\tanh.h ****                  int32_t input_multiplier, int32_t input_shift,
  28:C:/Renesas/e2studio_2021_01_workspace_RZA2M_ANPR/ANPR_RZA2M_RDK/src/tensorflow_lite/src/tensorflow/lite/kernels/internal/reference/integer_ops\tanh.h ****                  const RuntimeShape& input_shape, const int8_t* input_data,
  29:C:/Renesas/e2studio_2021_01_workspace_RZA2M_ANPR/ANPR_RZA2M_RDK/src/tensorflow_lite/src/tensorflow/lite/kernels/internal/reference/integer_ops\tanh.h ****                  const RuntimeShape& output_shape, int8_t* output_data) {
  30:C:/Renesas/e2studio_2021_01_workspace_RZA2M_ANPR/ANPR_RZA2M_RDK/src/tensorflow_lite/src/tensorflow/lite/kernels/internal/reference/integer_ops\tanh.h ****   // Integer bits must be in sync with Prepare() function.
  31:C:/Renesas/e2studio_2021_01_workspace_RZA2M_ANPR/ANPR_RZA2M_RDK/src/tensorflow_lite/src/tensorflow/lite/kernels/internal/reference/integer_ops\tanh.h ****   static constexpr int32_t kInputIntegerBits = 4;
  32:C:/Renesas/e2studio_2021_01_workspace_RZA2M_ANPR/ANPR_RZA2M_RDK/src/tensorflow_lite/src/tensorflow/lite/kernels/internal/reference/integer_ops\tanh.h ****   static constexpr int32_t kOutputScale = 7;
  33:C:/Renesas/e2studio_2021_01_workspace_RZA2M_ANPR/ANPR_RZA2M_RDK/src/tensorflow_lite/src/tensorflow/lite/kernels/internal/reference/integer_ops\tanh.h ****   static constexpr int32_t kMinInt8 = std::numeric_limits<int8_t>::min();
  34:C:/Renesas/e2studio_2021_01_workspace_RZA2M_ANPR/ANPR_RZA2M_RDK/src/tensorflow_lite/src/tensorflow/lite/kernels/internal/reference/integer_ops\tanh.h ****   static constexpr int32_t kMaxInt8 = std::numeric_limits<int8_t>::max();
  35:C:/Renesas/e2studio_2021_01_workspace_RZA2M_ANPR/ANPR_RZA2M_RDK/src/tensorflow_lite/src/tensorflow/lite/kernels/internal/reference/integer_ops\tanh.h ****   using F4 = gemmlowp::FixedPoint<int32_t, kInputIntegerBits>;
  36:C:/Renesas/e2studio_2021_01_workspace_RZA2M_ANPR/ANPR_RZA2M_RDK/src/tensorflow_lite/src/tensorflow/lite/kernels/internal/reference/integer_ops\tanh.h **** 
  37:C:/Renesas/e2studio_2021_01_workspace_RZA2M_ANPR/ANPR_RZA2M_RDK/src/tensorflow_lite/src/tensorflow/lite/kernels/internal/reference/integer_ops\tanh.h ****   const int flat_size = MatchingFlatSize(input_shape, output_shape);
  38:C:/Renesas/e2studio_2021_01_workspace_RZA2M_ANPR/ANPR_RZA2M_RDK/src/tensorflow_lite/src/tensorflow/lite/kernels/internal/reference/integer_ops\tanh.h **** 
  39:C:/Renesas/e2studio_2021_01_workspace_RZA2M_ANPR/ANPR_RZA2M_RDK/src/tensorflow_lite/src/tensorflow/lite/kernels/internal/reference/integer_ops\tanh.h ****   for (int i = 0; i < flat_size; ++i) {
 5435              		.loc 8 39 0
 5436 02b0 000056E3 		cmp	r6, #0
 5437 02b4 E60200DA 		ble	.L288
 5438              	.LVL390:
 5439              	.L279:
 5440 02b8 000055E3 		cmp	r5, #0
 5441              	.LBB5180:
 5442              	.LBB5181:
 5443              	.LBB5182:
 5444              	.LBB5183:
 5445              	.LBB5184:
 5446              	.LBB5185:
 5447              		.file 9 "C:/Renesas/e2studio_2021_01_workspace_RZA2M_ANPR/ANPR_RZA2M_RDK/src/tensorflow_lite/src/t
   1:C:/Renesas/e2studio_2021_01_workspace_RZA2M_ANPR/ANPR_RZA2M_RDK/src/tensorflow_lite/src/tensorflow/lite/kernels/internal\common.h **** /* Copyright 2017 The TensorFlow Authors. All Rights Reserved.
   2:C:/Renesas/e2studio_2021_01_workspace_RZA2M_ANPR/ANPR_RZA2M_RDK/src/tensorflow_lite/src/tensorflow/lite/kernels/internal\common.h **** 
   3:C:/Renesas/e2studio_2021_01_workspace_RZA2M_ANPR/ANPR_RZA2M_RDK/src/tensorflow_lite/src/tensorflow/lite/kernels/internal\common.h **** Licensed under the Apache License, Version 2.0 (the "License");
   4:C:/Renesas/e2studio_2021_01_workspace_RZA2M_ANPR/ANPR_RZA2M_RDK/src/tensorflow_lite/src/tensorflow/lite/kernels/internal\common.h **** you may not use this file except in compliance with the License.
   5:C:/Renesas/e2studio_2021_01_workspace_RZA2M_ANPR/ANPR_RZA2M_RDK/src/tensorflow_lite/src/tensorflow/lite/kernels/internal\common.h **** You may obtain a copy of the License at
   6:C:/Renesas/e2studio_2021_01_workspace_RZA2M_ANPR/ANPR_RZA2M_RDK/src/tensorflow_lite/src/tensorflow/lite/kernels/internal\common.h **** 
   7:C:/Renesas/e2studio_2021_01_workspace_RZA2M_ANPR/ANPR_RZA2M_RDK/src/tensorflow_lite/src/tensorflow/lite/kernels/internal\common.h ****     http://www.apache.org/licenses/LICENSE-2.0
   8:C:/Renesas/e2studio_2021_01_workspace_RZA2M_ANPR/ANPR_RZA2M_RDK/src/tensorflow_lite/src/tensorflow/lite/kernels/internal\common.h **** 
   9:C:/Renesas/e2studio_2021_01_workspace_RZA2M_ANPR/ANPR_RZA2M_RDK/src/tensorflow_lite/src/tensorflow/lite/kernels/internal\common.h **** Unless required by applicable law or agreed to in writing, software
  10:C:/Renesas/e2studio_2021_01_workspace_RZA2M_ANPR/ANPR_RZA2M_RDK/src/tensorflow_lite/src/tensorflow/lite/kernels/internal\common.h **** distributed under the License is distributed on an "AS IS" BASIS,
  11:C:/Renesas/e2studio_2021_01_workspace_RZA2M_ANPR/ANPR_RZA2M_RDK/src/tensorflow_lite/src/tensorflow/lite/kernels/internal\common.h **** WITHOUT WARRANTIES OR CONDITIONS OF ANY KIND, either express or implied.
  12:C:/Renesas/e2studio_2021_01_workspace_RZA2M_ANPR/ANPR_RZA2M_RDK/src/tensorflow_lite/src/tensorflow/lite/kernels/internal\common.h **** See the License for the specific language governing permissions and
  13:C:/Renesas/e2studio_2021_01_workspace_RZA2M_ANPR/ANPR_RZA2M_RDK/src/tensorflow_lite/src/tensorflow/lite/kernels/internal\common.h **** limitations under the License.
  14:C:/Renesas/e2studio_2021_01_workspace_RZA2M_ANPR/ANPR_RZA2M_RDK/src/tensorflow_lite/src/tensorflow/lite/kernels/internal\common.h **** ==============================================================================*/
  15:C:/Renesas/e2studio_2021_01_workspace_RZA2M_ANPR/ANPR_RZA2M_RDK/src/tensorflow_lite/src/tensorflow/lite/kernels/internal\common.h **** #ifndef TENSORFLOW_LITE_KERNELS_INTERNAL_COMMON_H_
  16:C:/Renesas/e2studio_2021_01_workspace_RZA2M_ANPR/ANPR_RZA2M_RDK/src/tensorflow_lite/src/tensorflow/lite/kernels/internal\common.h **** #define TENSORFLOW_LITE_KERNELS_INTERNAL_COMMON_H_
  17:C:/Renesas/e2studio_2021_01_workspace_RZA2M_ANPR/ANPR_RZA2M_RDK/src/tensorflow_lite/src/tensorflow/lite/kernels/internal\common.h **** 
  18:C:/Renesas/e2studio_2021_01_workspace_RZA2M_ANPR/ANPR_RZA2M_RDK/src/tensorflow_lite/src/tensorflow/lite/kernels/internal\common.h **** #ifndef ALLOW_SLOW_GENERIC_DEPTHWISECONV_FALLBACK
  19:C:/Renesas/e2studio_2021_01_workspace_RZA2M_ANPR/ANPR_RZA2M_RDK/src/tensorflow_lite/src/tensorflow/lite/kernels/internal\common.h **** #ifdef GEMMLOWP_ALLOW_SLOW_SCALAR_FALLBACK
  20:C:/Renesas/e2studio_2021_01_workspace_RZA2M_ANPR/ANPR_RZA2M_RDK/src/tensorflow_lite/src/tensorflow/lite/kernels/internal\common.h **** #define ALLOW_SLOW_GENERIC_DEPTHWISECONV_FALLBACK
  21:C:/Renesas/e2studio_2021_01_workspace_RZA2M_ANPR/ANPR_RZA2M_RDK/src/tensorflow_lite/src/tensorflow/lite/kernels/internal\common.h **** #endif
  22:C:/Renesas/e2studio_2021_01_workspace_RZA2M_ANPR/ANPR_RZA2M_RDK/src/tensorflow_lite/src/tensorflow/lite/kernels/internal\common.h **** #endif
  23:C:/Renesas/e2studio_2021_01_workspace_RZA2M_ANPR/ANPR_RZA2M_RDK/src/tensorflow_lite/src/tensorflow/lite/kernels/internal\common.h **** 
  24:C:/Renesas/e2studio_2021_01_workspace_RZA2M_ANPR/ANPR_RZA2M_RDK/src/tensorflow_lite/src/tensorflow/lite/kernels/internal\common.h **** #include <functional>
  25:C:/Renesas/e2studio_2021_01_workspace_RZA2M_ANPR/ANPR_RZA2M_RDK/src/tensorflow_lite/src/tensorflow/lite/kernels/internal\common.h **** 
  26:C:/Renesas/e2studio_2021_01_workspace_RZA2M_ANPR/ANPR_RZA2M_RDK/src/tensorflow_lite/src/tensorflow/lite/kernels/internal\common.h **** #include "third_party/gemmlowp/fixedpoint/fixedpoint.h"
  27:C:/Renesas/e2studio_2021_01_workspace_RZA2M_ANPR/ANPR_RZA2M_RDK/src/tensorflow_lite/src/tensorflow/lite/kernels/internal\common.h **** #include "tensorflow/lite/kernels/internal/cppmath.h"
  28:C:/Renesas/e2studio_2021_01_workspace_RZA2M_ANPR/ANPR_RZA2M_RDK/src/tensorflow_lite/src/tensorflow/lite/kernels/internal\common.h **** #include "tensorflow/lite/kernels/internal/optimized/neon_check.h"
  29:C:/Renesas/e2studio_2021_01_workspace_RZA2M_ANPR/ANPR_RZA2M_RDK/src/tensorflow_lite/src/tensorflow/lite/kernels/internal\common.h **** #include "tensorflow/lite/kernels/internal/types.h"
  30:C:/Renesas/e2studio_2021_01_workspace_RZA2M_ANPR/ANPR_RZA2M_RDK/src/tensorflow_lite/src/tensorflow/lite/kernels/internal\common.h **** 
  31:C:/Renesas/e2studio_2021_01_workspace_RZA2M_ANPR/ANPR_RZA2M_RDK/src/tensorflow_lite/src/tensorflow/lite/kernels/internal\common.h **** namespace tflite {
  32:C:/Renesas/e2studio_2021_01_workspace_RZA2M_ANPR/ANPR_RZA2M_RDK/src/tensorflow_lite/src/tensorflow/lite/kernels/internal\common.h **** 
  33:C:/Renesas/e2studio_2021_01_workspace_RZA2M_ANPR/ANPR_RZA2M_RDK/src/tensorflow_lite/src/tensorflow/lite/kernels/internal\common.h **** constexpr int kReverseShift = -1;
  34:C:/Renesas/e2studio_2021_01_workspace_RZA2M_ANPR/ANPR_RZA2M_RDK/src/tensorflow_lite/src/tensorflow/lite/kernels/internal\common.h **** 
  35:C:/Renesas/e2studio_2021_01_workspace_RZA2M_ANPR/ANPR_RZA2M_RDK/src/tensorflow_lite/src/tensorflow/lite/kernels/internal\common.h **** inline void GetActivationMinMax(FusedActivationFunctionType ac,
  36:C:/Renesas/e2studio_2021_01_workspace_RZA2M_ANPR/ANPR_RZA2M_RDK/src/tensorflow_lite/src/tensorflow/lite/kernels/internal\common.h ****                                 float* output_activation_min,
  37:C:/Renesas/e2studio_2021_01_workspace_RZA2M_ANPR/ANPR_RZA2M_RDK/src/tensorflow_lite/src/tensorflow/lite/kernels/internal\common.h ****                                 float* output_activation_max) {
  38:C:/Renesas/e2studio_2021_01_workspace_RZA2M_ANPR/ANPR_RZA2M_RDK/src/tensorflow_lite/src/tensorflow/lite/kernels/internal\common.h ****   switch (ac) {
  39:C:/Renesas/e2studio_2021_01_workspace_RZA2M_ANPR/ANPR_RZA2M_RDK/src/tensorflow_lite/src/tensorflow/lite/kernels/internal\common.h ****     case FusedActivationFunctionType::kNone:
  40:C:/Renesas/e2studio_2021_01_workspace_RZA2M_ANPR/ANPR_RZA2M_RDK/src/tensorflow_lite/src/tensorflow/lite/kernels/internal\common.h ****       *output_activation_min = std::numeric_limits<float>::lowest();
  41:C:/Renesas/e2studio_2021_01_workspace_RZA2M_ANPR/ANPR_RZA2M_RDK/src/tensorflow_lite/src/tensorflow/lite/kernels/internal\common.h ****       *output_activation_max = std::numeric_limits<float>::max();
  42:C:/Renesas/e2studio_2021_01_workspace_RZA2M_ANPR/ANPR_RZA2M_RDK/src/tensorflow_lite/src/tensorflow/lite/kernels/internal\common.h ****       break;
  43:C:/Renesas/e2studio_2021_01_workspace_RZA2M_ANPR/ANPR_RZA2M_RDK/src/tensorflow_lite/src/tensorflow/lite/kernels/internal\common.h ****     case FusedActivationFunctionType::kRelu:
  44:C:/Renesas/e2studio_2021_01_workspace_RZA2M_ANPR/ANPR_RZA2M_RDK/src/tensorflow_lite/src/tensorflow/lite/kernels/internal\common.h ****       *output_activation_min = 0.f;
  45:C:/Renesas/e2studio_2021_01_workspace_RZA2M_ANPR/ANPR_RZA2M_RDK/src/tensorflow_lite/src/tensorflow/lite/kernels/internal\common.h ****       *output_activation_max = std::numeric_limits<float>::max();
  46:C:/Renesas/e2studio_2021_01_workspace_RZA2M_ANPR/ANPR_RZA2M_RDK/src/tensorflow_lite/src/tensorflow/lite/kernels/internal\common.h ****       break;
  47:C:/Renesas/e2studio_2021_01_workspace_RZA2M_ANPR/ANPR_RZA2M_RDK/src/tensorflow_lite/src/tensorflow/lite/kernels/internal\common.h ****     case FusedActivationFunctionType::kRelu1:
  48:C:/Renesas/e2studio_2021_01_workspace_RZA2M_ANPR/ANPR_RZA2M_RDK/src/tensorflow_lite/src/tensorflow/lite/kernels/internal\common.h ****       *output_activation_min = -1.f;
  49:C:/Renesas/e2studio_2021_01_workspace_RZA2M_ANPR/ANPR_RZA2M_RDK/src/tensorflow_lite/src/tensorflow/lite/kernels/internal\common.h ****       *output_activation_max = 1.f;
  50:C:/Renesas/e2studio_2021_01_workspace_RZA2M_ANPR/ANPR_RZA2M_RDK/src/tensorflow_lite/src/tensorflow/lite/kernels/internal\common.h ****       break;
  51:C:/Renesas/e2studio_2021_01_workspace_RZA2M_ANPR/ANPR_RZA2M_RDK/src/tensorflow_lite/src/tensorflow/lite/kernels/internal\common.h ****     case FusedActivationFunctionType::kRelu6:
  52:C:/Renesas/e2studio_2021_01_workspace_RZA2M_ANPR/ANPR_RZA2M_RDK/src/tensorflow_lite/src/tensorflow/lite/kernels/internal\common.h ****       *output_activation_min = 0.f;
  53:C:/Renesas/e2studio_2021_01_workspace_RZA2M_ANPR/ANPR_RZA2M_RDK/src/tensorflow_lite/src/tensorflow/lite/kernels/internal\common.h ****       *output_activation_max = 6.f;
  54:C:/Renesas/e2studio_2021_01_workspace_RZA2M_ANPR/ANPR_RZA2M_RDK/src/tensorflow_lite/src/tensorflow/lite/kernels/internal\common.h ****       break;
  55:C:/Renesas/e2studio_2021_01_workspace_RZA2M_ANPR/ANPR_RZA2M_RDK/src/tensorflow_lite/src/tensorflow/lite/kernels/internal\common.h ****   }
  56:C:/Renesas/e2studio_2021_01_workspace_RZA2M_ANPR/ANPR_RZA2M_RDK/src/tensorflow_lite/src/tensorflow/lite/kernels/internal\common.h **** }
  57:C:/Renesas/e2studio_2021_01_workspace_RZA2M_ANPR/ANPR_RZA2M_RDK/src/tensorflow_lite/src/tensorflow/lite/kernels/internal\common.h **** 
  58:C:/Renesas/e2studio_2021_01_workspace_RZA2M_ANPR/ANPR_RZA2M_RDK/src/tensorflow_lite/src/tensorflow/lite/kernels/internal\common.h **** template <typename T>
  59:C:/Renesas/e2studio_2021_01_workspace_RZA2M_ANPR/ANPR_RZA2M_RDK/src/tensorflow_lite/src/tensorflow/lite/kernels/internal\common.h **** inline T ActivationFunctionWithMinMax(T x, T output_activation_min,
  60:C:/Renesas/e2studio_2021_01_workspace_RZA2M_ANPR/ANPR_RZA2M_RDK/src/tensorflow_lite/src/tensorflow/lite/kernels/internal\common.h ****                                       T output_activation_max) {
  61:C:/Renesas/e2studio_2021_01_workspace_RZA2M_ANPR/ANPR_RZA2M_RDK/src/tensorflow_lite/src/tensorflow/lite/kernels/internal\common.h ****   using std::max;
  62:C:/Renesas/e2studio_2021_01_workspace_RZA2M_ANPR/ANPR_RZA2M_RDK/src/tensorflow_lite/src/tensorflow/lite/kernels/internal\common.h ****   using std::min;
  63:C:/Renesas/e2studio_2021_01_workspace_RZA2M_ANPR/ANPR_RZA2M_RDK/src/tensorflow_lite/src/tensorflow/lite/kernels/internal\common.h ****   return min(max(x, output_activation_min), output_activation_max);
  64:C:/Renesas/e2studio_2021_01_workspace_RZA2M_ANPR/ANPR_RZA2M_RDK/src/tensorflow_lite/src/tensorflow/lite/kernels/internal\common.h **** }
  65:C:/Renesas/e2studio_2021_01_workspace_RZA2M_ANPR/ANPR_RZA2M_RDK/src/tensorflow_lite/src/tensorflow/lite/kernels/internal\common.h **** 
  66:C:/Renesas/e2studio_2021_01_workspace_RZA2M_ANPR/ANPR_RZA2M_RDK/src/tensorflow_lite/src/tensorflow/lite/kernels/internal\common.h **** // Legacy function, left for compatibility only.
  67:C:/Renesas/e2studio_2021_01_workspace_RZA2M_ANPR/ANPR_RZA2M_RDK/src/tensorflow_lite/src/tensorflow/lite/kernels/internal\common.h **** template <FusedActivationFunctionType Ac>
  68:C:/Renesas/e2studio_2021_01_workspace_RZA2M_ANPR/ANPR_RZA2M_RDK/src/tensorflow_lite/src/tensorflow/lite/kernels/internal\common.h **** float ActivationFunction(float x) {
  69:C:/Renesas/e2studio_2021_01_workspace_RZA2M_ANPR/ANPR_RZA2M_RDK/src/tensorflow_lite/src/tensorflow/lite/kernels/internal\common.h ****   float output_activation_min, output_activation_max;
  70:C:/Renesas/e2studio_2021_01_workspace_RZA2M_ANPR/ANPR_RZA2M_RDK/src/tensorflow_lite/src/tensorflow/lite/kernels/internal\common.h ****   GetActivationMinMax(Ac, &output_activation_min, &output_activation_max);
  71:C:/Renesas/e2studio_2021_01_workspace_RZA2M_ANPR/ANPR_RZA2M_RDK/src/tensorflow_lite/src/tensorflow/lite/kernels/internal\common.h ****   return ActivationFunctionWithMinMax(x, output_activation_min,
  72:C:/Renesas/e2studio_2021_01_workspace_RZA2M_ANPR/ANPR_RZA2M_RDK/src/tensorflow_lite/src/tensorflow/lite/kernels/internal\common.h ****                                       output_activation_max);
  73:C:/Renesas/e2studio_2021_01_workspace_RZA2M_ANPR/ANPR_RZA2M_RDK/src/tensorflow_lite/src/tensorflow/lite/kernels/internal\common.h **** }
  74:C:/Renesas/e2studio_2021_01_workspace_RZA2M_ANPR/ANPR_RZA2M_RDK/src/tensorflow_lite/src/tensorflow/lite/kernels/internal\common.h **** 
  75:C:/Renesas/e2studio_2021_01_workspace_RZA2M_ANPR/ANPR_RZA2M_RDK/src/tensorflow_lite/src/tensorflow/lite/kernels/internal\common.h **** inline void BiasAndClamp(float clamp_min, float clamp_max, int bias_size,
  76:C:/Renesas/e2studio_2021_01_workspace_RZA2M_ANPR/ANPR_RZA2M_RDK/src/tensorflow_lite/src/tensorflow/lite/kernels/internal\common.h ****                          const float* bias_data, int array_size,
  77:C:/Renesas/e2studio_2021_01_workspace_RZA2M_ANPR/ANPR_RZA2M_RDK/src/tensorflow_lite/src/tensorflow/lite/kernels/internal\common.h ****                          float* array_data) {
  78:C:/Renesas/e2studio_2021_01_workspace_RZA2M_ANPR/ANPR_RZA2M_RDK/src/tensorflow_lite/src/tensorflow/lite/kernels/internal\common.h ****   // Note: see b/132215220: in May 2019 we thought it would be OK to replace
  79:C:/Renesas/e2studio_2021_01_workspace_RZA2M_ANPR/ANPR_RZA2M_RDK/src/tensorflow_lite/src/tensorflow/lite/kernels/internal\common.h ****   // this with the Eigen one-liner:
  80:C:/Renesas/e2studio_2021_01_workspace_RZA2M_ANPR/ANPR_RZA2M_RDK/src/tensorflow_lite/src/tensorflow/lite/kernels/internal\common.h ****   //   return (array.colwise() + bias).cwiseMin(clamp_max).cwiseMin(clamp_max).
  81:C:/Renesas/e2studio_2021_01_workspace_RZA2M_ANPR/ANPR_RZA2M_RDK/src/tensorflow_lite/src/tensorflow/lite/kernels/internal\common.h ****   // This turned out to severely regress performance: +4ms (i.e. 8%) on
  82:C:/Renesas/e2studio_2021_01_workspace_RZA2M_ANPR/ANPR_RZA2M_RDK/src/tensorflow_lite/src/tensorflow/lite/kernels/internal\common.h ****   // MobileNet v2 / 1.0 / 224. So we keep custom NEON code for now.
  83:C:/Renesas/e2studio_2021_01_workspace_RZA2M_ANPR/ANPR_RZA2M_RDK/src/tensorflow_lite/src/tensorflow/lite/kernels/internal\common.h ****   TFLITE_DCHECK_EQ((array_size % bias_size), 0);
  84:C:/Renesas/e2studio_2021_01_workspace_RZA2M_ANPR/ANPR_RZA2M_RDK/src/tensorflow_lite/src/tensorflow/lite/kernels/internal\common.h **** #ifdef USE_NEON
  85:C:/Renesas/e2studio_2021_01_workspace_RZA2M_ANPR/ANPR_RZA2M_RDK/src/tensorflow_lite/src/tensorflow/lite/kernels/internal\common.h ****   float* array_ptr = array_data;
  86:C:/Renesas/e2studio_2021_01_workspace_RZA2M_ANPR/ANPR_RZA2M_RDK/src/tensorflow_lite/src/tensorflow/lite/kernels/internal\common.h ****   float* array_end_ptr = array_ptr + array_size;
  87:C:/Renesas/e2studio_2021_01_workspace_RZA2M_ANPR/ANPR_RZA2M_RDK/src/tensorflow_lite/src/tensorflow/lite/kernels/internal\common.h ****   const auto clamp_min_vec = vdupq_n_f32(clamp_min);
  88:C:/Renesas/e2studio_2021_01_workspace_RZA2M_ANPR/ANPR_RZA2M_RDK/src/tensorflow_lite/src/tensorflow/lite/kernels/internal\common.h ****   const auto clamp_max_vec = vdupq_n_f32(clamp_max);
  89:C:/Renesas/e2studio_2021_01_workspace_RZA2M_ANPR/ANPR_RZA2M_RDK/src/tensorflow_lite/src/tensorflow/lite/kernels/internal\common.h ****   for (; array_ptr != array_end_ptr; array_ptr += bias_size) {
  90:C:/Renesas/e2studio_2021_01_workspace_RZA2M_ANPR/ANPR_RZA2M_RDK/src/tensorflow_lite/src/tensorflow/lite/kernels/internal\common.h ****     int i = 0;
  91:C:/Renesas/e2studio_2021_01_workspace_RZA2M_ANPR/ANPR_RZA2M_RDK/src/tensorflow_lite/src/tensorflow/lite/kernels/internal\common.h ****     for (; i <= bias_size - 16; i += 16) {
  92:C:/Renesas/e2studio_2021_01_workspace_RZA2M_ANPR/ANPR_RZA2M_RDK/src/tensorflow_lite/src/tensorflow/lite/kernels/internal\common.h ****       auto b0 = vld1q_f32(bias_data + i);
  93:C:/Renesas/e2studio_2021_01_workspace_RZA2M_ANPR/ANPR_RZA2M_RDK/src/tensorflow_lite/src/tensorflow/lite/kernels/internal\common.h ****       auto b1 = vld1q_f32(bias_data + i + 4);
  94:C:/Renesas/e2studio_2021_01_workspace_RZA2M_ANPR/ANPR_RZA2M_RDK/src/tensorflow_lite/src/tensorflow/lite/kernels/internal\common.h ****       auto b2 = vld1q_f32(bias_data + i + 8);
  95:C:/Renesas/e2studio_2021_01_workspace_RZA2M_ANPR/ANPR_RZA2M_RDK/src/tensorflow_lite/src/tensorflow/lite/kernels/internal\common.h ****       auto b3 = vld1q_f32(bias_data + i + 12);
  96:C:/Renesas/e2studio_2021_01_workspace_RZA2M_ANPR/ANPR_RZA2M_RDK/src/tensorflow_lite/src/tensorflow/lite/kernels/internal\common.h ****       auto a0 = vld1q_f32(array_ptr + i);
  97:C:/Renesas/e2studio_2021_01_workspace_RZA2M_ANPR/ANPR_RZA2M_RDK/src/tensorflow_lite/src/tensorflow/lite/kernels/internal\common.h ****       auto a1 = vld1q_f32(array_ptr + i + 4);
  98:C:/Renesas/e2studio_2021_01_workspace_RZA2M_ANPR/ANPR_RZA2M_RDK/src/tensorflow_lite/src/tensorflow/lite/kernels/internal\common.h ****       auto a2 = vld1q_f32(array_ptr + i + 8);
  99:C:/Renesas/e2studio_2021_01_workspace_RZA2M_ANPR/ANPR_RZA2M_RDK/src/tensorflow_lite/src/tensorflow/lite/kernels/internal\common.h ****       auto a3 = vld1q_f32(array_ptr + i + 12);
 100:C:/Renesas/e2studio_2021_01_workspace_RZA2M_ANPR/ANPR_RZA2M_RDK/src/tensorflow_lite/src/tensorflow/lite/kernels/internal\common.h ****       auto x0 = vaddq_f32(a0, b0);
 101:C:/Renesas/e2studio_2021_01_workspace_RZA2M_ANPR/ANPR_RZA2M_RDK/src/tensorflow_lite/src/tensorflow/lite/kernels/internal\common.h ****       auto x1 = vaddq_f32(a1, b1);
 102:C:/Renesas/e2studio_2021_01_workspace_RZA2M_ANPR/ANPR_RZA2M_RDK/src/tensorflow_lite/src/tensorflow/lite/kernels/internal\common.h ****       auto x2 = vaddq_f32(a2, b2);
 103:C:/Renesas/e2studio_2021_01_workspace_RZA2M_ANPR/ANPR_RZA2M_RDK/src/tensorflow_lite/src/tensorflow/lite/kernels/internal\common.h ****       auto x3 = vaddq_f32(a3, b3);
 104:C:/Renesas/e2studio_2021_01_workspace_RZA2M_ANPR/ANPR_RZA2M_RDK/src/tensorflow_lite/src/tensorflow/lite/kernels/internal\common.h ****       x0 = vmaxq_f32(clamp_min_vec, x0);
 105:C:/Renesas/e2studio_2021_01_workspace_RZA2M_ANPR/ANPR_RZA2M_RDK/src/tensorflow_lite/src/tensorflow/lite/kernels/internal\common.h ****       x1 = vmaxq_f32(clamp_min_vec, x1);
 106:C:/Renesas/e2studio_2021_01_workspace_RZA2M_ANPR/ANPR_RZA2M_RDK/src/tensorflow_lite/src/tensorflow/lite/kernels/internal\common.h ****       x2 = vmaxq_f32(clamp_min_vec, x2);
 107:C:/Renesas/e2studio_2021_01_workspace_RZA2M_ANPR/ANPR_RZA2M_RDK/src/tensorflow_lite/src/tensorflow/lite/kernels/internal\common.h ****       x3 = vmaxq_f32(clamp_min_vec, x3);
 108:C:/Renesas/e2studio_2021_01_workspace_RZA2M_ANPR/ANPR_RZA2M_RDK/src/tensorflow_lite/src/tensorflow/lite/kernels/internal\common.h ****       x0 = vminq_f32(clamp_max_vec, x0);
 109:C:/Renesas/e2studio_2021_01_workspace_RZA2M_ANPR/ANPR_RZA2M_RDK/src/tensorflow_lite/src/tensorflow/lite/kernels/internal\common.h ****       x1 = vminq_f32(clamp_max_vec, x1);
 110:C:/Renesas/e2studio_2021_01_workspace_RZA2M_ANPR/ANPR_RZA2M_RDK/src/tensorflow_lite/src/tensorflow/lite/kernels/internal\common.h ****       x2 = vminq_f32(clamp_max_vec, x2);
 111:C:/Renesas/e2studio_2021_01_workspace_RZA2M_ANPR/ANPR_RZA2M_RDK/src/tensorflow_lite/src/tensorflow/lite/kernels/internal\common.h ****       x3 = vminq_f32(clamp_max_vec, x3);
 112:C:/Renesas/e2studio_2021_01_workspace_RZA2M_ANPR/ANPR_RZA2M_RDK/src/tensorflow_lite/src/tensorflow/lite/kernels/internal\common.h ****       vst1q_f32(array_ptr + i, x0);
 113:C:/Renesas/e2studio_2021_01_workspace_RZA2M_ANPR/ANPR_RZA2M_RDK/src/tensorflow_lite/src/tensorflow/lite/kernels/internal\common.h ****       vst1q_f32(array_ptr + i + 4, x1);
 114:C:/Renesas/e2studio_2021_01_workspace_RZA2M_ANPR/ANPR_RZA2M_RDK/src/tensorflow_lite/src/tensorflow/lite/kernels/internal\common.h ****       vst1q_f32(array_ptr + i + 8, x2);
 115:C:/Renesas/e2studio_2021_01_workspace_RZA2M_ANPR/ANPR_RZA2M_RDK/src/tensorflow_lite/src/tensorflow/lite/kernels/internal\common.h ****       vst1q_f32(array_ptr + i + 12, x3);
 116:C:/Renesas/e2studio_2021_01_workspace_RZA2M_ANPR/ANPR_RZA2M_RDK/src/tensorflow_lite/src/tensorflow/lite/kernels/internal\common.h ****     }
 117:C:/Renesas/e2studio_2021_01_workspace_RZA2M_ANPR/ANPR_RZA2M_RDK/src/tensorflow_lite/src/tensorflow/lite/kernels/internal\common.h ****     for (; i <= bias_size - 4; i += 4) {
 118:C:/Renesas/e2studio_2021_01_workspace_RZA2M_ANPR/ANPR_RZA2M_RDK/src/tensorflow_lite/src/tensorflow/lite/kernels/internal\common.h ****       auto b = vld1q_f32(bias_data + i);
 119:C:/Renesas/e2studio_2021_01_workspace_RZA2M_ANPR/ANPR_RZA2M_RDK/src/tensorflow_lite/src/tensorflow/lite/kernels/internal\common.h ****       auto a = vld1q_f32(array_ptr + i);
 120:C:/Renesas/e2studio_2021_01_workspace_RZA2M_ANPR/ANPR_RZA2M_RDK/src/tensorflow_lite/src/tensorflow/lite/kernels/internal\common.h ****       auto x = vaddq_f32(a, b);
 121:C:/Renesas/e2studio_2021_01_workspace_RZA2M_ANPR/ANPR_RZA2M_RDK/src/tensorflow_lite/src/tensorflow/lite/kernels/internal\common.h ****       x = vmaxq_f32(clamp_min_vec, x);
 122:C:/Renesas/e2studio_2021_01_workspace_RZA2M_ANPR/ANPR_RZA2M_RDK/src/tensorflow_lite/src/tensorflow/lite/kernels/internal\common.h ****       x = vminq_f32(clamp_max_vec, x);
 123:C:/Renesas/e2studio_2021_01_workspace_RZA2M_ANPR/ANPR_RZA2M_RDK/src/tensorflow_lite/src/tensorflow/lite/kernels/internal\common.h ****       vst1q_f32(array_ptr + i, x);
 124:C:/Renesas/e2studio_2021_01_workspace_RZA2M_ANPR/ANPR_RZA2M_RDK/src/tensorflow_lite/src/tensorflow/lite/kernels/internal\common.h ****     }
 125:C:/Renesas/e2studio_2021_01_workspace_RZA2M_ANPR/ANPR_RZA2M_RDK/src/tensorflow_lite/src/tensorflow/lite/kernels/internal\common.h ****     for (; i < bias_size; i++) {
 126:C:/Renesas/e2studio_2021_01_workspace_RZA2M_ANPR/ANPR_RZA2M_RDK/src/tensorflow_lite/src/tensorflow/lite/kernels/internal\common.h ****       array_ptr[i] = ActivationFunctionWithMinMax(array_ptr[i] + bias_data[i],
 127:C:/Renesas/e2studio_2021_01_workspace_RZA2M_ANPR/ANPR_RZA2M_RDK/src/tensorflow_lite/src/tensorflow/lite/kernels/internal\common.h ****                                                   clamp_min, clamp_max);
 128:C:/Renesas/e2studio_2021_01_workspace_RZA2M_ANPR/ANPR_RZA2M_RDK/src/tensorflow_lite/src/tensorflow/lite/kernels/internal\common.h ****     }
 129:C:/Renesas/e2studio_2021_01_workspace_RZA2M_ANPR/ANPR_RZA2M_RDK/src/tensorflow_lite/src/tensorflow/lite/kernels/internal\common.h ****   }
 130:C:/Renesas/e2studio_2021_01_workspace_RZA2M_ANPR/ANPR_RZA2M_RDK/src/tensorflow_lite/src/tensorflow/lite/kernels/internal\common.h **** #else  // not NEON
 131:C:/Renesas/e2studio_2021_01_workspace_RZA2M_ANPR/ANPR_RZA2M_RDK/src/tensorflow_lite/src/tensorflow/lite/kernels/internal\common.h ****   for (int array_offset = 0; array_offset < array_size;
 132:C:/Renesas/e2studio_2021_01_workspace_RZA2M_ANPR/ANPR_RZA2M_RDK/src/tensorflow_lite/src/tensorflow/lite/kernels/internal\common.h ****        array_offset += bias_size) {
 133:C:/Renesas/e2studio_2021_01_workspace_RZA2M_ANPR/ANPR_RZA2M_RDK/src/tensorflow_lite/src/tensorflow/lite/kernels/internal\common.h ****     for (int i = 0; i < bias_size; i++) {
 134:C:/Renesas/e2studio_2021_01_workspace_RZA2M_ANPR/ANPR_RZA2M_RDK/src/tensorflow_lite/src/tensorflow/lite/kernels/internal\common.h ****       array_data[array_offset + i] = ActivationFunctionWithMinMax(
 135:C:/Renesas/e2studio_2021_01_workspace_RZA2M_ANPR/ANPR_RZA2M_RDK/src/tensorflow_lite/src/tensorflow/lite/kernels/internal\common.h ****           array_data[array_offset + i] + bias_data[i], clamp_min, clamp_max);
 136:C:/Renesas/e2studio_2021_01_workspace_RZA2M_ANPR/ANPR_RZA2M_RDK/src/tensorflow_lite/src/tensorflow/lite/kernels/internal\common.h ****     }
 137:C:/Renesas/e2studio_2021_01_workspace_RZA2M_ANPR/ANPR_RZA2M_RDK/src/tensorflow_lite/src/tensorflow/lite/kernels/internal\common.h ****   }
 138:C:/Renesas/e2studio_2021_01_workspace_RZA2M_ANPR/ANPR_RZA2M_RDK/src/tensorflow_lite/src/tensorflow/lite/kernels/internal\common.h **** #endif
 139:C:/Renesas/e2studio_2021_01_workspace_RZA2M_ANPR/ANPR_RZA2M_RDK/src/tensorflow_lite/src/tensorflow/lite/kernels/internal\common.h **** }
 140:C:/Renesas/e2studio_2021_01_workspace_RZA2M_ANPR/ANPR_RZA2M_RDK/src/tensorflow_lite/src/tensorflow/lite/kernels/internal\common.h **** 
 141:C:/Renesas/e2studio_2021_01_workspace_RZA2M_ANPR/ANPR_RZA2M_RDK/src/tensorflow_lite/src/tensorflow/lite/kernels/internal\common.h **** inline int32_t MultiplyByQuantizedMultiplierSmallerThanOneExp(
 142:C:/Renesas/e2studio_2021_01_workspace_RZA2M_ANPR/ANPR_RZA2M_RDK/src/tensorflow_lite/src/tensorflow/lite/kernels/internal\common.h ****     int32_t x, int32_t quantized_multiplier, int left_shift) {
 143:C:/Renesas/e2studio_2021_01_workspace_RZA2M_ANPR/ANPR_RZA2M_RDK/src/tensorflow_lite/src/tensorflow/lite/kernels/internal\common.h ****   using gemmlowp::RoundingDivideByPOT;
 144:C:/Renesas/e2studio_2021_01_workspace_RZA2M_ANPR/ANPR_RZA2M_RDK/src/tensorflow_lite/src/tensorflow/lite/kernels/internal\common.h ****   using gemmlowp::SaturatingRoundingDoublingHighMul;
 145:C:/Renesas/e2studio_2021_01_workspace_RZA2M_ANPR/ANPR_RZA2M_RDK/src/tensorflow_lite/src/tensorflow/lite/kernels/internal\common.h ****   return RoundingDivideByPOT(
 146:C:/Renesas/e2studio_2021_01_workspace_RZA2M_ANPR/ANPR_RZA2M_RDK/src/tensorflow_lite/src/tensorflow/lite/kernels/internal\common.h ****       SaturatingRoundingDoublingHighMul(x, quantized_multiplier), -left_shift);
 147:C:/Renesas/e2studio_2021_01_workspace_RZA2M_ANPR/ANPR_RZA2M_RDK/src/tensorflow_lite/src/tensorflow/lite/kernels/internal\common.h **** }
 148:C:/Renesas/e2studio_2021_01_workspace_RZA2M_ANPR/ANPR_RZA2M_RDK/src/tensorflow_lite/src/tensorflow/lite/kernels/internal\common.h **** 
 149:C:/Renesas/e2studio_2021_01_workspace_RZA2M_ANPR/ANPR_RZA2M_RDK/src/tensorflow_lite/src/tensorflow/lite/kernels/internal\common.h **** inline int32_t MultiplyByQuantizedMultiplierGreaterThanOne(
 150:C:/Renesas/e2studio_2021_01_workspace_RZA2M_ANPR/ANPR_RZA2M_RDK/src/tensorflow_lite/src/tensorflow/lite/kernels/internal\common.h ****     int32_t x, int32_t quantized_multiplier, int left_shift) {
 151:C:/Renesas/e2studio_2021_01_workspace_RZA2M_ANPR/ANPR_RZA2M_RDK/src/tensorflow_lite/src/tensorflow/lite/kernels/internal\common.h ****   using gemmlowp::SaturatingRoundingDoublingHighMul;
 152:C:/Renesas/e2studio_2021_01_workspace_RZA2M_ANPR/ANPR_RZA2M_RDK/src/tensorflow_lite/src/tensorflow/lite/kernels/internal\common.h ****   return SaturatingRoundingDoublingHighMul(x * (1 << left_shift),
 153:C:/Renesas/e2studio_2021_01_workspace_RZA2M_ANPR/ANPR_RZA2M_RDK/src/tensorflow_lite/src/tensorflow/lite/kernels/internal\common.h ****                                            quantized_multiplier);
 154:C:/Renesas/e2studio_2021_01_workspace_RZA2M_ANPR/ANPR_RZA2M_RDK/src/tensorflow_lite/src/tensorflow/lite/kernels/internal\common.h **** }
 155:C:/Renesas/e2studio_2021_01_workspace_RZA2M_ANPR/ANPR_RZA2M_RDK/src/tensorflow_lite/src/tensorflow/lite/kernels/internal\common.h **** 
 156:C:/Renesas/e2studio_2021_01_workspace_RZA2M_ANPR/ANPR_RZA2M_RDK/src/tensorflow_lite/src/tensorflow/lite/kernels/internal\common.h **** inline int32_t MultiplyByQuantizedMultiplier(int32_t x,
 157:C:/Renesas/e2studio_2021_01_workspace_RZA2M_ANPR/ANPR_RZA2M_RDK/src/tensorflow_lite/src/tensorflow/lite/kernels/internal\common.h ****                                              int32_t quantized_multiplier,
 158:C:/Renesas/e2studio_2021_01_workspace_RZA2M_ANPR/ANPR_RZA2M_RDK/src/tensorflow_lite/src/tensorflow/lite/kernels/internal\common.h ****                                              int shift) {
 159:C:/Renesas/e2studio_2021_01_workspace_RZA2M_ANPR/ANPR_RZA2M_RDK/src/tensorflow_lite/src/tensorflow/lite/kernels/internal\common.h ****   using gemmlowp::RoundingDivideByPOT;
 160:C:/Renesas/e2studio_2021_01_workspace_RZA2M_ANPR/ANPR_RZA2M_RDK/src/tensorflow_lite/src/tensorflow/lite/kernels/internal\common.h ****   using gemmlowp::SaturatingRoundingDoublingHighMul;
 161:C:/Renesas/e2studio_2021_01_workspace_RZA2M_ANPR/ANPR_RZA2M_RDK/src/tensorflow_lite/src/tensorflow/lite/kernels/internal\common.h ****   int left_shift = shift > 0 ? shift : 0;
 162:C:/Renesas/e2studio_2021_01_workspace_RZA2M_ANPR/ANPR_RZA2M_RDK/src/tensorflow_lite/src/tensorflow/lite/kernels/internal\common.h ****   int right_shift = shift > 0 ? 0 : -shift;
 5448              		.loc 9 162 0
 5449 02bc 003065E2 		rsb	r3, r5, #0
 5450              	.LBB5186:
 5451              	.LBB5187:
 360:C:/Renesas/e2studio_2021_01_workspace_RZA2M_ANPR/ANPR_RZA2M_RDK/src/tensorflow_lite/src/third_party/gemmlowp/fixedpoint\fixedpoint.h ****   const IntegerType zero = Dup<IntegerType>(0);
 5452              		.loc 4 360 0
 5453 02c0 F20BDFED 		vldr.64	d16, .L572	@ int
 5454 02c4 0030A0C3 		movgt	r3, #0
 5455 02c8 04308DE5 		str	r3, [sp, #4]
 5456              	.LBE5187:
 5457              	.LBE5186:
 161:C:/Renesas/e2studio_2021_01_workspace_RZA2M_ANPR/ANPR_RZA2M_RDK/src/tensorflow_lite/src/tensorflow/lite/kernels/internal\common.h ****   int right_shift = shift > 0 ? 0 : -shift;
 5458              		.loc 9 161 0
 5459 02cc C51FC5E1 		bic	r1, r5, r5, asr #31
 5460              	.LBB5208:
 5461              	.LBB5204:
 360:C:/Renesas/e2studio_2021_01_workspace_RZA2M_ANPR/ANPR_RZA2M_RDK/src/tensorflow_lite/src/third_party/gemmlowp/fixedpoint\fixedpoint.h ****   const IntegerType zero = Dup<IntegerType>(0);
 5462              		.loc 4 360 0
 5463 02d0 903B01EE 		vmov.32	d17[0], r3
 5464 02d4 017047E2 		sub	r7, r7, #1
 5465              	.LVL391:
 5466              	.LBE5204:
 5467              	.LBE5208:
 161:C:/Renesas/e2studio_2021_01_workspace_RZA2M_ANPR/ANPR_RZA2M_RDK/src/tensorflow_lite/src/tensorflow/lite/kernels/internal\common.h ****   int right_shift = shift > 0 ? 0 : -shift;
 5468              		.loc 9 161 0
 5469 02d8 1C108DE5 		str	r1, [sp, #28]
 5470 02dc 00806AE2 		rsb	r8, r10, #0
 5471              	.LBB5209:
 5472              	.LBB5205:
 360:C:/Renesas/e2studio_2021_01_workspace_RZA2M_ANPR/ANPR_RZA2M_RDK/src/tensorflow_lite/src/third_party/gemmlowp/fixedpoint\fixedpoint.h ****   const IntegerType zero = Dup<IntegerType>(0);
 5473              		.loc 4 360 0
 5474 02e0 A00471F3 		vshl.u64	d16, d16, d17
 5475              	.LBB5188:
 5476              	.LBB5189:
 141:C:/Renesas/e2studio_2021_01_workspace_RZA2M_ANPR/ANPR_RZA2M_RDK/src/tensorflow_lite/src/third_party/gemmlowp/fixedpoint\fixedpoint.h **** }
 5477              		.loc 4 141 0
 5478 02e4 0050A0E3 		mov	r5, #0
 5479              	.LVL392:
 5480 02e8 0A10A0E1 		mov	r1, r10
 5481              	.LBE5189:
 5482              	.LBE5188:
 360:C:/Renesas/e2studio_2021_01_workspace_RZA2M_ANPR/ANPR_RZA2M_RDK/src/tensorflow_lite/src/third_party/gemmlowp/fixedpoint\fixedpoint.h ****   const IntegerType zero = Dup<IntegerType>(0);
 5483              		.loc 4 360 0
 5484 02ec 302B53EC 		vmov	r2, r3, d16	@ int
 5485 02f0 013042E2 		sub	r3, r2, #1
 5486 02f4 14308DE5 		str	r3, [sp, #20]
 5487              	.LBB5191:
 5488              	.LBB5190:
 141:C:/Renesas/e2studio_2021_01_workspace_RZA2M_ANPR/ANPR_RZA2M_RDK/src/tensorflow_lite/src/third_party/gemmlowp/fixedpoint\fixedpoint.h **** }
 5489              		.loc 4 141 0
 5490 02f8 C330A0E1 		asr	r3, r3, #1
 5491 02fc 18308DE5 		str	r3, [sp, #24]
 5492 0300 050000EA 		b	.L308
 5493              	.LVL393:
 5494              	.L399:
 5495              	.LBE5190:
 5496              	.LBE5191:
 5497              	.LBE5205:
 5498              	.LBE5209:
 5499              	.LBE5185:
 5500              	.LBE5184:
 5501              	.LBB5222:
 5502              	.LBB5223:
 5503              		.loc 5 200 0
 5504 0304 7F30A0E3 		mov	r3, #127
 5505              	.L307:
 5506              	.LBE5223:
 5507              	.LBE5222:
  40:C:/Renesas/e2studio_2021_01_workspace_RZA2M_ANPR/ANPR_RZA2M_RDK/src/tensorflow_lite/src/tensorflow/lite/kernels/internal/reference/integer_ops\tanh.h ****     const int32_t input =
  41:C:/Renesas/e2studio_2021_01_workspace_RZA2M_ANPR/ANPR_RZA2M_RDK/src/tensorflow_lite/src/tensorflow/lite/kernels/internal/reference/integer_ops\tanh.h ****         static_cast<int32_t>(input_data[i]) - input_zero_point;
  42:C:/Renesas/e2studio_2021_01_workspace_RZA2M_ANPR/ANPR_RZA2M_RDK/src/tensorflow_lite/src/tensorflow/lite/kernels/internal/reference/integer_ops\tanh.h ****     if (input <= -input_range_radius) {
  43:C:/Renesas/e2studio_2021_01_workspace_RZA2M_ANPR/ANPR_RZA2M_RDK/src/tensorflow_lite/src/tensorflow/lite/kernels/internal/reference/integer_ops\tanh.h ****       output_data[i] = kMinInt8;
  44:C:/Renesas/e2studio_2021_01_workspace_RZA2M_ANPR/ANPR_RZA2M_RDK/src/tensorflow_lite/src/tensorflow/lite/kernels/internal/reference/integer_ops\tanh.h ****     } else if (input >= input_range_radius) {
  45:C:/Renesas/e2studio_2021_01_workspace_RZA2M_ANPR/ANPR_RZA2M_RDK/src/tensorflow_lite/src/tensorflow/lite/kernels/internal/reference/integer_ops\tanh.h ****       output_data[i] = kMaxInt8;
  46:C:/Renesas/e2studio_2021_01_workspace_RZA2M_ANPR/ANPR_RZA2M_RDK/src/tensorflow_lite/src/tensorflow/lite/kernels/internal/reference/integer_ops\tanh.h ****     } else {
  47:C:/Renesas/e2studio_2021_01_workspace_RZA2M_ANPR/ANPR_RZA2M_RDK/src/tensorflow_lite/src/tensorflow/lite/kernels/internal/reference/integer_ops\tanh.h ****       const int32_t input_in_q4 =
  48:C:/Renesas/e2studio_2021_01_workspace_RZA2M_ANPR/ANPR_RZA2M_RDK/src/tensorflow_lite/src/tensorflow/lite/kernels/internal/reference/integer_ops\tanh.h ****           MultiplyByQuantizedMultiplier(input, input_multiplier, input_shift);
  49:C:/Renesas/e2studio_2021_01_workspace_RZA2M_ANPR/ANPR_RZA2M_RDK/src/tensorflow_lite/src/tensorflow/lite/kernels/internal/reference/integer_ops\tanh.h ****       const int32_t output_in_q0 =
  50:C:/Renesas/e2studio_2021_01_workspace_RZA2M_ANPR/ANPR_RZA2M_RDK/src/tensorflow_lite/src/tensorflow/lite/kernels/internal/reference/integer_ops\tanh.h ****           gemmlowp::tanh(F4::FromRaw(input_in_q4)).raw();
  51:C:/Renesas/e2studio_2021_01_workspace_RZA2M_ANPR/ANPR_RZA2M_RDK/src/tensorflow_lite/src/tensorflow/lite/kernels/internal/reference/integer_ops\tanh.h **** 
  52:C:/Renesas/e2studio_2021_01_workspace_RZA2M_ANPR/ANPR_RZA2M_RDK/src/tensorflow_lite/src/tensorflow/lite/kernels/internal/reference/integer_ops\tanh.h ****       // Rescale and downcast.
  53:C:/Renesas/e2studio_2021_01_workspace_RZA2M_ANPR/ANPR_RZA2M_RDK/src/tensorflow_lite/src/tensorflow/lite/kernels/internal/reference/integer_ops\tanh.h ****       using gemmlowp::RoundingDivideByPOT;
  54:C:/Renesas/e2studio_2021_01_workspace_RZA2M_ANPR/ANPR_RZA2M_RDK/src/tensorflow_lite/src/tensorflow/lite/kernels/internal/reference/integer_ops\tanh.h ****       int32_t output_in_q24 =
  55:C:/Renesas/e2studio_2021_01_workspace_RZA2M_ANPR/ANPR_RZA2M_RDK/src/tensorflow_lite/src/tensorflow/lite/kernels/internal/reference/integer_ops\tanh.h ****           RoundingDivideByPOT(output_in_q0, 31 - kOutputScale);
  56:C:/Renesas/e2studio_2021_01_workspace_RZA2M_ANPR/ANPR_RZA2M_RDK/src/tensorflow_lite/src/tensorflow/lite/kernels/internal/reference/integer_ops\tanh.h ****       output_in_q24 = std::min(std::max(output_in_q24, kMinInt8), kMaxInt8);
  57:C:/Renesas/e2studio_2021_01_workspace_RZA2M_ANPR/ANPR_RZA2M_RDK/src/tensorflow_lite/src/tensorflow/lite/kernels/internal/reference/integer_ops\tanh.h ****       output_data[i] = static_cast<int8_t>(output_in_q24);
 5508              		.loc 8 57 0
 5509 0308 0030C4E5 		strb	r3, [r4]
 5510              	.LVL394:
 5511              	.L300:
 5512              	.LBE5183:
 5513              	.LBE5182:
 5514              	.LBE5181:
 5515              	.LBE5180:
  39:C:/Renesas/e2studio_2021_01_workspace_RZA2M_ANPR/ANPR_RZA2M_RDK/src/tensorflow_lite/src/tensorflow/lite/kernels/internal/reference/integer_ops\tanh.h ****     const int32_t input =
 5516              		.loc 8 39 0
 5517 030c 015085E2 		add	r5, r5, #1
 5518              	.LVL395:
 5519 0310 014084E2 		add	r4, r4, #1
 5520 0314 060055E1 		cmp	r5, r6
 5521 0318 CC0200AA 		bge	.L558
 5522              	.LVL396:
 5523              	.L308:
 5524              	.LBB5312:
  41:C:/Renesas/e2studio_2021_01_workspace_RZA2M_ANPR/ANPR_RZA2M_RDK/src/tensorflow_lite/src/tensorflow/lite/kernels/internal/reference/integer_ops\tanh.h ****     if (input <= -input_range_radius) {
 5525              		.loc 8 41 0
 5526 031c D130F7E1 		ldrsb	r3, [r7, #1]!
 5527 0320 093043E0 		sub	r3, r3, r9
 5528              	.LVL397:
 5529              	.LBB5307:
  42:C:/Renesas/e2studio_2021_01_workspace_RZA2M_ANPR/ANPR_RZA2M_RDK/src/tensorflow_lite/src/tensorflow/lite/kernels/internal/reference/integer_ops\tanh.h ****       output_data[i] = kMinInt8;
 5530              		.loc 8 42 0
 5531 0324 030058E1 		cmp	r8, r3
  43:C:/Renesas/e2studio_2021_01_workspace_RZA2M_ANPR/ANPR_RZA2M_RDK/src/tensorflow_lite/src/tensorflow/lite/kernels/internal/reference/integer_ops\tanh.h ****     } else if (input >= input_range_radius) {
 5532              		.loc 8 43 0
 5533 0328 7F30E0A3 		mvnge	r3, #127
 5534              	.LVL398:
 5535 032c 0030C4A5 		strbge	r3, [r4]
 5536              	.LVL399:
  42:C:/Renesas/e2studio_2021_01_workspace_RZA2M_ANPR/ANPR_RZA2M_RDK/src/tensorflow_lite/src/tensorflow/lite/kernels/internal/reference/integer_ops\tanh.h ****       output_data[i] = kMinInt8;
 5537              		.loc 8 42 0
 5538 0330 F5FFFFAA 		bge	.L300
 5539              	.LBB5302:
  44:C:/Renesas/e2studio_2021_01_workspace_RZA2M_ANPR/ANPR_RZA2M_RDK/src/tensorflow_lite/src/tensorflow/lite/kernels/internal/reference/integer_ops\tanh.h ****       output_data[i] = kMaxInt8;
 5540              		.loc 8 44 0
 5541 0334 030051E1 		cmp	r1, r3
 5542 0338 F1FFFFDA 		ble	.L399
 5543              	.LVL400:
 5544              	.LBB5297:
 5545              	.LBB5225:
 5546              	.LBB5218:
 163:C:/Renesas/e2studio_2021_01_workspace_RZA2M_ANPR/ANPR_RZA2M_RDK/src/tensorflow_lite/src/tensorflow/lite/kernels/internal\common.h ****   return RoundingDivideByPOT(SaturatingRoundingDoublingHighMul(
 5547              		.loc 9 163 0
 5548 033c 1C209DE5 		ldr	r2, [sp, #28]
 5549 0340 1332A0E1 		lsl	r3, r3, r2
 5550              	.LVL401:
 5551              	.LBB5210:
 5552              	.LBB5211:
 334:C:/Renesas/e2studio_2021_01_workspace_RZA2M_ANPR/ANPR_RZA2M_RDK/src/tensorflow_lite/src/third_party/gemmlowp/fixedpoint\fixedpoint.h ****   std::int32_t nudge = ab_64 >= 0 ? (1 << 30) : (1 - (1 << 30));
 5553              		.loc 4 334 0
 5554 0344 10209DE5 		ldr	r2, [sp, #16]
 331:C:/Renesas/e2studio_2021_01_workspace_RZA2M_ANPR/ANPR_RZA2M_RDK/src/tensorflow_lite/src/third_party/gemmlowp/fixedpoint\fixedpoint.h ****   std::int64_t a_64(a);
 5555              		.loc 4 331 0
 5556 0348 030052E1 		cmp	r2, r3
 5557 034c 02015303 		cmpeq	r3, #-2147483648
 334:C:/Renesas/e2studio_2021_01_workspace_RZA2M_ANPR/ANPR_RZA2M_RDK/src/tensorflow_lite/src/third_party/gemmlowp/fixedpoint\fixedpoint.h ****   std::int32_t nudge = ab_64 >= 0 ? (1 << 30) : (1 - (1 << 30));
 5558              		.loc 4 334 0
 5559 0350 93A2CBE0 		smull	r10, fp, r3, r2
 331:C:/Renesas/e2studio_2021_01_workspace_RZA2M_ANPR/ANPR_RZA2M_RDK/src/tensorflow_lite/src/third_party/gemmlowp/fixedpoint\fixedpoint.h ****   std::int64_t a_64(a);
 5560              		.loc 4 331 0
 5561 0354 0130A003 		moveq	r3, #1
 5562              	.LVL402:
 5563 0358 0030A013 		movne	r3, #0
 5564              	.LVL403:
 335:C:/Renesas/e2studio_2021_01_workspace_RZA2M_ANPR/ANPR_RZA2M_RDK/src/tensorflow_lite/src/third_party/gemmlowp/fixedpoint\fixedpoint.h ****   std::int32_t ab_x2_high32 =
 5565              		.loc 4 335 0
 5566 035c 00005AE3 		cmp	r10, #0
 5567 0360 0020DBE2 		sbcs	r2, fp, #0
 5568 0364 C40200BA 		blt	.L561
 5569              	.LVL404:
 338:C:/Renesas/e2studio_2021_01_workspace_RZA2M_ANPR/ANPR_RZA2M_RDK/src/tensorflow_lite/src/third_party/gemmlowp/fixedpoint\fixedpoint.h **** }
 5570              		.loc 4 338 0
 5571 0368 000053E3 		cmp	r3, #0
 5572 036c C402001A 		bne	.L402
 337:C:/Renesas/e2studio_2021_01_workspace_RZA2M_ANPR/ANPR_RZA2M_RDK/src/tensorflow_lite/src/third_party/gemmlowp/fixedpoint\fixedpoint.h ****   return overflow ? std::numeric_limits<std::int32_t>::max() : ab_x2_high32;
 5573              		.loc 4 337 0
 5574 0370 01A19AE2 		adds	r10, r10, #1073741824
 5575              	.LVL405:
 5576 0374 AAAFA0E1 		lsr	r10, r10, #31
 5577 0378 00B0ABE2 		adc	fp, fp, #0
 5578 037c 8BA08AE1 		orr	r10, r10, fp, lsl #1
 5579              	.LVL406:
 5580              	.L329:
 5581              	.LBE5211:
 5582              	.LBE5210:
 5583              	.LBB5214:
 5584              	.LBB5206:
 359:C:/Renesas/e2studio_2021_01_workspace_RZA2M_ANPR/ANPR_RZA2M_RDK/src/tensorflow_lite/src/third_party/gemmlowp/fixedpoint\fixedpoint.h ****   const IntegerType mask = Dup<IntegerType>((1ll << exponent) - 1);
 5585              		.loc 4 359 0
 5586 0380 04309DE5 		ldr	r3, [sp, #4]
 5587 0384 1F0053E3 		cmp	r3, #31
 5588 0388 6A0300CA 		bgt	.L562
 5589 038c 0320A0E1 		mov	r2, r3
 5590              	.LBB5192:
 5591              	.LBB5193:
  95:C:/Renesas/e2studio_2021_01_workspace_RZA2M_ANPR/ANPR_RZA2M_RDK/src/tensorflow_lite/src/third_party/gemmlowp/fixedpoint\fixedpoint.h **** }
 5592              		.loc 4 95 0
 5593 0390 18309DE5 		ldr	r3, [sp, #24]
 5594              	.LBE5193:
 5595              	.LBE5192:
 5596              	.LBB5195:
 5597              	.LBB5196:
 141:C:/Renesas/e2studio_2021_01_workspace_RZA2M_ANPR/ANPR_RZA2M_RDK/src/tensorflow_lite/src/third_party/gemmlowp/fixedpoint\fixedpoint.h **** }
 5598              		.loc 4 141 0
 5599 0394 5A02A0E1 		asr	r0, r10, r2
 5600              	.LBE5196:
 5601              	.LBE5195:
 5602              	.LBB5197:
 5603              	.LBB5198:
  71:C:/Renesas/e2studio_2021_01_workspace_RZA2M_ANPR/ANPR_RZA2M_RDK/src/tensorflow_lite/src/third_party/gemmlowp/fixedpoint\fixedpoint.h **** }
 5604              		.loc 4 71 0
 5605 0398 14209DE5 		ldr	r2, [sp, #20]
 5606              	.LBE5198:
 5607              	.LBE5197:
 5608              	.LBB5200:
 5609              	.LBB5194:
  95:C:/Renesas/e2studio_2021_01_workspace_RZA2M_ANPR/ANPR_RZA2M_RDK/src/tensorflow_lite/src/third_party/gemmlowp/fixedpoint\fixedpoint.h **** }
 5610              		.loc 4 95 0
 5611 039c AA3F83E0 		add	r3, r3, r10, lsr #31
 5612              	.LBE5194:
 5613              	.LBE5200:
 5614              	.LBB5201:
 5615              	.LBB5199:
  71:C:/Renesas/e2studio_2021_01_workspace_RZA2M_ANPR/ANPR_RZA2M_RDK/src/tensorflow_lite/src/third_party/gemmlowp/fixedpoint\fixedpoint.h **** }
 5616              		.loc 4 71 0
 5617 03a0 02A00AE0 		and	r10, r10, r2
 5618              	.LVL407:
 5619              	.LBE5199:
 5620              	.LBE5201:
 5621              	.LBB5202:
 5622              	.LBB5203:
  95:C:/Renesas/e2studio_2021_01_workspace_RZA2M_ANPR/ANPR_RZA2M_RDK/src/tensorflow_lite/src/third_party/gemmlowp/fixedpoint\fixedpoint.h **** }
 5623              		.loc 4 95 0
 5624 03a4 03005AE1 		cmp	r10, r3
 5625 03a8 010080C2 		addgt	r0, r0, #1
 5626              	.LVL408:
 5627              	.LBE5203:
 5628              	.LBE5202:
 5629              	.LBE5206:
 5630              	.LBE5214:
 5631              	.LBE5218:
 5632              	.LBE5225:
 5633              	.LBB5226:
 5634              	.LBB5227:
 5635              	.LBB5228:
 5636              	.LBB5229:
 5637              	.LBB5230:
 5638              	.LBB5231:
 158:C:/Renesas/e2studio_2021_01_workspace_RZA2M_ANPR/ANPR_RZA2M_RDK/src/tensorflow_lite/src/third_party/gemmlowp/fixedpoint\fixedpoint.h **** }
 5639              		.loc 4 158 0
 5640 03ac 000050E3 		cmp	r0, #0
 5641 03b0 E30200BA 		blt	.L398
 5642              	.LVL409:
 5643 03b4 002060E2 		rsb	r2, r0, #0
 5644              	.LBE5231:
 5645              	.LBE5230:
 5646              	.LBE5229:
 5647              	.LBE5228:
 5648              	.LBB5238:
 5649              	.LBB5239:
 5650              	.LBB5240:
 5651              	.LBB5241:
 5652 03b8 0000A0E3 		mov	r0, #0
 5653              	.LVL410:
 5654              	.LBE5241:
 5655              	.LBE5240:
 5656              	.LBE5239:
 5657              	.LBE5238:
 5658              	.LBB5245:
 5659              	.LBB5236:
 5660              	.LBB5234:
 5661              	.LBB5232:
 5662 03bc 00A0A0E1 		mov	r10, r0
 5663 03c0 0030E013 		mvnne	r3, #0
 5664 03c4 0030A001 		moveq	r3, r0
 5665              	.LBE5232:
 5666              	.LBE5234:
 5667              	.LBE5236:
 5668              	.LBE5245:
 5669              	.LBB5246:
 5670              	.LBB5244:
 5671              	.LBB5243:
 5672              	.LBB5242:
 5673 03c8 00B0E0E3 		mvn	fp, #0
 5674              	.LVL411:
 5675              	.L305:
 5676              	.LBE5242:
 5677              	.LBE5243:
 5678              	.LBE5244:
 5679              	.LBE5246:
 5680              	.LBB5247:
 5681              	.LBB5248:
 816:C:/Renesas/e2studio_2021_01_workspace_RZA2M_ANPR/ANPR_RZA2M_RDK/src/tensorflow_lite/src/third_party/gemmlowp/fixedpoint\fixedpoint.h **** 
 817:C:/Renesas/e2studio_2021_01_workspace_RZA2M_ANPR/ANPR_RZA2M_RDK/src/tensorflow_lite/src/third_party/gemmlowp/fixedpoint\fixedpoint.h **** // Returns -tanh(x) for x < 0.
 818:C:/Renesas/e2studio_2021_01_workspace_RZA2M_ANPR/ANPR_RZA2M_RDK/src/tensorflow_lite/src/third_party/gemmlowp/fixedpoint\fixedpoint.h **** template <typename tRawType, int tIntegerBits>
 819:C:/Renesas/e2studio_2021_01_workspace_RZA2M_ANPR/ANPR_RZA2M_RDK/src/tensorflow_lite/src/third_party/gemmlowp/fixedpoint\fixedpoint.h **** FixedPoint<tRawType, 0> neg_tanh_on_negative_values(
 820:C:/Renesas/e2studio_2021_01_workspace_RZA2M_ANPR/ANPR_RZA2M_RDK/src/tensorflow_lite/src/third_party/gemmlowp/fixedpoint\fixedpoint.h ****     FixedPoint<tRawType, tIntegerBits> a) {
 821:C:/Renesas/e2studio_2021_01_workspace_RZA2M_ANPR/ANPR_RZA2M_RDK/src/tensorflow_lite/src/third_party/gemmlowp/fixedpoint\fixedpoint.h ****   return one_minus_x_over_one_plus_x_for_x_in_0_1(
 5682              		.loc 4 821 0
 5683 03cc 020020E0 		eor	r0, r0, r2
 5684              	.LVL412:
 5685 03d0 0C108DE5 		str	r1, [sp, #12]
 5686 03d4 08308DE5 		str	r3, [sp, #8]
 5687 03d8 FEFFFFEB 		bl	_ZN8gemmlowp22exp_on_negative_valuesIlLi5EEENS_10FixedPointIT_Li0EEENS1_IS2_XT0_EEE
 5688              	.LVL413:
 822:C:/Renesas/e2studio_2021_01_workspace_RZA2M_ANPR/ANPR_RZA2M_RDK/src/tensorflow_lite/src/third_party/gemmlowp/fixedpoint\fixedpoint.h ****       exp_on_negative_values(ExactMulByPot<1>(a)));
 5689              		.loc 4 822 0
 5690 03dc FEFFFFEB 		bl	_ZN8gemmlowp40one_minus_x_over_one_plus_x_for_x_in_0_1IlEENS_10FixedPointIT_Li0EEES3_
 5691              	.LVL414:
 5692              	.LBE5248:
 5693              	.LBE5247:
 5694              	.LBB5249:
 5695              	.LBB5250:
 5696              	.LBB5251:
 5697              	.LBB5252:
  71:C:/Renesas/e2studio_2021_01_workspace_RZA2M_ANPR/ANPR_RZA2M_RDK/src/tensorflow_lite/src/third_party/gemmlowp/fixedpoint\fixedpoint.h **** }
 5698              		.loc 4 71 0
 5699 03e0 08309DE5 		ldr	r3, [sp, #8]
 5700              	.LBE5252:
 5701              	.LBE5251:
 5702              	.LBE5250:
 5703              	.LBE5249:
 5704              	.LBB5256:
 5705              	.LBB5257:
 5706              	.LBB5258:
 112:C:/Renesas/e2studio_2021_01_workspace_RZA2M_ANPR/ANPR_RZA2M_RDK/src/tensorflow_lite/src/third_party/gemmlowp/fixedpoint\fixedpoint.h **** }
 5707              		.loc 4 112 0
 5708 03e4 002060E2 		rsb	r2, r0, #0
 5709              	.LVL415:
 5710              	.LBE5258:
 5711              	.LBE5257:
 5712              	.LBE5256:
 5713              	.LBB5259:
 5714              	.LBB5260:
 5715              	.LBB5261:
 5716              	.LBB5262:
  71:C:/Renesas/e2studio_2021_01_workspace_RZA2M_ANPR/ANPR_RZA2M_RDK/src/tensorflow_lite/src/third_party/gemmlowp/fixedpoint\fixedpoint.h **** }
 5717              		.loc 4 71 0
 5718 03e8 00B00BE0 		and	fp, fp, r0
 5719              	.LVL416:
 5720              	.LBE5262:
 5721              	.LBE5261:
 5722              	.LBB5263:
 5723              	.LBB5264:
 5724 03ec 02A00AE0 		and	r10, r10, r2
 5725              	.LBE5264:
 5726              	.LBE5263:
 5727              	.LBB5265:
 5728              	.LBB5266:
  83:C:/Renesas/e2studio_2021_01_workspace_RZA2M_ANPR/ANPR_RZA2M_RDK/src/tensorflow_lite/src/third_party/gemmlowp/fixedpoint\fixedpoint.h **** }
 5729              		.loc 4 83 0
 5730 03f0 0BA02AE0 		eor	r10, r10, fp
 5731              	.LVL417:
 5732              	.LBE5266:
 5733              	.LBE5265:
 5734              	.LBE5260:
 5735              	.LBE5259:
 5736              	.LBE5227:
 5737              	.LBE5226:
 5738              	.LBB5271:
 5739              	.LBB5272:
 5740              	.LBB5273:
 5741              	.LBB5274:
 5742              	.LBB5275:
 158:C:/Renesas/e2studio_2021_01_workspace_RZA2M_ANPR/ANPR_RZA2M_RDK/src/tensorflow_lite/src/third_party/gemmlowp/fixedpoint\fixedpoint.h **** }
 5743              		.loc 4 158 0
 5744 03f4 0C109DE5 		ldr	r1, [sp, #12]
 5745              	.LBE5275:
 5746              	.LBE5274:
 5747              	.LBE5273:
 5748              	.LBE5272:
 5749              	.LBE5271:
 5750              	.LBB5290:
 5751              	.LBB5269:
 5752              	.LBB5267:
 5753              	.LBB5255:
 5754              	.LBB5254:
 5755              	.LBB5253:
  71:C:/Renesas/e2studio_2021_01_workspace_RZA2M_ANPR/ANPR_RZA2M_RDK/src/tensorflow_lite/src/third_party/gemmlowp/fixedpoint\fixedpoint.h **** }
 5756              		.loc 4 71 0
 5757 03f8 0A3003E0 		and	r3, r3, r10
 5758              	.LVL418:
 5759              	.LBE5253:
 5760              	.LBE5254:
 5761              	.LBE5255:
 5762              	.LBE5267:
 5763              	.LBE5269:
 5764              	.LBE5290:
 5765              	.LBB5291:
 5766              	.LBB5289:
 5767              	.LBB5278:
 5768              	.LBB5279:
 5769 03fc A32FA0E1 		lsr	r2, r3, #31
 5770              	.LVL419:
 5771              	.LBE5279:
 5772              	.LBE5278:
 5773              	.LBB5280:
 5774              	.LBB5281:
 5775 0400 FF04C3E3 		bic	r0, r3, #-16777216
 5776              	.LVL420:
 5777              	.LBE5281:
 5778              	.LBE5280:
 5779              	.LBB5282:
 5780              	.LBB5283:
 141:C:/Renesas/e2studio_2021_01_workspace_RZA2M_ANPR/ANPR_RZA2M_RDK/src/tensorflow_lite/src/third_party/gemmlowp/fixedpoint\fixedpoint.h **** }
 5781              		.loc 4 141 0
 5782 0404 433CA0E1 		asr	r3, r3, #24
 5783              	.LVL421:
 5784              	.LBE5283:
 5785              	.LBE5282:
 5786              	.LBB5284:
 5787              	.LBB5285:
  95:C:/Renesas/e2studio_2021_01_workspace_RZA2M_ANPR/ANPR_RZA2M_RDK/src/tensorflow_lite/src/third_party/gemmlowp/fixedpoint\fixedpoint.h **** }
 5788              		.loc 4 95 0
 5789 0408 7F2342E2 		sub	r2, r2, #-67108863
 5790 040c 0E2542E2 		sub	r2, r2, #58720256
 5791              	.LBE5285:
 5792              	.LBE5284:
 5793              	.LBB5286:
 5794              	.LBB5277:
 5795              	.LBB5276:
 158:C:/Renesas/e2studio_2021_01_workspace_RZA2M_ANPR/ANPR_RZA2M_RDK/src/tensorflow_lite/src/third_party/gemmlowp/fixedpoint\fixedpoint.h **** }
 5796              		.loc 4 158 0
 5797 0410 020050E1 		cmp	r0, r2
 5798 0414 020000DA 		ble	.L306
 5799              	.LBE5276:
 5800              	.LBE5277:
 5801              	.LBE5286:
 5802              	.LBB5287:
 5803              	.LBB5288:
  95:C:/Renesas/e2studio_2021_01_workspace_RZA2M_ANPR/ANPR_RZA2M_RDK/src/tensorflow_lite/src/third_party/gemmlowp/fixedpoint\fixedpoint.h **** }
 5804              		.loc 4 95 0
 5805 0418 013083E2 		add	r3, r3, #1
 5806              	.LVL422:
 5807              	.LBE5288:
 5808              	.LBE5287:
 5809              	.LBE5289:
 5810              	.LBE5291:
 5811              	.LBB5292:
 5812              	.LBB5224:
 5813              		.loc 5 200 0
 5814 041c 800053E3 		cmp	r3, #128
 5815 0420 B7FFFF0A 		beq	.L399
 5816              	.LVL423:
 5817              	.L306:
 5818 0424 7330AFE6 		sxtb	r3, r3
 5819              	.LVL424:
 5820 0428 B6FFFFEA 		b	.L307
 5821              	.LVL425:
 5822              	.L180:
 5823              	.LBE5224:
 5824              	.LBE5292:
 5825              	.LBE5297:
 5826              	.LBE5302:
 5827              	.LBE5307:
 5828              	.LBE5312:
 5829              	.LBE5179:
 5830              	.LBE5126:
 5831              	.LBE5125:
 5832              	.LBB5335:
 108:../src/tensorflow_lite/src/tensorflow/lite/micro/kernels/tanh.cpp ****                           tflite::micro::GetTensorData<int16_t>(input),
 5833              		.loc 1 108 0
 5834 042c 0710A0E1 		mov	r1, r7
 5835 0430 20008DE2 		add	r0, sp, #32
 107:../src/tensorflow_lite/src/tensorflow/lite/micro/kernels/tanh.cpp ****       reference_ops::Tanh(params, tflite::micro::GetTensorShape(input),
 5836              		.loc 1 107 0
 5837 0434 0C5093E5 		ldr	r5, [r3, #12]
 5838              	.LVL426:
 5839              	.LEHB2:
 108:../src/tensorflow_lite/src/tensorflow/lite/micro/kernels/tanh.cpp ****                           tflite::micro::GetTensorData<int16_t>(input),
 5840              		.loc 1 108 0
 5841 0438 FEFFFFEB 		bl	_ZN6tflite5micro14GetTensorShapeEPK16TfLiteEvalTensor
 5842              	.LVL427:
 5843              	.LEHE2:
 110:../src/tensorflow_lite/src/tensorflow/lite/micro/kernels/tanh.cpp ****                           tflite::micro::GetTensorData<int16_t>(output));
 5844              		.loc 1 110 0
 5845 043c 0410A0E1 		mov	r1, r4
 5846 0440 38008DE2 		add	r0, sp, #56
 5847              	.LBB5336:
 5848              	.LBB5337:
 5849              		.loc 6 63 0
 5850 0444 009097E5 		ldr	r9, [r7]
 5851              	.LEHB3:
 5852              	.LBE5337:
 5853              	.LBE5336:
 110:../src/tensorflow_lite/src/tensorflow/lite/micro/kernels/tanh.cpp ****                           tflite::micro::GetTensorData<int16_t>(output));
 5854              		.loc 1 110 0
 5855 0448 FEFFFFEB 		bl	_ZN6tflite5micro14GetTensorShapeEPK16TfLiteEvalTensor
 5856              	.LVL428:
 5857              	.LEHE3:
 5858              	.LBB5338:
 5859              	.LBB5339:
  56:C:/Renesas/e2studio_2021_01_workspace_RZA2M_ANPR/ANPR_RZA2M_RDK/src/tensorflow_lite/src/tensorflow/lite/micro/kernels\kernel_util.h **** }
 5860              		.loc 6 56 0
 5861 044c 000054E3 		cmp	r4, #0
 5862 0450 00409415 		ldrne	r4, [r4]
 5863              	.LVL429:
 5864              	.LBE5339:
 5865              	.LBE5338:
 5866              	.LBB5340:
 5867              	.LBB5341:
 5868              		.file 10 "C:/Renesas/e2studio_2021_01_workspace_RZA2M_ANPR/ANPR_RZA2M_RDK/src/tensorflow_lite/src/
   1:C:/Renesas/e2studio_2021_01_workspace_RZA2M_ANPR/ANPR_RZA2M_RDK/src/tensorflow_lite/src/tensorflow/lite/kernels/internal/reference\tanh.h **** /* Copyright 2020 The TensorFlow Authors. All Rights Reserved.
   2:C:/Renesas/e2studio_2021_01_workspace_RZA2M_ANPR/ANPR_RZA2M_RDK/src/tensorflow_lite/src/tensorflow/lite/kernels/internal/reference\tanh.h **** 
   3:C:/Renesas/e2studio_2021_01_workspace_RZA2M_ANPR/ANPR_RZA2M_RDK/src/tensorflow_lite/src/tensorflow/lite/kernels/internal/reference\tanh.h **** Licensed under the Apache License, Version 2.0 (the "License");
   4:C:/Renesas/e2studio_2021_01_workspace_RZA2M_ANPR/ANPR_RZA2M_RDK/src/tensorflow_lite/src/tensorflow/lite/kernels/internal/reference\tanh.h **** you may not use this file except in compliance with the License.
   5:C:/Renesas/e2studio_2021_01_workspace_RZA2M_ANPR/ANPR_RZA2M_RDK/src/tensorflow_lite/src/tensorflow/lite/kernels/internal/reference\tanh.h **** You may obtain a copy of the License at
   6:C:/Renesas/e2studio_2021_01_workspace_RZA2M_ANPR/ANPR_RZA2M_RDK/src/tensorflow_lite/src/tensorflow/lite/kernels/internal/reference\tanh.h **** 
   7:C:/Renesas/e2studio_2021_01_workspace_RZA2M_ANPR/ANPR_RZA2M_RDK/src/tensorflow_lite/src/tensorflow/lite/kernels/internal/reference\tanh.h ****     http://www.apache.org/licenses/LICENSE-2.0
   8:C:/Renesas/e2studio_2021_01_workspace_RZA2M_ANPR/ANPR_RZA2M_RDK/src/tensorflow_lite/src/tensorflow/lite/kernels/internal/reference\tanh.h **** 
   9:C:/Renesas/e2studio_2021_01_workspace_RZA2M_ANPR/ANPR_RZA2M_RDK/src/tensorflow_lite/src/tensorflow/lite/kernels/internal/reference\tanh.h **** Unless required by applicable law or agreed to in writing, software
  10:C:/Renesas/e2studio_2021_01_workspace_RZA2M_ANPR/ANPR_RZA2M_RDK/src/tensorflow_lite/src/tensorflow/lite/kernels/internal/reference\tanh.h **** distributed under the License is distributed on an "AS IS" BASIS,
  11:C:/Renesas/e2studio_2021_01_workspace_RZA2M_ANPR/ANPR_RZA2M_RDK/src/tensorflow_lite/src/tensorflow/lite/kernels/internal/reference\tanh.h **** WITHOUT WARRANTIES OR CONDITIONS OF ANY KIND, either express or implied.
  12:C:/Renesas/e2studio_2021_01_workspace_RZA2M_ANPR/ANPR_RZA2M_RDK/src/tensorflow_lite/src/tensorflow/lite/kernels/internal/reference\tanh.h **** See the License for the specific language governing permissions and
  13:C:/Renesas/e2studio_2021_01_workspace_RZA2M_ANPR/ANPR_RZA2M_RDK/src/tensorflow_lite/src/tensorflow/lite/kernels/internal/reference\tanh.h **** limitations under the License.
  14:C:/Renesas/e2studio_2021_01_workspace_RZA2M_ANPR/ANPR_RZA2M_RDK/src/tensorflow_lite/src/tensorflow/lite/kernels/internal/reference\tanh.h **** ==============================================================================*/
  15:C:/Renesas/e2studio_2021_01_workspace_RZA2M_ANPR/ANPR_RZA2M_RDK/src/tensorflow_lite/src/tensorflow/lite/kernels/internal/reference\tanh.h **** #ifndef TENSORFLOW_LITE_KERNELS_INTERNAL_REFERENCE_TANH_H_
  16:C:/Renesas/e2studio_2021_01_workspace_RZA2M_ANPR/ANPR_RZA2M_RDK/src/tensorflow_lite/src/tensorflow/lite/kernels/internal/reference\tanh.h **** #define TENSORFLOW_LITE_KERNELS_INTERNAL_REFERENCE_TANH_H_
  17:C:/Renesas/e2studio_2021_01_workspace_RZA2M_ANPR/ANPR_RZA2M_RDK/src/tensorflow_lite/src/tensorflow/lite/kernels/internal/reference\tanh.h **** 
  18:C:/Renesas/e2studio_2021_01_workspace_RZA2M_ANPR/ANPR_RZA2M_RDK/src/tensorflow_lite/src/tensorflow/lite/kernels/internal/reference\tanh.h **** #include <cmath>
  19:C:/Renesas/e2studio_2021_01_workspace_RZA2M_ANPR/ANPR_RZA2M_RDK/src/tensorflow_lite/src/tensorflow/lite/kernels/internal/reference\tanh.h **** 
  20:C:/Renesas/e2studio_2021_01_workspace_RZA2M_ANPR/ANPR_RZA2M_RDK/src/tensorflow_lite/src/tensorflow/lite/kernels/internal/reference\tanh.h **** #include "third_party/gemmlowp/fixedpoint/fixedpoint.h"
  21:C:/Renesas/e2studio_2021_01_workspace_RZA2M_ANPR/ANPR_RZA2M_RDK/src/tensorflow_lite/src/tensorflow/lite/kernels/internal/reference\tanh.h **** #include "tensorflow/lite/kernels/internal/common.h"
  22:C:/Renesas/e2studio_2021_01_workspace_RZA2M_ANPR/ANPR_RZA2M_RDK/src/tensorflow_lite/src/tensorflow/lite/kernels/internal/reference\tanh.h **** #include "tensorflow/lite/kernels/internal/cppmath.h"
  23:C:/Renesas/e2studio_2021_01_workspace_RZA2M_ANPR/ANPR_RZA2M_RDK/src/tensorflow_lite/src/tensorflow/lite/kernels/internal/reference\tanh.h **** #include "tensorflow/lite/kernels/internal/types.h"
  24:C:/Renesas/e2studio_2021_01_workspace_RZA2M_ANPR/ANPR_RZA2M_RDK/src/tensorflow_lite/src/tensorflow/lite/kernels/internal/reference\tanh.h **** #include "tensorflow/lite/kernels/op_macros.h"
  25:C:/Renesas/e2studio_2021_01_workspace_RZA2M_ANPR/ANPR_RZA2M_RDK/src/tensorflow_lite/src/tensorflow/lite/kernels/internal/reference\tanh.h **** 
  26:C:/Renesas/e2studio_2021_01_workspace_RZA2M_ANPR/ANPR_RZA2M_RDK/src/tensorflow_lite/src/tensorflow/lite/kernels/internal/reference\tanh.h **** namespace tflite {
  27:C:/Renesas/e2studio_2021_01_workspace_RZA2M_ANPR/ANPR_RZA2M_RDK/src/tensorflow_lite/src/tensorflow/lite/kernels/internal/reference\tanh.h **** namespace reference_ops {
  28:C:/Renesas/e2studio_2021_01_workspace_RZA2M_ANPR/ANPR_RZA2M_RDK/src/tensorflow_lite/src/tensorflow/lite/kernels/internal/reference\tanh.h **** 
  29:C:/Renesas/e2studio_2021_01_workspace_RZA2M_ANPR/ANPR_RZA2M_RDK/src/tensorflow_lite/src/tensorflow/lite/kernels/internal/reference\tanh.h **** inline void Tanh(const RuntimeShape& input_shape, const float* input_data,
  30:C:/Renesas/e2studio_2021_01_workspace_RZA2M_ANPR/ANPR_RZA2M_RDK/src/tensorflow_lite/src/tensorflow/lite/kernels/internal/reference\tanh.h ****                  const RuntimeShape& output_shape, float* output_data) {
  31:C:/Renesas/e2studio_2021_01_workspace_RZA2M_ANPR/ANPR_RZA2M_RDK/src/tensorflow_lite/src/tensorflow/lite/kernels/internal/reference\tanh.h ****   const int flat_size = MatchingFlatSize(input_shape, output_shape);
  32:C:/Renesas/e2studio_2021_01_workspace_RZA2M_ANPR/ANPR_RZA2M_RDK/src/tensorflow_lite/src/tensorflow/lite/kernels/internal/reference\tanh.h **** 
  33:C:/Renesas/e2studio_2021_01_workspace_RZA2M_ANPR/ANPR_RZA2M_RDK/src/tensorflow_lite/src/tensorflow/lite/kernels/internal/reference\tanh.h ****   for (int i = 0; i < flat_size; i++) {
  34:C:/Renesas/e2studio_2021_01_workspace_RZA2M_ANPR/ANPR_RZA2M_RDK/src/tensorflow_lite/src/tensorflow/lite/kernels/internal/reference\tanh.h ****     float val = input_data[i];
  35:C:/Renesas/e2studio_2021_01_workspace_RZA2M_ANPR/ANPR_RZA2M_RDK/src/tensorflow_lite/src/tensorflow/lite/kernels/internal/reference\tanh.h ****     float result = std::tanh(val);
  36:C:/Renesas/e2studio_2021_01_workspace_RZA2M_ANPR/ANPR_RZA2M_RDK/src/tensorflow_lite/src/tensorflow/lite/kernels/internal/reference\tanh.h ****     output_data[i] = result;
  37:C:/Renesas/e2studio_2021_01_workspace_RZA2M_ANPR/ANPR_RZA2M_RDK/src/tensorflow_lite/src/tensorflow/lite/kernels/internal/reference\tanh.h ****   }
  38:C:/Renesas/e2studio_2021_01_workspace_RZA2M_ANPR/ANPR_RZA2M_RDK/src/tensorflow_lite/src/tensorflow/lite/kernels/internal/reference\tanh.h **** }
  39:C:/Renesas/e2studio_2021_01_workspace_RZA2M_ANPR/ANPR_RZA2M_RDK/src/tensorflow_lite/src/tensorflow/lite/kernels/internal/reference\tanh.h **** 
  40:C:/Renesas/e2studio_2021_01_workspace_RZA2M_ANPR/ANPR_RZA2M_RDK/src/tensorflow_lite/src/tensorflow/lite/kernels/internal/reference\tanh.h **** // Convenience version that allows, for example, generated-code calls to be
  41:C:/Renesas/e2studio_2021_01_workspace_RZA2M_ANPR/ANPR_RZA2M_RDK/src/tensorflow_lite/src/tensorflow/lite/kernels/internal/reference\tanh.h **** // uniform between data types.
  42:C:/Renesas/e2studio_2021_01_workspace_RZA2M_ANPR/ANPR_RZA2M_RDK/src/tensorflow_lite/src/tensorflow/lite/kernels/internal/reference\tanh.h **** inline void Tanh(const TanhParams&, const RuntimeShape& input_shape,
  43:C:/Renesas/e2studio_2021_01_workspace_RZA2M_ANPR/ANPR_RZA2M_RDK/src/tensorflow_lite/src/tensorflow/lite/kernels/internal/reference\tanh.h ****                  const float* input_data, const RuntimeShape& output_shape,
  44:C:/Renesas/e2studio_2021_01_workspace_RZA2M_ANPR/ANPR_RZA2M_RDK/src/tensorflow_lite/src/tensorflow/lite/kernels/internal/reference\tanh.h ****                  float* output_data) {
  45:C:/Renesas/e2studio_2021_01_workspace_RZA2M_ANPR/ANPR_RZA2M_RDK/src/tensorflow_lite/src/tensorflow/lite/kernels/internal/reference\tanh.h ****   // Drop params: not needed.
  46:C:/Renesas/e2studio_2021_01_workspace_RZA2M_ANPR/ANPR_RZA2M_RDK/src/tensorflow_lite/src/tensorflow/lite/kernels/internal/reference\tanh.h ****   Tanh(input_shape, input_data, output_shape, output_data);
  47:C:/Renesas/e2studio_2021_01_workspace_RZA2M_ANPR/ANPR_RZA2M_RDK/src/tensorflow_lite/src/tensorflow/lite/kernels/internal/reference\tanh.h **** }
  48:C:/Renesas/e2studio_2021_01_workspace_RZA2M_ANPR/ANPR_RZA2M_RDK/src/tensorflow_lite/src/tensorflow/lite/kernels/internal/reference\tanh.h **** 
  49:C:/Renesas/e2studio_2021_01_workspace_RZA2M_ANPR/ANPR_RZA2M_RDK/src/tensorflow_lite/src/tensorflow/lite/kernels/internal/reference\tanh.h **** inline void Tanh(const TanhParams& params, const RuntimeShape& input_shape,
  50:C:/Renesas/e2studio_2021_01_workspace_RZA2M_ANPR/ANPR_RZA2M_RDK/src/tensorflow_lite/src/tensorflow/lite/kernels/internal/reference\tanh.h ****                  const int16_t* input_data, const RuntimeShape& output_shape,
  51:C:/Renesas/e2studio_2021_01_workspace_RZA2M_ANPR/ANPR_RZA2M_RDK/src/tensorflow_lite/src/tensorflow/lite/kernels/internal/reference\tanh.h ****                  int16_t* output_data) {
  52:C:/Renesas/e2studio_2021_01_workspace_RZA2M_ANPR/ANPR_RZA2M_RDK/src/tensorflow_lite/src/tensorflow/lite/kernels/internal/reference\tanh.h ****   const int input_left_shift = params.input_left_shift;
  53:C:/Renesas/e2studio_2021_01_workspace_RZA2M_ANPR/ANPR_RZA2M_RDK/src/tensorflow_lite/src/tensorflow/lite/kernels/internal/reference\tanh.h ****   // Support for shifts is limited until we have a parameterized version of
  54:C:/Renesas/e2studio_2021_01_workspace_RZA2M_ANPR/ANPR_RZA2M_RDK/src/tensorflow_lite/src/tensorflow/lite/kernels/internal/reference\tanh.h ****   // SaturatingRoundingMultiplyByPOT().
  55:C:/Renesas/e2studio_2021_01_workspace_RZA2M_ANPR/ANPR_RZA2M_RDK/src/tensorflow_lite/src/tensorflow/lite/kernels/internal/reference\tanh.h ****   TFLITE_DCHECK_GE(input_left_shift, 0);
 5869              		.loc 10 55 0
 5870 0454 000055E3 		cmp	r5, #0
 5871 0458 3F0300BA 		blt	.L563
  56:C:/Renesas/e2studio_2021_01_workspace_RZA2M_ANPR/ANPR_RZA2M_RDK/src/tensorflow_lite/src/tensorflow/lite/kernels/internal/reference\tanh.h ****   TFLITE_DCHECK_LE(input_left_shift, 1);
 5872              		.loc 10 56 0
 5873 045c 010055E3 		cmp	r5, #1
 5874 0460 470300CA 		bgt	.L564
 5875              	.LVL430:
 5876 0464 20109DE5 		ldr	r1, [sp, #32]
 5877              	.LVL431:
 5878 0468 38609DE5 		ldr	r6, [sp, #56]
 5879              	.LVL432:
 5880              	.LBB5342:
 5881              	.LBB5343:
 521:C:/Renesas/e2studio_2021_01_workspace_RZA2M_ANPR/ANPR_RZA2M_RDK/src/tensorflow_lite/src/tensorflow/lite/kernels/internal\types.h ****   const int dims_count = shape.DimensionsCount();
 5882              		.loc 7 521 0
 5883 046c 060051E1 		cmp	r1, r6
 5884 0470 2E03001A 		bne	.L217
 5885              	.LVL433:
 5886              	.LBB5344:
 523:C:/Renesas/e2studio_2021_01_workspace_RZA2M_ANPR/ANPR_RZA2M_RDK/src/tensorflow_lite/src/tensorflow/lite/kernels/internal\types.h ****     TFLITE_DCHECK_EQ(shape.Dims(i), check_shape_0.Dims(i));
 5887              		.loc 7 523 0
 5888 0474 000051E3 		cmp	r1, #0
 5889 0478 D30200DA 		ble	.L218
 5890 047c 050051E3 		cmp	r1, #5
 5891              	.LBB5345:
 5892              	.LBB5346:
 216:C:/Renesas/e2studio_2021_01_workspace_RZA2M_ANPR/ANPR_RZA2M_RDK/src/tensorflow_lite/src/tensorflow/lite/kernels/internal\types.h ****   }
 5893              		.loc 7 216 0
 5894 0480 24709DE5 		ldr	r7, [sp, #36]
 5895              	.LBE5346:
 5896              	.LBE5345:
 5897              	.LBB5352:
 5898              	.LBB5353:
 5899 0484 3C009DE5 		ldr	r0, [sp, #60]
 5900 0488 C00200CA 		bgt	.L220
 5901              	.LVL434:
 215:C:/Renesas/e2studio_2021_01_workspace_RZA2M_ANPR/ANPR_RZA2M_RDK/src/tensorflow_lite/src/tensorflow/lite/kernels/internal\types.h ****     return size_ > kMaxSmallSize ? dims_pointer_[i] : dims_[i];
 5902              		.loc 7 215 0
 5903 048c 000051E3 		cmp	r1, #0
 5904 0490 200300DA 		ble	.L221
 5905              	.LVL435:
 5906              	.LBE5353:
 5907              	.LBE5352:
 5908              		.loc 7 524 0
 5909 0494 000057E1 		cmp	r7, r0
 5910 0498 1C03001A 		bne	.L222
 5911              	.LVL436:
 523:C:/Renesas/e2studio_2021_01_workspace_RZA2M_ANPR/ANPR_RZA2M_RDK/src/tensorflow_lite/src/tensorflow/lite/kernels/internal\types.h ****     TFLITE_DCHECK_EQ(shape.Dims(i), check_shape_0.Dims(i));
 5912              		.loc 7 523 0
 5913 049c 010051E3 		cmp	r1, #1
 5914 04a0 1B00000A 		beq	.L350
 5915              	.LVL437:
 5916              	.LBB5363:
 5917              	.LBB5347:
 216:C:/Renesas/e2studio_2021_01_workspace_RZA2M_ANPR/ANPR_RZA2M_RDK/src/tensorflow_lite/src/tensorflow/lite/kernels/internal\types.h ****   }
 5918              		.loc 7 216 0
 5919 04a4 28209DE5 		ldr	r2, [sp, #40]
 5920              	.LVL438:
 5921              	.LBE5347:
 5922              	.LBE5363:
 5923              		.loc 7 524 0
 5924 04a8 40309DE5 		ldr	r3, [sp, #64]
 5925 04ac 030052E1 		cmp	r2, r3
 5926 04b0 1603001A 		bne	.L222
 5927              	.LVL439:
 523:C:/Renesas/e2studio_2021_01_workspace_RZA2M_ANPR/ANPR_RZA2M_RDK/src/tensorflow_lite/src/tensorflow/lite/kernels/internal\types.h ****     TFLITE_DCHECK_EQ(shape.Dims(i), check_shape_0.Dims(i));
 5928              		.loc 7 523 0
 5929 04b4 020051E3 		cmp	r1, #2
 5930 04b8 1500000A 		beq	.L350
 5931              	.LVL440:
 5932              	.LBB5364:
 5933              	.LBB5354:
 215:C:/Renesas/e2studio_2021_01_workspace_RZA2M_ANPR/ANPR_RZA2M_RDK/src/tensorflow_lite/src/tensorflow/lite/kernels/internal\types.h ****     return size_ > kMaxSmallSize ? dims_pointer_[i] : dims_[i];
 5934              		.loc 7 215 0
 5935 04bc 020056E3 		cmp	r6, #2
 5936              	.LBE5354:
 5937              	.LBE5364:
 5938              	.LBB5365:
 5939              	.LBB5348:
 216:C:/Renesas/e2studio_2021_01_workspace_RZA2M_ANPR/ANPR_RZA2M_RDK/src/tensorflow_lite/src/tensorflow/lite/kernels/internal\types.h ****   }
 5940              		.loc 7 216 0
 5941 04c0 2C209DE5 		ldr	r2, [sp, #44]
 5942              	.LVL441:
 5943              	.LBE5348:
 5944              	.LBE5365:
 5945              	.LBB5366:
 5946              	.LBB5355:
 215:C:/Renesas/e2studio_2021_01_workspace_RZA2M_ANPR/ANPR_RZA2M_RDK/src/tensorflow_lite/src/tensorflow/lite/kernels/internal\types.h ****     return size_ > kMaxSmallSize ? dims_pointer_[i] : dims_[i];
 5947              		.loc 7 215 0
 5948 04c4 1303000A 		beq	.L221
 5949              	.LVL442:
 5950              	.LBE5355:
 5951              	.LBE5366:
 5952              		.loc 7 524 0
 5953 04c8 44309DE5 		ldr	r3, [sp, #68]
 5954 04cc 030052E1 		cmp	r2, r3
 5955 04d0 0E03001A 		bne	.L222
 5956              	.LVL443:
 523:C:/Renesas/e2studio_2021_01_workspace_RZA2M_ANPR/ANPR_RZA2M_RDK/src/tensorflow_lite/src/tensorflow/lite/kernels/internal\types.h ****     TFLITE_DCHECK_EQ(shape.Dims(i), check_shape_0.Dims(i));
 5957              		.loc 7 523 0
 5958 04d4 030051E3 		cmp	r1, #3
 5959 04d8 0D00000A 		beq	.L350
 5960              	.LVL444:
 5961              	.LBB5367:
 5962              	.LBB5356:
 215:C:/Renesas/e2studio_2021_01_workspace_RZA2M_ANPR/ANPR_RZA2M_RDK/src/tensorflow_lite/src/tensorflow/lite/kernels/internal\types.h ****     return size_ > kMaxSmallSize ? dims_pointer_[i] : dims_[i];
 5963              		.loc 7 215 0
 5964 04dc 030056E3 		cmp	r6, #3
 5965              	.LBE5356:
 5966              	.LBE5367:
 5967              	.LBB5368:
 5968              	.LBB5349:
 216:C:/Renesas/e2studio_2021_01_workspace_RZA2M_ANPR/ANPR_RZA2M_RDK/src/tensorflow_lite/src/tensorflow/lite/kernels/internal\types.h ****   }
 5969              		.loc 7 216 0
 5970 04e0 30209DE5 		ldr	r2, [sp, #48]
 5971              	.LVL445:
 5972              	.LBE5349:
 5973              	.LBE5368:
 5974              	.LBB5369:
 5975              	.LBB5357:
 215:C:/Renesas/e2studio_2021_01_workspace_RZA2M_ANPR/ANPR_RZA2M_RDK/src/tensorflow_lite/src/tensorflow/lite/kernels/internal\types.h ****     return size_ > kMaxSmallSize ? dims_pointer_[i] : dims_[i];
 5976              		.loc 7 215 0
 5977 04e4 0B03000A 		beq	.L221
 5978              	.LVL446:
 5979              	.LBE5357:
 5980              	.LBE5369:
 5981              		.loc 7 524 0
 5982 04e8 48309DE5 		ldr	r3, [sp, #72]
 5983 04ec 030052E1 		cmp	r2, r3
 5984 04f0 0603001A 		bne	.L222
 5985              	.LVL447:
 523:C:/Renesas/e2studio_2021_01_workspace_RZA2M_ANPR/ANPR_RZA2M_RDK/src/tensorflow_lite/src/tensorflow/lite/kernels/internal\types.h ****     TFLITE_DCHECK_EQ(shape.Dims(i), check_shape_0.Dims(i));
 5986              		.loc 7 523 0
 5987 04f4 040051E3 		cmp	r1, #4
 5988 04f8 0500000A 		beq	.L350
 5989              	.LVL448:
 5990              	.LBB5370:
 5991              	.LBB5358:
 215:C:/Renesas/e2studio_2021_01_workspace_RZA2M_ANPR/ANPR_RZA2M_RDK/src/tensorflow_lite/src/tensorflow/lite/kernels/internal\types.h ****     return size_ > kMaxSmallSize ? dims_pointer_[i] : dims_[i];
 5992              		.loc 7 215 0
 5993 04fc 040056E3 		cmp	r6, #4
 5994              	.LBE5358:
 5995              	.LBE5370:
 5996              	.LBB5371:
 5997              	.LBB5350:
 216:C:/Renesas/e2studio_2021_01_workspace_RZA2M_ANPR/ANPR_RZA2M_RDK/src/tensorflow_lite/src/tensorflow/lite/kernels/internal\types.h ****   }
 5998              		.loc 7 216 0
 5999 0500 34209DE5 		ldr	r2, [sp, #52]
 6000              	.LVL449:
 6001              	.LBE5350:
 6002              	.LBE5371:
 6003              	.LBB5372:
 6004              	.LBB5359:
 215:C:/Renesas/e2studio_2021_01_workspace_RZA2M_ANPR/ANPR_RZA2M_RDK/src/tensorflow_lite/src/tensorflow/lite/kernels/internal\types.h ****     return size_ > kMaxSmallSize ? dims_pointer_[i] : dims_[i];
 6005              		.loc 7 215 0
 6006 0504 0303000A 		beq	.L221
 6007              	.LVL450:
 6008              	.LBE5359:
 6009              	.LBE5372:
 6010              		.loc 7 524 0
 6011 0508 4C309DE5 		ldr	r3, [sp, #76]
 6012 050c 030052E1 		cmp	r2, r3
 6013 0510 FE02001A 		bne	.L222
 6014              	.LVL451:
 6015              	.L350:
 6016              	.LBE5344:
 6017              	.LBB5377:
 6018              	.LBB5378:
 6019              	.LBB5379:
 6020              	.LBB5380:
 232:C:/Renesas/e2studio_2021_01_workspace_RZA2M_ANPR/ANPR_RZA2M_RDK/src/tensorflow_lite/src/tensorflow/lite/kernels/internal\types.h ****   }
 6021              		.loc 7 232 0
 6022 0514 24C08DE2 		add	ip, sp, #36
 6023              	.L223:
 6024              	.LVL452:
 6025 0518 5C31A0E7 		sbfx	r3, ip, #2, #1
 6026 051c 033003E2 		and	r3, r3, #3
 6027 0520 010053E1 		cmp	r3, r1
 6028 0524 0130A021 		movcs	r3, r1
 6029 0528 080051E3 		cmp	r1, #8
 6030 052c 0130A091 		movls	r3, r1
 6031 0530 000053E3 		cmp	r3, #0
 6032 0534 CE02000A 		beq	.L351
 6033 0538 010053E3 		cmp	r3, #1
 6034              	.LBE5380:
 6035              	.LBE5379:
 6036              	.LBB5382:
 293:C:/Renesas/e2studio_2021_01_workspace_RZA2M_ANPR/ANPR_RZA2M_RDK/src/tensorflow_lite/src/tensorflow/lite/kernels/internal\types.h ****     }
 6037              		.loc 7 293 0
 6038 053c 00809CE5 		ldr	r8, [ip]
 6039              	.LVL453:
 6040 0540 5302000A 		beq	.L358
 6041 0544 04209CE5 		ldr	r2, [ip, #4]
 6042 0548 020053E3 		cmp	r3, #2
 6043 054c 920808E0 		mul	r8, r2, r8
 6044              	.LVL454:
 6045 0550 4F02000A 		beq	.L358
 6046 0554 08209CE5 		ldr	r2, [ip, #8]
 6047 0558 030053E3 		cmp	r3, #3
 6048 055c 920808E0 		mul	r8, r2, r8
 6049              	.LVL455:
 6050 0560 4B02000A 		beq	.L358
 6051 0564 0C209CE5 		ldr	r2, [ip, #12]
 6052 0568 040053E3 		cmp	r3, #4
 6053 056c 920808E0 		mul	r8, r2, r8
 6054              	.LVL456:
 6055 0570 4702000A 		beq	.L358
 6056 0574 10209CE5 		ldr	r2, [ip, #16]
 6057 0578 050053E3 		cmp	r3, #5
 6058 057c 920808E0 		mul	r8, r2, r8
 6059              	.LVL457:
 6060 0580 4302000A 		beq	.L358
 6061 0584 14209CE5 		ldr	r2, [ip, #20]
 6062 0588 060053E3 		cmp	r3, #6
 6063 058c 920808E0 		mul	r8, r2, r8
 6064              	.LVL458:
 6065 0590 3F02000A 		beq	.L358
 6066 0594 18209CE5 		ldr	r2, [ip, #24]
 6067 0598 070053E3 		cmp	r3, #7
 6068 059c 920808E0 		mul	r8, r2, r8
 6069              	.LVL459:
 6070 05a0 3B02000A 		beq	.L358
 6071 05a4 1C009CE5 		ldr	r0, [ip, #28]
 292:C:/Renesas/e2studio_2021_01_workspace_RZA2M_ANPR/ANPR_RZA2M_RDK/src/tensorflow_lite/src/tensorflow/lite/kernels/internal\types.h ****       buffer_size *= dims_data[i];
 6072              		.loc 7 292 0
 6073 05a8 0820A0E3 		mov	r2, #8
 293:C:/Renesas/e2studio_2021_01_workspace_RZA2M_ANPR/ANPR_RZA2M_RDK/src/tensorflow_lite/src/tensorflow/lite/kernels/internal\types.h ****     }
 6074              		.loc 7 293 0
 6075 05ac 900808E0 		mul	r8, r0, r8
 6076              	.LVL460:
 6077              	.L229:
 6078 05b0 010053E1 		cmp	r3, r1
 6079 05b4 2800000A 		beq	.L230
 6080              	.LVL461:
 6081              	.L228:
 6082 05b8 036041E0 		sub	r6, r1, r3
 6083 05bc 01E041E2 		sub	lr, r1, #1
 6084 05c0 040046E2 		sub	r0, r6, #4
 6085 05c4 03E04EE0 		sub	lr, lr, r3
 6086 05c8 2001A0E1 		lsr	r0, r0, #2
 6087 05cc 02005EE3 		cmp	lr, #2
 6088 05d0 010080E2 		add	r0, r0, #1
 6089 05d4 0071A0E1 		lsl	r7, r0, #2
 6090 05d8 1200009A 		bls	.L231
 6091 05dc 03318CE0 		add	r3, ip, r3, lsl #2
 292:C:/Renesas/e2studio_2021_01_workspace_RZA2M_ANPR/ANPR_RZA2M_RDK/src/tensorflow_lite/src/tensorflow/lite/kernels/internal\types.h ****       buffer_size *= dims_data[i];
 6092              		.loc 7 292 0
 6093 05e0 5120C0F2 		vmov.i32	q9, #1  @ v4si
 6094 05e4 00E0A0E3 		mov	lr, #0
 6095              	.L233:
 6096 05e8 01E08EE2 		add	lr, lr, #1
 293:C:/Renesas/e2studio_2021_01_workspace_RZA2M_ANPR/ANPR_RZA2M_RDK/src/tensorflow_lite/src/tensorflow/lite/kernels/internal\types.h ****     }
 6097              		.loc 7 293 0
 6098 05ec DF0A63F4 		vld1.64	{d16-d17}, [r3:64]
 6099 05f0 0E0050E1 		cmp	r0, lr
 6100 05f4 103083E2 		add	r3, r3, #16
 6101 05f8 F02962F2 		vmul.i32	q9, q9, q8
 6102 05fc F9FFFF8A 		bhi	.L233
 6103 0600 060057E1 		cmp	r7, r6
 6104 0604 072082E0 		add	r2, r2, r7
 6105 0608 5000C0F2 		vmov.i32	q8, #0  @ v4si
 6106 060c E048F2F2 		vext.32	q10, q9, q8, #2
 6107 0610 F22964F2 		vmul.i32	q9, q10, q9
 6108 0614 E004F2F2 		vext.32	q8, q9, q8, #1
 6109 0618 F20960F2 		vmul.i32	q8, q8, q9
 6110 061c 903B10EE 		vmov.32	r3, d16[0]
 6111 0620 930808E0 		mul	r8, r3, r8
 6112 0624 0C00000A 		beq	.L230
 6113              	.L231:
 6114              	.LVL462:
 6115 0628 02019CE7 		ldr	r0, [ip, r2, lsl #2]
 292:C:/Renesas/e2studio_2021_01_workspace_RZA2M_ANPR/ANPR_RZA2M_RDK/src/tensorflow_lite/src/tensorflow/lite/kernels/internal\types.h ****       buffer_size *= dims_data[i];
 6116              		.loc 7 292 0
 6117 062c 013082E2 		add	r3, r2, #1
 6118 0630 030051E1 		cmp	r1, r3
 293:C:/Renesas/e2studio_2021_01_workspace_RZA2M_ANPR/ANPR_RZA2M_RDK/src/tensorflow_lite/src/tensorflow/lite/kernels/internal\types.h ****     }
 6119              		.loc 7 293 0
 6120 0634 0231A0E1 		lsl	r3, r2, #2
 6121 0638 900808E0 		mul	r8, r0, r8
 6122              	.LVL463:
 292:C:/Renesas/e2studio_2021_01_workspace_RZA2M_ANPR/ANPR_RZA2M_RDK/src/tensorflow_lite/src/tensorflow/lite/kernels/internal\types.h ****       buffer_size *= dims_data[i];
 6123              		.loc 7 292 0
 6124 063c 060000DA 		ble	.L230
 293:C:/Renesas/e2studio_2021_01_workspace_RZA2M_ANPR/ANPR_RZA2M_RDK/src/tensorflow_lite/src/tensorflow/lite/kernels/internal\types.h ****     }
 6125              		.loc 7 293 0
 6126 0640 03308CE0 		add	r3, ip, r3
 292:C:/Renesas/e2studio_2021_01_workspace_RZA2M_ANPR/ANPR_RZA2M_RDK/src/tensorflow_lite/src/tensorflow/lite/kernels/internal\types.h ****       buffer_size *= dims_data[i];
 6127              		.loc 7 292 0
 6128 0644 022082E2 		add	r2, r2, #2
 293:C:/Renesas/e2studio_2021_01_workspace_RZA2M_ANPR/ANPR_RZA2M_RDK/src/tensorflow_lite/src/tensorflow/lite/kernels/internal\types.h ****     }
 6129              		.loc 7 293 0
 6130 0648 040093E5 		ldr	r0, [r3, #4]
 292:C:/Renesas/e2studio_2021_01_workspace_RZA2M_ANPR/ANPR_RZA2M_RDK/src/tensorflow_lite/src/tensorflow/lite/kernels/internal\types.h ****       buffer_size *= dims_data[i];
 6131              		.loc 7 292 0
 6132 064c 020051E1 		cmp	r1, r2
 293:C:/Renesas/e2studio_2021_01_workspace_RZA2M_ANPR/ANPR_RZA2M_RDK/src/tensorflow_lite/src/tensorflow/lite/kernels/internal\types.h ****     }
 6133              		.loc 7 293 0
 6134 0650 900808E0 		mul	r8, r0, r8
 6135              	.LVL464:
 292:C:/Renesas/e2studio_2021_01_workspace_RZA2M_ANPR/ANPR_RZA2M_RDK/src/tensorflow_lite/src/tensorflow/lite/kernels/internal\types.h ****       buffer_size *= dims_data[i];
 6136              		.loc 7 292 0
 293:C:/Renesas/e2studio_2021_01_workspace_RZA2M_ANPR/ANPR_RZA2M_RDK/src/tensorflow_lite/src/tensorflow/lite/kernels/internal\types.h ****     }
 6137              		.loc 7 293 0
 6138 0654 083093C5 		ldrgt	r3, [r3, #8]
 6139 0658 930808C0 		mulgt	r8, r3, r8
 6140              	.LVL465:
 6141              	.L230:
 6142              	.LBE5382:
 6143              	.LBE5378:
 6144              	.LBE5377:
 6145              	.LBE5343:
 6146              	.LBE5342:
 6147              	.LBB5407:
  57:C:/Renesas/e2studio_2021_01_workspace_RZA2M_ANPR/ANPR_RZA2M_RDK/src/tensorflow_lite/src/tensorflow/lite/kernels/internal/reference\tanh.h **** 
  58:C:/Renesas/e2studio_2021_01_workspace_RZA2M_ANPR/ANPR_RZA2M_RDK/src/tensorflow_lite/src/tensorflow/lite/kernels/internal/reference\tanh.h ****   const int flat_size = MatchingFlatSize(input_shape, output_shape);
  59:C:/Renesas/e2studio_2021_01_workspace_RZA2M_ANPR/ANPR_RZA2M_RDK/src/tensorflow_lite/src/tensorflow/lite/kernels/internal/reference\tanh.h **** 
  60:C:/Renesas/e2studio_2021_01_workspace_RZA2M_ANPR/ANPR_RZA2M_RDK/src/tensorflow_lite/src/tensorflow/lite/kernels/internal/reference\tanh.h ****   // F0 uses 0 integer bits, range [-1, 1].
  61:C:/Renesas/e2studio_2021_01_workspace_RZA2M_ANPR/ANPR_RZA2M_RDK/src/tensorflow_lite/src/tensorflow/lite/kernels/internal/reference\tanh.h ****   // This is the return type of math functions such as tanh, logistic,
  62:C:/Renesas/e2studio_2021_01_workspace_RZA2M_ANPR/ANPR_RZA2M_RDK/src/tensorflow_lite/src/tensorflow/lite/kernels/internal/reference\tanh.h ****   // whose range is in [-1, 1].
  63:C:/Renesas/e2studio_2021_01_workspace_RZA2M_ANPR/ANPR_RZA2M_RDK/src/tensorflow_lite/src/tensorflow/lite/kernels/internal/reference\tanh.h ****   using F0 = gemmlowp::FixedPoint<std::int16_t, 0>;
  64:C:/Renesas/e2studio_2021_01_workspace_RZA2M_ANPR/ANPR_RZA2M_RDK/src/tensorflow_lite/src/tensorflow/lite/kernels/internal/reference\tanh.h ****   // F3 uses 3 integer bits, range [-8, 8], the input range expected here.
  65:C:/Renesas/e2studio_2021_01_workspace_RZA2M_ANPR/ANPR_RZA2M_RDK/src/tensorflow_lite/src/tensorflow/lite/kernels/internal/reference\tanh.h ****   using F3 = gemmlowp::FixedPoint<std::int16_t, 3>;
  66:C:/Renesas/e2studio_2021_01_workspace_RZA2M_ANPR/ANPR_RZA2M_RDK/src/tensorflow_lite/src/tensorflow/lite/kernels/internal/reference\tanh.h **** 
  67:C:/Renesas/e2studio_2021_01_workspace_RZA2M_ANPR/ANPR_RZA2M_RDK/src/tensorflow_lite/src/tensorflow/lite/kernels/internal/reference\tanh.h ****   if (input_left_shift == 0) {
 6148              		.loc 10 67 0
 6149 065c 000055E3 		cmp	r5, #0
 6150 0660 1502000A 		beq	.L237
 6151              	.LVL466:
 6152              	.LBB5408:
  68:C:/Renesas/e2studio_2021_01_workspace_RZA2M_ANPR/ANPR_RZA2M_RDK/src/tensorflow_lite/src/tensorflow/lite/kernels/internal/reference\tanh.h ****     for (int i = 0; i < flat_size; i++) {
  69:C:/Renesas/e2studio_2021_01_workspace_RZA2M_ANPR/ANPR_RZA2M_RDK/src/tensorflow_lite/src/tensorflow/lite/kernels/internal/reference\tanh.h ****       F3 input = F3::FromRaw(input_data[i]);
  70:C:/Renesas/e2studio_2021_01_workspace_RZA2M_ANPR/ANPR_RZA2M_RDK/src/tensorflow_lite/src/tensorflow/lite/kernels/internal/reference\tanh.h ****       F0 output = gemmlowp::tanh(input);
  71:C:/Renesas/e2studio_2021_01_workspace_RZA2M_ANPR/ANPR_RZA2M_RDK/src/tensorflow_lite/src/tensorflow/lite/kernels/internal/reference\tanh.h ****       output_data[i] = output.raw();
  72:C:/Renesas/e2studio_2021_01_workspace_RZA2M_ANPR/ANPR_RZA2M_RDK/src/tensorflow_lite/src/tensorflow/lite/kernels/internal/reference\tanh.h ****     }
  73:C:/Renesas/e2studio_2021_01_workspace_RZA2M_ANPR/ANPR_RZA2M_RDK/src/tensorflow_lite/src/tensorflow/lite/kernels/internal/reference\tanh.h ****   } else {
  74:C:/Renesas/e2studio_2021_01_workspace_RZA2M_ANPR/ANPR_RZA2M_RDK/src/tensorflow_lite/src/tensorflow/lite/kernels/internal/reference\tanh.h ****     for (int i = 0; i < flat_size; i++) {
 6153              		.loc 10 74 0
 6154 0664 000058E3 		cmp	r8, #0
 6155 0668 000200DA 		ble	.L238
 6156              	.LVL467:
 6157              	.L239:
 6158              	.LBB5409:
 6159              	.LBB5410:
 6160              	.LBB5411:
 6161              	.LBB5412:
 6162              	.LBB5413:
 6163              	.LBB5414:
 6164              	.LBB5415:
 158:C:/Renesas/e2studio_2021_01_workspace_RZA2M_ANPR/ANPR_RZA2M_RDK/src/tensorflow_lite/src/third_party/gemmlowp/fixedpoint\fixedpoint.h **** }
 6165              		.loc 4 158 0
 6166 066c 01A00CE3 		movw	r10, #49153
 6167 0670 0970A0E1 		mov	r7, r9
 6168 0674 888089E0 		add	r8, r9, r8, lsl #1
 6169 0678 FFAF4FE3 		movt	r10, 65535
 6170 067c 0299A0E3 		mov	r9, #32768
 6171              	.LVL468:
 6172              	.LBE5415:
 6173              	.LBE5414:
 6174              	.LBE5413:
 6175              	.LBB5424:
 6176              	.LBB5425:
 131:C:/Renesas/e2studio_2021_01_workspace_RZA2M_ANPR/ANPR_RZA2M_RDK/src/tensorflow_lite/src/third_party/gemmlowp/fixedpoint\fixedpoint.h ****              : wide_shifted > max ? max
 6177              		.loc 4 131 0
 6178 0680 04A08DE5 		str	r10, [sp, #4]
 6179 0684 026044E2 		sub	r6, r4, #2
 6180 0688 FF9F4FE3 		movt	r9, 65535
 6181 068c 2D0000EA 		b	.L245
 6182              	.L573:
 6183              		.align	3
 6184              	.L572:
 6185 0690 01000000 		.word	1
 6186 0694 00000000 		.word	0
 6187              	.LVL469:
 6188              	.L565:
 6189              	.LBE5425:
 6190              	.LBE5424:
 6191              	.LBB5430:
 6192              	.LBB5420:
 6193              	.LBB5416:
 158:C:/Renesas/e2studio_2021_01_workspace_RZA2M_ANPR/ANPR_RZA2M_RDK/src/tensorflow_lite/src/third_party/gemmlowp/fixedpoint\fixedpoint.h **** }
 6194              		.loc 4 158 0
 6195 0698 04009DE5 		ldr	r0, [sp, #4]
 6196              	.LBE5416:
 6197              	.LBE5420:
 6198              	.LBE5430:
 6199              	.LBB5431:
 6200              	.LBB5426:
 127:C:/Renesas/e2studio_2021_01_workspace_RZA2M_ANPR/ANPR_RZA2M_RDK/src/tensorflow_lite/src/third_party/gemmlowp/fixedpoint\fixedpoint.h ****   const auto min = std::numeric_limits<tIntegerType>::min();
 6201              		.loc 4 127 0
 6202 069c 0120A0E1 		mov	r2, r1
 6203 06a0 C13FA0E1 		asr	r3, r1, #31
 131:C:/Renesas/e2studio_2021_01_workspace_RZA2M_ANPR/ANPR_RZA2M_RDK/src/tensorflow_lite/src/third_party/gemmlowp/fixedpoint\fixedpoint.h ****              : wide_shifted > max ? max
 6204              		.loc 4 131 0
 6205 06a4 02A9A0E3 		mov	r10, #32768
 6206 06a8 FFAF4FE3 		movt	r10, 65535
 6207              	.LBE5426:
 6208              	.LBE5431:
 6209              	.LBB5432:
 6210              	.LBB5421:
 6211              	.LBB5417:
 158:C:/Renesas/e2studio_2021_01_workspace_RZA2M_ANPR/ANPR_RZA2M_RDK/src/tensorflow_lite/src/third_party/gemmlowp/fixedpoint\fixedpoint.h **** }
 6212              		.loc 4 158 0
 6213 06ac 000051E1 		cmp	r1, r0
 6214              	.LBE5417:
 6215              	.LBE5421:
 6216              	.LBE5432:
 6217              	.LBB5433:
 6218              	.LBB5427:
 131:C:/Renesas/e2studio_2021_01_workspace_RZA2M_ANPR/ANPR_RZA2M_RDK/src/tensorflow_lite/src/third_party/gemmlowp/fixedpoint\fixedpoint.h ****              : wide_shifted > max ? max
 6219              		.loc 4 131 0
 6220 06b0 00B0E0E3 		mvn	fp, #0
 6221              	.LBE5427:
 6222              	.LBE5433:
 6223              	.LBB5434:
 6224              	.LBB5422:
 6225              	.LBB5418:
 158:C:/Renesas/e2studio_2021_01_workspace_RZA2M_ANPR/ANPR_RZA2M_RDK/src/tensorflow_lite/src/third_party/gemmlowp/fixedpoint\fixedpoint.h **** }
 6226              		.loc 4 158 0
 6227 06b4 0010A0A3 		movge	r1, #0
 6228              	.LVL470:
 6229 06b8 0110A0B3 		movlt	r1, #1
 6230 06bc 7110BFE6 		sxth	r1, r1
 6231              	.LBE5418:
 6232              	.LBE5422:
 6233              	.LBE5434:
 6234              	.LBB5435:
 6235              	.LBB5428:
 127:C:/Renesas/e2studio_2021_01_workspace_RZA2M_ANPR/ANPR_RZA2M_RDK/src/tensorflow_lite/src/third_party/gemmlowp/fixedpoint\fixedpoint.h ****   const auto min = std::numeric_limits<tIntegerType>::min();
 6236              		.loc 4 127 0
 6237 06c0 022092E0 		adds	r2, r2, r2
 6238              	.LVL471:
 6239 06c4 0330A3E0 		adc	r3, r3, r3
 6240              	.LBE5428:
 6241              	.LBE5435:
 6242              	.LBB5436:
 6243              	.LBB5423:
 6244              	.LBB5419:
 158:C:/Renesas/e2studio_2021_01_workspace_RZA2M_ANPR/ANPR_RZA2M_RDK/src/tensorflow_lite/src/third_party/gemmlowp/fixedpoint\fixedpoint.h **** }
 6245              		.loc 4 158 0
 6246 06c8 005061E2 		rsb	r5, r1, #0
 6247 06cc 011041E2 		sub	r1, r1, #1
 6248 06d0 000055E3 		cmp	r5, #0
 6249 06d4 7110BFE6 		sxth	r1, r1
 6250              	.LVL472:
 6251 06d8 0950A011 		movne	r5, r9
 6252 06dc 0050A003 		moveq	r5, #0
 6253              	.LBE5419:
 6254              	.LBE5423:
 6255              	.LBE5436:
 6256              	.LBB5437:
 6257              	.LBB5429:
 131:C:/Renesas/e2studio_2021_01_workspace_RZA2M_ANPR/ANPR_RZA2M_RDK/src/tensorflow_lite/src/third_party/gemmlowp/fixedpoint\fixedpoint.h ****              : wide_shifted > max ? max
 6258              		.loc 4 131 0
 6259 06e0 0A0052E1 		cmp	r2, r10
 6260 06e4 0B00D3E0 		sbcs	r0, r3, fp
 6261 06e8 0920A0B1 		movlt	r2, r9
 6262              	.LVL473:
 132:C:/Renesas/e2studio_2021_01_workspace_RZA2M_ANPR/ANPR_RZA2M_RDK/src/tensorflow_lite/src/third_party/gemmlowp/fixedpoint\fixedpoint.h ****                                   : static_cast<tIntegerType>(wide_shifted);
 6263              		.loc 4 132 0
 6264 06ec 7220BFA6 		sxthge	r2, r2
 6265              	.L242:
 6266              	.LVL474:
 6267              	.LBE5429:
 6268              	.LBE5437:
 6269              	.LBB5438:
 6270              	.LBB5439:
 6271              	.LBB5440:
  71:C:/Renesas/e2studio_2021_01_workspace_RZA2M_ANPR/ANPR_RZA2M_RDK/src/tensorflow_lite/src/third_party/gemmlowp/fixedpoint\fixedpoint.h **** }
 6272              		.loc 4 71 0
 6273 06f0 021001E0 		and	r1, r1, r2
 6274              	.LVL475:
 6275              	.LBE5440:
 6276              	.LBE5439:
 6277              	.LBE5438:
 6278              	.LBE5412:
 6279              	.LBE5411:
 6280              	.LBE5410:
 6281              	.LBB5449:
 6282              	.LBB5450:
 6283              	.LBB5451:
 6284              	.LBB5452:
 6285              	.LBB5453:
 6286              	.LBB5454:
 158:C:/Renesas/e2studio_2021_01_workspace_RZA2M_ANPR/ANPR_RZA2M_RDK/src/tensorflow_lite/src/third_party/gemmlowp/fixedpoint\fixedpoint.h **** }
 6287              		.loc 4 158 0
 6288 06f4 053031E0 		eors	r3, r1, r5
 6289 06f8 1B00004A 		bmi	.L361
 6290              	.LVL476:
 6291              	.L566:
 6292 06fc 000063E2 		rsb	r0, r3, #0
 6293 0700 055051E0 		subs	r5, r1, r5
 6294              	.LBE5454:
 6295              	.LBE5453:
 6296              	.LBE5452:
 6297              	.LBE5451:
 6298              	.LBB5461:
 6299              	.LBB5462:
 6300              	.LBB5463:
 6301              	.LBB5464:
 6302 0704 0030A0E3 		mov	r3, #0
 6303              	.LVL477:
 6304 0708 7000BFE6 		sxth	r0, r0
 6305 070c 0050E013 		mvnne	r5, #0
 6306              	.LBE5464:
 6307              	.LBE5463:
 6308              	.LBE5462:
 6309              	.LBE5461:
 6310              	.LBB5468:
 6311              	.LBB5459:
 6312              	.LBB5457:
 6313              	.LBB5455:
 6314 0710 0340A0E1 		mov	r4, r3
 6315              	.LBE5455:
 6316              	.LBE5457:
 6317              	.LBE5459:
 6318              	.LBE5468:
 6319              	.LBB5469:
 6320              	.LBB5467:
 6321              	.LBB5466:
 6322              	.LBB5465:
 6323 0714 00B0E0E3 		mvn	fp, #0
 6324              	.LVL478:
 6325              	.L244:
 6326              	.LBE5465:
 6327              	.LBE5466:
 6328              	.LBE5467:
 6329              	.LBE5469:
 6330              	.LBB5470:
 6331              	.LBB5471:
 821:C:/Renesas/e2studio_2021_01_workspace_RZA2M_ANPR/ANPR_RZA2M_RDK/src/tensorflow_lite/src/third_party/gemmlowp/fixedpoint\fixedpoint.h ****       exp_on_negative_values(ExactMulByPot<1>(a)));
 6332              		.loc 4 821 0
 6333 0718 030020E0 		eor	r0, r0, r3
 6334              	.LVL479:
 6335 071c FEFFFFEB 		bl	_ZN8gemmlowp22exp_on_negative_valuesIsLi4EEENS_10FixedPointIT_Li0EEENS1_IS2_XT0_EEE
 6336              	.LVL480:
 6337              		.loc 4 822 0
 6338 0720 FEFFFFEB 		bl	_ZN8gemmlowp40one_minus_x_over_one_plus_x_for_x_in_0_1IsEENS_10FixedPointIT_Li0EEES3_
 6339              	.LVL481:
 6340 0724 7030BFE6 		sxth	r3, r0
 6341              	.LVL482:
 6342              	.LBE5471:
 6343              	.LBE5470:
 6344              	.LBB5472:
 6345              	.LBB5473:
 6346              	.LBB5474:
 112:C:/Renesas/e2studio_2021_01_workspace_RZA2M_ANPR/ANPR_RZA2M_RDK/src/tensorflow_lite/src/third_party/gemmlowp/fixedpoint\fixedpoint.h **** }
 6347              		.loc 4 112 0
 6348 0728 000060E2 		rsb	r0, r0, #0
 6349              	.LVL483:
 6350              	.LBE5474:
 6351              	.LBE5473:
 6352              	.LBE5472:
 6353              	.LBB5475:
 6354              	.LBB5476:
 6355              	.LBB5477:
 6356              	.LBB5478:
  71:C:/Renesas/e2studio_2021_01_workspace_RZA2M_ANPR/ANPR_RZA2M_RDK/src/tensorflow_lite/src/third_party/gemmlowp/fixedpoint\fixedpoint.h **** }
 6357              		.loc 4 71 0
 6358 072c 004004E0 		and	r4, r4, r0
 6359              	.LVL484:
 6360              	.LBE5478:
 6361              	.LBE5477:
 6362              	.LBB5479:
 6363              	.LBB5480:
 6364 0730 0B3003E0 		and	r3, r3, fp
 6365              	.LVL485:
 6366              	.LBE5480:
 6367              	.LBE5479:
 6368              	.LBE5476:
 6369              	.LBE5475:
 6370              	.LBE5450:
 6371              	.LBE5449:
 6372              	.LBE5409:
 6373              		.loc 10 74 0
 6374 0734 080057E1 		cmp	r7, r8
 6375              	.LBB5495:
 6376              	.LBB5492:
 6377              	.LBB5490:
 6378              	.LBB5484:
 6379              	.LBB5483:
 6380              	.LBB5481:
 6381              	.LBB5482:
  83:C:/Renesas/e2studio_2021_01_workspace_RZA2M_ANPR/ANPR_RZA2M_RDK/src/tensorflow_lite/src/third_party/gemmlowp/fixedpoint\fixedpoint.h **** }
 6382              		.loc 4 83 0
 6383 0738 034024E0 		eor	r4, r4, r3
 6384              	.LBE5482:
 6385              	.LBE5481:
 6386              	.LBE5483:
 6387              	.LBE5484:
 6388              	.LBB5485:
 6389              	.LBB5486:
 6390              	.LBB5487:
 6391              	.LBB5488:
  71:C:/Renesas/e2studio_2021_01_workspace_RZA2M_ANPR/ANPR_RZA2M_RDK/src/tensorflow_lite/src/third_party/gemmlowp/fixedpoint\fixedpoint.h **** }
 6392              		.loc 4 71 0
 6393 073c 041005E0 		and	r1, r5, r4
 6394              	.LBE5488:
 6395              	.LBE5487:
 6396              	.LBE5486:
 6397              	.LBE5485:
 6398              	.LBE5490:
 6399              	.LBE5492:
  75:C:/Renesas/e2studio_2021_01_workspace_RZA2M_ANPR/ANPR_RZA2M_RDK/src/tensorflow_lite/src/tensorflow/lite/kernels/internal/reference\tanh.h ****       F3 input = F3::FromRaw(
  76:C:/Renesas/e2studio_2021_01_workspace_RZA2M_ANPR/ANPR_RZA2M_RDK/src/tensorflow_lite/src/tensorflow/lite/kernels/internal/reference\tanh.h ****           gemmlowp::SaturatingRoundingMultiplyByPOT<1>(input_data[i]));
  77:C:/Renesas/e2studio_2021_01_workspace_RZA2M_ANPR/ANPR_RZA2M_RDK/src/tensorflow_lite/src/tensorflow/lite/kernels/internal/reference\tanh.h ****       F0 output = gemmlowp::tanh(input);
  78:C:/Renesas/e2studio_2021_01_workspace_RZA2M_ANPR/ANPR_RZA2M_RDK/src/tensorflow_lite/src/tensorflow/lite/kernels/internal/reference\tanh.h ****       output_data[i] = output.raw();
 6400              		.loc 10 78 0
 6401 0740 B210E6E1 		strh	r1, [r6, #2]!	@ movhi
 6402              	.LBE5495:
  74:C:/Renesas/e2studio_2021_01_workspace_RZA2M_ANPR/ANPR_RZA2M_RDK/src/tensorflow_lite/src/tensorflow/lite/kernels/internal/reference\tanh.h ****       F3 input = F3::FromRaw(
 6403              		.loc 10 74 0
 6404 0744 C801000A 		beq	.L527
 6405              	.LVL486:
 6406              	.L245:
 6407              	.LBB5496:
  76:C:/Renesas/e2studio_2021_01_workspace_RZA2M_ANPR/ANPR_RZA2M_RDK/src/tensorflow_lite/src/tensorflow/lite/kernels/internal/reference\tanh.h ****       F0 output = gemmlowp::tanh(input);
 6408              		.loc 10 76 0
 6409 0748 F210D7E0 		ldrsh	r1, [r7], #2
 6410              	.LVL487:
 6411              	.LBB5493:
 6412              	.LBB5448:
 6413              	.LBB5447:
 6414              	.LBB5443:
 6415              	.LBB5444:
 6416              	.LBB5445:
 158:C:/Renesas/e2studio_2021_01_workspace_RZA2M_ANPR/ANPR_RZA2M_RDK/src/tensorflow_lite/src/third_party/gemmlowp/fixedpoint\fixedpoint.h **** }
 6417              		.loc 4 158 0
 6418 074c 010951E3 		cmp	r1, #16384
 6419 0750 D0FFFFBA 		blt	.L565
 6420 0754 0010E0E3 		mvn	r1, #0
 6421              	.LVL488:
 6422 0758 FF2F07E3 		movw	r2, #32767
 6423 075c 0050A0E3 		mov	r5, #0
 6424              	.LBE5445:
 6425              	.LBE5444:
 6426              	.LBE5443:
 6427              	.LBB5446:
 6428              	.LBB5442:
 6429              	.LBB5441:
  71:C:/Renesas/e2studio_2021_01_workspace_RZA2M_ANPR/ANPR_RZA2M_RDK/src/tensorflow_lite/src/third_party/gemmlowp/fixedpoint\fixedpoint.h **** }
 6430              		.loc 4 71 0
 6431 0760 021001E0 		and	r1, r1, r2
 6432              	.LVL489:
 6433              	.LBE5441:
 6434              	.LBE5442:
 6435              	.LBE5446:
 6436              	.LBE5447:
 6437              	.LBE5448:
 6438              	.LBE5493:
 6439              	.LBB5494:
 6440              	.LBB5491:
 6441              	.LBB5489:
 6442              	.LBB5460:
 6443              	.LBB5458:
 6444              	.LBB5456:
 158:C:/Renesas/e2studio_2021_01_workspace_RZA2M_ANPR/ANPR_RZA2M_RDK/src/tensorflow_lite/src/third_party/gemmlowp/fixedpoint\fixedpoint.h **** }
 6445              		.loc 4 158 0
 6446 0764 053031E0 		eors	r3, r1, r5
 6447 0768 E3FFFF5A 		bpl	.L566
 6448              	.LVL490:
 6449              	.L361:
 6450 076c 0050E0E3 		mvn	r5, #0
 6451 0770 0000A0E3 		mov	r0, #0
 6452 0774 0540A0E1 		mov	r4, r5
 6453 0778 00B0A0E1 		mov	fp, r0
 6454 077c E5FFFFEA 		b	.L244
 6455              	.LVL491:
 6456              	.L179:
 6457              	.LBE5456:
 6458              	.LBE5458:
 6459              	.LBE5460:
 6460              	.LBE5489:
 6461              	.LBE5491:
 6462              	.LBE5494:
 6463              	.LBE5496:
 6464              	.LBE5408:
 6465              	.LBE5407:
 6466              	.LBE5341:
 6467              	.LBE5340:
 6468              	.LBE5335:
 6469              	.LBB5577:
 117:../src/tensorflow_lite/src/tensorflow/lite/micro/kernels/tanh.cpp ****       params.input_multiplier = data.input_multiplier;
 6470              		.loc 1 117 0
 6471 0780 042093E5 		ldr	r2, [r3, #4]
 120:../src/tensorflow_lite/src/tensorflow/lite/micro/kernels/tanh.cpp ****                           tflite::micro::GetTensorData<uint8_t>(input),
 6472              		.loc 1 120 0
 6473 0784 0710A0E1 		mov	r1, r7
 116:../src/tensorflow_lite/src/tensorflow/lite/micro/kernels/tanh.cpp ****       params.input_range_radius = data.input_range_radius;
 6474              		.loc 1 116 0
 6475 0788 009093E5 		ldr	r9, [r3]
 120:../src/tensorflow_lite/src/tensorflow/lite/micro/kernels/tanh.cpp ****                           tflite::micro::GetTensorData<uint8_t>(input),
 6476              		.loc 1 120 0
 6477 078c 20008DE2 		add	r0, sp, #32
 117:../src/tensorflow_lite/src/tensorflow/lite/micro/kernels/tanh.cpp ****       params.input_multiplier = data.input_multiplier;
 6478              		.loc 1 117 0
 6479 0790 02A0A0E1 		mov	r10, r2
 118:../src/tensorflow_lite/src/tensorflow/lite/micro/kernels/tanh.cpp ****       params.input_left_shift = data.input_left_shift;
 6480              		.loc 1 118 0
 6481 0794 082093E5 		ldr	r2, [r3, #8]
 119:../src/tensorflow_lite/src/tensorflow/lite/micro/kernels/tanh.cpp ****       reference_ops::Tanh(params, tflite::micro::GetTensorShape(input),
 6482              		.loc 1 119 0
 6483 0798 0C3093E5 		ldr	r3, [r3, #12]
 6484              	.LVL492:
 118:../src/tensorflow_lite/src/tensorflow/lite/micro/kernels/tanh.cpp ****       params.input_left_shift = data.input_left_shift;
 6485              		.loc 1 118 0
 6486 079c 0C208DE5 		str	r2, [sp, #12]
 119:../src/tensorflow_lite/src/tensorflow/lite/micro/kernels/tanh.cpp ****       reference_ops::Tanh(params, tflite::micro::GetTensorShape(input),
 6487              		.loc 1 119 0
 6488 07a0 10308DE5 		str	r3, [sp, #16]
 6489              	.LEHB4:
 120:../src/tensorflow_lite/src/tensorflow/lite/micro/kernels/tanh.cpp ****                           tflite::micro::GetTensorData<uint8_t>(input),
 6490              		.loc 1 120 0
 6491 07a4 FEFFFFEB 		bl	_ZN6tflite5micro14GetTensorShapeEPK16TfLiteEvalTensor
 6492              	.LVL493:
 6493              	.LEHE4:
 122:../src/tensorflow_lite/src/tensorflow/lite/micro/kernels/tanh.cpp ****                           tflite::micro::GetTensorData<uint8_t>(output));
 6494              		.loc 1 122 0
 6495 07a8 0410A0E1 		mov	r1, r4
 6496 07ac 38008DE2 		add	r0, sp, #56
 6497              	.LBB5578:
 6498              	.LBB5579:
 6499              		.loc 6 63 0
 6500 07b0 006097E5 		ldr	r6, [r7]
 6501              	.LVL494:
 6502              	.LEHB5:
 6503              	.LBE5579:
 6504              	.LBE5578:
 122:../src/tensorflow_lite/src/tensorflow/lite/micro/kernels/tanh.cpp ****                           tflite::micro::GetTensorData<uint8_t>(output));
 6505              		.loc 1 122 0
 6506 07b4 FEFFFFEB 		bl	_ZN6tflite5micro14GetTensorShapeEPK16TfLiteEvalTensor
 6507              	.LVL495:
 6508              	.LEHE5:
 6509 07b8 20309DE5 		ldr	r3, [sp, #32]
 6510              	.LBB5580:
 6511              	.LBB5581:
  56:C:/Renesas/e2studio_2021_01_workspace_RZA2M_ANPR/ANPR_RZA2M_RDK/src/tensorflow_lite/src/tensorflow/lite/micro/kernels\kernel_util.h **** }
 6512              		.loc 6 56 0
 6513 07bc 000054E3 		cmp	r4, #0
 6514 07c0 38509DE5 		ldr	r5, [sp, #56]
 6515              	.LVL496:
 6516 07c4 00409415 		ldrne	r4, [r4]
 6517              	.LVL497:
 6518              	.LBE5581:
 6519              	.LBE5580:
 6520              	.LBB5582:
 6521              	.LBB5583:
 6522              	.LBB5584:
 6523              	.LBB5585:
 521:C:/Renesas/e2studio_2021_01_workspace_RZA2M_ANPR/ANPR_RZA2M_RDK/src/tensorflow_lite/src/tensorflow/lite/kernels/internal\types.h ****   const int dims_count = shape.DimensionsCount();
 6524              		.loc 7 521 0
 6525 07c8 050053E1 		cmp	r3, r5
 6526 07cc 6E02001A 		bne	.L249
 6527              	.LVL498:
 6528              	.LBB5586:
 523:C:/Renesas/e2studio_2021_01_workspace_RZA2M_ANPR/ANPR_RZA2M_RDK/src/tensorflow_lite/src/tensorflow/lite/kernels/internal\types.h ****     TFLITE_DCHECK_EQ(shape.Dims(i), check_shape_0.Dims(i));
 6529              		.loc 7 523 0
 6530 07d0 000053E3 		cmp	r3, #0
 6531 07d4 1E0200DA 		ble	.L369
 6532 07d8 050053E3 		cmp	r3, #5
 6533              	.LBB5587:
 6534              	.LBB5588:
 216:C:/Renesas/e2studio_2021_01_workspace_RZA2M_ANPR/ANPR_RZA2M_RDK/src/tensorflow_lite/src/tensorflow/lite/kernels/internal\types.h ****   }
 6535              		.loc 7 216 0
 6536 07dc 24109DE5 		ldr	r1, [sp, #36]
 6537              	.LBE5588:
 6538              	.LBE5587:
 6539              	.LBB5594:
 6540              	.LBB5595:
 6541 07e0 3C009DE5 		ldr	r0, [sp, #60]
 6542 07e4 0C0200CA 		bgt	.L252
 6543              	.LVL499:
 215:C:/Renesas/e2studio_2021_01_workspace_RZA2M_ANPR/ANPR_RZA2M_RDK/src/tensorflow_lite/src/tensorflow/lite/kernels/internal\types.h ****     return size_ > kMaxSmallSize ? dims_pointer_[i] : dims_[i];
 6544              		.loc 7 215 0
 6545 07e8 000053E3 		cmp	r3, #0
 6546 07ec 4C0200DA 		ble	.L253
 6547              	.LVL500:
 6548              	.LBE5595:
 6549              	.LBE5594:
 6550              		.loc 7 524 0
 6551 07f0 000051E1 		cmp	r1, r0
 6552 07f4 4802001A 		bne	.L254
 6553              	.LVL501:
 523:C:/Renesas/e2studio_2021_01_workspace_RZA2M_ANPR/ANPR_RZA2M_RDK/src/tensorflow_lite/src/tensorflow/lite/kernels/internal\types.h ****     TFLITE_DCHECK_EQ(shape.Dims(i), check_shape_0.Dims(i));
 6554              		.loc 7 523 0
 6555 07f8 010053E3 		cmp	r3, #1
 6556 07fc 1900000A 		beq	.L368
 6557              	.LVL502:
 6558              	.LBB5603:
 6559              	.LBB5589:
 216:C:/Renesas/e2studio_2021_01_workspace_RZA2M_ANPR/ANPR_RZA2M_RDK/src/tensorflow_lite/src/tensorflow/lite/kernels/internal\types.h ****   }
 6560              		.loc 7 216 0
 6561 0800 28109DE5 		ldr	r1, [sp, #40]
 6562              	.LVL503:
 6563              	.LBE5589:
 6564              	.LBE5603:
 6565              		.loc 7 524 0
 6566 0804 40209DE5 		ldr	r2, [sp, #64]
 6567 0808 020051E1 		cmp	r1, r2
 6568 080c 4202001A 		bne	.L254
 6569              	.LVL504:
 523:C:/Renesas/e2studio_2021_01_workspace_RZA2M_ANPR/ANPR_RZA2M_RDK/src/tensorflow_lite/src/tensorflow/lite/kernels/internal\types.h ****     TFLITE_DCHECK_EQ(shape.Dims(i), check_shape_0.Dims(i));
 6570              		.loc 7 523 0
 6571 0810 020053E3 		cmp	r3, #2
 6572 0814 1300000A 		beq	.L368
 6573              	.LVL505:
 6574              	.LBB5604:
 6575              	.LBB5590:
 216:C:/Renesas/e2studio_2021_01_workspace_RZA2M_ANPR/ANPR_RZA2M_RDK/src/tensorflow_lite/src/tensorflow/lite/kernels/internal\types.h ****   }
 6576              		.loc 7 216 0
 6577 0818 2C109DE5 		ldr	r1, [sp, #44]
 6578              	.LVL506:
 6579              	.LBE5590:
 6580              	.LBE5604:
 6581              		.loc 7 524 0
 6582 081c 44209DE5 		ldr	r2, [sp, #68]
 6583 0820 020051E1 		cmp	r1, r2
 6584 0824 3C02001A 		bne	.L254
 6585              	.LVL507:
 523:C:/Renesas/e2studio_2021_01_workspace_RZA2M_ANPR/ANPR_RZA2M_RDK/src/tensorflow_lite/src/tensorflow/lite/kernels/internal\types.h ****     TFLITE_DCHECK_EQ(shape.Dims(i), check_shape_0.Dims(i));
 6586              		.loc 7 523 0
 6587 0828 030053E3 		cmp	r3, #3
 6588 082c 0D00000A 		beq	.L368
 6589              	.LVL508:
 6590              	.LBB5605:
 6591              	.LBB5596:
 215:C:/Renesas/e2studio_2021_01_workspace_RZA2M_ANPR/ANPR_RZA2M_RDK/src/tensorflow_lite/src/tensorflow/lite/kernels/internal\types.h ****     return size_ > kMaxSmallSize ? dims_pointer_[i] : dims_[i];
 6592              		.loc 7 215 0
 6593 0830 030055E3 		cmp	r5, #3
 6594              	.LBE5596:
 6595              	.LBE5605:
 6596              	.LBB5606:
 6597              	.LBB5591:
 216:C:/Renesas/e2studio_2021_01_workspace_RZA2M_ANPR/ANPR_RZA2M_RDK/src/tensorflow_lite/src/tensorflow/lite/kernels/internal\types.h ****   }
 6598              		.loc 7 216 0
 6599 0834 30109DE5 		ldr	r1, [sp, #48]
 6600              	.LVL509:
 6601              	.LBE5591:
 6602              	.LBE5606:
 6603              	.LBB5607:
 6604              	.LBB5597:
 215:C:/Renesas/e2studio_2021_01_workspace_RZA2M_ANPR/ANPR_RZA2M_RDK/src/tensorflow_lite/src/tensorflow/lite/kernels/internal\types.h ****     return size_ > kMaxSmallSize ? dims_pointer_[i] : dims_[i];
 6605              		.loc 7 215 0
 6606 0838 3902000A 		beq	.L253
 6607              	.LVL510:
 6608              	.LBE5597:
 6609              	.LBE5607:
 6610              		.loc 7 524 0
 6611 083c 48209DE5 		ldr	r2, [sp, #72]
 6612 0840 020051E1 		cmp	r1, r2
 6613 0844 3402001A 		bne	.L254
 6614              	.LVL511:
 523:C:/Renesas/e2studio_2021_01_workspace_RZA2M_ANPR/ANPR_RZA2M_RDK/src/tensorflow_lite/src/tensorflow/lite/kernels/internal\types.h ****     TFLITE_DCHECK_EQ(shape.Dims(i), check_shape_0.Dims(i));
 6615              		.loc 7 523 0
 6616 0848 040053E3 		cmp	r3, #4
 6617 084c 0500000A 		beq	.L368
 6618              	.LVL512:
 6619              	.LBB5608:
 6620              	.LBB5598:
 215:C:/Renesas/e2studio_2021_01_workspace_RZA2M_ANPR/ANPR_RZA2M_RDK/src/tensorflow_lite/src/tensorflow/lite/kernels/internal\types.h ****     return size_ > kMaxSmallSize ? dims_pointer_[i] : dims_[i];
 6621              		.loc 7 215 0
 6622 0850 040055E3 		cmp	r5, #4
 6623              	.LBE5598:
 6624              	.LBE5608:
 6625              	.LBB5609:
 6626              	.LBB5592:
 216:C:/Renesas/e2studio_2021_01_workspace_RZA2M_ANPR/ANPR_RZA2M_RDK/src/tensorflow_lite/src/tensorflow/lite/kernels/internal\types.h ****   }
 6627              		.loc 7 216 0
 6628 0854 34209DE5 		ldr	r2, [sp, #52]
 6629              	.LVL513:
 6630              	.LBE5592:
 6631              	.LBE5609:
 6632              	.LBB5610:
 6633              	.LBB5599:
 215:C:/Renesas/e2studio_2021_01_workspace_RZA2M_ANPR/ANPR_RZA2M_RDK/src/tensorflow_lite/src/tensorflow/lite/kernels/internal\types.h ****     return size_ > kMaxSmallSize ? dims_pointer_[i] : dims_[i];
 6634              		.loc 7 215 0
 6635 0858 3102000A 		beq	.L253
 6636              	.LVL514:
 6637              	.LBE5599:
 6638              	.LBE5610:
 6639              		.loc 7 524 0
 6640 085c 4C109DE5 		ldr	r1, [sp, #76]
 6641 0860 020051E1 		cmp	r1, r2
 6642 0864 2C02001A 		bne	.L254
 6643              	.LVL515:
 6644              	.L368:
 6645              	.LBE5586:
 6646              	.LBB5615:
 6647              	.LBB5616:
 6648              	.LBB5617:
 6649              	.LBB5618:
 232:C:/Renesas/e2studio_2021_01_workspace_RZA2M_ANPR/ANPR_RZA2M_RDK/src/tensorflow_lite/src/tensorflow/lite/kernels/internal\types.h ****   }
 6650              		.loc 7 232 0
 6651 0868 24108DE2 		add	r1, sp, #36
 6652              	.L255:
 6653              	.LVL516:
 6654 086c 5121A0E7 		sbfx	r2, r1, #2, #1
 6655 0870 032002E2 		and	r2, r2, #3
 6656 0874 030052E1 		cmp	r2, r3
 6657 0878 0320A021 		movcs	r2, r3
 6658 087c 080053E3 		cmp	r3, #8
 6659 0880 0320A091 		movls	r2, r3
 6660 0884 000052E3 		cmp	r2, #0
 6661 0888 F301000A 		beq	.L370
 6662 088c 010052E3 		cmp	r2, #1
 6663              	.LBE5618:
 6664              	.LBE5617:
 6665              	.LBB5619:
 293:C:/Renesas/e2studio_2021_01_workspace_RZA2M_ANPR/ANPR_RZA2M_RDK/src/tensorflow_lite/src/tensorflow/lite/kernels/internal\types.h ****     }
 6666              		.loc 7 293 0
 6667 0890 008091E5 		ldr	r8, [r1]
 6668              	.LVL517:
 6669 0894 7C01000A 		beq	.L377
 6670 0898 040091E5 		ldr	r0, [r1, #4]
 6671 089c 020052E3 		cmp	r2, #2
 6672 08a0 900808E0 		mul	r8, r0, r8
 6673              	.LVL518:
 6674 08a4 7801000A 		beq	.L377
 6675 08a8 080091E5 		ldr	r0, [r1, #8]
 6676 08ac 030052E3 		cmp	r2, #3
 6677 08b0 900808E0 		mul	r8, r0, r8
 6678              	.LVL519:
 6679 08b4 7401000A 		beq	.L377
 6680 08b8 0C0091E5 		ldr	r0, [r1, #12]
 6681 08bc 040052E3 		cmp	r2, #4
 6682 08c0 900808E0 		mul	r8, r0, r8
 6683              	.LVL520:
 6684 08c4 7001000A 		beq	.L377
 6685 08c8 100091E5 		ldr	r0, [r1, #16]
 6686 08cc 050052E3 		cmp	r2, #5
 6687 08d0 900808E0 		mul	r8, r0, r8
 6688              	.LVL521:
 6689 08d4 6C01000A 		beq	.L377
 6690 08d8 140091E5 		ldr	r0, [r1, #20]
 6691 08dc 060052E3 		cmp	r2, #6
 6692 08e0 900808E0 		mul	r8, r0, r8
 6693              	.LVL522:
 6694 08e4 6801000A 		beq	.L377
 6695 08e8 180091E5 		ldr	r0, [r1, #24]
 6696 08ec 070052E3 		cmp	r2, #7
 6697 08f0 900808E0 		mul	r8, r0, r8
 6698              	.LVL523:
 6699 08f4 6401000A 		beq	.L377
 6700 08f8 1CC091E5 		ldr	ip, [r1, #28]
 292:C:/Renesas/e2studio_2021_01_workspace_RZA2M_ANPR/ANPR_RZA2M_RDK/src/tensorflow_lite/src/tensorflow/lite/kernels/internal\types.h ****       buffer_size *= dims_data[i];
 6701              		.loc 7 292 0
 6702 08fc 0800A0E3 		mov	r0, #8
 293:C:/Renesas/e2studio_2021_01_workspace_RZA2M_ANPR/ANPR_RZA2M_RDK/src/tensorflow_lite/src/tensorflow/lite/kernels/internal\types.h ****     }
 6703              		.loc 7 293 0
 6704 0900 9C0808E0 		mul	r8, ip, r8
 6705              	.LVL524:
 6706              	.L262:
 6707 0904 030052E1 		cmp	r2, r3
 6708 0908 2800000A 		beq	.L263
 6709              	.LVL525:
 6710              	.L261:
 6711 090c 025043E0 		sub	r5, r3, r2
 6712 0910 01E043E2 		sub	lr, r3, #1
 6713 0914 04C045E2 		sub	ip, r5, #4
 6714 0918 02E04EE0 		sub	lr, lr, r2
 6715 091c 2CC1A0E1 		lsr	ip, ip, #2
 6716 0920 02005EE3 		cmp	lr, #2
 6717 0924 01C08CE2 		add	ip, ip, #1
 6718 0928 0C71A0E1 		lsl	r7, ip, #2
 6719 092c 1200009A 		bls	.L264
 6720 0930 022181E0 		add	r2, r1, r2, lsl #2
 292:C:/Renesas/e2studio_2021_01_workspace_RZA2M_ANPR/ANPR_RZA2M_RDK/src/tensorflow_lite/src/tensorflow/lite/kernels/internal\types.h ****       buffer_size *= dims_data[i];
 6721              		.loc 7 292 0
 6722 0934 5120C0F2 		vmov.i32	q9, #1  @ v4si
 6723 0938 00E0A0E3 		mov	lr, #0
 6724              	.L266:
 6725 093c 01E08EE2 		add	lr, lr, #1
 293:C:/Renesas/e2studio_2021_01_workspace_RZA2M_ANPR/ANPR_RZA2M_RDK/src/tensorflow_lite/src/tensorflow/lite/kernels/internal\types.h ****     }
 6726              		.loc 7 293 0
 6727 0940 DF0A62F4 		vld1.64	{d16-d17}, [r2:64]
 6728 0944 0E005CE1 		cmp	ip, lr
 6729 0948 102082E2 		add	r2, r2, #16
 6730 094c F02962F2 		vmul.i32	q9, q9, q8
 6731 0950 F9FFFF8A 		bhi	.L266
 6732 0954 050057E1 		cmp	r7, r5
 6733 0958 070080E0 		add	r0, r0, r7
 6734 095c 5000C0F2 		vmov.i32	q8, #0  @ v4si
 6735 0960 E048F2F2 		vext.32	q10, q9, q8, #2
 6736 0964 F22964F2 		vmul.i32	q9, q10, q9
 6737 0968 E004F2F2 		vext.32	q8, q9, q8, #1
 6738 096c F20960F2 		vmul.i32	q8, q8, q9
 6739 0970 902B10EE 		vmov.32	r2, d16[0]
 6740 0974 920808E0 		mul	r8, r2, r8
 6741 0978 0C00000A 		beq	.L263
 6742              	.L264:
 6743              	.LVL526:
 6744 097c 00C191E7 		ldr	ip, [r1, r0, lsl #2]
 292:C:/Renesas/e2studio_2021_01_workspace_RZA2M_ANPR/ANPR_RZA2M_RDK/src/tensorflow_lite/src/tensorflow/lite/kernels/internal\types.h ****       buffer_size *= dims_data[i];
 6745              		.loc 7 292 0
 6746 0980 012080E2 		add	r2, r0, #1
 6747 0984 020053E1 		cmp	r3, r2
 293:C:/Renesas/e2studio_2021_01_workspace_RZA2M_ANPR/ANPR_RZA2M_RDK/src/tensorflow_lite/src/tensorflow/lite/kernels/internal\types.h ****     }
 6748              		.loc 7 293 0
 6749 0988 0021A0E1 		lsl	r2, r0, #2
 6750 098c 9C0808E0 		mul	r8, ip, r8
 6751              	.LVL527:
 292:C:/Renesas/e2studio_2021_01_workspace_RZA2M_ANPR/ANPR_RZA2M_RDK/src/tensorflow_lite/src/tensorflow/lite/kernels/internal\types.h ****       buffer_size *= dims_data[i];
 6752              		.loc 7 292 0
 6753 0990 060000DA 		ble	.L263
 293:C:/Renesas/e2studio_2021_01_workspace_RZA2M_ANPR/ANPR_RZA2M_RDK/src/tensorflow_lite/src/tensorflow/lite/kernels/internal\types.h ****     }
 6754              		.loc 7 293 0
 6755 0994 021081E0 		add	r1, r1, r2
 292:C:/Renesas/e2studio_2021_01_workspace_RZA2M_ANPR/ANPR_RZA2M_RDK/src/tensorflow_lite/src/tensorflow/lite/kernels/internal\types.h ****       buffer_size *= dims_data[i];
 6756              		.loc 7 292 0
 6757 0998 020080E2 		add	r0, r0, #2
 293:C:/Renesas/e2studio_2021_01_workspace_RZA2M_ANPR/ANPR_RZA2M_RDK/src/tensorflow_lite/src/tensorflow/lite/kernels/internal\types.h ****     }
 6758              		.loc 7 293 0
 6759 099c 042091E5 		ldr	r2, [r1, #4]
 292:C:/Renesas/e2studio_2021_01_workspace_RZA2M_ANPR/ANPR_RZA2M_RDK/src/tensorflow_lite/src/tensorflow/lite/kernels/internal\types.h ****       buffer_size *= dims_data[i];
 6760              		.loc 7 292 0
 6761 09a0 000053E1 		cmp	r3, r0
 293:C:/Renesas/e2studio_2021_01_workspace_RZA2M_ANPR/ANPR_RZA2M_RDK/src/tensorflow_lite/src/tensorflow/lite/kernels/internal\types.h ****     }
 6762              		.loc 7 293 0
 6763 09a4 920808E0 		mul	r8, r2, r8
 6764              	.LVL528:
 292:C:/Renesas/e2studio_2021_01_workspace_RZA2M_ANPR/ANPR_RZA2M_RDK/src/tensorflow_lite/src/tensorflow/lite/kernels/internal\types.h ****       buffer_size *= dims_data[i];
 6765              		.loc 7 292 0
 293:C:/Renesas/e2studio_2021_01_workspace_RZA2M_ANPR/ANPR_RZA2M_RDK/src/tensorflow_lite/src/tensorflow/lite/kernels/internal\types.h ****     }
 6766              		.loc 7 293 0
 6767 09a8 082091C5 		ldrgt	r2, [r1, #8]
 6768 09ac 920808C0 		mulgt	r8, r2, r8
 6769              	.LVL529:
 6770              	.L263:
 6771              	.LBE5619:
 6772              	.LBE5616:
 6773              	.LBE5615:
 6774              	.LBE5585:
 6775              	.LBE5584:
 6776              	.LBB5636:
  79:C:/Renesas/e2studio_2021_01_workspace_RZA2M_ANPR/ANPR_RZA2M_RDK/src/tensorflow_lite/src/tensorflow/lite/kernels/internal/reference\tanh.h ****     }
  80:C:/Renesas/e2studio_2021_01_workspace_RZA2M_ANPR/ANPR_RZA2M_RDK/src/tensorflow_lite/src/tensorflow/lite/kernels/internal/reference\tanh.h ****   }
  81:C:/Renesas/e2studio_2021_01_workspace_RZA2M_ANPR/ANPR_RZA2M_RDK/src/tensorflow_lite/src/tensorflow/lite/kernels/internal/reference\tanh.h **** }
  82:C:/Renesas/e2studio_2021_01_workspace_RZA2M_ANPR/ANPR_RZA2M_RDK/src/tensorflow_lite/src/tensorflow/lite/kernels/internal/reference\tanh.h **** 
  83:C:/Renesas/e2studio_2021_01_workspace_RZA2M_ANPR/ANPR_RZA2M_RDK/src/tensorflow_lite/src/tensorflow/lite/kernels/internal/reference\tanh.h **** inline void Tanh(const TanhParams& params, const RuntimeShape& input_shape,
  84:C:/Renesas/e2studio_2021_01_workspace_RZA2M_ANPR/ANPR_RZA2M_RDK/src/tensorflow_lite/src/tensorflow/lite/kernels/internal/reference\tanh.h ****                  const uint8_t* input_data, const RuntimeShape& output_shape,
  85:C:/Renesas/e2studio_2021_01_workspace_RZA2M_ANPR/ANPR_RZA2M_RDK/src/tensorflow_lite/src/tensorflow/lite/kernels/internal/reference\tanh.h ****                  uint8_t* output_data) {
  86:C:/Renesas/e2studio_2021_01_workspace_RZA2M_ANPR/ANPR_RZA2M_RDK/src/tensorflow_lite/src/tensorflow/lite/kernels/internal/reference\tanh.h ****   const int32_t input_zero_point = params.input_zero_point;
  87:C:/Renesas/e2studio_2021_01_workspace_RZA2M_ANPR/ANPR_RZA2M_RDK/src/tensorflow_lite/src/tensorflow/lite/kernels/internal/reference\tanh.h ****   const int32_t input_range_radius = params.input_range_radius;
  88:C:/Renesas/e2studio_2021_01_workspace_RZA2M_ANPR/ANPR_RZA2M_RDK/src/tensorflow_lite/src/tensorflow/lite/kernels/internal/reference\tanh.h ****   const int32_t input_multiplier = params.input_multiplier;
  89:C:/Renesas/e2studio_2021_01_workspace_RZA2M_ANPR/ANPR_RZA2M_RDK/src/tensorflow_lite/src/tensorflow/lite/kernels/internal/reference\tanh.h ****   const int input_left_shift = params.input_left_shift;
  90:C:/Renesas/e2studio_2021_01_workspace_RZA2M_ANPR/ANPR_RZA2M_RDK/src/tensorflow_lite/src/tensorflow/lite/kernels/internal/reference\tanh.h ****   const int32_t output_zero_point = 128;
  91:C:/Renesas/e2studio_2021_01_workspace_RZA2M_ANPR/ANPR_RZA2M_RDK/src/tensorflow_lite/src/tensorflow/lite/kernels/internal/reference\tanh.h ****   const int flat_size = MatchingFlatSize(input_shape, output_shape);
  92:C:/Renesas/e2studio_2021_01_workspace_RZA2M_ANPR/ANPR_RZA2M_RDK/src/tensorflow_lite/src/tensorflow/lite/kernels/internal/reference\tanh.h **** 
  93:C:/Renesas/e2studio_2021_01_workspace_RZA2M_ANPR/ANPR_RZA2M_RDK/src/tensorflow_lite/src/tensorflow/lite/kernels/internal/reference\tanh.h ****   for (int i = 0; i < flat_size; i++) {
 6777              		.loc 10 93 0
 6778 09b0 000058E3 		cmp	r8, #0
 6779 09b4 260100DA 		ble	.L288
 6780              	.LVL530:
 6781              	.L250:
 6782 09b8 016046E2 		sub	r6, r6, #1
 6783              	.LVL531:
 6784 09bc 014044E2 		sub	r4, r4, #1
 6785              	.LVL532:
 6786 09c0 0A30A0E1 		mov	r3, r10
 6787 09c4 00706AE2 		rsb	r7, r10, #0
 6788              	.LBE5636:
 6789              	.LBB5717:
 6790              	.LBB5631:
 6791              	.LBB5626:
 6792              	.LBB5623:
 290:C:/Renesas/e2studio_2021_01_workspace_RZA2M_ANPR/ANPR_RZA2M_RDK/src/tensorflow_lite/src/tensorflow/lite/kernels/internal\types.h ****     const int* dims_data = reinterpret_cast<const int*>(DimsData());
 6793              		.loc 7 290 0
 6794 09c8 0050A0E3 		mov	r5, #0
 6795 09cc 0AB0A0E1 		mov	fp, r10
 6796 09d0 270000EA 		b	.L274
 6797              	.LVL533:
 6798              	.L524:
 6799              	.LBE5623:
 6800              	.LBE5626:
 6801              	.LBE5631:
 6802              	.LBE5717:
 6803              	.LBB5718:
 6804              	.LBB5637:
 6805              	.LBB5638:
 6806              	.LBB5639:
 6807              	.LBB5640:
 6808              	.LBB5641:
 6809              	.LBB5642:
 6810              	.LBB5643:
 6811              	.LBB5644:
 337:C:/Renesas/e2studio_2021_01_workspace_RZA2M_ANPR/ANPR_RZA2M_RDK/src/tensorflow_lite/src/third_party/gemmlowp/fixedpoint\fixedpoint.h ****   return overflow ? std::numeric_limits<std::int32_t>::max() : ab_x2_high32;
 6812              		.loc 4 337 0
 6813 09d4 020090E0 		adds	r0, r0, r2
 6814              	.LVL534:
 6815 09d8 0310A1E0 		adc	r1, r1, r3
 6816 09dc 0030A0E3 		mov	r3, #0
 6817              	.LVL535:
 6818 09e0 C12FA0E1 		asr	r2, r1, #31
 6819              	.LVL536:
 6820 09e4 0221C2E3 		bic	r2, r2, #-2147483648
 6821 09e8 002092E0 		adds	r2, r2, r0
 6822 09ec A22FA0E1 		lsr	r2, r2, #31
 6823 09f0 0130A3E0 		adc	r3, r3, r1
 6824 09f4 832082E1 		orr	r2, r2, r3, lsl #1
 6825 09f8 C33FA0E1 		asr	r3, r3, #31
 6826              	.LBE5644:
 6827              	.LBE5643:
 6828              	.LBE5642:
 6829              	.LBE5641:
 6830              	.LBB5656:
 6831              	.LBB5657:
 6832              	.LBB5658:
 6833              	.LBB5659:
 6834              	.LBB5660:
 6835              	.LBB5661:
 158:C:/Renesas/e2studio_2021_01_workspace_RZA2M_ANPR/ANPR_RZA2M_RDK/src/tensorflow_lite/src/third_party/gemmlowp/fixedpoint\fixedpoint.h **** }
 6836              		.loc 4 158 0
 6837 09fc 000052E3 		cmp	r2, #0
 6838              	.LBE5661:
 6839              	.LBE5660:
 6840              	.LBE5659:
 6841              	.LBE5658:
 6842              	.LBE5657:
 6843              	.LBE5656:
 6844              	.LBB5690:
 6845              	.LBB5653:
 6846              	.LBB5649:
 6847              	.LBB5645:
 337:C:/Renesas/e2studio_2021_01_workspace_RZA2M_ANPR/ANPR_RZA2M_RDK/src/tensorflow_lite/src/third_party/gemmlowp/fixedpoint\fixedpoint.h ****   return overflow ? std::numeric_limits<std::int32_t>::max() : ab_x2_high32;
 6848              		.loc 4 337 0
 6849 0a00 0200A0E1 		mov	r0, r2
 6850              	.LVL537:
 6851              	.LBE5645:
 6852              	.LBE5649:
 6853              	.LBE5653:
 6854              	.LBE5690:
 6855              	.LBB5691:
 6856              	.LBB5689:
 6857              	.LBB5665:
 6858              	.LBB5664:
 6859              	.LBB5663:
 6860              	.LBB5662:
 158:C:/Renesas/e2studio_2021_01_workspace_RZA2M_ANPR/ANPR_RZA2M_RDK/src/tensorflow_lite/src/third_party/gemmlowp/fixedpoint\fixedpoint.h **** }
 6861              		.loc 4 158 0
 6862 0a04 0030E0B3 		mvnlt	r3, #0
 6863 0a08 08308DB5 		strlt	r3, [sp, #8]
 6864 0a0c 04308DB5 		strlt	r3, [sp, #4]
 6865 0a10 D20100AA 		bge	.L567
 6866              	.LVL538:
 6867              	.L272:
 6868              	.LBE5662:
 6869              	.LBE5663:
 6870              	.LBE5664:
 6871              	.LBE5665:
 6872              	.LBB5666:
 6873              	.LBB5667:
 821:C:/Renesas/e2studio_2021_01_workspace_RZA2M_ANPR/ANPR_RZA2M_RDK/src/tensorflow_lite/src/third_party/gemmlowp/fixedpoint\fixedpoint.h ****       exp_on_negative_values(ExactMulByPot<1>(a)));
 6874              		.loc 4 821 0
 6875 0a14 FEFFFFEB 		bl	_ZN8gemmlowp22exp_on_negative_valuesIlLi5EEENS_10FixedPointIT_Li0EEENS1_IS2_XT0_EEE
 6876              	.LVL539:
 6877              		.loc 4 822 0
 6878 0a18 FEFFFFEB 		bl	_ZN8gemmlowp40one_minus_x_over_one_plus_x_for_x_in_0_1IlEENS_10FixedPointIT_Li0EEES3_
 6879              	.LVL540:
 6880              	.LBE5667:
 6881              	.LBE5666:
 6882              	.LBB5668:
 6883              	.LBB5669:
 6884              	.LBB5670:
 112:C:/Renesas/e2studio_2021_01_workspace_RZA2M_ANPR/ANPR_RZA2M_RDK/src/tensorflow_lite/src/third_party/gemmlowp/fixedpoint\fixedpoint.h **** }
 6885              		.loc 4 112 0
 6886 0a1c 003060E2 		rsb	r3, r0, #0
 6887              	.LVL541:
 6888              	.LBE5670:
 6889              	.LBE5669:
 6890              	.LBE5668:
 6891              	.LBB5671:
 6892              	.LBB5672:
 6893              	.LBB5673:
 6894              	.LBB5674:
  71:C:/Renesas/e2studio_2021_01_workspace_RZA2M_ANPR/ANPR_RZA2M_RDK/src/tensorflow_lite/src/third_party/gemmlowp/fixedpoint\fixedpoint.h **** }
 6895              		.loc 4 71 0
 6896 0a20 0A0000E0 		and	r0, r0, r10
 6897              	.LVL542:
 6898              	.LBE5674:
 6899              	.LBE5673:
 6900              	.LBB5675:
 6901              	.LBB5676:
 6902 0a24 04A09DE5 		ldr	r10, [sp, #4]
 6903              	.LVL543:
 6904 0a28 03A00AE0 		and	r10, r10, r3
 6905              	.LBE5676:
 6906              	.LBE5675:
 6907              	.LBE5672:
 6908              	.LBE5671:
 6909              	.LBB5680:
 6910              	.LBB5681:
 6911              	.LBB5682:
 6912              	.LBB5683:
 6913 0a2c 08309DE5 		ldr	r3, [sp, #8]
 6914              	.LVL544:
 6915              	.LBE5683:
 6916              	.LBE5682:
 6917              	.LBE5681:
 6918              	.LBE5680:
 6919              	.LBB5687:
 6920              	.LBB5679:
 6921              	.LBB5677:
 6922              	.LBB5678:
  83:C:/Renesas/e2studio_2021_01_workspace_RZA2M_ANPR/ANPR_RZA2M_RDK/src/tensorflow_lite/src/third_party/gemmlowp/fixedpoint\fixedpoint.h **** }
 6923              		.loc 4 83 0
 6924 0a30 00A02AE0 		eor	r10, r10, r0
 6925              	.LVL545:
 6926              	.LBE5678:
 6927              	.LBE5677:
 6928              	.LBE5679:
 6929              	.LBE5687:
 6930              	.LBB5688:
 6931              	.LBB5686:
 6932              	.LBB5685:
 6933              	.LBB5684:
  71:C:/Renesas/e2studio_2021_01_workspace_RZA2M_ANPR/ANPR_RZA2M_RDK/src/tensorflow_lite/src/third_party/gemmlowp/fixedpoint\fixedpoint.h **** }
 6934              		.loc 4 71 0
 6935 0a34 03A00AE0 		and	r10, r10, r3
 6936              	.LVL546:
 6937              	.LBE5684:
 6938              	.LBE5685:
 6939              	.LBE5686:
 6940              	.LBE5688:
 6941              	.LBE5689:
 6942              	.LBE5691:
 6943              	.LBB5692:
 6944              	.LBB5693:
 6945              	.LBB5694:
 6946              	.LBB5695:
 6947 0a38 AA2FA0E1 		lsr	r2, r10, #31
 6948              	.LBE5695:
 6949              	.LBE5694:
 6950              	.LBB5696:
 6951              	.LBB5697:
 141:C:/Renesas/e2studio_2021_01_workspace_RZA2M_ANPR/ANPR_RZA2M_RDK/src/tensorflow_lite/src/third_party/gemmlowp/fixedpoint\fixedpoint.h **** }
 6952              		.loc 4 141 0
 6953 0a3c 4A3CA0E1 		asr	r3, r10, #24
 6954              	.LBE5697:
 6955              	.LBE5696:
 6956              	.LBB5698:
 6957              	.LBB5699:
  95:C:/Renesas/e2studio_2021_01_workspace_RZA2M_ANPR/ANPR_RZA2M_RDK/src/tensorflow_lite/src/third_party/gemmlowp/fixedpoint\fixedpoint.h **** }
 6958              		.loc 4 95 0
 6959 0a40 7F2342E2 		sub	r2, r2, #-67108863
 6960              	.LBE5699:
 6961              	.LBE5698:
 6962              	.LBB5701:
 6963              	.LBB5702:
  71:C:/Renesas/e2studio_2021_01_workspace_RZA2M_ANPR/ANPR_RZA2M_RDK/src/tensorflow_lite/src/third_party/gemmlowp/fixedpoint\fixedpoint.h **** }
 6964              		.loc 4 71 0
 6965 0a44 FFA4CAE3 		bic	r10, r10, #-16777216
 6966              	.LBE5702:
 6967              	.LBE5701:
 6968              	.LBB5703:
 6969              	.LBB5700:
  95:C:/Renesas/e2studio_2021_01_workspace_RZA2M_ANPR/ANPR_RZA2M_RDK/src/tensorflow_lite/src/third_party/gemmlowp/fixedpoint\fixedpoint.h **** }
 6970              		.loc 4 95 0
 6971 0a48 0E2542E2 		sub	r2, r2, #58720256
 6972              	.LBE5700:
 6973              	.LBE5703:
 6974              	.LBB5704:
 6975              	.LBB5705:
 6976 0a4c 02005AE1 		cmp	r10, r2
 6977 0a50 013083C2 		addgt	r3, r3, #1
 6978              	.LBE5705:
 6979              	.LBE5704:
 6980              	.LBE5693:
 6981              	.LBE5692:
  94:C:/Renesas/e2studio_2021_01_workspace_RZA2M_ANPR/ANPR_RZA2M_RDK/src/tensorflow_lite/src/tensorflow/lite/kernels/internal/reference\tanh.h ****     const uint8_t input_val_u8 = input_data[i];
  95:C:/Renesas/e2studio_2021_01_workspace_RZA2M_ANPR/ANPR_RZA2M_RDK/src/tensorflow_lite/src/tensorflow/lite/kernels/internal/reference\tanh.h ****     const int32_t input_val_centered =
  96:C:/Renesas/e2studio_2021_01_workspace_RZA2M_ANPR/ANPR_RZA2M_RDK/src/tensorflow_lite/src/tensorflow/lite/kernels/internal/reference\tanh.h ****         static_cast<int32_t>(input_val_u8) - input_zero_point;
  97:C:/Renesas/e2studio_2021_01_workspace_RZA2M_ANPR/ANPR_RZA2M_RDK/src/tensorflow_lite/src/tensorflow/lite/kernels/internal/reference\tanh.h ****     uint8_t output_val;
  98:C:/Renesas/e2studio_2021_01_workspace_RZA2M_ANPR/ANPR_RZA2M_RDK/src/tensorflow_lite/src/tensorflow/lite/kernels/internal/reference\tanh.h ****     if (input_val_centered <= -input_range_radius) {
  99:C:/Renesas/e2studio_2021_01_workspace_RZA2M_ANPR/ANPR_RZA2M_RDK/src/tensorflow_lite/src/tensorflow/lite/kernels/internal/reference\tanh.h ****       output_val = 0;
 100:C:/Renesas/e2studio_2021_01_workspace_RZA2M_ANPR/ANPR_RZA2M_RDK/src/tensorflow_lite/src/tensorflow/lite/kernels/internal/reference\tanh.h ****     } else if (input_val_centered >= input_range_radius) {
 101:C:/Renesas/e2studio_2021_01_workspace_RZA2M_ANPR/ANPR_RZA2M_RDK/src/tensorflow_lite/src/tensorflow/lite/kernels/internal/reference\tanh.h ****       output_val = 255;
 102:C:/Renesas/e2studio_2021_01_workspace_RZA2M_ANPR/ANPR_RZA2M_RDK/src/tensorflow_lite/src/tensorflow/lite/kernels/internal/reference\tanh.h ****     } else {
 103:C:/Renesas/e2studio_2021_01_workspace_RZA2M_ANPR/ANPR_RZA2M_RDK/src/tensorflow_lite/src/tensorflow/lite/kernels/internal/reference\tanh.h ****       const int32_t input_val_rescaled =
 104:C:/Renesas/e2studio_2021_01_workspace_RZA2M_ANPR/ANPR_RZA2M_RDK/src/tensorflow_lite/src/tensorflow/lite/kernels/internal/reference\tanh.h ****           MultiplyByQuantizedMultiplierGreaterThanOne(
 105:C:/Renesas/e2studio_2021_01_workspace_RZA2M_ANPR/ANPR_RZA2M_RDK/src/tensorflow_lite/src/tensorflow/lite/kernels/internal/reference\tanh.h ****               input_val_centered, input_multiplier, input_left_shift);
 106:C:/Renesas/e2studio_2021_01_workspace_RZA2M_ANPR/ANPR_RZA2M_RDK/src/tensorflow_lite/src/tensorflow/lite/kernels/internal/reference\tanh.h ****       using FixedPoint4 = gemmlowp::FixedPoint<int32_t, 4>;
 107:C:/Renesas/e2studio_2021_01_workspace_RZA2M_ANPR/ANPR_RZA2M_RDK/src/tensorflow_lite/src/tensorflow/lite/kernels/internal/reference\tanh.h ****       using FixedPoint0 = gemmlowp::FixedPoint<int32_t, 0>;
 108:C:/Renesas/e2studio_2021_01_workspace_RZA2M_ANPR/ANPR_RZA2M_RDK/src/tensorflow_lite/src/tensorflow/lite/kernels/internal/reference\tanh.h ****       const FixedPoint4 input_val_f4 = FixedPoint4::FromRaw(input_val_rescaled);
 109:C:/Renesas/e2studio_2021_01_workspace_RZA2M_ANPR/ANPR_RZA2M_RDK/src/tensorflow_lite/src/tensorflow/lite/kernels/internal/reference\tanh.h ****       const FixedPoint0 output_val_f0 = gemmlowp::tanh(input_val_f4);
 110:C:/Renesas/e2studio_2021_01_workspace_RZA2M_ANPR/ANPR_RZA2M_RDK/src/tensorflow_lite/src/tensorflow/lite/kernels/internal/reference\tanh.h ****       // Convert from Q0.31 to Q24.7.
 111:C:/Renesas/e2studio_2021_01_workspace_RZA2M_ANPR/ANPR_RZA2M_RDK/src/tensorflow_lite/src/tensorflow/lite/kernels/internal/reference\tanh.h ****       using gemmlowp::RoundingDivideByPOT;
 112:C:/Renesas/e2studio_2021_01_workspace_RZA2M_ANPR/ANPR_RZA2M_RDK/src/tensorflow_lite/src/tensorflow/lite/kernels/internal/reference\tanh.h ****       int32_t output_val_s32 = RoundingDivideByPOT(output_val_f0.raw(), 24);
 113:C:/Renesas/e2studio_2021_01_workspace_RZA2M_ANPR/ANPR_RZA2M_RDK/src/tensorflow_lite/src/tensorflow/lite/kernels/internal/reference\tanh.h ****       output_val_s32 += output_zero_point;
 6982              		.loc 10 113 0
 6983 0a54 803083E2 		add	r3, r3, #128
 6984              	.LVL547:
 114:C:/Renesas/e2studio_2021_01_workspace_RZA2M_ANPR/ANPR_RZA2M_RDK/src/tensorflow_lite/src/tensorflow/lite/kernels/internal/reference\tanh.h ****       if (output_val_s32 == 256) {
 6985              		.loc 10 114 0
 6986 0a58 010C53E3 		cmp	r3, #256
 6987 0a5c FF30A003 		moveq	r3, #255
 6988              	.LVL548:
 6989 0a60 7330EFE6 		uxtb	r3, r3
 6990              	.LVL549:
 6991              	.L270:
 6992              	.LBE5640:
 6993              	.LBE5639:
 6994              	.LBE5638:
 6995              	.LBE5637:
  93:C:/Renesas/e2studio_2021_01_workspace_RZA2M_ANPR/ANPR_RZA2M_RDK/src/tensorflow_lite/src/tensorflow/lite/kernels/internal/reference\tanh.h ****     const uint8_t input_val_u8 = input_data[i];
 6996              		.loc 10 93 0
 6997 0a64 015085E2 		add	r5, r5, #1
 6998              	.LVL550:
 6999              	.LBB5714:
 115:C:/Renesas/e2studio_2021_01_workspace_RZA2M_ANPR/ANPR_RZA2M_RDK/src/tensorflow_lite/src/tensorflow/lite/kernels/internal/reference\tanh.h ****         output_val_s32 = 255;
 116:C:/Renesas/e2studio_2021_01_workspace_RZA2M_ANPR/ANPR_RZA2M_RDK/src/tensorflow_lite/src/tensorflow/lite/kernels/internal/reference\tanh.h ****       }
 117:C:/Renesas/e2studio_2021_01_workspace_RZA2M_ANPR/ANPR_RZA2M_RDK/src/tensorflow_lite/src/tensorflow/lite/kernels/internal/reference\tanh.h ****       // Reinterpret as Q0.7, encoded in uint8_t.
 118:C:/Renesas/e2studio_2021_01_workspace_RZA2M_ANPR/ANPR_RZA2M_RDK/src/tensorflow_lite/src/tensorflow/lite/kernels/internal/reference\tanh.h ****       TFLITE_DCHECK_GE(output_val_s32, 0);
 119:C:/Renesas/e2studio_2021_01_workspace_RZA2M_ANPR/ANPR_RZA2M_RDK/src/tensorflow_lite/src/tensorflow/lite/kernels/internal/reference\tanh.h ****       TFLITE_DCHECK_LE(output_val_s32, 255);
 120:C:/Renesas/e2studio_2021_01_workspace_RZA2M_ANPR/ANPR_RZA2M_RDK/src/tensorflow_lite/src/tensorflow/lite/kernels/internal/reference\tanh.h ****       output_val = static_cast<uint8_t>(output_val_s32);
 121:C:/Renesas/e2studio_2021_01_workspace_RZA2M_ANPR/ANPR_RZA2M_RDK/src/tensorflow_lite/src/tensorflow/lite/kernels/internal/reference\tanh.h ****     }
 122:C:/Renesas/e2studio_2021_01_workspace_RZA2M_ANPR/ANPR_RZA2M_RDK/src/tensorflow_lite/src/tensorflow/lite/kernels/internal/reference\tanh.h ****     output_data[i] = output_val;
 7000              		.loc 10 122 0
 7001 0a68 0130E4E5 		strb	r3, [r4, #1]!
 7002              	.LBE5714:
  93:C:/Renesas/e2studio_2021_01_workspace_RZA2M_ANPR/ANPR_RZA2M_RDK/src/tensorflow_lite/src/tensorflow/lite/kernels/internal/reference\tanh.h ****     const uint8_t input_val_u8 = input_data[i];
 7003              		.loc 10 93 0
 7004 0a6c 050058E1 		cmp	r8, r5
 7005 0a70 F60000DA 		ble	.L558
 7006              	.LVL551:
 7007              	.L274:
 7008              	.LBB5715:
  96:C:/Renesas/e2studio_2021_01_workspace_RZA2M_ANPR/ANPR_RZA2M_RDK/src/tensorflow_lite/src/tensorflow/lite/kernels/internal/reference\tanh.h ****     uint8_t output_val;
 7009              		.loc 10 96 0
 7010 0a74 01A0F6E5 		ldrb	r10, [r6, #1]!	@ zero_extendqisi2
 7011              	.LVL552:
 7012 0a78 09A04AE0 		sub	r10, r10, r9
 7013              	.LVL553:
 7014              	.LBB5712:
  98:C:/Renesas/e2studio_2021_01_workspace_RZA2M_ANPR/ANPR_RZA2M_RDK/src/tensorflow_lite/src/tensorflow/lite/kernels/internal/reference\tanh.h ****       output_val = 0;
 7015              		.loc 10 98 0
 7016 0a7c 07005AE1 		cmp	r10, r7
  99:C:/Renesas/e2studio_2021_01_workspace_RZA2M_ANPR/ANPR_RZA2M_RDK/src/tensorflow_lite/src/tensorflow/lite/kernels/internal/reference\tanh.h ****     } else if (input_val_centered >= input_range_radius) {
 7017              		.loc 10 99 0
 7018 0a80 0030A0D3 		movle	r3, #0
  98:C:/Renesas/e2studio_2021_01_workspace_RZA2M_ANPR/ANPR_RZA2M_RDK/src/tensorflow_lite/src/tensorflow/lite/kernels/internal/reference\tanh.h ****       output_val = 0;
 7019              		.loc 10 98 0
 7020 0a84 F6FFFFDA 		ble	.L270
 7021              	.LBB5710:
 100:C:/Renesas/e2studio_2021_01_workspace_RZA2M_ANPR/ANPR_RZA2M_RDK/src/tensorflow_lite/src/tensorflow/lite/kernels/internal/reference\tanh.h ****       output_val = 255;
 7022              		.loc 10 100 0
 7023 0a88 0A005BE1 		cmp	fp, r10
 101:C:/Renesas/e2studio_2021_01_workspace_RZA2M_ANPR/ANPR_RZA2M_RDK/src/tensorflow_lite/src/tensorflow/lite/kernels/internal/reference\tanh.h ****     } else {
 7024              		.loc 10 101 0
 7025 0a8c FF30A0D3 		movle	r3, #255
 100:C:/Renesas/e2studio_2021_01_workspace_RZA2M_ANPR/ANPR_RZA2M_RDK/src/tensorflow_lite/src/tensorflow/lite/kernels/internal/reference\tanh.h ****       output_val = 255;
 7026              		.loc 10 100 0
 7027 0a90 F3FFFFDA 		ble	.L270
 7028              	.LVL554:
 7029              	.LBB5708:
 7030              	.LBB5706:
 7031              	.LBB5654:
 152:C:/Renesas/e2studio_2021_01_workspace_RZA2M_ANPR/ANPR_RZA2M_RDK/src/tensorflow_lite/src/tensorflow/lite/kernels/internal\common.h ****                                            quantized_multiplier);
 7032              		.loc 9 152 0
 7033 0a94 10309DE5 		ldr	r3, [sp, #16]
 7034              	.LBB5650:
 7035              	.LBB5646:
 334:C:/Renesas/e2studio_2021_01_workspace_RZA2M_ANPR/ANPR_RZA2M_RDK/src/tensorflow_lite/src/third_party/gemmlowp/fixedpoint\fixedpoint.h ****   std::int32_t nudge = ab_64 >= 0 ? (1 << 30) : (1 - (1 << 30));
 7036              		.loc 4 334 0
 7037 0a98 0C109DE5 		ldr	r1, [sp, #12]
 7038              	.LBE5646:
 7039              	.LBE5650:
 152:C:/Renesas/e2studio_2021_01_workspace_RZA2M_ANPR/ANPR_RZA2M_RDK/src/tensorflow_lite/src/tensorflow/lite/kernels/internal\common.h ****                                            quantized_multiplier);
 7040              		.loc 9 152 0
 7041 0a9c 1AA3A0E1 		lsl	r10, r10, r3
 7042              	.LVL555:
 7043              	.LBB5651:
 7044              	.LBB5647:
 334:C:/Renesas/e2studio_2021_01_workspace_RZA2M_ANPR/ANPR_RZA2M_RDK/src/tensorflow_lite/src/third_party/gemmlowp/fixedpoint\fixedpoint.h ****   std::int32_t nudge = ab_64 >= 0 ? (1 << 30) : (1 - (1 << 30));
 7045              		.loc 4 334 0
 7046 0aa0 9A21C3E0 		smull	r2, r3, r10, r1
 331:C:/Renesas/e2studio_2021_01_workspace_RZA2M_ANPR/ANPR_RZA2M_RDK/src/tensorflow_lite/src/third_party/gemmlowp/fixedpoint\fixedpoint.h ****   std::int64_t a_64(a);
 7047              		.loc 4 331 0
 7048 0aa4 0A0051E1 		cmp	r1, r10
 7049 0aa8 02015A03 		cmpeq	r10, #-2147483648
 7050 0aac 01A0A003 		moveq	r10, #1
 7051              	.LVL556:
 7052 0ab0 00A0A013 		movne	r10, #0
 7053              	.LVL557:
 335:C:/Renesas/e2studio_2021_01_workspace_RZA2M_ANPR/ANPR_RZA2M_RDK/src/tensorflow_lite/src/third_party/gemmlowp/fixedpoint\fixedpoint.h ****   std::int32_t ab_x2_high32 =
 7054              		.loc 4 335 0
 7055 0ab4 000052E3 		cmp	r2, #0
 7056 0ab8 0010D3E2 		sbcs	r1, r3, #0
 7057 0abc E00000BA 		blt	.L380
 7058 0ac0 0101A0E3 		mov	r0, #1073741824
 7059 0ac4 0010A0E3 		mov	r1, #0
 7060              	.L271:
 7061              	.LVL558:
 338:C:/Renesas/e2studio_2021_01_workspace_RZA2M_ANPR/ANPR_RZA2M_RDK/src/tensorflow_lite/src/third_party/gemmlowp/fixedpoint\fixedpoint.h **** }
 7062              		.loc 4 338 0
 7063 0ac8 00005AE3 		cmp	r10, #0
 7064 0acc C0FFFF0A 		beq	.L524
 7065 0ad0 0601A0E3 		mov	r0, #-2147483647
 7066              	.LVL559:
 7067 0ad4 0030E0E3 		mvn	r3, #0
 7068 0ad8 08308DE5 		str	r3, [sp, #8]
 7069              	.LVL560:
 7070              	.L327:
 7071 0adc 0030A0E3 		mov	r3, #0
 7072 0ae0 00A0E0E3 		mvn	r10, #0
 7073 0ae4 04308DE5 		str	r3, [sp, #4]
 7074 0ae8 C9FFFFEA 		b	.L272
 7075              	.LVL561:
 7076              	.L177:
 7077              	.LBE5647:
 7078              	.LBE5651:
 7079              	.LBE5654:
 7080              	.LBE5706:
 7081              	.LBE5708:
 7082              	.LBE5710:
 7083              	.LBE5712:
 7084              	.LBE5715:
 7085              	.LBE5718:
 7086              	.LBE5583:
 7087              	.LBE5582:
 7088              	.LBE5577:
  99:../src/tensorflow_lite/src/tensorflow/lite/micro/kernels/tanh.cpp ****                           tflite::micro::GetTensorData<float>(input),
 7089              		.loc 1 99 0
 7090 0aec 0710A0E1 		mov	r1, r7
 7091 0af0 20008DE2 		add	r0, sp, #32
 7092              	.LEHB6:
 7093 0af4 FEFFFFEB 		bl	_ZN6tflite5micro14GetTensorShapeEPK16TfLiteEvalTensor
 7094              	.LVL562:
 7095              	.LEHE6:
 101:../src/tensorflow_lite/src/tensorflow/lite/micro/kernels/tanh.cpp ****                           tflite::micro::GetTensorData<float>(output));
 7096              		.loc 1 101 0
 7097 0af8 0410A0E1 		mov	r1, r4
 7098 0afc 38008DE2 		add	r0, sp, #56
 7099              	.LBB5734:
 7100              	.LBB5735:
 7101              		.loc 6 63 0
 7102 0b00 009097E5 		ldr	r9, [r7]
 7103              	.LEHB7:
 7104              	.LBE5735:
 7105              	.LBE5734:
 101:../src/tensorflow_lite/src/tensorflow/lite/micro/kernels/tanh.cpp ****                           tflite::micro::GetTensorData<float>(output));
 7106              		.loc 1 101 0
 7107 0b04 FEFFFFEB 		bl	_ZN6tflite5micro14GetTensorShapeEPK16TfLiteEvalTensor
 7108              	.LVL563:
 7109              	.LEHE7:
 7110 0b08 20209DE5 		ldr	r2, [sp, #32]
 7111              	.LBB5736:
 7112              	.LBB5737:
  56:C:/Renesas/e2studio_2021_01_workspace_RZA2M_ANPR/ANPR_RZA2M_RDK/src/tensorflow_lite/src/tensorflow/lite/micro/kernels\kernel_util.h **** }
 7113              		.loc 6 56 0
 7114 0b0c 000054E3 		cmp	r4, #0
 7115 0b10 38A09DE5 		ldr	r10, [sp, #56]
 7116 0b14 00409415 		ldrne	r4, [r4]
 7117              	.LVL564:
 7118              	.LBE5737:
 7119              	.LBE5736:
 7120              	.LBB5738:
 7121              	.LBB5739:
 7122              	.LBB5740:
 7123              	.LBB5741:
 521:C:/Renesas/e2studio_2021_01_workspace_RZA2M_ANPR/ANPR_RZA2M_RDK/src/tensorflow_lite/src/tensorflow/lite/kernels/internal\types.h ****   const int dims_count = shape.DimensionsCount();
 7124              		.loc 7 521 0
 7125 0b18 0A0052E1 		cmp	r2, r10
 7126 0b1c 9701001A 		bne	.L183
 7127              	.LVL565:
 7128              	.LBB5742:
 523:C:/Renesas/e2studio_2021_01_workspace_RZA2M_ANPR/ANPR_RZA2M_RDK/src/tensorflow_lite/src/tensorflow/lite/kernels/internal\types.h ****     TFLITE_DCHECK_EQ(shape.Dims(i), check_shape_0.Dims(i));
 7129              		.loc 7 523 0
 7130 0b20 000052E3 		cmp	r2, #0
 7131 0b24 640100DA 		ble	.L334
 7132 0b28 050052E3 		cmp	r2, #5
 7133              	.LBB5743:
 7134              	.LBB5744:
 216:C:/Renesas/e2studio_2021_01_workspace_RZA2M_ANPR/ANPR_RZA2M_RDK/src/tensorflow_lite/src/tensorflow/lite/kernels/internal\types.h ****   }
 7135              		.loc 7 216 0
 7136 0b2c 24509DE5 		ldr	r5, [sp, #36]
 7137              	.LVL566:
 7138              	.LBE5744:
 7139              	.LBE5743:
 7140              	.LBB5750:
 7141              	.LBB5751:
 7142 0b30 3C109DE5 		ldr	r1, [sp, #60]
 7143 0b34 070100CA 		bgt	.L186
 7144              	.LVL567:
 215:C:/Renesas/e2studio_2021_01_workspace_RZA2M_ANPR/ANPR_RZA2M_RDK/src/tensorflow_lite/src/tensorflow/lite/kernels/internal\types.h ****     return size_ > kMaxSmallSize ? dims_pointer_[i] : dims_[i];
 7145              		.loc 7 215 0
 7146 0b38 000052E3 		cmp	r2, #0
 7147 0b3c 120100DA 		ble	.L187
 7148              	.LVL568:
 7149              	.LBE5751:
 7150              	.LBE5750:
 7151              		.loc 7 524 0
 7152 0b40 010055E1 		cmp	r5, r1
 7153 0b44 7701001A 		bne	.L188
 7154              	.LVL569:
 523:C:/Renesas/e2studio_2021_01_workspace_RZA2M_ANPR/ANPR_RZA2M_RDK/src/tensorflow_lite/src/tensorflow/lite/kernels/internal\types.h ****     TFLITE_DCHECK_EQ(shape.Dims(i), check_shape_0.Dims(i));
 7155              		.loc 7 523 0
 7156 0b48 010052E3 		cmp	r2, #1
 7157 0b4c D800000A 		beq	.L470
 7158              	.LVL570:
 7159              	.LBB5759:
 7160              	.LBB5745:
 216:C:/Renesas/e2studio_2021_01_workspace_RZA2M_ANPR/ANPR_RZA2M_RDK/src/tensorflow_lite/src/tensorflow/lite/kernels/internal\types.h ****   }
 7161              		.loc 7 216 0
 7162 0b50 28309DE5 		ldr	r3, [sp, #40]
 7163              	.LVL571:
 7164              	.LBE5745:
 7165              	.LBE5759:
 7166              		.loc 7 524 0
 7167 0b54 40109DE5 		ldr	r1, [sp, #64]
 7168 0b58 030051E1 		cmp	r1, r3
 7169 0b5c 7101001A 		bne	.L188
 7170              	.LVL572:
 523:C:/Renesas/e2studio_2021_01_workspace_RZA2M_ANPR/ANPR_RZA2M_RDK/src/tensorflow_lite/src/tensorflow/lite/kernels/internal\types.h ****     TFLITE_DCHECK_EQ(shape.Dims(i), check_shape_0.Dims(i));
 7171              		.loc 7 523 0
 7172 0b60 020052E3 		cmp	r2, #2
 7173 0b64 D200000A 		beq	.L470
 7174              	.LVL573:
 7175              	.LBB5760:
 7176              	.LBB5746:
 216:C:/Renesas/e2studio_2021_01_workspace_RZA2M_ANPR/ANPR_RZA2M_RDK/src/tensorflow_lite/src/tensorflow/lite/kernels/internal\types.h ****   }
 7177              		.loc 7 216 0
 7178 0b68 2C109DE5 		ldr	r1, [sp, #44]
 7179              	.LVL574:
 7180              	.LBE5746:
 7181              	.LBE5760:
 7182              		.loc 7 524 0
 7183 0b6c 44309DE5 		ldr	r3, [sp, #68]
 7184 0b70 030051E1 		cmp	r1, r3
 7185 0b74 6B01001A 		bne	.L188
 7186              	.LVL575:
 523:C:/Renesas/e2studio_2021_01_workspace_RZA2M_ANPR/ANPR_RZA2M_RDK/src/tensorflow_lite/src/tensorflow/lite/kernels/internal\types.h ****     TFLITE_DCHECK_EQ(shape.Dims(i), check_shape_0.Dims(i));
 7187              		.loc 7 523 0
 7188 0b78 030052E3 		cmp	r2, #3
 7189 0b7c CC00000A 		beq	.L470
 7190              	.LVL576:
 7191              	.LBB5761:
 7192              	.LBB5752:
 215:C:/Renesas/e2studio_2021_01_workspace_RZA2M_ANPR/ANPR_RZA2M_RDK/src/tensorflow_lite/src/tensorflow/lite/kernels/internal\types.h ****     return size_ > kMaxSmallSize ? dims_pointer_[i] : dims_[i];
 7193              		.loc 7 215 0
 7194 0b80 03005AE3 		cmp	r10, #3
 7195              	.LBE5752:
 7196              	.LBE5761:
 7197              	.LBB5762:
 7198              	.LBB5747:
 216:C:/Renesas/e2studio_2021_01_workspace_RZA2M_ANPR/ANPR_RZA2M_RDK/src/tensorflow_lite/src/tensorflow/lite/kernels/internal\types.h ****   }
 7199              		.loc 7 216 0
 7200 0b84 30109DE5 		ldr	r1, [sp, #48]
 7201              	.LVL577:
 7202              	.LBE5747:
 7203              	.LBE5762:
 7204              	.LBB5763:
 7205              	.LBB5753:
 215:C:/Renesas/e2studio_2021_01_workspace_RZA2M_ANPR/ANPR_RZA2M_RDK/src/tensorflow_lite/src/tensorflow/lite/kernels/internal\types.h ****     return size_ > kMaxSmallSize ? dims_pointer_[i] : dims_[i];
 7206              		.loc 7 215 0
 7207 0b88 FF00000A 		beq	.L187
 7208              	.LVL578:
 7209              	.LBE5753:
 7210              	.LBE5763:
 7211              		.loc 7 524 0
 7212 0b8c 48309DE5 		ldr	r3, [sp, #72]
 7213 0b90 030051E1 		cmp	r1, r3
 7214 0b94 6301001A 		bne	.L188
 7215              	.LVL579:
 523:C:/Renesas/e2studio_2021_01_workspace_RZA2M_ANPR/ANPR_RZA2M_RDK/src/tensorflow_lite/src/tensorflow/lite/kernels/internal\types.h ****     TFLITE_DCHECK_EQ(shape.Dims(i), check_shape_0.Dims(i));
 7216              		.loc 7 523 0
 7217 0b98 040052E3 		cmp	r2, #4
 7218 0b9c C400000A 		beq	.L470
 7219              	.LVL580:
 7220              	.LBB5764:
 7221              	.LBB5754:
 215:C:/Renesas/e2studio_2021_01_workspace_RZA2M_ANPR/ANPR_RZA2M_RDK/src/tensorflow_lite/src/tensorflow/lite/kernels/internal\types.h ****     return size_ > kMaxSmallSize ? dims_pointer_[i] : dims_[i];
 7222              		.loc 7 215 0
 7223 0ba0 04005AE3 		cmp	r10, #4
 7224              	.LBE5754:
 7225              	.LBE5764:
 7226              	.LBB5765:
 7227              	.LBB5748:
 216:C:/Renesas/e2studio_2021_01_workspace_RZA2M_ANPR/ANPR_RZA2M_RDK/src/tensorflow_lite/src/tensorflow/lite/kernels/internal\types.h ****   }
 7228              		.loc 7 216 0
 7229 0ba4 34309DE5 		ldr	r3, [sp, #52]
 7230              	.LVL581:
 7231              	.LBE5748:
 7232              	.LBE5765:
 7233              	.LBB5766:
 7234              	.LBB5755:
 215:C:/Renesas/e2studio_2021_01_workspace_RZA2M_ANPR/ANPR_RZA2M_RDK/src/tensorflow_lite/src/tensorflow/lite/kernels/internal\types.h ****     return size_ > kMaxSmallSize ? dims_pointer_[i] : dims_[i];
 7235              		.loc 7 215 0
 7236 0ba8 F700000A 		beq	.L187
 7237              	.LVL582:
 7238              	.LBE5755:
 7239              	.LBE5766:
 7240              		.loc 7 524 0
 7241 0bac 4C109DE5 		ldr	r1, [sp, #76]
 7242 0bb0 030051E1 		cmp	r1, r3
 7243 0bb4 5B01001A 		bne	.L188
 7244              	.LVL583:
 7245              	.L189:
 7246              	.LBE5742:
 7247              	.LBB5771:
 7248              	.LBB5772:
 7249              	.LBB5773:
 7250              	.LBB5774:
 232:C:/Renesas/e2studio_2021_01_workspace_RZA2M_ANPR/ANPR_RZA2M_RDK/src/tensorflow_lite/src/tensorflow/lite/kernels/internal\types.h ****   }
 7251              		.loc 7 232 0
 7252 0bb8 050052E3 		cmp	r2, #5
 7253 0bbc 05C0A0C1 		movgt	ip, r5
 7254 0bc0 B90000DA 		ble	.L568
 7255              	.LVL584:
 7256              	.L193:
 7257 0bc4 5C31A0E7 		sbfx	r3, ip, #2, #1
 7258 0bc8 033003E2 		and	r3, r3, #3
 7259 0bcc 020053E1 		cmp	r3, r2
 7260 0bd0 0230A021 		movcs	r3, r2
 7261 0bd4 080052E3 		cmp	r2, #8
 7262              	.LBE5774:
 7263              	.LBE5773:
 7264              	.LBB5775:
 292:C:/Renesas/e2studio_2021_01_workspace_RZA2M_ANPR/ANPR_RZA2M_RDK/src/tensorflow_lite/src/tensorflow/lite/kernels/internal\types.h ****       buffer_size *= dims_data[i];
 7265              		.loc 7 292 0
 7266 0bd8 0230A0D1 		movle	r3, r2
 7267 0bdc 270100CA 		bgt	.L569
 7268              	.L198:
 7269 0be0 010053E3 		cmp	r3, #1
 293:C:/Renesas/e2studio_2021_01_workspace_RZA2M_ANPR/ANPR_RZA2M_RDK/src/tensorflow_lite/src/tensorflow/lite/kernels/internal\types.h ****     }
 7270              		.loc 7 293 0
 7271 0be4 00809CE5 		ldr	r8, [ip]
 7272              	.LVL585:
 7273 0be8 AD00000A 		beq	.L343
 7274 0bec 04109CE5 		ldr	r1, [ip, #4]
 7275 0bf0 020053E3 		cmp	r3, #2
 7276 0bf4 910808E0 		mul	r8, r1, r8
 7277              	.LVL586:
 7278 0bf8 A900000A 		beq	.L343
 7279 0bfc 08109CE5 		ldr	r1, [ip, #8]
 7280 0c00 030053E3 		cmp	r3, #3
 7281 0c04 910808E0 		mul	r8, r1, r8
 7282              	.LVL587:
 7283 0c08 A500000A 		beq	.L343
 7284 0c0c 0C109CE5 		ldr	r1, [ip, #12]
 7285 0c10 040053E3 		cmp	r3, #4
 7286 0c14 910808E0 		mul	r8, r1, r8
 7287              	.LVL588:
 7288 0c18 A100000A 		beq	.L343
 7289 0c1c 10109CE5 		ldr	r1, [ip, #16]
 7290 0c20 050053E3 		cmp	r3, #5
 7291 0c24 910808E0 		mul	r8, r1, r8
 7292              	.LVL589:
 7293 0c28 9D00000A 		beq	.L343
 7294 0c2c 14109CE5 		ldr	r1, [ip, #20]
 7295 0c30 060053E3 		cmp	r3, #6
 7296 0c34 910808E0 		mul	r8, r1, r8
 7297              	.LVL590:
 7298 0c38 9900000A 		beq	.L343
 7299 0c3c 18109CE5 		ldr	r1, [ip, #24]
 7300 0c40 070053E3 		cmp	r3, #7
 7301 0c44 910808E0 		mul	r8, r1, r8
 7302              	.LVL591:
 7303 0c48 9500000A 		beq	.L343
 7304 0c4c 1C009CE5 		ldr	r0, [ip, #28]
 292:C:/Renesas/e2studio_2021_01_workspace_RZA2M_ANPR/ANPR_RZA2M_RDK/src/tensorflow_lite/src/tensorflow/lite/kernels/internal\types.h ****       buffer_size *= dims_data[i];
 7305              		.loc 7 292 0
 7306 0c50 0810A0E3 		mov	r1, #8
 293:C:/Renesas/e2studio_2021_01_workspace_RZA2M_ANPR/ANPR_RZA2M_RDK/src/tensorflow_lite/src/tensorflow/lite/kernels/internal\types.h ****     }
 7307              		.loc 7 293 0
 7308 0c54 900808E0 		mul	r8, r0, r8
 7309              	.LVL592:
 7310              	.L200:
 7311 0c58 030052E1 		cmp	r2, r3
 7312 0c5c 2800000A 		beq	.L201
 7313              	.LVL593:
 7314              	.L199:
 7315 0c60 035042E0 		sub	r5, r2, r3
 7316 0c64 01E042E2 		sub	lr, r2, #1
 7317 0c68 040045E2 		sub	r0, r5, #4
 7318 0c6c 03E04EE0 		sub	lr, lr, r3
 7319 0c70 2001A0E1 		lsr	r0, r0, #2
 7320 0c74 02005EE3 		cmp	lr, #2
 7321 0c78 010080E2 		add	r0, r0, #1
 7322 0c7c 0061A0E1 		lsl	r6, r0, #2
 7323              	.LVL594:
 7324 0c80 1200009A 		bls	.L202
 7325 0c84 03318CE0 		add	r3, ip, r3, lsl #2
 292:C:/Renesas/e2studio_2021_01_workspace_RZA2M_ANPR/ANPR_RZA2M_RDK/src/tensorflow_lite/src/tensorflow/lite/kernels/internal\types.h ****       buffer_size *= dims_data[i];
 7326              		.loc 7 292 0
 7327 0c88 5120C0F2 		vmov.i32	q9, #1  @ v4si
 7328 0c8c 00E0A0E3 		mov	lr, #0
 7329              	.L204:
 7330 0c90 01E08EE2 		add	lr, lr, #1
 293:C:/Renesas/e2studio_2021_01_workspace_RZA2M_ANPR/ANPR_RZA2M_RDK/src/tensorflow_lite/src/tensorflow/lite/kernels/internal\types.h ****     }
 7331              		.loc 7 293 0
 7332 0c94 DF0A63F4 		vld1.64	{d16-d17}, [r3:64]
 7333 0c98 0E0050E1 		cmp	r0, lr
 7334 0c9c 103083E2 		add	r3, r3, #16
 7335 0ca0 F02962F2 		vmul.i32	q9, q9, q8
 7336 0ca4 F9FFFF8A 		bhi	.L204
 7337 0ca8 050056E1 		cmp	r6, r5
 7338 0cac 061081E0 		add	r1, r1, r6
 7339 0cb0 5000C0F2 		vmov.i32	q8, #0  @ v4si
 7340 0cb4 E048F2F2 		vext.32	q10, q9, q8, #2
 7341 0cb8 F22964F2 		vmul.i32	q9, q10, q9
 7342 0cbc E004F2F2 		vext.32	q8, q9, q8, #1
 7343 0cc0 F20960F2 		vmul.i32	q8, q8, q9
 7344 0cc4 903B10EE 		vmov.32	r3, d16[0]
 7345 0cc8 930808E0 		mul	r8, r3, r8
 7346 0ccc 0C00000A 		beq	.L201
 7347              	.L202:
 7348              	.LVL595:
 7349 0cd0 01019CE7 		ldr	r0, [ip, r1, lsl #2]
 292:C:/Renesas/e2studio_2021_01_workspace_RZA2M_ANPR/ANPR_RZA2M_RDK/src/tensorflow_lite/src/tensorflow/lite/kernels/internal\types.h ****       buffer_size *= dims_data[i];
 7350              		.loc 7 292 0
 7351 0cd4 013081E2 		add	r3, r1, #1
 7352 0cd8 030052E1 		cmp	r2, r3
 293:C:/Renesas/e2studio_2021_01_workspace_RZA2M_ANPR/ANPR_RZA2M_RDK/src/tensorflow_lite/src/tensorflow/lite/kernels/internal\types.h ****     }
 7353              		.loc 7 293 0
 7354 0cdc 0131A0E1 		lsl	r3, r1, #2
 7355 0ce0 900808E0 		mul	r8, r0, r8
 7356              	.LVL596:
 292:C:/Renesas/e2studio_2021_01_workspace_RZA2M_ANPR/ANPR_RZA2M_RDK/src/tensorflow_lite/src/tensorflow/lite/kernels/internal\types.h ****       buffer_size *= dims_data[i];
 7357              		.loc 7 292 0
 7358 0ce4 060000DA 		ble	.L201
 293:C:/Renesas/e2studio_2021_01_workspace_RZA2M_ANPR/ANPR_RZA2M_RDK/src/tensorflow_lite/src/tensorflow/lite/kernels/internal\types.h ****     }
 7359              		.loc 7 293 0
 7360 0ce8 03308CE0 		add	r3, ip, r3
 292:C:/Renesas/e2studio_2021_01_workspace_RZA2M_ANPR/ANPR_RZA2M_RDK/src/tensorflow_lite/src/tensorflow/lite/kernels/internal\types.h ****       buffer_size *= dims_data[i];
 7361              		.loc 7 292 0
 7362 0cec 021081E2 		add	r1, r1, #2
 293:C:/Renesas/e2studio_2021_01_workspace_RZA2M_ANPR/ANPR_RZA2M_RDK/src/tensorflow_lite/src/tensorflow/lite/kernels/internal\types.h ****     }
 7363              		.loc 7 293 0
 7364 0cf0 040093E5 		ldr	r0, [r3, #4]
 292:C:/Renesas/e2studio_2021_01_workspace_RZA2M_ANPR/ANPR_RZA2M_RDK/src/tensorflow_lite/src/tensorflow/lite/kernels/internal\types.h ****       buffer_size *= dims_data[i];
 7365              		.loc 7 292 0
 7366 0cf4 010052E1 		cmp	r2, r1
 293:C:/Renesas/e2studio_2021_01_workspace_RZA2M_ANPR/ANPR_RZA2M_RDK/src/tensorflow_lite/src/tensorflow/lite/kernels/internal\types.h ****     }
 7367              		.loc 7 293 0
 7368 0cf8 900808E0 		mul	r8, r0, r8
 7369              	.LVL597:
 292:C:/Renesas/e2studio_2021_01_workspace_RZA2M_ANPR/ANPR_RZA2M_RDK/src/tensorflow_lite/src/tensorflow/lite/kernels/internal\types.h ****       buffer_size *= dims_data[i];
 7370              		.loc 7 292 0
 293:C:/Renesas/e2studio_2021_01_workspace_RZA2M_ANPR/ANPR_RZA2M_RDK/src/tensorflow_lite/src/tensorflow/lite/kernels/internal\types.h ****     }
 7371              		.loc 7 293 0
 7372 0cfc 083093C5 		ldrgt	r3, [r3, #8]
 7373 0d00 930808C0 		mulgt	r8, r3, r8
 7374              	.LVL598:
 7375              	.L201:
 7376              	.LBE5775:
 7377              	.LBE5772:
 7378              	.LBE5771:
 7379              	.LBE5741:
 7380              	.LBE5740:
 7381              	.LBB5793:
  33:C:/Renesas/e2studio_2021_01_workspace_RZA2M_ANPR/ANPR_RZA2M_RDK/src/tensorflow_lite/src/tensorflow/lite/kernels/internal/reference\tanh.h ****     float val = input_data[i];
 7382              		.loc 10 33 0
 7383 0d04 000058E3 		cmp	r8, #0
 7384 0d08 2F0000DA 		ble	.L209
 7385 0d0c 080058E3 		cmp	r8, #8
 7386 0d10 170100DA 		ble	.L344
 7387 0d14 09B048E2 		sub	fp, r8, #9
 7388 0d18 286089E2 		add	r6, r9, #40
 7389 0d1c 07B0CBE3 		bic	fp, fp, #7
 7390 0d20 285084E2 		add	r5, r4, #40
 7391 0d24 08B08BE2 		add	fp, fp, #8
 7392 0d28 0070A0E3 		mov	r7, #0
 7393              	.LVL599:
 7394              	.L208:
 7395              	.LBB5794:
 7396              	.LBB5795:
 7397              	.LBB5796:
 7398              		.file 11 "c:\\program files (x86)\\gnu tools arm embedded\\6 2017-q2-update\\arm-none-eabi\\includ
   1:c:\program files (x86)\gnu tools arm embedded\6 2017-q2-update\arm-none-eabi\include\c++\6.3.1\cmath **** // -*- C++ -*- C forwarding header.
   2:c:\program files (x86)\gnu tools arm embedded\6 2017-q2-update\arm-none-eabi\include\c++\6.3.1\cmath **** 
   3:c:\program files (x86)\gnu tools arm embedded\6 2017-q2-update\arm-none-eabi\include\c++\6.3.1\cmath **** // Copyright (C) 1997-2016 Free Software Foundation, Inc.
   4:c:\program files (x86)\gnu tools arm embedded\6 2017-q2-update\arm-none-eabi\include\c++\6.3.1\cmath **** //
   5:c:\program files (x86)\gnu tools arm embedded\6 2017-q2-update\arm-none-eabi\include\c++\6.3.1\cmath **** // This file is part of the GNU ISO C++ Library.  This library is free
   6:c:\program files (x86)\gnu tools arm embedded\6 2017-q2-update\arm-none-eabi\include\c++\6.3.1\cmath **** // software; you can redistribute it and/or modify it under the
   7:c:\program files (x86)\gnu tools arm embedded\6 2017-q2-update\arm-none-eabi\include\c++\6.3.1\cmath **** // terms of the GNU General Public License as published by the
   8:c:\program files (x86)\gnu tools arm embedded\6 2017-q2-update\arm-none-eabi\include\c++\6.3.1\cmath **** // Free Software Foundation; either version 3, or (at your option)
   9:c:\program files (x86)\gnu tools arm embedded\6 2017-q2-update\arm-none-eabi\include\c++\6.3.1\cmath **** // any later version.
  10:c:\program files (x86)\gnu tools arm embedded\6 2017-q2-update\arm-none-eabi\include\c++\6.3.1\cmath **** 
  11:c:\program files (x86)\gnu tools arm embedded\6 2017-q2-update\arm-none-eabi\include\c++\6.3.1\cmath **** // This library is distributed in the hope that it will be useful,
  12:c:\program files (x86)\gnu tools arm embedded\6 2017-q2-update\arm-none-eabi\include\c++\6.3.1\cmath **** // but WITHOUT ANY WARRANTY; without even the implied warranty of
  13:c:\program files (x86)\gnu tools arm embedded\6 2017-q2-update\arm-none-eabi\include\c++\6.3.1\cmath **** // MERCHANTABILITY or FITNESS FOR A PARTICULAR PURPOSE.  See the
  14:c:\program files (x86)\gnu tools arm embedded\6 2017-q2-update\arm-none-eabi\include\c++\6.3.1\cmath **** // GNU General Public License for more details.
  15:c:\program files (x86)\gnu tools arm embedded\6 2017-q2-update\arm-none-eabi\include\c++\6.3.1\cmath **** 
  16:c:\program files (x86)\gnu tools arm embedded\6 2017-q2-update\arm-none-eabi\include\c++\6.3.1\cmath **** // Under Section 7 of GPL version 3, you are granted additional
  17:c:\program files (x86)\gnu tools arm embedded\6 2017-q2-update\arm-none-eabi\include\c++\6.3.1\cmath **** // permissions described in the GCC Runtime Library Exception, version
  18:c:\program files (x86)\gnu tools arm embedded\6 2017-q2-update\arm-none-eabi\include\c++\6.3.1\cmath **** // 3.1, as published by the Free Software Foundation.
  19:c:\program files (x86)\gnu tools arm embedded\6 2017-q2-update\arm-none-eabi\include\c++\6.3.1\cmath **** 
  20:c:\program files (x86)\gnu tools arm embedded\6 2017-q2-update\arm-none-eabi\include\c++\6.3.1\cmath **** // You should have received a copy of the GNU General Public License and
  21:c:\program files (x86)\gnu tools arm embedded\6 2017-q2-update\arm-none-eabi\include\c++\6.3.1\cmath **** // a copy of the GCC Runtime Library Exception along with this program;
  22:c:\program files (x86)\gnu tools arm embedded\6 2017-q2-update\arm-none-eabi\include\c++\6.3.1\cmath **** // see the files COPYING3 and COPYING.RUNTIME respectively.  If not, see
  23:c:\program files (x86)\gnu tools arm embedded\6 2017-q2-update\arm-none-eabi\include\c++\6.3.1\cmath **** // <http://www.gnu.org/licenses/>.
  24:c:\program files (x86)\gnu tools arm embedded\6 2017-q2-update\arm-none-eabi\include\c++\6.3.1\cmath **** 
  25:c:\program files (x86)\gnu tools arm embedded\6 2017-q2-update\arm-none-eabi\include\c++\6.3.1\cmath **** /** @file include/cmath
  26:c:\program files (x86)\gnu tools arm embedded\6 2017-q2-update\arm-none-eabi\include\c++\6.3.1\cmath ****  *  This is a Standard C++ Library file.  You should @c \#include this file
  27:c:\program files (x86)\gnu tools arm embedded\6 2017-q2-update\arm-none-eabi\include\c++\6.3.1\cmath ****  *  in your programs, rather than any of the @a *.h implementation files.
  28:c:\program files (x86)\gnu tools arm embedded\6 2017-q2-update\arm-none-eabi\include\c++\6.3.1\cmath ****  *
  29:c:\program files (x86)\gnu tools arm embedded\6 2017-q2-update\arm-none-eabi\include\c++\6.3.1\cmath ****  *  This is the C++ version of the Standard C Library header @c math.h,
  30:c:\program files (x86)\gnu tools arm embedded\6 2017-q2-update\arm-none-eabi\include\c++\6.3.1\cmath ****  *  and its contents are (mostly) the same as that header, but are all
  31:c:\program files (x86)\gnu tools arm embedded\6 2017-q2-update\arm-none-eabi\include\c++\6.3.1\cmath ****  *  contained in the namespace @c std (except for names which are defined
  32:c:\program files (x86)\gnu tools arm embedded\6 2017-q2-update\arm-none-eabi\include\c++\6.3.1\cmath ****  *  as macros in C).
  33:c:\program files (x86)\gnu tools arm embedded\6 2017-q2-update\arm-none-eabi\include\c++\6.3.1\cmath ****  */
  34:c:\program files (x86)\gnu tools arm embedded\6 2017-q2-update\arm-none-eabi\include\c++\6.3.1\cmath **** 
  35:c:\program files (x86)\gnu tools arm embedded\6 2017-q2-update\arm-none-eabi\include\c++\6.3.1\cmath **** //
  36:c:\program files (x86)\gnu tools arm embedded\6 2017-q2-update\arm-none-eabi\include\c++\6.3.1\cmath **** // ISO C++ 14882: 26.5  C library
  37:c:\program files (x86)\gnu tools arm embedded\6 2017-q2-update\arm-none-eabi\include\c++\6.3.1\cmath **** //
  38:c:\program files (x86)\gnu tools arm embedded\6 2017-q2-update\arm-none-eabi\include\c++\6.3.1\cmath **** 
  39:c:\program files (x86)\gnu tools arm embedded\6 2017-q2-update\arm-none-eabi\include\c++\6.3.1\cmath **** #pragma GCC system_header
  40:c:\program files (x86)\gnu tools arm embedded\6 2017-q2-update\arm-none-eabi\include\c++\6.3.1\cmath **** 
  41:c:\program files (x86)\gnu tools arm embedded\6 2017-q2-update\arm-none-eabi\include\c++\6.3.1\cmath **** #include <bits/c++config.h>
  42:c:\program files (x86)\gnu tools arm embedded\6 2017-q2-update\arm-none-eabi\include\c++\6.3.1\cmath **** #include <bits/cpp_type_traits.h>
  43:c:\program files (x86)\gnu tools arm embedded\6 2017-q2-update\arm-none-eabi\include\c++\6.3.1\cmath **** #include <ext/type_traits.h>
  44:c:\program files (x86)\gnu tools arm embedded\6 2017-q2-update\arm-none-eabi\include\c++\6.3.1\cmath **** #define _GLIBCXX_INCLUDE_NEXT_C_HEADERS
  45:c:\program files (x86)\gnu tools arm embedded\6 2017-q2-update\arm-none-eabi\include\c++\6.3.1\cmath **** #include_next <math.h>
  46:c:\program files (x86)\gnu tools arm embedded\6 2017-q2-update\arm-none-eabi\include\c++\6.3.1\cmath **** #undef _GLIBCXX_INCLUDE_NEXT_C_HEADERS
  47:c:\program files (x86)\gnu tools arm embedded\6 2017-q2-update\arm-none-eabi\include\c++\6.3.1\cmath **** 
  48:c:\program files (x86)\gnu tools arm embedded\6 2017-q2-update\arm-none-eabi\include\c++\6.3.1\cmath **** #ifndef _GLIBCXX_CMATH
  49:c:\program files (x86)\gnu tools arm embedded\6 2017-q2-update\arm-none-eabi\include\c++\6.3.1\cmath **** #define _GLIBCXX_CMATH 1
  50:c:\program files (x86)\gnu tools arm embedded\6 2017-q2-update\arm-none-eabi\include\c++\6.3.1\cmath **** 
  51:c:\program files (x86)\gnu tools arm embedded\6 2017-q2-update\arm-none-eabi\include\c++\6.3.1\cmath **** // Get rid of those macros defined in <math.h> in lieu of real functions.
  52:c:\program files (x86)\gnu tools arm embedded\6 2017-q2-update\arm-none-eabi\include\c++\6.3.1\cmath **** #undef abs
  53:c:\program files (x86)\gnu tools arm embedded\6 2017-q2-update\arm-none-eabi\include\c++\6.3.1\cmath **** #undef div
  54:c:\program files (x86)\gnu tools arm embedded\6 2017-q2-update\arm-none-eabi\include\c++\6.3.1\cmath **** #undef acos
  55:c:\program files (x86)\gnu tools arm embedded\6 2017-q2-update\arm-none-eabi\include\c++\6.3.1\cmath **** #undef asin
  56:c:\program files (x86)\gnu tools arm embedded\6 2017-q2-update\arm-none-eabi\include\c++\6.3.1\cmath **** #undef atan
  57:c:\program files (x86)\gnu tools arm embedded\6 2017-q2-update\arm-none-eabi\include\c++\6.3.1\cmath **** #undef atan2
  58:c:\program files (x86)\gnu tools arm embedded\6 2017-q2-update\arm-none-eabi\include\c++\6.3.1\cmath **** #undef ceil
  59:c:\program files (x86)\gnu tools arm embedded\6 2017-q2-update\arm-none-eabi\include\c++\6.3.1\cmath **** #undef cos
  60:c:\program files (x86)\gnu tools arm embedded\6 2017-q2-update\arm-none-eabi\include\c++\6.3.1\cmath **** #undef cosh
  61:c:\program files (x86)\gnu tools arm embedded\6 2017-q2-update\arm-none-eabi\include\c++\6.3.1\cmath **** #undef exp
  62:c:\program files (x86)\gnu tools arm embedded\6 2017-q2-update\arm-none-eabi\include\c++\6.3.1\cmath **** #undef fabs
  63:c:\program files (x86)\gnu tools arm embedded\6 2017-q2-update\arm-none-eabi\include\c++\6.3.1\cmath **** #undef floor
  64:c:\program files (x86)\gnu tools arm embedded\6 2017-q2-update\arm-none-eabi\include\c++\6.3.1\cmath **** #undef fmod
  65:c:\program files (x86)\gnu tools arm embedded\6 2017-q2-update\arm-none-eabi\include\c++\6.3.1\cmath **** #undef frexp
  66:c:\program files (x86)\gnu tools arm embedded\6 2017-q2-update\arm-none-eabi\include\c++\6.3.1\cmath **** #undef ldexp
  67:c:\program files (x86)\gnu tools arm embedded\6 2017-q2-update\arm-none-eabi\include\c++\6.3.1\cmath **** #undef log
  68:c:\program files (x86)\gnu tools arm embedded\6 2017-q2-update\arm-none-eabi\include\c++\6.3.1\cmath **** #undef log10
  69:c:\program files (x86)\gnu tools arm embedded\6 2017-q2-update\arm-none-eabi\include\c++\6.3.1\cmath **** #undef modf
  70:c:\program files (x86)\gnu tools arm embedded\6 2017-q2-update\arm-none-eabi\include\c++\6.3.1\cmath **** #undef pow
  71:c:\program files (x86)\gnu tools arm embedded\6 2017-q2-update\arm-none-eabi\include\c++\6.3.1\cmath **** #undef sin
  72:c:\program files (x86)\gnu tools arm embedded\6 2017-q2-update\arm-none-eabi\include\c++\6.3.1\cmath **** #undef sinh
  73:c:\program files (x86)\gnu tools arm embedded\6 2017-q2-update\arm-none-eabi\include\c++\6.3.1\cmath **** #undef sqrt
  74:c:\program files (x86)\gnu tools arm embedded\6 2017-q2-update\arm-none-eabi\include\c++\6.3.1\cmath **** #undef tan
  75:c:\program files (x86)\gnu tools arm embedded\6 2017-q2-update\arm-none-eabi\include\c++\6.3.1\cmath **** #undef tanh
  76:c:\program files (x86)\gnu tools arm embedded\6 2017-q2-update\arm-none-eabi\include\c++\6.3.1\cmath **** 
  77:c:\program files (x86)\gnu tools arm embedded\6 2017-q2-update\arm-none-eabi\include\c++\6.3.1\cmath **** extern "C++"
  78:c:\program files (x86)\gnu tools arm embedded\6 2017-q2-update\arm-none-eabi\include\c++\6.3.1\cmath **** {
  79:c:\program files (x86)\gnu tools arm embedded\6 2017-q2-update\arm-none-eabi\include\c++\6.3.1\cmath **** namespace std _GLIBCXX_VISIBILITY(default)
  80:c:\program files (x86)\gnu tools arm embedded\6 2017-q2-update\arm-none-eabi\include\c++\6.3.1\cmath **** {
  81:c:\program files (x86)\gnu tools arm embedded\6 2017-q2-update\arm-none-eabi\include\c++\6.3.1\cmath **** _GLIBCXX_BEGIN_NAMESPACE_VERSION
  82:c:\program files (x86)\gnu tools arm embedded\6 2017-q2-update\arm-none-eabi\include\c++\6.3.1\cmath **** 
  83:c:\program files (x86)\gnu tools arm embedded\6 2017-q2-update\arm-none-eabi\include\c++\6.3.1\cmath **** #ifndef __CORRECT_ISO_CPP_MATH_H_PROTO
  84:c:\program files (x86)\gnu tools arm embedded\6 2017-q2-update\arm-none-eabi\include\c++\6.3.1\cmath ****   inline _GLIBCXX_CONSTEXPR double
  85:c:\program files (x86)\gnu tools arm embedded\6 2017-q2-update\arm-none-eabi\include\c++\6.3.1\cmath ****   abs(double __x)
  86:c:\program files (x86)\gnu tools arm embedded\6 2017-q2-update\arm-none-eabi\include\c++\6.3.1\cmath ****   { return __builtin_fabs(__x); }
  87:c:\program files (x86)\gnu tools arm embedded\6 2017-q2-update\arm-none-eabi\include\c++\6.3.1\cmath **** #endif
  88:c:\program files (x86)\gnu tools arm embedded\6 2017-q2-update\arm-none-eabi\include\c++\6.3.1\cmath **** 
  89:c:\program files (x86)\gnu tools arm embedded\6 2017-q2-update\arm-none-eabi\include\c++\6.3.1\cmath **** #ifndef __CORRECT_ISO_CPP_MATH_H_PROTO
  90:c:\program files (x86)\gnu tools arm embedded\6 2017-q2-update\arm-none-eabi\include\c++\6.3.1\cmath ****   inline _GLIBCXX_CONSTEXPR float
  91:c:\program files (x86)\gnu tools arm embedded\6 2017-q2-update\arm-none-eabi\include\c++\6.3.1\cmath ****   abs(float __x)
  92:c:\program files (x86)\gnu tools arm embedded\6 2017-q2-update\arm-none-eabi\include\c++\6.3.1\cmath ****   { return __builtin_fabsf(__x); }
  93:c:\program files (x86)\gnu tools arm embedded\6 2017-q2-update\arm-none-eabi\include\c++\6.3.1\cmath **** 
  94:c:\program files (x86)\gnu tools arm embedded\6 2017-q2-update\arm-none-eabi\include\c++\6.3.1\cmath ****   inline _GLIBCXX_CONSTEXPR long double
  95:c:\program files (x86)\gnu tools arm embedded\6 2017-q2-update\arm-none-eabi\include\c++\6.3.1\cmath ****   abs(long double __x)
  96:c:\program files (x86)\gnu tools arm embedded\6 2017-q2-update\arm-none-eabi\include\c++\6.3.1\cmath ****   { return __builtin_fabsl(__x); }
  97:c:\program files (x86)\gnu tools arm embedded\6 2017-q2-update\arm-none-eabi\include\c++\6.3.1\cmath **** #endif
  98:c:\program files (x86)\gnu tools arm embedded\6 2017-q2-update\arm-none-eabi\include\c++\6.3.1\cmath **** 
  99:c:\program files (x86)\gnu tools arm embedded\6 2017-q2-update\arm-none-eabi\include\c++\6.3.1\cmath ****   template<typename _Tp>
 100:c:\program files (x86)\gnu tools arm embedded\6 2017-q2-update\arm-none-eabi\include\c++\6.3.1\cmath ****     inline _GLIBCXX_CONSTEXPR
 101:c:\program files (x86)\gnu tools arm embedded\6 2017-q2-update\arm-none-eabi\include\c++\6.3.1\cmath ****     typename __gnu_cxx::__enable_if<__is_integer<_Tp>::__value,
 102:c:\program files (x86)\gnu tools arm embedded\6 2017-q2-update\arm-none-eabi\include\c++\6.3.1\cmath ****                                     double>::__type
 103:c:\program files (x86)\gnu tools arm embedded\6 2017-q2-update\arm-none-eabi\include\c++\6.3.1\cmath ****     abs(_Tp __x)
 104:c:\program files (x86)\gnu tools arm embedded\6 2017-q2-update\arm-none-eabi\include\c++\6.3.1\cmath ****     { return __builtin_fabs(__x); }
 105:c:\program files (x86)\gnu tools arm embedded\6 2017-q2-update\arm-none-eabi\include\c++\6.3.1\cmath **** 
 106:c:\program files (x86)\gnu tools arm embedded\6 2017-q2-update\arm-none-eabi\include\c++\6.3.1\cmath ****   using ::acos;
 107:c:\program files (x86)\gnu tools arm embedded\6 2017-q2-update\arm-none-eabi\include\c++\6.3.1\cmath **** 
 108:c:\program files (x86)\gnu tools arm embedded\6 2017-q2-update\arm-none-eabi\include\c++\6.3.1\cmath **** #ifndef __CORRECT_ISO_CPP_MATH_H_PROTO
 109:c:\program files (x86)\gnu tools arm embedded\6 2017-q2-update\arm-none-eabi\include\c++\6.3.1\cmath ****   inline _GLIBCXX_CONSTEXPR float
 110:c:\program files (x86)\gnu tools arm embedded\6 2017-q2-update\arm-none-eabi\include\c++\6.3.1\cmath ****   acos(float __x)
 111:c:\program files (x86)\gnu tools arm embedded\6 2017-q2-update\arm-none-eabi\include\c++\6.3.1\cmath ****   { return __builtin_acosf(__x); }
 112:c:\program files (x86)\gnu tools arm embedded\6 2017-q2-update\arm-none-eabi\include\c++\6.3.1\cmath **** 
 113:c:\program files (x86)\gnu tools arm embedded\6 2017-q2-update\arm-none-eabi\include\c++\6.3.1\cmath ****   inline _GLIBCXX_CONSTEXPR long double
 114:c:\program files (x86)\gnu tools arm embedded\6 2017-q2-update\arm-none-eabi\include\c++\6.3.1\cmath ****   acos(long double __x)
 115:c:\program files (x86)\gnu tools arm embedded\6 2017-q2-update\arm-none-eabi\include\c++\6.3.1\cmath ****   { return __builtin_acosl(__x); }
 116:c:\program files (x86)\gnu tools arm embedded\6 2017-q2-update\arm-none-eabi\include\c++\6.3.1\cmath **** #endif
 117:c:\program files (x86)\gnu tools arm embedded\6 2017-q2-update\arm-none-eabi\include\c++\6.3.1\cmath **** 
 118:c:\program files (x86)\gnu tools arm embedded\6 2017-q2-update\arm-none-eabi\include\c++\6.3.1\cmath ****   template<typename _Tp>
 119:c:\program files (x86)\gnu tools arm embedded\6 2017-q2-update\arm-none-eabi\include\c++\6.3.1\cmath ****     inline _GLIBCXX_CONSTEXPR
 120:c:\program files (x86)\gnu tools arm embedded\6 2017-q2-update\arm-none-eabi\include\c++\6.3.1\cmath ****     typename __gnu_cxx::__enable_if<__is_integer<_Tp>::__value, 
 121:c:\program files (x86)\gnu tools arm embedded\6 2017-q2-update\arm-none-eabi\include\c++\6.3.1\cmath ****                                     double>::__type
 122:c:\program files (x86)\gnu tools arm embedded\6 2017-q2-update\arm-none-eabi\include\c++\6.3.1\cmath ****     acos(_Tp __x)
 123:c:\program files (x86)\gnu tools arm embedded\6 2017-q2-update\arm-none-eabi\include\c++\6.3.1\cmath ****     { return __builtin_acos(__x); }
 124:c:\program files (x86)\gnu tools arm embedded\6 2017-q2-update\arm-none-eabi\include\c++\6.3.1\cmath **** 
 125:c:\program files (x86)\gnu tools arm embedded\6 2017-q2-update\arm-none-eabi\include\c++\6.3.1\cmath ****   using ::asin;
 126:c:\program files (x86)\gnu tools arm embedded\6 2017-q2-update\arm-none-eabi\include\c++\6.3.1\cmath **** 
 127:c:\program files (x86)\gnu tools arm embedded\6 2017-q2-update\arm-none-eabi\include\c++\6.3.1\cmath **** #ifndef __CORRECT_ISO_CPP_MATH_H_PROTO
 128:c:\program files (x86)\gnu tools arm embedded\6 2017-q2-update\arm-none-eabi\include\c++\6.3.1\cmath ****   inline _GLIBCXX_CONSTEXPR float
 129:c:\program files (x86)\gnu tools arm embedded\6 2017-q2-update\arm-none-eabi\include\c++\6.3.1\cmath ****   asin(float __x)
 130:c:\program files (x86)\gnu tools arm embedded\6 2017-q2-update\arm-none-eabi\include\c++\6.3.1\cmath ****   { return __builtin_asinf(__x); }
 131:c:\program files (x86)\gnu tools arm embedded\6 2017-q2-update\arm-none-eabi\include\c++\6.3.1\cmath **** 
 132:c:\program files (x86)\gnu tools arm embedded\6 2017-q2-update\arm-none-eabi\include\c++\6.3.1\cmath ****   inline _GLIBCXX_CONSTEXPR long double
 133:c:\program files (x86)\gnu tools arm embedded\6 2017-q2-update\arm-none-eabi\include\c++\6.3.1\cmath ****   asin(long double __x)
 134:c:\program files (x86)\gnu tools arm embedded\6 2017-q2-update\arm-none-eabi\include\c++\6.3.1\cmath ****   { return __builtin_asinl(__x); }
 135:c:\program files (x86)\gnu tools arm embedded\6 2017-q2-update\arm-none-eabi\include\c++\6.3.1\cmath **** #endif
 136:c:\program files (x86)\gnu tools arm embedded\6 2017-q2-update\arm-none-eabi\include\c++\6.3.1\cmath **** 
 137:c:\program files (x86)\gnu tools arm embedded\6 2017-q2-update\arm-none-eabi\include\c++\6.3.1\cmath ****   template<typename _Tp>
 138:c:\program files (x86)\gnu tools arm embedded\6 2017-q2-update\arm-none-eabi\include\c++\6.3.1\cmath ****     inline _GLIBCXX_CONSTEXPR
 139:c:\program files (x86)\gnu tools arm embedded\6 2017-q2-update\arm-none-eabi\include\c++\6.3.1\cmath ****     typename __gnu_cxx::__enable_if<__is_integer<_Tp>::__value,
 140:c:\program files (x86)\gnu tools arm embedded\6 2017-q2-update\arm-none-eabi\include\c++\6.3.1\cmath ****                                     double>::__type
 141:c:\program files (x86)\gnu tools arm embedded\6 2017-q2-update\arm-none-eabi\include\c++\6.3.1\cmath ****     asin(_Tp __x)
 142:c:\program files (x86)\gnu tools arm embedded\6 2017-q2-update\arm-none-eabi\include\c++\6.3.1\cmath ****     { return __builtin_asin(__x); }
 143:c:\program files (x86)\gnu tools arm embedded\6 2017-q2-update\arm-none-eabi\include\c++\6.3.1\cmath **** 
 144:c:\program files (x86)\gnu tools arm embedded\6 2017-q2-update\arm-none-eabi\include\c++\6.3.1\cmath ****   using ::atan;
 145:c:\program files (x86)\gnu tools arm embedded\6 2017-q2-update\arm-none-eabi\include\c++\6.3.1\cmath **** 
 146:c:\program files (x86)\gnu tools arm embedded\6 2017-q2-update\arm-none-eabi\include\c++\6.3.1\cmath **** #ifndef __CORRECT_ISO_CPP_MATH_H_PROTO
 147:c:\program files (x86)\gnu tools arm embedded\6 2017-q2-update\arm-none-eabi\include\c++\6.3.1\cmath ****   inline _GLIBCXX_CONSTEXPR float
 148:c:\program files (x86)\gnu tools arm embedded\6 2017-q2-update\arm-none-eabi\include\c++\6.3.1\cmath ****   atan(float __x)
 149:c:\program files (x86)\gnu tools arm embedded\6 2017-q2-update\arm-none-eabi\include\c++\6.3.1\cmath ****   { return __builtin_atanf(__x); }
 150:c:\program files (x86)\gnu tools arm embedded\6 2017-q2-update\arm-none-eabi\include\c++\6.3.1\cmath **** 
 151:c:\program files (x86)\gnu tools arm embedded\6 2017-q2-update\arm-none-eabi\include\c++\6.3.1\cmath ****   inline _GLIBCXX_CONSTEXPR long double
 152:c:\program files (x86)\gnu tools arm embedded\6 2017-q2-update\arm-none-eabi\include\c++\6.3.1\cmath ****   atan(long double __x)
 153:c:\program files (x86)\gnu tools arm embedded\6 2017-q2-update\arm-none-eabi\include\c++\6.3.1\cmath ****   { return __builtin_atanl(__x); }
 154:c:\program files (x86)\gnu tools arm embedded\6 2017-q2-update\arm-none-eabi\include\c++\6.3.1\cmath **** #endif
 155:c:\program files (x86)\gnu tools arm embedded\6 2017-q2-update\arm-none-eabi\include\c++\6.3.1\cmath **** 
 156:c:\program files (x86)\gnu tools arm embedded\6 2017-q2-update\arm-none-eabi\include\c++\6.3.1\cmath ****   template<typename _Tp>
 157:c:\program files (x86)\gnu tools arm embedded\6 2017-q2-update\arm-none-eabi\include\c++\6.3.1\cmath ****     inline _GLIBCXX_CONSTEXPR
 158:c:\program files (x86)\gnu tools arm embedded\6 2017-q2-update\arm-none-eabi\include\c++\6.3.1\cmath ****     typename __gnu_cxx::__enable_if<__is_integer<_Tp>::__value,
 159:c:\program files (x86)\gnu tools arm embedded\6 2017-q2-update\arm-none-eabi\include\c++\6.3.1\cmath ****                                     double>::__type
 160:c:\program files (x86)\gnu tools arm embedded\6 2017-q2-update\arm-none-eabi\include\c++\6.3.1\cmath ****     atan(_Tp __x)
 161:c:\program files (x86)\gnu tools arm embedded\6 2017-q2-update\arm-none-eabi\include\c++\6.3.1\cmath ****     { return __builtin_atan(__x); }
 162:c:\program files (x86)\gnu tools arm embedded\6 2017-q2-update\arm-none-eabi\include\c++\6.3.1\cmath **** 
 163:c:\program files (x86)\gnu tools arm embedded\6 2017-q2-update\arm-none-eabi\include\c++\6.3.1\cmath ****   using ::atan2;
 164:c:\program files (x86)\gnu tools arm embedded\6 2017-q2-update\arm-none-eabi\include\c++\6.3.1\cmath **** 
 165:c:\program files (x86)\gnu tools arm embedded\6 2017-q2-update\arm-none-eabi\include\c++\6.3.1\cmath **** #ifndef __CORRECT_ISO_CPP_MATH_H_PROTO
 166:c:\program files (x86)\gnu tools arm embedded\6 2017-q2-update\arm-none-eabi\include\c++\6.3.1\cmath ****   inline _GLIBCXX_CONSTEXPR float
 167:c:\program files (x86)\gnu tools arm embedded\6 2017-q2-update\arm-none-eabi\include\c++\6.3.1\cmath ****   atan2(float __y, float __x)
 168:c:\program files (x86)\gnu tools arm embedded\6 2017-q2-update\arm-none-eabi\include\c++\6.3.1\cmath ****   { return __builtin_atan2f(__y, __x); }
 169:c:\program files (x86)\gnu tools arm embedded\6 2017-q2-update\arm-none-eabi\include\c++\6.3.1\cmath **** 
 170:c:\program files (x86)\gnu tools arm embedded\6 2017-q2-update\arm-none-eabi\include\c++\6.3.1\cmath ****   inline _GLIBCXX_CONSTEXPR long double
 171:c:\program files (x86)\gnu tools arm embedded\6 2017-q2-update\arm-none-eabi\include\c++\6.3.1\cmath ****   atan2(long double __y, long double __x)
 172:c:\program files (x86)\gnu tools arm embedded\6 2017-q2-update\arm-none-eabi\include\c++\6.3.1\cmath ****   { return __builtin_atan2l(__y, __x); }
 173:c:\program files (x86)\gnu tools arm embedded\6 2017-q2-update\arm-none-eabi\include\c++\6.3.1\cmath **** #endif
 174:c:\program files (x86)\gnu tools arm embedded\6 2017-q2-update\arm-none-eabi\include\c++\6.3.1\cmath **** 
 175:c:\program files (x86)\gnu tools arm embedded\6 2017-q2-update\arm-none-eabi\include\c++\6.3.1\cmath ****   template<typename _Tp, typename _Up>
 176:c:\program files (x86)\gnu tools arm embedded\6 2017-q2-update\arm-none-eabi\include\c++\6.3.1\cmath ****     inline _GLIBCXX_CONSTEXPR
 177:c:\program files (x86)\gnu tools arm embedded\6 2017-q2-update\arm-none-eabi\include\c++\6.3.1\cmath ****     typename __gnu_cxx::__promote_2<_Tp, _Up>::__type
 178:c:\program files (x86)\gnu tools arm embedded\6 2017-q2-update\arm-none-eabi\include\c++\6.3.1\cmath ****     atan2(_Tp __y, _Up __x)
 179:c:\program files (x86)\gnu tools arm embedded\6 2017-q2-update\arm-none-eabi\include\c++\6.3.1\cmath ****     {
 180:c:\program files (x86)\gnu tools arm embedded\6 2017-q2-update\arm-none-eabi\include\c++\6.3.1\cmath ****       typedef typename __gnu_cxx::__promote_2<_Tp, _Up>::__type __type;
 181:c:\program files (x86)\gnu tools arm embedded\6 2017-q2-update\arm-none-eabi\include\c++\6.3.1\cmath ****       return atan2(__type(__y), __type(__x));
 182:c:\program files (x86)\gnu tools arm embedded\6 2017-q2-update\arm-none-eabi\include\c++\6.3.1\cmath ****     }
 183:c:\program files (x86)\gnu tools arm embedded\6 2017-q2-update\arm-none-eabi\include\c++\6.3.1\cmath **** 
 184:c:\program files (x86)\gnu tools arm embedded\6 2017-q2-update\arm-none-eabi\include\c++\6.3.1\cmath ****   using ::ceil;
 185:c:\program files (x86)\gnu tools arm embedded\6 2017-q2-update\arm-none-eabi\include\c++\6.3.1\cmath **** 
 186:c:\program files (x86)\gnu tools arm embedded\6 2017-q2-update\arm-none-eabi\include\c++\6.3.1\cmath **** #ifndef __CORRECT_ISO_CPP_MATH_H_PROTO
 187:c:\program files (x86)\gnu tools arm embedded\6 2017-q2-update\arm-none-eabi\include\c++\6.3.1\cmath ****   inline _GLIBCXX_CONSTEXPR float
 188:c:\program files (x86)\gnu tools arm embedded\6 2017-q2-update\arm-none-eabi\include\c++\6.3.1\cmath ****   ceil(float __x)
 189:c:\program files (x86)\gnu tools arm embedded\6 2017-q2-update\arm-none-eabi\include\c++\6.3.1\cmath ****   { return __builtin_ceilf(__x); }
 190:c:\program files (x86)\gnu tools arm embedded\6 2017-q2-update\arm-none-eabi\include\c++\6.3.1\cmath **** 
 191:c:\program files (x86)\gnu tools arm embedded\6 2017-q2-update\arm-none-eabi\include\c++\6.3.1\cmath ****   inline _GLIBCXX_CONSTEXPR long double
 192:c:\program files (x86)\gnu tools arm embedded\6 2017-q2-update\arm-none-eabi\include\c++\6.3.1\cmath ****   ceil(long double __x)
 193:c:\program files (x86)\gnu tools arm embedded\6 2017-q2-update\arm-none-eabi\include\c++\6.3.1\cmath ****   { return __builtin_ceill(__x); }
 194:c:\program files (x86)\gnu tools arm embedded\6 2017-q2-update\arm-none-eabi\include\c++\6.3.1\cmath **** #endif
 195:c:\program files (x86)\gnu tools arm embedded\6 2017-q2-update\arm-none-eabi\include\c++\6.3.1\cmath **** 
 196:c:\program files (x86)\gnu tools arm embedded\6 2017-q2-update\arm-none-eabi\include\c++\6.3.1\cmath ****   template<typename _Tp>
 197:c:\program files (x86)\gnu tools arm embedded\6 2017-q2-update\arm-none-eabi\include\c++\6.3.1\cmath ****     inline _GLIBCXX_CONSTEXPR
 198:c:\program files (x86)\gnu tools arm embedded\6 2017-q2-update\arm-none-eabi\include\c++\6.3.1\cmath ****     typename __gnu_cxx::__enable_if<__is_integer<_Tp>::__value, 
 199:c:\program files (x86)\gnu tools arm embedded\6 2017-q2-update\arm-none-eabi\include\c++\6.3.1\cmath ****                                     double>::__type
 200:c:\program files (x86)\gnu tools arm embedded\6 2017-q2-update\arm-none-eabi\include\c++\6.3.1\cmath ****     ceil(_Tp __x)
 201:c:\program files (x86)\gnu tools arm embedded\6 2017-q2-update\arm-none-eabi\include\c++\6.3.1\cmath ****     { return __builtin_ceil(__x); }
 202:c:\program files (x86)\gnu tools arm embedded\6 2017-q2-update\arm-none-eabi\include\c++\6.3.1\cmath **** 
 203:c:\program files (x86)\gnu tools arm embedded\6 2017-q2-update\arm-none-eabi\include\c++\6.3.1\cmath ****   using ::cos;
 204:c:\program files (x86)\gnu tools arm embedded\6 2017-q2-update\arm-none-eabi\include\c++\6.3.1\cmath **** 
 205:c:\program files (x86)\gnu tools arm embedded\6 2017-q2-update\arm-none-eabi\include\c++\6.3.1\cmath **** #ifndef __CORRECT_ISO_CPP_MATH_H_PROTO
 206:c:\program files (x86)\gnu tools arm embedded\6 2017-q2-update\arm-none-eabi\include\c++\6.3.1\cmath ****   inline _GLIBCXX_CONSTEXPR float
 207:c:\program files (x86)\gnu tools arm embedded\6 2017-q2-update\arm-none-eabi\include\c++\6.3.1\cmath ****   cos(float __x)
 208:c:\program files (x86)\gnu tools arm embedded\6 2017-q2-update\arm-none-eabi\include\c++\6.3.1\cmath ****   { return __builtin_cosf(__x); }
 209:c:\program files (x86)\gnu tools arm embedded\6 2017-q2-update\arm-none-eabi\include\c++\6.3.1\cmath **** 
 210:c:\program files (x86)\gnu tools arm embedded\6 2017-q2-update\arm-none-eabi\include\c++\6.3.1\cmath ****   inline _GLIBCXX_CONSTEXPR long double
 211:c:\program files (x86)\gnu tools arm embedded\6 2017-q2-update\arm-none-eabi\include\c++\6.3.1\cmath ****   cos(long double __x)
 212:c:\program files (x86)\gnu tools arm embedded\6 2017-q2-update\arm-none-eabi\include\c++\6.3.1\cmath ****   { return __builtin_cosl(__x); }
 213:c:\program files (x86)\gnu tools arm embedded\6 2017-q2-update\arm-none-eabi\include\c++\6.3.1\cmath **** #endif
 214:c:\program files (x86)\gnu tools arm embedded\6 2017-q2-update\arm-none-eabi\include\c++\6.3.1\cmath **** 
 215:c:\program files (x86)\gnu tools arm embedded\6 2017-q2-update\arm-none-eabi\include\c++\6.3.1\cmath ****   template<typename _Tp>
 216:c:\program files (x86)\gnu tools arm embedded\6 2017-q2-update\arm-none-eabi\include\c++\6.3.1\cmath ****     inline _GLIBCXX_CONSTEXPR
 217:c:\program files (x86)\gnu tools arm embedded\6 2017-q2-update\arm-none-eabi\include\c++\6.3.1\cmath ****     typename __gnu_cxx::__enable_if<__is_integer<_Tp>::__value,
 218:c:\program files (x86)\gnu tools arm embedded\6 2017-q2-update\arm-none-eabi\include\c++\6.3.1\cmath ****                                     double>::__type
 219:c:\program files (x86)\gnu tools arm embedded\6 2017-q2-update\arm-none-eabi\include\c++\6.3.1\cmath ****     cos(_Tp __x)
 220:c:\program files (x86)\gnu tools arm embedded\6 2017-q2-update\arm-none-eabi\include\c++\6.3.1\cmath ****     { return __builtin_cos(__x); }
 221:c:\program files (x86)\gnu tools arm embedded\6 2017-q2-update\arm-none-eabi\include\c++\6.3.1\cmath **** 
 222:c:\program files (x86)\gnu tools arm embedded\6 2017-q2-update\arm-none-eabi\include\c++\6.3.1\cmath ****   using ::cosh;
 223:c:\program files (x86)\gnu tools arm embedded\6 2017-q2-update\arm-none-eabi\include\c++\6.3.1\cmath **** 
 224:c:\program files (x86)\gnu tools arm embedded\6 2017-q2-update\arm-none-eabi\include\c++\6.3.1\cmath **** #ifndef __CORRECT_ISO_CPP_MATH_H_PROTO
 225:c:\program files (x86)\gnu tools arm embedded\6 2017-q2-update\arm-none-eabi\include\c++\6.3.1\cmath ****   inline _GLIBCXX_CONSTEXPR float
 226:c:\program files (x86)\gnu tools arm embedded\6 2017-q2-update\arm-none-eabi\include\c++\6.3.1\cmath ****   cosh(float __x)
 227:c:\program files (x86)\gnu tools arm embedded\6 2017-q2-update\arm-none-eabi\include\c++\6.3.1\cmath ****   { return __builtin_coshf(__x); }
 228:c:\program files (x86)\gnu tools arm embedded\6 2017-q2-update\arm-none-eabi\include\c++\6.3.1\cmath **** 
 229:c:\program files (x86)\gnu tools arm embedded\6 2017-q2-update\arm-none-eabi\include\c++\6.3.1\cmath ****   inline _GLIBCXX_CONSTEXPR long double
 230:c:\program files (x86)\gnu tools arm embedded\6 2017-q2-update\arm-none-eabi\include\c++\6.3.1\cmath ****   cosh(long double __x)
 231:c:\program files (x86)\gnu tools arm embedded\6 2017-q2-update\arm-none-eabi\include\c++\6.3.1\cmath ****   { return __builtin_coshl(__x); }
 232:c:\program files (x86)\gnu tools arm embedded\6 2017-q2-update\arm-none-eabi\include\c++\6.3.1\cmath **** #endif
 233:c:\program files (x86)\gnu tools arm embedded\6 2017-q2-update\arm-none-eabi\include\c++\6.3.1\cmath **** 
 234:c:\program files (x86)\gnu tools arm embedded\6 2017-q2-update\arm-none-eabi\include\c++\6.3.1\cmath ****   template<typename _Tp>
 235:c:\program files (x86)\gnu tools arm embedded\6 2017-q2-update\arm-none-eabi\include\c++\6.3.1\cmath ****     inline _GLIBCXX_CONSTEXPR
 236:c:\program files (x86)\gnu tools arm embedded\6 2017-q2-update\arm-none-eabi\include\c++\6.3.1\cmath ****     typename __gnu_cxx::__enable_if<__is_integer<_Tp>::__value,
 237:c:\program files (x86)\gnu tools arm embedded\6 2017-q2-update\arm-none-eabi\include\c++\6.3.1\cmath ****                                     double>::__type
 238:c:\program files (x86)\gnu tools arm embedded\6 2017-q2-update\arm-none-eabi\include\c++\6.3.1\cmath ****     cosh(_Tp __x)
 239:c:\program files (x86)\gnu tools arm embedded\6 2017-q2-update\arm-none-eabi\include\c++\6.3.1\cmath ****     { return __builtin_cosh(__x); }
 240:c:\program files (x86)\gnu tools arm embedded\6 2017-q2-update\arm-none-eabi\include\c++\6.3.1\cmath **** 
 241:c:\program files (x86)\gnu tools arm embedded\6 2017-q2-update\arm-none-eabi\include\c++\6.3.1\cmath ****   using ::exp;
 242:c:\program files (x86)\gnu tools arm embedded\6 2017-q2-update\arm-none-eabi\include\c++\6.3.1\cmath **** 
 243:c:\program files (x86)\gnu tools arm embedded\6 2017-q2-update\arm-none-eabi\include\c++\6.3.1\cmath **** #ifndef __CORRECT_ISO_CPP_MATH_H_PROTO
 244:c:\program files (x86)\gnu tools arm embedded\6 2017-q2-update\arm-none-eabi\include\c++\6.3.1\cmath ****   inline _GLIBCXX_CONSTEXPR float
 245:c:\program files (x86)\gnu tools arm embedded\6 2017-q2-update\arm-none-eabi\include\c++\6.3.1\cmath ****   exp(float __x)
 246:c:\program files (x86)\gnu tools arm embedded\6 2017-q2-update\arm-none-eabi\include\c++\6.3.1\cmath ****   { return __builtin_expf(__x); }
 247:c:\program files (x86)\gnu tools arm embedded\6 2017-q2-update\arm-none-eabi\include\c++\6.3.1\cmath **** 
 248:c:\program files (x86)\gnu tools arm embedded\6 2017-q2-update\arm-none-eabi\include\c++\6.3.1\cmath ****   inline _GLIBCXX_CONSTEXPR long double
 249:c:\program files (x86)\gnu tools arm embedded\6 2017-q2-update\arm-none-eabi\include\c++\6.3.1\cmath ****   exp(long double __x)
 250:c:\program files (x86)\gnu tools arm embedded\6 2017-q2-update\arm-none-eabi\include\c++\6.3.1\cmath ****   { return __builtin_expl(__x); }
 251:c:\program files (x86)\gnu tools arm embedded\6 2017-q2-update\arm-none-eabi\include\c++\6.3.1\cmath **** #endif
 252:c:\program files (x86)\gnu tools arm embedded\6 2017-q2-update\arm-none-eabi\include\c++\6.3.1\cmath **** 
 253:c:\program files (x86)\gnu tools arm embedded\6 2017-q2-update\arm-none-eabi\include\c++\6.3.1\cmath ****   template<typename _Tp>
 254:c:\program files (x86)\gnu tools arm embedded\6 2017-q2-update\arm-none-eabi\include\c++\6.3.1\cmath ****     inline _GLIBCXX_CONSTEXPR
 255:c:\program files (x86)\gnu tools arm embedded\6 2017-q2-update\arm-none-eabi\include\c++\6.3.1\cmath ****     typename __gnu_cxx::__enable_if<__is_integer<_Tp>::__value,
 256:c:\program files (x86)\gnu tools arm embedded\6 2017-q2-update\arm-none-eabi\include\c++\6.3.1\cmath ****                                     double>::__type
 257:c:\program files (x86)\gnu tools arm embedded\6 2017-q2-update\arm-none-eabi\include\c++\6.3.1\cmath ****     exp(_Tp __x)
 258:c:\program files (x86)\gnu tools arm embedded\6 2017-q2-update\arm-none-eabi\include\c++\6.3.1\cmath ****     { return __builtin_exp(__x); }
 259:c:\program files (x86)\gnu tools arm embedded\6 2017-q2-update\arm-none-eabi\include\c++\6.3.1\cmath **** 
 260:c:\program files (x86)\gnu tools arm embedded\6 2017-q2-update\arm-none-eabi\include\c++\6.3.1\cmath ****   using ::fabs;
 261:c:\program files (x86)\gnu tools arm embedded\6 2017-q2-update\arm-none-eabi\include\c++\6.3.1\cmath **** 
 262:c:\program files (x86)\gnu tools arm embedded\6 2017-q2-update\arm-none-eabi\include\c++\6.3.1\cmath **** #ifndef __CORRECT_ISO_CPP_MATH_H_PROTO
 263:c:\program files (x86)\gnu tools arm embedded\6 2017-q2-update\arm-none-eabi\include\c++\6.3.1\cmath ****   inline _GLIBCXX_CONSTEXPR float
 264:c:\program files (x86)\gnu tools arm embedded\6 2017-q2-update\arm-none-eabi\include\c++\6.3.1\cmath ****   fabs(float __x)
 265:c:\program files (x86)\gnu tools arm embedded\6 2017-q2-update\arm-none-eabi\include\c++\6.3.1\cmath ****   { return __builtin_fabsf(__x); }
 266:c:\program files (x86)\gnu tools arm embedded\6 2017-q2-update\arm-none-eabi\include\c++\6.3.1\cmath **** 
 267:c:\program files (x86)\gnu tools arm embedded\6 2017-q2-update\arm-none-eabi\include\c++\6.3.1\cmath ****   inline _GLIBCXX_CONSTEXPR long double
 268:c:\program files (x86)\gnu tools arm embedded\6 2017-q2-update\arm-none-eabi\include\c++\6.3.1\cmath ****   fabs(long double __x)
 269:c:\program files (x86)\gnu tools arm embedded\6 2017-q2-update\arm-none-eabi\include\c++\6.3.1\cmath ****   { return __builtin_fabsl(__x); }
 270:c:\program files (x86)\gnu tools arm embedded\6 2017-q2-update\arm-none-eabi\include\c++\6.3.1\cmath **** #endif
 271:c:\program files (x86)\gnu tools arm embedded\6 2017-q2-update\arm-none-eabi\include\c++\6.3.1\cmath **** 
 272:c:\program files (x86)\gnu tools arm embedded\6 2017-q2-update\arm-none-eabi\include\c++\6.3.1\cmath ****   template<typename _Tp>
 273:c:\program files (x86)\gnu tools arm embedded\6 2017-q2-update\arm-none-eabi\include\c++\6.3.1\cmath ****     inline _GLIBCXX_CONSTEXPR
 274:c:\program files (x86)\gnu tools arm embedded\6 2017-q2-update\arm-none-eabi\include\c++\6.3.1\cmath ****     typename __gnu_cxx::__enable_if<__is_integer<_Tp>::__value,
 275:c:\program files (x86)\gnu tools arm embedded\6 2017-q2-update\arm-none-eabi\include\c++\6.3.1\cmath ****                                     double>::__type
 276:c:\program files (x86)\gnu tools arm embedded\6 2017-q2-update\arm-none-eabi\include\c++\6.3.1\cmath ****     fabs(_Tp __x)
 277:c:\program files (x86)\gnu tools arm embedded\6 2017-q2-update\arm-none-eabi\include\c++\6.3.1\cmath ****     { return __builtin_fabs(__x); }
 278:c:\program files (x86)\gnu tools arm embedded\6 2017-q2-update\arm-none-eabi\include\c++\6.3.1\cmath **** 
 279:c:\program files (x86)\gnu tools arm embedded\6 2017-q2-update\arm-none-eabi\include\c++\6.3.1\cmath ****   using ::floor;
 280:c:\program files (x86)\gnu tools arm embedded\6 2017-q2-update\arm-none-eabi\include\c++\6.3.1\cmath **** 
 281:c:\program files (x86)\gnu tools arm embedded\6 2017-q2-update\arm-none-eabi\include\c++\6.3.1\cmath **** #ifndef __CORRECT_ISO_CPP_MATH_H_PROTO
 282:c:\program files (x86)\gnu tools arm embedded\6 2017-q2-update\arm-none-eabi\include\c++\6.3.1\cmath ****   inline _GLIBCXX_CONSTEXPR float
 283:c:\program files (x86)\gnu tools arm embedded\6 2017-q2-update\arm-none-eabi\include\c++\6.3.1\cmath ****   floor(float __x)
 284:c:\program files (x86)\gnu tools arm embedded\6 2017-q2-update\arm-none-eabi\include\c++\6.3.1\cmath ****   { return __builtin_floorf(__x); }
 285:c:\program files (x86)\gnu tools arm embedded\6 2017-q2-update\arm-none-eabi\include\c++\6.3.1\cmath **** 
 286:c:\program files (x86)\gnu tools arm embedded\6 2017-q2-update\arm-none-eabi\include\c++\6.3.1\cmath ****   inline _GLIBCXX_CONSTEXPR long double
 287:c:\program files (x86)\gnu tools arm embedded\6 2017-q2-update\arm-none-eabi\include\c++\6.3.1\cmath ****   floor(long double __x)
 288:c:\program files (x86)\gnu tools arm embedded\6 2017-q2-update\arm-none-eabi\include\c++\6.3.1\cmath ****   { return __builtin_floorl(__x); }
 289:c:\program files (x86)\gnu tools arm embedded\6 2017-q2-update\arm-none-eabi\include\c++\6.3.1\cmath **** #endif
 290:c:\program files (x86)\gnu tools arm embedded\6 2017-q2-update\arm-none-eabi\include\c++\6.3.1\cmath **** 
 291:c:\program files (x86)\gnu tools arm embedded\6 2017-q2-update\arm-none-eabi\include\c++\6.3.1\cmath ****   template<typename _Tp>
 292:c:\program files (x86)\gnu tools arm embedded\6 2017-q2-update\arm-none-eabi\include\c++\6.3.1\cmath ****     inline _GLIBCXX_CONSTEXPR
 293:c:\program files (x86)\gnu tools arm embedded\6 2017-q2-update\arm-none-eabi\include\c++\6.3.1\cmath ****     typename __gnu_cxx::__enable_if<__is_integer<_Tp>::__value,
 294:c:\program files (x86)\gnu tools arm embedded\6 2017-q2-update\arm-none-eabi\include\c++\6.3.1\cmath ****                                     double>::__type
 295:c:\program files (x86)\gnu tools arm embedded\6 2017-q2-update\arm-none-eabi\include\c++\6.3.1\cmath ****     floor(_Tp __x)
 296:c:\program files (x86)\gnu tools arm embedded\6 2017-q2-update\arm-none-eabi\include\c++\6.3.1\cmath ****     { return __builtin_floor(__x); }
 297:c:\program files (x86)\gnu tools arm embedded\6 2017-q2-update\arm-none-eabi\include\c++\6.3.1\cmath **** 
 298:c:\program files (x86)\gnu tools arm embedded\6 2017-q2-update\arm-none-eabi\include\c++\6.3.1\cmath ****   using ::fmod;
 299:c:\program files (x86)\gnu tools arm embedded\6 2017-q2-update\arm-none-eabi\include\c++\6.3.1\cmath **** 
 300:c:\program files (x86)\gnu tools arm embedded\6 2017-q2-update\arm-none-eabi\include\c++\6.3.1\cmath **** #ifndef __CORRECT_ISO_CPP_MATH_H_PROTO
 301:c:\program files (x86)\gnu tools arm embedded\6 2017-q2-update\arm-none-eabi\include\c++\6.3.1\cmath ****   inline _GLIBCXX_CONSTEXPR float
 302:c:\program files (x86)\gnu tools arm embedded\6 2017-q2-update\arm-none-eabi\include\c++\6.3.1\cmath ****   fmod(float __x, float __y)
 303:c:\program files (x86)\gnu tools arm embedded\6 2017-q2-update\arm-none-eabi\include\c++\6.3.1\cmath ****   { return __builtin_fmodf(__x, __y); }
 304:c:\program files (x86)\gnu tools arm embedded\6 2017-q2-update\arm-none-eabi\include\c++\6.3.1\cmath **** 
 305:c:\program files (x86)\gnu tools arm embedded\6 2017-q2-update\arm-none-eabi\include\c++\6.3.1\cmath ****   inline _GLIBCXX_CONSTEXPR long double
 306:c:\program files (x86)\gnu tools arm embedded\6 2017-q2-update\arm-none-eabi\include\c++\6.3.1\cmath ****   fmod(long double __x, long double __y)
 307:c:\program files (x86)\gnu tools arm embedded\6 2017-q2-update\arm-none-eabi\include\c++\6.3.1\cmath ****   { return __builtin_fmodl(__x, __y); }
 308:c:\program files (x86)\gnu tools arm embedded\6 2017-q2-update\arm-none-eabi\include\c++\6.3.1\cmath **** #endif
 309:c:\program files (x86)\gnu tools arm embedded\6 2017-q2-update\arm-none-eabi\include\c++\6.3.1\cmath **** 
 310:c:\program files (x86)\gnu tools arm embedded\6 2017-q2-update\arm-none-eabi\include\c++\6.3.1\cmath ****   template<typename _Tp, typename _Up>
 311:c:\program files (x86)\gnu tools arm embedded\6 2017-q2-update\arm-none-eabi\include\c++\6.3.1\cmath ****     inline _GLIBCXX_CONSTEXPR
 312:c:\program files (x86)\gnu tools arm embedded\6 2017-q2-update\arm-none-eabi\include\c++\6.3.1\cmath ****     typename __gnu_cxx::__promote_2<_Tp, _Up>::__type
 313:c:\program files (x86)\gnu tools arm embedded\6 2017-q2-update\arm-none-eabi\include\c++\6.3.1\cmath ****     fmod(_Tp __x, _Up __y)
 314:c:\program files (x86)\gnu tools arm embedded\6 2017-q2-update\arm-none-eabi\include\c++\6.3.1\cmath ****     {
 315:c:\program files (x86)\gnu tools arm embedded\6 2017-q2-update\arm-none-eabi\include\c++\6.3.1\cmath ****       typedef typename __gnu_cxx::__promote_2<_Tp, _Up>::__type __type;
 316:c:\program files (x86)\gnu tools arm embedded\6 2017-q2-update\arm-none-eabi\include\c++\6.3.1\cmath ****       return fmod(__type(__x), __type(__y));
 317:c:\program files (x86)\gnu tools arm embedded\6 2017-q2-update\arm-none-eabi\include\c++\6.3.1\cmath ****     }
 318:c:\program files (x86)\gnu tools arm embedded\6 2017-q2-update\arm-none-eabi\include\c++\6.3.1\cmath **** 
 319:c:\program files (x86)\gnu tools arm embedded\6 2017-q2-update\arm-none-eabi\include\c++\6.3.1\cmath ****   using ::frexp;
 320:c:\program files (x86)\gnu tools arm embedded\6 2017-q2-update\arm-none-eabi\include\c++\6.3.1\cmath **** 
 321:c:\program files (x86)\gnu tools arm embedded\6 2017-q2-update\arm-none-eabi\include\c++\6.3.1\cmath **** #ifndef __CORRECT_ISO_CPP_MATH_H_PROTO
 322:c:\program files (x86)\gnu tools arm embedded\6 2017-q2-update\arm-none-eabi\include\c++\6.3.1\cmath ****   inline float
 323:c:\program files (x86)\gnu tools arm embedded\6 2017-q2-update\arm-none-eabi\include\c++\6.3.1\cmath ****   frexp(float __x, int* __exp)
 324:c:\program files (x86)\gnu tools arm embedded\6 2017-q2-update\arm-none-eabi\include\c++\6.3.1\cmath ****   { return __builtin_frexpf(__x, __exp); }
 325:c:\program files (x86)\gnu tools arm embedded\6 2017-q2-update\arm-none-eabi\include\c++\6.3.1\cmath **** 
 326:c:\program files (x86)\gnu tools arm embedded\6 2017-q2-update\arm-none-eabi\include\c++\6.3.1\cmath ****   inline long double
 327:c:\program files (x86)\gnu tools arm embedded\6 2017-q2-update\arm-none-eabi\include\c++\6.3.1\cmath ****   frexp(long double __x, int* __exp)
 328:c:\program files (x86)\gnu tools arm embedded\6 2017-q2-update\arm-none-eabi\include\c++\6.3.1\cmath ****   { return __builtin_frexpl(__x, __exp); }
 329:c:\program files (x86)\gnu tools arm embedded\6 2017-q2-update\arm-none-eabi\include\c++\6.3.1\cmath **** #endif
 330:c:\program files (x86)\gnu tools arm embedded\6 2017-q2-update\arm-none-eabi\include\c++\6.3.1\cmath **** 
 331:c:\program files (x86)\gnu tools arm embedded\6 2017-q2-update\arm-none-eabi\include\c++\6.3.1\cmath ****   template<typename _Tp>
 332:c:\program files (x86)\gnu tools arm embedded\6 2017-q2-update\arm-none-eabi\include\c++\6.3.1\cmath ****     inline _GLIBCXX_CONSTEXPR
 333:c:\program files (x86)\gnu tools arm embedded\6 2017-q2-update\arm-none-eabi\include\c++\6.3.1\cmath ****     typename __gnu_cxx::__enable_if<__is_integer<_Tp>::__value, 
 334:c:\program files (x86)\gnu tools arm embedded\6 2017-q2-update\arm-none-eabi\include\c++\6.3.1\cmath ****                                     double>::__type
 335:c:\program files (x86)\gnu tools arm embedded\6 2017-q2-update\arm-none-eabi\include\c++\6.3.1\cmath ****     frexp(_Tp __x, int* __exp)
 336:c:\program files (x86)\gnu tools arm embedded\6 2017-q2-update\arm-none-eabi\include\c++\6.3.1\cmath ****     { return __builtin_frexp(__x, __exp); }
 337:c:\program files (x86)\gnu tools arm embedded\6 2017-q2-update\arm-none-eabi\include\c++\6.3.1\cmath **** 
 338:c:\program files (x86)\gnu tools arm embedded\6 2017-q2-update\arm-none-eabi\include\c++\6.3.1\cmath ****   using ::ldexp;
 339:c:\program files (x86)\gnu tools arm embedded\6 2017-q2-update\arm-none-eabi\include\c++\6.3.1\cmath **** 
 340:c:\program files (x86)\gnu tools arm embedded\6 2017-q2-update\arm-none-eabi\include\c++\6.3.1\cmath **** #ifndef __CORRECT_ISO_CPP_MATH_H_PROTO
 341:c:\program files (x86)\gnu tools arm embedded\6 2017-q2-update\arm-none-eabi\include\c++\6.3.1\cmath ****   inline _GLIBCXX_CONSTEXPR float
 342:c:\program files (x86)\gnu tools arm embedded\6 2017-q2-update\arm-none-eabi\include\c++\6.3.1\cmath ****   ldexp(float __x, int __exp)
 343:c:\program files (x86)\gnu tools arm embedded\6 2017-q2-update\arm-none-eabi\include\c++\6.3.1\cmath ****   { return __builtin_ldexpf(__x, __exp); }
 344:c:\program files (x86)\gnu tools arm embedded\6 2017-q2-update\arm-none-eabi\include\c++\6.3.1\cmath **** 
 345:c:\program files (x86)\gnu tools arm embedded\6 2017-q2-update\arm-none-eabi\include\c++\6.3.1\cmath ****   inline _GLIBCXX_CONSTEXPR long double
 346:c:\program files (x86)\gnu tools arm embedded\6 2017-q2-update\arm-none-eabi\include\c++\6.3.1\cmath ****   ldexp(long double __x, int __exp)
 347:c:\program files (x86)\gnu tools arm embedded\6 2017-q2-update\arm-none-eabi\include\c++\6.3.1\cmath ****   { return __builtin_ldexpl(__x, __exp); }
 348:c:\program files (x86)\gnu tools arm embedded\6 2017-q2-update\arm-none-eabi\include\c++\6.3.1\cmath **** #endif
 349:c:\program files (x86)\gnu tools arm embedded\6 2017-q2-update\arm-none-eabi\include\c++\6.3.1\cmath **** 
 350:c:\program files (x86)\gnu tools arm embedded\6 2017-q2-update\arm-none-eabi\include\c++\6.3.1\cmath ****   template<typename _Tp>
 351:c:\program files (x86)\gnu tools arm embedded\6 2017-q2-update\arm-none-eabi\include\c++\6.3.1\cmath ****     inline _GLIBCXX_CONSTEXPR
 352:c:\program files (x86)\gnu tools arm embedded\6 2017-q2-update\arm-none-eabi\include\c++\6.3.1\cmath ****     typename __gnu_cxx::__enable_if<__is_integer<_Tp>::__value, 
 353:c:\program files (x86)\gnu tools arm embedded\6 2017-q2-update\arm-none-eabi\include\c++\6.3.1\cmath ****                                     double>::__type
 354:c:\program files (x86)\gnu tools arm embedded\6 2017-q2-update\arm-none-eabi\include\c++\6.3.1\cmath ****     ldexp(_Tp __x, int __exp)
 355:c:\program files (x86)\gnu tools arm embedded\6 2017-q2-update\arm-none-eabi\include\c++\6.3.1\cmath ****     { return __builtin_ldexp(__x, __exp); }
 356:c:\program files (x86)\gnu tools arm embedded\6 2017-q2-update\arm-none-eabi\include\c++\6.3.1\cmath **** 
 357:c:\program files (x86)\gnu tools arm embedded\6 2017-q2-update\arm-none-eabi\include\c++\6.3.1\cmath ****   using ::log;
 358:c:\program files (x86)\gnu tools arm embedded\6 2017-q2-update\arm-none-eabi\include\c++\6.3.1\cmath **** 
 359:c:\program files (x86)\gnu tools arm embedded\6 2017-q2-update\arm-none-eabi\include\c++\6.3.1\cmath **** #ifndef __CORRECT_ISO_CPP_MATH_H_PROTO
 360:c:\program files (x86)\gnu tools arm embedded\6 2017-q2-update\arm-none-eabi\include\c++\6.3.1\cmath ****   inline _GLIBCXX_CONSTEXPR float
 361:c:\program files (x86)\gnu tools arm embedded\6 2017-q2-update\arm-none-eabi\include\c++\6.3.1\cmath ****   log(float __x)
 362:c:\program files (x86)\gnu tools arm embedded\6 2017-q2-update\arm-none-eabi\include\c++\6.3.1\cmath ****   { return __builtin_logf(__x); }
 363:c:\program files (x86)\gnu tools arm embedded\6 2017-q2-update\arm-none-eabi\include\c++\6.3.1\cmath **** 
 364:c:\program files (x86)\gnu tools arm embedded\6 2017-q2-update\arm-none-eabi\include\c++\6.3.1\cmath ****   inline _GLIBCXX_CONSTEXPR long double
 365:c:\program files (x86)\gnu tools arm embedded\6 2017-q2-update\arm-none-eabi\include\c++\6.3.1\cmath ****   log(long double __x)
 366:c:\program files (x86)\gnu tools arm embedded\6 2017-q2-update\arm-none-eabi\include\c++\6.3.1\cmath ****   { return __builtin_logl(__x); }
 367:c:\program files (x86)\gnu tools arm embedded\6 2017-q2-update\arm-none-eabi\include\c++\6.3.1\cmath **** #endif
 368:c:\program files (x86)\gnu tools arm embedded\6 2017-q2-update\arm-none-eabi\include\c++\6.3.1\cmath **** 
 369:c:\program files (x86)\gnu tools arm embedded\6 2017-q2-update\arm-none-eabi\include\c++\6.3.1\cmath ****   template<typename _Tp>
 370:c:\program files (x86)\gnu tools arm embedded\6 2017-q2-update\arm-none-eabi\include\c++\6.3.1\cmath ****     inline _GLIBCXX_CONSTEXPR
 371:c:\program files (x86)\gnu tools arm embedded\6 2017-q2-update\arm-none-eabi\include\c++\6.3.1\cmath ****     typename __gnu_cxx::__enable_if<__is_integer<_Tp>::__value, 
 372:c:\program files (x86)\gnu tools arm embedded\6 2017-q2-update\arm-none-eabi\include\c++\6.3.1\cmath ****                                     double>::__type
 373:c:\program files (x86)\gnu tools arm embedded\6 2017-q2-update\arm-none-eabi\include\c++\6.3.1\cmath ****     log(_Tp __x)
 374:c:\program files (x86)\gnu tools arm embedded\6 2017-q2-update\arm-none-eabi\include\c++\6.3.1\cmath ****     { return __builtin_log(__x); }
 375:c:\program files (x86)\gnu tools arm embedded\6 2017-q2-update\arm-none-eabi\include\c++\6.3.1\cmath **** 
 376:c:\program files (x86)\gnu tools arm embedded\6 2017-q2-update\arm-none-eabi\include\c++\6.3.1\cmath ****   using ::log10;
 377:c:\program files (x86)\gnu tools arm embedded\6 2017-q2-update\arm-none-eabi\include\c++\6.3.1\cmath **** 
 378:c:\program files (x86)\gnu tools arm embedded\6 2017-q2-update\arm-none-eabi\include\c++\6.3.1\cmath **** #ifndef __CORRECT_ISO_CPP_MATH_H_PROTO
 379:c:\program files (x86)\gnu tools arm embedded\6 2017-q2-update\arm-none-eabi\include\c++\6.3.1\cmath ****   inline _GLIBCXX_CONSTEXPR float
 380:c:\program files (x86)\gnu tools arm embedded\6 2017-q2-update\arm-none-eabi\include\c++\6.3.1\cmath ****   log10(float __x)
 381:c:\program files (x86)\gnu tools arm embedded\6 2017-q2-update\arm-none-eabi\include\c++\6.3.1\cmath ****   { return __builtin_log10f(__x); }
 382:c:\program files (x86)\gnu tools arm embedded\6 2017-q2-update\arm-none-eabi\include\c++\6.3.1\cmath **** 
 383:c:\program files (x86)\gnu tools arm embedded\6 2017-q2-update\arm-none-eabi\include\c++\6.3.1\cmath ****   inline _GLIBCXX_CONSTEXPR long double
 384:c:\program files (x86)\gnu tools arm embedded\6 2017-q2-update\arm-none-eabi\include\c++\6.3.1\cmath ****   log10(long double __x)
 385:c:\program files (x86)\gnu tools arm embedded\6 2017-q2-update\arm-none-eabi\include\c++\6.3.1\cmath ****   { return __builtin_log10l(__x); }
 386:c:\program files (x86)\gnu tools arm embedded\6 2017-q2-update\arm-none-eabi\include\c++\6.3.1\cmath **** #endif
 387:c:\program files (x86)\gnu tools arm embedded\6 2017-q2-update\arm-none-eabi\include\c++\6.3.1\cmath **** 
 388:c:\program files (x86)\gnu tools arm embedded\6 2017-q2-update\arm-none-eabi\include\c++\6.3.1\cmath ****   template<typename _Tp>
 389:c:\program files (x86)\gnu tools arm embedded\6 2017-q2-update\arm-none-eabi\include\c++\6.3.1\cmath ****     inline _GLIBCXX_CONSTEXPR
 390:c:\program files (x86)\gnu tools arm embedded\6 2017-q2-update\arm-none-eabi\include\c++\6.3.1\cmath ****     typename __gnu_cxx::__enable_if<__is_integer<_Tp>::__value,
 391:c:\program files (x86)\gnu tools arm embedded\6 2017-q2-update\arm-none-eabi\include\c++\6.3.1\cmath ****                                     double>::__type
 392:c:\program files (x86)\gnu tools arm embedded\6 2017-q2-update\arm-none-eabi\include\c++\6.3.1\cmath ****     log10(_Tp __x)
 393:c:\program files (x86)\gnu tools arm embedded\6 2017-q2-update\arm-none-eabi\include\c++\6.3.1\cmath ****     { return __builtin_log10(__x); }
 394:c:\program files (x86)\gnu tools arm embedded\6 2017-q2-update\arm-none-eabi\include\c++\6.3.1\cmath **** 
 395:c:\program files (x86)\gnu tools arm embedded\6 2017-q2-update\arm-none-eabi\include\c++\6.3.1\cmath ****   using ::modf;
 396:c:\program files (x86)\gnu tools arm embedded\6 2017-q2-update\arm-none-eabi\include\c++\6.3.1\cmath **** 
 397:c:\program files (x86)\gnu tools arm embedded\6 2017-q2-update\arm-none-eabi\include\c++\6.3.1\cmath **** #ifndef __CORRECT_ISO_CPP_MATH_H_PROTO
 398:c:\program files (x86)\gnu tools arm embedded\6 2017-q2-update\arm-none-eabi\include\c++\6.3.1\cmath ****   inline float
 399:c:\program files (x86)\gnu tools arm embedded\6 2017-q2-update\arm-none-eabi\include\c++\6.3.1\cmath ****   modf(float __x, float* __iptr)
 400:c:\program files (x86)\gnu tools arm embedded\6 2017-q2-update\arm-none-eabi\include\c++\6.3.1\cmath ****   { return __builtin_modff(__x, __iptr); }
 401:c:\program files (x86)\gnu tools arm embedded\6 2017-q2-update\arm-none-eabi\include\c++\6.3.1\cmath **** 
 402:c:\program files (x86)\gnu tools arm embedded\6 2017-q2-update\arm-none-eabi\include\c++\6.3.1\cmath ****   inline long double
 403:c:\program files (x86)\gnu tools arm embedded\6 2017-q2-update\arm-none-eabi\include\c++\6.3.1\cmath ****   modf(long double __x, long double* __iptr)
 404:c:\program files (x86)\gnu tools arm embedded\6 2017-q2-update\arm-none-eabi\include\c++\6.3.1\cmath ****   { return __builtin_modfl(__x, __iptr); }
 405:c:\program files (x86)\gnu tools arm embedded\6 2017-q2-update\arm-none-eabi\include\c++\6.3.1\cmath **** #endif
 406:c:\program files (x86)\gnu tools arm embedded\6 2017-q2-update\arm-none-eabi\include\c++\6.3.1\cmath **** 
 407:c:\program files (x86)\gnu tools arm embedded\6 2017-q2-update\arm-none-eabi\include\c++\6.3.1\cmath ****   using ::pow;
 408:c:\program files (x86)\gnu tools arm embedded\6 2017-q2-update\arm-none-eabi\include\c++\6.3.1\cmath **** 
 409:c:\program files (x86)\gnu tools arm embedded\6 2017-q2-update\arm-none-eabi\include\c++\6.3.1\cmath **** #ifndef __CORRECT_ISO_CPP_MATH_H_PROTO
 410:c:\program files (x86)\gnu tools arm embedded\6 2017-q2-update\arm-none-eabi\include\c++\6.3.1\cmath ****   inline _GLIBCXX_CONSTEXPR float
 411:c:\program files (x86)\gnu tools arm embedded\6 2017-q2-update\arm-none-eabi\include\c++\6.3.1\cmath ****   pow(float __x, float __y)
 412:c:\program files (x86)\gnu tools arm embedded\6 2017-q2-update\arm-none-eabi\include\c++\6.3.1\cmath ****   { return __builtin_powf(__x, __y); }
 413:c:\program files (x86)\gnu tools arm embedded\6 2017-q2-update\arm-none-eabi\include\c++\6.3.1\cmath **** 
 414:c:\program files (x86)\gnu tools arm embedded\6 2017-q2-update\arm-none-eabi\include\c++\6.3.1\cmath ****   inline _GLIBCXX_CONSTEXPR long double
 415:c:\program files (x86)\gnu tools arm embedded\6 2017-q2-update\arm-none-eabi\include\c++\6.3.1\cmath ****   pow(long double __x, long double __y)
 416:c:\program files (x86)\gnu tools arm embedded\6 2017-q2-update\arm-none-eabi\include\c++\6.3.1\cmath ****   { return __builtin_powl(__x, __y); }
 417:c:\program files (x86)\gnu tools arm embedded\6 2017-q2-update\arm-none-eabi\include\c++\6.3.1\cmath **** 
 418:c:\program files (x86)\gnu tools arm embedded\6 2017-q2-update\arm-none-eabi\include\c++\6.3.1\cmath **** #if __cplusplus < 201103L
 419:c:\program files (x86)\gnu tools arm embedded\6 2017-q2-update\arm-none-eabi\include\c++\6.3.1\cmath ****   // _GLIBCXX_RESOLVE_LIB_DEFECTS
 420:c:\program files (x86)\gnu tools arm embedded\6 2017-q2-update\arm-none-eabi\include\c++\6.3.1\cmath ****   // DR 550. What should the return type of pow(float,int) be?
 421:c:\program files (x86)\gnu tools arm embedded\6 2017-q2-update\arm-none-eabi\include\c++\6.3.1\cmath ****   inline double
 422:c:\program files (x86)\gnu tools arm embedded\6 2017-q2-update\arm-none-eabi\include\c++\6.3.1\cmath ****   pow(double __x, int __i)
 423:c:\program files (x86)\gnu tools arm embedded\6 2017-q2-update\arm-none-eabi\include\c++\6.3.1\cmath ****   { return __builtin_powi(__x, __i); }
 424:c:\program files (x86)\gnu tools arm embedded\6 2017-q2-update\arm-none-eabi\include\c++\6.3.1\cmath **** 
 425:c:\program files (x86)\gnu tools arm embedded\6 2017-q2-update\arm-none-eabi\include\c++\6.3.1\cmath ****   inline float
 426:c:\program files (x86)\gnu tools arm embedded\6 2017-q2-update\arm-none-eabi\include\c++\6.3.1\cmath ****   pow(float __x, int __n)
 427:c:\program files (x86)\gnu tools arm embedded\6 2017-q2-update\arm-none-eabi\include\c++\6.3.1\cmath ****   { return __builtin_powif(__x, __n); }
 428:c:\program files (x86)\gnu tools arm embedded\6 2017-q2-update\arm-none-eabi\include\c++\6.3.1\cmath **** 
 429:c:\program files (x86)\gnu tools arm embedded\6 2017-q2-update\arm-none-eabi\include\c++\6.3.1\cmath ****   inline long double
 430:c:\program files (x86)\gnu tools arm embedded\6 2017-q2-update\arm-none-eabi\include\c++\6.3.1\cmath ****   pow(long double __x, int __n)
 431:c:\program files (x86)\gnu tools arm embedded\6 2017-q2-update\arm-none-eabi\include\c++\6.3.1\cmath ****   { return __builtin_powil(__x, __n); }
 432:c:\program files (x86)\gnu tools arm embedded\6 2017-q2-update\arm-none-eabi\include\c++\6.3.1\cmath **** #endif
 433:c:\program files (x86)\gnu tools arm embedded\6 2017-q2-update\arm-none-eabi\include\c++\6.3.1\cmath **** #endif
 434:c:\program files (x86)\gnu tools arm embedded\6 2017-q2-update\arm-none-eabi\include\c++\6.3.1\cmath **** 
 435:c:\program files (x86)\gnu tools arm embedded\6 2017-q2-update\arm-none-eabi\include\c++\6.3.1\cmath ****   template<typename _Tp, typename _Up>
 436:c:\program files (x86)\gnu tools arm embedded\6 2017-q2-update\arm-none-eabi\include\c++\6.3.1\cmath ****     inline _GLIBCXX_CONSTEXPR
 437:c:\program files (x86)\gnu tools arm embedded\6 2017-q2-update\arm-none-eabi\include\c++\6.3.1\cmath ****     typename __gnu_cxx::__promote_2<_Tp, _Up>::__type
 438:c:\program files (x86)\gnu tools arm embedded\6 2017-q2-update\arm-none-eabi\include\c++\6.3.1\cmath ****     pow(_Tp __x, _Up __y)
 439:c:\program files (x86)\gnu tools arm embedded\6 2017-q2-update\arm-none-eabi\include\c++\6.3.1\cmath ****     {
 440:c:\program files (x86)\gnu tools arm embedded\6 2017-q2-update\arm-none-eabi\include\c++\6.3.1\cmath ****       typedef typename __gnu_cxx::__promote_2<_Tp, _Up>::__type __type;
 441:c:\program files (x86)\gnu tools arm embedded\6 2017-q2-update\arm-none-eabi\include\c++\6.3.1\cmath ****       return pow(__type(__x), __type(__y));
 442:c:\program files (x86)\gnu tools arm embedded\6 2017-q2-update\arm-none-eabi\include\c++\6.3.1\cmath ****     }
 443:c:\program files (x86)\gnu tools arm embedded\6 2017-q2-update\arm-none-eabi\include\c++\6.3.1\cmath **** 
 444:c:\program files (x86)\gnu tools arm embedded\6 2017-q2-update\arm-none-eabi\include\c++\6.3.1\cmath ****   using ::sin;
 445:c:\program files (x86)\gnu tools arm embedded\6 2017-q2-update\arm-none-eabi\include\c++\6.3.1\cmath **** 
 446:c:\program files (x86)\gnu tools arm embedded\6 2017-q2-update\arm-none-eabi\include\c++\6.3.1\cmath **** #ifndef __CORRECT_ISO_CPP_MATH_H_PROTO
 447:c:\program files (x86)\gnu tools arm embedded\6 2017-q2-update\arm-none-eabi\include\c++\6.3.1\cmath ****   inline _GLIBCXX_CONSTEXPR float
 448:c:\program files (x86)\gnu tools arm embedded\6 2017-q2-update\arm-none-eabi\include\c++\6.3.1\cmath ****   sin(float __x)
 449:c:\program files (x86)\gnu tools arm embedded\6 2017-q2-update\arm-none-eabi\include\c++\6.3.1\cmath ****   { return __builtin_sinf(__x); }
 450:c:\program files (x86)\gnu tools arm embedded\6 2017-q2-update\arm-none-eabi\include\c++\6.3.1\cmath **** 
 451:c:\program files (x86)\gnu tools arm embedded\6 2017-q2-update\arm-none-eabi\include\c++\6.3.1\cmath ****   inline _GLIBCXX_CONSTEXPR long double
 452:c:\program files (x86)\gnu tools arm embedded\6 2017-q2-update\arm-none-eabi\include\c++\6.3.1\cmath ****   sin(long double __x)
 453:c:\program files (x86)\gnu tools arm embedded\6 2017-q2-update\arm-none-eabi\include\c++\6.3.1\cmath ****   { return __builtin_sinl(__x); }
 454:c:\program files (x86)\gnu tools arm embedded\6 2017-q2-update\arm-none-eabi\include\c++\6.3.1\cmath **** #endif
 455:c:\program files (x86)\gnu tools arm embedded\6 2017-q2-update\arm-none-eabi\include\c++\6.3.1\cmath **** 
 456:c:\program files (x86)\gnu tools arm embedded\6 2017-q2-update\arm-none-eabi\include\c++\6.3.1\cmath ****   template<typename _Tp>
 457:c:\program files (x86)\gnu tools arm embedded\6 2017-q2-update\arm-none-eabi\include\c++\6.3.1\cmath ****     inline _GLIBCXX_CONSTEXPR
 458:c:\program files (x86)\gnu tools arm embedded\6 2017-q2-update\arm-none-eabi\include\c++\6.3.1\cmath ****     typename __gnu_cxx::__enable_if<__is_integer<_Tp>::__value, 
 459:c:\program files (x86)\gnu tools arm embedded\6 2017-q2-update\arm-none-eabi\include\c++\6.3.1\cmath ****                                     double>::__type
 460:c:\program files (x86)\gnu tools arm embedded\6 2017-q2-update\arm-none-eabi\include\c++\6.3.1\cmath ****     sin(_Tp __x)
 461:c:\program files (x86)\gnu tools arm embedded\6 2017-q2-update\arm-none-eabi\include\c++\6.3.1\cmath ****     { return __builtin_sin(__x); }
 462:c:\program files (x86)\gnu tools arm embedded\6 2017-q2-update\arm-none-eabi\include\c++\6.3.1\cmath **** 
 463:c:\program files (x86)\gnu tools arm embedded\6 2017-q2-update\arm-none-eabi\include\c++\6.3.1\cmath ****   using ::sinh;
 464:c:\program files (x86)\gnu tools arm embedded\6 2017-q2-update\arm-none-eabi\include\c++\6.3.1\cmath **** 
 465:c:\program files (x86)\gnu tools arm embedded\6 2017-q2-update\arm-none-eabi\include\c++\6.3.1\cmath **** #ifndef __CORRECT_ISO_CPP_MATH_H_PROTO
 466:c:\program files (x86)\gnu tools arm embedded\6 2017-q2-update\arm-none-eabi\include\c++\6.3.1\cmath ****   inline _GLIBCXX_CONSTEXPR float
 467:c:\program files (x86)\gnu tools arm embedded\6 2017-q2-update\arm-none-eabi\include\c++\6.3.1\cmath ****   sinh(float __x)
 468:c:\program files (x86)\gnu tools arm embedded\6 2017-q2-update\arm-none-eabi\include\c++\6.3.1\cmath ****   { return __builtin_sinhf(__x); }
 469:c:\program files (x86)\gnu tools arm embedded\6 2017-q2-update\arm-none-eabi\include\c++\6.3.1\cmath **** 
 470:c:\program files (x86)\gnu tools arm embedded\6 2017-q2-update\arm-none-eabi\include\c++\6.3.1\cmath ****   inline _GLIBCXX_CONSTEXPR long double
 471:c:\program files (x86)\gnu tools arm embedded\6 2017-q2-update\arm-none-eabi\include\c++\6.3.1\cmath ****   sinh(long double __x)
 472:c:\program files (x86)\gnu tools arm embedded\6 2017-q2-update\arm-none-eabi\include\c++\6.3.1\cmath ****   { return __builtin_sinhl(__x); }
 473:c:\program files (x86)\gnu tools arm embedded\6 2017-q2-update\arm-none-eabi\include\c++\6.3.1\cmath **** #endif
 474:c:\program files (x86)\gnu tools arm embedded\6 2017-q2-update\arm-none-eabi\include\c++\6.3.1\cmath **** 
 475:c:\program files (x86)\gnu tools arm embedded\6 2017-q2-update\arm-none-eabi\include\c++\6.3.1\cmath ****   template<typename _Tp>
 476:c:\program files (x86)\gnu tools arm embedded\6 2017-q2-update\arm-none-eabi\include\c++\6.3.1\cmath ****     inline _GLIBCXX_CONSTEXPR
 477:c:\program files (x86)\gnu tools arm embedded\6 2017-q2-update\arm-none-eabi\include\c++\6.3.1\cmath ****     typename __gnu_cxx::__enable_if<__is_integer<_Tp>::__value, 
 478:c:\program files (x86)\gnu tools arm embedded\6 2017-q2-update\arm-none-eabi\include\c++\6.3.1\cmath ****                                     double>::__type
 479:c:\program files (x86)\gnu tools arm embedded\6 2017-q2-update\arm-none-eabi\include\c++\6.3.1\cmath ****     sinh(_Tp __x)
 480:c:\program files (x86)\gnu tools arm embedded\6 2017-q2-update\arm-none-eabi\include\c++\6.3.1\cmath ****     { return __builtin_sinh(__x); }
 481:c:\program files (x86)\gnu tools arm embedded\6 2017-q2-update\arm-none-eabi\include\c++\6.3.1\cmath **** 
 482:c:\program files (x86)\gnu tools arm embedded\6 2017-q2-update\arm-none-eabi\include\c++\6.3.1\cmath ****   using ::sqrt;
 483:c:\program files (x86)\gnu tools arm embedded\6 2017-q2-update\arm-none-eabi\include\c++\6.3.1\cmath **** 
 484:c:\program files (x86)\gnu tools arm embedded\6 2017-q2-update\arm-none-eabi\include\c++\6.3.1\cmath **** #ifndef __CORRECT_ISO_CPP_MATH_H_PROTO
 485:c:\program files (x86)\gnu tools arm embedded\6 2017-q2-update\arm-none-eabi\include\c++\6.3.1\cmath ****   inline _GLIBCXX_CONSTEXPR float
 486:c:\program files (x86)\gnu tools arm embedded\6 2017-q2-update\arm-none-eabi\include\c++\6.3.1\cmath ****   sqrt(float __x)
 487:c:\program files (x86)\gnu tools arm embedded\6 2017-q2-update\arm-none-eabi\include\c++\6.3.1\cmath ****   { return __builtin_sqrtf(__x); }
 488:c:\program files (x86)\gnu tools arm embedded\6 2017-q2-update\arm-none-eabi\include\c++\6.3.1\cmath **** 
 489:c:\program files (x86)\gnu tools arm embedded\6 2017-q2-update\arm-none-eabi\include\c++\6.3.1\cmath ****   inline _GLIBCXX_CONSTEXPR long double
 490:c:\program files (x86)\gnu tools arm embedded\6 2017-q2-update\arm-none-eabi\include\c++\6.3.1\cmath ****   sqrt(long double __x)
 491:c:\program files (x86)\gnu tools arm embedded\6 2017-q2-update\arm-none-eabi\include\c++\6.3.1\cmath ****   { return __builtin_sqrtl(__x); }
 492:c:\program files (x86)\gnu tools arm embedded\6 2017-q2-update\arm-none-eabi\include\c++\6.3.1\cmath **** #endif
 493:c:\program files (x86)\gnu tools arm embedded\6 2017-q2-update\arm-none-eabi\include\c++\6.3.1\cmath **** 
 494:c:\program files (x86)\gnu tools arm embedded\6 2017-q2-update\arm-none-eabi\include\c++\6.3.1\cmath ****   template<typename _Tp>
 495:c:\program files (x86)\gnu tools arm embedded\6 2017-q2-update\arm-none-eabi\include\c++\6.3.1\cmath ****     inline _GLIBCXX_CONSTEXPR
 496:c:\program files (x86)\gnu tools arm embedded\6 2017-q2-update\arm-none-eabi\include\c++\6.3.1\cmath ****     typename __gnu_cxx::__enable_if<__is_integer<_Tp>::__value, 
 497:c:\program files (x86)\gnu tools arm embedded\6 2017-q2-update\arm-none-eabi\include\c++\6.3.1\cmath ****                                     double>::__type
 498:c:\program files (x86)\gnu tools arm embedded\6 2017-q2-update\arm-none-eabi\include\c++\6.3.1\cmath ****     sqrt(_Tp __x)
 499:c:\program files (x86)\gnu tools arm embedded\6 2017-q2-update\arm-none-eabi\include\c++\6.3.1\cmath ****     { return __builtin_sqrt(__x); }
 500:c:\program files (x86)\gnu tools arm embedded\6 2017-q2-update\arm-none-eabi\include\c++\6.3.1\cmath **** 
 501:c:\program files (x86)\gnu tools arm embedded\6 2017-q2-update\arm-none-eabi\include\c++\6.3.1\cmath ****   using ::tan;
 502:c:\program files (x86)\gnu tools arm embedded\6 2017-q2-update\arm-none-eabi\include\c++\6.3.1\cmath **** 
 503:c:\program files (x86)\gnu tools arm embedded\6 2017-q2-update\arm-none-eabi\include\c++\6.3.1\cmath **** #ifndef __CORRECT_ISO_CPP_MATH_H_PROTO
 504:c:\program files (x86)\gnu tools arm embedded\6 2017-q2-update\arm-none-eabi\include\c++\6.3.1\cmath ****   inline _GLIBCXX_CONSTEXPR float
 505:c:\program files (x86)\gnu tools arm embedded\6 2017-q2-update\arm-none-eabi\include\c++\6.3.1\cmath ****   tan(float __x)
 506:c:\program files (x86)\gnu tools arm embedded\6 2017-q2-update\arm-none-eabi\include\c++\6.3.1\cmath ****   { return __builtin_tanf(__x); }
 507:c:\program files (x86)\gnu tools arm embedded\6 2017-q2-update\arm-none-eabi\include\c++\6.3.1\cmath **** 
 508:c:\program files (x86)\gnu tools arm embedded\6 2017-q2-update\arm-none-eabi\include\c++\6.3.1\cmath ****   inline _GLIBCXX_CONSTEXPR long double
 509:c:\program files (x86)\gnu tools arm embedded\6 2017-q2-update\arm-none-eabi\include\c++\6.3.1\cmath ****   tan(long double __x)
 510:c:\program files (x86)\gnu tools arm embedded\6 2017-q2-update\arm-none-eabi\include\c++\6.3.1\cmath ****   { return __builtin_tanl(__x); }
 511:c:\program files (x86)\gnu tools arm embedded\6 2017-q2-update\arm-none-eabi\include\c++\6.3.1\cmath **** #endif
 512:c:\program files (x86)\gnu tools arm embedded\6 2017-q2-update\arm-none-eabi\include\c++\6.3.1\cmath **** 
 513:c:\program files (x86)\gnu tools arm embedded\6 2017-q2-update\arm-none-eabi\include\c++\6.3.1\cmath ****   template<typename _Tp>
 514:c:\program files (x86)\gnu tools arm embedded\6 2017-q2-update\arm-none-eabi\include\c++\6.3.1\cmath ****     inline _GLIBCXX_CONSTEXPR
 515:c:\program files (x86)\gnu tools arm embedded\6 2017-q2-update\arm-none-eabi\include\c++\6.3.1\cmath ****     typename __gnu_cxx::__enable_if<__is_integer<_Tp>::__value, 
 516:c:\program files (x86)\gnu tools arm embedded\6 2017-q2-update\arm-none-eabi\include\c++\6.3.1\cmath ****                                     double>::__type
 517:c:\program files (x86)\gnu tools arm embedded\6 2017-q2-update\arm-none-eabi\include\c++\6.3.1\cmath ****     tan(_Tp __x)
 518:c:\program files (x86)\gnu tools arm embedded\6 2017-q2-update\arm-none-eabi\include\c++\6.3.1\cmath ****     { return __builtin_tan(__x); }
 519:c:\program files (x86)\gnu tools arm embedded\6 2017-q2-update\arm-none-eabi\include\c++\6.3.1\cmath **** 
 520:c:\program files (x86)\gnu tools arm embedded\6 2017-q2-update\arm-none-eabi\include\c++\6.3.1\cmath ****   using ::tanh;
 521:c:\program files (x86)\gnu tools arm embedded\6 2017-q2-update\arm-none-eabi\include\c++\6.3.1\cmath **** 
 522:c:\program files (x86)\gnu tools arm embedded\6 2017-q2-update\arm-none-eabi\include\c++\6.3.1\cmath **** #ifndef __CORRECT_ISO_CPP_MATH_H_PROTO
 523:c:\program files (x86)\gnu tools arm embedded\6 2017-q2-update\arm-none-eabi\include\c++\6.3.1\cmath ****   inline _GLIBCXX_CONSTEXPR float
 524:c:\program files (x86)\gnu tools arm embedded\6 2017-q2-update\arm-none-eabi\include\c++\6.3.1\cmath ****   tanh(float __x)
 525:c:\program files (x86)\gnu tools arm embedded\6 2017-q2-update\arm-none-eabi\include\c++\6.3.1\cmath ****   { return __builtin_tanhf(__x); }
 7399              		.loc 11 525 0
 7400 0d2c 0A0A16ED 		vldr.32	s0, [r6, #-40]
 7401 0d30 087087E2 		add	r7, r7, #8
 7402              	.LVL600:
 7403 0d34 FEFFFFEB 		bl	tanhf
 7404              	.LVL601:
 7405 0d38 00F0D6F5 		pld	[r6]
 7406              	.LVL602:
 7407 0d3c 206086E2 		add	r6, r6, #32
 7408              	.LBE5796:
 7409              	.LBE5795:
  36:C:/Renesas/e2studio_2021_01_workspace_RZA2M_ANPR/ANPR_RZA2M_RDK/src/tensorflow_lite/src/tensorflow/lite/kernels/internal/reference\tanh.h ****   }
 7410              		.loc 10 36 0
 7411 0d40 0A0A05ED 		vstr.32	s0, [r5, #-40]
 7412              	.LVL603:
 7413              	.LBB5806:
 7414              	.LBB5797:
 7415              		.loc 11 525 0
 7416 0d44 110A16ED 		vldr.32	s0, [r6, #-68]
 7417 0d48 FEFFFFEB 		bl	tanhf
 7418              	.LVL604:
 7419              	.LBE5797:
 7420              	.LBE5806:
  36:C:/Renesas/e2studio_2021_01_workspace_RZA2M_ANPR/ANPR_RZA2M_RDK/src/tensorflow_lite/src/tensorflow/lite/kernels/internal/reference\tanh.h ****   }
 7421              		.loc 10 36 0
 7422 0d4c 090A05ED 		vstr.32	s0, [r5, #-36]
 7423              	.LBB5807:
 7424              	.LBB5798:
 7425              		.loc 11 525 0
 7426 0d50 100A16ED 		vldr.32	s0, [r6, #-64]
 7427 0d54 FEFFFFEB 		bl	tanhf
 7428              	.LVL605:
 7429              	.LBE5798:
 7430              	.LBE5807:
  36:C:/Renesas/e2studio_2021_01_workspace_RZA2M_ANPR/ANPR_RZA2M_RDK/src/tensorflow_lite/src/tensorflow/lite/kernels/internal/reference\tanh.h ****   }
 7431              		.loc 10 36 0
 7432 0d58 080A05ED 		vstr.32	s0, [r5, #-32]
 7433              	.LBB5808:
 7434              	.LBB5799:
 7435              		.loc 11 525 0
 7436 0d5c 0F0A16ED 		vldr.32	s0, [r6, #-60]
 7437 0d60 FEFFFFEB 		bl	tanhf
 7438              	.LVL606:
 7439              	.LBE5799:
 7440              	.LBE5808:
  36:C:/Renesas/e2studio_2021_01_workspace_RZA2M_ANPR/ANPR_RZA2M_RDK/src/tensorflow_lite/src/tensorflow/lite/kernels/internal/reference\tanh.h ****   }
 7441              		.loc 10 36 0
 7442 0d64 070A05ED 		vstr.32	s0, [r5, #-28]
 7443              	.LBB5809:
 7444              	.LBB5800:
 7445              		.loc 11 525 0
 7446 0d68 0E0A16ED 		vldr.32	s0, [r6, #-56]
 7447 0d6c FEFFFFEB 		bl	tanhf
 7448              	.LVL607:
 7449              	.LBE5800:
 7450              	.LBE5809:
  36:C:/Renesas/e2studio_2021_01_workspace_RZA2M_ANPR/ANPR_RZA2M_RDK/src/tensorflow_lite/src/tensorflow/lite/kernels/internal/reference\tanh.h ****   }
 7451              		.loc 10 36 0
 7452 0d70 060A05ED 		vstr.32	s0, [r5, #-24]
 7453              	.LBB5810:
 7454              	.LBB5801:
 7455              		.loc 11 525 0
 7456 0d74 0D0A16ED 		vldr.32	s0, [r6, #-52]
 7457 0d78 FEFFFFEB 		bl	tanhf
 7458              	.LVL608:
 7459              	.LBE5801:
 7460              	.LBE5810:
  36:C:/Renesas/e2studio_2021_01_workspace_RZA2M_ANPR/ANPR_RZA2M_RDK/src/tensorflow_lite/src/tensorflow/lite/kernels/internal/reference\tanh.h ****   }
 7461              		.loc 10 36 0
 7462 0d7c 050A05ED 		vstr.32	s0, [r5, #-20]
 7463              	.LBB5811:
 7464              	.LBB5802:
 7465              		.loc 11 525 0
 7466 0d80 0C0A16ED 		vldr.32	s0, [r6, #-48]
 7467 0d84 FEFFFFEB 		bl	tanhf
 7468              	.LVL609:
 7469              	.LBE5802:
 7470              	.LBE5811:
  36:C:/Renesas/e2studio_2021_01_workspace_RZA2M_ANPR/ANPR_RZA2M_RDK/src/tensorflow_lite/src/tensorflow/lite/kernels/internal/reference\tanh.h ****   }
 7471              		.loc 10 36 0
 7472 0d88 040A05ED 		vstr.32	s0, [r5, #-16]
 7473              	.LBB5812:
 7474              	.LBB5803:
 7475              		.loc 11 525 0
 7476 0d8c 0B0A16ED 		vldr.32	s0, [r6, #-44]
 7477 0d90 FEFFFFEB 		bl	tanhf
 7478              	.LVL610:
 7479 0d94 0B0057E1 		cmp	r7, fp
 7480 0d98 00F0D5F5 		pld	[r5]
 7481              	.LBE5803:
 7482              	.LBE5812:
  36:C:/Renesas/e2studio_2021_01_workspace_RZA2M_ANPR/ANPR_RZA2M_RDK/src/tensorflow_lite/src/tensorflow/lite/kernels/internal/reference\tanh.h ****   }
 7483              		.loc 10 36 0
 7484 0d9c 030A05ED 		vstr.32	s0, [r5, #-12]
 7485 0da0 205085E2 		add	r5, r5, #32
 7486 0da4 E0FFFF1A 		bne	.L208
 7487              	.LVL611:
 7488              	.L194:
 7489 0da8 0731A0E1 		lsl	r3, r7, #2
 7490 0dac 039089E0 		add	r9, r9, r3
 7491              	.LVL612:
 7492 0db0 034084E0 		add	r4, r4, r3
 7493              	.LVL613:
 7494              	.L210:
 7495              	.LBB5813:
 7496              	.LBB5804:
 7497              		.loc 11 525 0
 7498 0db4 010AB9EC 		vldmia.32	r9!, {s0}
 7499              	.LVL614:
 7500              	.LBE5804:
 7501              	.LBE5813:
 7502              	.LBE5794:
  33:C:/Renesas/e2studio_2021_01_workspace_RZA2M_ANPR/ANPR_RZA2M_RDK/src/tensorflow_lite/src/tensorflow/lite/kernels/internal/reference\tanh.h ****     float val = input_data[i];
 7503              		.loc 10 33 0
 7504 0db8 017087E2 		add	r7, r7, #1
 7505              	.LVL615:
 7506              	.LBB5815:
 7507              	.LBB5814:
 7508              	.LBB5805:
 7509              		.loc 11 525 0
 7510 0dbc FEFFFFEB 		bl	tanhf
 7511              	.LVL616:
 7512              	.LBE5805:
 7513              	.LBE5814:
 7514              	.LBE5815:
  33:C:/Renesas/e2studio_2021_01_workspace_RZA2M_ANPR/ANPR_RZA2M_RDK/src/tensorflow_lite/src/tensorflow/lite/kernels/internal/reference\tanh.h ****     float val = input_data[i];
 7515              		.loc 10 33 0
 7516 0dc0 080057E1 		cmp	r7, r8
 7517              	.LBB5816:
  36:C:/Renesas/e2studio_2021_01_workspace_RZA2M_ANPR/ANPR_RZA2M_RDK/src/tensorflow_lite/src/tensorflow/lite/kernels/internal/reference\tanh.h ****   }
 7518              		.loc 10 36 0
 7519 0dc4 010AA4EC 		vstmia.32	r4!, {s0}
 7520              	.LBE5816:
  33:C:/Renesas/e2studio_2021_01_workspace_RZA2M_ANPR/ANPR_RZA2M_RDK/src/tensorflow_lite/src/tensorflow/lite/kernels/internal/reference\tanh.h ****     float val = input_data[i];
 7521              		.loc 10 33 0
 7522 0dc8 F9FFFFBA 		blt	.L210
 7523              	.LVL617:
 7524              	.L209:
 7525              	.LBE5793:
 7526              	.LBE5739:
 7527              	.LBE5738:
 7528              	.LBB5830:
 7529              	.LBB5831:
 203:C:/Renesas/e2studio_2021_01_workspace_RZA2M_ANPR/ANPR_RZA2M_RDK/src/tensorflow_lite/src/tensorflow/lite/kernels/internal\types.h **** #ifdef TF_LITE_STATIC_MEMORY
 7530              		.loc 7 203 0
 7531 0dcc 05005AE3 		cmp	r10, #5
 7532 0dd0 0A0000DA 		ble	.L310
 207:C:/Renesas/e2studio_2021_01_workspace_RZA2M_ANPR/ANPR_RZA2M_RDK/src/tensorflow_lite/src/tensorflow/lite/kernels/internal\types.h **** #endif  // TF_LITE_STATIC_MEMORY
 7533              		.loc 7 207 0
 7534 0dd4 3C009DE5 		ldr	r0, [sp, #60]
 7535 0dd8 000050E3 		cmp	r0, #0
 7536 0ddc 0300000A 		beq	.L531
 7537              	.LVL618:
 7538              	.L540:
 7539              	.LBE5831:
 7540              	.LBE5830:
 7541              	.LBB5832:
 7542              	.LBB5833:
 7543 0de0 FEFFFFEB 		bl	_ZdaPv
 7544              	.LVL619:
 7545              	.L309:
 7546              	.LBE5833:
 7547              	.LBE5832:
 7548              	.LBB5835:
 7549              	.LBB5836:
 203:C:/Renesas/e2studio_2021_01_workspace_RZA2M_ANPR/ANPR_RZA2M_RDK/src/tensorflow_lite/src/tensorflow/lite/kernels/internal\types.h **** #ifdef TF_LITE_STATIC_MEMORY
 7550              		.loc 7 203 0
 7551 0de4 20309DE5 		ldr	r3, [sp, #32]
 7552 0de8 050053E3 		cmp	r3, #5
 7553 0dec 030000DA 		ble	.L310
 7554              	.LVL620:
 7555              	.L531:
 207:C:/Renesas/e2studio_2021_01_workspace_RZA2M_ANPR/ANPR_RZA2M_RDK/src/tensorflow_lite/src/tensorflow/lite/kernels/internal\types.h **** #endif  // TF_LITE_STATIC_MEMORY
 7556              		.loc 7 207 0
 7557 0df0 24009DE5 		ldr	r0, [sp, #36]
 7558 0df4 000050E3 		cmp	r0, #0
 7559 0df8 0000000A 		beq	.L310
 7560 0dfc FEFFFFEB 		bl	_ZdaPv
 7561              	.LVL621:
 7562              	.L310:
 7563              	.LBE5836:
 7564              	.LBE5835:
 134:../src/tensorflow_lite/src/tensorflow/lite/micro/kernels/tanh.cpp ****     } break;
 7565              		.loc 1 134 0
 7566 0e00 0000A0E3 		mov	r0, #0
 7567              	.LBE5120:
 7568              	.LBE5119:
 142:../src/tensorflow_lite/src/tensorflow/lite/micro/kernels/tanh.cpp **** 
 7569              		.loc 1 142 0
 7570 0e04 54D08DE2 		add	sp, sp, #84
 7571              		.cfi_remember_state
 7572              		.cfi_def_cfa_offset 36
 7573              		@ sp needed
 7574 0e08 F08FBDE8 		pop	{r4, r5, r6, r7, r8, r9, r10, fp, pc}
 7575              	.LVL622:
 7576              	.L176:
 7577              		.cfi_restore_state
 7578              	.LBB5874:
 7579              	.LBB5871:
 137:../src/tensorflow_lite/src/tensorflow/lite/micro/kernels/tanh.cpp ****                          TfLiteTypeGetName(input->type),
 7580              		.loc 1 137 0
 7581 0e0c 145096E5 		ldr	r5, [r6, #20]
 7582              	.LVL623:
 7583              	.LEHB8:
 7584 0e10 FEFFFFEB 		bl	TfLiteTypeGetName
 7585              	.LVL624:
 7586 0e14 0070A0E1 		mov	r7, r0
 7587 0e18 0800D4E5 		ldrb	r0, [r4, #8]	@ zero_extendqisi2
 7588 0e1c FEFFFFEB 		bl	TfLiteTypeGetName
 7589              	.LVL625:
 7590 0e20 001000E3 		movw	r1, #:lower16:.LC14
 7591 0e24 0030A0E1 		mov	r3, r0
 7592 0e28 0720A0E1 		mov	r2, r7
 7593 0e2c 0600A0E1 		mov	r0, r6
 7594 0e30 001040E3 		movt	r1, #:upper16:.LC14
 7595 0e34 35FF2FE1 		blx	r5
 7596              	.LVL626:
 7597              	.LEHE8:
 140:../src/tensorflow_lite/src/tensorflow/lite/micro/kernels/tanh.cpp ****   }
 7598              		.loc 1 140 0
 7599 0e38 0100A0E3 		mov	r0, #1
 7600              	.LBE5871:
 7601              	.LBE5874:
 142:../src/tensorflow_lite/src/tensorflow/lite/micro/kernels/tanh.cpp **** 
 7602              		.loc 1 142 0
 7603 0e3c 54D08DE2 		add	sp, sp, #84
 7604              		.cfi_remember_state
 7605              		.cfi_def_cfa_offset 36
 7606              		@ sp needed
 7607 0e40 F08FBDE8 		pop	{r4, r5, r6, r7, r8, r9, r10, fp, pc}
 7608              	.LVL627:
 7609              	.L380:
 7610              		.cfi_restore_state
 7611              	.LBB5875:
 7612              	.LBB5872:
 7613              	.LBB5837:
 7614              	.LBB5729:
 7615              	.LBB5724:
 7616              	.LBB5719:
 7617              	.LBB5716:
 7618              	.LBB5713:
 7619              	.LBB5711:
 7620              	.LBB5709:
 7621              	.LBB5707:
 7622              	.LBB5655:
 7623              	.LBB5652:
 7624              	.LBB5648:
 335:C:/Renesas/e2studio_2021_01_workspace_RZA2M_ANPR/ANPR_RZA2M_RDK/src/tensorflow_lite/src/third_party/gemmlowp/fixedpoint\fixedpoint.h ****   std::int32_t ab_x2_high32 =
 7625              		.loc 4 335 0
 7626 0e44 0701A0E3 		mov	r0, #-1073741823
 7627 0e48 0010E0E3 		mvn	r1, #0
 7628 0e4c 1DFFFFEA 		b	.L271
 7629              	.LVL628:
 7630              	.L558:
 7631 0e50 38309DE5 		ldr	r3, [sp, #56]
 7632              	.L288:
 7633              	.LVL629:
 7634              	.LBE5648:
 7635              	.LBE5652:
 7636              	.LBE5655:
 7637              	.LBE5707:
 7638              	.LBE5709:
 7639              	.LBE5711:
 7640              	.LBE5713:
 7641              	.LBE5716:
 7642              	.LBE5719:
 7643              	.LBE5724:
 7644              	.LBE5729:
 7645              	.LBE5837:
 7646              	.LBB5838:
 7647              	.LBB5834:
 203:C:/Renesas/e2studio_2021_01_workspace_RZA2M_ANPR/ANPR_RZA2M_RDK/src/tensorflow_lite/src/tensorflow/lite/kernels/internal\types.h **** #ifdef TF_LITE_STATIC_MEMORY
 7648              		.loc 7 203 0
 7649 0e54 050053E3 		cmp	r3, #5
 7650 0e58 E1FFFFDA 		ble	.L309
 7651              	.LVL630:
 7652              	.L547:
 207:C:/Renesas/e2studio_2021_01_workspace_RZA2M_ANPR/ANPR_RZA2M_RDK/src/tensorflow_lite/src/tensorflow/lite/kernels/internal\types.h **** #endif  // TF_LITE_STATIC_MEMORY
 7653              		.loc 7 207 0
 7654 0e5c 3C009DE5 		ldr	r0, [sp, #60]
 7655 0e60 000050E3 		cmp	r0, #0
 7656 0e64 DDFFFF1A 		bne	.L540
 7657 0e68 DDFFFFEA 		b	.L309
 7658              	.LVL631:
 7659              	.L527:
 7660 0e6c 38109DE5 		ldr	r1, [sp, #56]
 7661              	.LVL632:
 7662              	.L238:
 7663              	.LBE5834:
 7664              	.LBE5838:
 7665              	.LBB5839:
 7666              	.LBB5567:
 7667              	.LBB5568:
 203:C:/Renesas/e2studio_2021_01_workspace_RZA2M_ANPR/ANPR_RZA2M_RDK/src/tensorflow_lite/src/tensorflow/lite/kernels/internal\types.h **** #ifdef TF_LITE_STATIC_MEMORY
 7668              		.loc 7 203 0
 7669 0e70 050051E3 		cmp	r1, #5
 7670 0e74 DAFFFFDA 		ble	.L309
 7671 0e78 F7FFFFEA 		b	.L547
 7672              	.LVL633:
 7673              	.L561:
 7674              	.LBE5568:
 7675              	.LBE5567:
 7676              	.LBE5839:
 7677              	.LBB5840:
 7678              	.LBB5326:
 7679              	.LBB5317:
 7680              	.LBB5313:
 7681              	.LBB5308:
 7682              	.LBB5303:
 7683              	.LBB5298:
 7684              	.LBB5293:
 7685              	.LBB5219:
 7686              	.LBB5215:
 7687              	.LBB5212:
 338:C:/Renesas/e2studio_2021_01_workspace_RZA2M_ANPR/ANPR_RZA2M_RDK/src/tensorflow_lite/src/third_party/gemmlowp/fixedpoint\fixedpoint.h **** }
 7688              		.loc 4 338 0
 7689 0e7c 000053E3 		cmp	r3, #0
 7690 0e80 8300000A 		beq	.L570
 7691              	.LVL634:
 7692              	.L402:
 7693 0e84 02A1E0E3 		mvn	r10, #-2147483648
 7694              	.LVL635:
 7695 0e88 3CFDFFEA 		b	.L329
 7696              	.LVL636:
 7697              	.L377:
 7698              	.LBE5212:
 7699              	.LBE5215:
 7700              	.LBE5219:
 7701              	.LBE5293:
 7702              	.LBE5298:
 7703              	.LBE5303:
 7704              	.LBE5308:
 7705              	.LBE5313:
 7706              	.LBE5317:
 7707              	.LBE5326:
 7708              	.LBE5840:
 7709              	.LBB5841:
 7710              	.LBB5730:
 7711              	.LBB5725:
 7712              	.LBB5720:
 7713              	.LBB5632:
 7714              	.LBB5627:
 7715              	.LBB5624:
 7716              	.LBB5620:
 292:C:/Renesas/e2studio_2021_01_workspace_RZA2M_ANPR/ANPR_RZA2M_RDK/src/tensorflow_lite/src/tensorflow/lite/kernels/internal\types.h ****       buffer_size *= dims_data[i];
 7717              		.loc 7 292 0
 7718 0e8c 0200A0E1 		mov	r0, r2
 7719 0e90 9BFEFFEA 		b	.L262
 7720              	.LVL637:
 7721              	.L358:
 7722              	.LBE5620:
 7723              	.LBE5624:
 7724              	.LBE5627:
 7725              	.LBE5632:
 7726              	.LBE5720:
 7727              	.LBE5725:
 7728              	.LBE5730:
 7729              	.LBE5841:
 7730              	.LBB5842:
 7731              	.LBB5569:
 7732              	.LBB5559:
 7733              	.LBB5548:
 7734              	.LBB5400:
 7735              	.LBB5393:
 7736              	.LBB5388:
 7737              	.LBB5383:
 7738 0e94 0320A0E1 		mov	r2, r3
 7739 0e98 C4FDFFEA 		b	.L229
 7740              	.LVL638:
 7741              	.L397:
 7742              	.LBE5383:
 7743              	.LBE5388:
 7744              	.LBE5393:
 7745              	.LBE5400:
 7746              	.LBE5548:
 7747              	.LBE5559:
 7748              	.LBE5569:
 7749              	.LBE5842:
 7750              	.LBB5843:
 7751              	.LBB5327:
 7752              	.LBB5318:
 7753              	.LBB5174:
 7754              	.LBB5169:
 7755              	.LBB5166:
 7756              	.LBB5163:
 7757 0e9c 0200A0E1 		mov	r0, r2
 7758 0ea0 D7FCFFEA 		b	.L291
 7759              	.LVL639:
 7760              	.L343:
 7761              	.LBE5163:
 7762              	.LBE5166:
 7763              	.LBE5169:
 7764              	.LBE5174:
 7765              	.LBE5318:
 7766              	.LBE5327:
 7767              	.LBE5843:
 7768              	.LBB5844:
 7769              	.LBB5824:
 7770              	.LBB5817:
 7771              	.LBB5787:
 7772              	.LBB5782:
 7773              	.LBB5779:
 7774              	.LBB5776:
 7775 0ea4 0310A0E1 		mov	r1, r3
 7776 0ea8 6AFFFFEA 		b	.L200
 7777              	.LVL640:
 7778              	.L568:
 7779 0eac 000052E3 		cmp	r2, #0
 7780 0eb0 810000DA 		ble	.L334
 7781              	.LVL641:
 7782              	.L470:
 7783 0eb4 24C08DE2 		add	ip, sp, #36
 7784 0eb8 41FFFFEA 		b	.L193
 7785              	.LVL642:
 7786              	.L237:
 7787              	.LBE5776:
 7788              	.LBE5779:
 7789              	.LBE5782:
 7790              	.LBE5787:
 7791              	.LBE5817:
 7792              	.LBE5824:
 7793              	.LBE5844:
 7794              	.LBB5845:
 7795              	.LBB5570:
 7796              	.LBB5560:
 7797              	.LBB5549:
 7798              	.LBB5497:
  68:C:/Renesas/e2studio_2021_01_workspace_RZA2M_ANPR/ANPR_RZA2M_RDK/src/tensorflow_lite/src/tensorflow/lite/kernels/internal/reference\tanh.h ****       F3 input = F3::FromRaw(input_data[i]);
 7799              		.loc 10 68 0
 7800 0ebc 000058E3 		cmp	r8, #0
 7801 0ec0 EAFFFFDA 		ble	.L238
 7802              	.LVL643:
 7803              	.L331:
 7804 0ec4 029049E2 		sub	r9, r9, #2
 7805              	.LVL644:
 7806 0ec8 02A044E2 		sub	r10, r4, #2
 7807              	.LBE5497:
 7808              	.LBE5549:
 7809              	.LBB5550:
 7810              	.LBB5401:
 7811              	.LBB5394:
 7812              	.LBB5389:
 290:C:/Renesas/e2studio_2021_01_workspace_RZA2M_ANPR/ANPR_RZA2M_RDK/src/tensorflow_lite/src/tensorflow/lite/kernels/internal\types.h ****     const int* dims_data = reinterpret_cast<const int*>(DimsData());
 7813              		.loc 7 290 0
 7814 0ecc 0070A0E3 		mov	r7, #0
 7815 0ed0 130000EA 		b	.L241
 7816              	.LVL645:
 7817              	.L571:
 7818 0ed4 000063E2 		rsb	r0, r3, #0
 7819              	.LBE5389:
 7820              	.LBE5394:
 7821              	.LBE5401:
 7822              	.LBE5550:
 7823              	.LBB5551:
 7824              	.LBB5547:
 7825              	.LBB5498:
 7826              	.LBB5499:
 7827              	.LBB5500:
 7828              	.LBB5501:
 7829              	.LBB5502:
 7830              	.LBB5503:
 7831              	.LBB5504:
 158:C:/Renesas/e2studio_2021_01_workspace_RZA2M_ANPR/ANPR_RZA2M_RDK/src/tensorflow_lite/src/third_party/gemmlowp/fixedpoint\fixedpoint.h **** }
 7832              		.loc 4 158 0
 7833 0ed8 0030A0E3 		mov	r3, #0
 7834              	.LVL646:
 7835 0edc 7000BFE6 		sxth	r0, r0
 7836              	.LVL647:
 7837              	.LBE5504:
 7838              	.LBE5503:
 7839              	.LBE5502:
 7840              	.LBE5501:
 7841              	.LBB5508:
 7842              	.LBB5509:
 7843              	.LBB5510:
 7844              	.LBB5511:
 7845 0ee0 0340A0E1 		mov	r4, r3
 7846 0ee4 0050E013 		mvnne	r5, #0
 7847 0ee8 0350A001 		moveq	r5, r3
 7848              	.LBE5511:
 7849              	.LBE5510:
 7850              	.LBE5509:
 7851              	.LBE5508:
 7852              	.LBB5515:
 7853              	.LBB5507:
 7854              	.LBB5506:
 7855              	.LBB5505:
 7856 0eec 0060E0E3 		mvn	r6, #0
 7857              	.LVL648:
 7858              	.L240:
 7859              	.LBE5505:
 7860              	.LBE5506:
 7861              	.LBE5507:
 7862              	.LBE5515:
 7863              	.LBB5516:
 7864              	.LBB5517:
 821:C:/Renesas/e2studio_2021_01_workspace_RZA2M_ANPR/ANPR_RZA2M_RDK/src/tensorflow_lite/src/third_party/gemmlowp/fixedpoint\fixedpoint.h ****       exp_on_negative_values(ExactMulByPot<1>(a)));
 7865              		.loc 4 821 0
 7866 0ef0 030020E0 		eor	r0, r0, r3
 7867              	.LVL649:
 7868              	.LBE5517:
 7869              	.LBE5516:
 7870              	.LBE5500:
 7871              	.LBE5499:
 7872              	.LBE5498:
  68:C:/Renesas/e2studio_2021_01_workspace_RZA2M_ANPR/ANPR_RZA2M_RDK/src/tensorflow_lite/src/tensorflow/lite/kernels/internal/reference\tanh.h ****       F3 input = F3::FromRaw(input_data[i]);
 7873              		.loc 10 68 0
 7874 0ef4 017087E2 		add	r7, r7, #1
 7875              	.LVL650:
 7876              	.LBB5544:
 7877              	.LBB5541:
 7878              	.LBB5538:
 7879              	.LBB5519:
 7880              	.LBB5518:
 821:C:/Renesas/e2studio_2021_01_workspace_RZA2M_ANPR/ANPR_RZA2M_RDK/src/tensorflow_lite/src/third_party/gemmlowp/fixedpoint\fixedpoint.h ****       exp_on_negative_values(ExactMulByPot<1>(a)));
 7881              		.loc 4 821 0
 7882 0ef8 FEFFFFEB 		bl	_ZN8gemmlowp22exp_on_negative_valuesIsLi4EEENS_10FixedPointIT_Li0EEENS1_IS2_XT0_EEE
 7883              	.LVL651:
 7884              		.loc 4 822 0
 7885 0efc FEFFFFEB 		bl	_ZN8gemmlowp40one_minus_x_over_one_plus_x_for_x_in_0_1IsEENS_10FixedPointIT_Li0EEES3_
 7886              	.LVL652:
 7887 0f00 7030BFE6 		sxth	r3, r0
 7888              	.LVL653:
 7889              	.LBE5518:
 7890              	.LBE5519:
 7891              	.LBB5520:
 7892              	.LBB5521:
 7893              	.LBB5522:
 112:C:/Renesas/e2studio_2021_01_workspace_RZA2M_ANPR/ANPR_RZA2M_RDK/src/tensorflow_lite/src/third_party/gemmlowp/fixedpoint\fixedpoint.h **** }
 7894              		.loc 4 112 0
 7895 0f04 000060E2 		rsb	r0, r0, #0
 7896              	.LVL654:
 7897              	.LBE5522:
 7898              	.LBE5521:
 7899              	.LBE5520:
 7900              	.LBB5523:
 7901              	.LBB5524:
 7902              	.LBB5525:
 7903              	.LBB5526:
  71:C:/Renesas/e2studio_2021_01_workspace_RZA2M_ANPR/ANPR_RZA2M_RDK/src/tensorflow_lite/src/third_party/gemmlowp/fixedpoint\fixedpoint.h **** }
 7904              		.loc 4 71 0
 7905 0f08 004004E0 		and	r4, r4, r0
 7906              	.LVL655:
 7907              	.LBE5526:
 7908              	.LBE5525:
 7909              	.LBB5527:
 7910              	.LBB5528:
 7911 0f0c 063003E0 		and	r3, r3, r6
 7912              	.LVL656:
 7913              	.LBE5528:
 7914              	.LBE5527:
 7915              	.LBE5524:
 7916              	.LBE5523:
 7917              	.LBE5538:
 7918              	.LBE5541:
 7919              	.LBE5544:
  68:C:/Renesas/e2studio_2021_01_workspace_RZA2M_ANPR/ANPR_RZA2M_RDK/src/tensorflow_lite/src/tensorflow/lite/kernels/internal/reference\tanh.h ****       F3 input = F3::FromRaw(input_data[i]);
 7920              		.loc 10 68 0
 7921 0f10 080057E1 		cmp	r7, r8
 7922              	.LBB5545:
 7923              	.LBB5542:
 7924              	.LBB5539:
 7925              	.LBB5532:
 7926              	.LBB5531:
 7927              	.LBB5529:
 7928              	.LBB5530:
  83:C:/Renesas/e2studio_2021_01_workspace_RZA2M_ANPR/ANPR_RZA2M_RDK/src/tensorflow_lite/src/third_party/gemmlowp/fixedpoint\fixedpoint.h **** }
 7929              		.loc 4 83 0
 7930 0f14 034024E0 		eor	r4, r4, r3
 7931              	.LBE5530:
 7932              	.LBE5529:
 7933              	.LBE5531:
 7934              	.LBE5532:
 7935              	.LBB5533:
 7936              	.LBB5534:
 7937              	.LBB5535:
 7938              	.LBB5536:
  71:C:/Renesas/e2studio_2021_01_workspace_RZA2M_ANPR/ANPR_RZA2M_RDK/src/tensorflow_lite/src/third_party/gemmlowp/fixedpoint\fixedpoint.h **** }
 7939              		.loc 4 71 0
 7940 0f18 054004E0 		and	r4, r4, r5
 7941              	.LBE5536:
 7942              	.LBE5535:
 7943              	.LBE5534:
 7944              	.LBE5533:
 7945              	.LBE5539:
 7946              	.LBE5542:
  71:C:/Renesas/e2studio_2021_01_workspace_RZA2M_ANPR/ANPR_RZA2M_RDK/src/tensorflow_lite/src/tensorflow/lite/kernels/internal/reference\tanh.h ****     }
 7947              		.loc 10 71 0
 7948 0f1c B240EAE1 		strh	r4, [r10, #2]!	@ movhi
 7949              	.LBE5545:
  68:C:/Renesas/e2studio_2021_01_workspace_RZA2M_ANPR/ANPR_RZA2M_RDK/src/tensorflow_lite/src/tensorflow/lite/kernels/internal/reference\tanh.h ****       F3 input = F3::FromRaw(input_data[i]);
 7950              		.loc 10 68 0
 7951 0f20 D1FFFFAA 		bge	.L527
 7952              	.LVL657:
 7953              	.L241:
 7954              	.LBB5546:
  69:C:/Renesas/e2studio_2021_01_workspace_RZA2M_ANPR/ANPR_RZA2M_RDK/src/tensorflow_lite/src/tensorflow/lite/kernels/internal/reference\tanh.h ****       F0 output = gemmlowp::tanh(input);
 7955              		.loc 10 69 0
 7956 0f24 F230F9E1 		ldrsh	r3, [r9, #2]!
 7957              	.LVL658:
 7958              	.LBB5543:
 7959              	.LBB5540:
 7960              	.LBB5537:
 7961              	.LBB5514:
 7962              	.LBB5513:
 7963              	.LBB5512:
 158:C:/Renesas/e2studio_2021_01_workspace_RZA2M_ANPR/ANPR_RZA2M_RDK/src/tensorflow_lite/src/third_party/gemmlowp/fixedpoint\fixedpoint.h **** }
 7964              		.loc 4 158 0
 7965 0f28 000053E3 		cmp	r3, #0
 7966 0f2c E8FFFFAA 		bge	.L571
 7967 0f30 0050E0E3 		mvn	r5, #0
 7968 0f34 0000A0E3 		mov	r0, #0
 7969 0f38 0540A0E1 		mov	r4, r5
 7970 0f3c 0060A0E1 		mov	r6, r0
 7971 0f40 EAFFFFEA 		b	.L240
 7972              	.LVL659:
 7973              	.L398:
 7974              	.LBE5512:
 7975              	.LBE5513:
 7976              	.LBE5514:
 7977              	.LBE5537:
 7978              	.LBE5540:
 7979              	.LBE5543:
 7980              	.LBE5546:
 7981              	.LBE5547:
 7982              	.LBE5551:
 7983              	.LBE5560:
 7984              	.LBE5570:
 7985              	.LBE5845:
 7986              	.LBB5846:
 7987              	.LBB5328:
 7988              	.LBB5319:
 7989              	.LBB5314:
 7990              	.LBB5309:
 7991              	.LBB5304:
 7992              	.LBB5299:
 7993              	.LBB5294:
 7994              	.LBB5270:
 7995              	.LBB5268:
 7996              	.LBB5237:
 7997              	.LBB5235:
 7998              	.LBB5233:
 7999 0f44 0030E0E3 		mvn	r3, #0
 8000 0f48 0020A0E3 		mov	r2, #0
 8001 0f4c 03A0A0E1 		mov	r10, r3
 8002 0f50 02B0A0E1 		mov	fp, r2
 8003 0f54 1CFDFFEA 		b	.L305
 8004              	.LVL660:
 8005              	.L186:
 8006 0f58 041041E2 		sub	r1, r1, #4
 8007 0f5c 040045E2 		sub	r0, r5, #4
 8008              	.LBE5233:
 8009              	.LBE5235:
 8010              	.LBE5237:
 8011              	.LBE5268:
 8012              	.LBE5270:
 8013              	.LBE5294:
 8014              	.LBE5299:
 8015              	.LBE5304:
 8016              	.LBE5309:
 8017              	.LBE5314:
 8018              	.LBE5319:
 8019              	.LBE5328:
 8020              	.LBE5846:
 8021              	.LBB5847:
 8022              	.LBB5825:
 8023              	.LBB5818:
 8024              	.LBB5788:
 8025              	.LBB5783:
 8026              	.LBB5767:
 8027              	.LBB5756:
 216:C:/Renesas/e2studio_2021_01_workspace_RZA2M_ANPR/ANPR_RZA2M_RDK/src/tensorflow_lite/src/tensorflow/lite/kernels/internal\types.h ****   }
 8028              		.loc 7 216 0
 8029 0f60 0030A0E3 		mov	r3, #0
 8030 0f64 050000EA 		b	.L192
 8031              	.LVL661:
 8032              	.L190:
 8033              	.LBE5756:
 8034              	.LBE5767:
 8035              		.loc 7 524 0
 8036 0f68 04C0B1E5 		ldr	ip, [r1, #4]!
 8037 0f6c 0C005EE1 		cmp	lr, ip
 8038 0f70 6C00001A 		bne	.L188
 523:C:/Renesas/e2studio_2021_01_workspace_RZA2M_ANPR/ANPR_RZA2M_RDK/src/tensorflow_lite/src/tensorflow/lite/kernels/internal\types.h ****     TFLITE_DCHECK_EQ(shape.Dims(i), check_shape_0.Dims(i));
 8039              		.loc 7 523 0
 8040 0f74 013083E2 		add	r3, r3, #1
 8041              	.LVL662:
 8042 0f78 030052E1 		cmp	r2, r3
 8043 0f7c 0DFFFF0A 		beq	.L189
 8044              	.LVL663:
 8045              	.L192:
 8046              	.LBB5768:
 8047              	.LBB5757:
 215:C:/Renesas/e2studio_2021_01_workspace_RZA2M_ANPR/ANPR_RZA2M_RDK/src/tensorflow_lite/src/tensorflow/lite/kernels/internal\types.h ****     return size_ > kMaxSmallSize ? dims_pointer_[i] : dims_[i];
 8048              		.loc 7 215 0
 8049 0f80 03005AE1 		cmp	r10, r3
 8050              	.LBE5757:
 8051              	.LBE5768:
 8052              	.LBB5769:
 8053              	.LBB5749:
 216:C:/Renesas/e2studio_2021_01_workspace_RZA2M_ANPR/ANPR_RZA2M_RDK/src/tensorflow_lite/src/tensorflow/lite/kernels/internal\types.h ****   }
 8054              		.loc 7 216 0
 8055 0f84 04E0B0E5 		ldr	lr, [r0, #4]!
 8056              	.LVL664:
 8057              	.LBE5749:
 8058              	.LBE5769:
 8059              	.LBB5770:
 8060              	.LBB5758:
 215:C:/Renesas/e2studio_2021_01_workspace_RZA2M_ANPR/ANPR_RZA2M_RDK/src/tensorflow_lite/src/tensorflow/lite/kernels/internal\types.h ****     return size_ > kMaxSmallSize ? dims_pointer_[i] : dims_[i];
 8061              		.loc 7 215 0
 8062 0f88 F6FFFFCA 		bgt	.L190
 8063              	.LVL665:
 8064              	.L187:
 8065              	.LEHB9:
 8066 0f8c FEFFFFEB 		bl	abort
 8067              	.LVL666:
 8068              	.LEHE9:
 8069              	.L220:
 8070 0f90 040040E2 		sub	r0, r0, #4
 8071 0f94 042047E2 		sub	r2, r7, #4
 8072              	.LBE5758:
 8073              	.LBE5770:
 8074              	.LBE5783:
 8075              	.LBE5788:
 8076              	.LBE5818:
 8077              	.LBE5825:
 8078              	.LBE5847:
 8079              	.LBB5848:
 8080              	.LBB5571:
 8081              	.LBB5561:
 8082              	.LBB5552:
 8083              	.LBB5402:
 8084              	.LBB5395:
 8085              	.LBB5373:
 8086              	.LBB5360:
 216:C:/Renesas/e2studio_2021_01_workspace_RZA2M_ANPR/ANPR_RZA2M_RDK/src/tensorflow_lite/src/tensorflow/lite/kernels/internal\types.h ****   }
 8087              		.loc 7 216 0
 8088 0f98 0030A0E3 		mov	r3, #0
 8089              	.LVL667:
 8090              	.L226:
 215:C:/Renesas/e2studio_2021_01_workspace_RZA2M_ANPR/ANPR_RZA2M_RDK/src/tensorflow_lite/src/tensorflow/lite/kernels/internal\types.h ****     return size_ > kMaxSmallSize ? dims_pointer_[i] : dims_[i];
 8091              		.loc 7 215 0
 8092 0f9c 030056E1 		cmp	r6, r3
 8093              	.LBE5360:
 8094              	.LBE5373:
 8095              	.LBB5374:
 8096              	.LBB5351:
 216:C:/Renesas/e2studio_2021_01_workspace_RZA2M_ANPR/ANPR_RZA2M_RDK/src/tensorflow_lite/src/tensorflow/lite/kernels/internal\types.h ****   }
 8097              		.loc 7 216 0
 8098 0fa0 04E0B2E5 		ldr	lr, [r2, #4]!
 8099              	.LVL668:
 8100              	.LBE5351:
 8101              	.LBE5374:
 8102              	.LBB5375:
 8103              	.LBB5361:
 215:C:/Renesas/e2studio_2021_01_workspace_RZA2M_ANPR/ANPR_RZA2M_RDK/src/tensorflow_lite/src/tensorflow/lite/kernels/internal\types.h ****     return size_ > kMaxSmallSize ? dims_pointer_[i] : dims_[i];
 8104              		.loc 7 215 0
 8105 0fa4 5B0000DA 		ble	.L221
 8106              	.LVL669:
 8107              	.LBE5361:
 8108              	.LBE5375:
 8109              		.loc 7 524 0
 8110 0fa8 04C0B0E5 		ldr	ip, [r0, #4]!
 8111 0fac 0C005EE1 		cmp	lr, ip
 8112 0fb0 5600001A 		bne	.L222
 523:C:/Renesas/e2studio_2021_01_workspace_RZA2M_ANPR/ANPR_RZA2M_RDK/src/tensorflow_lite/src/tensorflow/lite/kernels/internal\types.h ****     TFLITE_DCHECK_EQ(shape.Dims(i), check_shape_0.Dims(i));
 8113              		.loc 7 523 0
 8114 0fb4 013083E2 		add	r3, r3, #1
 8115              	.LVL670:
 8116 0fb8 030051E1 		cmp	r1, r3
 8117 0fbc F6FFFF1A 		bne	.L226
 8118              	.LVL671:
 8119              	.LBE5395:
 8120              	.LBB5396:
 8121              	.LBB5390:
 8122              	.LBB5384:
 292:C:/Renesas/e2studio_2021_01_workspace_RZA2M_ANPR/ANPR_RZA2M_RDK/src/tensorflow_lite/src/tensorflow/lite/kernels/internal\types.h ****       buffer_size *= dims_data[i];
 8123              		.loc 7 292 0
 8124 0fc0 000051E3 		cmp	r1, #0
 8125              	.LBE5384:
 8126              	.LBB5385:
 8127              	.LBB5381:
 232:C:/Renesas/e2studio_2021_01_workspace_RZA2M_ANPR/ANPR_RZA2M_RDK/src/tensorflow_lite/src/tensorflow/lite/kernels/internal\types.h ****   }
 8128              		.loc 7 232 0
 8129 0fc4 07C0A0E1 		mov	ip, r7
 8130              	.LVL672:
 8131              	.LBE5381:
 8132              	.LBE5385:
 8133              	.LBB5386:
 292:C:/Renesas/e2studio_2021_01_workspace_RZA2M_ANPR/ANPR_RZA2M_RDK/src/tensorflow_lite/src/tensorflow/lite/kernels/internal\types.h ****       buffer_size *= dims_data[i];
 8134              		.loc 7 292 0
 8135 0fc8 52FDFFCA 		bgt	.L223
 8136              	.LVL673:
 8137              	.L218:
 8138              	.LBE5386:
 8139              	.LBE5390:
 8140              	.LBE5396:
 8141              	.LBE5402:
 8142              	.LBE5552:
 8143              	.LBB5553:
  67:C:/Renesas/e2studio_2021_01_workspace_RZA2M_ANPR/ANPR_RZA2M_RDK/src/tensorflow_lite/src/tensorflow/lite/kernels/internal/reference\tanh.h ****     for (int i = 0; i < flat_size; i++) {
 8144              		.loc 10 67 0
 8145 0fcc 000055E3 		cmp	r5, #0
 8146              	.LBE5553:
 8147              	.LBB5554:
 8148              	.LBB5403:
 8149              	.LBB5397:
 8150              	.LBB5391:
 290:C:/Renesas/e2studio_2021_01_workspace_RZA2M_ANPR/ANPR_RZA2M_RDK/src/tensorflow_lite/src/tensorflow/lite/kernels/internal\types.h ****     const int* dims_data = reinterpret_cast<const int*>(DimsData());
 8151              		.loc 7 290 0
 8152 0fd0 0180A0E3 		mov	r8, #1
 8153              	.LBE5391:
 8154              	.LBE5397:
 8155              	.LBE5403:
 8156              	.LBE5554:
 8157              	.LBB5555:
  67:C:/Renesas/e2studio_2021_01_workspace_RZA2M_ANPR/ANPR_RZA2M_RDK/src/tensorflow_lite/src/tensorflow/lite/kernels/internal/reference\tanh.h ****     for (int i = 0; i < flat_size; i++) {
 8158              		.loc 10 67 0
 8159 0fd4 BAFFFF0A 		beq	.L331
 8160 0fd8 A3FDFFEA 		b	.L239
 8161              	.LVL674:
 8162              	.L281:
 8163 0fdc 040040E2 		sub	r0, r0, #4
 8164 0fe0 04C041E2 		sub	ip, r1, #4
 8165              	.LBE5555:
 8166              	.LBE5561:
 8167              	.LBE5571:
 8168              	.LBE5848:
 8169              	.LBB5849:
 8170              	.LBB5329:
 8171              	.LBB5320:
 8172              	.LBB5175:
 8173              	.LBB5170:
 8174              	.LBB5154:
 8175              	.LBB5143:
 216:C:/Renesas/e2studio_2021_01_workspace_RZA2M_ANPR/ANPR_RZA2M_RDK/src/tensorflow_lite/src/tensorflow/lite/kernels/internal\types.h ****   }
 8176              		.loc 7 216 0
 8177 0fe4 0020A0E3 		mov	r2, #0
 8178              	.LVL675:
 8179              	.L287:
 215:C:/Renesas/e2studio_2021_01_workspace_RZA2M_ANPR/ANPR_RZA2M_RDK/src/tensorflow_lite/src/tensorflow/lite/kernels/internal\types.h ****     return size_ > kMaxSmallSize ? dims_pointer_[i] : dims_[i];
 8180              		.loc 7 215 0
 8181 0fe8 060052E1 		cmp	r2, r6
 8182              	.LBE5143:
 8183              	.LBE5154:
 8184              	.LBB5155:
 8185              	.LBB5136:
 216:C:/Renesas/e2studio_2021_01_workspace_RZA2M_ANPR/ANPR_RZA2M_RDK/src/tensorflow_lite/src/tensorflow/lite/kernels/internal\types.h ****   }
 8186              		.loc 7 216 0
 8187 0fec 0480BCE5 		ldr	r8, [ip, #4]!
 8188              	.LVL676:
 8189              	.LBE5136:
 8190              	.LBE5155:
 8191              	.LBB5156:
 8192              	.LBB5144:
 215:C:/Renesas/e2studio_2021_01_workspace_RZA2M_ANPR/ANPR_RZA2M_RDK/src/tensorflow_lite/src/tensorflow/lite/kernels/internal\types.h ****     return size_ > kMaxSmallSize ? dims_pointer_[i] : dims_[i];
 8193              		.loc 7 215 0
 8194 0ff0 450000AA 		bge	.L282
 8195              	.LVL677:
 8196              	.LBE5144:
 8197              	.LBE5156:
 8198              		.loc 7 524 0
 8199 0ff4 04E0B0E5 		ldr	lr, [r0, #4]!
 8200 0ff8 0E0058E1 		cmp	r8, lr
 8201 0ffc 4000001A 		bne	.L283
 523:C:/Renesas/e2studio_2021_01_workspace_RZA2M_ANPR/ANPR_RZA2M_RDK/src/tensorflow_lite/src/tensorflow/lite/kernels/internal\types.h ****     TFLITE_DCHECK_EQ(shape.Dims(i), check_shape_0.Dims(i));
 8202              		.loc 7 523 0
 8203 1000 012082E2 		add	r2, r2, #1
 8204              	.LVL678:
 8205 1004 020053E1 		cmp	r3, r2
 8206 1008 F6FFFF1A 		bne	.L287
 8207              	.LVL679:
 8208              	.LBE5170:
 8209              	.LBB5171:
 8210              	.LBB5167:
 8211              	.LBB5164:
 292:C:/Renesas/e2studio_2021_01_workspace_RZA2M_ANPR/ANPR_RZA2M_RDK/src/tensorflow_lite/src/tensorflow/lite/kernels/internal\types.h ****       buffer_size *= dims_data[i];
 8212              		.loc 7 292 0
 8213 100c 000053E3 		cmp	r3, #0
 8214              	.LVL680:
 8215 1010 55FCFFCA 		bgt	.L284
 8216              	.LVL681:
 8217              	.L389:
 8218              	.LBE5164:
 290:C:/Renesas/e2studio_2021_01_workspace_RZA2M_ANPR/ANPR_RZA2M_RDK/src/tensorflow_lite/src/tensorflow/lite/kernels/internal\types.h ****     const int* dims_data = reinterpret_cast<const int*>(DimsData());
 8219              		.loc 7 290 0
 8220 1014 0160A0E3 		mov	r6, #1
 8221 1018 A6FCFFEA 		b	.L279
 8222              	.LVL682:
 8223              	.L252:
 8224 101c 040040E2 		sub	r0, r0, #4
 8225 1020 04C041E2 		sub	ip, r1, #4
 8226              	.LBE5167:
 8227              	.LBE5171:
 8228              	.LBE5175:
 8229              	.LBE5320:
 8230              	.LBE5329:
 8231              	.LBE5849:
 8232              	.LBB5850:
 8233              	.LBB5731:
 8234              	.LBB5726:
 8235              	.LBB5721:
 8236              	.LBB5633:
 8237              	.LBB5628:
 8238              	.LBB5611:
 8239              	.LBB5600:
 216:C:/Renesas/e2studio_2021_01_workspace_RZA2M_ANPR/ANPR_RZA2M_RDK/src/tensorflow_lite/src/tensorflow/lite/kernels/internal\types.h ****   }
 8240              		.loc 7 216 0
 8241 1024 0020A0E3 		mov	r2, #0
 8242              	.LVL683:
 8243              	.L258:
 215:C:/Renesas/e2studio_2021_01_workspace_RZA2M_ANPR/ANPR_RZA2M_RDK/src/tensorflow_lite/src/tensorflow/lite/kernels/internal\types.h ****     return size_ > kMaxSmallSize ? dims_pointer_[i] : dims_[i];
 8244              		.loc 7 215 0
 8245 1028 020055E1 		cmp	r5, r2
 8246              	.LBE5600:
 8247              	.LBE5611:
 8248              	.LBB5612:
 8249              	.LBB5593:
 216:C:/Renesas/e2studio_2021_01_workspace_RZA2M_ANPR/ANPR_RZA2M_RDK/src/tensorflow_lite/src/tensorflow/lite/kernels/internal\types.h ****   }
 8250              		.loc 7 216 0
 8251 102c 0470BCE5 		ldr	r7, [ip, #4]!
 8252              	.LVL684:
 8253              	.LBE5593:
 8254              	.LBE5612:
 8255              	.LBB5613:
 8256              	.LBB5601:
 215:C:/Renesas/e2studio_2021_01_workspace_RZA2M_ANPR/ANPR_RZA2M_RDK/src/tensorflow_lite/src/tensorflow/lite/kernels/internal\types.h ****     return size_ > kMaxSmallSize ? dims_pointer_[i] : dims_[i];
 8257              		.loc 7 215 0
 8258 1030 3B0000DA 		ble	.L253
 8259              	.LVL685:
 8260              	.LBE5601:
 8261              	.LBE5613:
 8262              		.loc 7 524 0
 8263 1034 04E0B0E5 		ldr	lr, [r0, #4]!
 8264 1038 0E0057E1 		cmp	r7, lr
 8265 103c 3600001A 		bne	.L254
 523:C:/Renesas/e2studio_2021_01_workspace_RZA2M_ANPR/ANPR_RZA2M_RDK/src/tensorflow_lite/src/tensorflow/lite/kernels/internal\types.h ****     TFLITE_DCHECK_EQ(shape.Dims(i), check_shape_0.Dims(i));
 8266              		.loc 7 523 0
 8267 1040 012082E2 		add	r2, r2, #1
 8268              	.LVL686:
 8269 1044 020053E1 		cmp	r3, r2
 8270 1048 F6FFFF1A 		bne	.L258
 8271              	.LVL687:
 8272              	.LBE5628:
 8273              	.LBB5629:
 8274              	.LBB5625:
 8275              	.LBB5621:
 292:C:/Renesas/e2studio_2021_01_workspace_RZA2M_ANPR/ANPR_RZA2M_RDK/src/tensorflow_lite/src/tensorflow/lite/kernels/internal\types.h ****       buffer_size *= dims_data[i];
 8276              		.loc 7 292 0
 8277 104c 000053E3 		cmp	r3, #0
 8278              	.LVL688:
 8279 1050 05FEFFCA 		bgt	.L255
 8280              	.LVL689:
 8281              	.L369:
 8282              	.LBE5621:
 290:C:/Renesas/e2studio_2021_01_workspace_RZA2M_ANPR/ANPR_RZA2M_RDK/src/tensorflow_lite/src/tensorflow/lite/kernels/internal\types.h ****     const int* dims_data = reinterpret_cast<const int*>(DimsData());
 8283              		.loc 7 290 0
 8284 1054 0180A0E3 		mov	r8, #1
 8285 1058 56FEFFEA 		b	.L250
 8286              	.LVL690:
 8287              	.L370:
 8288              	.LBB5622:
 292:C:/Renesas/e2studio_2021_01_workspace_RZA2M_ANPR/ANPR_RZA2M_RDK/src/tensorflow_lite/src/tensorflow/lite/kernels/internal\types.h ****       buffer_size *= dims_data[i];
 8289              		.loc 7 292 0
 8290 105c 0180A0E3 		mov	r8, #1
 8291 1060 0200A0E1 		mov	r0, r2
 8292 1064 28FEFFEA 		b	.L261
 8293              	.LVL691:
 8294              	.L390:
 8295              	.LBE5622:
 8296              	.LBE5625:
 8297              	.LBE5629:
 8298              	.LBE5633:
 8299              	.LBE5721:
 8300              	.LBE5726:
 8301              	.LBE5731:
 8302              	.LBE5850:
 8303              	.LBB5851:
 8304              	.LBB5330:
 8305              	.LBB5321:
 8306              	.LBB5176:
 8307              	.LBB5172:
 8308              	.LBB5168:
 8309              	.LBB5165:
 8310 1068 0160A0E3 		mov	r6, #1
 8311 106c 0200A0E1 		mov	r0, r2
 8312 1070 65FCFFEA 		b	.L290
 8313              	.LVL692:
 8314              	.L351:
 8315              	.LBE5165:
 8316              	.LBE5168:
 8317              	.LBE5172:
 8318              	.LBE5176:
 8319              	.LBE5321:
 8320              	.LBE5330:
 8321              	.LBE5851:
 8322              	.LBB5852:
 8323              	.LBB5572:
 8324              	.LBB5562:
 8325              	.LBB5556:
 8326              	.LBB5404:
 8327              	.LBB5398:
 8328              	.LBB5392:
 8329              	.LBB5387:
 8330 1074 0180A0E3 		mov	r8, #1
 8331 1078 0320A0E1 		mov	r2, r3
 8332 107c 4DFDFFEA 		b	.L228
 8333              	.LVL693:
 8334              	.L569:
 8335 1080 000053E3 		cmp	r3, #0
 8336              	.LBE5387:
 8337              	.LBE5392:
 8338              	.LBE5398:
 8339              	.LBE5404:
 8340              	.LBE5556:
 8341              	.LBE5562:
 8342              	.LBE5572:
 8343              	.LBE5852:
 8344              	.LBB5853:
 8345              	.LBB5826:
 8346              	.LBB5819:
 8347              	.LBB5789:
 8348              	.LBB5784:
 8349              	.LBB5780:
 8350              	.LBB5777:
 8351 1084 0180A003 		moveq	r8, #1
 8352 1088 0310A001 		moveq	r1, r3
 8353 108c F3FEFF0A 		beq	.L199
 8354 1090 D2FEFFEA 		b	.L198
 8355              	.LVL694:
 8356              	.L570:
 8357              	.LBE5777:
 8358              	.LBE5780:
 8359              	.LBE5784:
 8360              	.LBE5789:
 8361              	.LBE5819:
 8362              	.LBE5826:
 8363              	.LBE5853:
 8364              	.LBB5854:
 8365              	.LBB5331:
 8366              	.LBB5322:
 8367              	.LBB5315:
 8368              	.LBB5310:
 8369              	.LBB5305:
 8370              	.LBB5300:
 8371              	.LBB5295:
 8372              	.LBB5220:
 8373              	.LBB5216:
 8374              	.LBB5213:
 337:C:/Renesas/e2studio_2021_01_workspace_RZA2M_ANPR/ANPR_RZA2M_RDK/src/tensorflow_lite/src/third_party/gemmlowp/fixedpoint\fixedpoint.h ****   return overflow ? std::numeric_limits<std::int32_t>::max() : ab_x2_high32;
 8375              		.loc 4 337 0
 8376 1094 07A19AE2 		adds	r10, r10, #-1073741823
 8377              	.LVL695:
 8378 1098 0030A0E3 		mov	r3, #0
 8379              	.LVL696:
 8380 109c 00B0CBE2 		sbc	fp, fp, #0
 8381 10a0 CB2FA0E1 		asr	r2, fp, #31
 8382 10a4 0221C2E3 		bic	r2, r2, #-2147483648
 8383 10a8 02A09AE0 		adds	r10, r10, r2
 8384 10ac AAAFA0E1 		lsr	r10, r10, #31
 8385 10b0 03B0ABE0 		adc	fp, fp, r3
 8386 10b4 8BA08AE1 		orr	r10, r10, fp, lsl #1
 8387 10b8 B0FCFFEA 		b	.L329
 8388              	.LVL697:
 8389              	.L334:
 8390              	.LBE5213:
 8391              	.LBE5216:
 8392              	.LBE5220:
 8393              	.LBE5295:
 8394              	.LBE5300:
 8395              	.LBE5305:
 8396              	.LBE5310:
 8397              	.LBE5315:
 8398              	.LBE5322:
 8399              	.LBE5331:
 8400              	.LBE5854:
 8401              	.LBB5855:
 8402              	.LBB5827:
 8403              	.LBB5820:
 8404              	.LBB5790:
 8405              	.LBB5785:
 8406              	.LBB5781:
 290:C:/Renesas/e2studio_2021_01_workspace_RZA2M_ANPR/ANPR_RZA2M_RDK/src/tensorflow_lite/src/tensorflow/lite/kernels/internal\types.h ****     const int* dims_data = reinterpret_cast<const int*>(DimsData());
 8407              		.loc 7 290 0
 8408 10bc 0180A0E3 		mov	r8, #1
 8409              	.LBB5778:
 292:C:/Renesas/e2studio_2021_01_workspace_RZA2M_ANPR/ANPR_RZA2M_RDK/src/tensorflow_lite/src/tensorflow/lite/kernels/internal\types.h ****       buffer_size *= dims_data[i];
 8410              		.loc 7 292 0
 8411 10c0 0070A0E3 		mov	r7, #0
 8412 10c4 37FFFFEA 		b	.L194
 8413              	.L405:
 8414              	.LVL698:
 8415              	.L555:
 8416              	.LBE5778:
 8417              	.LBE5781:
 8418              	.LBE5785:
 8419              	.LBE5790:
 8420              	.LBE5820:
 8421              	.LBE5827:
 8422              	.LBE5855:
 8423              	.LBB5856:
 8424              	.LBB5857:
 203:C:/Renesas/e2studio_2021_01_workspace_RZA2M_ANPR/ANPR_RZA2M_RDK/src/tensorflow_lite/src/tensorflow/lite/kernels/internal\types.h **** #ifdef TF_LITE_STATIC_MEMORY
 8425              		.loc 7 203 0
 8426 10c8 38309DE5 		ldr	r3, [sp, #56]
 8427 10cc 050053E3 		cmp	r3, #5
 8428 10d0 030000DA 		ble	.L325
 207:C:/Renesas/e2studio_2021_01_workspace_RZA2M_ANPR/ANPR_RZA2M_RDK/src/tensorflow_lite/src/tensorflow/lite/kernels/internal\types.h **** #endif  // TF_LITE_STATIC_MEMORY
 8429              		.loc 7 207 0
 8430 10d4 3C009DE5 		ldr	r0, [sp, #60]
 8431 10d8 000050E3 		cmp	r0, #0
 8432 10dc 0000000A 		beq	.L325
 8433 10e0 FEFFFFEB 		bl	_ZdaPv
 8434              	.LVL699:
 8435              	.L325:
 8436              	.LBE5857:
 8437              	.LBE5856:
 8438              	.LBB5858:
 8439              	.LBB5859:
 203:C:/Renesas/e2studio_2021_01_workspace_RZA2M_ANPR/ANPR_RZA2M_RDK/src/tensorflow_lite/src/tensorflow/lite/kernels/internal\types.h **** #ifdef TF_LITE_STATIC_MEMORY
 8440              		.loc 7 203 0
 8441 10e4 20309DE5 		ldr	r3, [sp, #32]
 8442 10e8 050053E3 		cmp	r3, #5
 8443 10ec 030000DA 		ble	.L326
 207:C:/Renesas/e2studio_2021_01_workspace_RZA2M_ANPR/ANPR_RZA2M_RDK/src/tensorflow_lite/src/tensorflow/lite/kernels/internal\types.h **** #endif  // TF_LITE_STATIC_MEMORY
 8444              		.loc 7 207 0
 8445 10f0 24009DE5 		ldr	r0, [sp, #36]
 8446 10f4 000050E3 		cmp	r0, #0
 8447 10f8 0000000A 		beq	.L326
 8448 10fc FEFFFFEB 		bl	_ZdaPv
 8449              	.LVL700:
 8450              	.L326:
 8451              	.LEHB10:
 8452 1100 FEFFFFEB 		bl	__cxa_end_cleanup
 8453              	.LVL701:
 8454              	.LEHE10:
 8455              	.L283:
 8456              	.LEHB11:
 8457              	.LBE5859:
 8458              	.LBE5858:
 8459              	.LBB5860:
 8460              	.LBB5332:
 8461              	.LBB5323:
 8462              	.LBB5177:
 8463              	.LBB5173:
 8464              		.loc 7 524 0
 8465 1104 FEFFFFEB 		bl	abort
 8466              	.LVL702:
 8467              	.L411:
 8468 1108 EEFFFFEA 		b	.L555
 8469              	.LVL703:
 8470              	.L282:
 8471              	.LBB5157:
 8472              	.LBB5145:
 215:C:/Renesas/e2studio_2021_01_workspace_RZA2M_ANPR/ANPR_RZA2M_RDK/src/tensorflow_lite/src/tensorflow/lite/kernels/internal\types.h ****     return size_ > kMaxSmallSize ? dims_pointer_[i] : dims_[i];
 8473              		.loc 7 215 0
 8474 110c FEFFFFEB 		bl	abort
 8475              	.LVL704:
 8476              	.LEHE11:
 8477              	.L222:
 8478              	.LEHB12:
 8479              	.LBE5145:
 8480              	.LBE5157:
 8481              	.LBE5173:
 8482              	.LBE5177:
 8483              	.LBE5323:
 8484              	.LBE5332:
 8485              	.LBE5860:
 8486              	.LBB5861:
 8487              	.LBB5573:
 8488              	.LBB5563:
 8489              	.LBB5557:
 8490              	.LBB5405:
 8491              	.LBB5399:
 8492              		.loc 7 524 0
 8493 1110 FEFFFFEB 		bl	abort
 8494              	.LVL705:
 8495              	.L407:
 8496 1114 EBFFFFEA 		b	.L555
 8497              	.LVL706:
 8498              	.L221:
 8499              	.LBB5376:
 8500              	.LBB5362:
 215:C:/Renesas/e2studio_2021_01_workspace_RZA2M_ANPR/ANPR_RZA2M_RDK/src/tensorflow_lite/src/tensorflow/lite/kernels/internal\types.h ****     return size_ > kMaxSmallSize ? dims_pointer_[i] : dims_[i];
 8501              		.loc 7 215 0
 8502 1118 FEFFFFEB 		bl	abort
 8503              	.LVL707:
 8504              	.LEHE12:
 8505              	.L254:
 8506              	.LEHB13:
 8507              	.LBE5362:
 8508              	.LBE5376:
 8509              	.LBE5399:
 8510              	.LBE5405:
 8511              	.LBE5557:
 8512              	.LBE5563:
 8513              	.LBE5573:
 8514              	.LBE5861:
 8515              	.LBB5862:
 8516              	.LBB5732:
 8517              	.LBB5727:
 8518              	.LBB5722:
 8519              	.LBB5634:
 8520              	.LBB5630:
 8521              		.loc 7 524 0
 8522 111c FEFFFFEB 		bl	abort
 8523              	.LVL708:
 8524              	.L409:
 8525 1120 E8FFFFEA 		b	.L555
 8526              	.LVL709:
 8527              	.L253:
 8528              	.LBB5614:
 8529              	.LBB5602:
 215:C:/Renesas/e2studio_2021_01_workspace_RZA2M_ANPR/ANPR_RZA2M_RDK/src/tensorflow_lite/src/tensorflow/lite/kernels/internal\types.h ****     return size_ > kMaxSmallSize ? dims_pointer_[i] : dims_[i];
 8530              		.loc 7 215 0
 8531 1124 FEFFFFEB 		bl	abort
 8532              	.LVL710:
 8533              	.LEHE13:
 8534              	.L188:
 8535              	.LEHB14:
 8536              	.LBE5602:
 8537              	.LBE5614:
 8538              	.LBE5630:
 8539              	.LBE5634:
 8540              	.LBE5722:
 8541              	.LBE5727:
 8542              	.LBE5732:
 8543              	.LBE5862:
 8544              	.LBB5863:
 8545              	.LBB5828:
 8546              	.LBB5821:
 8547              	.LBB5791:
 8548              	.LBB5786:
 8549              		.loc 7 524 0
 8550 1128 FEFFFFEB 		bl	abort
 8551              	.LVL711:
 8552              	.LEHE14:
 8553              	.L175:
 8554              	.LEHB15:
 8555              	.LBE5786:
 8556              	.LBE5791:
 8557              	.LBE5821:
 8558              	.LBE5828:
 8559              	.LBE5863:
 8560              	.LBE5872:
 8561              	.LBE5875:
 8562              	.LBB5876:
 8563              	.LBB5110:
 8564              	.LBB5107:
  34:C:/Renesas/e2studio_2021_01_workspace_RZA2M_ANPR/ANPR_RZA2M_RDK/src/tensorflow_lite/src/tensorflow/lite/micro/kernels\kernel_util.h ****   TFLITE_DCHECK(node != nullptr);
 8565              		.loc 6 34 0
 8566 112c FEFFFFEB 		bl	abort
 8567              	.LVL712:
 8568              	.LEHE15:
 8569              	.L217:
 8570              	.LEHB16:
 8571              	.LBE5107:
 8572              	.LBE5110:
 8573              	.LBE5876:
 8574              	.LBB5877:
 8575              	.LBB5873:
 8576              	.LBB5864:
 8577              	.LBB5574:
 8578              	.LBB5564:
 8579              	.LBB5558:
 8580              	.LBB5406:
 521:C:/Renesas/e2studio_2021_01_workspace_RZA2M_ANPR/ANPR_RZA2M_RDK/src/tensorflow_lite/src/tensorflow/lite/kernels/internal\types.h ****   const int dims_count = shape.DimensionsCount();
 8581              		.loc 7 521 0
 8582 1130 FEFFFFEB 		bl	abort
 8583              	.LVL713:
 8584              	.LEHE16:
 8585              	.L406:
 8586 1134 EAFFFFEA 		b	.L325
 8587              	.LVL714:
 8588              	.L562:
 8589              	.LBE5406:
 8590              	.LBE5558:
 8591              	.LBE5564:
 8592              	.LBE5574:
 8593              	.LBE5864:
 8594              	.LBB5865:
 8595              	.LBB5333:
 8596              	.LBB5324:
 8597              	.LBB5316:
 8598              	.LBB5311:
 8599              	.LBB5306:
 8600              	.LBB5301:
 8601              	.LBB5296:
 8602              	.LBB5221:
 8603              	.LBB5217:
 8604              	.LBB5207:
 359:C:/Renesas/e2studio_2021_01_workspace_RZA2M_ANPR/ANPR_RZA2M_RDK/src/tensorflow_lite/src/third_party/gemmlowp/fixedpoint\fixedpoint.h ****   const IntegerType mask = Dup<IntegerType>((1ll << exponent) - 1);
 8605              		.loc 4 359 0
 8606 1138 003000E3 		movw	r3, #:lower16:.LC12
 8607              	.LVL715:
 8608 113c 002000E3 		movw	r2, #:lower16:.LANCHOR1
 8609 1140 000000E3 		movw	r0, #:lower16:.LC13
 8610 1144 003040E3 		movt	r3, #:upper16:.LC12
 8611 1148 002040E3 		movt	r2, #:upper16:.LANCHOR1
 8612 114c 000040E3 		movt	r0, #:upper16:.LC13
 8613 1150 671100E3 		movw	r1, #359
 8614              	.LEHB17:
 8615 1154 FEFFFFEB 		bl	__assert_func
 8616              	.LVL716:
 8617              	.LEHE17:
 8618              	.L408:
 8619 1158 E1FFFFEA 		b	.L325
 8620              	.LVL717:
 8621              	.L563:
 8622              	.LEHB18:
 8623              	.LBE5207:
 8624              	.LBE5217:
 8625              	.LBE5221:
 8626              	.LBE5296:
 8627              	.LBE5301:
 8628              	.LBE5306:
 8629              	.LBE5311:
 8630              	.LBE5316:
 8631              	.LBE5324:
 8632              	.LBE5333:
 8633              	.LBE5865:
 8634              	.LBB5866:
 8635              	.LBB5575:
 8636              	.LBB5565:
  55:C:/Renesas/e2studio_2021_01_workspace_RZA2M_ANPR/ANPR_RZA2M_RDK/src/tensorflow_lite/src/tensorflow/lite/kernels/internal/reference\tanh.h ****   TFLITE_DCHECK_LE(input_left_shift, 1);
 8637              		.loc 10 55 0
 8638 115c FEFFFFEB 		bl	abort
 8639              	.LVL718:
 8640              	.LEHE18:
 8641              	.L567:
 8642 1160 0030E013 		mvnne	r3, #0
 8643 1164 0030A003 		moveq	r3, #0
 8644 1168 000062E2 		rsb	r0, r2, #0
 8645 116c 08308DE5 		str	r3, [sp, #8]
 8646 1170 59FEFFEA 		b	.L327
 8647              	.LVL719:
 8648              	.L344:
 8649              	.LBE5565:
 8650              	.LBE5575:
 8651              	.LBE5866:
 8652              	.LBB5867:
 8653              	.LBB5829:
 8654              	.LBB5822:
  33:C:/Renesas/e2studio_2021_01_workspace_RZA2M_ANPR/ANPR_RZA2M_RDK/src/tensorflow_lite/src/tensorflow/lite/kernels/internal/reference\tanh.h ****     float val = input_data[i];
 8655              		.loc 10 33 0
 8656 1174 0070A0E3 		mov	r7, #0
 8657 1178 0AFFFFEA 		b	.L194
 8658              	.LVL720:
 8659              	.L404:
 8660 117c D8FFFFEA 		b	.L325
 8661              	.LVL721:
 8662              	.L183:
 8663              	.LEHB19:
 8664              	.LBE5822:
 8665              	.LBB5823:
 8666              	.LBB5792:
 521:C:/Renesas/e2studio_2021_01_workspace_RZA2M_ANPR/ANPR_RZA2M_RDK/src/tensorflow_lite/src/tensorflow/lite/kernels/internal\types.h ****   const int dims_count = shape.DimensionsCount();
 8667              		.loc 7 521 0
 8668 1180 FEFFFFEB 		bl	abort
 8669              	.LVL722:
 8670              	.LEHE19:
 8671              	.L564:
 8672              	.LEHB20:
 8673              	.LBE5792:
 8674              	.LBE5823:
 8675              	.LBE5829:
 8676              	.LBE5867:
 8677              	.LBB5868:
 8678              	.LBB5576:
 8679              	.LBB5566:
  56:C:/Renesas/e2studio_2021_01_workspace_RZA2M_ANPR/ANPR_RZA2M_RDK/src/tensorflow_lite/src/tensorflow/lite/kernels/internal/reference\tanh.h **** 
 8680              		.loc 10 56 0
 8681 1184 FEFFFFEB 		bl	abort
 8682              	.LVL723:
 8683              	.LEHE20:
 8684              	.L278:
 8685              	.LEHB21:
 8686              	.LBE5566:
 8687              	.LBE5576:
 8688              	.LBE5868:
 8689              	.LBB5869:
 8690              	.LBB5334:
 8691              	.LBB5325:
 8692              	.LBB5178:
 521:C:/Renesas/e2studio_2021_01_workspace_RZA2M_ANPR/ANPR_RZA2M_RDK/src/tensorflow_lite/src/tensorflow/lite/kernels/internal\types.h ****   const int dims_count = shape.DimensionsCount();
 8693              		.loc 7 521 0
 8694 1188 FEFFFFEB 		bl	abort
 8695              	.LVL724:
 8696              	.LEHE21:
 8697              	.L249:
 8698              	.LEHB22:
 8699              	.LBE5178:
 8700              	.LBE5325:
 8701              	.LBE5334:
 8702              	.LBE5869:
 8703              	.LBB5870:
 8704              	.LBB5733:
 8705              	.LBB5728:
 8706              	.LBB5723:
 8707              	.LBB5635:
 8708 118c FEFFFFEB 		bl	abort
 8709              	.LVL725:
 8710              	.LEHE22:
 8711              	.L410:
 8712 1190 D3FFFFEA 		b	.L325
 8713              	.LBE5635:
 8714              	.LBE5723:
 8715              	.LBE5728:
 8716              	.LBE5733:
 8717              	.LBE5870:
 8718              	.LBE5873:
 8719              	.LBE5877:
 8720              		.cfi_endproc
 8721              	.LFE4183:
 8722              		.global	__gxx_personality_v0
 8723              		.personality	__gxx_personality_v0
 8724              		.handlerdata
 8725              	.LLSDA4183:
 8726 0008 FF       		.byte	0xff
 8727 0009 FF       		.byte	0xff
 8728 000a 01       		.byte	0x1
 8729 000b 8301     		.uleb128 .LLSDACSE4183-.LLSDACSB4183
 8730              	.LLSDACSB4183:
 8731 000d 28       		.uleb128 .LEHB0-.LFB4183
 8732 000e 8001     		.uleb128 .LEHE0-.LEHB0
 8733 0010 00       		.uleb128 0
 8734 0011 00       		.uleb128 0
 8735 0012 B401     		.uleb128 .LEHB1-.LFB4183
 8736 0014 04       		.uleb128 .LEHE1-.LEHB1
 8737 0015 9023     		.uleb128 .L410-.LFB4183
 8738 0017 00       		.uleb128 0
 8739 0018 B808     		.uleb128 .LEHB2-.LFB4183
 8740 001a 04       		.uleb128 .LEHE2-.LEHB2
 8741 001b 00       		.uleb128 0
 8742 001c 00       		.uleb128 0
 8743 001d C808     		.uleb128 .LEHB3-.LFB4183
 8744 001f 04       		.uleb128 .LEHE3-.LEHB3
 8745 0020 B422     		.uleb128 .L406-.LFB4183
 8746 0022 00       		.uleb128 0
 8747 0023 A40F     		.uleb128 .LEHB4-.LFB4183
 8748 0025 04       		.uleb128 .LEHE4-.LEHB4
 8749 0026 00       		.uleb128 0
 8750 0027 00       		.uleb128 0
 8751 0028 B40F     		.uleb128 .LEHB5-.LFB4183
 8752 002a 04       		.uleb128 .LEHE5-.LEHB5
 8753 002b D822     		.uleb128 .L408-.LFB4183
 8754 002d 00       		.uleb128 0
 8755 002e F415     		.uleb128 .LEHB6-.LFB4183
 8756 0030 04       		.uleb128 .LEHE6-.LEHB6
 8757 0031 00       		.uleb128 0
 8758 0032 00       		.uleb128 0
 8759 0033 8416     		.uleb128 .LEHB7-.LFB4183
 8760 0035 04       		.uleb128 .LEHE7-.LEHB7
 8761 0036 FC22     		.uleb128 .L404-.LFB4183
 8762 0038 00       		.uleb128 0
 8763 0039 901C     		.uleb128 .LEHB8-.LFB4183
 8764 003b 28       		.uleb128 .LEHE8-.LEHB8
 8765 003c 00       		.uleb128 0
 8766 003d 00       		.uleb128 0
 8767 003e 8C1F     		.uleb128 .LEHB9-.LFB4183
 8768 0040 04       		.uleb128 .LEHE9-.LEHB9
 8769 0041 C821     		.uleb128 .L405-.LFB4183
 8770 0043 00       		.uleb128 0
 8771 0044 8022     		.uleb128 .LEHB10-.LFB4183
 8772 0046 04       		.uleb128 .LEHE10-.LEHB10
 8773 0047 00       		.uleb128 0
 8774 0048 00       		.uleb128 0
 8775 0049 8422     		.uleb128 .LEHB11-.LFB4183
 8776 004b 0C       		.uleb128 .LEHE11-.LEHB11
 8777 004c 8822     		.uleb128 .L411-.LFB4183
 8778 004e 00       		.uleb128 0
 8779 004f 9022     		.uleb128 .LEHB12-.LFB4183
 8780 0051 0C       		.uleb128 .LEHE12-.LEHB12
 8781 0052 9422     		.uleb128 .L407-.LFB4183
 8782 0054 00       		.uleb128 0
 8783 0055 9C22     		.uleb128 .LEHB13-.LFB4183
 8784 0057 0C       		.uleb128 .LEHE13-.LEHB13
 8785 0058 A022     		.uleb128 .L409-.LFB4183
 8786 005a 00       		.uleb128 0
 8787 005b A822     		.uleb128 .LEHB14-.LFB4183
 8788 005d 04       		.uleb128 .LEHE14-.LEHB14
 8789 005e C821     		.uleb128 .L405-.LFB4183
 8790 0060 00       		.uleb128 0
 8791 0061 AC22     		.uleb128 .LEHB15-.LFB4183
 8792 0063 04       		.uleb128 .LEHE15-.LEHB15
 8793 0064 00       		.uleb128 0
 8794 0065 00       		.uleb128 0
 8795 0066 B022     		.uleb128 .LEHB16-.LFB4183
 8796 0068 04       		.uleb128 .LEHE16-.LEHB16
 8797 0069 9422     		.uleb128 .L407-.LFB4183
 8798 006b 00       		.uleb128 0
 8799 006c D422     		.uleb128 .LEHB17-.LFB4183
 8800 006e 04       		.uleb128 .LEHE17-.LEHB17
 8801 006f 8822     		.uleb128 .L411-.LFB4183
 8802 0071 00       		.uleb128 0
 8803 0072 DC22     		.uleb128 .LEHB18-.LFB4183
 8804 0074 04       		.uleb128 .LEHE18-.LEHB18
 8805 0075 9422     		.uleb128 .L407-.LFB4183
 8806 0077 00       		.uleb128 0
 8807 0078 8023     		.uleb128 .LEHB19-.LFB4183
 8808 007a 04       		.uleb128 .LEHE19-.LEHB19
 8809 007b C821     		.uleb128 .L405-.LFB4183
 8810 007d 00       		.uleb128 0
 8811 007e 8423     		.uleb128 .LEHB20-.LFB4183
 8812 0080 04       		.uleb128 .LEHE20-.LEHB20
 8813 0081 9422     		.uleb128 .L407-.LFB4183
 8814 0083 00       		.uleb128 0
 8815 0084 8823     		.uleb128 .LEHB21-.LFB4183
 8816 0086 04       		.uleb128 .LEHE21-.LEHB21
 8817 0087 8822     		.uleb128 .L411-.LFB4183
 8818 0089 00       		.uleb128 0
 8819 008a 8C23     		.uleb128 .LEHB22-.LFB4183
 8820 008c 04       		.uleb128 .LEHE22-.LEHB22
 8821 008d A022     		.uleb128 .L409-.LFB4183
 8822 008f 00       		.uleb128 0
 8823              	.LLSDACSE4183:
 8824              		.section	.text._ZN6tflite3ops5micro11activations8TanhEvalEP13TfLiteContextP10TfLiteNode
 8825              		.fnend
 8827              		.section	.rodata
 8828              		.align	2
 8829              		.set	.LANCHOR0,. + 0
 8830              	.LC0:
 8831 0000 00000000 		.word	_ZN6tflite3ops5micro11activations12_GLOBAL__N_18TanhInitEP13TfLiteContextPKcj
 8832 0004 00000000 		.word	0
 8833 0008 00000000 		.word	_ZN6tflite3ops5micro11activations12_GLOBAL__N_111TanhPrepareEP13TfLiteContextP10TfLiteNode
 8834 000c 00000000 		.word	_ZN6tflite3ops5micro11activations8TanhEvalEP13TfLiteContextP10TfLiteNode
 8835 0010 00000000 		.word	0
 8836 0014 00000000 		.word	0
 8837 0018 00000000 		.word	0
 8838 001c 00000000 		.word	0
 8839              		.section	.rodata._ZN6tflite3ops5micro11activations12_GLOBAL__N_111TanhPrepareEP13TfLiteContextP10T
 8840              		.align	2
 8841              	.LC1:
 8842 0000 2E2E2F73 		.ascii	"../src/tensorflow_lite/src/tensorflow/lite/micro/ke"
 8842      72632F74 
 8842      656E736F 
 8842      72666C6F 
 8842      775F6C69 
 8843 0033 726E656C 		.ascii	"rnels/tanh.cpp\000"
 8843      732F7461 
 8843      6E682E63 
 8843      707000
 8844 0042 0000     		.space	2
 8845              	.LC2:
 8846 0044 25733A25 		.ascii	"%s:%d %s was not true.\000"
 8846      64202573 
 8846      20776173 
 8846      206E6F74 
 8846      20747275 
 8847 005b 00       		.space	1
 8848              	.LC3:
 8849 005c 696E7075 		.ascii	"input != nullptr\000"
 8849      7420213D 
 8849      206E756C 
 8849      6C707472 
 8849      00
 8850 006d 000000   		.space	3
 8851              	.LC4:
 8852 0070 25733A25 		.ascii	"%s:%d %s != %s (%d != %d)\000"
 8852      64202573 
 8852      20213D20 
 8852      25732028 
 8852      25642021 
 8853 008a 0000     		.space	2
 8854              	.LC5:
 8855 008c 3100     		.ascii	"1\000"
 8856 008e 0000     		.space	2
 8857              	.LC6:
 8858 0090 4E756D49 		.ascii	"NumInputs(node)\000"
 8858      6E707574 
 8858      73286E6F 
 8858      64652900 
 8859              	.LC7:
 8860 00a0 4E756D4F 		.ascii	"NumOutputs(node)\000"
 8860      75747075 
 8860      7473286E 
 8860      6F646529 
 8860      00
 8861 00b1 000000   		.space	3
 8862              	.LC8:
 8863 00b4 6F757470 		.ascii	"output != nullptr\000"
 8863      75742021 
 8863      3D206E75 
 8863      6C6C7074 
 8863      7200
 8864 00c6 0000     		.space	2
 8865              	.LC9:
 8866 00c8 25733A25 		.ascii	"%s:%d %s != %s (%s != %s)\000"
 8866      64202573 
 8866      20213D20 
 8866      25732028 
 8866      25732021 
 8867 00e2 0000     		.space	2
 8868              	.LC10:
 8869 00e4 6F757470 		.ascii	"output->type\000"
 8869      75742D3E 
 8869      74797065 
 8869      00
 8870 00f1 000000   		.space	3
 8871              	.LC11:
 8872 00f4 696E7075 		.ascii	"input->type\000"
 8872      742D3E74 
 8872      79706500 
 8873              		.section	.rodata._ZN6tflite3ops5micro11activations8TanhEvalEP13TfLiteContextP10TfLiteNode.str1.4,"
 8874              		.align	2
 8875              	.LC12:
 8876 0000 6578706F 		.ascii	"exponent <= 31\000"
 8876      6E656E74 
 8876      203C3D20 
 8876      333100
 8877 000f 00       		.space	1
 8878              	.LC13:
 8879 0010 433A2F52 		.ascii	"C:/Renesas/e2studio_2021_01_workspace_RZA2M_ANPR/AN"
 8879      656E6573 
 8879      61732F65 
 8879      32737475 
 8879      64696F5F 
 8880 0043 50525F52 		.ascii	"PR_RZA2M_RDK/src/tensorflow_lite/src/third_party/ge"
 8880      5A41324D 
 8880      5F52444B 
 8880      2F737263 
 8880      2F74656E 
 8881 0076 6D6D6C6F 		.ascii	"mmlowp/fixedpoint/fixedpoint.h\000"
 8881      77702F66 
 8881      69786564 
 8881      706F696E 
 8881      742F6669 
 8882 0095 000000   		.space	3
 8883              	.LC14:
 8884 0098 496E7075 		.ascii	"Input %s, output %s not supported.\000"
 8884      74202573 
 8884      2C206F75 
 8884      74707574 
 8884      20257320 
 8885              		.section	.rodata._ZZN8gemmlowp19RoundingDivideByPOTIlEET_S1_iE19__PRETTY_FUNCTION__,"a",%progbits
 8886              		.align	3
 8887              		.set	.LANCHOR1,. + 0
 8890              	_ZZN8gemmlowp19RoundingDivideByPOTIlEET_S1_iE19__PRETTY_FUNCTION__:
 8891 0000 496E7465 		.ascii	"IntegerType gemmlowp::RoundingDivideByPOT(IntegerTy"
 8891      67657254 
 8891      79706520 
 8891      67656D6D 
 8891      6C6F7770 
 8892 0033 70652C20 		.ascii	"pe, int) [with IntegerType = long int]\000"
 8892      696E7429 
 8892      205B7769 
 8892      74682049 
 8892      6E746567 
 8893              		.text
 8894              	.Letext0:
 8895              		.file 12 "c:\\program files (x86)\\gnu tools arm embedded\\6 2017-q2-update\\arm-none-eabi\\includ
 8896              		.file 13 "c:\\program files (x86)\\gnu tools arm embedded\\6 2017-q2-update\\arm-none-eabi\\includ
 8897              		.file 14 "c:\\program files (x86)\\gnu tools arm embedded\\6 2017-q2-update\\arm-none-eabi\\includ
 8898              		.file 15 "c:\\program files (x86)\\gnu tools arm embedded\\6 2017-q2-update\\arm-none-eabi\\includ
 8899              		.file 16 "c:\\program files (x86)\\gnu tools arm embedded\\6 2017-q2-update\\arm-none-eabi\\includ
 8900              		.file 17 "c:\\program files (x86)\\gnu tools arm embedded\\6 2017-q2-update\\arm-none-eabi\\includ
 8901              		.file 18 "c:\\program files (x86)\\gnu tools arm embedded\\6 2017-q2-update\\arm-none-eabi\\includ
 8902              		.file 19 "c:\\program files (x86)\\gnu tools arm embedded\\6 2017-q2-update\\arm-none-eabi\\includ
 8903              		.file 20 "c:\\program files (x86)\\gnu tools arm embedded\\6 2017-q2-update\\arm-none-eabi\\includ
 8904              		.file 21 "c:\\program files (x86)\\gnu tools arm embedded\\6 2017-q2-update\\arm-none-eabi\\includ
 8905              		.file 22 "c:\\program files (x86)\\gnu tools arm embedded\\6 2017-q2-update\\arm-none-eabi\\includ
 8906              		.file 23 "c:\\program files (x86)\\gnu tools arm embedded\\6 2017-q2-update\\arm-none-eabi\\includ
 8907              		.file 24 "c:\\program files (x86)\\gnu tools arm embedded\\6 2017-q2-update\\arm-none-eabi\\includ
 8908              		.file 25 "c:\\program files (x86)\\gnu tools arm embedded\\6 2017-q2-update\\arm-none-eabi\\includ
 8909              		.file 26 "c:\\program files (x86)\\gnu tools arm embedded\\6 2017-q2-update\\arm-none-eabi\\includ
 8910              		.file 27 "c:\\program files (x86)\\gnu tools arm embedded\\6 2017-q2-update\\arm-none-eabi\\includ
 8911              		.file 28 "c:\\program files (x86)\\gnu tools arm embedded\\6 2017-q2-update\\arm-none-eabi\\includ
 8912              		.file 29 "c:\\program files (x86)\\gnu tools arm embedded\\6 2017-q2-update\\arm-none-eabi\\includ
 8913              		.file 30 "c:\\program files (x86)\\gnu tools arm embedded\\6 2017-q2-update\\arm-none-eabi\\includ
 8914              		.file 31 "c:\\program files (x86)\\gnu tools arm embedded\\6 2017-q2-update\\arm-none-eabi\\includ
 8915              		.file 32 "c:\\program files (x86)\\gnu tools arm embedded\\6 2017-q2-update\\arm-none-eabi\\includ
 8916              		.file 33 "c:\\program files (x86)\\gnu tools arm embedded\\6 2017-q2-update\\lib\\gcc\\arm-none-ea
 8917              		.file 34 "c:\\program files (x86)\\gnu tools arm embedded\\6 2017-q2-update\\arm-none-eabi\\includ
 8918              		.file 35 "c:\\program files (x86)\\gnu tools arm embedded\\6 2017-q2-update\\arm-none-eabi\\includ
 8919              		.file 36 "c:\\program files (x86)\\gnu tools arm embedded\\6 2017-q2-update\\arm-none-eabi\\includ
 8920              		.file 37 "c:\\program files (x86)\\gnu tools arm embedded\\6 2017-q2-update\\arm-none-eabi\\includ
 8921              		.file 38 "c:\\program files (x86)\\gnu tools arm embedded\\6 2017-q2-update\\arm-none-eabi\\includ
 8922              		.file 39 "c:\\program files (x86)\\gnu tools arm embedded\\6 2017-q2-update\\arm-none-eabi\\includ
 8923              		.file 40 "c:\\program files (x86)\\gnu tools arm embedded\\6 2017-q2-update\\arm-none-eabi\\includ
 8924              		.file 41 "c:\\program files (x86)\\gnu tools arm embedded\\6 2017-q2-update\\arm-none-eabi\\includ
 8925              		.file 42 "c:\\program files (x86)\\gnu tools arm embedded\\6 2017-q2-update\\lib\\gcc\\arm-none-ea
 8926              		.file 43 "<built-in>"
 8927              		.file 44 "c:\\program files (x86)\\gnu tools arm embedded\\6 2017-q2-update\\arm-none-eabi\\includ
 8928              		.file 45 "c:\\program files (x86)\\gnu tools arm embedded\\6 2017-q2-update\\arm-none-eabi\\includ
 8929              		.file 46 "c:\\program files (x86)\\gnu tools arm embedded\\6 2017-q2-update\\arm-none-eabi\\includ
 8930              		.file 47 "c:\\program files (x86)\\gnu tools arm embedded\\6 2017-q2-update\\arm-none-eabi\\includ
 8931              		.file 48 "c:\\program files (x86)\\gnu tools arm embedded\\6 2017-q2-update\\arm-none-eabi\\includ
 8932              		.file 49 "c:\\program files (x86)\\gnu tools arm embedded\\6 2017-q2-update\\arm-none-eabi\\includ
 8933              		.file 50 "C:/Renesas/e2studio_2021_01_workspace_RZA2M_ANPR/ANPR_RZA2M_RDK/src/tensorflow_lite/src/
 8934              		.file 51 "C:/Renesas/e2studio_2021_01_workspace_RZA2M_ANPR/ANPR_RZA2M_RDK/src/tensorflow_lite/src/
 8935              		.file 52 "C:/Renesas/e2studio_2021_01_workspace_RZA2M_ANPR/ANPR_RZA2M_RDK/src/tensorflow_lite/src/
 8936              		.file 53 "c:\\program files (x86)\\gnu tools arm embedded\\6 2017-q2-update\\arm-none-eabi\\includ
DEFINED SYMBOLS
                            *ABS*:00000000 tanh.cpp
C:\Users\a5050395\AppData\Local\Temp\cckt7TYf.s:17     .text._ZN6tflite3ops5micro11activations12_GLOBAL__N_18TanhInitEP13TfLiteContextPKcj:00000000 $a
C:\Users\a5050395\AppData\Local\Temp\cckt7TYf.s:22     .text._ZN6tflite3ops5micro11activations12_GLOBAL__N_18TanhInitEP13TfLiteContextPKcj:00000000 _ZN6tflite3ops5micro11activations12_GLOBAL__N_18TanhInitEP13TfLiteContextPKcj
.ARM.exidx.text._ZN6tflite3ops5micro11activations12_GLOBAL__N_18TanhInitEP13TfLiteContextPKcj:00000000 $d
C:\Users\a5050395\AppData\Local\Temp\cckt7TYf.s:55     .text._ZN6tflite3ops5micro11activations12_GLOBAL__N_111TanhPrepareEP13TfLiteContextP10TfLiteNode:00000000 $a
C:\Users\a5050395\AppData\Local\Temp\cckt7TYf.s:60     .text._ZN6tflite3ops5micro11activations12_GLOBAL__N_111TanhPrepareEP13TfLiteContextP10TfLiteNode:00000000 _ZN6tflite3ops5micro11activations12_GLOBAL__N_111TanhPrepareEP13TfLiteContextP10TfLiteNode
C:\Users\a5050395\AppData\Local\Temp\cckt7TYf.s:8854   .rodata._ZN6tflite3ops5micro11activations12_GLOBAL__N_111TanhPrepareEP13TfLiteContextP10TfLiteNode.str1.4:0000008c .LC5
C:\Users\a5050395\AppData\Local\Temp\cckt7TYf.s:8859   .rodata._ZN6tflite3ops5micro11activations12_GLOBAL__N_111TanhPrepareEP13TfLiteContextP10TfLiteNode.str1.4:000000a0 .LC7
C:\Users\a5050395\AppData\Local\Temp\cckt7TYf.s:8841   .rodata._ZN6tflite3ops5micro11activations12_GLOBAL__N_111TanhPrepareEP13TfLiteContextP10TfLiteNode.str1.4:00000000 .LC1
C:\Users\a5050395\AppData\Local\Temp\cckt7TYf.s:8851   .rodata._ZN6tflite3ops5micro11activations12_GLOBAL__N_111TanhPrepareEP13TfLiteContextP10TfLiteNode.str1.4:00000070 .LC4
C:\Users\a5050395\AppData\Local\Temp\cckt7TYf.s:8857   .rodata._ZN6tflite3ops5micro11activations12_GLOBAL__N_111TanhPrepareEP13TfLiteContextP10TfLiteNode.str1.4:00000090 .LC6
C:\Users\a5050395\AppData\Local\Temp\cckt7TYf.s:8848   .rodata._ZN6tflite3ops5micro11activations12_GLOBAL__N_111TanhPrepareEP13TfLiteContextP10TfLiteNode.str1.4:0000005c .LC3
C:\Users\a5050395\AppData\Local\Temp\cckt7TYf.s:8845   .rodata._ZN6tflite3ops5micro11activations12_GLOBAL__N_111TanhPrepareEP13TfLiteContextP10TfLiteNode.str1.4:00000044 .LC2
C:\Users\a5050395\AppData\Local\Temp\cckt7TYf.s:8868   .rodata._ZN6tflite3ops5micro11activations12_GLOBAL__N_111TanhPrepareEP13TfLiteContextP10TfLiteNode.str1.4:000000e4 .LC10
C:\Users\a5050395\AppData\Local\Temp\cckt7TYf.s:8871   .rodata._ZN6tflite3ops5micro11activations12_GLOBAL__N_111TanhPrepareEP13TfLiteContextP10TfLiteNode.str1.4:000000f4 .LC11
C:\Users\a5050395\AppData\Local\Temp\cckt7TYf.s:8865   .rodata._ZN6tflite3ops5micro11activations12_GLOBAL__N_111TanhPrepareEP13TfLiteContextP10TfLiteNode.str1.4:000000c8 .LC9
C:\Users\a5050395\AppData\Local\Temp\cckt7TYf.s:8862   .rodata._ZN6tflite3ops5micro11activations12_GLOBAL__N_111TanhPrepareEP13TfLiteContextP10TfLiteNode.str1.4:000000b4 .LC8
C:\Users\a5050395\AppData\Local\Temp\cckt7TYf.s:396    .text._ZN6tflite3ops5micro11activations12_GLOBAL__N_111TanhPrepareEP13TfLiteContextP10TfLiteNode:00000280 $d
.ARM.exidx.text._ZN6tflite3ops5micro11activations12_GLOBAL__N_111TanhPrepareEP13TfLiteContextP10TfLiteNode:00000000 $d
C:\Users\a5050395\AppData\Local\Temp\cckt7TYf.s:405    .text._ZN6tflite3ops5micro13Register_TANHEv:00000000 $a
C:\Users\a5050395\AppData\Local\Temp\cckt7TYf.s:411    .text._ZN6tflite3ops5micro13Register_TANHEv:00000000 _ZN6tflite3ops5micro13Register_TANHEv
C:\Users\a5050395\AppData\Local\Temp\cckt7TYf.s:8829   .rodata:00000000 .LANCHOR0
.ARM.exidx.text._ZN6tflite3ops5micro13Register_TANHEv:00000000 $d
C:\Users\a5050395\AppData\Local\Temp\cckt7TYf.s:446    .text._ZN8gemmlowp40one_minus_x_over_one_plus_x_for_x_in_0_1IlEENS_10FixedPointIT_Li0EEES3_:00000000 $a
C:\Users\a5050395\AppData\Local\Temp\cckt7TYf.s:452    .text._ZN8gemmlowp40one_minus_x_over_one_plus_x_for_x_in_0_1IlEENS_10FixedPointIT_Li0EEES3_:00000000 _ZN8gemmlowp40one_minus_x_over_one_plus_x_for_x_in_0_1IlEENS_10FixedPointIT_Li0EEES3_
C:\Users\a5050395\AppData\Local\Temp\cckt7TYf.s:1353   .text._ZN8gemmlowp40one_minus_x_over_one_plus_x_for_x_in_0_1IlEENS_10FixedPointIT_Li0EEES3_:000004b8 $d
.ARM.exidx.text._ZN8gemmlowp40one_minus_x_over_one_plus_x_for_x_in_0_1IlEENS_10FixedPointIT_Li0EEES3_:00000000 $d
C:\Users\a5050395\AppData\Local\Temp\cckt7TYf.s:1364   .text._ZN8gemmlowp40one_minus_x_over_one_plus_x_for_x_in_0_1IsEENS_10FixedPointIT_Li0EEES3_:00000000 $a
C:\Users\a5050395\AppData\Local\Temp\cckt7TYf.s:1370   .text._ZN8gemmlowp40one_minus_x_over_one_plus_x_for_x_in_0_1IsEENS_10FixedPointIT_Li0EEES3_:00000000 _ZN8gemmlowp40one_minus_x_over_one_plus_x_for_x_in_0_1IsEENS_10FixedPointIT_Li0EEES3_
.ARM.exidx.text._ZN8gemmlowp40one_minus_x_over_one_plus_x_for_x_in_0_1IsEENS_10FixedPointIT_Li0EEES3_:00000000 $d
C:\Users\a5050395\AppData\Local\Temp\cckt7TYf.s:2287   .text._ZN8gemmlowp55exp_on_interval_between_negative_one_quarter_and_0_exclIlEENS_10FixedPointIT_Li0EEES3_:00000000 $a
C:\Users\a5050395\AppData\Local\Temp\cckt7TYf.s:2293   .text._ZN8gemmlowp55exp_on_interval_between_negative_one_quarter_and_0_exclIlEENS_10FixedPointIT_Li0EEES3_:00000000 _ZN8gemmlowp55exp_on_interval_between_negative_one_quarter_and_0_exclIlEENS_10FixedPointIT_Li0EEES3_
C:\Users\a5050395\AppData\Local\Temp\cckt7TYf.s:2682   .text._ZN8gemmlowp55exp_on_interval_between_negative_one_quarter_and_0_exclIlEENS_10FixedPointIT_Li0EEES3_:000001c0 $d
.ARM.exidx.text._ZN8gemmlowp55exp_on_interval_between_negative_one_quarter_and_0_exclIlEENS_10FixedPointIT_Li0EEES3_:00000000 $d
C:\Users\a5050395\AppData\Local\Temp\cckt7TYf.s:2694   .text._ZN8gemmlowp22exp_on_negative_valuesIlLi5EEENS_10FixedPointIT_Li0EEENS1_IS2_XT0_EEE:00000000 $a
C:\Users\a5050395\AppData\Local\Temp\cckt7TYf.s:2700   .text._ZN8gemmlowp22exp_on_negative_valuesIlLi5EEENS_10FixedPointIT_Li0EEENS1_IS2_XT0_EEE:00000000 _ZN8gemmlowp22exp_on_negative_valuesIlLi5EEENS_10FixedPointIT_Li0EEENS1_IS2_XT0_EEE
.ARM.exidx.text._ZN8gemmlowp22exp_on_negative_valuesIlLi5EEENS_10FixedPointIT_Li0EEENS1_IS2_XT0_EEE:00000000 $d
C:\Users\a5050395\AppData\Local\Temp\cckt7TYf.s:3813   .text._ZN8gemmlowp55exp_on_interval_between_negative_one_quarter_and_0_exclIsEENS_10FixedPointIT_Li0EEES3_:00000000 $a
C:\Users\a5050395\AppData\Local\Temp\cckt7TYf.s:3819   .text._ZN8gemmlowp55exp_on_interval_between_negative_one_quarter_and_0_exclIsEENS_10FixedPointIT_Li0EEES3_:00000000 _ZN8gemmlowp55exp_on_interval_between_negative_one_quarter_and_0_exclIsEENS_10FixedPointIT_Li0EEES3_
.ARM.exidx.text._ZN8gemmlowp55exp_on_interval_between_negative_one_quarter_and_0_exclIsEENS_10FixedPointIT_Li0EEES3_:00000000 $d
C:\Users\a5050395\AppData\Local\Temp\cckt7TYf.s:4200   .text._ZN8gemmlowp22exp_on_negative_valuesIsLi4EEENS_10FixedPointIT_Li0EEENS1_IS2_XT0_EEE:00000000 $a
C:\Users\a5050395\AppData\Local\Temp\cckt7TYf.s:4206   .text._ZN8gemmlowp22exp_on_negative_valuesIsLi4EEENS_10FixedPointIT_Li0EEENS1_IS2_XT0_EEE:00000000 _ZN8gemmlowp22exp_on_negative_valuesIsLi4EEENS_10FixedPointIT_Li0EEENS1_IS2_XT0_EEE
.ARM.exidx.text._ZN8gemmlowp22exp_on_negative_valuesIsLi4EEENS_10FixedPointIT_Li0EEENS1_IS2_XT0_EEE:00000000 $d
C:\Users\a5050395\AppData\Local\Temp\cckt7TYf.s:5016   .text._ZN6tflite3ops5micro11activations8TanhEvalEP13TfLiteContextP10TfLiteNode:00000000 $a
C:\Users\a5050395\AppData\Local\Temp\cckt7TYf.s:5022   .text._ZN6tflite3ops5micro11activations8TanhEvalEP13TfLiteContextP10TfLiteNode:00000000 _ZN6tflite3ops5micro11activations8TanhEvalEP13TfLiteContextP10TfLiteNode
C:\Users\a5050395\AppData\Local\Temp\cckt7TYf.s:5124   .text._ZN6tflite3ops5micro11activations8TanhEvalEP13TfLiteContextP10TfLiteNode:00000068 $d
C:\Users\a5050395\AppData\Local\Temp\cckt7TYf.s:5136   .text._ZN6tflite3ops5micro11activations8TanhEvalEP13TfLiteContextP10TfLiteNode:0000008c $a
C:\Users\a5050395\AppData\Local\Temp\cckt7TYf.s:6185   .text._ZN6tflite3ops5micro11activations8TanhEvalEP13TfLiteContextP10TfLiteNode:00000690 $d
C:\Users\a5050395\AppData\Local\Temp\cckt7TYf.s:6195   .text._ZN6tflite3ops5micro11activations8TanhEvalEP13TfLiteContextP10TfLiteNode:00000698 $a
C:\Users\a5050395\AppData\Local\Temp\cckt7TYf.s:8883   .rodata._ZN6tflite3ops5micro11activations8TanhEvalEP13TfLiteContextP10TfLiteNode.str1.4:00000098 .LC14
C:\Users\a5050395\AppData\Local\Temp\cckt7TYf.s:8875   .rodata._ZN6tflite3ops5micro11activations8TanhEvalEP13TfLiteContextP10TfLiteNode.str1.4:00000000 .LC12
C:\Users\a5050395\AppData\Local\Temp\cckt7TYf.s:8887   .rodata._ZZN8gemmlowp19RoundingDivideByPOTIlEET_S1_iE19__PRETTY_FUNCTION__:00000000 .LANCHOR1
C:\Users\a5050395\AppData\Local\Temp\cckt7TYf.s:8878   .rodata._ZN6tflite3ops5micro11activations8TanhEvalEP13TfLiteContextP10TfLiteNode.str1.4:00000010 .LC13
.ARM.extab.text._ZN6tflite3ops5micro11activations8TanhEvalEP13TfLiteContextP10TfLiteNode:00000000 $d
.ARM.exidx.text._ZN6tflite3ops5micro11activations8TanhEvalEP13TfLiteContextP10TfLiteNode:00000000 $d
C:\Users\a5050395\AppData\Local\Temp\cckt7TYf.s:8828   .rodata:00000000 $d
C:\Users\a5050395\AppData\Local\Temp\cckt7TYf.s:8840   .rodata._ZN6tflite3ops5micro11activations12_GLOBAL__N_111TanhPrepareEP13TfLiteContextP10TfLiteNode.str1.4:00000000 $d
C:\Users\a5050395\AppData\Local\Temp\cckt7TYf.s:8874   .rodata._ZN6tflite3ops5micro11activations8TanhEvalEP13TfLiteContextP10TfLiteNode.str1.4:00000000 $d
C:\Users\a5050395\AppData\Local\Temp\cckt7TYf.s:8886   .rodata._ZZN8gemmlowp19RoundingDivideByPOTIlEET_S1_iE19__PRETTY_FUNCTION__:00000000 $d
C:\Users\a5050395\AppData\Local\Temp\cckt7TYf.s:8890   .rodata._ZZN8gemmlowp19RoundingDivideByPOTIlEET_S1_iE19__PRETTY_FUNCTION__:00000000 _ZZN8gemmlowp19RoundingDivideByPOTIlEET_S1_iE19__PRETTY_FUNCTION__
                     .debug_frame:00000010 $d
                           .group:00000000 wm4.0.3e1481985cce1e923928453d8be0a65b
                           .group:00000000 wm4.cconfig.h.31.1472b8c7bd4952a63a52f3f4f718f872
                           .group:00000000 wm4.cpu_defines.h.31.54d44f9d3e7c42875c5a7fd49795eb93
                           .group:00000000 wm4.cconfig.h.515.5e729db314ae74226e291b4ae081e353
                           .group:00000000 wm4.limits.89.6a37aaf13947bdd77504340a7bdcc6d8
                           .group:00000000 wm4.concept_check.h.31.f19605d278e56917c68a56d378be308c
                           .group:00000000 wm4.type_traits.30.2c7323a483bcd7601e8b71d2546ae284
                           .group:00000000 wm4.move.h.152.41d7b9e6779674d169b7813982cfa003
                           .group:00000000 wm4.exception_defines.h.31.ca6841b9be3287386aafc5c717935b2e
                           .group:00000000 wm4.cpp_type_traits.h.33.9f2bfd8c4471a9a299f6da3ec24c745c
                           .group:00000000 wm4.numeric_traits.h.30.aa01a98564b7e55086aad9e53c7e5c53
                           .group:00000000 wm4.assertions.h.30.51d443923f0d242550e04246a7819b39
                           .group:00000000 wm4.stl_iterator.h.1250.45f349a262f1b0d836d8edbc4b7b98ff
                           .group:00000000 wm4.debug.h.30.5c1f223b12199e851d4d42805b788ccf
                           .group:00000000 wm4.stl_algobase.h.491.aa250b69c90aafa2a0a62b8c58cd5f30
                           .group:00000000 wm4.cstdlib.44.52c5efdfb0f3c176bd11e611a0b94959
                           .group:00000000 wm4._newlib_version.h.4.3572908597b70d672d181fc7fc501c19
                           .group:00000000 wm4.newlib.h.21.59901f4bf241ab46c63694665baa7297
                           .group:00000000 wm4.features.h.22.37852b648068a281464730a5a4cc748e
                           .group:00000000 wm4.config.h.219.65a553ab5bef5482f0d7880b0d33015e
                           .group:00000000 wm4._ansi.h.23.1ee1144430bedaab1a14c7b57a6c8384
                           .group:00000000 wm4.stdlib.h.13.4ed386f5c1a80d71e72172885d946ef2
                           .group:00000000 wm4.stddef.h.187.e3ca1cb00044c044f8b956a6107cebb6
                           .group:00000000 wm4.stddef.h.39.60c5e3eb202f4a8f413509aeb6ad39fb
                           .group:00000000 wm4._default_types.h.6.959254cf5f09734ea7516c89e8bb21bd
                           .group:00000000 wm4.lock.h.2.1461d1fff82dffe8bfddc23307f6484f
                           .group:00000000 wm4._types.h.125.5cf8a495f1f7ef36777ad868a1e32068
                           .group:00000000 wm4.stddef.h.161.7e98c9c86da0ed2d27af2ef92af7d013
                           .group:00000000 wm4._types.h.183.c226d164ceca1f2ecb9ae9360c54a098
                           .group:00000000 wm4.reent.h.17.23b059516345f8f5abfa01ddc379570f
                           .group:00000000 wm4.cdefs.h.47.9bc8274c84fddbf05edd550eb0bf48cd
                           .group:00000000 wm4.stdlib.h.56.b4ddaf162082f284ba35b4444af99a9a
                           .group:00000000 wm4.cstdlib.76.ae666499c8f9b0ace1b4b23fe143da2c
                           .group:00000000 wm4.atomic_lockfree_defines.h.31.d5c6334fb1e95c9462b052951f1411df
                           .group:00000000 wm4.assert.h.11.a5d97ca77559a42890313c4941c01fd9
                           .group:00000000 wm4.math.h.13.e7cbdea54f4da98ab8f7fad4d23502b2
                           .group:00000000 wm4.cmath.46.d6e5b776115d39075860ed881d18f087
                           .group:00000000 wm4.stdint.h.4.659be5aa44c4ab4eb7c7cc2b24d8ceee
                           .group:00000000 wm4._intsup.h.10.cce27fed8484c08a33f522034c30d2b5
                           .group:00000000 wm4._stdint.h.10.c24fa3af3bc1706662bb5593a907e841
                           .group:00000000 wm4.stdint.h.23.d53047a68f4a85177f80b422d52785ed
                           .group:00000000 wm4.detect_platform.h.19.a1891273c0cad215067ddb8219400136
                           .group:00000000 wm4.fixedpoint.h.567.8a6371d9452be19811601bace78b0abc
                           .group:00000000 wm4.wchar.h.2.f837619576d797e948eb58c44fac4678
                           .group:00000000 wm4.stddef.h.161.9f48187563b2a85291a91832aa425498
                           .group:00000000 wm4.stdarg.h.34.3a23a216c0c293b3d2ea2e89281481e6
                           .group:00000000 wm4.wchar.h.41.2307b469886c2ca55d92707971ac50ce
                           .group:00000000 wm4.cwchar.48.c4e882638bf84f6da89479dda6fe8e17
                           .group:00000000 wm4.allocator.h.52.0ceafb36dc1b82dbfa6b05003082e3f5
                           .group:00000000 wm4.locale.h.8.27d0fe4c0abbb6f8893a1fa7c1799fd9
                           .group:00000000 wm4.stddef.h.161.38688f2eb958a8ed58fdb61ffe554c94
                           .group:00000000 wm4.locale.h.16.524572cf3c2ed9856516685acdc598fe
                           .group:00000000 wm4.clocale.45.c36d2d5b631a875aa5273176b54fdf0f
                           .group:00000000 wm4.ctype.h.2.da310d2ad165ccf8b86542f76fdb938d
                           .group:00000000 wm4.cctype.45.0da5714876b0be7f2d816b53d9670403
                           .group:00000000 wm4.gthr.h.27.ceb1c66b926f052afcba57e8784df0d4
                           .group:00000000 wm4.gthrdefault.h.27.edc94d4398c0534988962be77dc3c2e1
                           .group:00000000 wm4.atomic_word.h.30.9e0ac69fd462d5e650933e05133b4afa
                           .group:00000000 wm4.stdio.h.27.3fc80220048df77954e38daec3bb9670
                           .group:00000000 wm4.types.h.40.e8c16e7ec36ba55f133d0616070e25fc
                           .group:00000000 wm4.types.h.114.fb65732f4f5f288a036a25898de2c91f
                           .group:00000000 wm4.stdio.h.2.4aa87247282eca6c8f36f9de33d8df1a
                           .group:00000000 wm4.stdio.h.81.c3e9cb15e5af2807c4650345134c1a8a
                           .group:00000000 wm4.cstdio.45.ba8d321feb18bfc8923454067605c368
                           .group:00000000 wm4.errno.h.2.ba016d646105af6cad23be83630b6a3f
                           .group:00000000 wm4.errno.h.9.1ecd7b1049497a0ab61da0f6cbd4b0c6
                           .group:00000000 wm4.functional_hash.h.31.bccc014fee6fc3f930045d809df6f486
                           .group:00000000 wm4.functional.549.0bc5b448cf999863d3841495cd6fe920
                           .group:00000000 wm4.cmath.44.b3bcbb5fe53ec6617dec8aa8eb7b03cc
                           .group:00000000 wm4.cppmath.h.27.51580d700716589df4b364298e2ef577
                           .group:00000000 wm4.neon_check.h.16.79a4dcb572cbeac06c4924f1f20cb68d
                           .group:00000000 wm4.string.h.8.c4b8571ce60dff2817f43fec8b86aecd
                           .group:00000000 wm4.cstring.45.6ab09de7fb97b576e744347688ddc8d7
                           .group:00000000 wm4.op_macros.h.42.7b718cb416a067e7bb07e7699647769b
                           .group:00000000 wm4.compatibility.h.23.702d6356326ea59aded8ef5c6c4626d5
                           .group:00000000 wm4.stdbool.h.29.01580e438512fc255c0619569742ffd3
                           .group:00000000 wm4.c_api_types.h.20.9b09175981ed746180e205cc0b4b2bfd
                           .group:00000000 wm4.common.h.77.124de099ec0ac4f95ebf1618a5f42cf6

UNDEFINED SYMBOLS
abort
__aeabi_unwind_cpp_pr0
_ZN6tflite8GetInputEPK13TfLiteContextPK10TfLiteNodei
_ZN6tflite9GetOutputEP13TfLiteContextPK10TfLiteNodei
frexp
round
_ZN6tflite20CalculateInputRadiusEiii
TfLiteTypeGetName
__gxx_personality_v0
_ZN6tflite5micro14GetTensorShapeEPK16TfLiteEvalTensor
tanhf
_ZdaPv
__cxa_end_cleanup
__assert_func
