   1              		.cpu cortex-a9
   2              		.eabi_attribute 28, 1
   3              		.eabi_attribute 20, 1
   4              		.eabi_attribute 21, 1
   5              		.eabi_attribute 23, 3
   6              		.eabi_attribute 24, 1
   7              		.eabi_attribute 25, 1
   8              		.eabi_attribute 26, 1
   9              		.eabi_attribute 30, 2
  10              		.eabi_attribute 34, 0
  11              		.eabi_attribute 18, 4
  12              		.file	"tanh.cpp"
  13              		.text
  14              	.Ltext0:
  15              		.cfi_sections	.debug_frame
  16              		.section	.text._ZN6tflite3ops5micro11activations12_GLOBAL__N_18TanhInitEP13TfLiteContextPKcj,"ax",
  17              		.align	2
  18              		.syntax unified
  19              		.arm
  20              		.fpu neon
  22              	_ZN6tflite3ops5micro11activations12_GLOBAL__N_18TanhInitEP13TfLiteContextPKcj:
  23              		.fnstart
  24              	.LFB4180:
  25              		.file 1 "../src/tensorflow_lite/src/tensorflow/lite/micro/kernels/tanh.cpp"
   1:../src/tensorflow_lite/src/tensorflow/lite/micro/kernels/tanh.cpp **** /* Copyright 2020 The TensorFlow Authors. All Rights Reserved.
   2:../src/tensorflow_lite/src/tensorflow/lite/micro/kernels/tanh.cpp **** 
   3:../src/tensorflow_lite/src/tensorflow/lite/micro/kernels/tanh.cpp **** Licensed under the Apache License, Version 2.0 (the "License");
   4:../src/tensorflow_lite/src/tensorflow/lite/micro/kernels/tanh.cpp **** you may not use this file except in compliance with the License.
   5:../src/tensorflow_lite/src/tensorflow/lite/micro/kernels/tanh.cpp **** You may obtain a copy of the License at
   6:../src/tensorflow_lite/src/tensorflow/lite/micro/kernels/tanh.cpp **** 
   7:../src/tensorflow_lite/src/tensorflow/lite/micro/kernels/tanh.cpp ****     http://www.apache.org/licenses/LICENSE-2.0
   8:../src/tensorflow_lite/src/tensorflow/lite/micro/kernels/tanh.cpp **** 
   9:../src/tensorflow_lite/src/tensorflow/lite/micro/kernels/tanh.cpp **** Unless required by applicable law or agreed to in writing, software
  10:../src/tensorflow_lite/src/tensorflow/lite/micro/kernels/tanh.cpp **** distributed under the License is distributed on an "AS IS" BASIS,
  11:../src/tensorflow_lite/src/tensorflow/lite/micro/kernels/tanh.cpp **** WITHOUT WARRANTIES OR CONDITIONS OF ANY KIND, either express or implied.
  12:../src/tensorflow_lite/src/tensorflow/lite/micro/kernels/tanh.cpp **** See the License for the specific language governing permissions and
  13:../src/tensorflow_lite/src/tensorflow/lite/micro/kernels/tanh.cpp **** limitations under the License.
  14:../src/tensorflow_lite/src/tensorflow/lite/micro/kernels/tanh.cpp **** ==============================================================================*/
  15:../src/tensorflow_lite/src/tensorflow/lite/micro/kernels/tanh.cpp **** 
  16:../src/tensorflow_lite/src/tensorflow/lite/micro/kernels/tanh.cpp **** #include "tensorflow/lite/kernels/internal/reference/integer_ops/tanh.h"
  17:../src/tensorflow_lite/src/tensorflow/lite/micro/kernels/tanh.cpp **** 
  18:../src/tensorflow_lite/src/tensorflow/lite/micro/kernels/tanh.cpp **** #include "tensorflow/lite/c/builtin_op_data.h"
  19:../src/tensorflow_lite/src/tensorflow/lite/micro/kernels/tanh.cpp **** #include "tensorflow/lite/c/common.h"
  20:../src/tensorflow_lite/src/tensorflow/lite/micro/kernels/tanh.cpp **** #include "tensorflow/lite/kernels/internal/common.h"
  21:../src/tensorflow_lite/src/tensorflow/lite/micro/kernels/tanh.cpp **** #include "tensorflow/lite/kernels/internal/quantization_util.h"
  22:../src/tensorflow_lite/src/tensorflow/lite/micro/kernels/tanh.cpp **** #include "tensorflow/lite/kernels/internal/reference/tanh.h"
  23:../src/tensorflow_lite/src/tensorflow/lite/micro/kernels/tanh.cpp **** #include "tensorflow/lite/kernels/internal/tensor_ctypes.h"
  24:../src/tensorflow_lite/src/tensorflow/lite/micro/kernels/tanh.cpp **** #include "tensorflow/lite/kernels/kernel_util.h"
  25:../src/tensorflow_lite/src/tensorflow/lite/micro/kernels/tanh.cpp **** #include "tensorflow/lite/kernels/op_macros.h"
  26:../src/tensorflow_lite/src/tensorflow/lite/micro/kernels/tanh.cpp **** #include "tensorflow/lite/micro/kernels/kernel_util.h"
  27:../src/tensorflow_lite/src/tensorflow/lite/micro/kernels/tanh.cpp **** #include "tensorflow/lite/micro/micro_utils.h"
  28:../src/tensorflow_lite/src/tensorflow/lite/micro/kernels/tanh.cpp **** 
  29:../src/tensorflow_lite/src/tensorflow/lite/micro/kernels/tanh.cpp **** namespace tflite {
  30:../src/tensorflow_lite/src/tensorflow/lite/micro/kernels/tanh.cpp **** namespace ops {
  31:../src/tensorflow_lite/src/tensorflow/lite/micro/kernels/tanh.cpp **** namespace micro {
  32:../src/tensorflow_lite/src/tensorflow/lite/micro/kernels/tanh.cpp **** namespace activations {
  33:../src/tensorflow_lite/src/tensorflow/lite/micro/kernels/tanh.cpp **** namespace {
  34:../src/tensorflow_lite/src/tensorflow/lite/micro/kernels/tanh.cpp **** constexpr int kInputTensor = 0;
  35:../src/tensorflow_lite/src/tensorflow/lite/micro/kernels/tanh.cpp **** constexpr int kOutputTensor = 0;
  36:../src/tensorflow_lite/src/tensorflow/lite/micro/kernels/tanh.cpp **** 
  37:../src/tensorflow_lite/src/tensorflow/lite/micro/kernels/tanh.cpp **** struct OpData {
  38:../src/tensorflow_lite/src/tensorflow/lite/micro/kernels/tanh.cpp ****   int32_t input_zero_point;
  39:../src/tensorflow_lite/src/tensorflow/lite/micro/kernels/tanh.cpp ****   int32_t input_range_radius;
  40:../src/tensorflow_lite/src/tensorflow/lite/micro/kernels/tanh.cpp ****   int32_t input_multiplier;
  41:../src/tensorflow_lite/src/tensorflow/lite/micro/kernels/tanh.cpp ****   int input_left_shift;
  42:../src/tensorflow_lite/src/tensorflow/lite/micro/kernels/tanh.cpp **** };
  43:../src/tensorflow_lite/src/tensorflow/lite/micro/kernels/tanh.cpp **** 
  44:../src/tensorflow_lite/src/tensorflow/lite/micro/kernels/tanh.cpp **** void* TanhInit(TfLiteContext* context, const char* buffer, size_t length) {
  26              		.loc 1 44 0
  27              		.cfi_startproc
  28              		@ args = 0, pretend = 0, frame = 0
  29              		@ frame_needed = 0, uses_anonymous_args = 0
  30              	.LVL0:
  45:../src/tensorflow_lite/src/tensorflow/lite/micro/kernels/tanh.cpp ****   TFLITE_DCHECK(context->AllocatePersistentBuffer != nullptr);
  31              		.loc 1 45 0
  32 0000 383090E5 		ldr	r3, [r0, #56]
  33 0004 000053E3 		cmp	r3, #0
  34 0008 0100000A 		beq	.L7
  46:../src/tensorflow_lite/src/tensorflow/lite/micro/kernels/tanh.cpp ****   return context->AllocatePersistentBuffer(context, sizeof(OpData));
  35              		.loc 1 46 0
  36 000c 1010A0E3 		mov	r1, #16
  37              	.LVL1:
  38 0010 13FF2FE1 		bx	r3
  39              	.LVL2:
  40              	.L7:
  44:../src/tensorflow_lite/src/tensorflow/lite/micro/kernels/tanh.cpp ****   TFLITE_DCHECK(context->AllocatePersistentBuffer != nullptr);
  41              		.loc 1 44 0 discriminator 1
  42 0014 10402DE9 		push	{r4, lr}
  43              		.save {r4, lr}
  44              		.cfi_def_cfa_offset 8
  45              		.cfi_offset 4, -8
  46              		.cfi_offset 14, -4
  45:../src/tensorflow_lite/src/tensorflow/lite/micro/kernels/tanh.cpp ****   TFLITE_DCHECK(context->AllocatePersistentBuffer != nullptr);
  47              		.loc 1 45 0 discriminator 1
  48 0018 FEFFFFEB 		bl	abort
  49              	.LVL3:
  50              		.cfi_endproc
  51              	.LFE4180:
  52              		.fnend
  54              		.section	.text._ZN6tflite3ops5micro11activations12_GLOBAL__N_111TanhPrepareEP13TfLiteContextP10TfL
  55              		.align	2
  56              		.syntax unified
  57              		.arm
  58              		.fpu neon
  60              	_ZN6tflite3ops5micro11activations12_GLOBAL__N_111TanhPrepareEP13TfLiteContextP10TfLiteNode:
  61              		.fnstart
  62              	.LFB4182:
  47:../src/tensorflow_lite/src/tensorflow/lite/micro/kernels/tanh.cpp **** }
  48:../src/tensorflow_lite/src/tensorflow/lite/micro/kernels/tanh.cpp **** 
  49:../src/tensorflow_lite/src/tensorflow/lite/micro/kernels/tanh.cpp **** TfLiteStatus CalculateArithmeticOpData(TfLiteContext* context, TfLiteNode* node,
  50:../src/tensorflow_lite/src/tensorflow/lite/micro/kernels/tanh.cpp ****                                        OpData* data) {
  51:../src/tensorflow_lite/src/tensorflow/lite/micro/kernels/tanh.cpp ****   TF_LITE_ENSURE_EQ(context, NumInputs(node), 1);
  52:../src/tensorflow_lite/src/tensorflow/lite/micro/kernels/tanh.cpp ****   TF_LITE_ENSURE_EQ(context, NumOutputs(node), 1);
  53:../src/tensorflow_lite/src/tensorflow/lite/micro/kernels/tanh.cpp ****   const TfLiteTensor* input = GetInput(context, node, kInputTensor);
  54:../src/tensorflow_lite/src/tensorflow/lite/micro/kernels/tanh.cpp ****   TF_LITE_ENSURE(context, input != nullptr);
  55:../src/tensorflow_lite/src/tensorflow/lite/micro/kernels/tanh.cpp ****   TfLiteTensor* output = GetOutput(context, node, kOutputTensor);
  56:../src/tensorflow_lite/src/tensorflow/lite/micro/kernels/tanh.cpp ****   TF_LITE_ENSURE(context, output != nullptr);
  57:../src/tensorflow_lite/src/tensorflow/lite/micro/kernels/tanh.cpp **** 
  58:../src/tensorflow_lite/src/tensorflow/lite/micro/kernels/tanh.cpp ****   TF_LITE_ENSURE_TYPES_EQ(context, input->type, output->type);
  59:../src/tensorflow_lite/src/tensorflow/lite/micro/kernels/tanh.cpp **** 
  60:../src/tensorflow_lite/src/tensorflow/lite/micro/kernels/tanh.cpp ****   if (input->type == kTfLiteUInt8 || input->type == kTfLiteInt8) {
  61:../src/tensorflow_lite/src/tensorflow/lite/micro/kernels/tanh.cpp ****     static constexpr int kInputIntegerBits = 4;
  62:../src/tensorflow_lite/src/tensorflow/lite/micro/kernels/tanh.cpp ****     const double input_real_multiplier =
  63:../src/tensorflow_lite/src/tensorflow/lite/micro/kernels/tanh.cpp ****         static_cast<double>(input->params.scale) *
  64:../src/tensorflow_lite/src/tensorflow/lite/micro/kernels/tanh.cpp ****         static_cast<double>(1 << (31 - kInputIntegerBits));
  65:../src/tensorflow_lite/src/tensorflow/lite/micro/kernels/tanh.cpp **** 
  66:../src/tensorflow_lite/src/tensorflow/lite/micro/kernels/tanh.cpp ****     const double q = std::frexp(input_real_multiplier, &data->input_left_shift);
  67:../src/tensorflow_lite/src/tensorflow/lite/micro/kernels/tanh.cpp ****     data->input_multiplier = static_cast<int32_t>(TfLiteRound(q * (1ll << 31)));
  68:../src/tensorflow_lite/src/tensorflow/lite/micro/kernels/tanh.cpp **** 
  69:../src/tensorflow_lite/src/tensorflow/lite/micro/kernels/tanh.cpp ****     data->input_range_radius =
  70:../src/tensorflow_lite/src/tensorflow/lite/micro/kernels/tanh.cpp ****         CalculateInputRadius(kInputIntegerBits, data->input_left_shift, 31);
  71:../src/tensorflow_lite/src/tensorflow/lite/micro/kernels/tanh.cpp ****   }
  72:../src/tensorflow_lite/src/tensorflow/lite/micro/kernels/tanh.cpp ****   return kTfLiteOk;
  73:../src/tensorflow_lite/src/tensorflow/lite/micro/kernels/tanh.cpp **** }
  74:../src/tensorflow_lite/src/tensorflow/lite/micro/kernels/tanh.cpp **** 
  75:../src/tensorflow_lite/src/tensorflow/lite/micro/kernels/tanh.cpp **** TfLiteStatus TanhPrepare(TfLiteContext* context, TfLiteNode* node) {
  63              		.loc 1 75 0
  64              		.cfi_startproc
  65              		@ args = 0, pretend = 0, frame = 0
  66              		@ frame_needed = 0, uses_anonymous_args = 0
  67              	.LVL4:
  68 0000 F0412DE9 		push	{r4, r5, r6, r7, r8, lr}
  69              		.save {r4, r5, r6, r7, r8, lr}
  70              		.cfi_def_cfa_offset 24
  71              		.cfi_offset 4, -24
  72              		.cfi_offset 5, -20
  73              		.cfi_offset 6, -16
  74              		.cfi_offset 7, -12
  75              		.cfi_offset 8, -8
  76              		.cfi_offset 14, -4
  77              		.pad #16
  78 0004 10D04DE2 		sub	sp, sp, #16
  79              		.cfi_def_cfa_offset 40
  76:../src/tensorflow_lite/src/tensorflow/lite/micro/kernels/tanh.cpp ****   TFLITE_DCHECK(node->user_data != nullptr);
  80              		.loc 1 76 0
  81 0008 107091E5 		ldr	r7, [r1, #16]
  82 000c 000057E3 		cmp	r7, #0
  83 0010 9900000A 		beq	.L19
  84              	.LVL5:
  77:../src/tensorflow_lite/src/tensorflow/lite/micro/kernels/tanh.cpp **** 
  78:../src/tensorflow_lite/src/tensorflow/lite/micro/kernels/tanh.cpp ****   OpData* data = static_cast<OpData*>(node->user_data);
  79:../src/tensorflow_lite/src/tensorflow/lite/micro/kernels/tanh.cpp **** 
  80:../src/tensorflow_lite/src/tensorflow/lite/micro/kernels/tanh.cpp ****   const TfLiteTensor* input = GetInput(context, node, kInputTensor);
  85              		.loc 1 80 0
  86 0014 0020A0E3 		mov	r2, #0
  87 0018 0150A0E1 		mov	r5, r1
  88 001c 0060A0E1 		mov	r6, r0
  89 0020 FEFFFFEB 		bl	_ZN6tflite8GetInputEPK13TfLiteContextPK10TfLiteNodei
  90              	.LVL6:
  81:../src/tensorflow_lite/src/tensorflow/lite/micro/kernels/tanh.cpp ****   TF_LITE_ENSURE(context, input != nullptr);
  91              		.loc 1 81 0
  92 0024 000050E3 		cmp	r0, #0
  93 0028 5800000A 		beq	.L20
  94              	.LBB2158:
  95              	.LBB2159:
  96              	.LBB2160:
  97              	.LBB2161:
  98              		.file 2 "C:/Renesas/e2studio_2021_01_workspace_RZA2M_ANPR/ANPR_RZA2M_RDK/src/tensorflow_lite/src/t
   1:C:/Renesas/e2studio_2021_01_workspace_RZA2M_ANPR/ANPR_RZA2M_RDK/src/tensorflow_lite/src/tensorflow/lite/kernels\kernel_util.h **** /* Copyright 2017 The TensorFlow Authors. All Rights Reserved.
   2:C:/Renesas/e2studio_2021_01_workspace_RZA2M_ANPR/ANPR_RZA2M_RDK/src/tensorflow_lite/src/tensorflow/lite/kernels\kernel_util.h **** 
   3:C:/Renesas/e2studio_2021_01_workspace_RZA2M_ANPR/ANPR_RZA2M_RDK/src/tensorflow_lite/src/tensorflow/lite/kernels\kernel_util.h **** Licensed under the Apache License, Version 2.0 (the "License");
   4:C:/Renesas/e2studio_2021_01_workspace_RZA2M_ANPR/ANPR_RZA2M_RDK/src/tensorflow_lite/src/tensorflow/lite/kernels\kernel_util.h **** you may not use this file except in compliance with the License.
   5:C:/Renesas/e2studio_2021_01_workspace_RZA2M_ANPR/ANPR_RZA2M_RDK/src/tensorflow_lite/src/tensorflow/lite/kernels\kernel_util.h **** You may obtain a copy of the License at
   6:C:/Renesas/e2studio_2021_01_workspace_RZA2M_ANPR/ANPR_RZA2M_RDK/src/tensorflow_lite/src/tensorflow/lite/kernels\kernel_util.h **** 
   7:C:/Renesas/e2studio_2021_01_workspace_RZA2M_ANPR/ANPR_RZA2M_RDK/src/tensorflow_lite/src/tensorflow/lite/kernels\kernel_util.h ****     http://www.apache.org/licenses/LICENSE-2.0
   8:C:/Renesas/e2studio_2021_01_workspace_RZA2M_ANPR/ANPR_RZA2M_RDK/src/tensorflow_lite/src/tensorflow/lite/kernels\kernel_util.h **** 
   9:C:/Renesas/e2studio_2021_01_workspace_RZA2M_ANPR/ANPR_RZA2M_RDK/src/tensorflow_lite/src/tensorflow/lite/kernels\kernel_util.h **** Unless required by applicable law or agreed to in writing, software
  10:C:/Renesas/e2studio_2021_01_workspace_RZA2M_ANPR/ANPR_RZA2M_RDK/src/tensorflow_lite/src/tensorflow/lite/kernels\kernel_util.h **** distributed under the License is distributed on an "AS IS" BASIS,
  11:C:/Renesas/e2studio_2021_01_workspace_RZA2M_ANPR/ANPR_RZA2M_RDK/src/tensorflow_lite/src/tensorflow/lite/kernels\kernel_util.h **** WITHOUT WARRANTIES OR CONDITIONS OF ANY KIND, either express or implied.
  12:C:/Renesas/e2studio_2021_01_workspace_RZA2M_ANPR/ANPR_RZA2M_RDK/src/tensorflow_lite/src/tensorflow/lite/kernels\kernel_util.h **** See the License for the specific language governing permissions and
  13:C:/Renesas/e2studio_2021_01_workspace_RZA2M_ANPR/ANPR_RZA2M_RDK/src/tensorflow_lite/src/tensorflow/lite/kernels\kernel_util.h **** limitations under the License.
  14:C:/Renesas/e2studio_2021_01_workspace_RZA2M_ANPR/ANPR_RZA2M_RDK/src/tensorflow_lite/src/tensorflow/lite/kernels\kernel_util.h **** ==============================================================================*/
  15:C:/Renesas/e2studio_2021_01_workspace_RZA2M_ANPR/ANPR_RZA2M_RDK/src/tensorflow_lite/src/tensorflow/lite/kernels\kernel_util.h **** #ifndef TENSORFLOW_LITE_KERNELS_KERNEL_UTIL_H_
  16:C:/Renesas/e2studio_2021_01_workspace_RZA2M_ANPR/ANPR_RZA2M_RDK/src/tensorflow_lite/src/tensorflow/lite/kernels\kernel_util.h **** #define TENSORFLOW_LITE_KERNELS_KERNEL_UTIL_H_
  17:C:/Renesas/e2studio_2021_01_workspace_RZA2M_ANPR/ANPR_RZA2M_RDK/src/tensorflow_lite/src/tensorflow/lite/kernels\kernel_util.h **** 
  18:C:/Renesas/e2studio_2021_01_workspace_RZA2M_ANPR/ANPR_RZA2M_RDK/src/tensorflow_lite/src/tensorflow/lite/kernels\kernel_util.h **** #include <stdint.h>
  19:C:/Renesas/e2studio_2021_01_workspace_RZA2M_ANPR/ANPR_RZA2M_RDK/src/tensorflow_lite/src/tensorflow/lite/kernels\kernel_util.h **** 
  20:C:/Renesas/e2studio_2021_01_workspace_RZA2M_ANPR/ANPR_RZA2M_RDK/src/tensorflow_lite/src/tensorflow/lite/kernels\kernel_util.h **** #include <limits>
  21:C:/Renesas/e2studio_2021_01_workspace_RZA2M_ANPR/ANPR_RZA2M_RDK/src/tensorflow_lite/src/tensorflow/lite/kernels\kernel_util.h **** 
  22:C:/Renesas/e2studio_2021_01_workspace_RZA2M_ANPR/ANPR_RZA2M_RDK/src/tensorflow_lite/src/tensorflow/lite/kernels\kernel_util.h **** #include "tensorflow/lite/c/builtin_op_data.h"
  23:C:/Renesas/e2studio_2021_01_workspace_RZA2M_ANPR/ANPR_RZA2M_RDK/src/tensorflow_lite/src/tensorflow/lite/kernels\kernel_util.h **** #include "tensorflow/lite/c/common.h"
  24:C:/Renesas/e2studio_2021_01_workspace_RZA2M_ANPR/ANPR_RZA2M_RDK/src/tensorflow_lite/src/tensorflow/lite/kernels\kernel_util.h **** 
  25:C:/Renesas/e2studio_2021_01_workspace_RZA2M_ANPR/ANPR_RZA2M_RDK/src/tensorflow_lite/src/tensorflow/lite/kernels\kernel_util.h **** namespace tflite {
  26:C:/Renesas/e2studio_2021_01_workspace_RZA2M_ANPR/ANPR_RZA2M_RDK/src/tensorflow_lite/src/tensorflow/lite/kernels\kernel_util.h **** 
  27:C:/Renesas/e2studio_2021_01_workspace_RZA2M_ANPR/ANPR_RZA2M_RDK/src/tensorflow_lite/src/tensorflow/lite/kernels\kernel_util.h **** // A fair number of functions in this header have historically been inline.
  28:C:/Renesas/e2studio_2021_01_workspace_RZA2M_ANPR/ANPR_RZA2M_RDK/src/tensorflow_lite/src/tensorflow/lite/kernels\kernel_util.h **** // It is ok to change functions to not be inline if the latency with
  29:C:/Renesas/e2studio_2021_01_workspace_RZA2M_ANPR/ANPR_RZA2M_RDK/src/tensorflow_lite/src/tensorflow/lite/kernels\kernel_util.h **** // benchmark_model for MobileNet + MobileBERT is unaffected. If such a change is
  30:C:/Renesas/e2studio_2021_01_workspace_RZA2M_ANPR/ANPR_RZA2M_RDK/src/tensorflow_lite/src/tensorflow/lite/kernels\kernel_util.h **** // made, move the newly non-inlined function declarations to the top of this
  31:C:/Renesas/e2studio_2021_01_workspace_RZA2M_ANPR/ANPR_RZA2M_RDK/src/tensorflow_lite/src/tensorflow/lite/kernels\kernel_util.h **** // header file.
  32:C:/Renesas/e2studio_2021_01_workspace_RZA2M_ANPR/ANPR_RZA2M_RDK/src/tensorflow_lite/src/tensorflow/lite/kernels\kernel_util.h **** 
  33:C:/Renesas/e2studio_2021_01_workspace_RZA2M_ANPR/ANPR_RZA2M_RDK/src/tensorflow_lite/src/tensorflow/lite/kernels\kernel_util.h **** // Note: You must check if result is not null:
  34:C:/Renesas/e2studio_2021_01_workspace_RZA2M_ANPR/ANPR_RZA2M_RDK/src/tensorflow_lite/src/tensorflow/lite/kernels\kernel_util.h **** //
  35:C:/Renesas/e2studio_2021_01_workspace_RZA2M_ANPR/ANPR_RZA2M_RDK/src/tensorflow_lite/src/tensorflow/lite/kernels\kernel_util.h **** //   TfLiteTensor* my_tensor = GetInput(context, node, kMyTensorIdx);
  36:C:/Renesas/e2studio_2021_01_workspace_RZA2M_ANPR/ANPR_RZA2M_RDK/src/tensorflow_lite/src/tensorflow/lite/kernels\kernel_util.h **** //   TF_LITE_ENSURE(context, my_tensor != nullptr);
  37:C:/Renesas/e2studio_2021_01_workspace_RZA2M_ANPR/ANPR_RZA2M_RDK/src/tensorflow_lite/src/tensorflow/lite/kernels\kernel_util.h **** //
  38:C:/Renesas/e2studio_2021_01_workspace_RZA2M_ANPR/ANPR_RZA2M_RDK/src/tensorflow_lite/src/tensorflow/lite/kernels\kernel_util.h **** // This is because the index might point to the optional tensor constant
  39:C:/Renesas/e2studio_2021_01_workspace_RZA2M_ANPR/ANPR_RZA2M_RDK/src/tensorflow_lite/src/tensorflow/lite/kernels\kernel_util.h **** // (kTfLiteOptionalTensor) in which case there is no tensor to return.
  40:C:/Renesas/e2studio_2021_01_workspace_RZA2M_ANPR/ANPR_RZA2M_RDK/src/tensorflow_lite/src/tensorflow/lite/kernels\kernel_util.h **** const TfLiteTensor* GetInput(const TfLiteContext* context,
  41:C:/Renesas/e2studio_2021_01_workspace_RZA2M_ANPR/ANPR_RZA2M_RDK/src/tensorflow_lite/src/tensorflow/lite/kernels\kernel_util.h ****                              const TfLiteNode* node, int index);
  42:C:/Renesas/e2studio_2021_01_workspace_RZA2M_ANPR/ANPR_RZA2M_RDK/src/tensorflow_lite/src/tensorflow/lite/kernels\kernel_util.h **** 
  43:C:/Renesas/e2studio_2021_01_workspace_RZA2M_ANPR/ANPR_RZA2M_RDK/src/tensorflow_lite/src/tensorflow/lite/kernels\kernel_util.h **** // Same as `GetInput` but returns boolean and uses output argument for tensor.
  44:C:/Renesas/e2studio_2021_01_workspace_RZA2M_ANPR/ANPR_RZA2M_RDK/src/tensorflow_lite/src/tensorflow/lite/kernels\kernel_util.h **** //
  45:C:/Renesas/e2studio_2021_01_workspace_RZA2M_ANPR/ANPR_RZA2M_RDK/src/tensorflow_lite/src/tensorflow/lite/kernels\kernel_util.h **** //   TfLiteTensor* my_tensor;
  46:C:/Renesas/e2studio_2021_01_workspace_RZA2M_ANPR/ANPR_RZA2M_RDK/src/tensorflow_lite/src/tensorflow/lite/kernels\kernel_util.h **** //   TF_LITE_ENSURE_OK(context,
  47:C:/Renesas/e2studio_2021_01_workspace_RZA2M_ANPR/ANPR_RZA2M_RDK/src/tensorflow_lite/src/tensorflow/lite/kernels\kernel_util.h **** //                     GetInputSafe(context, node, kMyTensorIdx, &my_tensor));
  48:C:/Renesas/e2studio_2021_01_workspace_RZA2M_ANPR/ANPR_RZA2M_RDK/src/tensorflow_lite/src/tensorflow/lite/kernels\kernel_util.h **** //   // can use my_tensor directly from here onwards, it is not nullptr
  49:C:/Renesas/e2studio_2021_01_workspace_RZA2M_ANPR/ANPR_RZA2M_RDK/src/tensorflow_lite/src/tensorflow/lite/kernels\kernel_util.h **** //
  50:C:/Renesas/e2studio_2021_01_workspace_RZA2M_ANPR/ANPR_RZA2M_RDK/src/tensorflow_lite/src/tensorflow/lite/kernels\kernel_util.h **** // Should be used in cases where the binary size is too large.
  51:C:/Renesas/e2studio_2021_01_workspace_RZA2M_ANPR/ANPR_RZA2M_RDK/src/tensorflow_lite/src/tensorflow/lite/kernels\kernel_util.h **** TfLiteStatus GetInputSafe(const TfLiteContext* context, const TfLiteNode* node,
  52:C:/Renesas/e2studio_2021_01_workspace_RZA2M_ANPR/ANPR_RZA2M_RDK/src/tensorflow_lite/src/tensorflow/lite/kernels\kernel_util.h ****                           int index, const TfLiteTensor** tensor);
  53:C:/Renesas/e2studio_2021_01_workspace_RZA2M_ANPR/ANPR_RZA2M_RDK/src/tensorflow_lite/src/tensorflow/lite/kernels\kernel_util.h **** 
  54:C:/Renesas/e2studio_2021_01_workspace_RZA2M_ANPR/ANPR_RZA2M_RDK/src/tensorflow_lite/src/tensorflow/lite/kernels\kernel_util.h **** // Note: You must check if result is not null:
  55:C:/Renesas/e2studio_2021_01_workspace_RZA2M_ANPR/ANPR_RZA2M_RDK/src/tensorflow_lite/src/tensorflow/lite/kernels\kernel_util.h **** //
  56:C:/Renesas/e2studio_2021_01_workspace_RZA2M_ANPR/ANPR_RZA2M_RDK/src/tensorflow_lite/src/tensorflow/lite/kernels\kernel_util.h **** //   TfLiteTensor* my_tensor = GetVariableInput(context, node, kMyTensorIdx);
  57:C:/Renesas/e2studio_2021_01_workspace_RZA2M_ANPR/ANPR_RZA2M_RDK/src/tensorflow_lite/src/tensorflow/lite/kernels\kernel_util.h **** //   TF_LITE_ENSURE(context, my_tensor != nullptr);
  58:C:/Renesas/e2studio_2021_01_workspace_RZA2M_ANPR/ANPR_RZA2M_RDK/src/tensorflow_lite/src/tensorflow/lite/kernels\kernel_util.h **** //
  59:C:/Renesas/e2studio_2021_01_workspace_RZA2M_ANPR/ANPR_RZA2M_RDK/src/tensorflow_lite/src/tensorflow/lite/kernels\kernel_util.h **** // This is because the index might point to the optional tensor constant
  60:C:/Renesas/e2studio_2021_01_workspace_RZA2M_ANPR/ANPR_RZA2M_RDK/src/tensorflow_lite/src/tensorflow/lite/kernels\kernel_util.h **** // (kTfLiteOptionalTensor) in which case there is no tensor to return.
  61:C:/Renesas/e2studio_2021_01_workspace_RZA2M_ANPR/ANPR_RZA2M_RDK/src/tensorflow_lite/src/tensorflow/lite/kernels\kernel_util.h **** TfLiteTensor* GetVariableInput(TfLiteContext* context, const TfLiteNode* node,
  62:C:/Renesas/e2studio_2021_01_workspace_RZA2M_ANPR/ANPR_RZA2M_RDK/src/tensorflow_lite/src/tensorflow/lite/kernels\kernel_util.h ****                                int index);
  63:C:/Renesas/e2studio_2021_01_workspace_RZA2M_ANPR/ANPR_RZA2M_RDK/src/tensorflow_lite/src/tensorflow/lite/kernels\kernel_util.h **** 
  64:C:/Renesas/e2studio_2021_01_workspace_RZA2M_ANPR/ANPR_RZA2M_RDK/src/tensorflow_lite/src/tensorflow/lite/kernels\kernel_util.h **** // Note: You must check if result is not null:
  65:C:/Renesas/e2studio_2021_01_workspace_RZA2M_ANPR/ANPR_RZA2M_RDK/src/tensorflow_lite/src/tensorflow/lite/kernels\kernel_util.h **** //
  66:C:/Renesas/e2studio_2021_01_workspace_RZA2M_ANPR/ANPR_RZA2M_RDK/src/tensorflow_lite/src/tensorflow/lite/kernels\kernel_util.h **** //   TfLiteTensor* my_tensor = GetOutput(context, node, kMyTensorIdx);
  67:C:/Renesas/e2studio_2021_01_workspace_RZA2M_ANPR/ANPR_RZA2M_RDK/src/tensorflow_lite/src/tensorflow/lite/kernels\kernel_util.h **** //   TF_LITE_ENSURE(context, my_tensor != nullptr);
  68:C:/Renesas/e2studio_2021_01_workspace_RZA2M_ANPR/ANPR_RZA2M_RDK/src/tensorflow_lite/src/tensorflow/lite/kernels\kernel_util.h **** //
  69:C:/Renesas/e2studio_2021_01_workspace_RZA2M_ANPR/ANPR_RZA2M_RDK/src/tensorflow_lite/src/tensorflow/lite/kernels\kernel_util.h **** // This is because the index might point to the optional tensor constant
  70:C:/Renesas/e2studio_2021_01_workspace_RZA2M_ANPR/ANPR_RZA2M_RDK/src/tensorflow_lite/src/tensorflow/lite/kernels\kernel_util.h **** // (kTfLiteOptionalTensor) in which case there is no tensor to return.
  71:C:/Renesas/e2studio_2021_01_workspace_RZA2M_ANPR/ANPR_RZA2M_RDK/src/tensorflow_lite/src/tensorflow/lite/kernels\kernel_util.h **** TfLiteTensor* GetOutput(TfLiteContext* context, const TfLiteNode* node,
  72:C:/Renesas/e2studio_2021_01_workspace_RZA2M_ANPR/ANPR_RZA2M_RDK/src/tensorflow_lite/src/tensorflow/lite/kernels\kernel_util.h ****                         int index);
  73:C:/Renesas/e2studio_2021_01_workspace_RZA2M_ANPR/ANPR_RZA2M_RDK/src/tensorflow_lite/src/tensorflow/lite/kernels\kernel_util.h **** 
  74:C:/Renesas/e2studio_2021_01_workspace_RZA2M_ANPR/ANPR_RZA2M_RDK/src/tensorflow_lite/src/tensorflow/lite/kernels\kernel_util.h **** // Same as `GetOutput` but returns boolean and uses output argument for tensor.
  75:C:/Renesas/e2studio_2021_01_workspace_RZA2M_ANPR/ANPR_RZA2M_RDK/src/tensorflow_lite/src/tensorflow/lite/kernels\kernel_util.h **** //
  76:C:/Renesas/e2studio_2021_01_workspace_RZA2M_ANPR/ANPR_RZA2M_RDK/src/tensorflow_lite/src/tensorflow/lite/kernels\kernel_util.h **** //   TfLiteTensor* my_tensor;
  77:C:/Renesas/e2studio_2021_01_workspace_RZA2M_ANPR/ANPR_RZA2M_RDK/src/tensorflow_lite/src/tensorflow/lite/kernels\kernel_util.h **** //   TF_LITE_ENSURE_OK(context,
  78:C:/Renesas/e2studio_2021_01_workspace_RZA2M_ANPR/ANPR_RZA2M_RDK/src/tensorflow_lite/src/tensorflow/lite/kernels\kernel_util.h **** //                     GetOutputSafe(context, node, kMyTensorIdx, &my_tensor));
  79:C:/Renesas/e2studio_2021_01_workspace_RZA2M_ANPR/ANPR_RZA2M_RDK/src/tensorflow_lite/src/tensorflow/lite/kernels\kernel_util.h **** //   // can use my_tensor directly from here onwards, it is not nullptr
  80:C:/Renesas/e2studio_2021_01_workspace_RZA2M_ANPR/ANPR_RZA2M_RDK/src/tensorflow_lite/src/tensorflow/lite/kernels\kernel_util.h **** //
  81:C:/Renesas/e2studio_2021_01_workspace_RZA2M_ANPR/ANPR_RZA2M_RDK/src/tensorflow_lite/src/tensorflow/lite/kernels\kernel_util.h **** // Should be used in cases where the binary size is too large.
  82:C:/Renesas/e2studio_2021_01_workspace_RZA2M_ANPR/ANPR_RZA2M_RDK/src/tensorflow_lite/src/tensorflow/lite/kernels\kernel_util.h **** TfLiteStatus GetOutputSafe(const TfLiteContext* context, const TfLiteNode* node,
  83:C:/Renesas/e2studio_2021_01_workspace_RZA2M_ANPR/ANPR_RZA2M_RDK/src/tensorflow_lite/src/tensorflow/lite/kernels\kernel_util.h ****                            int index, TfLiteTensor** tensor);
  84:C:/Renesas/e2studio_2021_01_workspace_RZA2M_ANPR/ANPR_RZA2M_RDK/src/tensorflow_lite/src/tensorflow/lite/kernels\kernel_util.h **** 
  85:C:/Renesas/e2studio_2021_01_workspace_RZA2M_ANPR/ANPR_RZA2M_RDK/src/tensorflow_lite/src/tensorflow/lite/kernels\kernel_util.h **** // Note: You must check if result is not null:
  86:C:/Renesas/e2studio_2021_01_workspace_RZA2M_ANPR/ANPR_RZA2M_RDK/src/tensorflow_lite/src/tensorflow/lite/kernels\kernel_util.h **** //
  87:C:/Renesas/e2studio_2021_01_workspace_RZA2M_ANPR/ANPR_RZA2M_RDK/src/tensorflow_lite/src/tensorflow/lite/kernels\kernel_util.h **** //   TfLiteTensor* my_tensor = GetOptionalInputTensor(context, node, kIdx);
  88:C:/Renesas/e2studio_2021_01_workspace_RZA2M_ANPR/ANPR_RZA2M_RDK/src/tensorflow_lite/src/tensorflow/lite/kernels\kernel_util.h **** //   TF_LITE_ENSURE(context, my_tensor != nullptr);
  89:C:/Renesas/e2studio_2021_01_workspace_RZA2M_ANPR/ANPR_RZA2M_RDK/src/tensorflow_lite/src/tensorflow/lite/kernels\kernel_util.h **** //
  90:C:/Renesas/e2studio_2021_01_workspace_RZA2M_ANPR/ANPR_RZA2M_RDK/src/tensorflow_lite/src/tensorflow/lite/kernels\kernel_util.h **** // This is because the index might point to the optional tensor constant
  91:C:/Renesas/e2studio_2021_01_workspace_RZA2M_ANPR/ANPR_RZA2M_RDK/src/tensorflow_lite/src/tensorflow/lite/kernels\kernel_util.h **** // (kTfLiteOptionalTensor) in which case there is no tensor to return.
  92:C:/Renesas/e2studio_2021_01_workspace_RZA2M_ANPR/ANPR_RZA2M_RDK/src/tensorflow_lite/src/tensorflow/lite/kernels\kernel_util.h **** //
  93:C:/Renesas/e2studio_2021_01_workspace_RZA2M_ANPR/ANPR_RZA2M_RDK/src/tensorflow_lite/src/tensorflow/lite/kernels\kernel_util.h **** // Deprecated. GetInput has the same functionality.
  94:C:/Renesas/e2studio_2021_01_workspace_RZA2M_ANPR/ANPR_RZA2M_RDK/src/tensorflow_lite/src/tensorflow/lite/kernels\kernel_util.h **** const TfLiteTensor* GetOptionalInputTensor(const TfLiteContext* context,
  95:C:/Renesas/e2studio_2021_01_workspace_RZA2M_ANPR/ANPR_RZA2M_RDK/src/tensorflow_lite/src/tensorflow/lite/kernels\kernel_util.h ****                                            const TfLiteNode* node, int index);
  96:C:/Renesas/e2studio_2021_01_workspace_RZA2M_ANPR/ANPR_RZA2M_RDK/src/tensorflow_lite/src/tensorflow/lite/kernels\kernel_util.h **** 
  97:C:/Renesas/e2studio_2021_01_workspace_RZA2M_ANPR/ANPR_RZA2M_RDK/src/tensorflow_lite/src/tensorflow/lite/kernels\kernel_util.h **** #ifndef TF_LITE_STATIC_MEMORY
  98:C:/Renesas/e2studio_2021_01_workspace_RZA2M_ANPR/ANPR_RZA2M_RDK/src/tensorflow_lite/src/tensorflow/lite/kernels\kernel_util.h **** // Note: You must check if result is not null:
  99:C:/Renesas/e2studio_2021_01_workspace_RZA2M_ANPR/ANPR_RZA2M_RDK/src/tensorflow_lite/src/tensorflow/lite/kernels\kernel_util.h **** //
 100:C:/Renesas/e2studio_2021_01_workspace_RZA2M_ANPR/ANPR_RZA2M_RDK/src/tensorflow_lite/src/tensorflow/lite/kernels\kernel_util.h **** //   TfLiteTensor* my_tensor = GetTemporary(context, node, kMyTensorIdx);
 101:C:/Renesas/e2studio_2021_01_workspace_RZA2M_ANPR/ANPR_RZA2M_RDK/src/tensorflow_lite/src/tensorflow/lite/kernels\kernel_util.h **** //   TF_LITE_ENSURE(context, my_tensor != nullptr);
 102:C:/Renesas/e2studio_2021_01_workspace_RZA2M_ANPR/ANPR_RZA2M_RDK/src/tensorflow_lite/src/tensorflow/lite/kernels\kernel_util.h **** //
 103:C:/Renesas/e2studio_2021_01_workspace_RZA2M_ANPR/ANPR_RZA2M_RDK/src/tensorflow_lite/src/tensorflow/lite/kernels\kernel_util.h **** // This is because the index might point to the optional tensor constant
 104:C:/Renesas/e2studio_2021_01_workspace_RZA2M_ANPR/ANPR_RZA2M_RDK/src/tensorflow_lite/src/tensorflow/lite/kernels\kernel_util.h **** // (kTfLiteOptionalTensor) in which case there is no tensor to return.
 105:C:/Renesas/e2studio_2021_01_workspace_RZA2M_ANPR/ANPR_RZA2M_RDK/src/tensorflow_lite/src/tensorflow/lite/kernels\kernel_util.h **** TfLiteTensor* GetTemporary(TfLiteContext* context, const TfLiteNode* node,
 106:C:/Renesas/e2studio_2021_01_workspace_RZA2M_ANPR/ANPR_RZA2M_RDK/src/tensorflow_lite/src/tensorflow/lite/kernels\kernel_util.h ****                            int index);
 107:C:/Renesas/e2studio_2021_01_workspace_RZA2M_ANPR/ANPR_RZA2M_RDK/src/tensorflow_lite/src/tensorflow/lite/kernels\kernel_util.h **** 
 108:C:/Renesas/e2studio_2021_01_workspace_RZA2M_ANPR/ANPR_RZA2M_RDK/src/tensorflow_lite/src/tensorflow/lite/kernels\kernel_util.h **** // Same as `GetTemporary` but returns boolean and uses output argument for
 109:C:/Renesas/e2studio_2021_01_workspace_RZA2M_ANPR/ANPR_RZA2M_RDK/src/tensorflow_lite/src/tensorflow/lite/kernels\kernel_util.h **** // tensor.
 110:C:/Renesas/e2studio_2021_01_workspace_RZA2M_ANPR/ANPR_RZA2M_RDK/src/tensorflow_lite/src/tensorflow/lite/kernels\kernel_util.h **** //
 111:C:/Renesas/e2studio_2021_01_workspace_RZA2M_ANPR/ANPR_RZA2M_RDK/src/tensorflow_lite/src/tensorflow/lite/kernels\kernel_util.h **** //   TfLiteTensor* my_tensor;
 112:C:/Renesas/e2studio_2021_01_workspace_RZA2M_ANPR/ANPR_RZA2M_RDK/src/tensorflow_lite/src/tensorflow/lite/kernels\kernel_util.h **** //   TF_LITE_ENSURE_OK(context,
 113:C:/Renesas/e2studio_2021_01_workspace_RZA2M_ANPR/ANPR_RZA2M_RDK/src/tensorflow_lite/src/tensorflow/lite/kernels\kernel_util.h **** //                     GetTemporarySafe(context, node, kMyTensorIdx,
 114:C:/Renesas/e2studio_2021_01_workspace_RZA2M_ANPR/ANPR_RZA2M_RDK/src/tensorflow_lite/src/tensorflow/lite/kernels\kernel_util.h **** //                     &my_tensor));
 115:C:/Renesas/e2studio_2021_01_workspace_RZA2M_ANPR/ANPR_RZA2M_RDK/src/tensorflow_lite/src/tensorflow/lite/kernels\kernel_util.h **** //   // can use my_tensor directly from here onwards, it is not nullptr
 116:C:/Renesas/e2studio_2021_01_workspace_RZA2M_ANPR/ANPR_RZA2M_RDK/src/tensorflow_lite/src/tensorflow/lite/kernels\kernel_util.h **** //
 117:C:/Renesas/e2studio_2021_01_workspace_RZA2M_ANPR/ANPR_RZA2M_RDK/src/tensorflow_lite/src/tensorflow/lite/kernels\kernel_util.h **** // Should be used in cases where the binary size is too large.
 118:C:/Renesas/e2studio_2021_01_workspace_RZA2M_ANPR/ANPR_RZA2M_RDK/src/tensorflow_lite/src/tensorflow/lite/kernels\kernel_util.h **** TfLiteStatus GetTemporarySafe(const TfLiteContext* context,
 119:C:/Renesas/e2studio_2021_01_workspace_RZA2M_ANPR/ANPR_RZA2M_RDK/src/tensorflow_lite/src/tensorflow/lite/kernels\kernel_util.h ****                               const TfLiteNode* node, int index,
 120:C:/Renesas/e2studio_2021_01_workspace_RZA2M_ANPR/ANPR_RZA2M_RDK/src/tensorflow_lite/src/tensorflow/lite/kernels\kernel_util.h ****                               TfLiteTensor** tensor);
 121:C:/Renesas/e2studio_2021_01_workspace_RZA2M_ANPR/ANPR_RZA2M_RDK/src/tensorflow_lite/src/tensorflow/lite/kernels\kernel_util.h **** 
 122:C:/Renesas/e2studio_2021_01_workspace_RZA2M_ANPR/ANPR_RZA2M_RDK/src/tensorflow_lite/src/tensorflow/lite/kernels\kernel_util.h **** // Note: You must check if result is not null:
 123:C:/Renesas/e2studio_2021_01_workspace_RZA2M_ANPR/ANPR_RZA2M_RDK/src/tensorflow_lite/src/tensorflow/lite/kernels\kernel_util.h **** //
 124:C:/Renesas/e2studio_2021_01_workspace_RZA2M_ANPR/ANPR_RZA2M_RDK/src/tensorflow_lite/src/tensorflow/lite/kernels\kernel_util.h **** //   TfLiteTensor* my_tensor = GetIntermediates(context, node, kMyTensorIdx);
 125:C:/Renesas/e2studio_2021_01_workspace_RZA2M_ANPR/ANPR_RZA2M_RDK/src/tensorflow_lite/src/tensorflow/lite/kernels\kernel_util.h **** //   TF_LITE_ENSURE(context, my_tensor != nullptr);
 126:C:/Renesas/e2studio_2021_01_workspace_RZA2M_ANPR/ANPR_RZA2M_RDK/src/tensorflow_lite/src/tensorflow/lite/kernels\kernel_util.h **** //
 127:C:/Renesas/e2studio_2021_01_workspace_RZA2M_ANPR/ANPR_RZA2M_RDK/src/tensorflow_lite/src/tensorflow/lite/kernels\kernel_util.h **** // This is because the index might point to the optional tensor constant
 128:C:/Renesas/e2studio_2021_01_workspace_RZA2M_ANPR/ANPR_RZA2M_RDK/src/tensorflow_lite/src/tensorflow/lite/kernels\kernel_util.h **** // (kTfLiteOptionalTensor) in which case there is no tensor to return.
 129:C:/Renesas/e2studio_2021_01_workspace_RZA2M_ANPR/ANPR_RZA2M_RDK/src/tensorflow_lite/src/tensorflow/lite/kernels\kernel_util.h **** const TfLiteTensor* GetIntermediates(TfLiteContext* context,
 130:C:/Renesas/e2studio_2021_01_workspace_RZA2M_ANPR/ANPR_RZA2M_RDK/src/tensorflow_lite/src/tensorflow/lite/kernels\kernel_util.h ****                                      const TfLiteNode* node, int index);
 131:C:/Renesas/e2studio_2021_01_workspace_RZA2M_ANPR/ANPR_RZA2M_RDK/src/tensorflow_lite/src/tensorflow/lite/kernels\kernel_util.h **** 
 132:C:/Renesas/e2studio_2021_01_workspace_RZA2M_ANPR/ANPR_RZA2M_RDK/src/tensorflow_lite/src/tensorflow/lite/kernels\kernel_util.h **** // Same as `GetIntermediates` but returns boolean and uses output argument for
 133:C:/Renesas/e2studio_2021_01_workspace_RZA2M_ANPR/ANPR_RZA2M_RDK/src/tensorflow_lite/src/tensorflow/lite/kernels\kernel_util.h **** // tensor.
 134:C:/Renesas/e2studio_2021_01_workspace_RZA2M_ANPR/ANPR_RZA2M_RDK/src/tensorflow_lite/src/tensorflow/lite/kernels\kernel_util.h **** //
 135:C:/Renesas/e2studio_2021_01_workspace_RZA2M_ANPR/ANPR_RZA2M_RDK/src/tensorflow_lite/src/tensorflow/lite/kernels\kernel_util.h **** //   TfLiteTensor* my_tensor;
 136:C:/Renesas/e2studio_2021_01_workspace_RZA2M_ANPR/ANPR_RZA2M_RDK/src/tensorflow_lite/src/tensorflow/lite/kernels\kernel_util.h **** //   TF_LITE_ENSURE_OK(context,
 137:C:/Renesas/e2studio_2021_01_workspace_RZA2M_ANPR/ANPR_RZA2M_RDK/src/tensorflow_lite/src/tensorflow/lite/kernels\kernel_util.h **** //                     GetIntermediatesSafe(context, node, kMyTensorIdx,
 138:C:/Renesas/e2studio_2021_01_workspace_RZA2M_ANPR/ANPR_RZA2M_RDK/src/tensorflow_lite/src/tensorflow/lite/kernels\kernel_util.h **** //                     &my_tensor));
 139:C:/Renesas/e2studio_2021_01_workspace_RZA2M_ANPR/ANPR_RZA2M_RDK/src/tensorflow_lite/src/tensorflow/lite/kernels\kernel_util.h **** //   // can use my_tensor directly from here onwards, it is not nullptr
 140:C:/Renesas/e2studio_2021_01_workspace_RZA2M_ANPR/ANPR_RZA2M_RDK/src/tensorflow_lite/src/tensorflow/lite/kernels\kernel_util.h **** //
 141:C:/Renesas/e2studio_2021_01_workspace_RZA2M_ANPR/ANPR_RZA2M_RDK/src/tensorflow_lite/src/tensorflow/lite/kernels\kernel_util.h **** // Should be used in cases where the binary size is too large.
 142:C:/Renesas/e2studio_2021_01_workspace_RZA2M_ANPR/ANPR_RZA2M_RDK/src/tensorflow_lite/src/tensorflow/lite/kernels\kernel_util.h **** TfLiteStatus GetIntermediatesSafe(const TfLiteContext* context,
 143:C:/Renesas/e2studio_2021_01_workspace_RZA2M_ANPR/ANPR_RZA2M_RDK/src/tensorflow_lite/src/tensorflow/lite/kernels\kernel_util.h ****                                   const TfLiteNode* node, int index,
 144:C:/Renesas/e2studio_2021_01_workspace_RZA2M_ANPR/ANPR_RZA2M_RDK/src/tensorflow_lite/src/tensorflow/lite/kernels\kernel_util.h ****                                   TfLiteTensor** tensor);
 145:C:/Renesas/e2studio_2021_01_workspace_RZA2M_ANPR/ANPR_RZA2M_RDK/src/tensorflow_lite/src/tensorflow/lite/kernels\kernel_util.h **** #endif  // TF_LITE_STATIC_MEMORY
 146:C:/Renesas/e2studio_2021_01_workspace_RZA2M_ANPR/ANPR_RZA2M_RDK/src/tensorflow_lite/src/tensorflow/lite/kernels\kernel_util.h **** 
 147:C:/Renesas/e2studio_2021_01_workspace_RZA2M_ANPR/ANPR_RZA2M_RDK/src/tensorflow_lite/src/tensorflow/lite/kernels\kernel_util.h **** inline int NumDimensions(const TfLiteTensor* t) { return t->dims->size; }
 148:C:/Renesas/e2studio_2021_01_workspace_RZA2M_ANPR/ANPR_RZA2M_RDK/src/tensorflow_lite/src/tensorflow/lite/kernels\kernel_util.h **** inline int SizeOfDimension(const TfLiteTensor* t, int dim) {
 149:C:/Renesas/e2studio_2021_01_workspace_RZA2M_ANPR/ANPR_RZA2M_RDK/src/tensorflow_lite/src/tensorflow/lite/kernels\kernel_util.h ****   return t->dims->data[dim];
 150:C:/Renesas/e2studio_2021_01_workspace_RZA2M_ANPR/ANPR_RZA2M_RDK/src/tensorflow_lite/src/tensorflow/lite/kernels\kernel_util.h **** }
 151:C:/Renesas/e2studio_2021_01_workspace_RZA2M_ANPR/ANPR_RZA2M_RDK/src/tensorflow_lite/src/tensorflow/lite/kernels\kernel_util.h **** 
 152:C:/Renesas/e2studio_2021_01_workspace_RZA2M_ANPR/ANPR_RZA2M_RDK/src/tensorflow_lite/src/tensorflow/lite/kernels\kernel_util.h **** inline int NumInputs(const TfLiteNode* node) { return node->inputs->size; }
  99              		.loc 2 152 0
 100 002c 002095E5 		ldr	r2, [r5]
 101              	.LBE2161:
 102              	.LBE2160:
 103              	.LBE2159:
 104              	.LBE2158:
  82:../src/tensorflow_lite/src/tensorflow/lite/micro/kernels/tanh.cpp ****   data->input_zero_point = input->params.zero_point;
 105              		.loc 1 82 0
 106 0030 103090E5 		ldr	r3, [r0, #16]
 107              	.LBB2177:
 108              	.LBB2173:
 109              	.LBB2163:
 110              	.LBB2162:
 111              		.loc 2 152 0
 112 0034 008092E5 		ldr	r8, [r2]
 113              	.LBE2162:
 114              	.LBE2163:
 115              	.LBE2173:
 116              	.LBE2177:
 117              		.loc 1 82 0
 118 0038 003087E5 		str	r3, [r7]
 119              	.LVL7:
 120              	.LBB2178:
 121              	.LBB2174:
  51:../src/tensorflow_lite/src/tensorflow/lite/micro/kernels/tanh.cpp ****   TF_LITE_ENSURE_EQ(context, NumOutputs(node), 1);
 122              		.loc 1 51 0
 123 003c 010058E3 		cmp	r8, #1
 124 0040 3F00001A 		bne	.L21
 125              	.LVL8:
 126              	.LBB2164:
 127              	.LBB2165:
 153:C:/Renesas/e2studio_2021_01_workspace_RZA2M_ANPR/ANPR_RZA2M_RDK/src/tensorflow_lite/src/tensorflow/lite/kernels\kernel_util.h **** inline int NumOutputs(const TfLiteNode* node) { return node->outputs->size; }
 128              		.loc 2 153 0
 129 0044 043095E5 		ldr	r3, [r5, #4]
 130 0048 004093E5 		ldr	r4, [r3]
 131              	.LBE2165:
 132              	.LBE2164:
  52:../src/tensorflow_lite/src/tensorflow/lite/micro/kernels/tanh.cpp ****   const TfLiteTensor* input = GetInput(context, node, kInputTensor);
 133              		.loc 1 52 0
 134 004c 010054E3 		cmp	r4, #1
 135 0050 1300000A 		beq	.L13
 136              	.LVL9:
 137 0054 000000E3 		movw	r0, #:lower16:.LC5
 138              	.LVL10:
 139 0058 003000E3 		movw	r3, #:lower16:.LC7
 140 005c 000040E3 		movt	r0, #:upper16:.LC5
 141 0060 003040E3 		movt	r3, #:upper16:.LC7
 142 0064 002000E3 		movw	r2, #:lower16:.LC1
 143 0068 001000E3 		movw	r1, #:lower16:.LC4
 144 006c 04008DE5 		str	r0, [sp, #4]
 145 0070 002040E3 		movt	r2, #:upper16:.LC1
 146 0074 00308DE5 		str	r3, [sp]
 147 0078 001040E3 		movt	r1, #:upper16:.LC4
 148 007c 0C808DE5 		str	r8, [sp, #12]
 149 0080 0600A0E1 		mov	r0, r6
 150 0084 08408DE5 		str	r4, [sp, #8]
 151 0088 3430A0E3 		mov	r3, #52
 152 008c 144096E5 		ldr	r4, [r6, #20]
 153 0090 34FF2FE1 		blx	r4
 154              	.LVL11:
 155 0094 0840A0E1 		mov	r4, r8
 156              	.LVL12:
 157              	.L11:
 158              	.LBE2174:
 159              	.LBE2178:
  83:../src/tensorflow_lite/src/tensorflow/lite/micro/kernels/tanh.cpp ****   return CalculateArithmeticOpData(context, node, data);
  84:../src/tensorflow_lite/src/tensorflow/lite/micro/kernels/tanh.cpp **** }
 160              		.loc 1 84 0
 161 0098 0400A0E1 		mov	r0, r4
 162 009c 10D08DE2 		add	sp, sp, #16
 163              		.cfi_remember_state
 164              		.cfi_def_cfa_offset 24
 165              		@ sp needed
 166 00a0 F081BDE8 		pop	{r4, r5, r6, r7, r8, pc}
 167              	.LVL13:
 168              	.L13:
 169              		.cfi_restore_state
 170              	.LBB2179:
 171              	.LBB2175:
  53:../src/tensorflow_lite/src/tensorflow/lite/micro/kernels/tanh.cpp ****   TF_LITE_ENSURE(context, input != nullptr);
 172              		.loc 1 53 0
 173 00a4 0020A0E3 		mov	r2, #0
 174 00a8 0510A0E1 		mov	r1, r5
 175 00ac 0600A0E1 		mov	r0, r6
 176              	.LVL14:
 177 00b0 FEFFFFEB 		bl	_ZN6tflite8GetInputEPK13TfLiteContextPK10TfLiteNodei
 178              	.LVL15:
  54:../src/tensorflow_lite/src/tensorflow/lite/micro/kernels/tanh.cpp ****   TfLiteTensor* output = GetOutput(context, node, kOutputTensor);
 179              		.loc 1 54 0
 180 00b4 008050E2 		subs	r8, r0, #0
 181 00b8 5700000A 		beq	.L22
  55:../src/tensorflow_lite/src/tensorflow/lite/micro/kernels/tanh.cpp ****   TF_LITE_ENSURE(context, output != nullptr);
 182              		.loc 1 55 0
 183 00bc 0510A0E1 		mov	r1, r5
 184 00c0 0020A0E3 		mov	r2, #0
 185 00c4 0600A0E1 		mov	r0, r6
 186              	.LVL16:
 187 00c8 FEFFFFEB 		bl	_ZN6tflite9GetOutputEP13TfLiteContextPK10TfLiteNodei
 188              	.LVL17:
  56:../src/tensorflow_lite/src/tensorflow/lite/micro/kernels/tanh.cpp **** 
 189              		.loc 1 56 0
 190 00cc 005050E2 		subs	r5, r0, #0
 191              	.LVL18:
 192 00d0 5D00000A 		beq	.L23
  58:../src/tensorflow_lite/src/tensorflow/lite/micro/kernels/tanh.cpp **** 
 193              		.loc 1 58 0
 194 00d4 0000D8E5 		ldrb	r0, [r8]	@ zero_extendqisi2
 195              	.LVL19:
 196 00d8 0030D5E5 		ldrb	r3, [r5]	@ zero_extendqisi2
 197 00dc 000053E1 		cmp	r3, r0
 198 00e0 3900001A 		bne	.L24
 199              	.LBB2166:
  60:../src/tensorflow_lite/src/tensorflow/lite/micro/kernels/tanh.cpp ****     static constexpr int kInputIntegerBits = 4;
 200              		.loc 1 60 0
 201 00e4 090053E3 		cmp	r3, #9
 202 00e8 03005313 		cmpne	r3, #3
 203 00ec 0030A013 		movne	r3, #0
 204 00f0 0130A003 		moveq	r3, #1
 205              	.LBE2166:
  72:../src/tensorflow_lite/src/tensorflow/lite/micro/kernels/tanh.cpp **** }
 206              		.loc 1 72 0
 207 00f4 0340A011 		movne	r4, r3
 208              	.LBB2171:
  60:../src/tensorflow_lite/src/tensorflow/lite/micro/kernels/tanh.cpp ****     static constexpr int kInputIntegerBits = 4;
 209              		.loc 1 60 0
 210 00f8 E6FFFF1A 		bne	.L11
 211              	.LVL20:
 212              	.LBB2167:
  63:../src/tensorflow_lite/src/tensorflow/lite/micro/kernels/tanh.cpp ****         static_cast<double>(1 << (31 - kInputIntegerBits));
 213              		.loc 1 63 0
 214 00fc 037AD8ED 		vldr.32	s15, [r8, #12]
  66:../src/tensorflow_lite/src/tensorflow/lite/micro/kernels/tanh.cpp ****     data->input_multiplier = static_cast<int32_t>(TfLiteRound(q * (1ll << 31)));
 215              		.loc 1 66 0
 216 0100 0C0087E2 		add	r0, r7, #12
  64:../src/tensorflow_lite/src/tensorflow/lite/micro/kernels/tanh.cpp **** 
 217              		.loc 1 64 0
 218 0104 5D0B9FED 		vldr.64	d0, .L25
 219              	.LBE2167:
 220              	.LBE2171:
  72:../src/tensorflow_lite/src/tensorflow/lite/micro/kernels/tanh.cpp **** }
 221              		.loc 1 72 0
 222 0108 0040A0E3 		mov	r4, #0
 223              	.LBB2172:
 224              	.LBB2170:
  63:../src/tensorflow_lite/src/tensorflow/lite/micro/kernels/tanh.cpp ****         static_cast<double>(1 << (31 - kInputIntegerBits));
 225              		.loc 1 63 0
 226 010c E70AF7EE 		vcvt.f64.f32	d16, s15
  66:../src/tensorflow_lite/src/tensorflow/lite/micro/kernels/tanh.cpp ****     data->input_multiplier = static_cast<int32_t>(TfLiteRound(q * (1ll << 31)));
 227              		.loc 1 66 0
 228 0110 800B20EE 		vmul.f64	d0, d16, d0
 229              	.LVL21:
 230 0114 FEFFFFEB 		bl	frexp
 231              	.LVL22:
  67:../src/tensorflow_lite/src/tensorflow/lite/micro/kernels/tanh.cpp **** 
 232              		.loc 1 67 0
 233 0118 5A0BDFED 		vldr.64	d16, .L25+8
 234              	.LBB2168:
 235              	.LBB2169:
 236              		.file 3 "C:/Renesas/e2studio_2021_01_workspace_RZA2M_ANPR/ANPR_RZA2M_RDK/src/tensorflow_lite/src/t
   1:C:/Renesas/e2studio_2021_01_workspace_RZA2M_ANPR/ANPR_RZA2M_RDK/src/tensorflow_lite/src/tensorflow/lite/kernels/internal\cppmath.h **** /* Copyright 2020 The TensorFlow Authors. All Rights Reserved.
   2:C:/Renesas/e2studio_2021_01_workspace_RZA2M_ANPR/ANPR_RZA2M_RDK/src/tensorflow_lite/src/tensorflow/lite/kernels/internal\cppmath.h **** 
   3:C:/Renesas/e2studio_2021_01_workspace_RZA2M_ANPR/ANPR_RZA2M_RDK/src/tensorflow_lite/src/tensorflow/lite/kernels/internal\cppmath.h **** Licensed under the Apache License, Version 2.0 (the "License");
   4:C:/Renesas/e2studio_2021_01_workspace_RZA2M_ANPR/ANPR_RZA2M_RDK/src/tensorflow_lite/src/tensorflow/lite/kernels/internal\cppmath.h **** you may not use this file except in compliance with the License.
   5:C:/Renesas/e2studio_2021_01_workspace_RZA2M_ANPR/ANPR_RZA2M_RDK/src/tensorflow_lite/src/tensorflow/lite/kernels/internal\cppmath.h **** You may obtain a copy of the License at
   6:C:/Renesas/e2studio_2021_01_workspace_RZA2M_ANPR/ANPR_RZA2M_RDK/src/tensorflow_lite/src/tensorflow/lite/kernels/internal\cppmath.h **** 
   7:C:/Renesas/e2studio_2021_01_workspace_RZA2M_ANPR/ANPR_RZA2M_RDK/src/tensorflow_lite/src/tensorflow/lite/kernels/internal\cppmath.h ****     http://www.apache.org/licenses/LICENSE-2.0
   8:C:/Renesas/e2studio_2021_01_workspace_RZA2M_ANPR/ANPR_RZA2M_RDK/src/tensorflow_lite/src/tensorflow/lite/kernels/internal\cppmath.h **** 
   9:C:/Renesas/e2studio_2021_01_workspace_RZA2M_ANPR/ANPR_RZA2M_RDK/src/tensorflow_lite/src/tensorflow/lite/kernels/internal\cppmath.h **** Unless required by applicable law or agreed to in writing, software
  10:C:/Renesas/e2studio_2021_01_workspace_RZA2M_ANPR/ANPR_RZA2M_RDK/src/tensorflow_lite/src/tensorflow/lite/kernels/internal\cppmath.h **** distributed under the License is distributed on an "AS IS" BASIS,
  11:C:/Renesas/e2studio_2021_01_workspace_RZA2M_ANPR/ANPR_RZA2M_RDK/src/tensorflow_lite/src/tensorflow/lite/kernels/internal\cppmath.h **** WITHOUT WARRANTIES OR CONDITIONS OF ANY KIND, either express or implied.
  12:C:/Renesas/e2studio_2021_01_workspace_RZA2M_ANPR/ANPR_RZA2M_RDK/src/tensorflow_lite/src/tensorflow/lite/kernels/internal\cppmath.h **** See the License for the specific language governing permissions and
  13:C:/Renesas/e2studio_2021_01_workspace_RZA2M_ANPR/ANPR_RZA2M_RDK/src/tensorflow_lite/src/tensorflow/lite/kernels/internal\cppmath.h **** limitations under the License.
  14:C:/Renesas/e2studio_2021_01_workspace_RZA2M_ANPR/ANPR_RZA2M_RDK/src/tensorflow_lite/src/tensorflow/lite/kernels/internal\cppmath.h **** ==============================================================================*/
  15:C:/Renesas/e2studio_2021_01_workspace_RZA2M_ANPR/ANPR_RZA2M_RDK/src/tensorflow_lite/src/tensorflow/lite/kernels/internal\cppmath.h **** #ifndef TENSORFLOW_LITE_KERNELS_INTERNAL_CPPMATH_H_
  16:C:/Renesas/e2studio_2021_01_workspace_RZA2M_ANPR/ANPR_RZA2M_RDK/src/tensorflow_lite/src/tensorflow/lite/kernels/internal\cppmath.h **** #define TENSORFLOW_LITE_KERNELS_INTERNAL_CPPMATH_H_
  17:C:/Renesas/e2studio_2021_01_workspace_RZA2M_ANPR/ANPR_RZA2M_RDK/src/tensorflow_lite/src/tensorflow/lite/kernels/internal\cppmath.h **** 
  18:C:/Renesas/e2studio_2021_01_workspace_RZA2M_ANPR/ANPR_RZA2M_RDK/src/tensorflow_lite/src/tensorflow/lite/kernels/internal\cppmath.h **** #include <cmath>
  19:C:/Renesas/e2studio_2021_01_workspace_RZA2M_ANPR/ANPR_RZA2M_RDK/src/tensorflow_lite/src/tensorflow/lite/kernels/internal\cppmath.h **** 
  20:C:/Renesas/e2studio_2021_01_workspace_RZA2M_ANPR/ANPR_RZA2M_RDK/src/tensorflow_lite/src/tensorflow/lite/kernels/internal\cppmath.h **** namespace tflite {
  21:C:/Renesas/e2studio_2021_01_workspace_RZA2M_ANPR/ANPR_RZA2M_RDK/src/tensorflow_lite/src/tensorflow/lite/kernels/internal\cppmath.h **** 
  22:C:/Renesas/e2studio_2021_01_workspace_RZA2M_ANPR/ANPR_RZA2M_RDK/src/tensorflow_lite/src/tensorflow/lite/kernels/internal\cppmath.h **** #if defined(TF_LITE_USE_GLOBAL_CMATH_FUNCTIONS) ||                           \
  23:C:/Renesas/e2studio_2021_01_workspace_RZA2M_ANPR/ANPR_RZA2M_RDK/src/tensorflow_lite/src/tensorflow/lite/kernels/internal\cppmath.h ****     (defined(__ANDROID__) && !defined(__NDK_MAJOR__)) || defined(ARDUINO) || \
  24:C:/Renesas/e2studio_2021_01_workspace_RZA2M_ANPR/ANPR_RZA2M_RDK/src/tensorflow_lite/src/tensorflow/lite/kernels/internal\cppmath.h ****     defined(__ZEPHYR__)
  25:C:/Renesas/e2studio_2021_01_workspace_RZA2M_ANPR/ANPR_RZA2M_RDK/src/tensorflow_lite/src/tensorflow/lite/kernels/internal\cppmath.h **** #define TF_LITE_GLOBAL_STD_PREFIX
  26:C:/Renesas/e2studio_2021_01_workspace_RZA2M_ANPR/ANPR_RZA2M_RDK/src/tensorflow_lite/src/tensorflow/lite/kernels/internal\cppmath.h **** #else
  27:C:/Renesas/e2studio_2021_01_workspace_RZA2M_ANPR/ANPR_RZA2M_RDK/src/tensorflow_lite/src/tensorflow/lite/kernels/internal\cppmath.h **** #define TF_LITE_GLOBAL_STD_PREFIX std
  28:C:/Renesas/e2studio_2021_01_workspace_RZA2M_ANPR/ANPR_RZA2M_RDK/src/tensorflow_lite/src/tensorflow/lite/kernels/internal\cppmath.h **** #endif
  29:C:/Renesas/e2studio_2021_01_workspace_RZA2M_ANPR/ANPR_RZA2M_RDK/src/tensorflow_lite/src/tensorflow/lite/kernels/internal\cppmath.h **** 
  30:C:/Renesas/e2studio_2021_01_workspace_RZA2M_ANPR/ANPR_RZA2M_RDK/src/tensorflow_lite/src/tensorflow/lite/kernels/internal\cppmath.h **** #define DECLARE_STD_GLOBAL_SWITCH1(tf_name, std_name) \
  31:C:/Renesas/e2studio_2021_01_workspace_RZA2M_ANPR/ANPR_RZA2M_RDK/src/tensorflow_lite/src/tensorflow/lite/kernels/internal\cppmath.h ****   template <class T>                                  \
  32:C:/Renesas/e2studio_2021_01_workspace_RZA2M_ANPR/ANPR_RZA2M_RDK/src/tensorflow_lite/src/tensorflow/lite/kernels/internal\cppmath.h ****   inline T tf_name(const T x) {                       \
  33:C:/Renesas/e2studio_2021_01_workspace_RZA2M_ANPR/ANPR_RZA2M_RDK/src/tensorflow_lite/src/tensorflow/lite/kernels/internal\cppmath.h ****     return TF_LITE_GLOBAL_STD_PREFIX::std_name(x);    \
  34:C:/Renesas/e2studio_2021_01_workspace_RZA2M_ANPR/ANPR_RZA2M_RDK/src/tensorflow_lite/src/tensorflow/lite/kernels/internal\cppmath.h ****   }
  35:C:/Renesas/e2studio_2021_01_workspace_RZA2M_ANPR/ANPR_RZA2M_RDK/src/tensorflow_lite/src/tensorflow/lite/kernels/internal\cppmath.h **** 
  36:C:/Renesas/e2studio_2021_01_workspace_RZA2M_ANPR/ANPR_RZA2M_RDK/src/tensorflow_lite/src/tensorflow/lite/kernels/internal\cppmath.h **** DECLARE_STD_GLOBAL_SWITCH1(TfLiteRound, round);
 237              		.loc 3 36 0
 238 011c 200B20EE 		vmul.f64	d0, d0, d16
 239              	.LVL23:
 240 0120 FEFFFFEB 		bl	round
 241              	.LVL24:
 242              	.LBE2169:
 243              	.LBE2168:
  67:../src/tensorflow_lite/src/tensorflow/lite/micro/kernels/tanh.cpp **** 
 244              		.loc 1 67 0
 245 0124 C00BBDEE 		vcvt.s32.f64	s0, d0
  70:../src/tensorflow_lite/src/tensorflow/lite/micro/kernels/tanh.cpp ****   }
 246              		.loc 1 70 0
 247 0128 1F20A0E3 		mov	r2, #31
 248 012c 0C1097E5 		ldr	r1, [r7, #12]
 249 0130 0400A0E3 		mov	r0, #4
  67:../src/tensorflow_lite/src/tensorflow/lite/micro/kernels/tanh.cpp **** 
 250              		.loc 1 67 0
 251 0134 020A87ED 		vstr.32	s0, [r7, #8]	@ int
  70:../src/tensorflow_lite/src/tensorflow/lite/micro/kernels/tanh.cpp ****   }
 252              		.loc 1 70 0
 253 0138 FEFFFFEB 		bl	_ZN6tflite20CalculateInputRadiusEiii
 254              	.LVL25:
  69:../src/tensorflow_lite/src/tensorflow/lite/micro/kernels/tanh.cpp ****         CalculateInputRadius(kInputIntegerBits, data->input_left_shift, 31);
 255              		.loc 1 69 0
 256 013c 040087E5 		str	r0, [r7, #4]
 257 0140 D4FFFFEA 		b	.L11
 258              	.LVL26:
 259              	.L21:
 260              	.LBE2170:
 261              	.LBE2172:
  51:../src/tensorflow_lite/src/tensorflow/lite/micro/kernels/tanh.cpp ****   TF_LITE_ENSURE_EQ(context, NumOutputs(node), 1);
 262              		.loc 1 51 0
 263 0144 000000E3 		movw	r0, #:lower16:.LC5
 264              	.LVL27:
 265 0148 003000E3 		movw	r3, #:lower16:.LC6
 266 014c 0140A0E3 		mov	r4, #1
 267 0150 000040E3 		movt	r0, #:upper16:.LC5
 268 0154 003040E3 		movt	r3, #:upper16:.LC6
 269 0158 002000E3 		movw	r2, #:lower16:.LC1
 270 015c 001000E3 		movw	r1, #:lower16:.LC4
 271 0160 01018DE9 		stmib	sp, {r0, r8}
 272 0164 00308DE5 		str	r3, [sp]
 273 0168 0600A0E1 		mov	r0, r6
 274 016c 0C408DE5 		str	r4, [sp, #12]
 275 0170 002040E3 		movt	r2, #:upper16:.LC1
 276 0174 001040E3 		movt	r1, #:upper16:.LC4
 277 0178 145096E5 		ldr	r5, [r6, #20]
 278              	.LVL28:
 279 017c 3330A0E3 		mov	r3, #51
 280 0180 35FF2FE1 		blx	r5
 281              	.LVL29:
 282              	.LBE2175:
 283              	.LBE2179:
 284              		.loc 1 84 0
 285 0184 0400A0E1 		mov	r0, r4
 286 0188 10D08DE2 		add	sp, sp, #16
 287              		.cfi_remember_state
 288              		.cfi_def_cfa_offset 24
 289              		@ sp needed
 290 018c F081BDE8 		pop	{r4, r5, r6, r7, r8, pc}
 291              	.LVL30:
 292              	.L20:
 293              		.cfi_restore_state
 294              	.LBB2180:
 295              	.LBB2181:
  81:../src/tensorflow_lite/src/tensorflow/lite/micro/kernels/tanh.cpp ****   data->input_zero_point = input->params.zero_point;
 296              		.loc 1 81 0
 297 0190 003000E3 		movw	r3, #:lower16:.LC3
 298 0194 002000E3 		movw	r2, #:lower16:.LC1
 299 0198 003040E3 		movt	r3, #:upper16:.LC3
 300 019c 001000E3 		movw	r1, #:lower16:.LC2
 301 01a0 00308DE5 		str	r3, [sp]
 302 01a4 0600A0E1 		mov	r0, r6
 303              	.LVL31:
 304 01a8 144096E5 		ldr	r4, [r6, #20]
 305 01ac 002040E3 		movt	r2, #:upper16:.LC1
 306 01b0 001040E3 		movt	r1, #:upper16:.LC2
 307 01b4 5130A0E3 		mov	r3, #81
 308 01b8 34FF2FE1 		blx	r4
 309              	.LVL32:
 310 01bc 0140A0E3 		mov	r4, #1
 311              	.LBE2181:
 312              	.LBE2180:
 313              		.loc 1 84 0
 314 01c0 0400A0E1 		mov	r0, r4
 315 01c4 10D08DE2 		add	sp, sp, #16
 316              		.cfi_remember_state
 317              		.cfi_def_cfa_offset 24
 318              		@ sp needed
 319 01c8 F081BDE8 		pop	{r4, r5, r6, r7, r8, pc}
 320              	.LVL33:
 321              	.L24:
 322              		.cfi_restore_state
 323              	.LBB2182:
 324              	.LBB2176:
  58:../src/tensorflow_lite/src/tensorflow/lite/micro/kernels/tanh.cpp **** 
 325              		.loc 1 58 0
 326 01cc 147096E5 		ldr	r7, [r6, #20]
 327              	.LVL34:
 328 01d0 FEFFFFEB 		bl	TfLiteTypeGetName
 329              	.LVL35:
 330 01d4 0080A0E1 		mov	r8, r0
 331              	.LVL36:
 332 01d8 0000D5E5 		ldrb	r0, [r5]	@ zero_extendqisi2
 333 01dc FEFFFFEB 		bl	TfLiteTypeGetName
 334              	.LVL37:
 335 01e0 00C000E3 		movw	ip, #:lower16:.LC10
 336 01e4 003000E3 		movw	r3, #:lower16:.LC11
 337 01e8 00C040E3 		movt	ip, #:upper16:.LC10
 338 01ec 003040E3 		movt	r3, #:upper16:.LC11
 339 01f0 002000E3 		movw	r2, #:lower16:.LC1
 340 01f4 001000E3 		movw	r1, #:lower16:.LC9
 341 01f8 0C008DE5 		str	r0, [sp, #12]
 342 01fc 002040E3 		movt	r2, #:upper16:.LC1
 343 0200 08108DE8 		stm	sp, {r3, ip}
 344 0204 0600A0E1 		mov	r0, r6
 345 0208 08808DE5 		str	r8, [sp, #8]
 346 020c 001040E3 		movt	r1, #:upper16:.LC9
 347 0210 3A30A0E3 		mov	r3, #58
 348 0214 37FF2FE1 		blx	r7
 349              	.LVL38:
 350 0218 9EFFFFEA 		b	.L11
 351              	.LVL39:
 352              	.L22:
  54:../src/tensorflow_lite/src/tensorflow/lite/micro/kernels/tanh.cpp ****   TfLiteTensor* output = GetOutput(context, node, kOutputTensor);
 353              		.loc 1 54 0
 354 021c 003000E3 		movw	r3, #:lower16:.LC3
 355 0220 002000E3 		movw	r2, #:lower16:.LC1
 356 0224 003040E3 		movt	r3, #:upper16:.LC3
 357 0228 001000E3 		movw	r1, #:lower16:.LC2
 358 022c 00308DE5 		str	r3, [sp]
 359 0230 002040E3 		movt	r2, #:upper16:.LC1
 360 0234 001040E3 		movt	r1, #:upper16:.LC2
 361 0238 145096E5 		ldr	r5, [r6, #20]
 362              	.LVL40:
 363 023c 0600A0E1 		mov	r0, r6
 364              	.LVL41:
 365 0240 3630A0E3 		mov	r3, #54
 366 0244 35FF2FE1 		blx	r5
 367              	.LVL42:
 368 0248 92FFFFEA 		b	.L11
 369              	.LVL43:
 370              	.L23:
  56:../src/tensorflow_lite/src/tensorflow/lite/micro/kernels/tanh.cpp **** 
 371              		.loc 1 56 0
 372 024c 003000E3 		movw	r3, #:lower16:.LC8
 373 0250 002000E3 		movw	r2, #:lower16:.LC1
 374 0254 003040E3 		movt	r3, #:upper16:.LC8
 375 0258 001000E3 		movw	r1, #:lower16:.LC2
 376 025c 00308DE5 		str	r3, [sp]
 377 0260 002040E3 		movt	r2, #:upper16:.LC1
 378 0264 001040E3 		movt	r1, #:upper16:.LC2
 379 0268 145096E5 		ldr	r5, [r6, #20]
 380 026c 0600A0E1 		mov	r0, r6
 381              	.LVL44:
 382 0270 3830A0E3 		mov	r3, #56
 383 0274 35FF2FE1 		blx	r5
 384              	.LVL45:
 385 0278 86FFFFEA 		b	.L11
 386              	.LVL46:
 387              	.L19:
 388              	.LBE2176:
 389              	.LBE2182:
  76:../src/tensorflow_lite/src/tensorflow/lite/micro/kernels/tanh.cpp **** 
 390              		.loc 1 76 0 discriminator 1
 391 027c FEFFFFEB 		bl	abort
 392              	.LVL47:
 393              	.L26:
 394              		.align	3
 395              	.L25:
 396 0280 00000000 		.word	0
 397 0284 0000A041 		.word	1101004800
 398 0288 00000000 		.word	0
 399 028c 0000E041 		.word	1105199104
 400              		.cfi_endproc
 401              	.LFE4182:
 402              		.fnend
 404              		.section	.text._ZN6tflite3ops5micro13Register_TANHEv,"ax",%progbits
 405              		.align	2
 406              		.global	_ZN6tflite3ops5micro13Register_TANHEv
 407              		.syntax unified
 408              		.arm
 409              		.fpu neon
 411              	_ZN6tflite3ops5micro13Register_TANHEv:
 412              		.fnstart
 413              	.LFB4184:
  85:../src/tensorflow_lite/src/tensorflow/lite/micro/kernels/tanh.cpp **** 
  86:../src/tensorflow_lite/src/tensorflow/lite/micro/kernels/tanh.cpp **** }  // namespace
  87:../src/tensorflow_lite/src/tensorflow/lite/micro/kernels/tanh.cpp **** 
  88:../src/tensorflow_lite/src/tensorflow/lite/micro/kernels/tanh.cpp **** TfLiteStatus TanhEval(TfLiteContext* context, TfLiteNode* node) {
  89:../src/tensorflow_lite/src/tensorflow/lite/micro/kernels/tanh.cpp ****   const TfLiteEvalTensor* input =
  90:../src/tensorflow_lite/src/tensorflow/lite/micro/kernels/tanh.cpp ****       tflite::micro::GetEvalInput(context, node, kInputTensor);
  91:../src/tensorflow_lite/src/tensorflow/lite/micro/kernels/tanh.cpp ****   TfLiteEvalTensor* output =
  92:../src/tensorflow_lite/src/tensorflow/lite/micro/kernels/tanh.cpp ****       tflite::micro::GetEvalOutput(context, node, kOutputTensor);
  93:../src/tensorflow_lite/src/tensorflow/lite/micro/kernels/tanh.cpp **** 
  94:../src/tensorflow_lite/src/tensorflow/lite/micro/kernels/tanh.cpp ****   TFLITE_DCHECK(node->user_data != nullptr);
  95:../src/tensorflow_lite/src/tensorflow/lite/micro/kernels/tanh.cpp ****   const OpData& data = *(static_cast<const OpData*>(node->user_data));
  96:../src/tensorflow_lite/src/tensorflow/lite/micro/kernels/tanh.cpp **** 
  97:../src/tensorflow_lite/src/tensorflow/lite/micro/kernels/tanh.cpp ****   switch (input->type) {
  98:../src/tensorflow_lite/src/tensorflow/lite/micro/kernels/tanh.cpp ****     case kTfLiteFloat32: {
  99:../src/tensorflow_lite/src/tensorflow/lite/micro/kernels/tanh.cpp ****       reference_ops::Tanh(tflite::micro::GetTensorShape(input),
 100:../src/tensorflow_lite/src/tensorflow/lite/micro/kernels/tanh.cpp ****                           tflite::micro::GetTensorData<float>(input),
 101:../src/tensorflow_lite/src/tensorflow/lite/micro/kernels/tanh.cpp ****                           tflite::micro::GetTensorShape(output),
 102:../src/tensorflow_lite/src/tensorflow/lite/micro/kernels/tanh.cpp ****                           tflite::micro::GetTensorData<float>(output));
 103:../src/tensorflow_lite/src/tensorflow/lite/micro/kernels/tanh.cpp ****       return kTfLiteOk;
 104:../src/tensorflow_lite/src/tensorflow/lite/micro/kernels/tanh.cpp ****     } break;
 105:../src/tensorflow_lite/src/tensorflow/lite/micro/kernels/tanh.cpp ****     case kTfLiteInt16: {
 106:../src/tensorflow_lite/src/tensorflow/lite/micro/kernels/tanh.cpp ****       TanhParams params;
 107:../src/tensorflow_lite/src/tensorflow/lite/micro/kernels/tanh.cpp ****       params.input_left_shift = data.input_left_shift;
 108:../src/tensorflow_lite/src/tensorflow/lite/micro/kernels/tanh.cpp ****       reference_ops::Tanh(params, tflite::micro::GetTensorShape(input),
 109:../src/tensorflow_lite/src/tensorflow/lite/micro/kernels/tanh.cpp ****                           tflite::micro::GetTensorData<int16_t>(input),
 110:../src/tensorflow_lite/src/tensorflow/lite/micro/kernels/tanh.cpp ****                           tflite::micro::GetTensorShape(output),
 111:../src/tensorflow_lite/src/tensorflow/lite/micro/kernels/tanh.cpp ****                           tflite::micro::GetTensorData<int16_t>(output));
 112:../src/tensorflow_lite/src/tensorflow/lite/micro/kernels/tanh.cpp ****       return kTfLiteOk;
 113:../src/tensorflow_lite/src/tensorflow/lite/micro/kernels/tanh.cpp ****     } break;
 114:../src/tensorflow_lite/src/tensorflow/lite/micro/kernels/tanh.cpp ****     case kTfLiteUInt8: {
 115:../src/tensorflow_lite/src/tensorflow/lite/micro/kernels/tanh.cpp ****       TanhParams params;
 116:../src/tensorflow_lite/src/tensorflow/lite/micro/kernels/tanh.cpp ****       params.input_zero_point = data.input_zero_point;
 117:../src/tensorflow_lite/src/tensorflow/lite/micro/kernels/tanh.cpp ****       params.input_range_radius = data.input_range_radius;
 118:../src/tensorflow_lite/src/tensorflow/lite/micro/kernels/tanh.cpp ****       params.input_multiplier = data.input_multiplier;
 119:../src/tensorflow_lite/src/tensorflow/lite/micro/kernels/tanh.cpp ****       params.input_left_shift = data.input_left_shift;
 120:../src/tensorflow_lite/src/tensorflow/lite/micro/kernels/tanh.cpp ****       reference_ops::Tanh(params, tflite::micro::GetTensorShape(input),
 121:../src/tensorflow_lite/src/tensorflow/lite/micro/kernels/tanh.cpp ****                           tflite::micro::GetTensorData<uint8_t>(input),
 122:../src/tensorflow_lite/src/tensorflow/lite/micro/kernels/tanh.cpp ****                           tflite::micro::GetTensorShape(output),
 123:../src/tensorflow_lite/src/tensorflow/lite/micro/kernels/tanh.cpp ****                           tflite::micro::GetTensorData<uint8_t>(output));
 124:../src/tensorflow_lite/src/tensorflow/lite/micro/kernels/tanh.cpp **** 
 125:../src/tensorflow_lite/src/tensorflow/lite/micro/kernels/tanh.cpp ****       return kTfLiteOk;
 126:../src/tensorflow_lite/src/tensorflow/lite/micro/kernels/tanh.cpp ****     } break;
 127:../src/tensorflow_lite/src/tensorflow/lite/micro/kernels/tanh.cpp ****     case kTfLiteInt8: {
 128:../src/tensorflow_lite/src/tensorflow/lite/micro/kernels/tanh.cpp ****       reference_integer_ops::Tanh(
 129:../src/tensorflow_lite/src/tensorflow/lite/micro/kernels/tanh.cpp ****           data.input_zero_point, data.input_range_radius, data.input_multiplier,
 130:../src/tensorflow_lite/src/tensorflow/lite/micro/kernels/tanh.cpp ****           data.input_left_shift, tflite::micro::GetTensorShape(input),
 131:../src/tensorflow_lite/src/tensorflow/lite/micro/kernels/tanh.cpp ****           tflite::micro::GetTensorData<int8_t>(input),
 132:../src/tensorflow_lite/src/tensorflow/lite/micro/kernels/tanh.cpp ****           tflite::micro::GetTensorShape(output),
 133:../src/tensorflow_lite/src/tensorflow/lite/micro/kernels/tanh.cpp ****           tflite::micro::GetTensorData<int8_t>(output));
 134:../src/tensorflow_lite/src/tensorflow/lite/micro/kernels/tanh.cpp ****       return kTfLiteOk;
 135:../src/tensorflow_lite/src/tensorflow/lite/micro/kernels/tanh.cpp ****     } break;
 136:../src/tensorflow_lite/src/tensorflow/lite/micro/kernels/tanh.cpp ****     default:
 137:../src/tensorflow_lite/src/tensorflow/lite/micro/kernels/tanh.cpp ****       TF_LITE_KERNEL_LOG(context, "Input %s, output %s not supported.",
 138:../src/tensorflow_lite/src/tensorflow/lite/micro/kernels/tanh.cpp ****                          TfLiteTypeGetName(input->type),
 139:../src/tensorflow_lite/src/tensorflow/lite/micro/kernels/tanh.cpp ****                          TfLiteTypeGetName(output->type));
 140:../src/tensorflow_lite/src/tensorflow/lite/micro/kernels/tanh.cpp ****       return kTfLiteError;
 141:../src/tensorflow_lite/src/tensorflow/lite/micro/kernels/tanh.cpp ****   }
 142:../src/tensorflow_lite/src/tensorflow/lite/micro/kernels/tanh.cpp **** }
 143:../src/tensorflow_lite/src/tensorflow/lite/micro/kernels/tanh.cpp **** 
 144:../src/tensorflow_lite/src/tensorflow/lite/micro/kernels/tanh.cpp **** }  // namespace activations
 145:../src/tensorflow_lite/src/tensorflow/lite/micro/kernels/tanh.cpp **** 
 146:../src/tensorflow_lite/src/tensorflow/lite/micro/kernels/tanh.cpp **** TfLiteRegistration Register_TANH() {
 414              		.loc 1 146 0
 415              		.cfi_startproc
 416              		@ args = 0, pretend = 0, frame = 0
 417              		@ frame_needed = 0, uses_anonymous_args = 0
 418              	.LVL48:
 147:../src/tensorflow_lite/src/tensorflow/lite/micro/kernels/tanh.cpp ****   return {/*init=*/activations::TanhInit,
 148:../src/tensorflow_lite/src/tensorflow/lite/micro/kernels/tanh.cpp ****           /*free=*/nullptr,
 149:../src/tensorflow_lite/src/tensorflow/lite/micro/kernels/tanh.cpp ****           /*prepare=*/activations::TanhPrepare,
 150:../src/tensorflow_lite/src/tensorflow/lite/micro/kernels/tanh.cpp ****           /*invoke=*/activations::TanhEval,
 151:../src/tensorflow_lite/src/tensorflow/lite/micro/kernels/tanh.cpp ****           /*profiling_string=*/nullptr,
 152:../src/tensorflow_lite/src/tensorflow/lite/micro/kernels/tanh.cpp ****           /*builtin_code=*/0,
 153:../src/tensorflow_lite/src/tensorflow/lite/micro/kernels/tanh.cpp ****           /*custom_name=*/nullptr,
 154:../src/tensorflow_lite/src/tensorflow/lite/micro/kernels/tanh.cpp ****           /*version=*/0};
 419              		.loc 1 154 0
 420 0000 00C000E3 		movw	ip, #:lower16:.LANCHOR0
 146:../src/tensorflow_lite/src/tensorflow/lite/micro/kernels/tanh.cpp ****   return {/*init=*/activations::TanhInit,
 421              		.loc 1 146 0
 422 0004 10402DE9 		push	{r4, lr}
 423              		.cfi_def_cfa_offset 8
 424              		.cfi_offset 4, -8
 425              		.cfi_offset 14, -4
 426              		.loc 1 154 0
 427 0008 00C040E3 		movt	ip, #:upper16:.LANCHOR0
 146:../src/tensorflow_lite/src/tensorflow/lite/micro/kernels/tanh.cpp ****   return {/*init=*/activations::TanhInit,
 428              		.loc 1 146 0
 429 000c 0040A0E1 		mov	r4, r0
 430              		.loc 1 154 0
 431 0010 00E0A0E1 		mov	lr, r0
 432 0014 0F00BCE8 		ldmia	ip!, {r0, r1, r2, r3}
 433              	.LVL49:
 434 0018 0F00AEE8 		stmia	lr!, {r0, r1, r2, r3}
 435 001c 0F009CE8 		ldm	ip, {r0, r1, r2, r3}
 436 0020 0F008EE8 		stm	lr, {r0, r1, r2, r3}
 155:../src/tensorflow_lite/src/tensorflow/lite/micro/kernels/tanh.cpp **** }
 437              		.loc 1 155 0
 438 0024 0400A0E1 		mov	r0, r4
 439 0028 1080BDE8 		pop	{r4, pc}
 440              		.cfi_endproc
 441              	.LFE4184:
 442              		.cantunwind
 443              		.fnend
 445              		.section	.text._ZN8gemmlowp40one_minus_x_over_one_plus_x_for_x_in_0_1IlEENS_10FixedPointIT_Li0EEES
 446              		.align	2
 447              		.weak	_ZN8gemmlowp40one_minus_x_over_one_plus_x_for_x_in_0_1IlEENS_10FixedPointIT_Li0EEES3_
 448              		.syntax unified
 449              		.arm
 450              		.fpu neon
 452              	_ZN8gemmlowp40one_minus_x_over_one_plus_x_for_x_in_0_1IlEENS_10FixedPointIT_Li0EEES3_:
 453              		.fnstart
 454              	.LFB4520:
 455              		.file 4 "C:/Renesas/e2studio_2021_01_workspace_RZA2M_ANPR/ANPR_RZA2M_RDK/src/tensorflow_lite/src/t
   1:C:/Renesas/e2studio_2021_01_workspace_RZA2M_ANPR/ANPR_RZA2M_RDK/src/tensorflow_lite/src/third_party/gemmlowp/fixedpoint\fixedpoint.h **** // Copyright 2015 The Gemmlowp Authors. All Rights Reserved.
   2:C:/Renesas/e2studio_2021_01_workspace_RZA2M_ANPR/ANPR_RZA2M_RDK/src/tensorflow_lite/src/third_party/gemmlowp/fixedpoint\fixedpoint.h **** //
   3:C:/Renesas/e2studio_2021_01_workspace_RZA2M_ANPR/ANPR_RZA2M_RDK/src/tensorflow_lite/src/third_party/gemmlowp/fixedpoint\fixedpoint.h **** // Licensed under the Apache License, Version 2.0 (the "License");
   4:C:/Renesas/e2studio_2021_01_workspace_RZA2M_ANPR/ANPR_RZA2M_RDK/src/tensorflow_lite/src/third_party/gemmlowp/fixedpoint\fixedpoint.h **** // you may not use this file except in compliance with the License.
   5:C:/Renesas/e2studio_2021_01_workspace_RZA2M_ANPR/ANPR_RZA2M_RDK/src/tensorflow_lite/src/third_party/gemmlowp/fixedpoint\fixedpoint.h **** // You may obtain a copy of the License at
   6:C:/Renesas/e2studio_2021_01_workspace_RZA2M_ANPR/ANPR_RZA2M_RDK/src/tensorflow_lite/src/third_party/gemmlowp/fixedpoint\fixedpoint.h **** //
   7:C:/Renesas/e2studio_2021_01_workspace_RZA2M_ANPR/ANPR_RZA2M_RDK/src/tensorflow_lite/src/third_party/gemmlowp/fixedpoint\fixedpoint.h **** //     http://www.apache.org/licenses/LICENSE-2.0
   8:C:/Renesas/e2studio_2021_01_workspace_RZA2M_ANPR/ANPR_RZA2M_RDK/src/tensorflow_lite/src/third_party/gemmlowp/fixedpoint\fixedpoint.h **** //
   9:C:/Renesas/e2studio_2021_01_workspace_RZA2M_ANPR/ANPR_RZA2M_RDK/src/tensorflow_lite/src/third_party/gemmlowp/fixedpoint\fixedpoint.h **** // Unless required by applicable law or agreed to in writing, software
  10:C:/Renesas/e2studio_2021_01_workspace_RZA2M_ANPR/ANPR_RZA2M_RDK/src/tensorflow_lite/src/third_party/gemmlowp/fixedpoint\fixedpoint.h **** // distributed under the License is distributed on an "AS IS" BASIS,
  11:C:/Renesas/e2studio_2021_01_workspace_RZA2M_ANPR/ANPR_RZA2M_RDK/src/tensorflow_lite/src/third_party/gemmlowp/fixedpoint\fixedpoint.h **** // WITHOUT WARRANTIES OR CONDITIONS OF ANY KIND, either express or implied.
  12:C:/Renesas/e2studio_2021_01_workspace_RZA2M_ANPR/ANPR_RZA2M_RDK/src/tensorflow_lite/src/third_party/gemmlowp/fixedpoint\fixedpoint.h **** // See the License for the specific language governing permissions and
  13:C:/Renesas/e2studio_2021_01_workspace_RZA2M_ANPR/ANPR_RZA2M_RDK/src/tensorflow_lite/src/third_party/gemmlowp/fixedpoint\fixedpoint.h **** // limitations under the License.
  14:C:/Renesas/e2studio_2021_01_workspace_RZA2M_ANPR/ANPR_RZA2M_RDK/src/tensorflow_lite/src/third_party/gemmlowp/fixedpoint\fixedpoint.h **** 
  15:C:/Renesas/e2studio_2021_01_workspace_RZA2M_ANPR/ANPR_RZA2M_RDK/src/tensorflow_lite/src/third_party/gemmlowp/fixedpoint\fixedpoint.h **** // fixedpoint.h: fixed-point arithmetic, with basic operations and
  16:C:/Renesas/e2studio_2021_01_workspace_RZA2M_ANPR/ANPR_RZA2M_RDK/src/tensorflow_lite/src/third_party/gemmlowp/fixedpoint\fixedpoint.h **** // a few math functions such as tanh.
  17:C:/Renesas/e2studio_2021_01_workspace_RZA2M_ANPR/ANPR_RZA2M_RDK/src/tensorflow_lite/src/third_party/gemmlowp/fixedpoint\fixedpoint.h **** 
  18:C:/Renesas/e2studio_2021_01_workspace_RZA2M_ANPR/ANPR_RZA2M_RDK/src/tensorflow_lite/src/third_party/gemmlowp/fixedpoint\fixedpoint.h **** #ifndef GEMMLOWP_INTERNAL_FIXEDPOINT_H_
  19:C:/Renesas/e2studio_2021_01_workspace_RZA2M_ANPR/ANPR_RZA2M_RDK/src/tensorflow_lite/src/third_party/gemmlowp/fixedpoint\fixedpoint.h **** #define GEMMLOWP_INTERNAL_FIXEDPOINT_H_
  20:C:/Renesas/e2studio_2021_01_workspace_RZA2M_ANPR/ANPR_RZA2M_RDK/src/tensorflow_lite/src/third_party/gemmlowp/fixedpoint\fixedpoint.h **** 
  21:C:/Renesas/e2studio_2021_01_workspace_RZA2M_ANPR/ANPR_RZA2M_RDK/src/tensorflow_lite/src/third_party/gemmlowp/fixedpoint\fixedpoint.h **** #include <algorithm>
  22:C:/Renesas/e2studio_2021_01_workspace_RZA2M_ANPR/ANPR_RZA2M_RDK/src/tensorflow_lite/src/third_party/gemmlowp/fixedpoint\fixedpoint.h **** #include <cassert>
  23:C:/Renesas/e2studio_2021_01_workspace_RZA2M_ANPR/ANPR_RZA2M_RDK/src/tensorflow_lite/src/third_party/gemmlowp/fixedpoint\fixedpoint.h **** #include <cmath>
  24:C:/Renesas/e2studio_2021_01_workspace_RZA2M_ANPR/ANPR_RZA2M_RDK/src/tensorflow_lite/src/third_party/gemmlowp/fixedpoint\fixedpoint.h **** #include <cstdint>
  25:C:/Renesas/e2studio_2021_01_workspace_RZA2M_ANPR/ANPR_RZA2M_RDK/src/tensorflow_lite/src/third_party/gemmlowp/fixedpoint\fixedpoint.h **** #include <limits>
  26:C:/Renesas/e2studio_2021_01_workspace_RZA2M_ANPR/ANPR_RZA2M_RDK/src/tensorflow_lite/src/third_party/gemmlowp/fixedpoint\fixedpoint.h **** 
  27:C:/Renesas/e2studio_2021_01_workspace_RZA2M_ANPR/ANPR_RZA2M_RDK/src/tensorflow_lite/src/third_party/gemmlowp/fixedpoint\fixedpoint.h **** #include "../internal/detect_platform.h"
  28:C:/Renesas/e2studio_2021_01_workspace_RZA2M_ANPR/ANPR_RZA2M_RDK/src/tensorflow_lite/src/third_party/gemmlowp/fixedpoint\fixedpoint.h **** 
  29:C:/Renesas/e2studio_2021_01_workspace_RZA2M_ANPR/ANPR_RZA2M_RDK/src/tensorflow_lite/src/third_party/gemmlowp/fixedpoint\fixedpoint.h **** namespace gemmlowp {
  30:C:/Renesas/e2studio_2021_01_workspace_RZA2M_ANPR/ANPR_RZA2M_RDK/src/tensorflow_lite/src/third_party/gemmlowp/fixedpoint\fixedpoint.h **** 
  31:C:/Renesas/e2studio_2021_01_workspace_RZA2M_ANPR/ANPR_RZA2M_RDK/src/tensorflow_lite/src/third_party/gemmlowp/fixedpoint\fixedpoint.h **** // Part 1: Low-level integer-arithmetic primitives.
  32:C:/Renesas/e2studio_2021_01_workspace_RZA2M_ANPR/ANPR_RZA2M_RDK/src/tensorflow_lite/src/third_party/gemmlowp/fixedpoint\fixedpoint.h **** // The implementations here are generic implementations valid for
  33:C:/Renesas/e2studio_2021_01_workspace_RZA2M_ANPR/ANPR_RZA2M_RDK/src/tensorflow_lite/src/third_party/gemmlowp/fixedpoint\fixedpoint.h **** // scalar types (e.g. std::int32_t). Architecture-specific SIMD types
  34:C:/Renesas/e2studio_2021_01_workspace_RZA2M_ANPR/ANPR_RZA2M_RDK/src/tensorflow_lite/src/third_party/gemmlowp/fixedpoint\fixedpoint.h **** // (e.g. NEON int32x4_t) may be supported by providing
  35:C:/Renesas/e2studio_2021_01_workspace_RZA2M_ANPR/ANPR_RZA2M_RDK/src/tensorflow_lite/src/third_party/gemmlowp/fixedpoint\fixedpoint.h **** // specializations for them in separate files.
  36:C:/Renesas/e2studio_2021_01_workspace_RZA2M_ANPR/ANPR_RZA2M_RDK/src/tensorflow_lite/src/third_party/gemmlowp/fixedpoint\fixedpoint.h **** //
  37:C:/Renesas/e2studio_2021_01_workspace_RZA2M_ANPR/ANPR_RZA2M_RDK/src/tensorflow_lite/src/third_party/gemmlowp/fixedpoint\fixedpoint.h **** // The purpose of these primitives is two-fold:
  38:C:/Renesas/e2studio_2021_01_workspace_RZA2M_ANPR/ANPR_RZA2M_RDK/src/tensorflow_lite/src/third_party/gemmlowp/fixedpoint\fixedpoint.h **** //  - They will be used to implement higher-level fixed-point
  39:C:/Renesas/e2studio_2021_01_workspace_RZA2M_ANPR/ANPR_RZA2M_RDK/src/tensorflow_lite/src/third_party/gemmlowp/fixedpoint\fixedpoint.h **** //    abstractions, namely the FixedPoint class and its arithmetic
  40:C:/Renesas/e2studio_2021_01_workspace_RZA2M_ANPR/ANPR_RZA2M_RDK/src/tensorflow_lite/src/third_party/gemmlowp/fixedpoint\fixedpoint.h **** //    operators.
  41:C:/Renesas/e2studio_2021_01_workspace_RZA2M_ANPR/ANPR_RZA2M_RDK/src/tensorflow_lite/src/third_party/gemmlowp/fixedpoint\fixedpoint.h **** //  - They will be directly used to implement some more involved
  42:C:/Renesas/e2studio_2021_01_workspace_RZA2M_ANPR/ANPR_RZA2M_RDK/src/tensorflow_lite/src/third_party/gemmlowp/fixedpoint\fixedpoint.h **** //    fixed-point computations, e.g. the fixed-point implementation
  43:C:/Renesas/e2studio_2021_01_workspace_RZA2M_ANPR/ANPR_RZA2M_RDK/src/tensorflow_lite/src/third_party/gemmlowp/fixedpoint\fixedpoint.h **** //    of math functions such as tanh.
  44:C:/Renesas/e2studio_2021_01_workspace_RZA2M_ANPR/ANPR_RZA2M_RDK/src/tensorflow_lite/src/third_party/gemmlowp/fixedpoint\fixedpoint.h **** 
  45:C:/Renesas/e2studio_2021_01_workspace_RZA2M_ANPR/ANPR_RZA2M_RDK/src/tensorflow_lite/src/third_party/gemmlowp/fixedpoint\fixedpoint.h **** // Some compile-time traits around raw types to handle SIMD aspects:
  46:C:/Renesas/e2studio_2021_01_workspace_RZA2M_ANPR/ANPR_RZA2M_RDK/src/tensorflow_lite/src/third_party/gemmlowp/fixedpoint\fixedpoint.h **** // number of lanes, underlying scalar type.
  47:C:/Renesas/e2studio_2021_01_workspace_RZA2M_ANPR/ANPR_RZA2M_RDK/src/tensorflow_lite/src/third_party/gemmlowp/fixedpoint\fixedpoint.h **** template <typename tIntegerType>
  48:C:/Renesas/e2studio_2021_01_workspace_RZA2M_ANPR/ANPR_RZA2M_RDK/src/tensorflow_lite/src/third_party/gemmlowp/fixedpoint\fixedpoint.h **** struct FixedPointRawTypeTraits {};
  49:C:/Renesas/e2studio_2021_01_workspace_RZA2M_ANPR/ANPR_RZA2M_RDK/src/tensorflow_lite/src/third_party/gemmlowp/fixedpoint\fixedpoint.h **** 
  50:C:/Renesas/e2studio_2021_01_workspace_RZA2M_ANPR/ANPR_RZA2M_RDK/src/tensorflow_lite/src/third_party/gemmlowp/fixedpoint\fixedpoint.h **** template <>
  51:C:/Renesas/e2studio_2021_01_workspace_RZA2M_ANPR/ANPR_RZA2M_RDK/src/tensorflow_lite/src/third_party/gemmlowp/fixedpoint\fixedpoint.h **** struct FixedPointRawTypeTraits<std::int32_t> {
  52:C:/Renesas/e2studio_2021_01_workspace_RZA2M_ANPR/ANPR_RZA2M_RDK/src/tensorflow_lite/src/third_party/gemmlowp/fixedpoint\fixedpoint.h ****   typedef std::int32_t ScalarRawType;
  53:C:/Renesas/e2studio_2021_01_workspace_RZA2M_ANPR/ANPR_RZA2M_RDK/src/tensorflow_lite/src/third_party/gemmlowp/fixedpoint\fixedpoint.h ****   static constexpr int kLanes = 1;
  54:C:/Renesas/e2studio_2021_01_workspace_RZA2M_ANPR/ANPR_RZA2M_RDK/src/tensorflow_lite/src/third_party/gemmlowp/fixedpoint\fixedpoint.h **** };
  55:C:/Renesas/e2studio_2021_01_workspace_RZA2M_ANPR/ANPR_RZA2M_RDK/src/tensorflow_lite/src/third_party/gemmlowp/fixedpoint\fixedpoint.h **** 
  56:C:/Renesas/e2studio_2021_01_workspace_RZA2M_ANPR/ANPR_RZA2M_RDK/src/tensorflow_lite/src/third_party/gemmlowp/fixedpoint\fixedpoint.h **** template <>
  57:C:/Renesas/e2studio_2021_01_workspace_RZA2M_ANPR/ANPR_RZA2M_RDK/src/tensorflow_lite/src/third_party/gemmlowp/fixedpoint\fixedpoint.h **** struct FixedPointRawTypeTraits<std::int16_t> {
  58:C:/Renesas/e2studio_2021_01_workspace_RZA2M_ANPR/ANPR_RZA2M_RDK/src/tensorflow_lite/src/third_party/gemmlowp/fixedpoint\fixedpoint.h ****   typedef std::int16_t ScalarRawType;
  59:C:/Renesas/e2studio_2021_01_workspace_RZA2M_ANPR/ANPR_RZA2M_RDK/src/tensorflow_lite/src/third_party/gemmlowp/fixedpoint\fixedpoint.h ****   static constexpr int kLanes = 1;
  60:C:/Renesas/e2studio_2021_01_workspace_RZA2M_ANPR/ANPR_RZA2M_RDK/src/tensorflow_lite/src/third_party/gemmlowp/fixedpoint\fixedpoint.h **** };
  61:C:/Renesas/e2studio_2021_01_workspace_RZA2M_ANPR/ANPR_RZA2M_RDK/src/tensorflow_lite/src/third_party/gemmlowp/fixedpoint\fixedpoint.h **** 
  62:C:/Renesas/e2studio_2021_01_workspace_RZA2M_ANPR/ANPR_RZA2M_RDK/src/tensorflow_lite/src/third_party/gemmlowp/fixedpoint\fixedpoint.h **** // Returns a SIMD value duplicating a scalar value across all lanes.
  63:C:/Renesas/e2studio_2021_01_workspace_RZA2M_ANPR/ANPR_RZA2M_RDK/src/tensorflow_lite/src/third_party/gemmlowp/fixedpoint\fixedpoint.h **** template <typename tRawType>
  64:C:/Renesas/e2studio_2021_01_workspace_RZA2M_ANPR/ANPR_RZA2M_RDK/src/tensorflow_lite/src/third_party/gemmlowp/fixedpoint\fixedpoint.h **** tRawType Dup(typename FixedPointRawTypeTraits<tRawType>::ScalarRawType x) {
  65:C:/Renesas/e2studio_2021_01_workspace_RZA2M_ANPR/ANPR_RZA2M_RDK/src/tensorflow_lite/src/third_party/gemmlowp/fixedpoint\fixedpoint.h ****   return x;
  66:C:/Renesas/e2studio_2021_01_workspace_RZA2M_ANPR/ANPR_RZA2M_RDK/src/tensorflow_lite/src/third_party/gemmlowp/fixedpoint\fixedpoint.h **** }
  67:C:/Renesas/e2studio_2021_01_workspace_RZA2M_ANPR/ANPR_RZA2M_RDK/src/tensorflow_lite/src/third_party/gemmlowp/fixedpoint\fixedpoint.h **** 
  68:C:/Renesas/e2studio_2021_01_workspace_RZA2M_ANPR/ANPR_RZA2M_RDK/src/tensorflow_lite/src/third_party/gemmlowp/fixedpoint\fixedpoint.h **** // Plain bit-wise AND
  69:C:/Renesas/e2studio_2021_01_workspace_RZA2M_ANPR/ANPR_RZA2M_RDK/src/tensorflow_lite/src/third_party/gemmlowp/fixedpoint\fixedpoint.h **** template <typename tIntegerType>
  70:C:/Renesas/e2studio_2021_01_workspace_RZA2M_ANPR/ANPR_RZA2M_RDK/src/tensorflow_lite/src/third_party/gemmlowp/fixedpoint\fixedpoint.h **** tIntegerType BitAnd(tIntegerType a, tIntegerType b) {
  71:C:/Renesas/e2studio_2021_01_workspace_RZA2M_ANPR/ANPR_RZA2M_RDK/src/tensorflow_lite/src/third_party/gemmlowp/fixedpoint\fixedpoint.h ****   return a & b;
  72:C:/Renesas/e2studio_2021_01_workspace_RZA2M_ANPR/ANPR_RZA2M_RDK/src/tensorflow_lite/src/third_party/gemmlowp/fixedpoint\fixedpoint.h **** }
  73:C:/Renesas/e2studio_2021_01_workspace_RZA2M_ANPR/ANPR_RZA2M_RDK/src/tensorflow_lite/src/third_party/gemmlowp/fixedpoint\fixedpoint.h **** 
  74:C:/Renesas/e2studio_2021_01_workspace_RZA2M_ANPR/ANPR_RZA2M_RDK/src/tensorflow_lite/src/third_party/gemmlowp/fixedpoint\fixedpoint.h **** // Plain bit-wise OR
  75:C:/Renesas/e2studio_2021_01_workspace_RZA2M_ANPR/ANPR_RZA2M_RDK/src/tensorflow_lite/src/third_party/gemmlowp/fixedpoint\fixedpoint.h **** template <typename tIntegerType>
  76:C:/Renesas/e2studio_2021_01_workspace_RZA2M_ANPR/ANPR_RZA2M_RDK/src/tensorflow_lite/src/third_party/gemmlowp/fixedpoint\fixedpoint.h **** tIntegerType BitOr(tIntegerType a, tIntegerType b) {
  77:C:/Renesas/e2studio_2021_01_workspace_RZA2M_ANPR/ANPR_RZA2M_RDK/src/tensorflow_lite/src/third_party/gemmlowp/fixedpoint\fixedpoint.h ****   return a | b;
  78:C:/Renesas/e2studio_2021_01_workspace_RZA2M_ANPR/ANPR_RZA2M_RDK/src/tensorflow_lite/src/third_party/gemmlowp/fixedpoint\fixedpoint.h **** }
  79:C:/Renesas/e2studio_2021_01_workspace_RZA2M_ANPR/ANPR_RZA2M_RDK/src/tensorflow_lite/src/third_party/gemmlowp/fixedpoint\fixedpoint.h **** 
  80:C:/Renesas/e2studio_2021_01_workspace_RZA2M_ANPR/ANPR_RZA2M_RDK/src/tensorflow_lite/src/third_party/gemmlowp/fixedpoint\fixedpoint.h **** // Plain bit-wise XOR
  81:C:/Renesas/e2studio_2021_01_workspace_RZA2M_ANPR/ANPR_RZA2M_RDK/src/tensorflow_lite/src/third_party/gemmlowp/fixedpoint\fixedpoint.h **** template <typename tIntegerType>
  82:C:/Renesas/e2studio_2021_01_workspace_RZA2M_ANPR/ANPR_RZA2M_RDK/src/tensorflow_lite/src/third_party/gemmlowp/fixedpoint\fixedpoint.h **** tIntegerType BitXor(tIntegerType a, tIntegerType b) {
  83:C:/Renesas/e2studio_2021_01_workspace_RZA2M_ANPR/ANPR_RZA2M_RDK/src/tensorflow_lite/src/third_party/gemmlowp/fixedpoint\fixedpoint.h ****   return a ^ b;
  84:C:/Renesas/e2studio_2021_01_workspace_RZA2M_ANPR/ANPR_RZA2M_RDK/src/tensorflow_lite/src/third_party/gemmlowp/fixedpoint\fixedpoint.h **** }
  85:C:/Renesas/e2studio_2021_01_workspace_RZA2M_ANPR/ANPR_RZA2M_RDK/src/tensorflow_lite/src/third_party/gemmlowp/fixedpoint\fixedpoint.h **** 
  86:C:/Renesas/e2studio_2021_01_workspace_RZA2M_ANPR/ANPR_RZA2M_RDK/src/tensorflow_lite/src/third_party/gemmlowp/fixedpoint\fixedpoint.h **** // Plain bit-wise NOT
  87:C:/Renesas/e2studio_2021_01_workspace_RZA2M_ANPR/ANPR_RZA2M_RDK/src/tensorflow_lite/src/third_party/gemmlowp/fixedpoint\fixedpoint.h **** template <typename tIntegerType>
  88:C:/Renesas/e2studio_2021_01_workspace_RZA2M_ANPR/ANPR_RZA2M_RDK/src/tensorflow_lite/src/third_party/gemmlowp/fixedpoint\fixedpoint.h **** tIntegerType BitNot(tIntegerType a) {
  89:C:/Renesas/e2studio_2021_01_workspace_RZA2M_ANPR/ANPR_RZA2M_RDK/src/tensorflow_lite/src/third_party/gemmlowp/fixedpoint\fixedpoint.h ****   return ~a;
  90:C:/Renesas/e2studio_2021_01_workspace_RZA2M_ANPR/ANPR_RZA2M_RDK/src/tensorflow_lite/src/third_party/gemmlowp/fixedpoint\fixedpoint.h **** }
  91:C:/Renesas/e2studio_2021_01_workspace_RZA2M_ANPR/ANPR_RZA2M_RDK/src/tensorflow_lite/src/third_party/gemmlowp/fixedpoint\fixedpoint.h **** 
  92:C:/Renesas/e2studio_2021_01_workspace_RZA2M_ANPR/ANPR_RZA2M_RDK/src/tensorflow_lite/src/third_party/gemmlowp/fixedpoint\fixedpoint.h **** // Integer addition. Not saturating. Overflow is undefined behavior.
  93:C:/Renesas/e2studio_2021_01_workspace_RZA2M_ANPR/ANPR_RZA2M_RDK/src/tensorflow_lite/src/third_party/gemmlowp/fixedpoint\fixedpoint.h **** template <typename tIntegerType>
  94:C:/Renesas/e2studio_2021_01_workspace_RZA2M_ANPR/ANPR_RZA2M_RDK/src/tensorflow_lite/src/third_party/gemmlowp/fixedpoint\fixedpoint.h **** tIntegerType Add(tIntegerType a, tIntegerType b) {
  95:C:/Renesas/e2studio_2021_01_workspace_RZA2M_ANPR/ANPR_RZA2M_RDK/src/tensorflow_lite/src/third_party/gemmlowp/fixedpoint\fixedpoint.h ****   return a + b;
  96:C:/Renesas/e2studio_2021_01_workspace_RZA2M_ANPR/ANPR_RZA2M_RDK/src/tensorflow_lite/src/third_party/gemmlowp/fixedpoint\fixedpoint.h **** }
  97:C:/Renesas/e2studio_2021_01_workspace_RZA2M_ANPR/ANPR_RZA2M_RDK/src/tensorflow_lite/src/third_party/gemmlowp/fixedpoint\fixedpoint.h **** 
  98:C:/Renesas/e2studio_2021_01_workspace_RZA2M_ANPR/ANPR_RZA2M_RDK/src/tensorflow_lite/src/third_party/gemmlowp/fixedpoint\fixedpoint.h **** // Integer subtraction. Not saturating. Overflow is undefined behavior.
  99:C:/Renesas/e2studio_2021_01_workspace_RZA2M_ANPR/ANPR_RZA2M_RDK/src/tensorflow_lite/src/third_party/gemmlowp/fixedpoint\fixedpoint.h **** template <typename tIntegerType>
 100:C:/Renesas/e2studio_2021_01_workspace_RZA2M_ANPR/ANPR_RZA2M_RDK/src/tensorflow_lite/src/third_party/gemmlowp/fixedpoint\fixedpoint.h **** tIntegerType Mul(tIntegerType a, tIntegerType b) {
 101:C:/Renesas/e2studio_2021_01_workspace_RZA2M_ANPR/ANPR_RZA2M_RDK/src/tensorflow_lite/src/third_party/gemmlowp/fixedpoint\fixedpoint.h ****   return a * b;
 102:C:/Renesas/e2studio_2021_01_workspace_RZA2M_ANPR/ANPR_RZA2M_RDK/src/tensorflow_lite/src/third_party/gemmlowp/fixedpoint\fixedpoint.h **** }
 103:C:/Renesas/e2studio_2021_01_workspace_RZA2M_ANPR/ANPR_RZA2M_RDK/src/tensorflow_lite/src/third_party/gemmlowp/fixedpoint\fixedpoint.h **** 
 104:C:/Renesas/e2studio_2021_01_workspace_RZA2M_ANPR/ANPR_RZA2M_RDK/src/tensorflow_lite/src/third_party/gemmlowp/fixedpoint\fixedpoint.h **** template <typename tIntegerType>
 105:C:/Renesas/e2studio_2021_01_workspace_RZA2M_ANPR/ANPR_RZA2M_RDK/src/tensorflow_lite/src/third_party/gemmlowp/fixedpoint\fixedpoint.h **** tIntegerType Sub(tIntegerType a, tIntegerType b) {
 106:C:/Renesas/e2studio_2021_01_workspace_RZA2M_ANPR/ANPR_RZA2M_RDK/src/tensorflow_lite/src/third_party/gemmlowp/fixedpoint\fixedpoint.h ****   return a - b;
 107:C:/Renesas/e2studio_2021_01_workspace_RZA2M_ANPR/ANPR_RZA2M_RDK/src/tensorflow_lite/src/third_party/gemmlowp/fixedpoint\fixedpoint.h **** }
 108:C:/Renesas/e2studio_2021_01_workspace_RZA2M_ANPR/ANPR_RZA2M_RDK/src/tensorflow_lite/src/third_party/gemmlowp/fixedpoint\fixedpoint.h **** 
 109:C:/Renesas/e2studio_2021_01_workspace_RZA2M_ANPR/ANPR_RZA2M_RDK/src/tensorflow_lite/src/third_party/gemmlowp/fixedpoint\fixedpoint.h **** // Integer unary negative. Not saturating. Overflow is undefined behavior.
 110:C:/Renesas/e2studio_2021_01_workspace_RZA2M_ANPR/ANPR_RZA2M_RDK/src/tensorflow_lite/src/third_party/gemmlowp/fixedpoint\fixedpoint.h **** template <typename tIntegerType>
 111:C:/Renesas/e2studio_2021_01_workspace_RZA2M_ANPR/ANPR_RZA2M_RDK/src/tensorflow_lite/src/third_party/gemmlowp/fixedpoint\fixedpoint.h **** tIntegerType Neg(tIntegerType a) {
 112:C:/Renesas/e2studio_2021_01_workspace_RZA2M_ANPR/ANPR_RZA2M_RDK/src/tensorflow_lite/src/third_party/gemmlowp/fixedpoint\fixedpoint.h ****   return -a;
 113:C:/Renesas/e2studio_2021_01_workspace_RZA2M_ANPR/ANPR_RZA2M_RDK/src/tensorflow_lite/src/third_party/gemmlowp/fixedpoint\fixedpoint.h **** }
 114:C:/Renesas/e2studio_2021_01_workspace_RZA2M_ANPR/ANPR_RZA2M_RDK/src/tensorflow_lite/src/third_party/gemmlowp/fixedpoint\fixedpoint.h **** 
 115:C:/Renesas/e2studio_2021_01_workspace_RZA2M_ANPR/ANPR_RZA2M_RDK/src/tensorflow_lite/src/third_party/gemmlowp/fixedpoint\fixedpoint.h **** // Integer arithmetic left-shift, equivalent to multiplying with a power of two.
 116:C:/Renesas/e2studio_2021_01_workspace_RZA2M_ANPR/ANPR_RZA2M_RDK/src/tensorflow_lite/src/third_party/gemmlowp/fixedpoint\fixedpoint.h **** // Negative values are OK. In case of overflow, no Undefined
 117:C:/Renesas/e2studio_2021_01_workspace_RZA2M_ANPR/ANPR_RZA2M_RDK/src/tensorflow_lite/src/third_party/gemmlowp/fixedpoint\fixedpoint.h **** // Behavior, but the results are implementation-defined (in practice,
 118:C:/Renesas/e2studio_2021_01_workspace_RZA2M_ANPR/ANPR_RZA2M_RDK/src/tensorflow_lite/src/third_party/gemmlowp/fixedpoint\fixedpoint.h **** // they currently are saturated, but we make no commitment to that). The idea
 119:C:/Renesas/e2studio_2021_01_workspace_RZA2M_ANPR/ANPR_RZA2M_RDK/src/tensorflow_lite/src/third_party/gemmlowp/fixedpoint\fixedpoint.h **** // is that the caller will want to implement the overflowing cases with
 120:C:/Renesas/e2studio_2021_01_workspace_RZA2M_ANPR/ANPR_RZA2M_RDK/src/tensorflow_lite/src/third_party/gemmlowp/fixedpoint\fixedpoint.h **** // saturation with compare-and-mask, so we don't care about the results
 121:C:/Renesas/e2studio_2021_01_workspace_RZA2M_ANPR/ANPR_RZA2M_RDK/src/tensorflow_lite/src/third_party/gemmlowp/fixedpoint\fixedpoint.h **** // in the overflow case, we just want to avoid undefined behavior.
 122:C:/Renesas/e2studio_2021_01_workspace_RZA2M_ANPR/ANPR_RZA2M_RDK/src/tensorflow_lite/src/third_party/gemmlowp/fixedpoint\fixedpoint.h **** //
 123:C:/Renesas/e2studio_2021_01_workspace_RZA2M_ANPR/ANPR_RZA2M_RDK/src/tensorflow_lite/src/third_party/gemmlowp/fixedpoint\fixedpoint.h **** // tIntegerType may be int32 or any narrower signed type.
 124:C:/Renesas/e2studio_2021_01_workspace_RZA2M_ANPR/ANPR_RZA2M_RDK/src/tensorflow_lite/src/third_party/gemmlowp/fixedpoint\fixedpoint.h **** template <typename tIntegerType>
 125:C:/Renesas/e2studio_2021_01_workspace_RZA2M_ANPR/ANPR_RZA2M_RDK/src/tensorflow_lite/src/third_party/gemmlowp/fixedpoint\fixedpoint.h **** tIntegerType ShiftLeft(tIntegerType a, int offset) {
 126:C:/Renesas/e2studio_2021_01_workspace_RZA2M_ANPR/ANPR_RZA2M_RDK/src/tensorflow_lite/src/third_party/gemmlowp/fixedpoint\fixedpoint.h ****   const std::int64_t wide_a = static_cast<std::int64_t>(a);
 127:C:/Renesas/e2studio_2021_01_workspace_RZA2M_ANPR/ANPR_RZA2M_RDK/src/tensorflow_lite/src/third_party/gemmlowp/fixedpoint\fixedpoint.h ****   const std::int64_t wide_shifted = wide_a * (1 << offset);
 128:C:/Renesas/e2studio_2021_01_workspace_RZA2M_ANPR/ANPR_RZA2M_RDK/src/tensorflow_lite/src/third_party/gemmlowp/fixedpoint\fixedpoint.h ****   const auto min = std::numeric_limits<tIntegerType>::min();
 129:C:/Renesas/e2studio_2021_01_workspace_RZA2M_ANPR/ANPR_RZA2M_RDK/src/tensorflow_lite/src/third_party/gemmlowp/fixedpoint\fixedpoint.h ****   const auto max = std::numeric_limits<tIntegerType>::max();
 130:C:/Renesas/e2studio_2021_01_workspace_RZA2M_ANPR/ANPR_RZA2M_RDK/src/tensorflow_lite/src/third_party/gemmlowp/fixedpoint\fixedpoint.h ****   return wide_shifted < min
 131:C:/Renesas/e2studio_2021_01_workspace_RZA2M_ANPR/ANPR_RZA2M_RDK/src/tensorflow_lite/src/third_party/gemmlowp/fixedpoint\fixedpoint.h ****              ? min
 132:C:/Renesas/e2studio_2021_01_workspace_RZA2M_ANPR/ANPR_RZA2M_RDK/src/tensorflow_lite/src/third_party/gemmlowp/fixedpoint\fixedpoint.h ****              : wide_shifted > max ? max
 133:C:/Renesas/e2studio_2021_01_workspace_RZA2M_ANPR/ANPR_RZA2M_RDK/src/tensorflow_lite/src/third_party/gemmlowp/fixedpoint\fixedpoint.h ****                                   : static_cast<tIntegerType>(wide_shifted);
 134:C:/Renesas/e2studio_2021_01_workspace_RZA2M_ANPR/ANPR_RZA2M_RDK/src/tensorflow_lite/src/third_party/gemmlowp/fixedpoint\fixedpoint.h **** }
 135:C:/Renesas/e2studio_2021_01_workspace_RZA2M_ANPR/ANPR_RZA2M_RDK/src/tensorflow_lite/src/third_party/gemmlowp/fixedpoint\fixedpoint.h **** 
 136:C:/Renesas/e2studio_2021_01_workspace_RZA2M_ANPR/ANPR_RZA2M_RDK/src/tensorflow_lite/src/third_party/gemmlowp/fixedpoint\fixedpoint.h **** // Integer arithmetic right-shift. Not rounding.
 137:C:/Renesas/e2studio_2021_01_workspace_RZA2M_ANPR/ANPR_RZA2M_RDK/src/tensorflow_lite/src/third_party/gemmlowp/fixedpoint\fixedpoint.h **** // Relying on implementation-defined, but in-practice-consistent,
 138:C:/Renesas/e2studio_2021_01_workspace_RZA2M_ANPR/ANPR_RZA2M_RDK/src/tensorflow_lite/src/third_party/gemmlowp/fixedpoint\fixedpoint.h **** // C++ compiler behavior.
 139:C:/Renesas/e2studio_2021_01_workspace_RZA2M_ANPR/ANPR_RZA2M_RDK/src/tensorflow_lite/src/third_party/gemmlowp/fixedpoint\fixedpoint.h **** template <typename tIntegerType>
 140:C:/Renesas/e2studio_2021_01_workspace_RZA2M_ANPR/ANPR_RZA2M_RDK/src/tensorflow_lite/src/third_party/gemmlowp/fixedpoint\fixedpoint.h **** tIntegerType ShiftRight(tIntegerType a, int offset) {
 141:C:/Renesas/e2studio_2021_01_workspace_RZA2M_ANPR/ANPR_RZA2M_RDK/src/tensorflow_lite/src/third_party/gemmlowp/fixedpoint\fixedpoint.h ****   return a >> offset;
 142:C:/Renesas/e2studio_2021_01_workspace_RZA2M_ANPR/ANPR_RZA2M_RDK/src/tensorflow_lite/src/third_party/gemmlowp/fixedpoint\fixedpoint.h **** }
 143:C:/Renesas/e2studio_2021_01_workspace_RZA2M_ANPR/ANPR_RZA2M_RDK/src/tensorflow_lite/src/third_party/gemmlowp/fixedpoint\fixedpoint.h **** 
 144:C:/Renesas/e2studio_2021_01_workspace_RZA2M_ANPR/ANPR_RZA2M_RDK/src/tensorflow_lite/src/third_party/gemmlowp/fixedpoint\fixedpoint.h **** // Each bit of the result is set to the corresponding bit of either then_val or
 145:C:/Renesas/e2studio_2021_01_workspace_RZA2M_ANPR/ANPR_RZA2M_RDK/src/tensorflow_lite/src/third_party/gemmlowp/fixedpoint\fixedpoint.h **** // else_val depending on whether the corresponding bit of if_mask is set.
 146:C:/Renesas/e2studio_2021_01_workspace_RZA2M_ANPR/ANPR_RZA2M_RDK/src/tensorflow_lite/src/third_party/gemmlowp/fixedpoint\fixedpoint.h **** // Equivalent to the VBSL instruction in ARM NEON.
 147:C:/Renesas/e2studio_2021_01_workspace_RZA2M_ANPR/ANPR_RZA2M_RDK/src/tensorflow_lite/src/third_party/gemmlowp/fixedpoint\fixedpoint.h **** template <typename tIntegerType>
 148:C:/Renesas/e2studio_2021_01_workspace_RZA2M_ANPR/ANPR_RZA2M_RDK/src/tensorflow_lite/src/third_party/gemmlowp/fixedpoint\fixedpoint.h **** tIntegerType SelectUsingMask(tIntegerType if_mask, tIntegerType then_val,
 149:C:/Renesas/e2studio_2021_01_workspace_RZA2M_ANPR/ANPR_RZA2M_RDK/src/tensorflow_lite/src/third_party/gemmlowp/fixedpoint\fixedpoint.h ****                              tIntegerType else_val) {
 150:C:/Renesas/e2studio_2021_01_workspace_RZA2M_ANPR/ANPR_RZA2M_RDK/src/tensorflow_lite/src/third_party/gemmlowp/fixedpoint\fixedpoint.h ****   return BitXor(BitAnd(if_mask, then_val), BitAnd(BitNot(if_mask), else_val));
 151:C:/Renesas/e2studio_2021_01_workspace_RZA2M_ANPR/ANPR_RZA2M_RDK/src/tensorflow_lite/src/third_party/gemmlowp/fixedpoint\fixedpoint.h **** }
 152:C:/Renesas/e2studio_2021_01_workspace_RZA2M_ANPR/ANPR_RZA2M_RDK/src/tensorflow_lite/src/third_party/gemmlowp/fixedpoint\fixedpoint.h **** 
 153:C:/Renesas/e2studio_2021_01_workspace_RZA2M_ANPR/ANPR_RZA2M_RDK/src/tensorflow_lite/src/third_party/gemmlowp/fixedpoint\fixedpoint.h **** // For each input scalar, the corresponding bits of the result are set if the
 154:C:/Renesas/e2studio_2021_01_workspace_RZA2M_ANPR/ANPR_RZA2M_RDK/src/tensorflow_lite/src/third_party/gemmlowp/fixedpoint\fixedpoint.h **** // input scalar is non-zero.
 155:C:/Renesas/e2studio_2021_01_workspace_RZA2M_ANPR/ANPR_RZA2M_RDK/src/tensorflow_lite/src/third_party/gemmlowp/fixedpoint\fixedpoint.h **** template <typename tIntegerType>
 156:C:/Renesas/e2studio_2021_01_workspace_RZA2M_ANPR/ANPR_RZA2M_RDK/src/tensorflow_lite/src/third_party/gemmlowp/fixedpoint\fixedpoint.h **** tIntegerType MaskIfNonZero(tIntegerType a) {
 157:C:/Renesas/e2studio_2021_01_workspace_RZA2M_ANPR/ANPR_RZA2M_RDK/src/tensorflow_lite/src/third_party/gemmlowp/fixedpoint\fixedpoint.h ****   static constexpr tIntegerType zero = 0;
 158:C:/Renesas/e2studio_2021_01_workspace_RZA2M_ANPR/ANPR_RZA2M_RDK/src/tensorflow_lite/src/third_party/gemmlowp/fixedpoint\fixedpoint.h ****   return a ? BitNot(zero) : zero;
 159:C:/Renesas/e2studio_2021_01_workspace_RZA2M_ANPR/ANPR_RZA2M_RDK/src/tensorflow_lite/src/third_party/gemmlowp/fixedpoint\fixedpoint.h **** }
 160:C:/Renesas/e2studio_2021_01_workspace_RZA2M_ANPR/ANPR_RZA2M_RDK/src/tensorflow_lite/src/third_party/gemmlowp/fixedpoint\fixedpoint.h **** 
 161:C:/Renesas/e2studio_2021_01_workspace_RZA2M_ANPR/ANPR_RZA2M_RDK/src/tensorflow_lite/src/third_party/gemmlowp/fixedpoint\fixedpoint.h **** // For each input scalar, the corresponding bits of the result are set if the
 162:C:/Renesas/e2studio_2021_01_workspace_RZA2M_ANPR/ANPR_RZA2M_RDK/src/tensorflow_lite/src/third_party/gemmlowp/fixedpoint\fixedpoint.h **** // input scalar is zero.
 163:C:/Renesas/e2studio_2021_01_workspace_RZA2M_ANPR/ANPR_RZA2M_RDK/src/tensorflow_lite/src/third_party/gemmlowp/fixedpoint\fixedpoint.h **** template <typename tIntegerType>
 164:C:/Renesas/e2studio_2021_01_workspace_RZA2M_ANPR/ANPR_RZA2M_RDK/src/tensorflow_lite/src/third_party/gemmlowp/fixedpoint\fixedpoint.h **** tIntegerType MaskIfZero(tIntegerType a) {
 165:C:/Renesas/e2studio_2021_01_workspace_RZA2M_ANPR/ANPR_RZA2M_RDK/src/tensorflow_lite/src/third_party/gemmlowp/fixedpoint\fixedpoint.h ****   return MaskIfNonZero<tIntegerType>(!a);
 166:C:/Renesas/e2studio_2021_01_workspace_RZA2M_ANPR/ANPR_RZA2M_RDK/src/tensorflow_lite/src/third_party/gemmlowp/fixedpoint\fixedpoint.h **** }
 167:C:/Renesas/e2studio_2021_01_workspace_RZA2M_ANPR/ANPR_RZA2M_RDK/src/tensorflow_lite/src/third_party/gemmlowp/fixedpoint\fixedpoint.h **** 
 168:C:/Renesas/e2studio_2021_01_workspace_RZA2M_ANPR/ANPR_RZA2M_RDK/src/tensorflow_lite/src/third_party/gemmlowp/fixedpoint\fixedpoint.h **** // For each pair of input scalars, the corresponding bits of the result are
 169:C:/Renesas/e2studio_2021_01_workspace_RZA2M_ANPR/ANPR_RZA2M_RDK/src/tensorflow_lite/src/third_party/gemmlowp/fixedpoint\fixedpoint.h **** // set if the input scalars are equal.
 170:C:/Renesas/e2studio_2021_01_workspace_RZA2M_ANPR/ANPR_RZA2M_RDK/src/tensorflow_lite/src/third_party/gemmlowp/fixedpoint\fixedpoint.h **** template <typename tIntegerType>
 171:C:/Renesas/e2studio_2021_01_workspace_RZA2M_ANPR/ANPR_RZA2M_RDK/src/tensorflow_lite/src/third_party/gemmlowp/fixedpoint\fixedpoint.h **** tIntegerType MaskIfEqual(tIntegerType a, tIntegerType b) {
 172:C:/Renesas/e2studio_2021_01_workspace_RZA2M_ANPR/ANPR_RZA2M_RDK/src/tensorflow_lite/src/third_party/gemmlowp/fixedpoint\fixedpoint.h ****   return MaskIfNonZero<tIntegerType>(a == b);
 173:C:/Renesas/e2studio_2021_01_workspace_RZA2M_ANPR/ANPR_RZA2M_RDK/src/tensorflow_lite/src/third_party/gemmlowp/fixedpoint\fixedpoint.h **** }
 174:C:/Renesas/e2studio_2021_01_workspace_RZA2M_ANPR/ANPR_RZA2M_RDK/src/tensorflow_lite/src/third_party/gemmlowp/fixedpoint\fixedpoint.h **** 
 175:C:/Renesas/e2studio_2021_01_workspace_RZA2M_ANPR/ANPR_RZA2M_RDK/src/tensorflow_lite/src/third_party/gemmlowp/fixedpoint\fixedpoint.h **** // For each pair of input scalars, the corresponding bits of the result are
 176:C:/Renesas/e2studio_2021_01_workspace_RZA2M_ANPR/ANPR_RZA2M_RDK/src/tensorflow_lite/src/third_party/gemmlowp/fixedpoint\fixedpoint.h **** // set if the input scalars are not equal.
 177:C:/Renesas/e2studio_2021_01_workspace_RZA2M_ANPR/ANPR_RZA2M_RDK/src/tensorflow_lite/src/third_party/gemmlowp/fixedpoint\fixedpoint.h **** template <typename tIntegerType>
 178:C:/Renesas/e2studio_2021_01_workspace_RZA2M_ANPR/ANPR_RZA2M_RDK/src/tensorflow_lite/src/third_party/gemmlowp/fixedpoint\fixedpoint.h **** tIntegerType MaskIfNotEqual(tIntegerType a, tIntegerType b) {
 179:C:/Renesas/e2studio_2021_01_workspace_RZA2M_ANPR/ANPR_RZA2M_RDK/src/tensorflow_lite/src/third_party/gemmlowp/fixedpoint\fixedpoint.h ****   return MaskIfNonZero<tIntegerType>(a != b);
 180:C:/Renesas/e2studio_2021_01_workspace_RZA2M_ANPR/ANPR_RZA2M_RDK/src/tensorflow_lite/src/third_party/gemmlowp/fixedpoint\fixedpoint.h **** }
 181:C:/Renesas/e2studio_2021_01_workspace_RZA2M_ANPR/ANPR_RZA2M_RDK/src/tensorflow_lite/src/third_party/gemmlowp/fixedpoint\fixedpoint.h **** 
 182:C:/Renesas/e2studio_2021_01_workspace_RZA2M_ANPR/ANPR_RZA2M_RDK/src/tensorflow_lite/src/third_party/gemmlowp/fixedpoint\fixedpoint.h **** // For each pair of input scalars, the corresponding bits of the result are
 183:C:/Renesas/e2studio_2021_01_workspace_RZA2M_ANPR/ANPR_RZA2M_RDK/src/tensorflow_lite/src/third_party/gemmlowp/fixedpoint\fixedpoint.h **** // set if the input scalars a, b satisfy a > b.
 184:C:/Renesas/e2studio_2021_01_workspace_RZA2M_ANPR/ANPR_RZA2M_RDK/src/tensorflow_lite/src/third_party/gemmlowp/fixedpoint\fixedpoint.h **** template <typename tIntegerType>
 185:C:/Renesas/e2studio_2021_01_workspace_RZA2M_ANPR/ANPR_RZA2M_RDK/src/tensorflow_lite/src/third_party/gemmlowp/fixedpoint\fixedpoint.h **** tIntegerType MaskIfGreaterThan(tIntegerType a, tIntegerType b) {
 186:C:/Renesas/e2studio_2021_01_workspace_RZA2M_ANPR/ANPR_RZA2M_RDK/src/tensorflow_lite/src/third_party/gemmlowp/fixedpoint\fixedpoint.h ****   return MaskIfNonZero<tIntegerType>(a > b);
 187:C:/Renesas/e2studio_2021_01_workspace_RZA2M_ANPR/ANPR_RZA2M_RDK/src/tensorflow_lite/src/third_party/gemmlowp/fixedpoint\fixedpoint.h **** }
 188:C:/Renesas/e2studio_2021_01_workspace_RZA2M_ANPR/ANPR_RZA2M_RDK/src/tensorflow_lite/src/third_party/gemmlowp/fixedpoint\fixedpoint.h **** 
 189:C:/Renesas/e2studio_2021_01_workspace_RZA2M_ANPR/ANPR_RZA2M_RDK/src/tensorflow_lite/src/third_party/gemmlowp/fixedpoint\fixedpoint.h **** // For each pair of input scalars, the corresponding bits of the result are
 190:C:/Renesas/e2studio_2021_01_workspace_RZA2M_ANPR/ANPR_RZA2M_RDK/src/tensorflow_lite/src/third_party/gemmlowp/fixedpoint\fixedpoint.h **** // set if the input scalars a, b satisfy a >= b.
 191:C:/Renesas/e2studio_2021_01_workspace_RZA2M_ANPR/ANPR_RZA2M_RDK/src/tensorflow_lite/src/third_party/gemmlowp/fixedpoint\fixedpoint.h **** template <typename tIntegerType>
 192:C:/Renesas/e2studio_2021_01_workspace_RZA2M_ANPR/ANPR_RZA2M_RDK/src/tensorflow_lite/src/third_party/gemmlowp/fixedpoint\fixedpoint.h **** tIntegerType MaskIfGreaterThanOrEqual(tIntegerType a, tIntegerType b) {
 193:C:/Renesas/e2studio_2021_01_workspace_RZA2M_ANPR/ANPR_RZA2M_RDK/src/tensorflow_lite/src/third_party/gemmlowp/fixedpoint\fixedpoint.h ****   return MaskIfNonZero<tIntegerType>(a >= b);
 194:C:/Renesas/e2studio_2021_01_workspace_RZA2M_ANPR/ANPR_RZA2M_RDK/src/tensorflow_lite/src/third_party/gemmlowp/fixedpoint\fixedpoint.h **** }
 195:C:/Renesas/e2studio_2021_01_workspace_RZA2M_ANPR/ANPR_RZA2M_RDK/src/tensorflow_lite/src/third_party/gemmlowp/fixedpoint\fixedpoint.h **** 
 196:C:/Renesas/e2studio_2021_01_workspace_RZA2M_ANPR/ANPR_RZA2M_RDK/src/tensorflow_lite/src/third_party/gemmlowp/fixedpoint\fixedpoint.h **** // For each pair of input scalars, the corresponding bits of the result are
 197:C:/Renesas/e2studio_2021_01_workspace_RZA2M_ANPR/ANPR_RZA2M_RDK/src/tensorflow_lite/src/third_party/gemmlowp/fixedpoint\fixedpoint.h **** // set if the input scalars a, b satisfy a < b.
 198:C:/Renesas/e2studio_2021_01_workspace_RZA2M_ANPR/ANPR_RZA2M_RDK/src/tensorflow_lite/src/third_party/gemmlowp/fixedpoint\fixedpoint.h **** template <typename tIntegerType>
 199:C:/Renesas/e2studio_2021_01_workspace_RZA2M_ANPR/ANPR_RZA2M_RDK/src/tensorflow_lite/src/third_party/gemmlowp/fixedpoint\fixedpoint.h **** tIntegerType MaskIfLessThan(tIntegerType a, tIntegerType b) {
 200:C:/Renesas/e2studio_2021_01_workspace_RZA2M_ANPR/ANPR_RZA2M_RDK/src/tensorflow_lite/src/third_party/gemmlowp/fixedpoint\fixedpoint.h ****   return MaskIfNonZero<tIntegerType>(a < b);
 201:C:/Renesas/e2studio_2021_01_workspace_RZA2M_ANPR/ANPR_RZA2M_RDK/src/tensorflow_lite/src/third_party/gemmlowp/fixedpoint\fixedpoint.h **** }
 202:C:/Renesas/e2studio_2021_01_workspace_RZA2M_ANPR/ANPR_RZA2M_RDK/src/tensorflow_lite/src/third_party/gemmlowp/fixedpoint\fixedpoint.h **** 
 203:C:/Renesas/e2studio_2021_01_workspace_RZA2M_ANPR/ANPR_RZA2M_RDK/src/tensorflow_lite/src/third_party/gemmlowp/fixedpoint\fixedpoint.h **** // For each pair of input scalars, the corresponding bits of the result are
 204:C:/Renesas/e2studio_2021_01_workspace_RZA2M_ANPR/ANPR_RZA2M_RDK/src/tensorflow_lite/src/third_party/gemmlowp/fixedpoint\fixedpoint.h **** // set if the input scalars a, b satisfy a <= b.
 205:C:/Renesas/e2studio_2021_01_workspace_RZA2M_ANPR/ANPR_RZA2M_RDK/src/tensorflow_lite/src/third_party/gemmlowp/fixedpoint\fixedpoint.h **** template <typename tIntegerType>
 206:C:/Renesas/e2studio_2021_01_workspace_RZA2M_ANPR/ANPR_RZA2M_RDK/src/tensorflow_lite/src/third_party/gemmlowp/fixedpoint\fixedpoint.h **** tIntegerType MaskIfLessThanOrEqual(tIntegerType a, tIntegerType b) {
 207:C:/Renesas/e2studio_2021_01_workspace_RZA2M_ANPR/ANPR_RZA2M_RDK/src/tensorflow_lite/src/third_party/gemmlowp/fixedpoint\fixedpoint.h ****   return MaskIfNonZero<tIntegerType>(a <= b);
 208:C:/Renesas/e2studio_2021_01_workspace_RZA2M_ANPR/ANPR_RZA2M_RDK/src/tensorflow_lite/src/third_party/gemmlowp/fixedpoint\fixedpoint.h **** }
 209:C:/Renesas/e2studio_2021_01_workspace_RZA2M_ANPR/ANPR_RZA2M_RDK/src/tensorflow_lite/src/third_party/gemmlowp/fixedpoint\fixedpoint.h **** 
 210:C:/Renesas/e2studio_2021_01_workspace_RZA2M_ANPR/ANPR_RZA2M_RDK/src/tensorflow_lite/src/third_party/gemmlowp/fixedpoint\fixedpoint.h **** // Returns true if all of the input scalars are nonzero.
 211:C:/Renesas/e2studio_2021_01_workspace_RZA2M_ANPR/ANPR_RZA2M_RDK/src/tensorflow_lite/src/third_party/gemmlowp/fixedpoint\fixedpoint.h **** // This function may currently assume that each of the input scalars has either
 212:C:/Renesas/e2studio_2021_01_workspace_RZA2M_ANPR/ANPR_RZA2M_RDK/src/tensorflow_lite/src/third_party/gemmlowp/fixedpoint\fixedpoint.h **** // all or none of its bits set. Otherwise, its behavior is currently undefined.
 213:C:/Renesas/e2studio_2021_01_workspace_RZA2M_ANPR/ANPR_RZA2M_RDK/src/tensorflow_lite/src/third_party/gemmlowp/fixedpoint\fixedpoint.h **** template <typename tIntegerType>
 214:C:/Renesas/e2studio_2021_01_workspace_RZA2M_ANPR/ANPR_RZA2M_RDK/src/tensorflow_lite/src/third_party/gemmlowp/fixedpoint\fixedpoint.h **** bool All(tIntegerType a) {
 215:C:/Renesas/e2studio_2021_01_workspace_RZA2M_ANPR/ANPR_RZA2M_RDK/src/tensorflow_lite/src/third_party/gemmlowp/fixedpoint\fixedpoint.h ****   return a;
 216:C:/Renesas/e2studio_2021_01_workspace_RZA2M_ANPR/ANPR_RZA2M_RDK/src/tensorflow_lite/src/third_party/gemmlowp/fixedpoint\fixedpoint.h **** }
 217:C:/Renesas/e2studio_2021_01_workspace_RZA2M_ANPR/ANPR_RZA2M_RDK/src/tensorflow_lite/src/third_party/gemmlowp/fixedpoint\fixedpoint.h **** 
 218:C:/Renesas/e2studio_2021_01_workspace_RZA2M_ANPR/ANPR_RZA2M_RDK/src/tensorflow_lite/src/third_party/gemmlowp/fixedpoint\fixedpoint.h **** // Returns true if any of the input scalars are nonzero.
 219:C:/Renesas/e2studio_2021_01_workspace_RZA2M_ANPR/ANPR_RZA2M_RDK/src/tensorflow_lite/src/third_party/gemmlowp/fixedpoint\fixedpoint.h **** // This function may currently assume that each of the input scalars has either
 220:C:/Renesas/e2studio_2021_01_workspace_RZA2M_ANPR/ANPR_RZA2M_RDK/src/tensorflow_lite/src/third_party/gemmlowp/fixedpoint\fixedpoint.h **** // all or none of its bits set. Otherwise, its behavior is currently undefined.
 221:C:/Renesas/e2studio_2021_01_workspace_RZA2M_ANPR/ANPR_RZA2M_RDK/src/tensorflow_lite/src/third_party/gemmlowp/fixedpoint\fixedpoint.h **** template <typename tIntegerType>
 222:C:/Renesas/e2studio_2021_01_workspace_RZA2M_ANPR/ANPR_RZA2M_RDK/src/tensorflow_lite/src/third_party/gemmlowp/fixedpoint\fixedpoint.h **** bool Any(tIntegerType a) {
 223:C:/Renesas/e2studio_2021_01_workspace_RZA2M_ANPR/ANPR_RZA2M_RDK/src/tensorflow_lite/src/third_party/gemmlowp/fixedpoint\fixedpoint.h ****   return a;
 224:C:/Renesas/e2studio_2021_01_workspace_RZA2M_ANPR/ANPR_RZA2M_RDK/src/tensorflow_lite/src/third_party/gemmlowp/fixedpoint\fixedpoint.h **** }
 225:C:/Renesas/e2studio_2021_01_workspace_RZA2M_ANPR/ANPR_RZA2M_RDK/src/tensorflow_lite/src/third_party/gemmlowp/fixedpoint\fixedpoint.h **** 
 226:C:/Renesas/e2studio_2021_01_workspace_RZA2M_ANPR/ANPR_RZA2M_RDK/src/tensorflow_lite/src/third_party/gemmlowp/fixedpoint\fixedpoint.h **** // Returns (a+b)/2, rounded to the nearest integer.
 227:C:/Renesas/e2studio_2021_01_workspace_RZA2M_ANPR/ANPR_RZA2M_RDK/src/tensorflow_lite/src/third_party/gemmlowp/fixedpoint\fixedpoint.h **** // Equivalent to VRHADD in the ARM NEON instruction set.
 228:C:/Renesas/e2studio_2021_01_workspace_RZA2M_ANPR/ANPR_RZA2M_RDK/src/tensorflow_lite/src/third_party/gemmlowp/fixedpoint\fixedpoint.h **** template <typename IntegerType>
 229:C:/Renesas/e2studio_2021_01_workspace_RZA2M_ANPR/ANPR_RZA2M_RDK/src/tensorflow_lite/src/third_party/gemmlowp/fixedpoint\fixedpoint.h **** IntegerType RoundingHalfSum(IntegerType a, IntegerType b) {
 230:C:/Renesas/e2studio_2021_01_workspace_RZA2M_ANPR/ANPR_RZA2M_RDK/src/tensorflow_lite/src/third_party/gemmlowp/fixedpoint\fixedpoint.h ****   static_assert(std::is_same<IntegerType, void>::value, "unimplemented");
 231:C:/Renesas/e2studio_2021_01_workspace_RZA2M_ANPR/ANPR_RZA2M_RDK/src/tensorflow_lite/src/third_party/gemmlowp/fixedpoint\fixedpoint.h ****   (void)b;
 232:C:/Renesas/e2studio_2021_01_workspace_RZA2M_ANPR/ANPR_RZA2M_RDK/src/tensorflow_lite/src/third_party/gemmlowp/fixedpoint\fixedpoint.h ****   return a;
 233:C:/Renesas/e2studio_2021_01_workspace_RZA2M_ANPR/ANPR_RZA2M_RDK/src/tensorflow_lite/src/third_party/gemmlowp/fixedpoint\fixedpoint.h **** }
 234:C:/Renesas/e2studio_2021_01_workspace_RZA2M_ANPR/ANPR_RZA2M_RDK/src/tensorflow_lite/src/third_party/gemmlowp/fixedpoint\fixedpoint.h **** 
 235:C:/Renesas/e2studio_2021_01_workspace_RZA2M_ANPR/ANPR_RZA2M_RDK/src/tensorflow_lite/src/third_party/gemmlowp/fixedpoint\fixedpoint.h **** template <>
 236:C:/Renesas/e2studio_2021_01_workspace_RZA2M_ANPR/ANPR_RZA2M_RDK/src/tensorflow_lite/src/third_party/gemmlowp/fixedpoint\fixedpoint.h **** inline std::int32_t RoundingHalfSum(std::int32_t a, std::int32_t b) {
 237:C:/Renesas/e2studio_2021_01_workspace_RZA2M_ANPR/ANPR_RZA2M_RDK/src/tensorflow_lite/src/third_party/gemmlowp/fixedpoint\fixedpoint.h ****   std::int64_t a64 = a;
 238:C:/Renesas/e2studio_2021_01_workspace_RZA2M_ANPR/ANPR_RZA2M_RDK/src/tensorflow_lite/src/third_party/gemmlowp/fixedpoint\fixedpoint.h ****   std::int64_t b64 = b;
 239:C:/Renesas/e2studio_2021_01_workspace_RZA2M_ANPR/ANPR_RZA2M_RDK/src/tensorflow_lite/src/third_party/gemmlowp/fixedpoint\fixedpoint.h ****   std::int64_t sum = a64 + b64;
 240:C:/Renesas/e2studio_2021_01_workspace_RZA2M_ANPR/ANPR_RZA2M_RDK/src/tensorflow_lite/src/third_party/gemmlowp/fixedpoint\fixedpoint.h ****   std::int64_t sign = sum >= 0 ? 1 : -1;
 241:C:/Renesas/e2studio_2021_01_workspace_RZA2M_ANPR/ANPR_RZA2M_RDK/src/tensorflow_lite/src/third_party/gemmlowp/fixedpoint\fixedpoint.h ****   return static_cast<std::int32_t>((sum + sign) / 2);
 242:C:/Renesas/e2studio_2021_01_workspace_RZA2M_ANPR/ANPR_RZA2M_RDK/src/tensorflow_lite/src/third_party/gemmlowp/fixedpoint\fixedpoint.h **** }
 243:C:/Renesas/e2studio_2021_01_workspace_RZA2M_ANPR/ANPR_RZA2M_RDK/src/tensorflow_lite/src/third_party/gemmlowp/fixedpoint\fixedpoint.h **** 
 244:C:/Renesas/e2studio_2021_01_workspace_RZA2M_ANPR/ANPR_RZA2M_RDK/src/tensorflow_lite/src/third_party/gemmlowp/fixedpoint\fixedpoint.h **** template <>
 245:C:/Renesas/e2studio_2021_01_workspace_RZA2M_ANPR/ANPR_RZA2M_RDK/src/tensorflow_lite/src/third_party/gemmlowp/fixedpoint\fixedpoint.h **** inline std::int16_t RoundingHalfSum(std::int16_t a, std::int16_t b) {
 246:C:/Renesas/e2studio_2021_01_workspace_RZA2M_ANPR/ANPR_RZA2M_RDK/src/tensorflow_lite/src/third_party/gemmlowp/fixedpoint\fixedpoint.h ****   std::int32_t a32 = a;
 247:C:/Renesas/e2studio_2021_01_workspace_RZA2M_ANPR/ANPR_RZA2M_RDK/src/tensorflow_lite/src/third_party/gemmlowp/fixedpoint\fixedpoint.h ****   std::int32_t b32 = b;
 248:C:/Renesas/e2studio_2021_01_workspace_RZA2M_ANPR/ANPR_RZA2M_RDK/src/tensorflow_lite/src/third_party/gemmlowp/fixedpoint\fixedpoint.h ****   std::int32_t sum = a32 + b32;
 249:C:/Renesas/e2studio_2021_01_workspace_RZA2M_ANPR/ANPR_RZA2M_RDK/src/tensorflow_lite/src/third_party/gemmlowp/fixedpoint\fixedpoint.h ****   std::int32_t sign = sum >= 0 ? 1 : -1;
 250:C:/Renesas/e2studio_2021_01_workspace_RZA2M_ANPR/ANPR_RZA2M_RDK/src/tensorflow_lite/src/third_party/gemmlowp/fixedpoint\fixedpoint.h ****   return static_cast<std::int16_t>((sum + sign) / 2);
 251:C:/Renesas/e2studio_2021_01_workspace_RZA2M_ANPR/ANPR_RZA2M_RDK/src/tensorflow_lite/src/third_party/gemmlowp/fixedpoint\fixedpoint.h **** }
 252:C:/Renesas/e2studio_2021_01_workspace_RZA2M_ANPR/ANPR_RZA2M_RDK/src/tensorflow_lite/src/third_party/gemmlowp/fixedpoint\fixedpoint.h **** 
 253:C:/Renesas/e2studio_2021_01_workspace_RZA2M_ANPR/ANPR_RZA2M_RDK/src/tensorflow_lite/src/third_party/gemmlowp/fixedpoint\fixedpoint.h **** template <typename IntegerType>
 254:C:/Renesas/e2studio_2021_01_workspace_RZA2M_ANPR/ANPR_RZA2M_RDK/src/tensorflow_lite/src/third_party/gemmlowp/fixedpoint\fixedpoint.h **** IntegerType SaturatingAdd(IntegerType a, IntegerType b) {
 255:C:/Renesas/e2studio_2021_01_workspace_RZA2M_ANPR/ANPR_RZA2M_RDK/src/tensorflow_lite/src/third_party/gemmlowp/fixedpoint\fixedpoint.h ****   static_assert(std::is_same<IntegerType, void>::value, "unimplemented");
 256:C:/Renesas/e2studio_2021_01_workspace_RZA2M_ANPR/ANPR_RZA2M_RDK/src/tensorflow_lite/src/third_party/gemmlowp/fixedpoint\fixedpoint.h ****   (void)b;
 257:C:/Renesas/e2studio_2021_01_workspace_RZA2M_ANPR/ANPR_RZA2M_RDK/src/tensorflow_lite/src/third_party/gemmlowp/fixedpoint\fixedpoint.h ****   return a;
 258:C:/Renesas/e2studio_2021_01_workspace_RZA2M_ANPR/ANPR_RZA2M_RDK/src/tensorflow_lite/src/third_party/gemmlowp/fixedpoint\fixedpoint.h **** }
 259:C:/Renesas/e2studio_2021_01_workspace_RZA2M_ANPR/ANPR_RZA2M_RDK/src/tensorflow_lite/src/third_party/gemmlowp/fixedpoint\fixedpoint.h **** 
 260:C:/Renesas/e2studio_2021_01_workspace_RZA2M_ANPR/ANPR_RZA2M_RDK/src/tensorflow_lite/src/third_party/gemmlowp/fixedpoint\fixedpoint.h **** // So far this is only needed for int16.
 261:C:/Renesas/e2studio_2021_01_workspace_RZA2M_ANPR/ANPR_RZA2M_RDK/src/tensorflow_lite/src/third_party/gemmlowp/fixedpoint\fixedpoint.h **** template <>
 262:C:/Renesas/e2studio_2021_01_workspace_RZA2M_ANPR/ANPR_RZA2M_RDK/src/tensorflow_lite/src/third_party/gemmlowp/fixedpoint\fixedpoint.h **** inline std::int16_t SaturatingAdd(std::int16_t a, std::int16_t b) {
 263:C:/Renesas/e2studio_2021_01_workspace_RZA2M_ANPR/ANPR_RZA2M_RDK/src/tensorflow_lite/src/third_party/gemmlowp/fixedpoint\fixedpoint.h ****   std::int32_t a32 = a;
 264:C:/Renesas/e2studio_2021_01_workspace_RZA2M_ANPR/ANPR_RZA2M_RDK/src/tensorflow_lite/src/third_party/gemmlowp/fixedpoint\fixedpoint.h ****   std::int32_t b32 = b;
 265:C:/Renesas/e2studio_2021_01_workspace_RZA2M_ANPR/ANPR_RZA2M_RDK/src/tensorflow_lite/src/third_party/gemmlowp/fixedpoint\fixedpoint.h ****   std::int32_t sum = a32 + b32;
 266:C:/Renesas/e2studio_2021_01_workspace_RZA2M_ANPR/ANPR_RZA2M_RDK/src/tensorflow_lite/src/third_party/gemmlowp/fixedpoint\fixedpoint.h ****   return static_cast<std::int16_t>(
 267:C:/Renesas/e2studio_2021_01_workspace_RZA2M_ANPR/ANPR_RZA2M_RDK/src/tensorflow_lite/src/third_party/gemmlowp/fixedpoint\fixedpoint.h ****       std::min(static_cast<std::int32_t>(32767),
 268:C:/Renesas/e2studio_2021_01_workspace_RZA2M_ANPR/ANPR_RZA2M_RDK/src/tensorflow_lite/src/third_party/gemmlowp/fixedpoint\fixedpoint.h ****                std::max(static_cast<std::int32_t>(-32768), sum)));
 269:C:/Renesas/e2studio_2021_01_workspace_RZA2M_ANPR/ANPR_RZA2M_RDK/src/tensorflow_lite/src/third_party/gemmlowp/fixedpoint\fixedpoint.h **** }
 270:C:/Renesas/e2studio_2021_01_workspace_RZA2M_ANPR/ANPR_RZA2M_RDK/src/tensorflow_lite/src/third_party/gemmlowp/fixedpoint\fixedpoint.h **** 
 271:C:/Renesas/e2studio_2021_01_workspace_RZA2M_ANPR/ANPR_RZA2M_RDK/src/tensorflow_lite/src/third_party/gemmlowp/fixedpoint\fixedpoint.h **** // Returns a+b, saturating if the integers are 16bit or narrower,
 272:C:/Renesas/e2studio_2021_01_workspace_RZA2M_ANPR/ANPR_RZA2M_RDK/src/tensorflow_lite/src/third_party/gemmlowp/fixedpoint\fixedpoint.h **** // otherwise just a plain addition.
 273:C:/Renesas/e2studio_2021_01_workspace_RZA2M_ANPR/ANPR_RZA2M_RDK/src/tensorflow_lite/src/third_party/gemmlowp/fixedpoint\fixedpoint.h **** template <typename IntegerType, bool Is16Bit>
 274:C:/Renesas/e2studio_2021_01_workspace_RZA2M_ANPR/ANPR_RZA2M_RDK/src/tensorflow_lite/src/third_party/gemmlowp/fixedpoint\fixedpoint.h **** struct AddSaturatingIf16BitImpl {
 275:C:/Renesas/e2studio_2021_01_workspace_RZA2M_ANPR/ANPR_RZA2M_RDK/src/tensorflow_lite/src/third_party/gemmlowp/fixedpoint\fixedpoint.h ****   static IntegerType Run(IntegerType a, IntegerType b) { return Add(a, b); }
 276:C:/Renesas/e2studio_2021_01_workspace_RZA2M_ANPR/ANPR_RZA2M_RDK/src/tensorflow_lite/src/third_party/gemmlowp/fixedpoint\fixedpoint.h **** };
 277:C:/Renesas/e2studio_2021_01_workspace_RZA2M_ANPR/ANPR_RZA2M_RDK/src/tensorflow_lite/src/third_party/gemmlowp/fixedpoint\fixedpoint.h **** template <typename IntegerType>
 278:C:/Renesas/e2studio_2021_01_workspace_RZA2M_ANPR/ANPR_RZA2M_RDK/src/tensorflow_lite/src/third_party/gemmlowp/fixedpoint\fixedpoint.h **** struct AddSaturatingIf16BitImpl<IntegerType, true> {
 279:C:/Renesas/e2studio_2021_01_workspace_RZA2M_ANPR/ANPR_RZA2M_RDK/src/tensorflow_lite/src/third_party/gemmlowp/fixedpoint\fixedpoint.h ****   static IntegerType Run(IntegerType a, IntegerType b) {
 280:C:/Renesas/e2studio_2021_01_workspace_RZA2M_ANPR/ANPR_RZA2M_RDK/src/tensorflow_lite/src/third_party/gemmlowp/fixedpoint\fixedpoint.h ****     return SaturatingAdd(a, b);
 281:C:/Renesas/e2studio_2021_01_workspace_RZA2M_ANPR/ANPR_RZA2M_RDK/src/tensorflow_lite/src/third_party/gemmlowp/fixedpoint\fixedpoint.h ****   }
 282:C:/Renesas/e2studio_2021_01_workspace_RZA2M_ANPR/ANPR_RZA2M_RDK/src/tensorflow_lite/src/third_party/gemmlowp/fixedpoint\fixedpoint.h **** };
 283:C:/Renesas/e2studio_2021_01_workspace_RZA2M_ANPR/ANPR_RZA2M_RDK/src/tensorflow_lite/src/third_party/gemmlowp/fixedpoint\fixedpoint.h **** template <typename IntegerType>
 284:C:/Renesas/e2studio_2021_01_workspace_RZA2M_ANPR/ANPR_RZA2M_RDK/src/tensorflow_lite/src/third_party/gemmlowp/fixedpoint\fixedpoint.h **** IntegerType AddSaturatingIf16Bit(IntegerType a, IntegerType b) {
 285:C:/Renesas/e2studio_2021_01_workspace_RZA2M_ANPR/ANPR_RZA2M_RDK/src/tensorflow_lite/src/third_party/gemmlowp/fixedpoint\fixedpoint.h ****   using ScalarType =
 286:C:/Renesas/e2studio_2021_01_workspace_RZA2M_ANPR/ANPR_RZA2M_RDK/src/tensorflow_lite/src/third_party/gemmlowp/fixedpoint\fixedpoint.h ****       typename FixedPointRawTypeTraits<IntegerType>::ScalarRawType;
 287:C:/Renesas/e2studio_2021_01_workspace_RZA2M_ANPR/ANPR_RZA2M_RDK/src/tensorflow_lite/src/third_party/gemmlowp/fixedpoint\fixedpoint.h ****   return AddSaturatingIf16BitImpl<IntegerType, sizeof(ScalarType) == 2>::Run(a,
 288:C:/Renesas/e2studio_2021_01_workspace_RZA2M_ANPR/ANPR_RZA2M_RDK/src/tensorflow_lite/src/third_party/gemmlowp/fixedpoint\fixedpoint.h ****                                                                              b);
 289:C:/Renesas/e2studio_2021_01_workspace_RZA2M_ANPR/ANPR_RZA2M_RDK/src/tensorflow_lite/src/third_party/gemmlowp/fixedpoint\fixedpoint.h **** }
 290:C:/Renesas/e2studio_2021_01_workspace_RZA2M_ANPR/ANPR_RZA2M_RDK/src/tensorflow_lite/src/third_party/gemmlowp/fixedpoint\fixedpoint.h **** 
 291:C:/Renesas/e2studio_2021_01_workspace_RZA2M_ANPR/ANPR_RZA2M_RDK/src/tensorflow_lite/src/third_party/gemmlowp/fixedpoint\fixedpoint.h **** // Returns the integer that represents the product of two fixed-point
 292:C:/Renesas/e2studio_2021_01_workspace_RZA2M_ANPR/ANPR_RZA2M_RDK/src/tensorflow_lite/src/third_party/gemmlowp/fixedpoint\fixedpoint.h **** // numbers, interpreting all integers as fixed-point values in the
 293:C:/Renesas/e2studio_2021_01_workspace_RZA2M_ANPR/ANPR_RZA2M_RDK/src/tensorflow_lite/src/third_party/gemmlowp/fixedpoint\fixedpoint.h **** // interval [-1, 1), rounding to the nearest value, and saturating
 294:C:/Renesas/e2studio_2021_01_workspace_RZA2M_ANPR/ANPR_RZA2M_RDK/src/tensorflow_lite/src/third_party/gemmlowp/fixedpoint\fixedpoint.h **** // -1 * -1 to the maximum value (since 1 is not in the half-open
 295:C:/Renesas/e2studio_2021_01_workspace_RZA2M_ANPR/ANPR_RZA2M_RDK/src/tensorflow_lite/src/third_party/gemmlowp/fixedpoint\fixedpoint.h **** // interval [-1, 1)).
 296:C:/Renesas/e2studio_2021_01_workspace_RZA2M_ANPR/ANPR_RZA2M_RDK/src/tensorflow_lite/src/third_party/gemmlowp/fixedpoint\fixedpoint.h **** //
 297:C:/Renesas/e2studio_2021_01_workspace_RZA2M_ANPR/ANPR_RZA2M_RDK/src/tensorflow_lite/src/third_party/gemmlowp/fixedpoint\fixedpoint.h **** // [The explanation below specializes to std::int32_t for example purpose.]
 298:C:/Renesas/e2studio_2021_01_workspace_RZA2M_ANPR/ANPR_RZA2M_RDK/src/tensorflow_lite/src/third_party/gemmlowp/fixedpoint\fixedpoint.h **** //
 299:C:/Renesas/e2studio_2021_01_workspace_RZA2M_ANPR/ANPR_RZA2M_RDK/src/tensorflow_lite/src/third_party/gemmlowp/fixedpoint\fixedpoint.h **** // The mapping between IntegerType and the interval [-1, 1) is unique and
 300:C:/Renesas/e2studio_2021_01_workspace_RZA2M_ANPR/ANPR_RZA2M_RDK/src/tensorflow_lite/src/third_party/gemmlowp/fixedpoint\fixedpoint.h **** // implied by IntegerType, which is assumed to be signed. For example,
 301:C:/Renesas/e2studio_2021_01_workspace_RZA2M_ANPR/ANPR_RZA2M_RDK/src/tensorflow_lite/src/third_party/gemmlowp/fixedpoint\fixedpoint.h **** // for IntegerType==std::int32_t, the mapping is
 302:C:/Renesas/e2studio_2021_01_workspace_RZA2M_ANPR/ANPR_RZA2M_RDK/src/tensorflow_lite/src/third_party/gemmlowp/fixedpoint\fixedpoint.h **** //   real_value = integer_value / 2^31.
 303:C:/Renesas/e2studio_2021_01_workspace_RZA2M_ANPR/ANPR_RZA2M_RDK/src/tensorflow_lite/src/third_party/gemmlowp/fixedpoint\fixedpoint.h **** // So in this case, and leaving aside rounding and saturating, this
 304:C:/Renesas/e2studio_2021_01_workspace_RZA2M_ANPR/ANPR_RZA2M_RDK/src/tensorflow_lite/src/third_party/gemmlowp/fixedpoint\fixedpoint.h **** // function computes ((a / 2^31) * (b / 2^31)) * 2^31, which simplifies to
 305:C:/Renesas/e2studio_2021_01_workspace_RZA2M_ANPR/ANPR_RZA2M_RDK/src/tensorflow_lite/src/third_party/gemmlowp/fixedpoint\fixedpoint.h **** //   (a * b) / 2^31.
 306:C:/Renesas/e2studio_2021_01_workspace_RZA2M_ANPR/ANPR_RZA2M_RDK/src/tensorflow_lite/src/third_party/gemmlowp/fixedpoint\fixedpoint.h **** //
 307:C:/Renesas/e2studio_2021_01_workspace_RZA2M_ANPR/ANPR_RZA2M_RDK/src/tensorflow_lite/src/third_party/gemmlowp/fixedpoint\fixedpoint.h **** // The 'doubling' part in the name of this function comes from the fact that
 308:C:/Renesas/e2studio_2021_01_workspace_RZA2M_ANPR/ANPR_RZA2M_RDK/src/tensorflow_lite/src/third_party/gemmlowp/fixedpoint\fixedpoint.h **** // this operation is very close to a "multiply-high" operation, keeping only
 309:C:/Renesas/e2studio_2021_01_workspace_RZA2M_ANPR/ANPR_RZA2M_RDK/src/tensorflow_lite/src/third_party/gemmlowp/fixedpoint\fixedpoint.h **** // the top half bits, except that that would be effectively computing
 310:C:/Renesas/e2studio_2021_01_workspace_RZA2M_ANPR/ANPR_RZA2M_RDK/src/tensorflow_lite/src/third_party/gemmlowp/fixedpoint\fixedpoint.h **** //   (a * b) / 2^32,
 311:C:/Renesas/e2studio_2021_01_workspace_RZA2M_ANPR/ANPR_RZA2M_RDK/src/tensorflow_lite/src/third_party/gemmlowp/fixedpoint\fixedpoint.h **** // so here we are computing 2x that, since
 312:C:/Renesas/e2studio_2021_01_workspace_RZA2M_ANPR/ANPR_RZA2M_RDK/src/tensorflow_lite/src/third_party/gemmlowp/fixedpoint\fixedpoint.h **** //   1/2^31 = 2 * 1/2^32.
 313:C:/Renesas/e2studio_2021_01_workspace_RZA2M_ANPR/ANPR_RZA2M_RDK/src/tensorflow_lite/src/third_party/gemmlowp/fixedpoint\fixedpoint.h **** // The idea is to use all of the available 32 bits in the destination int32
 314:C:/Renesas/e2studio_2021_01_workspace_RZA2M_ANPR/ANPR_RZA2M_RDK/src/tensorflow_lite/src/third_party/gemmlowp/fixedpoint\fixedpoint.h **** // value.
 315:C:/Renesas/e2studio_2021_01_workspace_RZA2M_ANPR/ANPR_RZA2M_RDK/src/tensorflow_lite/src/third_party/gemmlowp/fixedpoint\fixedpoint.h **** //
 316:C:/Renesas/e2studio_2021_01_workspace_RZA2M_ANPR/ANPR_RZA2M_RDK/src/tensorflow_lite/src/third_party/gemmlowp/fixedpoint\fixedpoint.h **** // [End of the explanation specializing to int32.]
 317:C:/Renesas/e2studio_2021_01_workspace_RZA2M_ANPR/ANPR_RZA2M_RDK/src/tensorflow_lite/src/third_party/gemmlowp/fixedpoint\fixedpoint.h **** //
 318:C:/Renesas/e2studio_2021_01_workspace_RZA2M_ANPR/ANPR_RZA2M_RDK/src/tensorflow_lite/src/third_party/gemmlowp/fixedpoint\fixedpoint.h **** // This is equivalent to the VQRDMULH instruction in ARM NEON.
 319:C:/Renesas/e2studio_2021_01_workspace_RZA2M_ANPR/ANPR_RZA2M_RDK/src/tensorflow_lite/src/third_party/gemmlowp/fixedpoint\fixedpoint.h **** template <typename IntegerType>
 320:C:/Renesas/e2studio_2021_01_workspace_RZA2M_ANPR/ANPR_RZA2M_RDK/src/tensorflow_lite/src/third_party/gemmlowp/fixedpoint\fixedpoint.h **** IntegerType SaturatingRoundingDoublingHighMul(IntegerType a, IntegerType b) {
 321:C:/Renesas/e2studio_2021_01_workspace_RZA2M_ANPR/ANPR_RZA2M_RDK/src/tensorflow_lite/src/third_party/gemmlowp/fixedpoint\fixedpoint.h ****   static_assert(std::is_same<IntegerType, void>::value, "unimplemented");
 322:C:/Renesas/e2studio_2021_01_workspace_RZA2M_ANPR/ANPR_RZA2M_RDK/src/tensorflow_lite/src/third_party/gemmlowp/fixedpoint\fixedpoint.h ****   (void)b;
 323:C:/Renesas/e2studio_2021_01_workspace_RZA2M_ANPR/ANPR_RZA2M_RDK/src/tensorflow_lite/src/third_party/gemmlowp/fixedpoint\fixedpoint.h ****   return a;
 324:C:/Renesas/e2studio_2021_01_workspace_RZA2M_ANPR/ANPR_RZA2M_RDK/src/tensorflow_lite/src/third_party/gemmlowp/fixedpoint\fixedpoint.h **** }
 325:C:/Renesas/e2studio_2021_01_workspace_RZA2M_ANPR/ANPR_RZA2M_RDK/src/tensorflow_lite/src/third_party/gemmlowp/fixedpoint\fixedpoint.h **** 
 326:C:/Renesas/e2studio_2021_01_workspace_RZA2M_ANPR/ANPR_RZA2M_RDK/src/tensorflow_lite/src/third_party/gemmlowp/fixedpoint\fixedpoint.h **** // This function implements the same computation as the ARMv7 NEON VQRDMULH
 327:C:/Renesas/e2studio_2021_01_workspace_RZA2M_ANPR/ANPR_RZA2M_RDK/src/tensorflow_lite/src/third_party/gemmlowp/fixedpoint\fixedpoint.h **** // instruction.
 328:C:/Renesas/e2studio_2021_01_workspace_RZA2M_ANPR/ANPR_RZA2M_RDK/src/tensorflow_lite/src/third_party/gemmlowp/fixedpoint\fixedpoint.h **** template <>
 329:C:/Renesas/e2studio_2021_01_workspace_RZA2M_ANPR/ANPR_RZA2M_RDK/src/tensorflow_lite/src/third_party/gemmlowp/fixedpoint\fixedpoint.h **** inline std::int32_t SaturatingRoundingDoublingHighMul(std::int32_t a,
 330:C:/Renesas/e2studio_2021_01_workspace_RZA2M_ANPR/ANPR_RZA2M_RDK/src/tensorflow_lite/src/third_party/gemmlowp/fixedpoint\fixedpoint.h ****                                                       std::int32_t b) {
 331:C:/Renesas/e2studio_2021_01_workspace_RZA2M_ANPR/ANPR_RZA2M_RDK/src/tensorflow_lite/src/third_party/gemmlowp/fixedpoint\fixedpoint.h ****   bool overflow = a == b && a == std::numeric_limits<std::int32_t>::min();
 332:C:/Renesas/e2studio_2021_01_workspace_RZA2M_ANPR/ANPR_RZA2M_RDK/src/tensorflow_lite/src/third_party/gemmlowp/fixedpoint\fixedpoint.h ****   std::int64_t a_64(a);
 333:C:/Renesas/e2studio_2021_01_workspace_RZA2M_ANPR/ANPR_RZA2M_RDK/src/tensorflow_lite/src/third_party/gemmlowp/fixedpoint\fixedpoint.h ****   std::int64_t b_64(b);
 334:C:/Renesas/e2studio_2021_01_workspace_RZA2M_ANPR/ANPR_RZA2M_RDK/src/tensorflow_lite/src/third_party/gemmlowp/fixedpoint\fixedpoint.h ****   std::int64_t ab_64 = a_64 * b_64;
 335:C:/Renesas/e2studio_2021_01_workspace_RZA2M_ANPR/ANPR_RZA2M_RDK/src/tensorflow_lite/src/third_party/gemmlowp/fixedpoint\fixedpoint.h ****   std::int32_t nudge = ab_64 >= 0 ? (1 << 30) : (1 - (1 << 30));
 336:C:/Renesas/e2studio_2021_01_workspace_RZA2M_ANPR/ANPR_RZA2M_RDK/src/tensorflow_lite/src/third_party/gemmlowp/fixedpoint\fixedpoint.h ****   std::int32_t ab_x2_high32 =
 337:C:/Renesas/e2studio_2021_01_workspace_RZA2M_ANPR/ANPR_RZA2M_RDK/src/tensorflow_lite/src/third_party/gemmlowp/fixedpoint\fixedpoint.h ****       static_cast<std::int32_t>((ab_64 + nudge) / (1ll << 31));
 338:C:/Renesas/e2studio_2021_01_workspace_RZA2M_ANPR/ANPR_RZA2M_RDK/src/tensorflow_lite/src/third_party/gemmlowp/fixedpoint\fixedpoint.h ****   return overflow ? std::numeric_limits<std::int32_t>::max() : ab_x2_high32;
 339:C:/Renesas/e2studio_2021_01_workspace_RZA2M_ANPR/ANPR_RZA2M_RDK/src/tensorflow_lite/src/third_party/gemmlowp/fixedpoint\fixedpoint.h **** }
 340:C:/Renesas/e2studio_2021_01_workspace_RZA2M_ANPR/ANPR_RZA2M_RDK/src/tensorflow_lite/src/third_party/gemmlowp/fixedpoint\fixedpoint.h **** 
 341:C:/Renesas/e2studio_2021_01_workspace_RZA2M_ANPR/ANPR_RZA2M_RDK/src/tensorflow_lite/src/third_party/gemmlowp/fixedpoint\fixedpoint.h **** template <>
 342:C:/Renesas/e2studio_2021_01_workspace_RZA2M_ANPR/ANPR_RZA2M_RDK/src/tensorflow_lite/src/third_party/gemmlowp/fixedpoint\fixedpoint.h **** inline std::int16_t SaturatingRoundingDoublingHighMul(std::int16_t a,
 343:C:/Renesas/e2studio_2021_01_workspace_RZA2M_ANPR/ANPR_RZA2M_RDK/src/tensorflow_lite/src/third_party/gemmlowp/fixedpoint\fixedpoint.h ****                                                       std::int16_t b) {
 344:C:/Renesas/e2studio_2021_01_workspace_RZA2M_ANPR/ANPR_RZA2M_RDK/src/tensorflow_lite/src/third_party/gemmlowp/fixedpoint\fixedpoint.h ****   bool overflow = a == b && a == std::numeric_limits<std::int16_t>::min();
 345:C:/Renesas/e2studio_2021_01_workspace_RZA2M_ANPR/ANPR_RZA2M_RDK/src/tensorflow_lite/src/third_party/gemmlowp/fixedpoint\fixedpoint.h ****   std::int32_t a_32(a);
 346:C:/Renesas/e2studio_2021_01_workspace_RZA2M_ANPR/ANPR_RZA2M_RDK/src/tensorflow_lite/src/third_party/gemmlowp/fixedpoint\fixedpoint.h ****   std::int32_t b_32(b);
 347:C:/Renesas/e2studio_2021_01_workspace_RZA2M_ANPR/ANPR_RZA2M_RDK/src/tensorflow_lite/src/third_party/gemmlowp/fixedpoint\fixedpoint.h ****   std::int32_t ab_32 = a_32 * b_32;
 348:C:/Renesas/e2studio_2021_01_workspace_RZA2M_ANPR/ANPR_RZA2M_RDK/src/tensorflow_lite/src/third_party/gemmlowp/fixedpoint\fixedpoint.h ****   std::int16_t nudge = ab_32 >= 0 ? (1 << 14) : (1 - (1 << 14));
 349:C:/Renesas/e2studio_2021_01_workspace_RZA2M_ANPR/ANPR_RZA2M_RDK/src/tensorflow_lite/src/third_party/gemmlowp/fixedpoint\fixedpoint.h ****   std::int16_t ab_x2_high16 =
 350:C:/Renesas/e2studio_2021_01_workspace_RZA2M_ANPR/ANPR_RZA2M_RDK/src/tensorflow_lite/src/third_party/gemmlowp/fixedpoint\fixedpoint.h ****       static_cast<std::int16_t>((ab_32 + nudge) / (1 << 15));
 351:C:/Renesas/e2studio_2021_01_workspace_RZA2M_ANPR/ANPR_RZA2M_RDK/src/tensorflow_lite/src/third_party/gemmlowp/fixedpoint\fixedpoint.h ****   return overflow ? std::numeric_limits<std::int16_t>::max() : ab_x2_high16;
 352:C:/Renesas/e2studio_2021_01_workspace_RZA2M_ANPR/ANPR_RZA2M_RDK/src/tensorflow_lite/src/third_party/gemmlowp/fixedpoint\fixedpoint.h **** }
 353:C:/Renesas/e2studio_2021_01_workspace_RZA2M_ANPR/ANPR_RZA2M_RDK/src/tensorflow_lite/src/third_party/gemmlowp/fixedpoint\fixedpoint.h **** 
 354:C:/Renesas/e2studio_2021_01_workspace_RZA2M_ANPR/ANPR_RZA2M_RDK/src/tensorflow_lite/src/third_party/gemmlowp/fixedpoint\fixedpoint.h **** // Correctly-rounded-to-nearest division by a power-of-two.
 355:C:/Renesas/e2studio_2021_01_workspace_RZA2M_ANPR/ANPR_RZA2M_RDK/src/tensorflow_lite/src/third_party/gemmlowp/fixedpoint\fixedpoint.h **** // Also known as a rounding arithmetic right shift.
 356:C:/Renesas/e2studio_2021_01_workspace_RZA2M_ANPR/ANPR_RZA2M_RDK/src/tensorflow_lite/src/third_party/gemmlowp/fixedpoint\fixedpoint.h **** template <typename IntegerType>
 357:C:/Renesas/e2studio_2021_01_workspace_RZA2M_ANPR/ANPR_RZA2M_RDK/src/tensorflow_lite/src/third_party/gemmlowp/fixedpoint\fixedpoint.h **** inline IntegerType RoundingDivideByPOT(IntegerType x, int exponent) {
 358:C:/Renesas/e2studio_2021_01_workspace_RZA2M_ANPR/ANPR_RZA2M_RDK/src/tensorflow_lite/src/third_party/gemmlowp/fixedpoint\fixedpoint.h ****   assert(exponent >= 0);
 359:C:/Renesas/e2studio_2021_01_workspace_RZA2M_ANPR/ANPR_RZA2M_RDK/src/tensorflow_lite/src/third_party/gemmlowp/fixedpoint\fixedpoint.h ****   assert(exponent <= 31);
 360:C:/Renesas/e2studio_2021_01_workspace_RZA2M_ANPR/ANPR_RZA2M_RDK/src/tensorflow_lite/src/third_party/gemmlowp/fixedpoint\fixedpoint.h ****   const IntegerType mask = Dup<IntegerType>((1ll << exponent) - 1);
 361:C:/Renesas/e2studio_2021_01_workspace_RZA2M_ANPR/ANPR_RZA2M_RDK/src/tensorflow_lite/src/third_party/gemmlowp/fixedpoint\fixedpoint.h ****   const IntegerType zero = Dup<IntegerType>(0);
 362:C:/Renesas/e2studio_2021_01_workspace_RZA2M_ANPR/ANPR_RZA2M_RDK/src/tensorflow_lite/src/third_party/gemmlowp/fixedpoint\fixedpoint.h ****   const IntegerType one = Dup<IntegerType>(1);
 363:C:/Renesas/e2studio_2021_01_workspace_RZA2M_ANPR/ANPR_RZA2M_RDK/src/tensorflow_lite/src/third_party/gemmlowp/fixedpoint\fixedpoint.h ****   const IntegerType remainder = BitAnd(x, mask);
 364:C:/Renesas/e2studio_2021_01_workspace_RZA2M_ANPR/ANPR_RZA2M_RDK/src/tensorflow_lite/src/third_party/gemmlowp/fixedpoint\fixedpoint.h ****   const IntegerType threshold =
 365:C:/Renesas/e2studio_2021_01_workspace_RZA2M_ANPR/ANPR_RZA2M_RDK/src/tensorflow_lite/src/third_party/gemmlowp/fixedpoint\fixedpoint.h ****       Add(ShiftRight(mask, 1), BitAnd(MaskIfLessThan(x, zero), one));
 366:C:/Renesas/e2studio_2021_01_workspace_RZA2M_ANPR/ANPR_RZA2M_RDK/src/tensorflow_lite/src/third_party/gemmlowp/fixedpoint\fixedpoint.h ****   return Add(ShiftRight(x, exponent),
 367:C:/Renesas/e2studio_2021_01_workspace_RZA2M_ANPR/ANPR_RZA2M_RDK/src/tensorflow_lite/src/third_party/gemmlowp/fixedpoint\fixedpoint.h ****              BitAnd(MaskIfGreaterThan(remainder, threshold), one));
 368:C:/Renesas/e2studio_2021_01_workspace_RZA2M_ANPR/ANPR_RZA2M_RDK/src/tensorflow_lite/src/third_party/gemmlowp/fixedpoint\fixedpoint.h **** }
 369:C:/Renesas/e2studio_2021_01_workspace_RZA2M_ANPR/ANPR_RZA2M_RDK/src/tensorflow_lite/src/third_party/gemmlowp/fixedpoint\fixedpoint.h **** 
 370:C:/Renesas/e2studio_2021_01_workspace_RZA2M_ANPR/ANPR_RZA2M_RDK/src/tensorflow_lite/src/third_party/gemmlowp/fixedpoint\fixedpoint.h **** // Returns the product of a run-time integer value by a compile-time power
 371:C:/Renesas/e2studio_2021_01_workspace_RZA2M_ANPR/ANPR_RZA2M_RDK/src/tensorflow_lite/src/third_party/gemmlowp/fixedpoint\fixedpoint.h **** // of two, with either a positive exponent (equivalent to an arithmetic
 372:C:/Renesas/e2studio_2021_01_workspace_RZA2M_ANPR/ANPR_RZA2M_RDK/src/tensorflow_lite/src/third_party/gemmlowp/fixedpoint\fixedpoint.h **** // left shift, saturating) or a negative exponent (equivalent to an arithmetic
 373:C:/Renesas/e2studio_2021_01_workspace_RZA2M_ANPR/ANPR_RZA2M_RDK/src/tensorflow_lite/src/third_party/gemmlowp/fixedpoint\fixedpoint.h **** // right shift, rounding to nearest).
 374:C:/Renesas/e2studio_2021_01_workspace_RZA2M_ANPR/ANPR_RZA2M_RDK/src/tensorflow_lite/src/third_party/gemmlowp/fixedpoint\fixedpoint.h **** template <int Exponent, typename IntegerType,
 375:C:/Renesas/e2studio_2021_01_workspace_RZA2M_ANPR/ANPR_RZA2M_RDK/src/tensorflow_lite/src/third_party/gemmlowp/fixedpoint\fixedpoint.h ****           int ExponentSign = (Exponent > 0 ? 1 : Exponent < 0 ? -1 : 0)>
 376:C:/Renesas/e2studio_2021_01_workspace_RZA2M_ANPR/ANPR_RZA2M_RDK/src/tensorflow_lite/src/third_party/gemmlowp/fixedpoint\fixedpoint.h **** struct ImplSaturatingRoundingMultiplyByPOT {};
 377:C:/Renesas/e2studio_2021_01_workspace_RZA2M_ANPR/ANPR_RZA2M_RDK/src/tensorflow_lite/src/third_party/gemmlowp/fixedpoint\fixedpoint.h **** 
 378:C:/Renesas/e2studio_2021_01_workspace_RZA2M_ANPR/ANPR_RZA2M_RDK/src/tensorflow_lite/src/third_party/gemmlowp/fixedpoint\fixedpoint.h **** template <int Exponent, typename IntegerType>
 379:C:/Renesas/e2studio_2021_01_workspace_RZA2M_ANPR/ANPR_RZA2M_RDK/src/tensorflow_lite/src/third_party/gemmlowp/fixedpoint\fixedpoint.h **** struct ImplSaturatingRoundingMultiplyByPOT<Exponent, IntegerType, 0> {
 380:C:/Renesas/e2studio_2021_01_workspace_RZA2M_ANPR/ANPR_RZA2M_RDK/src/tensorflow_lite/src/third_party/gemmlowp/fixedpoint\fixedpoint.h ****   static IntegerType eval(IntegerType x) { return x; }
 381:C:/Renesas/e2studio_2021_01_workspace_RZA2M_ANPR/ANPR_RZA2M_RDK/src/tensorflow_lite/src/third_party/gemmlowp/fixedpoint\fixedpoint.h **** };
 382:C:/Renesas/e2studio_2021_01_workspace_RZA2M_ANPR/ANPR_RZA2M_RDK/src/tensorflow_lite/src/third_party/gemmlowp/fixedpoint\fixedpoint.h **** 
 383:C:/Renesas/e2studio_2021_01_workspace_RZA2M_ANPR/ANPR_RZA2M_RDK/src/tensorflow_lite/src/third_party/gemmlowp/fixedpoint\fixedpoint.h **** template <int Exponent, typename IntegerType>
 384:C:/Renesas/e2studio_2021_01_workspace_RZA2M_ANPR/ANPR_RZA2M_RDK/src/tensorflow_lite/src/third_party/gemmlowp/fixedpoint\fixedpoint.h **** struct ImplSaturatingRoundingMultiplyByPOT<Exponent, IntegerType, 1> {
 385:C:/Renesas/e2studio_2021_01_workspace_RZA2M_ANPR/ANPR_RZA2M_RDK/src/tensorflow_lite/src/third_party/gemmlowp/fixedpoint\fixedpoint.h ****   static IntegerType eval(IntegerType x) {
 386:C:/Renesas/e2studio_2021_01_workspace_RZA2M_ANPR/ANPR_RZA2M_RDK/src/tensorflow_lite/src/third_party/gemmlowp/fixedpoint\fixedpoint.h ****     using ScalarIntegerType =
 387:C:/Renesas/e2studio_2021_01_workspace_RZA2M_ANPR/ANPR_RZA2M_RDK/src/tensorflow_lite/src/third_party/gemmlowp/fixedpoint\fixedpoint.h ****         typename FixedPointRawTypeTraits<IntegerType>::ScalarRawType;
 388:C:/Renesas/e2studio_2021_01_workspace_RZA2M_ANPR/ANPR_RZA2M_RDK/src/tensorflow_lite/src/third_party/gemmlowp/fixedpoint\fixedpoint.h ****     const IntegerType min =
 389:C:/Renesas/e2studio_2021_01_workspace_RZA2M_ANPR/ANPR_RZA2M_RDK/src/tensorflow_lite/src/third_party/gemmlowp/fixedpoint\fixedpoint.h ****         Dup<IntegerType>(std::numeric_limits<ScalarIntegerType>::min());
 390:C:/Renesas/e2studio_2021_01_workspace_RZA2M_ANPR/ANPR_RZA2M_RDK/src/tensorflow_lite/src/third_party/gemmlowp/fixedpoint\fixedpoint.h ****     const IntegerType max =
 391:C:/Renesas/e2studio_2021_01_workspace_RZA2M_ANPR/ANPR_RZA2M_RDK/src/tensorflow_lite/src/third_party/gemmlowp/fixedpoint\fixedpoint.h ****         Dup<IntegerType>(std::numeric_limits<ScalarIntegerType>::max());
 392:C:/Renesas/e2studio_2021_01_workspace_RZA2M_ANPR/ANPR_RZA2M_RDK/src/tensorflow_lite/src/third_party/gemmlowp/fixedpoint\fixedpoint.h ****     const int ScalarIntegerTypeBits = 8 * sizeof(ScalarIntegerType);
 393:C:/Renesas/e2studio_2021_01_workspace_RZA2M_ANPR/ANPR_RZA2M_RDK/src/tensorflow_lite/src/third_party/gemmlowp/fixedpoint\fixedpoint.h **** 
 394:C:/Renesas/e2studio_2021_01_workspace_RZA2M_ANPR/ANPR_RZA2M_RDK/src/tensorflow_lite/src/third_party/gemmlowp/fixedpoint\fixedpoint.h ****     const std::int32_t threshold =
 395:C:/Renesas/e2studio_2021_01_workspace_RZA2M_ANPR/ANPR_RZA2M_RDK/src/tensorflow_lite/src/third_party/gemmlowp/fixedpoint\fixedpoint.h ****         ((1 << (ScalarIntegerTypeBits - 1 - Exponent)) - 1);
 396:C:/Renesas/e2studio_2021_01_workspace_RZA2M_ANPR/ANPR_RZA2M_RDK/src/tensorflow_lite/src/third_party/gemmlowp/fixedpoint\fixedpoint.h ****     const IntegerType positive_mask =
 397:C:/Renesas/e2studio_2021_01_workspace_RZA2M_ANPR/ANPR_RZA2M_RDK/src/tensorflow_lite/src/third_party/gemmlowp/fixedpoint\fixedpoint.h ****         MaskIfGreaterThan(x, Dup<IntegerType>(threshold));
 398:C:/Renesas/e2studio_2021_01_workspace_RZA2M_ANPR/ANPR_RZA2M_RDK/src/tensorflow_lite/src/third_party/gemmlowp/fixedpoint\fixedpoint.h ****     const IntegerType negative_mask =
 399:C:/Renesas/e2studio_2021_01_workspace_RZA2M_ANPR/ANPR_RZA2M_RDK/src/tensorflow_lite/src/third_party/gemmlowp/fixedpoint\fixedpoint.h ****         MaskIfLessThan(x, Dup<IntegerType>(-threshold));
 400:C:/Renesas/e2studio_2021_01_workspace_RZA2M_ANPR/ANPR_RZA2M_RDK/src/tensorflow_lite/src/third_party/gemmlowp/fixedpoint\fixedpoint.h **** 
 401:C:/Renesas/e2studio_2021_01_workspace_RZA2M_ANPR/ANPR_RZA2M_RDK/src/tensorflow_lite/src/third_party/gemmlowp/fixedpoint\fixedpoint.h ****     IntegerType result = ShiftLeft(x, Exponent);
 402:C:/Renesas/e2studio_2021_01_workspace_RZA2M_ANPR/ANPR_RZA2M_RDK/src/tensorflow_lite/src/third_party/gemmlowp/fixedpoint\fixedpoint.h ****     result = SelectUsingMask(positive_mask, max, result);
 403:C:/Renesas/e2studio_2021_01_workspace_RZA2M_ANPR/ANPR_RZA2M_RDK/src/tensorflow_lite/src/third_party/gemmlowp/fixedpoint\fixedpoint.h ****     result = SelectUsingMask(negative_mask, min, result);
 404:C:/Renesas/e2studio_2021_01_workspace_RZA2M_ANPR/ANPR_RZA2M_RDK/src/tensorflow_lite/src/third_party/gemmlowp/fixedpoint\fixedpoint.h ****     return result;
 405:C:/Renesas/e2studio_2021_01_workspace_RZA2M_ANPR/ANPR_RZA2M_RDK/src/tensorflow_lite/src/third_party/gemmlowp/fixedpoint\fixedpoint.h ****   }
 406:C:/Renesas/e2studio_2021_01_workspace_RZA2M_ANPR/ANPR_RZA2M_RDK/src/tensorflow_lite/src/third_party/gemmlowp/fixedpoint\fixedpoint.h **** };
 407:C:/Renesas/e2studio_2021_01_workspace_RZA2M_ANPR/ANPR_RZA2M_RDK/src/tensorflow_lite/src/third_party/gemmlowp/fixedpoint\fixedpoint.h **** 
 408:C:/Renesas/e2studio_2021_01_workspace_RZA2M_ANPR/ANPR_RZA2M_RDK/src/tensorflow_lite/src/third_party/gemmlowp/fixedpoint\fixedpoint.h **** template <int Exponent, typename IntegerType>
 409:C:/Renesas/e2studio_2021_01_workspace_RZA2M_ANPR/ANPR_RZA2M_RDK/src/tensorflow_lite/src/third_party/gemmlowp/fixedpoint\fixedpoint.h **** struct ImplSaturatingRoundingMultiplyByPOT<Exponent, IntegerType, -1> {
 410:C:/Renesas/e2studio_2021_01_workspace_RZA2M_ANPR/ANPR_RZA2M_RDK/src/tensorflow_lite/src/third_party/gemmlowp/fixedpoint\fixedpoint.h ****   static IntegerType eval(IntegerType x) {
 411:C:/Renesas/e2studio_2021_01_workspace_RZA2M_ANPR/ANPR_RZA2M_RDK/src/tensorflow_lite/src/third_party/gemmlowp/fixedpoint\fixedpoint.h ****     return RoundingDivideByPOT<IntegerType>(x, -Exponent);
 412:C:/Renesas/e2studio_2021_01_workspace_RZA2M_ANPR/ANPR_RZA2M_RDK/src/tensorflow_lite/src/third_party/gemmlowp/fixedpoint\fixedpoint.h ****   }
 413:C:/Renesas/e2studio_2021_01_workspace_RZA2M_ANPR/ANPR_RZA2M_RDK/src/tensorflow_lite/src/third_party/gemmlowp/fixedpoint\fixedpoint.h **** };
 414:C:/Renesas/e2studio_2021_01_workspace_RZA2M_ANPR/ANPR_RZA2M_RDK/src/tensorflow_lite/src/third_party/gemmlowp/fixedpoint\fixedpoint.h **** 
 415:C:/Renesas/e2studio_2021_01_workspace_RZA2M_ANPR/ANPR_RZA2M_RDK/src/tensorflow_lite/src/third_party/gemmlowp/fixedpoint\fixedpoint.h **** template <int Exponent, typename IntegerType>
 416:C:/Renesas/e2studio_2021_01_workspace_RZA2M_ANPR/ANPR_RZA2M_RDK/src/tensorflow_lite/src/third_party/gemmlowp/fixedpoint\fixedpoint.h **** IntegerType SaturatingRoundingMultiplyByPOT(IntegerType x) {
 417:C:/Renesas/e2studio_2021_01_workspace_RZA2M_ANPR/ANPR_RZA2M_RDK/src/tensorflow_lite/src/third_party/gemmlowp/fixedpoint\fixedpoint.h ****   return ImplSaturatingRoundingMultiplyByPOT<Exponent, IntegerType>::eval(x);
 418:C:/Renesas/e2studio_2021_01_workspace_RZA2M_ANPR/ANPR_RZA2M_RDK/src/tensorflow_lite/src/third_party/gemmlowp/fixedpoint\fixedpoint.h **** }
 419:C:/Renesas/e2studio_2021_01_workspace_RZA2M_ANPR/ANPR_RZA2M_RDK/src/tensorflow_lite/src/third_party/gemmlowp/fixedpoint\fixedpoint.h **** 
 420:C:/Renesas/e2studio_2021_01_workspace_RZA2M_ANPR/ANPR_RZA2M_RDK/src/tensorflow_lite/src/third_party/gemmlowp/fixedpoint\fixedpoint.h **** // Part 2: the FixedPoint class.
 421:C:/Renesas/e2studio_2021_01_workspace_RZA2M_ANPR/ANPR_RZA2M_RDK/src/tensorflow_lite/src/third_party/gemmlowp/fixedpoint\fixedpoint.h **** 
 422:C:/Renesas/e2studio_2021_01_workspace_RZA2M_ANPR/ANPR_RZA2M_RDK/src/tensorflow_lite/src/third_party/gemmlowp/fixedpoint\fixedpoint.h **** // A FixedPoint object represents a fixed-point value stored in the underlying
 423:C:/Renesas/e2studio_2021_01_workspace_RZA2M_ANPR/ANPR_RZA2M_RDK/src/tensorflow_lite/src/third_party/gemmlowp/fixedpoint\fixedpoint.h **** // integer type tRawType, if tRawType is a plain scalar integer type.
 424:C:/Renesas/e2studio_2021_01_workspace_RZA2M_ANPR/ANPR_RZA2M_RDK/src/tensorflow_lite/src/third_party/gemmlowp/fixedpoint\fixedpoint.h **** // Alternatively, tRawType may be a SIMD type (e.g. NEON int32x4_t) in which
 425:C:/Renesas/e2studio_2021_01_workspace_RZA2M_ANPR/ANPR_RZA2M_RDK/src/tensorflow_lite/src/third_party/gemmlowp/fixedpoint\fixedpoint.h **** // case a FixedPoint object represents a corresponding SIMD vector of fixed
 426:C:/Renesas/e2studio_2021_01_workspace_RZA2M_ANPR/ANPR_RZA2M_RDK/src/tensorflow_lite/src/third_party/gemmlowp/fixedpoint\fixedpoint.h **** // point values.
 427:C:/Renesas/e2studio_2021_01_workspace_RZA2M_ANPR/ANPR_RZA2M_RDK/src/tensorflow_lite/src/third_party/gemmlowp/fixedpoint\fixedpoint.h **** //
 428:C:/Renesas/e2studio_2021_01_workspace_RZA2M_ANPR/ANPR_RZA2M_RDK/src/tensorflow_lite/src/third_party/gemmlowp/fixedpoint\fixedpoint.h **** // tIntegerBits describes the range of the fixed-point format: if
 429:C:/Renesas/e2studio_2021_01_workspace_RZA2M_ANPR/ANPR_RZA2M_RDK/src/tensorflow_lite/src/third_party/gemmlowp/fixedpoint\fixedpoint.h **** // tIntegerBits == m then the range of representable values is the half-open
 430:C:/Renesas/e2studio_2021_01_workspace_RZA2M_ANPR/ANPR_RZA2M_RDK/src/tensorflow_lite/src/third_party/gemmlowp/fixedpoint\fixedpoint.h **** // interval [-2^m; 2^m) where the open boundary on the right side means that
 431:C:/Renesas/e2studio_2021_01_workspace_RZA2M_ANPR/ANPR_RZA2M_RDK/src/tensorflow_lite/src/third_party/gemmlowp/fixedpoint\fixedpoint.h **** // 2^m is not representable (how close the maximum representable value is to
 432:C:/Renesas/e2studio_2021_01_workspace_RZA2M_ANPR/ANPR_RZA2M_RDK/src/tensorflow_lite/src/third_party/gemmlowp/fixedpoint\fixedpoint.h **** // it, depends on bit-depth of tRawType).
 433:C:/Renesas/e2studio_2021_01_workspace_RZA2M_ANPR/ANPR_RZA2M_RDK/src/tensorflow_lite/src/third_party/gemmlowp/fixedpoint\fixedpoint.h **** //
 434:C:/Renesas/e2studio_2021_01_workspace_RZA2M_ANPR/ANPR_RZA2M_RDK/src/tensorflow_lite/src/third_party/gemmlowp/fixedpoint\fixedpoint.h **** // In "Q format notation",
 435:C:/Renesas/e2studio_2021_01_workspace_RZA2M_ANPR/ANPR_RZA2M_RDK/src/tensorflow_lite/src/third_party/gemmlowp/fixedpoint\fixedpoint.h **** //   https://en.wikipedia.org/wiki/Q_(number_format)
 436:C:/Renesas/e2studio_2021_01_workspace_RZA2M_ANPR/ANPR_RZA2M_RDK/src/tensorflow_lite/src/third_party/gemmlowp/fixedpoint\fixedpoint.h **** // we are describing the format
 437:C:/Renesas/e2studio_2021_01_workspace_RZA2M_ANPR/ANPR_RZA2M_RDK/src/tensorflow_lite/src/third_party/gemmlowp/fixedpoint\fixedpoint.h **** //   Qm.n
 438:C:/Renesas/e2studio_2021_01_workspace_RZA2M_ANPR/ANPR_RZA2M_RDK/src/tensorflow_lite/src/third_party/gemmlowp/fixedpoint\fixedpoint.h **** // where
 439:C:/Renesas/e2studio_2021_01_workspace_RZA2M_ANPR/ANPR_RZA2M_RDK/src/tensorflow_lite/src/third_party/gemmlowp/fixedpoint\fixedpoint.h **** //   m = tIntegerBits
 440:C:/Renesas/e2studio_2021_01_workspace_RZA2M_ANPR/ANPR_RZA2M_RDK/src/tensorflow_lite/src/third_party/gemmlowp/fixedpoint\fixedpoint.h **** // and
 441:C:/Renesas/e2studio_2021_01_workspace_RZA2M_ANPR/ANPR_RZA2M_RDK/src/tensorflow_lite/src/third_party/gemmlowp/fixedpoint\fixedpoint.h **** //   n = NumberOfBits(tRawType) - (m + 1)
 442:C:/Renesas/e2studio_2021_01_workspace_RZA2M_ANPR/ANPR_RZA2M_RDK/src/tensorflow_lite/src/third_party/gemmlowp/fixedpoint\fixedpoint.h **** // Note that the (m + 1) in the above line is because we adopt the convention
 443:C:/Renesas/e2studio_2021_01_workspace_RZA2M_ANPR/ANPR_RZA2M_RDK/src/tensorflow_lite/src/third_party/gemmlowp/fixedpoint\fixedpoint.h **** // that we count the integer bits exclusively of the sign bit; so (m + 1) is
 444:C:/Renesas/e2studio_2021_01_workspace_RZA2M_ANPR/ANPR_RZA2M_RDK/src/tensorflow_lite/src/third_party/gemmlowp/fixedpoint\fixedpoint.h **** // the total number of integer bits inclusive of the sign bit.
 445:C:/Renesas/e2studio_2021_01_workspace_RZA2M_ANPR/ANPR_RZA2M_RDK/src/tensorflow_lite/src/third_party/gemmlowp/fixedpoint\fixedpoint.h **** //
 446:C:/Renesas/e2studio_2021_01_workspace_RZA2M_ANPR/ANPR_RZA2M_RDK/src/tensorflow_lite/src/third_party/gemmlowp/fixedpoint\fixedpoint.h **** // Accordingly, the number of integral representable values in our range
 447:C:/Renesas/e2studio_2021_01_workspace_RZA2M_ANPR/ANPR_RZA2M_RDK/src/tensorflow_lite/src/third_party/gemmlowp/fixedpoint\fixedpoint.h **** //   [-2^m ; 2^m)
 448:C:/Renesas/e2studio_2021_01_workspace_RZA2M_ANPR/ANPR_RZA2M_RDK/src/tensorflow_lite/src/third_party/gemmlowp/fixedpoint\fixedpoint.h **** // is equal to 2^(m+1).
 449:C:/Renesas/e2studio_2021_01_workspace_RZA2M_ANPR/ANPR_RZA2M_RDK/src/tensorflow_lite/src/third_party/gemmlowp/fixedpoint\fixedpoint.h **** template <typename tRawType, int tIntegerBits>
 450:C:/Renesas/e2studio_2021_01_workspace_RZA2M_ANPR/ANPR_RZA2M_RDK/src/tensorflow_lite/src/third_party/gemmlowp/fixedpoint\fixedpoint.h **** class FixedPoint {
 451:C:/Renesas/e2studio_2021_01_workspace_RZA2M_ANPR/ANPR_RZA2M_RDK/src/tensorflow_lite/src/third_party/gemmlowp/fixedpoint\fixedpoint.h ****  public:
 452:C:/Renesas/e2studio_2021_01_workspace_RZA2M_ANPR/ANPR_RZA2M_RDK/src/tensorflow_lite/src/third_party/gemmlowp/fixedpoint\fixedpoint.h ****   typedef tRawType RawType;
 453:C:/Renesas/e2studio_2021_01_workspace_RZA2M_ANPR/ANPR_RZA2M_RDK/src/tensorflow_lite/src/third_party/gemmlowp/fixedpoint\fixedpoint.h **** 
 454:C:/Renesas/e2studio_2021_01_workspace_RZA2M_ANPR/ANPR_RZA2M_RDK/src/tensorflow_lite/src/third_party/gemmlowp/fixedpoint\fixedpoint.h ****   typedef FixedPointRawTypeTraits<RawType> RawTypeTraits;
 455:C:/Renesas/e2studio_2021_01_workspace_RZA2M_ANPR/ANPR_RZA2M_RDK/src/tensorflow_lite/src/third_party/gemmlowp/fixedpoint\fixedpoint.h ****   typedef typename RawTypeTraits::ScalarRawType ScalarRawType;
 456:C:/Renesas/e2studio_2021_01_workspace_RZA2M_ANPR/ANPR_RZA2M_RDK/src/tensorflow_lite/src/third_party/gemmlowp/fixedpoint\fixedpoint.h **** 
 457:C:/Renesas/e2studio_2021_01_workspace_RZA2M_ANPR/ANPR_RZA2M_RDK/src/tensorflow_lite/src/third_party/gemmlowp/fixedpoint\fixedpoint.h ****   static constexpr int kTotalBits = 8 * sizeof(ScalarRawType);
 458:C:/Renesas/e2studio_2021_01_workspace_RZA2M_ANPR/ANPR_RZA2M_RDK/src/tensorflow_lite/src/third_party/gemmlowp/fixedpoint\fixedpoint.h ****   static constexpr int kIntegerBits = tIntegerBits;
 459:C:/Renesas/e2studio_2021_01_workspace_RZA2M_ANPR/ANPR_RZA2M_RDK/src/tensorflow_lite/src/third_party/gemmlowp/fixedpoint\fixedpoint.h ****   static constexpr int kFractionalBits = kTotalBits - 1 - kIntegerBits;
 460:C:/Renesas/e2studio_2021_01_workspace_RZA2M_ANPR/ANPR_RZA2M_RDK/src/tensorflow_lite/src/third_party/gemmlowp/fixedpoint\fixedpoint.h ****   static_assert(kIntegerBits >= 0 && kIntegerBits < kTotalBits,
 461:C:/Renesas/e2studio_2021_01_workspace_RZA2M_ANPR/ANPR_RZA2M_RDK/src/tensorflow_lite/src/third_party/gemmlowp/fixedpoint\fixedpoint.h ****                 "bad IntegerBits");
 462:C:/Renesas/e2studio_2021_01_workspace_RZA2M_ANPR/ANPR_RZA2M_RDK/src/tensorflow_lite/src/third_party/gemmlowp/fixedpoint\fixedpoint.h **** 
 463:C:/Renesas/e2studio_2021_01_workspace_RZA2M_ANPR/ANPR_RZA2M_RDK/src/tensorflow_lite/src/third_party/gemmlowp/fixedpoint\fixedpoint.h ****   typedef FixedPoint<ScalarRawType, kIntegerBits> ScalarFixedPointType;
 464:C:/Renesas/e2studio_2021_01_workspace_RZA2M_ANPR/ANPR_RZA2M_RDK/src/tensorflow_lite/src/third_party/gemmlowp/fixedpoint\fixedpoint.h **** 
 465:C:/Renesas/e2studio_2021_01_workspace_RZA2M_ANPR/ANPR_RZA2M_RDK/src/tensorflow_lite/src/third_party/gemmlowp/fixedpoint\fixedpoint.h ****   static const ScalarRawType ScalarRawMin() {
 466:C:/Renesas/e2studio_2021_01_workspace_RZA2M_ANPR/ANPR_RZA2M_RDK/src/tensorflow_lite/src/third_party/gemmlowp/fixedpoint\fixedpoint.h ****     return std::numeric_limits<ScalarRawType>::min();
 467:C:/Renesas/e2studio_2021_01_workspace_RZA2M_ANPR/ANPR_RZA2M_RDK/src/tensorflow_lite/src/third_party/gemmlowp/fixedpoint\fixedpoint.h ****   }
 468:C:/Renesas/e2studio_2021_01_workspace_RZA2M_ANPR/ANPR_RZA2M_RDK/src/tensorflow_lite/src/third_party/gemmlowp/fixedpoint\fixedpoint.h **** 
 469:C:/Renesas/e2studio_2021_01_workspace_RZA2M_ANPR/ANPR_RZA2M_RDK/src/tensorflow_lite/src/third_party/gemmlowp/fixedpoint\fixedpoint.h ****   static const ScalarRawType ScalarRawMax() {
 470:C:/Renesas/e2studio_2021_01_workspace_RZA2M_ANPR/ANPR_RZA2M_RDK/src/tensorflow_lite/src/third_party/gemmlowp/fixedpoint\fixedpoint.h ****     return std::numeric_limits<ScalarRawType>::max();
 471:C:/Renesas/e2studio_2021_01_workspace_RZA2M_ANPR/ANPR_RZA2M_RDK/src/tensorflow_lite/src/third_party/gemmlowp/fixedpoint\fixedpoint.h ****   }
 472:C:/Renesas/e2studio_2021_01_workspace_RZA2M_ANPR/ANPR_RZA2M_RDK/src/tensorflow_lite/src/third_party/gemmlowp/fixedpoint\fixedpoint.h **** 
 473:C:/Renesas/e2studio_2021_01_workspace_RZA2M_ANPR/ANPR_RZA2M_RDK/src/tensorflow_lite/src/third_party/gemmlowp/fixedpoint\fixedpoint.h ****   static const ScalarRawType RawMin() {
 474:C:/Renesas/e2studio_2021_01_workspace_RZA2M_ANPR/ANPR_RZA2M_RDK/src/tensorflow_lite/src/third_party/gemmlowp/fixedpoint\fixedpoint.h ****     return VectorFromScalar(ScalarRawMin());
 475:C:/Renesas/e2studio_2021_01_workspace_RZA2M_ANPR/ANPR_RZA2M_RDK/src/tensorflow_lite/src/third_party/gemmlowp/fixedpoint\fixedpoint.h ****   }
 476:C:/Renesas/e2studio_2021_01_workspace_RZA2M_ANPR/ANPR_RZA2M_RDK/src/tensorflow_lite/src/third_party/gemmlowp/fixedpoint\fixedpoint.h **** 
 477:C:/Renesas/e2studio_2021_01_workspace_RZA2M_ANPR/ANPR_RZA2M_RDK/src/tensorflow_lite/src/third_party/gemmlowp/fixedpoint\fixedpoint.h ****   static const ScalarRawType RawMax() {
 478:C:/Renesas/e2studio_2021_01_workspace_RZA2M_ANPR/ANPR_RZA2M_RDK/src/tensorflow_lite/src/third_party/gemmlowp/fixedpoint\fixedpoint.h ****     return VectorFromScalar(ScalarRawMax());
 479:C:/Renesas/e2studio_2021_01_workspace_RZA2M_ANPR/ANPR_RZA2M_RDK/src/tensorflow_lite/src/third_party/gemmlowp/fixedpoint\fixedpoint.h ****   }
 480:C:/Renesas/e2studio_2021_01_workspace_RZA2M_ANPR/ANPR_RZA2M_RDK/src/tensorflow_lite/src/third_party/gemmlowp/fixedpoint\fixedpoint.h **** 
 481:C:/Renesas/e2studio_2021_01_workspace_RZA2M_ANPR/ANPR_RZA2M_RDK/src/tensorflow_lite/src/third_party/gemmlowp/fixedpoint\fixedpoint.h ****   static FixedPoint FromRaw(RawType x) {
 482:C:/Renesas/e2studio_2021_01_workspace_RZA2M_ANPR/ANPR_RZA2M_RDK/src/tensorflow_lite/src/third_party/gemmlowp/fixedpoint\fixedpoint.h ****     FixedPoint retval;
 483:C:/Renesas/e2studio_2021_01_workspace_RZA2M_ANPR/ANPR_RZA2M_RDK/src/tensorflow_lite/src/third_party/gemmlowp/fixedpoint\fixedpoint.h ****     retval.raw() = x;
 484:C:/Renesas/e2studio_2021_01_workspace_RZA2M_ANPR/ANPR_RZA2M_RDK/src/tensorflow_lite/src/third_party/gemmlowp/fixedpoint\fixedpoint.h ****     return retval;
 485:C:/Renesas/e2studio_2021_01_workspace_RZA2M_ANPR/ANPR_RZA2M_RDK/src/tensorflow_lite/src/third_party/gemmlowp/fixedpoint\fixedpoint.h ****   }
 486:C:/Renesas/e2studio_2021_01_workspace_RZA2M_ANPR/ANPR_RZA2M_RDK/src/tensorflow_lite/src/third_party/gemmlowp/fixedpoint\fixedpoint.h **** 
 487:C:/Renesas/e2studio_2021_01_workspace_RZA2M_ANPR/ANPR_RZA2M_RDK/src/tensorflow_lite/src/third_party/gemmlowp/fixedpoint\fixedpoint.h ****   static FixedPoint FromScalarRaw(ScalarRawType x) {
 488:C:/Renesas/e2studio_2021_01_workspace_RZA2M_ANPR/ANPR_RZA2M_RDK/src/tensorflow_lite/src/third_party/gemmlowp/fixedpoint\fixedpoint.h ****     FixedPoint retval;
 489:C:/Renesas/e2studio_2021_01_workspace_RZA2M_ANPR/ANPR_RZA2M_RDK/src/tensorflow_lite/src/third_party/gemmlowp/fixedpoint\fixedpoint.h ****     retval.raw() = Dup<RawType>(x);
 490:C:/Renesas/e2studio_2021_01_workspace_RZA2M_ANPR/ANPR_RZA2M_RDK/src/tensorflow_lite/src/third_party/gemmlowp/fixedpoint\fixedpoint.h ****     return retval;
 491:C:/Renesas/e2studio_2021_01_workspace_RZA2M_ANPR/ANPR_RZA2M_RDK/src/tensorflow_lite/src/third_party/gemmlowp/fixedpoint\fixedpoint.h ****   }
 492:C:/Renesas/e2studio_2021_01_workspace_RZA2M_ANPR/ANPR_RZA2M_RDK/src/tensorflow_lite/src/third_party/gemmlowp/fixedpoint\fixedpoint.h **** 
 493:C:/Renesas/e2studio_2021_01_workspace_RZA2M_ANPR/ANPR_RZA2M_RDK/src/tensorflow_lite/src/third_party/gemmlowp/fixedpoint\fixedpoint.h ****   static FixedPoint FromScalarFixedPoint(ScalarFixedPointType x) {
 494:C:/Renesas/e2studio_2021_01_workspace_RZA2M_ANPR/ANPR_RZA2M_RDK/src/tensorflow_lite/src/third_party/gemmlowp/fixedpoint\fixedpoint.h ****     return FromScalarRaw(x.raw());
 495:C:/Renesas/e2studio_2021_01_workspace_RZA2M_ANPR/ANPR_RZA2M_RDK/src/tensorflow_lite/src/third_party/gemmlowp/fixedpoint\fixedpoint.h ****   }
 496:C:/Renesas/e2studio_2021_01_workspace_RZA2M_ANPR/ANPR_RZA2M_RDK/src/tensorflow_lite/src/third_party/gemmlowp/fixedpoint\fixedpoint.h **** 
 497:C:/Renesas/e2studio_2021_01_workspace_RZA2M_ANPR/ANPR_RZA2M_RDK/src/tensorflow_lite/src/third_party/gemmlowp/fixedpoint\fixedpoint.h ****   template <int Exponent>
 498:C:/Renesas/e2studio_2021_01_workspace_RZA2M_ANPR/ANPR_RZA2M_RDK/src/tensorflow_lite/src/third_party/gemmlowp/fixedpoint\fixedpoint.h ****   static FixedPoint ConstantPOT() {
 499:C:/Renesas/e2studio_2021_01_workspace_RZA2M_ANPR/ANPR_RZA2M_RDK/src/tensorflow_lite/src/third_party/gemmlowp/fixedpoint\fixedpoint.h ****     static constexpr int kOffset = kFractionalBits + Exponent;
 500:C:/Renesas/e2studio_2021_01_workspace_RZA2M_ANPR/ANPR_RZA2M_RDK/src/tensorflow_lite/src/third_party/gemmlowp/fixedpoint\fixedpoint.h ****     static_assert(
 501:C:/Renesas/e2studio_2021_01_workspace_RZA2M_ANPR/ANPR_RZA2M_RDK/src/tensorflow_lite/src/third_party/gemmlowp/fixedpoint\fixedpoint.h ****         kOffset < 31,
 502:C:/Renesas/e2studio_2021_01_workspace_RZA2M_ANPR/ANPR_RZA2M_RDK/src/tensorflow_lite/src/third_party/gemmlowp/fixedpoint\fixedpoint.h ****         "Constant not exactly representable in this fixed-point format");
 503:C:/Renesas/e2studio_2021_01_workspace_RZA2M_ANPR/ANPR_RZA2M_RDK/src/tensorflow_lite/src/third_party/gemmlowp/fixedpoint\fixedpoint.h ****     return FromScalarRaw(ScalarRawType(1) << kOffset);
 504:C:/Renesas/e2studio_2021_01_workspace_RZA2M_ANPR/ANPR_RZA2M_RDK/src/tensorflow_lite/src/third_party/gemmlowp/fixedpoint\fixedpoint.h ****   }
 505:C:/Renesas/e2studio_2021_01_workspace_RZA2M_ANPR/ANPR_RZA2M_RDK/src/tensorflow_lite/src/third_party/gemmlowp/fixedpoint\fixedpoint.h **** 
 506:C:/Renesas/e2studio_2021_01_workspace_RZA2M_ANPR/ANPR_RZA2M_RDK/src/tensorflow_lite/src/third_party/gemmlowp/fixedpoint\fixedpoint.h ****   static FixedPoint Zero() { return FromScalarRaw(0); }
 507:C:/Renesas/e2studio_2021_01_workspace_RZA2M_ANPR/ANPR_RZA2M_RDK/src/tensorflow_lite/src/third_party/gemmlowp/fixedpoint\fixedpoint.h **** 
 508:C:/Renesas/e2studio_2021_01_workspace_RZA2M_ANPR/ANPR_RZA2M_RDK/src/tensorflow_lite/src/third_party/gemmlowp/fixedpoint\fixedpoint.h ****   static FixedPoint One() {
 509:C:/Renesas/e2studio_2021_01_workspace_RZA2M_ANPR/ANPR_RZA2M_RDK/src/tensorflow_lite/src/third_party/gemmlowp/fixedpoint\fixedpoint.h ****     return FromScalarRaw(
 510:C:/Renesas/e2studio_2021_01_workspace_RZA2M_ANPR/ANPR_RZA2M_RDK/src/tensorflow_lite/src/third_party/gemmlowp/fixedpoint\fixedpoint.h ****         kIntegerBits == 0
 511:C:/Renesas/e2studio_2021_01_workspace_RZA2M_ANPR/ANPR_RZA2M_RDK/src/tensorflow_lite/src/third_party/gemmlowp/fixedpoint\fixedpoint.h ****             ? ScalarRawMax()
 512:C:/Renesas/e2studio_2021_01_workspace_RZA2M_ANPR/ANPR_RZA2M_RDK/src/tensorflow_lite/src/third_party/gemmlowp/fixedpoint\fixedpoint.h ****             : (ScalarRawType(1) << (kIntegerBits == 0 ? 0 : kFractionalBits)));
 513:C:/Renesas/e2studio_2021_01_workspace_RZA2M_ANPR/ANPR_RZA2M_RDK/src/tensorflow_lite/src/third_party/gemmlowp/fixedpoint\fixedpoint.h ****   }
 514:C:/Renesas/e2studio_2021_01_workspace_RZA2M_ANPR/ANPR_RZA2M_RDK/src/tensorflow_lite/src/third_party/gemmlowp/fixedpoint\fixedpoint.h **** 
 515:C:/Renesas/e2studio_2021_01_workspace_RZA2M_ANPR/ANPR_RZA2M_RDK/src/tensorflow_lite/src/third_party/gemmlowp/fixedpoint\fixedpoint.h ****   static FixedPoint FromDouble(double x) {
 516:C:/Renesas/e2studio_2021_01_workspace_RZA2M_ANPR/ANPR_RZA2M_RDK/src/tensorflow_lite/src/third_party/gemmlowp/fixedpoint\fixedpoint.h ****     const double min_bound = static_cast<double>(ScalarRawMin());
 517:C:/Renesas/e2studio_2021_01_workspace_RZA2M_ANPR/ANPR_RZA2M_RDK/src/tensorflow_lite/src/third_party/gemmlowp/fixedpoint\fixedpoint.h ****     const double max_bound = static_cast<double>(ScalarRawMax());
 518:C:/Renesas/e2studio_2021_01_workspace_RZA2M_ANPR/ANPR_RZA2M_RDK/src/tensorflow_lite/src/third_party/gemmlowp/fixedpoint\fixedpoint.h ****     return FromScalarRaw(static_cast<ScalarRawType>(std::min(
 519:C:/Renesas/e2studio_2021_01_workspace_RZA2M_ANPR/ANPR_RZA2M_RDK/src/tensorflow_lite/src/third_party/gemmlowp/fixedpoint\fixedpoint.h ****         std::max(round(x * static_cast<double>(1ll << kFractionalBits)),
 520:C:/Renesas/e2studio_2021_01_workspace_RZA2M_ANPR/ANPR_RZA2M_RDK/src/tensorflow_lite/src/third_party/gemmlowp/fixedpoint\fixedpoint.h ****                  min_bound),
 521:C:/Renesas/e2studio_2021_01_workspace_RZA2M_ANPR/ANPR_RZA2M_RDK/src/tensorflow_lite/src/third_party/gemmlowp/fixedpoint\fixedpoint.h ****         max_bound)));
 522:C:/Renesas/e2studio_2021_01_workspace_RZA2M_ANPR/ANPR_RZA2M_RDK/src/tensorflow_lite/src/third_party/gemmlowp/fixedpoint\fixedpoint.h ****   }
 523:C:/Renesas/e2studio_2021_01_workspace_RZA2M_ANPR/ANPR_RZA2M_RDK/src/tensorflow_lite/src/third_party/gemmlowp/fixedpoint\fixedpoint.h **** 
 524:C:/Renesas/e2studio_2021_01_workspace_RZA2M_ANPR/ANPR_RZA2M_RDK/src/tensorflow_lite/src/third_party/gemmlowp/fixedpoint\fixedpoint.h ****   RawType raw() const { return i_; }
 525:C:/Renesas/e2studio_2021_01_workspace_RZA2M_ANPR/ANPR_RZA2M_RDK/src/tensorflow_lite/src/third_party/gemmlowp/fixedpoint\fixedpoint.h ****   RawType& raw() { return i_; }
 526:C:/Renesas/e2studio_2021_01_workspace_RZA2M_ANPR/ANPR_RZA2M_RDK/src/tensorflow_lite/src/third_party/gemmlowp/fixedpoint\fixedpoint.h **** 
 527:C:/Renesas/e2studio_2021_01_workspace_RZA2M_ANPR/ANPR_RZA2M_RDK/src/tensorflow_lite/src/third_party/gemmlowp/fixedpoint\fixedpoint.h ****  private:
 528:C:/Renesas/e2studio_2021_01_workspace_RZA2M_ANPR/ANPR_RZA2M_RDK/src/tensorflow_lite/src/third_party/gemmlowp/fixedpoint\fixedpoint.h ****   RawType i_;
 529:C:/Renesas/e2studio_2021_01_workspace_RZA2M_ANPR/ANPR_RZA2M_RDK/src/tensorflow_lite/src/third_party/gemmlowp/fixedpoint\fixedpoint.h **** };
 530:C:/Renesas/e2studio_2021_01_workspace_RZA2M_ANPR/ANPR_RZA2M_RDK/src/tensorflow_lite/src/third_party/gemmlowp/fixedpoint\fixedpoint.h **** 
 531:C:/Renesas/e2studio_2021_01_workspace_RZA2M_ANPR/ANPR_RZA2M_RDK/src/tensorflow_lite/src/third_party/gemmlowp/fixedpoint\fixedpoint.h **** // Part 3: implementation of arithmetic operators for the
 532:C:/Renesas/e2studio_2021_01_workspace_RZA2M_ANPR/ANPR_RZA2M_RDK/src/tensorflow_lite/src/third_party/gemmlowp/fixedpoint\fixedpoint.h **** // FixedPoint class, and a few related functions.
 533:C:/Renesas/e2studio_2021_01_workspace_RZA2M_ANPR/ANPR_RZA2M_RDK/src/tensorflow_lite/src/third_party/gemmlowp/fixedpoint\fixedpoint.h **** 
 534:C:/Renesas/e2studio_2021_01_workspace_RZA2M_ANPR/ANPR_RZA2M_RDK/src/tensorflow_lite/src/third_party/gemmlowp/fixedpoint\fixedpoint.h **** // A FixedPoint multiplication is just a
 535:C:/Renesas/e2studio_2021_01_workspace_RZA2M_ANPR/ANPR_RZA2M_RDK/src/tensorflow_lite/src/third_party/gemmlowp/fixedpoint\fixedpoint.h **** // SaturatingRoundingDoublingHighMul operation on the underlying
 536:C:/Renesas/e2studio_2021_01_workspace_RZA2M_ANPR/ANPR_RZA2M_RDK/src/tensorflow_lite/src/third_party/gemmlowp/fixedpoint\fixedpoint.h **** // raw integer values. The IntegerBits simply add up, as is obvious
 537:C:/Renesas/e2studio_2021_01_workspace_RZA2M_ANPR/ANPR_RZA2M_RDK/src/tensorflow_lite/src/third_party/gemmlowp/fixedpoint\fixedpoint.h **** // from the fact that the range is [-2^IntegerBits, 2^IntegerBits).
 538:C:/Renesas/e2studio_2021_01_workspace_RZA2M_ANPR/ANPR_RZA2M_RDK/src/tensorflow_lite/src/third_party/gemmlowp/fixedpoint\fixedpoint.h **** template <typename tRawType, int tIntegerBits_a, int tIntegerBits_b>
 539:C:/Renesas/e2studio_2021_01_workspace_RZA2M_ANPR/ANPR_RZA2M_RDK/src/tensorflow_lite/src/third_party/gemmlowp/fixedpoint\fixedpoint.h **** FixedPoint<tRawType, tIntegerBits_a + tIntegerBits_b> operator*(
 540:C:/Renesas/e2studio_2021_01_workspace_RZA2M_ANPR/ANPR_RZA2M_RDK/src/tensorflow_lite/src/third_party/gemmlowp/fixedpoint\fixedpoint.h ****     FixedPoint<tRawType, tIntegerBits_a> a,
 541:C:/Renesas/e2studio_2021_01_workspace_RZA2M_ANPR/ANPR_RZA2M_RDK/src/tensorflow_lite/src/third_party/gemmlowp/fixedpoint\fixedpoint.h ****     FixedPoint<tRawType, tIntegerBits_b> b) {
 542:C:/Renesas/e2studio_2021_01_workspace_RZA2M_ANPR/ANPR_RZA2M_RDK/src/tensorflow_lite/src/third_party/gemmlowp/fixedpoint\fixedpoint.h ****   FixedPoint<tRawType, tIntegerBits_a + tIntegerBits_b> c;
 543:C:/Renesas/e2studio_2021_01_workspace_RZA2M_ANPR/ANPR_RZA2M_RDK/src/tensorflow_lite/src/third_party/gemmlowp/fixedpoint\fixedpoint.h ****   c.raw() = SaturatingRoundingDoublingHighMul(a.raw(), b.raw());
 544:C:/Renesas/e2studio_2021_01_workspace_RZA2M_ANPR/ANPR_RZA2M_RDK/src/tensorflow_lite/src/third_party/gemmlowp/fixedpoint\fixedpoint.h ****   return c;
 545:C:/Renesas/e2studio_2021_01_workspace_RZA2M_ANPR/ANPR_RZA2M_RDK/src/tensorflow_lite/src/third_party/gemmlowp/fixedpoint\fixedpoint.h **** }
 546:C:/Renesas/e2studio_2021_01_workspace_RZA2M_ANPR/ANPR_RZA2M_RDK/src/tensorflow_lite/src/third_party/gemmlowp/fixedpoint\fixedpoint.h **** 
 547:C:/Renesas/e2studio_2021_01_workspace_RZA2M_ANPR/ANPR_RZA2M_RDK/src/tensorflow_lite/src/third_party/gemmlowp/fixedpoint\fixedpoint.h **** // Tweaking IntegerBits gives exact multiplication by a power of two.
 548:C:/Renesas/e2studio_2021_01_workspace_RZA2M_ANPR/ANPR_RZA2M_RDK/src/tensorflow_lite/src/third_party/gemmlowp/fixedpoint\fixedpoint.h **** template <int tExponent, typename tRawType, int tIntegerBits>
 549:C:/Renesas/e2studio_2021_01_workspace_RZA2M_ANPR/ANPR_RZA2M_RDK/src/tensorflow_lite/src/third_party/gemmlowp/fixedpoint\fixedpoint.h **** FixedPoint<tRawType, tExponent + tIntegerBits> ExactMulByPot(
 550:C:/Renesas/e2studio_2021_01_workspace_RZA2M_ANPR/ANPR_RZA2M_RDK/src/tensorflow_lite/src/third_party/gemmlowp/fixedpoint\fixedpoint.h ****     FixedPoint<tRawType, tIntegerBits> a) {
 551:C:/Renesas/e2studio_2021_01_workspace_RZA2M_ANPR/ANPR_RZA2M_RDK/src/tensorflow_lite/src/third_party/gemmlowp/fixedpoint\fixedpoint.h ****   FixedPoint<tRawType, tExponent + tIntegerBits> c;
 552:C:/Renesas/e2studio_2021_01_workspace_RZA2M_ANPR/ANPR_RZA2M_RDK/src/tensorflow_lite/src/third_party/gemmlowp/fixedpoint\fixedpoint.h ****   c.raw() = a.raw();
 553:C:/Renesas/e2studio_2021_01_workspace_RZA2M_ANPR/ANPR_RZA2M_RDK/src/tensorflow_lite/src/third_party/gemmlowp/fixedpoint\fixedpoint.h ****   return c;
 554:C:/Renesas/e2studio_2021_01_workspace_RZA2M_ANPR/ANPR_RZA2M_RDK/src/tensorflow_lite/src/third_party/gemmlowp/fixedpoint\fixedpoint.h **** }
 555:C:/Renesas/e2studio_2021_01_workspace_RZA2M_ANPR/ANPR_RZA2M_RDK/src/tensorflow_lite/src/third_party/gemmlowp/fixedpoint\fixedpoint.h **** 
 556:C:/Renesas/e2studio_2021_01_workspace_RZA2M_ANPR/ANPR_RZA2M_RDK/src/tensorflow_lite/src/third_party/gemmlowp/fixedpoint\fixedpoint.h **** // If we want to leave IntegerBits fixed, then multiplication
 557:C:/Renesas/e2studio_2021_01_workspace_RZA2M_ANPR/ANPR_RZA2M_RDK/src/tensorflow_lite/src/third_party/gemmlowp/fixedpoint\fixedpoint.h **** // by a power of two has to be saturating/rounding, not exact anymore.
 558:C:/Renesas/e2studio_2021_01_workspace_RZA2M_ANPR/ANPR_RZA2M_RDK/src/tensorflow_lite/src/third_party/gemmlowp/fixedpoint\fixedpoint.h **** template <int tExponent, typename tRawType, int tIntegerBits>
 559:C:/Renesas/e2studio_2021_01_workspace_RZA2M_ANPR/ANPR_RZA2M_RDK/src/tensorflow_lite/src/third_party/gemmlowp/fixedpoint\fixedpoint.h **** FixedPoint<tRawType, tIntegerBits> SaturatingRoundingMultiplyByPOT(
 560:C:/Renesas/e2studio_2021_01_workspace_RZA2M_ANPR/ANPR_RZA2M_RDK/src/tensorflow_lite/src/third_party/gemmlowp/fixedpoint\fixedpoint.h ****     FixedPoint<tRawType, tIntegerBits> a) {
 561:C:/Renesas/e2studio_2021_01_workspace_RZA2M_ANPR/ANPR_RZA2M_RDK/src/tensorflow_lite/src/third_party/gemmlowp/fixedpoint\fixedpoint.h ****   return FixedPoint<tRawType, tIntegerBits>::FromRaw(
 562:C:/Renesas/e2studio_2021_01_workspace_RZA2M_ANPR/ANPR_RZA2M_RDK/src/tensorflow_lite/src/third_party/gemmlowp/fixedpoint\fixedpoint.h ****       SaturatingRoundingMultiplyByPOT<tExponent>(a.raw()));
 563:C:/Renesas/e2studio_2021_01_workspace_RZA2M_ANPR/ANPR_RZA2M_RDK/src/tensorflow_lite/src/third_party/gemmlowp/fixedpoint\fixedpoint.h **** }
 564:C:/Renesas/e2studio_2021_01_workspace_RZA2M_ANPR/ANPR_RZA2M_RDK/src/tensorflow_lite/src/third_party/gemmlowp/fixedpoint\fixedpoint.h **** 
 565:C:/Renesas/e2studio_2021_01_workspace_RZA2M_ANPR/ANPR_RZA2M_RDK/src/tensorflow_lite/src/third_party/gemmlowp/fixedpoint\fixedpoint.h **** // Generic arithmetic operators.
 566:C:/Renesas/e2studio_2021_01_workspace_RZA2M_ANPR/ANPR_RZA2M_RDK/src/tensorflow_lite/src/third_party/gemmlowp/fixedpoint\fixedpoint.h **** 
 567:C:/Renesas/e2studio_2021_01_workspace_RZA2M_ANPR/ANPR_RZA2M_RDK/src/tensorflow_lite/src/third_party/gemmlowp/fixedpoint\fixedpoint.h **** #define MAKE_FIXEDPOINT_UNARY_FUNC(FuncName, ImplFuncName)                     \
 568:C:/Renesas/e2studio_2021_01_workspace_RZA2M_ANPR/ANPR_RZA2M_RDK/src/tensorflow_lite/src/third_party/gemmlowp/fixedpoint\fixedpoint.h ****   template <typename tRawType, int tIntegerBits>                               \
 569:C:/Renesas/e2studio_2021_01_workspace_RZA2M_ANPR/ANPR_RZA2M_RDK/src/tensorflow_lite/src/third_party/gemmlowp/fixedpoint\fixedpoint.h ****   FixedPoint<tRawType, tIntegerBits> FuncName(                                 \
 570:C:/Renesas/e2studio_2021_01_workspace_RZA2M_ANPR/ANPR_RZA2M_RDK/src/tensorflow_lite/src/third_party/gemmlowp/fixedpoint\fixedpoint.h ****       FixedPoint<tRawType, tIntegerBits> a) {                                  \
 571:C:/Renesas/e2studio_2021_01_workspace_RZA2M_ANPR/ANPR_RZA2M_RDK/src/tensorflow_lite/src/third_party/gemmlowp/fixedpoint\fixedpoint.h ****     return FixedPoint<tRawType, tIntegerBits>::FromRaw(ImplFuncName(a.raw())); \
 572:C:/Renesas/e2studio_2021_01_workspace_RZA2M_ANPR/ANPR_RZA2M_RDK/src/tensorflow_lite/src/third_party/gemmlowp/fixedpoint\fixedpoint.h ****   }
 573:C:/Renesas/e2studio_2021_01_workspace_RZA2M_ANPR/ANPR_RZA2M_RDK/src/tensorflow_lite/src/third_party/gemmlowp/fixedpoint\fixedpoint.h **** 
 574:C:/Renesas/e2studio_2021_01_workspace_RZA2M_ANPR/ANPR_RZA2M_RDK/src/tensorflow_lite/src/third_party/gemmlowp/fixedpoint\fixedpoint.h **** #define MAKE_FIXEDPOINT_BINARY_FUNC(FuncName, ImplFuncName) \
 575:C:/Renesas/e2studio_2021_01_workspace_RZA2M_ANPR/ANPR_RZA2M_RDK/src/tensorflow_lite/src/third_party/gemmlowp/fixedpoint\fixedpoint.h ****   template <typename tRawType, int tIntegerBits>            \
 576:C:/Renesas/e2studio_2021_01_workspace_RZA2M_ANPR/ANPR_RZA2M_RDK/src/tensorflow_lite/src/third_party/gemmlowp/fixedpoint\fixedpoint.h ****   FixedPoint<tRawType, tIntegerBits> FuncName(              \
 577:C:/Renesas/e2studio_2021_01_workspace_RZA2M_ANPR/ANPR_RZA2M_RDK/src/tensorflow_lite/src/third_party/gemmlowp/fixedpoint\fixedpoint.h ****       FixedPoint<tRawType, tIntegerBits> a,                 \
 578:C:/Renesas/e2studio_2021_01_workspace_RZA2M_ANPR/ANPR_RZA2M_RDK/src/tensorflow_lite/src/third_party/gemmlowp/fixedpoint\fixedpoint.h ****       FixedPoint<tRawType, tIntegerBits> b) {               \
 579:C:/Renesas/e2studio_2021_01_workspace_RZA2M_ANPR/ANPR_RZA2M_RDK/src/tensorflow_lite/src/third_party/gemmlowp/fixedpoint\fixedpoint.h ****     return FixedPoint<tRawType, tIntegerBits>::FromRaw(     \
 580:C:/Renesas/e2studio_2021_01_workspace_RZA2M_ANPR/ANPR_RZA2M_RDK/src/tensorflow_lite/src/third_party/gemmlowp/fixedpoint\fixedpoint.h ****         ImplFuncName(a.raw(), b.raw()));                    \
 581:C:/Renesas/e2studio_2021_01_workspace_RZA2M_ANPR/ANPR_RZA2M_RDK/src/tensorflow_lite/src/third_party/gemmlowp/fixedpoint\fixedpoint.h ****   }
 582:C:/Renesas/e2studio_2021_01_workspace_RZA2M_ANPR/ANPR_RZA2M_RDK/src/tensorflow_lite/src/third_party/gemmlowp/fixedpoint\fixedpoint.h **** 
 583:C:/Renesas/e2studio_2021_01_workspace_RZA2M_ANPR/ANPR_RZA2M_RDK/src/tensorflow_lite/src/third_party/gemmlowp/fixedpoint\fixedpoint.h **** MAKE_FIXEDPOINT_UNARY_FUNC(operator-, Neg)
 584:C:/Renesas/e2studio_2021_01_workspace_RZA2M_ANPR/ANPR_RZA2M_RDK/src/tensorflow_lite/src/third_party/gemmlowp/fixedpoint\fixedpoint.h **** MAKE_FIXEDPOINT_UNARY_FUNC(operator~, BitNot)
 585:C:/Renesas/e2studio_2021_01_workspace_RZA2M_ANPR/ANPR_RZA2M_RDK/src/tensorflow_lite/src/third_party/gemmlowp/fixedpoint\fixedpoint.h **** MAKE_FIXEDPOINT_BINARY_FUNC(operator+, Add)
 586:C:/Renesas/e2studio_2021_01_workspace_RZA2M_ANPR/ANPR_RZA2M_RDK/src/tensorflow_lite/src/third_party/gemmlowp/fixedpoint\fixedpoint.h **** MAKE_FIXEDPOINT_BINARY_FUNC(operator-, Sub)
 587:C:/Renesas/e2studio_2021_01_workspace_RZA2M_ANPR/ANPR_RZA2M_RDK/src/tensorflow_lite/src/third_party/gemmlowp/fixedpoint\fixedpoint.h **** MAKE_FIXEDPOINT_BINARY_FUNC(operator&, BitAnd)
 588:C:/Renesas/e2studio_2021_01_workspace_RZA2M_ANPR/ANPR_RZA2M_RDK/src/tensorflow_lite/src/third_party/gemmlowp/fixedpoint\fixedpoint.h **** MAKE_FIXEDPOINT_BINARY_FUNC(operator^, BitXor)
 589:C:/Renesas/e2studio_2021_01_workspace_RZA2M_ANPR/ANPR_RZA2M_RDK/src/tensorflow_lite/src/third_party/gemmlowp/fixedpoint\fixedpoint.h **** MAKE_FIXEDPOINT_BINARY_FUNC(operator|, BitOr)
 590:C:/Renesas/e2studio_2021_01_workspace_RZA2M_ANPR/ANPR_RZA2M_RDK/src/tensorflow_lite/src/third_party/gemmlowp/fixedpoint\fixedpoint.h **** MAKE_FIXEDPOINT_BINARY_FUNC(RoundingHalfSum, RoundingHalfSum)
 591:C:/Renesas/e2studio_2021_01_workspace_RZA2M_ANPR/ANPR_RZA2M_RDK/src/tensorflow_lite/src/third_party/gemmlowp/fixedpoint\fixedpoint.h **** 
 592:C:/Renesas/e2studio_2021_01_workspace_RZA2M_ANPR/ANPR_RZA2M_RDK/src/tensorflow_lite/src/third_party/gemmlowp/fixedpoint\fixedpoint.h **** #undef MAKE_FIXEDPOINT_UNARY_FUNC
 593:C:/Renesas/e2studio_2021_01_workspace_RZA2M_ANPR/ANPR_RZA2M_RDK/src/tensorflow_lite/src/third_party/gemmlowp/fixedpoint\fixedpoint.h **** #undef MAKE_FIXEDPOINT_BINARY_FUNC
 594:C:/Renesas/e2studio_2021_01_workspace_RZA2M_ANPR/ANPR_RZA2M_RDK/src/tensorflow_lite/src/third_party/gemmlowp/fixedpoint\fixedpoint.h **** 
 595:C:/Renesas/e2studio_2021_01_workspace_RZA2M_ANPR/ANPR_RZA2M_RDK/src/tensorflow_lite/src/third_party/gemmlowp/fixedpoint\fixedpoint.h **** #define MAKE_FIXEDPOINT_UNARY_FUNC_RETURNING_RAW(FuncName)  \
 596:C:/Renesas/e2studio_2021_01_workspace_RZA2M_ANPR/ANPR_RZA2M_RDK/src/tensorflow_lite/src/third_party/gemmlowp/fixedpoint\fixedpoint.h ****   template <typename tRawType, int tIntegerBits>            \
 597:C:/Renesas/e2studio_2021_01_workspace_RZA2M_ANPR/ANPR_RZA2M_RDK/src/tensorflow_lite/src/third_party/gemmlowp/fixedpoint\fixedpoint.h ****   tRawType FuncName(FixedPoint<tRawType, tIntegerBits> a) { \
 598:C:/Renesas/e2studio_2021_01_workspace_RZA2M_ANPR/ANPR_RZA2M_RDK/src/tensorflow_lite/src/third_party/gemmlowp/fixedpoint\fixedpoint.h ****     return FuncName(a.raw());                               \
 599:C:/Renesas/e2studio_2021_01_workspace_RZA2M_ANPR/ANPR_RZA2M_RDK/src/tensorflow_lite/src/third_party/gemmlowp/fixedpoint\fixedpoint.h ****   }
 600:C:/Renesas/e2studio_2021_01_workspace_RZA2M_ANPR/ANPR_RZA2M_RDK/src/tensorflow_lite/src/third_party/gemmlowp/fixedpoint\fixedpoint.h **** 
 601:C:/Renesas/e2studio_2021_01_workspace_RZA2M_ANPR/ANPR_RZA2M_RDK/src/tensorflow_lite/src/third_party/gemmlowp/fixedpoint\fixedpoint.h **** #define MAKE_FIXEDPOINT_BINARY_FUNC_RETURNING_RAW(FuncName) \
 602:C:/Renesas/e2studio_2021_01_workspace_RZA2M_ANPR/ANPR_RZA2M_RDK/src/tensorflow_lite/src/third_party/gemmlowp/fixedpoint\fixedpoint.h ****   template <typename tRawType, int tIntegerBits>            \
 603:C:/Renesas/e2studio_2021_01_workspace_RZA2M_ANPR/ANPR_RZA2M_RDK/src/tensorflow_lite/src/third_party/gemmlowp/fixedpoint\fixedpoint.h ****   tRawType FuncName(FixedPoint<tRawType, tIntegerBits> a,   \
 604:C:/Renesas/e2studio_2021_01_workspace_RZA2M_ANPR/ANPR_RZA2M_RDK/src/tensorflow_lite/src/third_party/gemmlowp/fixedpoint\fixedpoint.h ****                     FixedPoint<tRawType, tIntegerBits> b) { \
 605:C:/Renesas/e2studio_2021_01_workspace_RZA2M_ANPR/ANPR_RZA2M_RDK/src/tensorflow_lite/src/third_party/gemmlowp/fixedpoint\fixedpoint.h ****     return FuncName(a.raw(), b.raw());                      \
 606:C:/Renesas/e2studio_2021_01_workspace_RZA2M_ANPR/ANPR_RZA2M_RDK/src/tensorflow_lite/src/third_party/gemmlowp/fixedpoint\fixedpoint.h ****   }
 607:C:/Renesas/e2studio_2021_01_workspace_RZA2M_ANPR/ANPR_RZA2M_RDK/src/tensorflow_lite/src/third_party/gemmlowp/fixedpoint\fixedpoint.h **** 
 608:C:/Renesas/e2studio_2021_01_workspace_RZA2M_ANPR/ANPR_RZA2M_RDK/src/tensorflow_lite/src/third_party/gemmlowp/fixedpoint\fixedpoint.h **** MAKE_FIXEDPOINT_UNARY_FUNC_RETURNING_RAW(MaskIfZero)
 609:C:/Renesas/e2studio_2021_01_workspace_RZA2M_ANPR/ANPR_RZA2M_RDK/src/tensorflow_lite/src/third_party/gemmlowp/fixedpoint\fixedpoint.h **** MAKE_FIXEDPOINT_UNARY_FUNC_RETURNING_RAW(MaskIfNonZero)
 610:C:/Renesas/e2studio_2021_01_workspace_RZA2M_ANPR/ANPR_RZA2M_RDK/src/tensorflow_lite/src/third_party/gemmlowp/fixedpoint\fixedpoint.h **** MAKE_FIXEDPOINT_BINARY_FUNC_RETURNING_RAW(MaskIfEqual)
 611:C:/Renesas/e2studio_2021_01_workspace_RZA2M_ANPR/ANPR_RZA2M_RDK/src/tensorflow_lite/src/third_party/gemmlowp/fixedpoint\fixedpoint.h **** MAKE_FIXEDPOINT_BINARY_FUNC_RETURNING_RAW(MaskIfNotEqual)
 612:C:/Renesas/e2studio_2021_01_workspace_RZA2M_ANPR/ANPR_RZA2M_RDK/src/tensorflow_lite/src/third_party/gemmlowp/fixedpoint\fixedpoint.h **** MAKE_FIXEDPOINT_BINARY_FUNC_RETURNING_RAW(MaskIfGreaterThan)
 613:C:/Renesas/e2studio_2021_01_workspace_RZA2M_ANPR/ANPR_RZA2M_RDK/src/tensorflow_lite/src/third_party/gemmlowp/fixedpoint\fixedpoint.h **** MAKE_FIXEDPOINT_BINARY_FUNC_RETURNING_RAW(MaskIfGreaterThanOrEqual)
 614:C:/Renesas/e2studio_2021_01_workspace_RZA2M_ANPR/ANPR_RZA2M_RDK/src/tensorflow_lite/src/third_party/gemmlowp/fixedpoint\fixedpoint.h **** MAKE_FIXEDPOINT_BINARY_FUNC_RETURNING_RAW(MaskIfLessThan)
 615:C:/Renesas/e2studio_2021_01_workspace_RZA2M_ANPR/ANPR_RZA2M_RDK/src/tensorflow_lite/src/third_party/gemmlowp/fixedpoint\fixedpoint.h **** MAKE_FIXEDPOINT_BINARY_FUNC_RETURNING_RAW(MaskIfLessThanOrEqual)
 616:C:/Renesas/e2studio_2021_01_workspace_RZA2M_ANPR/ANPR_RZA2M_RDK/src/tensorflow_lite/src/third_party/gemmlowp/fixedpoint\fixedpoint.h **** 
 617:C:/Renesas/e2studio_2021_01_workspace_RZA2M_ANPR/ANPR_RZA2M_RDK/src/tensorflow_lite/src/third_party/gemmlowp/fixedpoint\fixedpoint.h **** #undef MAKE_FIXEDPOINT_UNARY_FUNC_RETURNING_RAW
 618:C:/Renesas/e2studio_2021_01_workspace_RZA2M_ANPR/ANPR_RZA2M_RDK/src/tensorflow_lite/src/third_party/gemmlowp/fixedpoint\fixedpoint.h **** #undef MAKE_FIXEDPOINT_BINARY_FUNC_RETURNING_RAW
 619:C:/Renesas/e2studio_2021_01_workspace_RZA2M_ANPR/ANPR_RZA2M_RDK/src/tensorflow_lite/src/third_party/gemmlowp/fixedpoint\fixedpoint.h **** 
 620:C:/Renesas/e2studio_2021_01_workspace_RZA2M_ANPR/ANPR_RZA2M_RDK/src/tensorflow_lite/src/third_party/gemmlowp/fixedpoint\fixedpoint.h **** template <typename tRawType, int tIntegerBits>
 621:C:/Renesas/e2studio_2021_01_workspace_RZA2M_ANPR/ANPR_RZA2M_RDK/src/tensorflow_lite/src/third_party/gemmlowp/fixedpoint\fixedpoint.h **** FixedPoint<tRawType, tIntegerBits> SelectUsingMask(
 622:C:/Renesas/e2studio_2021_01_workspace_RZA2M_ANPR/ANPR_RZA2M_RDK/src/tensorflow_lite/src/third_party/gemmlowp/fixedpoint\fixedpoint.h ****     tRawType if_mask, FixedPoint<tRawType, tIntegerBits> then_val,
 623:C:/Renesas/e2studio_2021_01_workspace_RZA2M_ANPR/ANPR_RZA2M_RDK/src/tensorflow_lite/src/third_party/gemmlowp/fixedpoint\fixedpoint.h ****     FixedPoint<tRawType, tIntegerBits> else_val) {
 624:C:/Renesas/e2studio_2021_01_workspace_RZA2M_ANPR/ANPR_RZA2M_RDK/src/tensorflow_lite/src/third_party/gemmlowp/fixedpoint\fixedpoint.h ****   return FixedPoint<tRawType, tIntegerBits>::FromRaw(
 625:C:/Renesas/e2studio_2021_01_workspace_RZA2M_ANPR/ANPR_RZA2M_RDK/src/tensorflow_lite/src/third_party/gemmlowp/fixedpoint\fixedpoint.h ****       SelectUsingMask(if_mask, then_val.raw(), else_val.raw()));
 626:C:/Renesas/e2studio_2021_01_workspace_RZA2M_ANPR/ANPR_RZA2M_RDK/src/tensorflow_lite/src/third_party/gemmlowp/fixedpoint\fixedpoint.h **** }
 627:C:/Renesas/e2studio_2021_01_workspace_RZA2M_ANPR/ANPR_RZA2M_RDK/src/tensorflow_lite/src/third_party/gemmlowp/fixedpoint\fixedpoint.h **** 
 628:C:/Renesas/e2studio_2021_01_workspace_RZA2M_ANPR/ANPR_RZA2M_RDK/src/tensorflow_lite/src/third_party/gemmlowp/fixedpoint\fixedpoint.h **** template <typename tRawType, int tIntegerBits>
 629:C:/Renesas/e2studio_2021_01_workspace_RZA2M_ANPR/ANPR_RZA2M_RDK/src/tensorflow_lite/src/third_party/gemmlowp/fixedpoint\fixedpoint.h **** bool operator==(FixedPoint<tRawType, tIntegerBits> a,
 630:C:/Renesas/e2studio_2021_01_workspace_RZA2M_ANPR/ANPR_RZA2M_RDK/src/tensorflow_lite/src/third_party/gemmlowp/fixedpoint\fixedpoint.h ****                 FixedPoint<tRawType, tIntegerBits> b) {
 631:C:/Renesas/e2studio_2021_01_workspace_RZA2M_ANPR/ANPR_RZA2M_RDK/src/tensorflow_lite/src/third_party/gemmlowp/fixedpoint\fixedpoint.h ****   return All(MaskIfEqual(a.raw(), b.raw()));
 632:C:/Renesas/e2studio_2021_01_workspace_RZA2M_ANPR/ANPR_RZA2M_RDK/src/tensorflow_lite/src/third_party/gemmlowp/fixedpoint\fixedpoint.h **** }
 633:C:/Renesas/e2studio_2021_01_workspace_RZA2M_ANPR/ANPR_RZA2M_RDK/src/tensorflow_lite/src/third_party/gemmlowp/fixedpoint\fixedpoint.h **** 
 634:C:/Renesas/e2studio_2021_01_workspace_RZA2M_ANPR/ANPR_RZA2M_RDK/src/tensorflow_lite/src/third_party/gemmlowp/fixedpoint\fixedpoint.h **** template <typename tRawType, int tIntegerBits>
 635:C:/Renesas/e2studio_2021_01_workspace_RZA2M_ANPR/ANPR_RZA2M_RDK/src/tensorflow_lite/src/third_party/gemmlowp/fixedpoint\fixedpoint.h **** bool operator!=(FixedPoint<tRawType, tIntegerBits> a,
 636:C:/Renesas/e2studio_2021_01_workspace_RZA2M_ANPR/ANPR_RZA2M_RDK/src/tensorflow_lite/src/third_party/gemmlowp/fixedpoint\fixedpoint.h ****                 FixedPoint<tRawType, tIntegerBits> b) {
 637:C:/Renesas/e2studio_2021_01_workspace_RZA2M_ANPR/ANPR_RZA2M_RDK/src/tensorflow_lite/src/third_party/gemmlowp/fixedpoint\fixedpoint.h ****   return !(a == b);
 638:C:/Renesas/e2studio_2021_01_workspace_RZA2M_ANPR/ANPR_RZA2M_RDK/src/tensorflow_lite/src/third_party/gemmlowp/fixedpoint\fixedpoint.h **** }
 639:C:/Renesas/e2studio_2021_01_workspace_RZA2M_ANPR/ANPR_RZA2M_RDK/src/tensorflow_lite/src/third_party/gemmlowp/fixedpoint\fixedpoint.h **** 
 640:C:/Renesas/e2studio_2021_01_workspace_RZA2M_ANPR/ANPR_RZA2M_RDK/src/tensorflow_lite/src/third_party/gemmlowp/fixedpoint\fixedpoint.h **** template <typename tRawType, int tIntegerBits>
 641:C:/Renesas/e2studio_2021_01_workspace_RZA2M_ANPR/ANPR_RZA2M_RDK/src/tensorflow_lite/src/third_party/gemmlowp/fixedpoint\fixedpoint.h **** FixedPoint<tRawType, tIntegerBits> SaturatingAdd(
 642:C:/Renesas/e2studio_2021_01_workspace_RZA2M_ANPR/ANPR_RZA2M_RDK/src/tensorflow_lite/src/third_party/gemmlowp/fixedpoint\fixedpoint.h ****     FixedPoint<tRawType, tIntegerBits> a,
 643:C:/Renesas/e2studio_2021_01_workspace_RZA2M_ANPR/ANPR_RZA2M_RDK/src/tensorflow_lite/src/third_party/gemmlowp/fixedpoint\fixedpoint.h ****     FixedPoint<tRawType, tIntegerBits> b) {
 644:C:/Renesas/e2studio_2021_01_workspace_RZA2M_ANPR/ANPR_RZA2M_RDK/src/tensorflow_lite/src/third_party/gemmlowp/fixedpoint\fixedpoint.h ****   return FixedPoint<tRawType, tIntegerBits>::FromRaw(
 645:C:/Renesas/e2studio_2021_01_workspace_RZA2M_ANPR/ANPR_RZA2M_RDK/src/tensorflow_lite/src/third_party/gemmlowp/fixedpoint\fixedpoint.h ****       SaturatingAdd(a.raw(), b.raw()));
 646:C:/Renesas/e2studio_2021_01_workspace_RZA2M_ANPR/ANPR_RZA2M_RDK/src/tensorflow_lite/src/third_party/gemmlowp/fixedpoint\fixedpoint.h **** }
 647:C:/Renesas/e2studio_2021_01_workspace_RZA2M_ANPR/ANPR_RZA2M_RDK/src/tensorflow_lite/src/third_party/gemmlowp/fixedpoint\fixedpoint.h **** 
 648:C:/Renesas/e2studio_2021_01_workspace_RZA2M_ANPR/ANPR_RZA2M_RDK/src/tensorflow_lite/src/third_party/gemmlowp/fixedpoint\fixedpoint.h **** template <typename tRawType, int tIntegerBits>
 649:C:/Renesas/e2studio_2021_01_workspace_RZA2M_ANPR/ANPR_RZA2M_RDK/src/tensorflow_lite/src/third_party/gemmlowp/fixedpoint\fixedpoint.h **** FixedPoint<tRawType, tIntegerBits> AddSaturatingIf16Bit(
 650:C:/Renesas/e2studio_2021_01_workspace_RZA2M_ANPR/ANPR_RZA2M_RDK/src/tensorflow_lite/src/third_party/gemmlowp/fixedpoint\fixedpoint.h ****     FixedPoint<tRawType, tIntegerBits> a,
 651:C:/Renesas/e2studio_2021_01_workspace_RZA2M_ANPR/ANPR_RZA2M_RDK/src/tensorflow_lite/src/third_party/gemmlowp/fixedpoint\fixedpoint.h ****     FixedPoint<tRawType, tIntegerBits> b) {
 652:C:/Renesas/e2studio_2021_01_workspace_RZA2M_ANPR/ANPR_RZA2M_RDK/src/tensorflow_lite/src/third_party/gemmlowp/fixedpoint\fixedpoint.h ****   return FixedPoint<tRawType, tIntegerBits>::FromRaw(
 653:C:/Renesas/e2studio_2021_01_workspace_RZA2M_ANPR/ANPR_RZA2M_RDK/src/tensorflow_lite/src/third_party/gemmlowp/fixedpoint\fixedpoint.h ****       AddSaturatingIf16Bit(a.raw(), b.raw()));
 654:C:/Renesas/e2studio_2021_01_workspace_RZA2M_ANPR/ANPR_RZA2M_RDK/src/tensorflow_lite/src/third_party/gemmlowp/fixedpoint\fixedpoint.h **** }
 655:C:/Renesas/e2studio_2021_01_workspace_RZA2M_ANPR/ANPR_RZA2M_RDK/src/tensorflow_lite/src/third_party/gemmlowp/fixedpoint\fixedpoint.h **** 
 656:C:/Renesas/e2studio_2021_01_workspace_RZA2M_ANPR/ANPR_RZA2M_RDK/src/tensorflow_lite/src/third_party/gemmlowp/fixedpoint\fixedpoint.h **** // Conversion to floating-point.
 657:C:/Renesas/e2studio_2021_01_workspace_RZA2M_ANPR/ANPR_RZA2M_RDK/src/tensorflow_lite/src/third_party/gemmlowp/fixedpoint\fixedpoint.h **** template <typename tRawType, int tIntegerBits>
 658:C:/Renesas/e2studio_2021_01_workspace_RZA2M_ANPR/ANPR_RZA2M_RDK/src/tensorflow_lite/src/third_party/gemmlowp/fixedpoint\fixedpoint.h **** double ToDouble(FixedPoint<tRawType, tIntegerBits> x) {
 659:C:/Renesas/e2studio_2021_01_workspace_RZA2M_ANPR/ANPR_RZA2M_RDK/src/tensorflow_lite/src/third_party/gemmlowp/fixedpoint\fixedpoint.h ****   static_assert(FixedPointRawTypeTraits<tRawType>::kLanes == 1,
 660:C:/Renesas/e2studio_2021_01_workspace_RZA2M_ANPR/ANPR_RZA2M_RDK/src/tensorflow_lite/src/third_party/gemmlowp/fixedpoint\fixedpoint.h ****                 "not applicable to SIMD types");
 661:C:/Renesas/e2studio_2021_01_workspace_RZA2M_ANPR/ANPR_RZA2M_RDK/src/tensorflow_lite/src/third_party/gemmlowp/fixedpoint\fixedpoint.h ****   typedef FixedPoint<tRawType, tIntegerBits> F;
 662:C:/Renesas/e2studio_2021_01_workspace_RZA2M_ANPR/ANPR_RZA2M_RDK/src/tensorflow_lite/src/third_party/gemmlowp/fixedpoint\fixedpoint.h ****   return x.raw() / static_cast<double>(1ll << F::kFractionalBits);
 663:C:/Renesas/e2studio_2021_01_workspace_RZA2M_ANPR/ANPR_RZA2M_RDK/src/tensorflow_lite/src/third_party/gemmlowp/fixedpoint\fixedpoint.h **** }
 664:C:/Renesas/e2studio_2021_01_workspace_RZA2M_ANPR/ANPR_RZA2M_RDK/src/tensorflow_lite/src/third_party/gemmlowp/fixedpoint\fixedpoint.h **** 
 665:C:/Renesas/e2studio_2021_01_workspace_RZA2M_ANPR/ANPR_RZA2M_RDK/src/tensorflow_lite/src/third_party/gemmlowp/fixedpoint\fixedpoint.h **** // Rescale changes the number of IntegerBits and updates the underlying
 666:C:/Renesas/e2studio_2021_01_workspace_RZA2M_ANPR/ANPR_RZA2M_RDK/src/tensorflow_lite/src/third_party/gemmlowp/fixedpoint\fixedpoint.h **** // raw integer value accordingly.
 667:C:/Renesas/e2studio_2021_01_workspace_RZA2M_ANPR/ANPR_RZA2M_RDK/src/tensorflow_lite/src/third_party/gemmlowp/fixedpoint\fixedpoint.h **** template <int tIntegerBitsDst, typename tRawType, int tIntegerBitsSrc>
 668:C:/Renesas/e2studio_2021_01_workspace_RZA2M_ANPR/ANPR_RZA2M_RDK/src/tensorflow_lite/src/third_party/gemmlowp/fixedpoint\fixedpoint.h **** FixedPoint<tRawType, tIntegerBitsDst> Rescale(
 669:C:/Renesas/e2studio_2021_01_workspace_RZA2M_ANPR/ANPR_RZA2M_RDK/src/tensorflow_lite/src/third_party/gemmlowp/fixedpoint\fixedpoint.h ****     FixedPoint<tRawType, tIntegerBitsSrc> x) {
 670:C:/Renesas/e2studio_2021_01_workspace_RZA2M_ANPR/ANPR_RZA2M_RDK/src/tensorflow_lite/src/third_party/gemmlowp/fixedpoint\fixedpoint.h ****   static constexpr int kExponent = tIntegerBitsSrc - tIntegerBitsDst;
 671:C:/Renesas/e2studio_2021_01_workspace_RZA2M_ANPR/ANPR_RZA2M_RDK/src/tensorflow_lite/src/third_party/gemmlowp/fixedpoint\fixedpoint.h ****   FixedPoint<tRawType, tIntegerBitsDst> result;
 672:C:/Renesas/e2studio_2021_01_workspace_RZA2M_ANPR/ANPR_RZA2M_RDK/src/tensorflow_lite/src/third_party/gemmlowp/fixedpoint\fixedpoint.h ****   result.raw() = SaturatingRoundingMultiplyByPOT<kExponent>(x.raw());
 673:C:/Renesas/e2studio_2021_01_workspace_RZA2M_ANPR/ANPR_RZA2M_RDK/src/tensorflow_lite/src/third_party/gemmlowp/fixedpoint\fixedpoint.h ****   return result;
 674:C:/Renesas/e2studio_2021_01_workspace_RZA2M_ANPR/ANPR_RZA2M_RDK/src/tensorflow_lite/src/third_party/gemmlowp/fixedpoint\fixedpoint.h **** }
 675:C:/Renesas/e2studio_2021_01_workspace_RZA2M_ANPR/ANPR_RZA2M_RDK/src/tensorflow_lite/src/third_party/gemmlowp/fixedpoint\fixedpoint.h **** 
 676:C:/Renesas/e2studio_2021_01_workspace_RZA2M_ANPR/ANPR_RZA2M_RDK/src/tensorflow_lite/src/third_party/gemmlowp/fixedpoint\fixedpoint.h **** // CheckedFixedPointConstant allows to specify fixed-point constants
 677:C:/Renesas/e2studio_2021_01_workspace_RZA2M_ANPR/ANPR_RZA2M_RDK/src/tensorflow_lite/src/third_party/gemmlowp/fixedpoint\fixedpoint.h **** // initialized as real numbers, in a way that does not compile floating-point
 678:C:/Renesas/e2studio_2021_01_workspace_RZA2M_ANPR/ANPR_RZA2M_RDK/src/tensorflow_lite/src/third_party/gemmlowp/fixedpoint\fixedpoint.h **** // arithmetic in production code, yet still checks agreement with the
 679:C:/Renesas/e2studio_2021_01_workspace_RZA2M_ANPR/ANPR_RZA2M_RDK/src/tensorflow_lite/src/third_party/gemmlowp/fixedpoint\fixedpoint.h **** // floating-point expressions when asserts are enabled.
 680:C:/Renesas/e2studio_2021_01_workspace_RZA2M_ANPR/ANPR_RZA2M_RDK/src/tensorflow_lite/src/third_party/gemmlowp/fixedpoint\fixedpoint.h **** //
 681:C:/Renesas/e2studio_2021_01_workspace_RZA2M_ANPR/ANPR_RZA2M_RDK/src/tensorflow_lite/src/third_party/gemmlowp/fixedpoint\fixedpoint.h **** // The raw integer value provided is always a int32, encoding a 32-bit
 682:C:/Renesas/e2studio_2021_01_workspace_RZA2M_ANPR/ANPR_RZA2M_RDK/src/tensorflow_lite/src/third_party/gemmlowp/fixedpoint\fixedpoint.h **** // fixed-point value, regardless of the actual Scalar type. This allows
 683:C:/Renesas/e2studio_2021_01_workspace_RZA2M_ANPR/ANPR_RZA2M_RDK/src/tensorflow_lite/src/third_party/gemmlowp/fixedpoint\fixedpoint.h **** // writing generic code that applies just as well to the 32-bit and 16-bit
 684:C:/Renesas/e2studio_2021_01_workspace_RZA2M_ANPR/ANPR_RZA2M_RDK/src/tensorflow_lite/src/third_party/gemmlowp/fixedpoint\fixedpoint.h **** // cases. In the 16-bit case, the raw integer value is internally
 685:C:/Renesas/e2studio_2021_01_workspace_RZA2M_ANPR/ANPR_RZA2M_RDK/src/tensorflow_lite/src/third_party/gemmlowp/fixedpoint\fixedpoint.h **** // rounding-shifted by 16 bits to the right.
 686:C:/Renesas/e2studio_2021_01_workspace_RZA2M_ANPR/ANPR_RZA2M_RDK/src/tensorflow_lite/src/third_party/gemmlowp/fixedpoint\fixedpoint.h **** template <typename FixedPointType>
 687:C:/Renesas/e2studio_2021_01_workspace_RZA2M_ANPR/ANPR_RZA2M_RDK/src/tensorflow_lite/src/third_party/gemmlowp/fixedpoint\fixedpoint.h **** inline typename FixedPointType::ScalarRawType RescaleConstantInitializer(
 688:C:/Renesas/e2studio_2021_01_workspace_RZA2M_ANPR/ANPR_RZA2M_RDK/src/tensorflow_lite/src/third_party/gemmlowp/fixedpoint\fixedpoint.h ****     std::int32_t int32_value) {
 689:C:/Renesas/e2studio_2021_01_workspace_RZA2M_ANPR/ANPR_RZA2M_RDK/src/tensorflow_lite/src/third_party/gemmlowp/fixedpoint\fixedpoint.h ****   typedef typename FixedPointType::ScalarRawType ScalarRawType;
 690:C:/Renesas/e2studio_2021_01_workspace_RZA2M_ANPR/ANPR_RZA2M_RDK/src/tensorflow_lite/src/third_party/gemmlowp/fixedpoint\fixedpoint.h ****   static constexpr int ScalarTypeBits = 8 * sizeof(ScalarRawType);
 691:C:/Renesas/e2studio_2021_01_workspace_RZA2M_ANPR/ANPR_RZA2M_RDK/src/tensorflow_lite/src/third_party/gemmlowp/fixedpoint\fixedpoint.h ****   return static_cast<ScalarRawType>(
 692:C:/Renesas/e2studio_2021_01_workspace_RZA2M_ANPR/ANPR_RZA2M_RDK/src/tensorflow_lite/src/third_party/gemmlowp/fixedpoint\fixedpoint.h ****       RoundingDivideByPOT<std::int32_t>(int32_value, 32 - ScalarTypeBits));
 693:C:/Renesas/e2studio_2021_01_workspace_RZA2M_ANPR/ANPR_RZA2M_RDK/src/tensorflow_lite/src/third_party/gemmlowp/fixedpoint\fixedpoint.h **** }
 694:C:/Renesas/e2studio_2021_01_workspace_RZA2M_ANPR/ANPR_RZA2M_RDK/src/tensorflow_lite/src/third_party/gemmlowp/fixedpoint\fixedpoint.h **** #ifdef GEMMLOWP_ENABLE_FIXEDPOINT_CONSTANTS_CHECKS
 695:C:/Renesas/e2studio_2021_01_workspace_RZA2M_ANPR/ANPR_RZA2M_RDK/src/tensorflow_lite/src/third_party/gemmlowp/fixedpoint\fixedpoint.h **** template <typename FixedPointType>
 696:C:/Renesas/e2studio_2021_01_workspace_RZA2M_ANPR/ANPR_RZA2M_RDK/src/tensorflow_lite/src/third_party/gemmlowp/fixedpoint\fixedpoint.h **** FixedPointType CheckedFixedPointConstant(std::int32_t raw_value,
 697:C:/Renesas/e2studio_2021_01_workspace_RZA2M_ANPR/ANPR_RZA2M_RDK/src/tensorflow_lite/src/third_party/gemmlowp/fixedpoint\fixedpoint.h ****                                          double double_value) {
 698:C:/Renesas/e2studio_2021_01_workspace_RZA2M_ANPR/ANPR_RZA2M_RDK/src/tensorflow_lite/src/third_party/gemmlowp/fixedpoint\fixedpoint.h ****   const FixedPointType result = FixedPointType::FromScalarRaw(raw_value);
 699:C:/Renesas/e2studio_2021_01_workspace_RZA2M_ANPR/ANPR_RZA2M_RDK/src/tensorflow_lite/src/third_party/gemmlowp/fixedpoint\fixedpoint.h ****   assert(result == FixedPointType::FromDouble(double_value));
 700:C:/Renesas/e2studio_2021_01_workspace_RZA2M_ANPR/ANPR_RZA2M_RDK/src/tensorflow_lite/src/third_party/gemmlowp/fixedpoint\fixedpoint.h ****   return result;
 701:C:/Renesas/e2studio_2021_01_workspace_RZA2M_ANPR/ANPR_RZA2M_RDK/src/tensorflow_lite/src/third_party/gemmlowp/fixedpoint\fixedpoint.h **** }
 702:C:/Renesas/e2studio_2021_01_workspace_RZA2M_ANPR/ANPR_RZA2M_RDK/src/tensorflow_lite/src/third_party/gemmlowp/fixedpoint\fixedpoint.h **** #define GEMMLOWP_CHECKED_FIXEDPOINT_CONSTANT(FixedPointType,                   \
 703:C:/Renesas/e2studio_2021_01_workspace_RZA2M_ANPR/ANPR_RZA2M_RDK/src/tensorflow_lite/src/third_party/gemmlowp/fixedpoint\fixedpoint.h ****                                              ScalarRawInt32Value, DoubleValue) \
 704:C:/Renesas/e2studio_2021_01_workspace_RZA2M_ANPR/ANPR_RZA2M_RDK/src/tensorflow_lite/src/third_party/gemmlowp/fixedpoint\fixedpoint.h ****   (gemmlowp::CheckedFixedPointConstant<FixedPointType>(                        \
 705:C:/Renesas/e2studio_2021_01_workspace_RZA2M_ANPR/ANPR_RZA2M_RDK/src/tensorflow_lite/src/third_party/gemmlowp/fixedpoint\fixedpoint.h ****       gemmlowp::RescaleConstantInitializer<FixedPointType>(                    \
 706:C:/Renesas/e2studio_2021_01_workspace_RZA2M_ANPR/ANPR_RZA2M_RDK/src/tensorflow_lite/src/third_party/gemmlowp/fixedpoint\fixedpoint.h ****           ScalarRawInt32Value),                                                \
 707:C:/Renesas/e2studio_2021_01_workspace_RZA2M_ANPR/ANPR_RZA2M_RDK/src/tensorflow_lite/src/third_party/gemmlowp/fixedpoint\fixedpoint.h ****       DoubleValue))
 708:C:/Renesas/e2studio_2021_01_workspace_RZA2M_ANPR/ANPR_RZA2M_RDK/src/tensorflow_lite/src/third_party/gemmlowp/fixedpoint\fixedpoint.h **** 
 709:C:/Renesas/e2studio_2021_01_workspace_RZA2M_ANPR/ANPR_RZA2M_RDK/src/tensorflow_lite/src/third_party/gemmlowp/fixedpoint\fixedpoint.h **** #else
 710:C:/Renesas/e2studio_2021_01_workspace_RZA2M_ANPR/ANPR_RZA2M_RDK/src/tensorflow_lite/src/third_party/gemmlowp/fixedpoint\fixedpoint.h **** #define GEMMLOWP_CHECKED_FIXEDPOINT_CONSTANT(FixedPointType,                   \
 711:C:/Renesas/e2studio_2021_01_workspace_RZA2M_ANPR/ANPR_RZA2M_RDK/src/tensorflow_lite/src/third_party/gemmlowp/fixedpoint\fixedpoint.h ****                                              ScalarRawInt32Value, DoubleValue) \
 712:C:/Renesas/e2studio_2021_01_workspace_RZA2M_ANPR/ANPR_RZA2M_RDK/src/tensorflow_lite/src/third_party/gemmlowp/fixedpoint\fixedpoint.h ****   (FixedPointType::FromScalarRaw(                                              \
 713:C:/Renesas/e2studio_2021_01_workspace_RZA2M_ANPR/ANPR_RZA2M_RDK/src/tensorflow_lite/src/third_party/gemmlowp/fixedpoint\fixedpoint.h ****       gemmlowp::RescaleConstantInitializer<FixedPointType>(                    \
 714:C:/Renesas/e2studio_2021_01_workspace_RZA2M_ANPR/ANPR_RZA2M_RDK/src/tensorflow_lite/src/third_party/gemmlowp/fixedpoint\fixedpoint.h ****           ScalarRawInt32Value)))
 715:C:/Renesas/e2studio_2021_01_workspace_RZA2M_ANPR/ANPR_RZA2M_RDK/src/tensorflow_lite/src/third_party/gemmlowp/fixedpoint\fixedpoint.h **** #endif
 716:C:/Renesas/e2studio_2021_01_workspace_RZA2M_ANPR/ANPR_RZA2M_RDK/src/tensorflow_lite/src/third_party/gemmlowp/fixedpoint\fixedpoint.h **** 
 717:C:/Renesas/e2studio_2021_01_workspace_RZA2M_ANPR/ANPR_RZA2M_RDK/src/tensorflow_lite/src/third_party/gemmlowp/fixedpoint\fixedpoint.h **** // Implementation of exponential function.
 718:C:/Renesas/e2studio_2021_01_workspace_RZA2M_ANPR/ANPR_RZA2M_RDK/src/tensorflow_lite/src/third_party/gemmlowp/fixedpoint\fixedpoint.h **** 
 719:C:/Renesas/e2studio_2021_01_workspace_RZA2M_ANPR/ANPR_RZA2M_RDK/src/tensorflow_lite/src/third_party/gemmlowp/fixedpoint\fixedpoint.h **** // Returns exp(x) for x in [-1/4, 0).
 720:C:/Renesas/e2studio_2021_01_workspace_RZA2M_ANPR/ANPR_RZA2M_RDK/src/tensorflow_lite/src/third_party/gemmlowp/fixedpoint\fixedpoint.h **** template <typename tRawType>
 721:C:/Renesas/e2studio_2021_01_workspace_RZA2M_ANPR/ANPR_RZA2M_RDK/src/tensorflow_lite/src/third_party/gemmlowp/fixedpoint\fixedpoint.h **** FixedPoint<tRawType, 0> exp_on_interval_between_negative_one_quarter_and_0_excl(
 722:C:/Renesas/e2studio_2021_01_workspace_RZA2M_ANPR/ANPR_RZA2M_RDK/src/tensorflow_lite/src/third_party/gemmlowp/fixedpoint\fixedpoint.h ****     FixedPoint<tRawType, 0> a) {
 723:C:/Renesas/e2studio_2021_01_workspace_RZA2M_ANPR/ANPR_RZA2M_RDK/src/tensorflow_lite/src/third_party/gemmlowp/fixedpoint\fixedpoint.h ****   typedef FixedPoint<tRawType, 0> F;
 724:C:/Renesas/e2studio_2021_01_workspace_RZA2M_ANPR/ANPR_RZA2M_RDK/src/tensorflow_lite/src/third_party/gemmlowp/fixedpoint\fixedpoint.h ****   const F constant_term =
 725:C:/Renesas/e2studio_2021_01_workspace_RZA2M_ANPR/ANPR_RZA2M_RDK/src/tensorflow_lite/src/third_party/gemmlowp/fixedpoint\fixedpoint.h ****       GEMMLOWP_CHECKED_FIXEDPOINT_CONSTANT(F, 1895147668, std::exp(-1.0 / 8.0));
 726:C:/Renesas/e2studio_2021_01_workspace_RZA2M_ANPR/ANPR_RZA2M_RDK/src/tensorflow_lite/src/third_party/gemmlowp/fixedpoint\fixedpoint.h ****   const F constant_1_over_3 =
 727:C:/Renesas/e2studio_2021_01_workspace_RZA2M_ANPR/ANPR_RZA2M_RDK/src/tensorflow_lite/src/third_party/gemmlowp/fixedpoint\fixedpoint.h ****       GEMMLOWP_CHECKED_FIXEDPOINT_CONSTANT(F, 715827883, 1.0 / 3.0);
 728:C:/Renesas/e2studio_2021_01_workspace_RZA2M_ANPR/ANPR_RZA2M_RDK/src/tensorflow_lite/src/third_party/gemmlowp/fixedpoint\fixedpoint.h ****   // We're evaluating a Taylor expansion around -1/8, so we do the change of
 729:C:/Renesas/e2studio_2021_01_workspace_RZA2M_ANPR/ANPR_RZA2M_RDK/src/tensorflow_lite/src/third_party/gemmlowp/fixedpoint\fixedpoint.h ****   // variable: x = a + 1/8.
 730:C:/Renesas/e2studio_2021_01_workspace_RZA2M_ANPR/ANPR_RZA2M_RDK/src/tensorflow_lite/src/third_party/gemmlowp/fixedpoint\fixedpoint.h ****   // In fixed-point with 0 integer bits, 1/8 is represented by 1 << 28.
 731:C:/Renesas/e2studio_2021_01_workspace_RZA2M_ANPR/ANPR_RZA2M_RDK/src/tensorflow_lite/src/third_party/gemmlowp/fixedpoint\fixedpoint.h ****   F x = a + F::template ConstantPOT<-3>();
 732:C:/Renesas/e2studio_2021_01_workspace_RZA2M_ANPR/ANPR_RZA2M_RDK/src/tensorflow_lite/src/third_party/gemmlowp/fixedpoint\fixedpoint.h ****   F x2 = x * x;
 733:C:/Renesas/e2studio_2021_01_workspace_RZA2M_ANPR/ANPR_RZA2M_RDK/src/tensorflow_lite/src/third_party/gemmlowp/fixedpoint\fixedpoint.h ****   F x3 = x2 * x;
 734:C:/Renesas/e2studio_2021_01_workspace_RZA2M_ANPR/ANPR_RZA2M_RDK/src/tensorflow_lite/src/third_party/gemmlowp/fixedpoint\fixedpoint.h ****   F x4 = x2 * x2;
 735:C:/Renesas/e2studio_2021_01_workspace_RZA2M_ANPR/ANPR_RZA2M_RDK/src/tensorflow_lite/src/third_party/gemmlowp/fixedpoint\fixedpoint.h ****   F x4_over_4 = SaturatingRoundingMultiplyByPOT<-2>(x4);
 736:C:/Renesas/e2studio_2021_01_workspace_RZA2M_ANPR/ANPR_RZA2M_RDK/src/tensorflow_lite/src/third_party/gemmlowp/fixedpoint\fixedpoint.h ****   F x4_over_24_plus_x3_over_6_plus_x2_over_2 =
 737:C:/Renesas/e2studio_2021_01_workspace_RZA2M_ANPR/ANPR_RZA2M_RDK/src/tensorflow_lite/src/third_party/gemmlowp/fixedpoint\fixedpoint.h ****       SaturatingRoundingMultiplyByPOT<-1>(
 738:C:/Renesas/e2studio_2021_01_workspace_RZA2M_ANPR/ANPR_RZA2M_RDK/src/tensorflow_lite/src/third_party/gemmlowp/fixedpoint\fixedpoint.h ****           ((x4_over_4 + x3) * constant_1_over_3) + x2);
 739:C:/Renesas/e2studio_2021_01_workspace_RZA2M_ANPR/ANPR_RZA2M_RDK/src/tensorflow_lite/src/third_party/gemmlowp/fixedpoint\fixedpoint.h ****   return AddSaturatingIf16Bit(
 740:C:/Renesas/e2studio_2021_01_workspace_RZA2M_ANPR/ANPR_RZA2M_RDK/src/tensorflow_lite/src/third_party/gemmlowp/fixedpoint\fixedpoint.h ****       constant_term,
 741:C:/Renesas/e2studio_2021_01_workspace_RZA2M_ANPR/ANPR_RZA2M_RDK/src/tensorflow_lite/src/third_party/gemmlowp/fixedpoint\fixedpoint.h ****       constant_term * (x + x4_over_24_plus_x3_over_6_plus_x2_over_2));
 742:C:/Renesas/e2studio_2021_01_workspace_RZA2M_ANPR/ANPR_RZA2M_RDK/src/tensorflow_lite/src/third_party/gemmlowp/fixedpoint\fixedpoint.h **** }
 743:C:/Renesas/e2studio_2021_01_workspace_RZA2M_ANPR/ANPR_RZA2M_RDK/src/tensorflow_lite/src/third_party/gemmlowp/fixedpoint\fixedpoint.h **** 
 744:C:/Renesas/e2studio_2021_01_workspace_RZA2M_ANPR/ANPR_RZA2M_RDK/src/tensorflow_lite/src/third_party/gemmlowp/fixedpoint\fixedpoint.h **** // Returns exp(x) for x < 0.
 745:C:/Renesas/e2studio_2021_01_workspace_RZA2M_ANPR/ANPR_RZA2M_RDK/src/tensorflow_lite/src/third_party/gemmlowp/fixedpoint\fixedpoint.h **** template <typename tRawType, int tIntegerBits>
 746:C:/Renesas/e2studio_2021_01_workspace_RZA2M_ANPR/ANPR_RZA2M_RDK/src/tensorflow_lite/src/third_party/gemmlowp/fixedpoint\fixedpoint.h **** FixedPoint<tRawType, 0> exp_on_negative_values(
 747:C:/Renesas/e2studio_2021_01_workspace_RZA2M_ANPR/ANPR_RZA2M_RDK/src/tensorflow_lite/src/third_party/gemmlowp/fixedpoint\fixedpoint.h ****     FixedPoint<tRawType, tIntegerBits> a) {
 748:C:/Renesas/e2studio_2021_01_workspace_RZA2M_ANPR/ANPR_RZA2M_RDK/src/tensorflow_lite/src/third_party/gemmlowp/fixedpoint\fixedpoint.h ****   typedef FixedPoint<tRawType, tIntegerBits> InputF;
 749:C:/Renesas/e2studio_2021_01_workspace_RZA2M_ANPR/ANPR_RZA2M_RDK/src/tensorflow_lite/src/third_party/gemmlowp/fixedpoint\fixedpoint.h ****   typedef FixedPoint<tRawType, 0> ResultF;
 750:C:/Renesas/e2studio_2021_01_workspace_RZA2M_ANPR/ANPR_RZA2M_RDK/src/tensorflow_lite/src/third_party/gemmlowp/fixedpoint\fixedpoint.h ****   static constexpr int kFractionalBits = InputF::kFractionalBits;
 751:C:/Renesas/e2studio_2021_01_workspace_RZA2M_ANPR/ANPR_RZA2M_RDK/src/tensorflow_lite/src/third_party/gemmlowp/fixedpoint\fixedpoint.h ****   static constexpr int kIntegerBits = InputF::kIntegerBits;
 752:C:/Renesas/e2studio_2021_01_workspace_RZA2M_ANPR/ANPR_RZA2M_RDK/src/tensorflow_lite/src/third_party/gemmlowp/fixedpoint\fixedpoint.h ****   const InputF kOneQuarter = InputF::template ConstantPOT<-2>();
 753:C:/Renesas/e2studio_2021_01_workspace_RZA2M_ANPR/ANPR_RZA2M_RDK/src/tensorflow_lite/src/third_party/gemmlowp/fixedpoint\fixedpoint.h ****   InputF mask = kOneQuarter - InputF::FromScalarRaw(1);
 754:C:/Renesas/e2studio_2021_01_workspace_RZA2M_ANPR/ANPR_RZA2M_RDK/src/tensorflow_lite/src/third_party/gemmlowp/fixedpoint\fixedpoint.h ****   InputF a_mod_quarter_minus_one_quarter = (a & mask) - kOneQuarter;
 755:C:/Renesas/e2studio_2021_01_workspace_RZA2M_ANPR/ANPR_RZA2M_RDK/src/tensorflow_lite/src/third_party/gemmlowp/fixedpoint\fixedpoint.h ****   ResultF result = exp_on_interval_between_negative_one_quarter_and_0_excl(
 756:C:/Renesas/e2studio_2021_01_workspace_RZA2M_ANPR/ANPR_RZA2M_RDK/src/tensorflow_lite/src/third_party/gemmlowp/fixedpoint\fixedpoint.h ****       Rescale<0>(a_mod_quarter_minus_one_quarter));
 757:C:/Renesas/e2studio_2021_01_workspace_RZA2M_ANPR/ANPR_RZA2M_RDK/src/tensorflow_lite/src/third_party/gemmlowp/fixedpoint\fixedpoint.h ****   tRawType remainder = (a_mod_quarter_minus_one_quarter - a).raw();
 758:C:/Renesas/e2studio_2021_01_workspace_RZA2M_ANPR/ANPR_RZA2M_RDK/src/tensorflow_lite/src/third_party/gemmlowp/fixedpoint\fixedpoint.h **** 
 759:C:/Renesas/e2studio_2021_01_workspace_RZA2M_ANPR/ANPR_RZA2M_RDK/src/tensorflow_lite/src/third_party/gemmlowp/fixedpoint\fixedpoint.h **** #define GEMMLOWP_EXP_BARREL_SHIFTER(Exponent, FixedPointMultiplier)         \
 760:C:/Renesas/e2studio_2021_01_workspace_RZA2M_ANPR/ANPR_RZA2M_RDK/src/tensorflow_lite/src/third_party/gemmlowp/fixedpoint\fixedpoint.h ****   if (kIntegerBits > Exponent) {                                            \
 761:C:/Renesas/e2studio_2021_01_workspace_RZA2M_ANPR/ANPR_RZA2M_RDK/src/tensorflow_lite/src/third_party/gemmlowp/fixedpoint\fixedpoint.h ****     const ResultF kMultiplier = GEMMLOWP_CHECKED_FIXEDPOINT_CONSTANT(       \
 762:C:/Renesas/e2studio_2021_01_workspace_RZA2M_ANPR/ANPR_RZA2M_RDK/src/tensorflow_lite/src/third_party/gemmlowp/fixedpoint\fixedpoint.h ****         ResultF, FixedPointMultiplier, std::exp(-std::pow(2.0, Exponent))); \
 763:C:/Renesas/e2studio_2021_01_workspace_RZA2M_ANPR/ANPR_RZA2M_RDK/src/tensorflow_lite/src/third_party/gemmlowp/fixedpoint\fixedpoint.h ****     static constexpr int kShiftAmount =                                     \
 764:C:/Renesas/e2studio_2021_01_workspace_RZA2M_ANPR/ANPR_RZA2M_RDK/src/tensorflow_lite/src/third_party/gemmlowp/fixedpoint\fixedpoint.h ****         kIntegerBits > Exponent ? kFractionalBits + Exponent : 0;           \
 765:C:/Renesas/e2studio_2021_01_workspace_RZA2M_ANPR/ANPR_RZA2M_RDK/src/tensorflow_lite/src/third_party/gemmlowp/fixedpoint\fixedpoint.h ****     result = SelectUsingMask(                                               \
 766:C:/Renesas/e2studio_2021_01_workspace_RZA2M_ANPR/ANPR_RZA2M_RDK/src/tensorflow_lite/src/third_party/gemmlowp/fixedpoint\fixedpoint.h ****         MaskIfNonZero(BitAnd(remainder, Dup<tRawType>(1 << kShiftAmount))), \
 767:C:/Renesas/e2studio_2021_01_workspace_RZA2M_ANPR/ANPR_RZA2M_RDK/src/tensorflow_lite/src/third_party/gemmlowp/fixedpoint\fixedpoint.h ****         result * kMultiplier, result);                                      \
 768:C:/Renesas/e2studio_2021_01_workspace_RZA2M_ANPR/ANPR_RZA2M_RDK/src/tensorflow_lite/src/third_party/gemmlowp/fixedpoint\fixedpoint.h ****   }
 769:C:/Renesas/e2studio_2021_01_workspace_RZA2M_ANPR/ANPR_RZA2M_RDK/src/tensorflow_lite/src/third_party/gemmlowp/fixedpoint\fixedpoint.h **** 
 770:C:/Renesas/e2studio_2021_01_workspace_RZA2M_ANPR/ANPR_RZA2M_RDK/src/tensorflow_lite/src/third_party/gemmlowp/fixedpoint\fixedpoint.h ****   GEMMLOWP_EXP_BARREL_SHIFTER(-2, 1672461947);
 771:C:/Renesas/e2studio_2021_01_workspace_RZA2M_ANPR/ANPR_RZA2M_RDK/src/tensorflow_lite/src/third_party/gemmlowp/fixedpoint\fixedpoint.h ****   GEMMLOWP_EXP_BARREL_SHIFTER(-1, 1302514674);
 772:C:/Renesas/e2studio_2021_01_workspace_RZA2M_ANPR/ANPR_RZA2M_RDK/src/tensorflow_lite/src/third_party/gemmlowp/fixedpoint\fixedpoint.h ****   GEMMLOWP_EXP_BARREL_SHIFTER(+0, 790015084);
 773:C:/Renesas/e2studio_2021_01_workspace_RZA2M_ANPR/ANPR_RZA2M_RDK/src/tensorflow_lite/src/third_party/gemmlowp/fixedpoint\fixedpoint.h ****   GEMMLOWP_EXP_BARREL_SHIFTER(+1, 290630308);
 774:C:/Renesas/e2studio_2021_01_workspace_RZA2M_ANPR/ANPR_RZA2M_RDK/src/tensorflow_lite/src/third_party/gemmlowp/fixedpoint\fixedpoint.h ****   GEMMLOWP_EXP_BARREL_SHIFTER(+2, 39332535);
 775:C:/Renesas/e2studio_2021_01_workspace_RZA2M_ANPR/ANPR_RZA2M_RDK/src/tensorflow_lite/src/third_party/gemmlowp/fixedpoint\fixedpoint.h ****   GEMMLOWP_EXP_BARREL_SHIFTER(+3, 720401);
 776:C:/Renesas/e2studio_2021_01_workspace_RZA2M_ANPR/ANPR_RZA2M_RDK/src/tensorflow_lite/src/third_party/gemmlowp/fixedpoint\fixedpoint.h ****   GEMMLOWP_EXP_BARREL_SHIFTER(+4, 242);
 777:C:/Renesas/e2studio_2021_01_workspace_RZA2M_ANPR/ANPR_RZA2M_RDK/src/tensorflow_lite/src/third_party/gemmlowp/fixedpoint\fixedpoint.h **** 
 778:C:/Renesas/e2studio_2021_01_workspace_RZA2M_ANPR/ANPR_RZA2M_RDK/src/tensorflow_lite/src/third_party/gemmlowp/fixedpoint\fixedpoint.h **** #undef GEMMLOWP_EXP_BARREL_SHIFTER
 779:C:/Renesas/e2studio_2021_01_workspace_RZA2M_ANPR/ANPR_RZA2M_RDK/src/tensorflow_lite/src/third_party/gemmlowp/fixedpoint\fixedpoint.h **** 
 780:C:/Renesas/e2studio_2021_01_workspace_RZA2M_ANPR/ANPR_RZA2M_RDK/src/tensorflow_lite/src/third_party/gemmlowp/fixedpoint\fixedpoint.h ****   static constexpr int clampB = kIntegerBits > 5 ? 36 - kIntegerBits : 0;
 781:C:/Renesas/e2studio_2021_01_workspace_RZA2M_ANPR/ANPR_RZA2M_RDK/src/tensorflow_lite/src/third_party/gemmlowp/fixedpoint\fixedpoint.h ****   if (kIntegerBits > 5) {
 782:C:/Renesas/e2studio_2021_01_workspace_RZA2M_ANPR/ANPR_RZA2M_RDK/src/tensorflow_lite/src/third_party/gemmlowp/fixedpoint\fixedpoint.h ****     const InputF clamp =
 783:C:/Renesas/e2studio_2021_01_workspace_RZA2M_ANPR/ANPR_RZA2M_RDK/src/tensorflow_lite/src/third_party/gemmlowp/fixedpoint\fixedpoint.h ****         GEMMLOWP_CHECKED_FIXEDPOINT_CONSTANT(InputF, -(1 << clampB), -32.0);
 784:C:/Renesas/e2studio_2021_01_workspace_RZA2M_ANPR/ANPR_RZA2M_RDK/src/tensorflow_lite/src/third_party/gemmlowp/fixedpoint\fixedpoint.h ****     result = SelectUsingMask(MaskIfLessThan(a, clamp), ResultF::Zero(), result);
 785:C:/Renesas/e2studio_2021_01_workspace_RZA2M_ANPR/ANPR_RZA2M_RDK/src/tensorflow_lite/src/third_party/gemmlowp/fixedpoint\fixedpoint.h ****   }
 786:C:/Renesas/e2studio_2021_01_workspace_RZA2M_ANPR/ANPR_RZA2M_RDK/src/tensorflow_lite/src/third_party/gemmlowp/fixedpoint\fixedpoint.h **** 
 787:C:/Renesas/e2studio_2021_01_workspace_RZA2M_ANPR/ANPR_RZA2M_RDK/src/tensorflow_lite/src/third_party/gemmlowp/fixedpoint\fixedpoint.h ****   result = SelectUsingMask(MaskIfZero(a), ResultF::One(), result);
 788:C:/Renesas/e2studio_2021_01_workspace_RZA2M_ANPR/ANPR_RZA2M_RDK/src/tensorflow_lite/src/third_party/gemmlowp/fixedpoint\fixedpoint.h ****   return result;
 789:C:/Renesas/e2studio_2021_01_workspace_RZA2M_ANPR/ANPR_RZA2M_RDK/src/tensorflow_lite/src/third_party/gemmlowp/fixedpoint\fixedpoint.h **** }
 790:C:/Renesas/e2studio_2021_01_workspace_RZA2M_ANPR/ANPR_RZA2M_RDK/src/tensorflow_lite/src/third_party/gemmlowp/fixedpoint\fixedpoint.h **** 
 791:C:/Renesas/e2studio_2021_01_workspace_RZA2M_ANPR/ANPR_RZA2M_RDK/src/tensorflow_lite/src/third_party/gemmlowp/fixedpoint\fixedpoint.h **** // Implementation of tanh: (1 - exp(-2x)) / (1 + exp(-2x)).
 792:C:/Renesas/e2studio_2021_01_workspace_RZA2M_ANPR/ANPR_RZA2M_RDK/src/tensorflow_lite/src/third_party/gemmlowp/fixedpoint\fixedpoint.h **** 
 793:C:/Renesas/e2studio_2021_01_workspace_RZA2M_ANPR/ANPR_RZA2M_RDK/src/tensorflow_lite/src/third_party/gemmlowp/fixedpoint\fixedpoint.h **** // Returns (1 - x) / (1 + x) for x in (0, 1).
 794:C:/Renesas/e2studio_2021_01_workspace_RZA2M_ANPR/ANPR_RZA2M_RDK/src/tensorflow_lite/src/third_party/gemmlowp/fixedpoint\fixedpoint.h **** template <typename tRawType>
 795:C:/Renesas/e2studio_2021_01_workspace_RZA2M_ANPR/ANPR_RZA2M_RDK/src/tensorflow_lite/src/third_party/gemmlowp/fixedpoint\fixedpoint.h **** FixedPoint<tRawType, 0> one_minus_x_over_one_plus_x_for_x_in_0_1(
 456              		.loc 4 795 0
 457              		.cfi_startproc
 458              		@ args = 0, pretend = 0, frame = 0
 459              		@ frame_needed = 0, uses_anonymous_args = 0
 460              	.LVL50:
 461              	.LBB2322:
 462              	.LBB2323:
 463              	.LBB2324:
 240:C:/Renesas/e2studio_2021_01_workspace_RZA2M_ANPR/ANPR_RZA2M_RDK/src/tensorflow_lite/src/third_party/gemmlowp/fixedpoint\fixedpoint.h ****   return static_cast<std::int32_t>((sum + sign) / 2);
 464              		.loc 4 240 0
 465 0000 020150E3 		cmp	r0, #-2147483648
 466              	.LBE2324:
 467              	.LBE2323:
 468              	.LBE2322:
 469              		.loc 4 795 0
 470 0004 F0432DE9 		push	{r4, r5, r6, r7, r8, r9, lr}
 471              		.cfi_def_cfa_offset 28
 472              		.cfi_offset 4, -28
 473              		.cfi_offset 5, -24
 474              		.cfi_offset 6, -20
 475              		.cfi_offset 7, -16
 476              		.cfi_offset 8, -12
 477              		.cfi_offset 9, -8
 478              		.cfi_offset 14, -4
 479              	.LBB2335:
 480              	.LBB2330:
 481              	.LBB2325:
 240:C:/Renesas/e2studio_2021_01_workspace_RZA2M_ANPR/ANPR_RZA2M_RDK/src/tensorflow_lite/src/third_party/gemmlowp/fixedpoint\fixedpoint.h ****   return static_cast<std::int32_t>((sum + sign) / 2);
 482              		.loc 4 240 0
 483 0008 1D01000A 		beq	.L51
 484              	.LVL51:
 485 000c C01FA0E1 		asr	r1, r0, #31
 241:C:/Renesas/e2studio_2021_01_workspace_RZA2M_ANPR/ANPR_RZA2M_RDK/src/tensorflow_lite/src/third_party/gemmlowp/fixedpoint\fixedpoint.h **** }
 486              		.loc 4 241 0
 487 0010 020190E2 		adds	r0, r0, #-2147483648
 488              	.LVL52:
 489              	.LBE2325:
 490              	.LBE2330:
 491              	.LBE2335:
 492              	.LBB2336:
 493              	.LBB2337:
 494              	.LBB2338:
 495              	.LBB2339:
 334:C:/Renesas/e2studio_2021_01_workspace_RZA2M_ANPR/ANPR_RZA2M_RDK/src/tensorflow_lite/src/third_party/gemmlowp/fixedpoint\fixedpoint.h ****   std::int32_t nudge = ab_64 >= 0 ? (1 << 30) : (1 - (1 << 30));
 496              		.loc 4 334 0
 497 0014 C4330CE3 		movw	r3, #50116
 498              	.LBE2339:
 499              	.LBE2338:
 500              	.LBE2337:
 501              	.LBE2336:
 502              	.LBB2349:
 503              	.LBB2331:
 504              	.LBB2326:
 241:C:/Renesas/e2studio_2021_01_workspace_RZA2M_ANPR/ANPR_RZA2M_RDK/src/tensorflow_lite/src/third_party/gemmlowp/fixedpoint\fixedpoint.h **** }
 505              		.loc 4 241 0
 506 0018 0010A1E2 		adc	r1, r1, #0
 507              	.LBE2326:
 508              	.LBE2331:
 509              	.LBE2349:
 510              	.LBB2350:
 511              	.LBB2346:
 512              	.LBB2343:
 513              	.LBB2340:
 334:C:/Renesas/e2studio_2021_01_workspace_RZA2M_ANPR/ANPR_RZA2M_RDK/src/tensorflow_lite/src/third_party/gemmlowp/fixedpoint\fixedpoint.h ****   std::int32_t nudge = ab_64 >= 0 ? (1 << 30) : (1 - (1 << 30));
 514              		.loc 4 334 0
 515 001c C3334CE3 		movt	r3, 50115
 516              	.LBE2340:
 517              	.LBE2343:
 518              	.LBE2346:
 519              	.LBE2350:
 520              	.LBB2351:
 521              	.LBB2332:
 522              	.LBB2327:
 241:C:/Renesas/e2studio_2021_01_workspace_RZA2M_ANPR/ANPR_RZA2M_RDK/src/tensorflow_lite/src/third_party/gemmlowp/fixedpoint\fixedpoint.h **** }
 523              		.loc 4 241 0
 524 0020 C110B0E1 		movs	r1, r1, asr #1
 525 0024 6000A0E1 		mov	r0, r0, rrx
 526              	.LVL53:
 527              	.LBE2327:
 528              	.LBE2332:
 529              	.LBE2351:
 530              	.LBB2352:
 531              	.LBB2353:
 532              	.LBB2354:
  95:C:/Renesas/e2studio_2021_01_workspace_RZA2M_ANPR/ANPR_RZA2M_RDK/src/tensorflow_lite/src/third_party/gemmlowp/fixedpoint\fixedpoint.h **** }
 533              		.loc 4 95 0
 534 0028 5ACA05E3 		movw	ip, #23130
 535              	.LBE2354:
 536              	.LBE2353:
 537              	.LBE2352:
 538              	.LBB2363:
 539              	.LBB2347:
 540              	.LBB2344:
 541              	.LBB2341:
 334:C:/Renesas/e2studio_2021_01_workspace_RZA2M_ANPR/ANPR_RZA2M_RDK/src/tensorflow_lite/src/third_party/gemmlowp/fixedpoint\fixedpoint.h ****   std::int32_t nudge = ab_64 >= 0 ? (1 << 30) : (1 - (1 << 30));
 542              		.loc 4 334 0
 543 002c 002060E2 		rsb	r2, r0, #0
 544 0030 904385E0 		umull	r4, r5, r0, r3
 545              	.LBE2341:
 546              	.LBE2344:
 547              	.LBE2347:
 548              	.LBE2363:
 549              	.LBB2364:
 550              	.LBB2359:
 551              	.LBB2355:
  95:C:/Renesas/e2studio_2021_01_workspace_RZA2M_ANPR/ANPR_RZA2M_RDK/src/tensorflow_lite/src/third_party/gemmlowp/fixedpoint\fixedpoint.h **** }
 552              		.loc 4 95 0
 553 0034 5ACA45E3 		movt	ip, 23130
 554              	.LBE2355:
 555              	.LBE2359:
 556              	.LBE2364:
 557              	.LBB2365:
 558              	.LBB2348:
 559              	.LBB2345:
 560              	.LBB2342:
 334:C:/Renesas/e2studio_2021_01_workspace_RZA2M_ANPR/ANPR_RZA2M_RDK/src/tensorflow_lite/src/third_party/gemmlowp/fixedpoint\fixedpoint.h ****   std::int32_t nudge = ab_64 >= 0 ? (1 << 30) : (1 - (1 << 30));
 561              		.loc 4 334 0
 562 0038 932123E0 		mla	r3, r3, r1, r2
 563 003c 055083E0 		add	r5, r3, r5
 564              	.LVL54:
 335:C:/Renesas/e2studio_2021_01_workspace_RZA2M_ANPR/ANPR_RZA2M_RDK/src/tensorflow_lite/src/third_party/gemmlowp/fixedpoint\fixedpoint.h ****   std::int32_t ab_x2_high32 =
 565              		.loc 4 335 0
 566 0040 053094E1 		orrs	r3, r4, r5
 567 0044 0121A003 		moveq	r2, #1073741824
 568 0048 0721A013 		movne	r2, #-1073741823
 569 004c 0030A003 		moveq	r3, #0
 570 0050 0030E013 		mvnne	r3, #0
 571              	.LVL55:
 337:C:/Renesas/e2studio_2021_01_workspace_RZA2M_ANPR/ANPR_RZA2M_RDK/src/tensorflow_lite/src/third_party/gemmlowp/fixedpoint\fixedpoint.h ****   return overflow ? std::numeric_limits<std::int32_t>::max() : ab_x2_high32;
 572              		.loc 4 337 0
 573 0054 024094E0 		adds	r4, r4, r2
 574              	.LVL56:
 575 0058 0350A5E0 		adc	r5, r5, r3
 576 005c 0030A0E3 		mov	r3, #0
 577 0060 C52FA0E1 		asr	r2, r5, #31
 578 0064 0221C2E3 		bic	r2, r2, #-2147483648
 579 0068 042092E0 		adds	r2, r2, r4
 580 006c A22FA0E1 		lsr	r2, r2, #31
 581 0070 0530A3E0 		adc	r3, r3, r5
 582 0074 832082E1 		orr	r2, r2, r3, lsl #1
 583              	.LBE2342:
 584              	.LBE2345:
 585              	.LBE2348:
 586              	.LBE2365:
 587              	.LBB2366:
 588              	.LBB2360:
 589              	.LBB2356:
  95:C:/Renesas/e2studio_2021_01_workspace_RZA2M_ANPR/ANPR_RZA2M_RDK/src/tensorflow_lite/src/third_party/gemmlowp/fixedpoint\fixedpoint.h **** }
 590              		.loc 4 95 0
 591 0078 02C08CE0 		add	ip, ip, r2
 592              	.LVL57:
 593              	.LBE2356:
 594              	.LBE2360:
 595              	.LBE2366:
 596              	.LBB2367:
 597              	.LBB2368:
 598              	.LBB2369:
 599              	.LBB2370:
 600              	.LBB2371:
 601              	.LBB2372:
 333:C:/Renesas/e2studio_2021_01_workspace_RZA2M_ANPR/ANPR_RZA2M_RDK/src/tensorflow_lite/src/third_party/gemmlowp/fixedpoint\fixedpoint.h ****   std::int64_t ab_64 = a_64 * b_64;
 602              		.loc 4 333 0
 603 007c CC5FA0E1 		asr	r5, ip, #31
 334:C:/Renesas/e2studio_2021_01_workspace_RZA2M_ANPR/ANPR_RZA2M_RDK/src/tensorflow_lite/src/third_party/gemmlowp/fixedpoint\fixedpoint.h ****   std::int32_t nudge = ab_64 >= 0 ? (1 << 30) : (1 - (1 << 30));
 604              		.loc 4 334 0
 605 0080 902C83E0 		umull	r2, r3, r0, ip
 333:C:/Renesas/e2studio_2021_01_workspace_RZA2M_ANPR/ANPR_RZA2M_RDK/src/tensorflow_lite/src/third_party/gemmlowp/fixedpoint\fixedpoint.h ****   std::int64_t ab_64 = a_64 * b_64;
 606              		.loc 4 333 0
 607 0084 0C40A0E1 		mov	r4, ip
 608              	.LVL58:
 334:C:/Renesas/e2studio_2021_01_workspace_RZA2M_ANPR/ANPR_RZA2M_RDK/src/tensorflow_lite/src/third_party/gemmlowp/fixedpoint\fixedpoint.h ****   std::int32_t nudge = ab_64 >= 0 ? (1 << 30) : (1 - (1 << 30));
 609              		.loc 4 334 0
 610 0088 90050EE0 		mul	lr, r0, r5
 335:C:/Renesas/e2studio_2021_01_workspace_RZA2M_ANPR/ANPR_RZA2M_RDK/src/tensorflow_lite/src/third_party/gemmlowp/fixedpoint\fixedpoint.h ****   std::int32_t ab_x2_high32 =
 611              		.loc 4 335 0
 612 008c 000052E3 		cmp	r2, #0
 334:C:/Renesas/e2studio_2021_01_workspace_RZA2M_ANPR/ANPR_RZA2M_RDK/src/tensorflow_lite/src/third_party/gemmlowp/fixedpoint\fixedpoint.h ****   std::int32_t nudge = ab_64 >= 0 ? (1 << 30) : (1 - (1 << 30));
 613              		.loc 4 334 0
 614 0090 9CE12EE0 		mla	lr, ip, r1, lr
 615 0094 03308EE0 		add	r3, lr, r3
 616              	.LVL59:
 335:C:/Renesas/e2studio_2021_01_workspace_RZA2M_ANPR/ANPR_RZA2M_RDK/src/tensorflow_lite/src/third_party/gemmlowp/fixedpoint\fixedpoint.h ****   std::int32_t ab_x2_high32 =
 617              		.loc 4 335 0
 618 0098 00E0D3E2 		sbcs	lr, r3, #0
 619 009c 0161A0A3 		movge	r6, #1073741824
 620 00a0 0070A0A3 		movge	r7, #0
 621 00a4 FF0000BA 		blt	.L30
 622              	.LVL60:
 623              	.L32:
 337:C:/Renesas/e2studio_2021_01_workspace_RZA2M_ANPR/ANPR_RZA2M_RDK/src/tensorflow_lite/src/third_party/gemmlowp/fixedpoint\fixedpoint.h ****   return overflow ? std::numeric_limits<std::int32_t>::max() : ab_x2_high32;
 624              		.loc 4 337 0
 625 00a8 026096E0 		adds	r6, r6, r2
 626              	.LVL61:
 627 00ac 0370A7E0 		adc	r7, r7, r3
 628 00b0 0030A0E3 		mov	r3, #0
 629 00b4 C72FA0E1 		asr	r2, r7, #31
 630 00b8 0221C2E3 		bic	r2, r2, #-2147483648
 631 00bc 062092E0 		adds	r2, r2, r6
 632 00c0 A22FA0E1 		lsr	r2, r2, #31
 633 00c4 0730A3E0 		adc	r3, r3, r7
 634 00c8 832082E1 		orr	r2, r2, r3, lsl #1
 635              	.LBE2372:
 636              	.LBE2371:
 637              	.LBE2370:
 638              	.LBE2369:
 639              	.LBB2388:
 640              	.LBB2389:
 641              	.LBB2390:
 106:C:/Renesas/e2studio_2021_01_workspace_RZA2M_ANPR/ANPR_RZA2M_RDK/src/tensorflow_lite/src/third_party/gemmlowp/fixedpoint\fixedpoint.h **** }
 642              		.loc 4 106 0
 643 00cc 022262E2 		rsb	r2, r2, #536870912
 644              	.LBE2390:
 645              	.LBE2389:
 646              	.LBE2388:
 647              	.LBB2395:
 648              	.LBB2396:
 649              	.LBB2397:
 650              	.LBB2398:
 334:C:/Renesas/e2studio_2021_01_workspace_RZA2M_ANPR/ANPR_RZA2M_RDK/src/tensorflow_lite/src/third_party/gemmlowp/fixedpoint\fixedpoint.h ****   std::int32_t nudge = ab_64 >= 0 ? (1 << 30) : (1 - (1 << 30));
 651              		.loc 4 334 0
 652 00d0 92050EE0 		mul	lr, r2, r5
 333:C:/Renesas/e2studio_2021_01_workspace_RZA2M_ANPR/ANPR_RZA2M_RDK/src/tensorflow_lite/src/third_party/gemmlowp/fixedpoint\fixedpoint.h ****   std::int64_t ab_64 = a_64 * b_64;
 653              		.loc 4 333 0
 654 00d4 C27FA0E1 		asr	r7, r2, #31
 655 00d8 0260A0E1 		mov	r6, r2
 334:C:/Renesas/e2studio_2021_01_workspace_RZA2M_ANPR/ANPR_RZA2M_RDK/src/tensorflow_lite/src/third_party/gemmlowp/fixedpoint\fixedpoint.h ****   std::int32_t nudge = ab_64 >= 0 ? (1 << 30) : (1 - (1 << 30));
 656              		.loc 4 334 0
 657 00dc 922483E0 		umull	r2, r3, r2, r4
 658              	.LBE2398:
 659              	.LBE2397:
 660              	.LBE2396:
 661              	.LBE2395:
 662              	.LBB2414:
 663              	.LBB2415:
 664              	.LBB2416:
 665              	.LBB2417:
 666              	.LBB2418:
 667              	.LBB2419:
 668              	.LBB2420:
 131:C:/Renesas/e2studio_2021_01_workspace_RZA2M_ANPR/ANPR_RZA2M_RDK/src/tensorflow_lite/src/third_party/gemmlowp/fixedpoint\fixedpoint.h ****              : wide_shifted > max ? max
 669              		.loc 4 131 0
 670 00e0 0050E0E3 		mvn	r5, #0
 671              	.LBE2420:
 672              	.LBE2419:
 673              	.LBE2418:
 674              	.LBE2417:
 675              	.LBE2416:
 676              	.LBE2415:
 677              	.LBE2414:
 678              	.LBB2462:
 679              	.LBB2409:
 680              	.LBB2404:
 681              	.LBB2399:
 334:C:/Renesas/e2studio_2021_01_workspace_RZA2M_ANPR/ANPR_RZA2M_RDK/src/tensorflow_lite/src/third_party/gemmlowp/fixedpoint\fixedpoint.h ****   std::int32_t nudge = ab_64 >= 0 ? (1 << 30) : (1 - (1 << 30));
 682              		.loc 4 334 0
 683 00e4 94E724E0 		mla	r4, r4, r7, lr
 684              	.LVL62:
 335:C:/Renesas/e2studio_2021_01_workspace_RZA2M_ANPR/ANPR_RZA2M_RDK/src/tensorflow_lite/src/third_party/gemmlowp/fixedpoint\fixedpoint.h ****   std::int32_t ab_x2_high32 =
 685              		.loc 4 335 0
 686 00e8 000052E3 		cmp	r2, #0
 334:C:/Renesas/e2studio_2021_01_workspace_RZA2M_ANPR/ANPR_RZA2M_RDK/src/tensorflow_lite/src/third_party/gemmlowp/fixedpoint\fixedpoint.h ****   std::int32_t nudge = ab_64 >= 0 ? (1 << 30) : (1 - (1 << 30));
 687              		.loc 4 334 0
 688 00ec 033084E0 		add	r3, r4, r3
 689              	.LVL63:
 690              	.LBE2399:
 691              	.LBE2404:
 692              	.LBE2409:
 693              	.LBE2462:
 694              	.LBB2463:
 695              	.LBB2458:
 696              	.LBB2454:
 697              	.LBB2450:
 698              	.LBB2446:
 699              	.LBB2426:
 700              	.LBB2421:
 131:C:/Renesas/e2studio_2021_01_workspace_RZA2M_ANPR/ANPR_RZA2M_RDK/src/tensorflow_lite/src/third_party/gemmlowp/fixedpoint\fixedpoint.h ****              : wide_shifted > max ? max
 701              		.loc 4 131 0
 702 00f0 0241A0E3 		mov	r4, #-2147483648
 703              	.LBE2421:
 704              	.LBE2426:
 705              	.LBE2446:
 706              	.LBE2450:
 707              	.LBE2454:
 708              	.LBE2458:
 709              	.LBE2463:
 710              	.LBB2464:
 711              	.LBB2410:
 712              	.LBB2405:
 713              	.LBB2400:
 335:C:/Renesas/e2studio_2021_01_workspace_RZA2M_ANPR/ANPR_RZA2M_RDK/src/tensorflow_lite/src/third_party/gemmlowp/fixedpoint\fixedpoint.h ****   std::int32_t ab_x2_high32 =
 714              		.loc 4 335 0
 715 00f4 00E0D3E2 		sbcs	lr, r3, #0
 716 00f8 0161A0A3 		movge	r6, #1073741824
 717 00fc 0761A0B3 		movlt	r6, #-1073741823
 718 0100 0070A0A3 		movge	r7, #0
 719 0104 0070E0B3 		mvnlt	r7, #0
 720              	.LVL64:
 337:C:/Renesas/e2studio_2021_01_workspace_RZA2M_ANPR/ANPR_RZA2M_RDK/src/tensorflow_lite/src/third_party/gemmlowp/fixedpoint\fixedpoint.h ****   return overflow ? std::numeric_limits<std::int32_t>::max() : ab_x2_high32;
 721              		.loc 4 337 0
 722 0108 026096E0 		adds	r6, r6, r2
 723              	.LVL65:
 724 010c 0370A7E0 		adc	r7, r7, r3
 725 0110 0030A0E3 		mov	r3, #0
 726 0114 C72FA0E1 		asr	r2, r7, #31
 727              	.LVL66:
 728 0118 0221C2E3 		bic	r2, r2, #-2147483648
 729 011c 062092E0 		adds	r2, r2, r6
 730 0120 A22FA0E1 		lsr	r2, r2, #31
 731 0124 0730A3E0 		adc	r3, r3, r7
 732 0128 832082E1 		orr	r2, r2, r3, lsl #1
 733 012c C33FA0E1 		asr	r3, r3, #31
 734              	.LVL67:
 735              	.LBE2400:
 736              	.LBE2405:
 737              	.LBE2410:
 738              	.LBE2464:
 739              	.LBB2465:
 740              	.LBB2459:
 741              	.LBB2455:
 742              	.LBB2451:
 743              	.LBB2447:
 744              	.LBB2427:
 745              	.LBB2422:
 127:C:/Renesas/e2studio_2021_01_workspace_RZA2M_ANPR/ANPR_RZA2M_RDK/src/tensorflow_lite/src/third_party/gemmlowp/fixedpoint\fixedpoint.h ****   const auto min = std::numeric_limits<tIntegerType>::min();
 746              		.loc 4 127 0
 747 0130 0371A0E1 		lsl	r7, r3, #2
 748 0134 0261A0E1 		lsl	r6, r2, #2
 749 0138 227F87E1 		orr	r7, r7, r2, lsr #30
 750              	.LBE2422:
 751              	.LBE2427:
 752              	.LBB2428:
 753              	.LBB2429:
 754              	.LBB2430:
 158:C:/Renesas/e2studio_2021_01_workspace_RZA2M_ANPR/ANPR_RZA2M_RDK/src/tensorflow_lite/src/third_party/gemmlowp/fixedpoint\fixedpoint.h **** }
 755              		.loc 4 158 0
 756 013c 1E0252E3 		cmp	r2, #-536870911
 757 0140 0020A0A3 		movge	r2, #0
 758 0144 0120A0B3 		movlt	r2, #1
 759              	.LBE2430:
 760              	.LBE2429:
 761              	.LBE2428:
 762              	.LBB2435:
 763              	.LBB2423:
 131:C:/Renesas/e2studio_2021_01_workspace_RZA2M_ANPR/ANPR_RZA2M_RDK/src/tensorflow_lite/src/third_party/gemmlowp/fixedpoint\fixedpoint.h ****              : wide_shifted > max ? max
 764              		.loc 4 131 0
 765 0148 040056E1 		cmp	r6, r4
 766 014c 0530D7E0 		sbcs	r3, r7, r5
 767              	.LBE2423:
 768              	.LBE2435:
 769              	.LBB2436:
 770              	.LBB2433:
 771              	.LBB2431:
 158:C:/Renesas/e2studio_2021_01_workspace_RZA2M_ANPR/ANPR_RZA2M_RDK/src/tensorflow_lite/src/third_party/gemmlowp/fixedpoint\fixedpoint.h **** }
 772              		.loc 4 158 0
 773 0150 003062E2 		rsb	r3, r2, #0
 774 0154 012042E2 		sub	r2, r2, #1
 775              	.LVL68:
 776 0158 02E103E2 		and	lr, r3, #-2147483648
 777 015c 032022B0 		eorlt	r2, r2, r3
 778 0160 062002A0 		andge	r2, r2, r6
 779 0164 022102B2 		andlt	r2, r2, #-2147483648
 780 0168 0E2022A0 		eorge	r2, r2, lr
 781              	.LBE2431:
 782              	.LBE2433:
 783              	.LBE2436:
 784              	.LBE2447:
 785              	.LBE2451:
 786              	.LBE2455:
 787              	.LBE2459:
 788              	.LBE2465:
 789              	.LBB2466:
 790              	.LBB2467:
 791              	.LBB2468:
  95:C:/Renesas/e2studio_2021_01_workspace_RZA2M_ANPR/ANPR_RZA2M_RDK/src/tensorflow_lite/src/third_party/gemmlowp/fixedpoint\fixedpoint.h **** }
 792              		.loc 4 95 0
 793 016c 02208CE0 		add	r2, ip, r2
 794              	.LVL69:
 795              	.LBE2468:
 796              	.LBE2467:
 797              	.LBE2466:
 798              	.LBB2473:
 799              	.LBB2383:
 800              	.LBB2378:
 801              	.LBB2373:
 334:C:/Renesas/e2studio_2021_01_workspace_RZA2M_ANPR/ANPR_RZA2M_RDK/src/tensorflow_lite/src/third_party/gemmlowp/fixedpoint\fixedpoint.h ****   std::int32_t nudge = ab_64 >= 0 ? (1 << 30) : (1 - (1 << 30));
 802              		.loc 4 334 0
 803 0170 920103E0 		mul	r3, r2, r1
 333:C:/Renesas/e2studio_2021_01_workspace_RZA2M_ANPR/ANPR_RZA2M_RDK/src/tensorflow_lite/src/third_party/gemmlowp/fixedpoint\fixedpoint.h ****   std::int64_t ab_64 = a_64 * b_64;
 804              		.loc 4 333 0
 805 0174 C27FA0E1 		asr	r7, r2, #31
 806 0178 0260A0E1 		mov	r6, r2
 334:C:/Renesas/e2studio_2021_01_workspace_RZA2M_ANPR/ANPR_RZA2M_RDK/src/tensorflow_lite/src/third_party/gemmlowp/fixedpoint\fixedpoint.h ****   std::int32_t nudge = ab_64 >= 0 ? (1 << 30) : (1 - (1 << 30));
 807              		.loc 4 334 0
 808 017c 924085E0 		umull	r4, r5, r2, r0
 809 0180 903723E0 		mla	r3, r0, r7, r3
 335:C:/Renesas/e2studio_2021_01_workspace_RZA2M_ANPR/ANPR_RZA2M_RDK/src/tensorflow_lite/src/third_party/gemmlowp/fixedpoint\fixedpoint.h ****   std::int32_t ab_x2_high32 =
 810              		.loc 4 335 0
 811 0184 000054E3 		cmp	r4, #0
 334:C:/Renesas/e2studio_2021_01_workspace_RZA2M_ANPR/ANPR_RZA2M_RDK/src/tensorflow_lite/src/third_party/gemmlowp/fixedpoint\fixedpoint.h ****   std::int32_t nudge = ab_64 >= 0 ? (1 << 30) : (1 - (1 << 30));
 812              		.loc 4 334 0
 813 0188 055083E0 		add	r5, r3, r5
 814              	.LVL70:
 335:C:/Renesas/e2studio_2021_01_workspace_RZA2M_ANPR/ANPR_RZA2M_RDK/src/tensorflow_lite/src/third_party/gemmlowp/fixedpoint\fixedpoint.h ****   std::int32_t ab_x2_high32 =
 815              		.loc 4 335 0
 816 018c 0030D5E2 		sbcs	r3, r5, #0
 817 0190 0161A0A3 		movge	r6, #1073741824
 818 0194 0761A0B3 		movlt	r6, #-1073741823
 819 0198 0070A0A3 		movge	r7, #0
 820 019c 0070E0B3 		mvnlt	r7, #0
 821              	.LVL71:
 337:C:/Renesas/e2studio_2021_01_workspace_RZA2M_ANPR/ANPR_RZA2M_RDK/src/tensorflow_lite/src/third_party/gemmlowp/fixedpoint\fixedpoint.h ****   return overflow ? std::numeric_limits<std::int32_t>::max() : ab_x2_high32;
 822              		.loc 4 337 0
 823 01a0 046096E0 		adds	r6, r6, r4
 824              	.LVL72:
 825 01a4 0570A7E0 		adc	r7, r7, r5
 826 01a8 0050A0E3 		mov	r5, #0
 827 01ac C74FA0E1 		asr	r4, r7, #31
 828 01b0 0241C4E3 		bic	r4, r4, #-2147483648
 829 01b4 064094E0 		adds	r4, r4, r6
 830 01b8 A44FA0E1 		lsr	r4, r4, #31
 831 01bc 0750A5E0 		adc	r5, r5, r7
 832 01c0 854084E1 		orr	r4, r4, r5, lsl #1
 833              	.LBE2373:
 834              	.LBE2378:
 835              	.LBE2383:
 836              	.LBE2473:
 837              	.LBB2474:
 838              	.LBB2393:
 839              	.LBB2391:
 106:C:/Renesas/e2studio_2021_01_workspace_RZA2M_ANPR/ANPR_RZA2M_RDK/src/tensorflow_lite/src/third_party/gemmlowp/fixedpoint\fixedpoint.h **** }
 840              		.loc 4 106 0
 841 01c4 024264E2 		rsb	r4, r4, #536870912
 842              	.LVL73:
 843              	.LBE2391:
 844              	.LBE2393:
 845              	.LBE2474:
 846              	.LBB2475:
 847              	.LBB2411:
 848              	.LBB2406:
 849              	.LBB2401:
 334:C:/Renesas/e2studio_2021_01_workspace_RZA2M_ANPR/ANPR_RZA2M_RDK/src/tensorflow_lite/src/third_party/gemmlowp/fixedpoint\fixedpoint.h ****   std::int32_t nudge = ab_64 >= 0 ? (1 << 30) : (1 - (1 << 30));
 850              		.loc 4 334 0
 851 01c8 9462C7E0 		smull	r6, r7, r4, r2
 331:C:/Renesas/e2studio_2021_01_workspace_RZA2M_ANPR/ANPR_RZA2M_RDK/src/tensorflow_lite/src/third_party/gemmlowp/fixedpoint\fixedpoint.h ****   std::int64_t a_64(a);
 852              		.loc 4 331 0
 853 01cc 020152E3 		cmp	r2, #-2147483648
 854 01d0 02005401 		cmpeq	r4, r2
 855 01d4 0140A003 		moveq	r4, #1
 856              	.LVL74:
 857 01d8 0040A013 		movne	r4, #0
 858              	.LVL75:
 335:C:/Renesas/e2studio_2021_01_workspace_RZA2M_ANPR/ANPR_RZA2M_RDK/src/tensorflow_lite/src/third_party/gemmlowp/fixedpoint\fixedpoint.h ****   std::int32_t ab_x2_high32 =
 859              		.loc 4 335 0
 860 01dc 000056E3 		cmp	r6, #0
 861 01e0 0030D7E2 		sbcs	r3, r7, #0
 862 01e4 0181A0A3 		movge	r8, #1073741824
 863 01e8 0090A0A3 		movge	r9, #0
 864 01ec 0781A0B3 		movlt	r8, #-1073741823
 865 01f0 0090E0B3 		mvnlt	r9, #0
 866              	.LVL76:
 338:C:/Renesas/e2studio_2021_01_workspace_RZA2M_ANPR/ANPR_RZA2M_RDK/src/tensorflow_lite/src/third_party/gemmlowp/fixedpoint\fixedpoint.h **** }
 867              		.loc 4 338 0
 868 01f4 000054E3 		cmp	r4, #0
 869 01f8 0231E013 		mvnne	r3, #-2147483648
 870 01fc 2000001A 		bne	.L38
 337:C:/Renesas/e2studio_2021_01_workspace_RZA2M_ANPR/ANPR_RZA2M_RDK/src/tensorflow_lite/src/third_party/gemmlowp/fixedpoint\fixedpoint.h ****   return overflow ? std::numeric_limits<std::int32_t>::max() : ab_x2_high32;
 871              		.loc 4 337 0
 872 0200 068098E0 		adds	r8, r8, r6
 873              	.LVL77:
 874 0204 0790A9E0 		adc	r9, r9, r7
 875 0208 0070A0E3 		mov	r7, #0
 876 020c C96FA0E1 		asr	r6, r9, #31
 877              	.LVL78:
 878 0210 0261C6E3 		bic	r6, r6, #-2147483648
 879 0214 086096E0 		adds	r6, r6, r8
 880 0218 A66FA0E1 		lsr	r6, r6, #31
 881 021c 0970A7E0 		adc	r7, r7, r9
 882 0220 876086E1 		orr	r6, r6, r7, lsl #1
 883              	.LVL79:
 884              	.LBE2401:
 885              	.LBE2406:
 886              	.LBE2411:
 887              	.LBE2475:
 888              	.LBB2476:
 889              	.LBB2460:
 890              	.LBB2456:
 891              	.LBB2452:
 892              	.LBB2448:
 893              	.LBB2437:
 894              	.LBB2438:
 895              	.LBB2439:
 158:C:/Renesas/e2studio_2021_01_workspace_RZA2M_ANPR/ANPR_RZA2M_RDK/src/tensorflow_lite/src/third_party/gemmlowp/fixedpoint\fixedpoint.h **** }
 896              		.loc 4 158 0
 897 0224 1E0276E3 		cmn	r6, #-536870911
 898 0228 8B0000DA 		ble	.L39
 899 022c 02C1E0E3 		mvn	ip, #-2147483648
 900              	.LVL80:
 901 0230 0430A0E1 		mov	r3, r4
 902 0234 0C50A0E1 		mov	r5, ip
 903 0238 00E0E0E3 		mvn	lr, #0
 904              	.L42:
 905              	.LVL81:
 906              	.LBE2439:
 907              	.LBE2438:
 908              	.LBE2437:
 909              	.LBB2442:
 910              	.LBB2424:
 127:C:/Renesas/e2studio_2021_01_workspace_RZA2M_ANPR/ANPR_RZA2M_RDK/src/tensorflow_lite/src/third_party/gemmlowp/fixedpoint\fixedpoint.h ****   const auto min = std::numeric_limits<tIntegerType>::min();
 911              		.loc 4 127 0
 912 023c 906B80EE 		vdup.32	d16, r6
 131:C:/Renesas/e2studio_2021_01_workspace_RZA2M_ANPR/ANPR_RZA2M_RDK/src/tensorflow_lite/src/third_party/gemmlowp/fixedpoint\fixedpoint.h ****              : wide_shifted > max ? max
 913              		.loc 4 131 0
 914 0240 0261A0E3 		mov	r6, #-2147483648
 915              	.LVL82:
 916 0244 0070E0E3 		mvn	r7, #0
 917              	.LVL83:
 127:C:/Renesas/e2studio_2021_01_workspace_RZA2M_ANPR/ANPR_RZA2M_RDK/src/tensorflow_lite/src/third_party/gemmlowp/fixedpoint\fixedpoint.h ****   const auto min = std::numeric_limits<tIntegerType>::min();
 918              		.loc 4 127 0
 919 0248 B000E0F2 		vshr.s64	d16, d16, #32
 920 024c B015C2F2 		vshl.u64	d17, d16, #2
 921 0250 318B59EC 		vmov	r8, r9, d17	@ int
 922              	.LVL84:
 131:C:/Renesas/e2studio_2021_01_workspace_RZA2M_ANPR/ANPR_RZA2M_RDK/src/tensorflow_lite/src/third_party/gemmlowp/fixedpoint\fixedpoint.h ****              : wide_shifted > max ? max
 923              		.loc 4 131 0
 924 0254 060058E1 		cmp	r8, r6
 925 0258 0760D9E0 		sbcs	r6, r9, r7
 926 025c 0E400CB0 		andlt	r4, ip, lr
 927 0260 043023B0 		eorlt	r3, r3, r4
 928 0264 060000BA 		blt	.L38
 132:C:/Renesas/e2studio_2021_01_workspace_RZA2M_ANPR/ANPR_RZA2M_RDK/src/tensorflow_lite/src/third_party/gemmlowp/fixedpoint\fixedpoint.h ****                                   : static_cast<tIntegerType>(wide_shifted);
 929              		.loc 4 132 0
 930 0268 020158E3 		cmp	r8, #-2147483648
 931 026c 00C0D9E2 		sbcs	ip, r9, #0
 932 0270 08C004B0 		andlt	ip, r4, r8
 933 0274 0241CEA3 		bicge	r4, lr, #-2147483648
 934 0278 05402CB0 		eorlt	r4, ip, r5
 935 027c 0E4004B0 		andlt	r4, r4, lr
 936 0280 043023E0 		eor	r3, r3, r4
 937              	.LVL85:
 938              	.L38:
 939              	.LBE2424:
 940              	.LBE2442:
 941              	.LBE2448:
 942              	.LBE2452:
 943              	.LBE2456:
 944              	.LBE2460:
 945              	.LBE2476:
 946              	.LBB2477:
 947              	.LBB2471:
 948              	.LBB2469:
  95:C:/Renesas/e2studio_2021_01_workspace_RZA2M_ANPR/ANPR_RZA2M_RDK/src/tensorflow_lite/src/third_party/gemmlowp/fixedpoint\fixedpoint.h **** }
 949              		.loc 4 95 0
 950 0284 023083E0 		add	r3, r3, r2
 951              	.LVL86:
 952              	.LBE2469:
 953              	.LBE2471:
 954              	.LBE2477:
 955              	.LBB2478:
 956              	.LBB2384:
 957              	.LBB2379:
 958              	.LBB2374:
 334:C:/Renesas/e2studio_2021_01_workspace_RZA2M_ANPR/ANPR_RZA2M_RDK/src/tensorflow_lite/src/third_party/gemmlowp/fixedpoint\fixedpoint.h ****   std::int32_t nudge = ab_64 >= 0 ? (1 << 30) : (1 - (1 << 30));
 959              		.loc 4 334 0
 960 0288 930102E0 		mul	r2, r3, r1
 961              	.LVL87:
 333:C:/Renesas/e2studio_2021_01_workspace_RZA2M_ANPR/ANPR_RZA2M_RDK/src/tensorflow_lite/src/third_party/gemmlowp/fixedpoint\fixedpoint.h ****   std::int64_t ab_64 = a_64 * b_64;
 962              		.loc 4 333 0
 963 028c C37FA0E1 		asr	r7, r3, #31
 964 0290 0360A0E1 		mov	r6, r3
 334:C:/Renesas/e2studio_2021_01_workspace_RZA2M_ANPR/ANPR_RZA2M_RDK/src/tensorflow_lite/src/third_party/gemmlowp/fixedpoint\fixedpoint.h ****   std::int32_t nudge = ab_64 >= 0 ? (1 << 30) : (1 - (1 << 30));
 965              		.loc 4 334 0
 966 0294 934085E0 		umull	r4, r5, r3, r0
 967 0298 902720E0 		mla	r0, r0, r7, r2
 968              	.LVL88:
 335:C:/Renesas/e2studio_2021_01_workspace_RZA2M_ANPR/ANPR_RZA2M_RDK/src/tensorflow_lite/src/third_party/gemmlowp/fixedpoint\fixedpoint.h ****   std::int32_t ab_x2_high32 =
 969              		.loc 4 335 0
 970 029c 000054E3 		cmp	r4, #0
 334:C:/Renesas/e2studio_2021_01_workspace_RZA2M_ANPR/ANPR_RZA2M_RDK/src/tensorflow_lite/src/third_party/gemmlowp/fixedpoint\fixedpoint.h ****   std::int32_t nudge = ab_64 >= 0 ? (1 << 30) : (1 - (1 << 30));
 971              		.loc 4 334 0
 972 02a0 055080E0 		add	r5, r0, r5
 973              	.LVL89:
 335:C:/Renesas/e2studio_2021_01_workspace_RZA2M_ANPR/ANPR_RZA2M_RDK/src/tensorflow_lite/src/third_party/gemmlowp/fixedpoint\fixedpoint.h ****   std::int32_t ab_x2_high32 =
 974              		.loc 4 335 0
 975 02a4 0020D5E2 		sbcs	r2, r5, #0
 976 02a8 0101A0A3 		movge	r0, #1073741824
 977 02ac 0701A0B3 		movlt	r0, #-1073741823
 978 02b0 0010A0A3 		movge	r1, #0
 979 02b4 0010E0B3 		mvnlt	r1, #0
 980              	.LVL90:
 337:C:/Renesas/e2studio_2021_01_workspace_RZA2M_ANPR/ANPR_RZA2M_RDK/src/tensorflow_lite/src/third_party/gemmlowp/fixedpoint\fixedpoint.h ****   return overflow ? std::numeric_limits<std::int32_t>::max() : ab_x2_high32;
 981              		.loc 4 337 0
 982 02b8 004094E0 		adds	r4, r4, r0
 983              	.LVL91:
 984 02bc 0150A5E0 		adc	r5, r5, r1
 985 02c0 0010A0E3 		mov	r1, #0
 986 02c4 C50FA0E1 		asr	r0, r5, #31
 987 02c8 0201C0E3 		bic	r0, r0, #-2147483648
 988 02cc 040090E0 		adds	r0, r0, r4
 989 02d0 A00FA0E1 		lsr	r0, r0, #31
 990 02d4 0510A1E0 		adc	r1, r1, r5
 991 02d8 810080E1 		orr	r0, r0, r1, lsl #1
 992 02dc C11FA0E1 		asr	r1, r1, #31
 993              	.LBE2374:
 994              	.LBE2379:
 995              	.LBE2384:
 996              	.LBE2478:
 997              	.LBB2479:
 998              	.LBB2394:
 999              	.LBB2392:
 106:C:/Renesas/e2studio_2021_01_workspace_RZA2M_ANPR/ANPR_RZA2M_RDK/src/tensorflow_lite/src/third_party/gemmlowp/fixedpoint\fixedpoint.h **** }
 1000              		.loc 4 106 0
 1001 02e0 020260E2 		rsb	r0, r0, #536870912
 1002              	.LVL92:
 1003              	.LBE2392:
 1004              	.LBE2394:
 1005              	.LBE2479:
 1006              	.LBB2480:
 1007              	.LBB2412:
 1008              	.LBB2407:
 1009              	.LBB2402:
 334:C:/Renesas/e2studio_2021_01_workspace_RZA2M_ANPR/ANPR_RZA2M_RDK/src/tensorflow_lite/src/third_party/gemmlowp/fixedpoint\fixedpoint.h ****   std::int32_t nudge = ab_64 >= 0 ? (1 << 30) : (1 - (1 << 30));
 1010              		.loc 4 334 0
 1011 02e4 9043C5E0 		smull	r4, r5, r0, r3
 331:C:/Renesas/e2studio_2021_01_workspace_RZA2M_ANPR/ANPR_RZA2M_RDK/src/tensorflow_lite/src/third_party/gemmlowp/fixedpoint\fixedpoint.h ****   std::int64_t a_64(a);
 1012              		.loc 4 331 0
 1013 02e8 030050E1 		cmp	r0, r3
 1014 02ec 02015303 		cmpeq	r3, #-2147483648
 1015 02f0 0100A003 		moveq	r0, #1
 1016              	.LVL93:
 1017 02f4 0000A013 		movne	r0, #0
 1018              	.LVL94:
 335:C:/Renesas/e2studio_2021_01_workspace_RZA2M_ANPR/ANPR_RZA2M_RDK/src/tensorflow_lite/src/third_party/gemmlowp/fixedpoint\fixedpoint.h ****   std::int32_t ab_x2_high32 =
 1019              		.loc 4 335 0
 1020 02f8 000054E3 		cmp	r4, #0
 1021 02fc 0020D5E2 		sbcs	r2, r5, #0
 1022 0300 0161A0A3 		movge	r6, #1073741824
 1023 0304 0070A0A3 		movge	r7, #0
 1024 0308 0761A0B3 		movlt	r6, #-1073741823
 1025 030c 0070E0B3 		mvnlt	r7, #0
 1026              	.LVL95:
 338:C:/Renesas/e2studio_2021_01_workspace_RZA2M_ANPR/ANPR_RZA2M_RDK/src/tensorflow_lite/src/third_party/gemmlowp/fixedpoint\fixedpoint.h **** }
 1027              		.loc 4 338 0
 1028 0310 000050E3 		cmp	r0, #0
 1029 0314 0201E013 		mvnne	r0, #-2147483648
 1030              	.LVL96:
