   1              		.cpu cortex-a9
   2              		.eabi_attribute 28, 1
   3              		.eabi_attribute 20, 1
   4              		.eabi_attribute 21, 1
   5              		.eabi_attribute 23, 3
   6              		.eabi_attribute 24, 1
   7              		.eabi_attribute 25, 1
   8              		.eabi_attribute 26, 1
   9              		.eabi_attribute 30, 2
  10              		.eabi_attribute 34, 0
  11              		.eabi_attribute 18, 4
  12              		.file	"r_vdc_shared_param.c"
  13              		.section	.text.VDC_ShrdPrmInit,"ax",%progbits
  14              		.align	2
  15              		.global	VDC_ShrdPrmInit
  16              		.syntax unified
  17              		.arm
  18              		.fpu neon
  20              	VDC_ShrdPrmInit:
  21              		@ args = 0, pretend = 0, frame = 0
  22              		@ frame_needed = 0, uses_anonymous_args = 0
  23 0000 003000E3 		movw	r3, #:lower16:.LANCHOR3
  24 0004 0020A0E3 		mov	r2, #0
  25 0008 003040E3 		movt	r3, #:upper16:.LANCHOR3
  26 000c 000000E3 		movw	r0, #:lower16:.LANCHOR0
  27 0010 00C0D3E5 		ldrb	ip, [r3]	@ zero_extendqisi2
  28 0014 001000E3 		movw	r1, #:lower16:.LANCHOR1
  29 0018 003000E3 		movw	r3, #:lower16:.LANCHOR2
  30 001c 000040E3 		movt	r0, #:upper16:.LANCHOR0
  31 0020 003040E3 		movt	r3, #:upper16:.LANCHOR2
  32 0024 001040E3 		movt	r1, #:upper16:.LANCHOR1
  33 0028 02005CE1 		cmp	ip, r2
  34 002c 04E02DE5 		str	lr, [sp, #-4]!
  35 0030 002081E5 		str	r2, [r1]
  36 0034 02E0A0E3 		mov	lr, #2
  37 0038 001000E3 		movw	r1, #:lower16:.LANCHOR4
  38 003c 002080E5 		str	r2, [r0]
  39 0040 001040E3 		movt	r1, #:upper16:.LANCHOR4
  40 0044 0120C3E5 		strb	r2, [r3, #1]
  41 0048 0100A0E3 		mov	r0, #1
  42 004c 042083E5 		str	r2, [r3, #4]
  43 0050 082083E5 		str	r2, [r3, #8]
  44 0054 002000E3 		movw	r2, #:lower16:.LANCHOR5
  45 0058 02C0C305 		strbeq	ip, [r3, #2]
  46 005c 00C000E3 		movw	ip, #:lower16:.LANCHOR6
  47 0060 002040E3 		movt	r2, #:upper16:.LANCHOR5
  48 0064 00E0C3E5 		strb	lr, [r3]
  49 0068 00C040E3 		movt	ip, #:upper16:.LANCHOR6
  50 006c 0030A0E3 		mov	r3, #0
  51 0070 0030C1E5 		strb	r3, [r1]
  52 0074 0130C1E5 		strb	r3, [r1, #1]
  53 0078 0230C1E5 		strb	r3, [r1, #2]
  54 007c 043081E5 		str	r3, [r1, #4]
  55 0080 B830C1E1 		strh	r3, [r1, #8]	@ movhi
  56 0084 BA30C1E1 		strh	r3, [r1, #10]	@ movhi
  57 0088 0030C2E5 		strb	r3, [r2]
  58 008c 0230C2E5 		strb	r3, [r2, #2]
  59 0090 0330C2E5 		strb	r3, [r2, #3]
  60 0094 0430C2E5 		strb	r3, [r2, #4]
  61 0098 B630C2E1 		strh	r3, [r2, #6]	@ movhi
  62 009c B830C2E1 		strh	r3, [r2, #8]	@ movhi
  63 00a0 BA30C2E1 		strh	r3, [r2, #10]	@ movhi
  64 00a4 BC30C2E1 		strh	r3, [r2, #12]	@ movhi
  65 00a8 BE30C2E1 		strh	r3, [r2, #14]	@ movhi
  66 00ac B031C2E1 		strh	r3, [r2, #16]	@ movhi
  67 00b0 1230C2E5 		strb	r3, [r2, #18]
  68 00b4 1430C2E5 		strb	r3, [r2, #20]
  69 00b8 1530C2E5 		strb	r3, [r2, #21]
  70 00bc 1630C2E5 		strb	r3, [r2, #22]
  71 00c0 B831C2E1 		strh	r3, [r2, #24]	@ movhi
  72 00c4 BA31C2E1 		strh	r3, [r2, #26]	@ movhi
  73 00c8 BC31C2E1 		strh	r3, [r2, #28]	@ movhi
  74 00cc BE31C2E1 		strh	r3, [r2, #30]	@ movhi
  75 00d0 B032C2E1 		strh	r3, [r2, #32]	@ movhi
  76 00d4 B232C2E1 		strh	r3, [r2, #34]	@ movhi
  77 00d8 2430C2E5 		strb	r3, [r2, #36]
  78 00dc 2630C2E5 		strb	r3, [r2, #38]
  79 00e0 2730C2E5 		strb	r3, [r2, #39]
  80 00e4 0100C2E5 		strb	r0, [r2, #1]
  81 00e8 1300C2E5 		strb	r0, [r2, #19]
  82 00ec 2500C2E5 		strb	r0, [r2, #37]
  83 00f0 2830C2E5 		strb	r3, [r2, #40]
  84 00f4 BA32C2E1 		strh	r3, [r2, #42]	@ movhi
  85 00f8 BC32C2E1 		strh	r3, [r2, #44]	@ movhi
  86 00fc BE32C2E1 		strh	r3, [r2, #46]	@ movhi
  87 0100 B033C2E1 		strh	r3, [r2, #48]	@ movhi
  88 0104 B233C2E1 		strh	r3, [r2, #50]	@ movhi
  89 0108 B433C2E1 		strh	r3, [r2, #52]	@ movhi
  90 010c 0000CCE5 		strb	r0, [ip]
  91 0110 04F09DE4 		ldr	pc, [sp], #4
  93              		.section	.text.VDC_ShrdPrmSetInitParam,"ax",%progbits
  94              		.align	2
  95              		.global	VDC_ShrdPrmSetInitParam
  96              		.syntax unified
  97              		.arm
  98              		.fpu neon
 100              	VDC_ShrdPrmSetInitParam:
 101              		@ args = 0, pretend = 0, frame = 0
 102              		@ frame_needed = 0, uses_anonymous_args = 0
 103              		@ link register save eliminated.
 104 0000 0020D0E5 		ldrb	r2, [r0]	@ zero_extendqisi2
 105 0004 003000E3 		movw	r3, #:lower16:.LANCHOR2
 106 0008 003040E3 		movt	r3, #:upper16:.LANCHOR2
 107 000c 031042E2 		sub	r1, r2, #3
 108 0010 0020C3E5 		strb	r2, [r3]
 109 0014 010051E3 		cmp	r1, #1
 110 0018 0120A093 		movls	r2, #1
 111 001c 0120C395 		strbls	r2, [r3, #1]
 112 0020 043090E5 		ldr	r3, [r0, #4]
 113 0024 000053E3 		cmp	r3, #0
 114 0028 0520D315 		ldrbne	r2, [r3, #5]	@ zero_extendqisi2
 115 002c 00300013 		movwne	r3, #:lower16:.LANCHOR6
 116 0030 00304013 		movtne	r3, #:upper16:.LANCHOR6
 117 0034 0020C315 		strbne	r2, [r3]
 118 0038 1EFF2FE1 		bx	lr
 120              		.section	.text.VDC_ShrdPrmSetTerminate,"ax",%progbits
 121              		.align	2
 122              		.global	VDC_ShrdPrmSetTerminate
 123              		.syntax unified
 124              		.arm
 125              		.fpu neon
 127              	VDC_ShrdPrmSetTerminate:
 128              		@ args = 0, pretend = 0, frame = 0
 129              		@ frame_needed = 0, uses_anonymous_args = 0
 130              		@ link register save eliminated.
 131 0000 003000E3 		movw	r3, #:lower16:.LANCHOR2
 132 0004 0020A0E3 		mov	r2, #0
 133 0008 003040E3 		movt	r3, #:upper16:.LANCHOR2
 134 000c 0120C3E5 		strb	r2, [r3, #1]
 135 0010 1EFF2FE1 		bx	lr
 137              		.section	.text.VDC_ShrdPrmSetInputParam,"ax",%progbits
 138              		.align	2
 139              		.global	VDC_ShrdPrmSetInputParam
 140              		.syntax unified
 141              		.arm
 142              		.fpu neon
 144              	VDC_ShrdPrmSetInputParam:
 145              		@ args = 0, pretend = 0, frame = 0
 146              		@ frame_needed = 0, uses_anonymous_args = 0
 147              		@ link register save eliminated.
 148 0000 0C2090E5 		ldr	r2, [r0, #12]
 149 0004 003000E3 		movw	r3, #:lower16:.LANCHOR2
 150 0008 001000E3 		movw	r1, #:lower16:.LANCHOR3
 151 000c 003040E3 		movt	r3, #:upper16:.LANCHOR2
 152 0010 001040E3 		movt	r1, #:upper16:.LANCHOR3
 153 0014 0100A0E3 		mov	r0, #1
 154 0018 0020D2E5 		ldrb	r2, [r2]	@ zero_extendqisi2
 155 001c 0000C1E5 		strb	r0, [r1]
 156 0020 020052E3 		cmp	r2, #2
 157 0024 0020A093 		movls	r2, #0
 158 0028 0120A083 		movhi	r2, #1
 159 002c 0220C3E5 		strb	r2, [r3, #2]
 160 0030 1EFF2FE1 		bx	lr
 162              		.section	.text.VDC_ShrdPrmSetOutputParam,"ax",%progbits
 163              		.align	2
 164              		.global	VDC_ShrdPrmSetOutputParam
 165              		.syntax unified
 166              		.arm
 167              		.fpu neon
 169              	VDC_ShrdPrmSetOutputParam:
 170              		@ args = 0, pretend = 0, frame = 0
 171              		@ frame_needed = 0, uses_anonymous_args = 0
 172 0000 2C0090E5 		ldr	r0, [r0, #44]
 173 0004 6AC0E0E3 		mvn	ip, #106
 174 0008 70402DE9 		push	{r4, r5, r6, lr}
 175 000c 5450E0E3 		mvn	r5, #84
 176 0010 2A10E0E3 		mvn	r1, #42
 177 0014 9620A0E3 		mov	r2, #150
 178 0018 50E4E7E7 		ubfx	lr, r0, #8, #8
 179 001c 5048E7E7 		ubfx	r4, r0, #16, #8
 180 0020 950E05E0 		mul	r5, r5, lr
 181 0024 1430E0E3 		mvn	r3, #20
 182 0028 4D60A0E3 		mov	r6, #77
 183 002c 9C0E0CE0 		mul	ip, ip, lr
 184 0030 920E02E0 		mul	r2, r2, lr
 185 0034 70E0EFE6 		uxtb	lr, r0
 186 0038 84C38CE0 		add	ip, ip, r4, lsl #7
 187 003c 915421E0 		mla	r1, r1, r4, r5
 188 0040 8E516EE0 		rsb	r5, lr, lr, lsl #3
 189 0044 93CE23E0 		mla	r3, r3, lr, ip
 190 0048 8E1381E0 		add	r1, r1, lr, lsl #7
 191 004c 05E18EE0 		add	lr, lr, r5, lsl #2
 192 0050 962422E0 		mla	r2, r6, r4, r2
 193 0054 FFC081E2 		add	ip, r1, #255
 194 0058 000051E3 		cmp	r1, #0
 195 005c 0C10A0B1 		movlt	r1, ip
 196 0060 FFC083E2 		add	ip, r3, #255
 197 0064 000053E3 		cmp	r3, #0
 198 0068 4114A0E1 		asr	r1, r1, #8
 199 006c 0C30A0B1 		movlt	r3, ip
 200 0070 0E2082E0 		add	r2, r2, lr
 201 0074 43C4A0E1 		asr	ip, r3, #8
 202 0078 801081E2 		add	r1, r1, #128
 203 007c FF30C2E3 		bic	r3, r2, #255
 204 0080 80208CE2 		add	r2, ip, #128
 205 0084 013083E1 		orr	r3, r3, r1
 206 0088 001000E3 		movw	r1, #:lower16:.LANCHOR2
 207 008c 023883E1 		orr	r3, r3, r2, lsl #16
 208 0090 001040E3 		movt	r1, #:upper16:.LANCHOR2
 209 0094 090081E9 		stmib	r1, {r0, r3}
 210 0098 7080BDE8 		pop	{r4, r5, r6, pc}
 212              		.section	.text.VDC_ShrdPrmSetWriteParam,"ax",%progbits
 213              		.align	2
 214              		.global	VDC_ShrdPrmSetWriteParam
 215              		.syntax unified
 216              		.arm
 217              		.fpu neon
 219              	VDC_ShrdPrmSetWriteParam:
 220              		@ args = 0, pretend = 0, frame = 0
 221              		@ frame_needed = 0, uses_anonymous_args = 0
 222 0000 1120D0E5 		ldrb	r2, [r0, #17]	@ zero_extendqisi2
 223 0004 003000E3 		movw	r3, #:lower16:.LANCHOR4
 224 0008 30402DE9 		push	{r4, r5, lr}
 225 000c 003040E3 		movt	r3, #:upper16:.LANCHOR4
 226 0010 0F50D0E5 		ldrb	r5, [r0, #15]	@ zero_extendqisi2
 227 0014 030052E3 		cmp	r2, #3
 228 0018 00005213 		cmpne	r2, #0
 229 001c 1340D0E5 		ldrb	r4, [r0, #19]	@ zero_extendqisi2
 230 0020 0120A003 		moveq	r2, #1
 231 0024 28E090E5 		ldr	lr, [r0, #40]
 232 0028 0020A013 		movne	r2, #0
 233 002c BAC0D0E1 		ldrh	ip, [r0, #10]
 234 0030 BC10D0E1 		ldrh	r1, [r0, #12]
 235 0034 0220C3E5 		strb	r2, [r3, #2]
 236 0038 0050C3E5 		strb	r5, [r3]
 237 003c 0140C3E5 		strb	r4, [r3, #1]
 238 0040 04E083E5 		str	lr, [r3, #4]
 239 0044 B8C0C3E1 		strh	ip, [r3, #8]	@ movhi
 240 0048 BA10C3E1 		strh	r1, [r3, #10]	@ movhi
 241 004c 3080BDE8 		pop	{r4, r5, pc}
 243              		.section	.text.VDC_ShrdPrmSetChgWriteParam,"ax",%progbits
 244              		.align	2
 245              		.global	VDC_ShrdPrmSetChgWriteParam
 246              		.syntax unified
 247              		.arm
 248              		.fpu neon
 250              	VDC_ShrdPrmSetChgWriteParam:
 251              		@ args = 0, pretend = 0, frame = 0
 252              		@ frame_needed = 0, uses_anonymous_args = 0
 253              		@ link register save eliminated.
 254 0000 0FC0D0E5 		ldrb	ip, [r0, #15]	@ zero_extendqisi2
 255 0004 003000E3 		movw	r3, #:lower16:.LANCHOR4
 256 0008 BA10D0E1 		ldrh	r1, [r0, #10]
 257 000c 003040E3 		movt	r3, #:upper16:.LANCHOR4
 258 0010 BC20D0E1 		ldrh	r2, [r0, #12]
 259 0014 00C0C3E5 		strb	ip, [r3]
 260 0018 B810C3E1 		strh	r1, [r3, #8]	@ movhi
 261 001c BA20C3E1 		strh	r2, [r3, #10]	@ movhi
 262 0020 1EFF2FE1 		bx	lr
 264              		.section	.text.VDC_ShrdPrmSetReadParam,"ax",%progbits
 265              		.align	2
 266              		.global	VDC_ShrdPrmSetReadParam
 267              		.syntax unified
 268              		.arm
 269              		.fpu neon
 271              	VDC_ShrdPrmSetReadParam:
 272              		@ args = 0, pretend = 0, frame = 0
 273              		@ frame_needed = 0, uses_anonymous_args = 0
 274 0000 800180E0 		add	r0, r0, r0, lsl #3
 275 0004 11C0D1E5 		ldrb	ip, [r1, #17]	@ zero_extendqisi2
 276 0008 0020D1E5 		ldrb	r2, [r1]	@ zero_extendqisi2
 277 000c 003000E3 		movw	r3, #:lower16:.LANCHOR5
 278 0010 8000A0E1 		lsl	r0, r0, #1
 279 0014 70402DE9 		push	{r4, r5, r6, lr}
 280 0018 003040E3 		movt	r3, #:upper16:.LANCHOR5
 281 001c 0150A0E1 		mov	r5, r1
 282 0020 004083E0 		add	r4, r3, r0
 283 0024 0160D5E5 		ldrb	r6, [r5, #1]	@ zero_extendqisi2
 284 0028 141081E2 		add	r1, r1, #20
 285 002c 10E0D5E5 		ldrb	lr, [r5, #16]	@ zero_extendqisi2
 286 0030 0020C3E7 		strb	r2, [r3, r0]
 287 0034 08304CE2 		sub	r3, ip, #8
 288 0038 010053E3 		cmp	r3, #1
 289 003c 060084E2 		add	r0, r4, #6
 290 0040 0030A083 		movhi	r3, #0
 291 0044 0130A093 		movls	r3, #1
 292 0048 0330C4E5 		strb	r3, [r4, #3]
 293 004c 0820A0E3 		mov	r2, #8
 294 0050 0160C4E5 		strb	r6, [r4, #1]
 295 0054 02C0C4E5 		strb	ip, [r4, #2]
 296 0058 04E0C4E5 		strb	lr, [r4, #4]
 297 005c FEFFFFEB 		bl	memcpy
 298 0060 0C3095E5 		ldr	r3, [r5, #12]
 299 0064 000053E3 		cmp	r3, #0
 300 0068 0400000A 		beq	.L19
 301 006c B020D3E1 		ldrh	r2, [r3]
 302 0070 B230D3E1 		ldrh	r3, [r3, #2]
 303 0074 BE20C4E1 		strh	r2, [r4, #14]	@ movhi
 304 0078 B031C4E1 		strh	r3, [r4, #16]	@ movhi
 305 007c 7080BDE8 		pop	{r4, r5, r6, pc}
 306              	.L19:
 307 0080 010056E3 		cmp	r6, #1
 308 0084 0400000A 		beq	.L23
 309 0088 0E0084E2 		add	r0, r4, #14
 310 008c 0420A0E3 		mov	r2, #4
 311 0090 18109FE5 		ldr	r1, .L24
 312 0094 FEFFFFEB 		bl	memcpy
 313 0098 7080BDE8 		pop	{r4, r5, r6, pc}
 314              	.L23:
 315 009c B621D5E1 		ldrh	r2, [r5, #22]
 316 00a0 BA31D5E1 		ldrh	r3, [r5, #26]
 317 00a4 BE20C4E1 		strh	r2, [r4, #14]	@ movhi
 318 00a8 B031C4E1 		strh	r3, [r4, #16]	@ movhi
 319 00ac 7080BDE8 		pop	{r4, r5, r6, pc}
 320              	.L25:
 321              		.align	2
 322              	.L24:
 323 00b0 08000000 		.word	.LANCHOR4+8
 325              		.section	.text.VDC_ShrdPrmSetChgReadParam,"ax",%progbits
 326              		.align	2
 327              		.global	VDC_ShrdPrmSetChgReadParam
 328              		.syntax unified
 329              		.arm
 330              		.fpu neon
 332              	VDC_ShrdPrmSetChgReadParam:
 333              		@ args = 0, pretend = 0, frame = 0
 334              		@ frame_needed = 0, uses_anonymous_args = 0
 335 0000 70402DE9 		push	{r4, r5, r6, lr}
 336 0004 0150A0E1 		mov	r5, r1
 337 0008 081091E5 		ldr	r1, [r1, #8]
 338 000c 0040A0E1 		mov	r4, r0
 339 0010 000051E3 		cmp	r1, #0
 340 0014 0600000A 		beq	.L27
 341 0018 000000E3 		movw	r0, #:lower16:.LANCHOR5
 342 001c 843184E0 		add	r3, r4, r4, lsl #3
 343 0020 000040E3 		movt	r0, #:upper16:.LANCHOR5
 344 0024 830080E0 		add	r0, r0, r3, lsl #1
 345 0028 0820A0E3 		mov	r2, #8
 346 002c 060080E2 		add	r0, r0, #6
 347 0030 FEFFFFEB 		bl	memcpy
 348              	.L27:
 349 0034 042095E5 		ldr	r2, [r5, #4]
 350 0038 000052E3 		cmp	r2, #0
 351 003c 7080BD08 		popeq	{r4, r5, r6, pc}
 352 0040 844184E0 		add	r4, r4, r4, lsl #3
 353 0044 003000E3 		movw	r3, #:lower16:.LANCHOR5
 354 0048 B010D2E1 		ldrh	r1, [r2]
 355 004c 003040E3 		movt	r3, #:upper16:.LANCHOR5
 356 0050 B220D2E1 		ldrh	r2, [r2, #2]
 357 0054 844083E0 		add	r4, r3, r4, lsl #1
 358 0058 BE10C4E1 		strh	r1, [r4, #14]	@ movhi
 359 005c B021C4E1 		strh	r2, [r4, #16]	@ movhi
 360 0060 7080BDE8 		pop	{r4, r5, r6, pc}
 362              		.section	.text.VDC_ShrdPrmGetLvdsClkRef,"ax",%progbits
 363              		.align	2
 364              		.global	VDC_ShrdPrmGetLvdsClkRef
 365              		.syntax unified
 366              		.arm
 367              		.fpu neon
 369              	VDC_ShrdPrmGetLvdsClkRef:
 370              		@ args = 0, pretend = 0, frame = 0
 371              		@ frame_needed = 0, uses_anonymous_args = 0
 372              		@ link register save eliminated.
 373 0000 003000E3 		movw	r3, #:lower16:.LANCHOR2
 374 0004 003040E3 		movt	r3, #:upper16:.LANCHOR2
 375 0008 0100D3E5 		ldrb	r0, [r3, #1]	@ zero_extendqisi2
 376 000c 000090E2 		adds	r0, r0, #0
 377 0010 0100A013 		movne	r0, #1
 378 0014 1EFF2FE1 		bx	lr
 380              		.section	.text.VDC_ShrdPrmGetColorSpace,"ax",%progbits
 381              		.align	2
 382              		.global	VDC_ShrdPrmGetColorSpace
 383              		.syntax unified
 384              		.arm
 385              		.fpu neon
 387              	VDC_ShrdPrmGetColorSpace:
 388              		@ args = 0, pretend = 0, frame = 0
 389              		@ frame_needed = 0, uses_anonymous_args = 0
 390              		@ link register save eliminated.
 391 0000 003000E3 		movw	r3, #:lower16:.LANCHOR2
 392 0004 003040E3 		movt	r3, #:upper16:.LANCHOR2
 393 0008 0200D3E5 		ldrb	r0, [r3, #2]	@ zero_extendqisi2
 394 000c 1EFF2FE1 		bx	lr
 396              		.section	.text.VDC_ShrdPrmGetBgColor,"ax",%progbits
 397              		.align	2
 398              		.global	VDC_ShrdPrmGetBgColor
 399              		.syntax unified
 400              		.arm
 401              		.fpu neon
 403              	VDC_ShrdPrmGetBgColor:
 404              		@ args = 0, pretend = 0, frame = 0
 405              		@ frame_needed = 0, uses_anonymous_args = 0
 406              		@ link register save eliminated.
 407 0000 003000E3 		movw	r3, #:lower16:.LANCHOR2
 408 0004 000050E3 		cmp	r0, #0
 409 0008 003040E3 		movt	r3, #:upper16:.LANCHOR2
 410 000c 0C0093E9 		ldmib	r3, {r2, r3}
 411 0010 0200A001 		moveq	r0, r2
 412 0014 0300A011 		movne	r0, r3
 413 0018 1EFF2FE1 		bx	lr
 415              		.section	.text.VDC_ShrdPrmGetWritingMode,"ax",%progbits
 416              		.align	2
 417              		.global	VDC_ShrdPrmGetWritingMode
 418              		.syntax unified
 419              		.arm
 420              		.fpu neon
 422              	VDC_ShrdPrmGetWritingMode:
 423              		@ args = 0, pretend = 0, frame = 0
 424              		@ frame_needed = 0, uses_anonymous_args = 0
 425              		@ link register save eliminated.
 426 0000 003000E3 		movw	r3, #:lower16:.LANCHOR4
 427 0004 003040E3 		movt	r3, #:upper16:.LANCHOR4
 428 0008 0000D3E5 		ldrb	r0, [r3]	@ zero_extendqisi2
 429 000c 1EFF2FE1 		bx	lr
 431              		.section	.text.VDC_ShrdPrmGetInterlace,"ax",%progbits
 432              		.align	2
 433              		.global	VDC_ShrdPrmGetInterlace
 434              		.syntax unified
 435              		.arm
 436              		.fpu neon
 438              	VDC_ShrdPrmGetInterlace:
 439              		@ args = 0, pretend = 0, frame = 0
 440              		@ frame_needed = 0, uses_anonymous_args = 0
 441              		@ link register save eliminated.
 442 0000 003000E3 		movw	r3, #:lower16:.LANCHOR4
 443 0004 003040E3 		movt	r3, #:upper16:.LANCHOR4
 444 0008 0100D3E5 		ldrb	r0, [r3, #1]	@ zero_extendqisi2
 445 000c 1EFF2FE1 		bx	lr
 447              		.section	.text.VDC_ShrdPrmGetColorSpaceFbWr,"ax",%progbits
 448              		.align	2
 449              		.global	VDC_ShrdPrmGetColorSpaceFbWr
 450              		.syntax unified
 451              		.arm
 452              		.fpu neon
 454              	VDC_ShrdPrmGetColorSpaceFbWr:
 455              		@ args = 0, pretend = 0, frame = 0
 456              		@ frame_needed = 0, uses_anonymous_args = 0
 457              		@ link register save eliminated.
 458 0000 003000E3 		movw	r3, #:lower16:.LANCHOR4
 459 0004 003040E3 		movt	r3, #:upper16:.LANCHOR4
 460 0008 0200D3E5 		ldrb	r0, [r3, #2]	@ zero_extendqisi2
 461 000c 1EFF2FE1 		bx	lr
 463              		.section	.text.VDC_ShrdPrmGetFrBuffBtm,"ax",%progbits
 464              		.align	2
 465              		.global	VDC_ShrdPrmGetFrBuffBtm
 466              		.syntax unified
 467              		.arm
 468              		.fpu neon
 470              	VDC_ShrdPrmGetFrBuffBtm:
 471              		@ args = 0, pretend = 0, frame = 0
 472              		@ frame_needed = 0, uses_anonymous_args = 0
 473              		@ link register save eliminated.
 474 0000 003000E3 		movw	r3, #:lower16:.LANCHOR4
 475 0004 003040E3 		movt	r3, #:upper16:.LANCHOR4
 476 0008 040093E5 		ldr	r0, [r3, #4]
 477 000c 1EFF2FE1 		bx	lr
 479              		.section	.text.VDC_ShrdPrmGetLineOfsAddrDir,"ax",%progbits
 480              		.align	2
 481              		.global	VDC_ShrdPrmGetLineOfsAddrDir
 482              		.syntax unified
 483              		.arm
 484              		.fpu neon
 486              	VDC_ShrdPrmGetLineOfsAddrDir:
 487              		@ args = 0, pretend = 0, frame = 0
 488              		@ frame_needed = 0, uses_anonymous_args = 0
 489              		@ link register save eliminated.
 490 0000 800180E0 		add	r0, r0, r0, lsl #3
 491 0004 003000E3 		movw	r3, #:lower16:.LANCHOR5
 492 0008 003040E3 		movt	r3, #:upper16:.LANCHOR5
 493 000c 8000D3E7 		ldrb	r0, [r3, r0, lsl #1]	@ zero_extendqisi2
 494 0010 1EFF2FE1 		bx	lr
 496              		.section	.text.VDC_ShrdPrmGetSelFbAddrSig,"ax",%progbits
 497              		.align	2
 498              		.global	VDC_ShrdPrmGetSelFbAddrSig
 499              		.syntax unified
 500              		.arm
 501              		.fpu neon
 503              	VDC_ShrdPrmGetSelFbAddrSig:
 504              		@ args = 0, pretend = 0, frame = 0
 505              		@ frame_needed = 0, uses_anonymous_args = 0
 506              		@ link register save eliminated.
 507 0000 800180E0 		add	r0, r0, r0, lsl #3
 508 0004 003000E3 		movw	r3, #:lower16:.LANCHOR5
 509 0008 003040E3 		movt	r3, #:upper16:.LANCHOR5
 510 000c 803083E0 		add	r3, r3, r0, lsl #1
 511 0010 0100D3E5 		ldrb	r0, [r3, #1]	@ zero_extendqisi2
 512 0014 1EFF2FE1 		bx	lr
 514              		.section	.text.VDC_ShrdPrmGetGraphicsFormat,"ax",%progbits
 515              		.align	2
 516              		.global	VDC_ShrdPrmGetGraphicsFormat
 517              		.syntax unified
 518              		.arm
 519              		.fpu neon
 521              	VDC_ShrdPrmGetGraphicsFormat:
 522              		@ args = 0, pretend = 0, frame = 0
 523              		@ frame_needed = 0, uses_anonymous_args = 0
 524              		@ link register save eliminated.
 525 0000 800180E0 		add	r0, r0, r0, lsl #3
 526 0004 003000E3 		movw	r3, #:lower16:.LANCHOR5
 527 0008 003040E3 		movt	r3, #:upper16:.LANCHOR5
 528 000c 803083E0 		add	r3, r3, r0, lsl #1
 529 0010 0200D3E5 		ldrb	r0, [r3, #2]	@ zero_extendqisi2
 530 0014 1EFF2FE1 		bx	lr
 532              		.section	.text.VDC_ShrdPrmGetColorSpaceFbRd,"ax",%progbits
 533              		.align	2
 534              		.global	VDC_ShrdPrmGetColorSpaceFbRd
 535              		.syntax unified
 536              		.arm
 537              		.fpu neon
 539              	VDC_ShrdPrmGetColorSpaceFbRd:
 540              		@ args = 0, pretend = 0, frame = 0
 541              		@ frame_needed = 0, uses_anonymous_args = 0
 542              		@ link register save eliminated.
 543 0000 800180E0 		add	r0, r0, r0, lsl #3
 544 0004 003000E3 		movw	r3, #:lower16:.LANCHOR5
 545 0008 003040E3 		movt	r3, #:upper16:.LANCHOR5
 546 000c 803083E0 		add	r3, r3, r0, lsl #1
 547 0010 0300D3E5 		ldrb	r0, [r3, #3]	@ zero_extendqisi2
 548 0014 1EFF2FE1 		bx	lr
 550              		.section	.text.VDC_ShrdPrmGetMeasureFolding,"ax",%progbits
 551              		.align	2
 552              		.global	VDC_ShrdPrmGetMeasureFolding
 553              		.syntax unified
 554              		.arm
 555              		.fpu neon
 557              	VDC_ShrdPrmGetMeasureFolding:
 558              		@ args = 0, pretend = 0, frame = 0
 559              		@ frame_needed = 0, uses_anonymous_args = 0
 560              		@ link register save eliminated.
 561 0000 800180E0 		add	r0, r0, r0, lsl #3
 562 0004 003000E3 		movw	r3, #:lower16:.LANCHOR5
 563 0008 003040E3 		movt	r3, #:upper16:.LANCHOR5
 564 000c 803083E0 		add	r3, r3, r0, lsl #1
 565 0010 0400D3E5 		ldrb	r0, [r3, #4]	@ zero_extendqisi2
 566 0014 1EFF2FE1 		bx	lr
 568              		.section	.text.VDC_ShrdPrmGetDisplayArea,"ax",%progbits
 569              		.align	2
 570              		.global	VDC_ShrdPrmGetDisplayArea
 571              		.syntax unified
 572              		.arm
 573              		.fpu neon
 575              	VDC_ShrdPrmGetDisplayArea:
 576              		@ args = 0, pretend = 0, frame = 0
 577              		@ frame_needed = 0, uses_anonymous_args = 0
 578              		@ link register save eliminated.
 579 0000 800180E0 		add	r0, r0, r0, lsl #3
 580 0004 003000E3 		movw	r3, #:lower16:.LANCHOR5
 581 0008 003040E3 		movt	r3, #:upper16:.LANCHOR5
 582 000c 800083E0 		add	r0, r3, r0, lsl #1
 583 0010 060080E2 		add	r0, r0, #6
 584 0014 1EFF2FE1 		bx	lr
 586              		.section	.text.VDC_ShrdPrmGetFrBuffWidth_Rd,"ax",%progbits
 587              		.align	2
 588              		.global	VDC_ShrdPrmGetFrBuffWidth_Rd
 589              		.syntax unified
 590              		.arm
 591              		.fpu neon
 593              	VDC_ShrdPrmGetFrBuffWidth_Rd:
 594              		@ args = 0, pretend = 0, frame = 0
 595              		@ frame_needed = 0, uses_anonymous_args = 0
 596              		@ link register save eliminated.
 597 0000 800180E0 		add	r0, r0, r0, lsl #3
 598 0004 003000E3 		movw	r3, #:lower16:.LANCHOR5
 599 0008 003040E3 		movt	r3, #:upper16:.LANCHOR5
 600 000c 800083E0 		add	r0, r3, r0, lsl #1
 601 0010 0E0080E2 		add	r0, r0, #14
 602 0014 1EFF2FE1 		bx	lr
 604              		.section	.text.VDC_ShrdPrmGetLvdsCh,"ax",%progbits
 605              		.align	2
 606              		.global	VDC_ShrdPrmGetLvdsCh
 607              		.syntax unified
 608              		.arm
 609              		.fpu neon
 611              	VDC_ShrdPrmGetLvdsCh:
 612              		@ args = 0, pretend = 0, frame = 0
 613              		@ frame_needed = 0, uses_anonymous_args = 0
 614              		@ link register save eliminated.
 615 0000 003000E3 		movw	r3, #:lower16:.LANCHOR6
 616 0004 003040E3 		movt	r3, #:upper16:.LANCHOR6
 617 0008 0000D3E5 		ldrb	r0, [r3]	@ zero_extendqisi2
 618 000c 1EFF2FE1 		bx	lr
 620              		.section	.text.VDC_ShrdPrmSetResource,"ax",%progbits
 621              		.align	2
 622              		.global	VDC_ShrdPrmSetResource
 623              		.syntax unified
 624              		.arm
 625              		.fpu neon
 627              	VDC_ShrdPrmSetResource:
 628              		@ args = 0, pretend = 0, frame = 0
 629              		@ frame_needed = 0, uses_anonymous_args = 0
 630              		@ link register save eliminated.
 631 0000 040050E3 		cmp	r0, #4
 632 0004 1EFF2F81 		bxhi	lr
 633 0008 003000E3 		movw	r3, #:lower16:.LANCHOR7
 634 000c 003040E3 		movt	r3, #:upper16:.LANCHOR7
 635 0010 003193E7 		ldr	r3, [r3, r0, lsl #2]
 636 0014 000053E3 		cmp	r3, #0
 637 0018 0010C315 		strbne	r1, [r3]
 638 001c 1EFF2FE1 		bx	lr
 640              		.section	.text.VDC_ShrdPrmSetLayerResource,"ax",%progbits
 641              		.align	2
 642              		.global	VDC_ShrdPrmSetLayerResource
 643              		.syntax unified
 644              		.arm
 645              		.fpu neon
 647              	VDC_ShrdPrmSetLayerResource:
 648              		@ args = 0, pretend = 0, frame = 0
 649              		@ frame_needed = 0, uses_anonymous_args = 0
 650              		@ link register save eliminated.
 651 0000 010070E3 		cmn	r0, #1
 652 0004 0300000A 		beq	.L60
 653 0008 003000E3 		movw	r3, #:lower16:.LANCHOR0
 654 000c 003040E3 		movt	r3, #:upper16:.LANCHOR0
 655 0010 0010C3E7 		strb	r1, [r3, r0]
 656 0014 1EFF2FE1 		bx	lr
 657              	.L60:
 658 0018 003000E3 		movw	r3, #:lower16:.LANCHOR1
 659 001c 003040E3 		movt	r3, #:upper16:.LANCHOR1
 660 0020 0020D3E5 		ldrb	r2, [r3]	@ zero_extendqisi2
 661 0024 000052E3 		cmp	r2, #0
 662 0028 00200003 		movweq	r2, #:lower16:.LANCHOR0
 663 002c 00204003 		movteq	r2, #:upper16:.LANCHOR0
 664 0030 0010C205 		strbeq	r1, [r2]
 665 0034 0120D3E5 		ldrb	r2, [r3, #1]	@ zero_extendqisi2
 666 0038 000052E3 		cmp	r2, #0
 667 003c 00200003 		movweq	r2, #:lower16:.LANCHOR0
 668 0040 00204003 		movteq	r2, #:upper16:.LANCHOR0
 669 0044 0110C205 		strbeq	r1, [r2, #1]
 670 0048 0220D3E5 		ldrb	r2, [r3, #2]	@ zero_extendqisi2
 671 004c 0330D3E5 		ldrb	r3, [r3, #3]	@ zero_extendqisi2
 672 0050 000052E3 		cmp	r2, #0
 673 0054 00200003 		movweq	r2, #:lower16:.LANCHOR0
 674 0058 00204003 		movteq	r2, #:upper16:.LANCHOR0
 675 005c 0210C205 		strbeq	r1, [r2, #2]
 676 0060 000053E3 		cmp	r3, #0
 677 0064 00300003 		movweq	r3, #:lower16:.LANCHOR0
 678 0068 00304003 		movteq	r3, #:upper16:.LANCHOR0
 679 006c 0310C305 		strbeq	r1, [r3, #3]
 680 0070 1EFF2FE1 		bx	lr
 682              		.section	.text.VDC_ShrdPrmGetResource,"ax",%progbits
 683              		.align	2
 684              		.global	VDC_ShrdPrmGetResource
 685              		.syntax unified
 686              		.arm
 687              		.fpu neon
 689              	VDC_ShrdPrmGetResource:
 690              		@ args = 0, pretend = 0, frame = 0
 691              		@ frame_needed = 0, uses_anonymous_args = 0
 692              		@ link register save eliminated.
 693 0000 040050E3 		cmp	r0, #4
 694 0004 0500008A 		bhi	.L68
 695 0008 003000E3 		movw	r3, #:lower16:.LANCHOR7
 696 000c 003040E3 		movt	r3, #:upper16:.LANCHOR7
 697 0010 000193E7 		ldr	r0, [r3, r0, lsl #2]
 698 0014 000050E3 		cmp	r0, #0
 699 0018 0000D015 		ldrbne	r0, [r0]	@ zero_extendqisi2
 700 001c 1EFF2FE1 		bx	lr
 701              	.L68:
 702 0020 0000A0E3 		mov	r0, #0
 703 0024 1EFF2FE1 		bx	lr
 705              		.section	.text.VDC_ShrdPrmGetLayerResource,"ax",%progbits
 706              		.align	2
 707              		.global	VDC_ShrdPrmGetLayerResource
 708              		.syntax unified
 709              		.arm
 710              		.fpu neon
 712              	VDC_ShrdPrmGetLayerResource:
 713              		@ args = 0, pretend = 0, frame = 0
 714              		@ frame_needed = 0, uses_anonymous_args = 0
 715              		@ link register save eliminated.
 716 0000 003000E3 		movw	r3, #:lower16:.LANCHOR0
 717 0004 003040E3 		movt	r3, #:upper16:.LANCHOR0
 718 0008 0000D3E7 		ldrb	r0, [r3, r0]	@ zero_extendqisi2
 719 000c 1EFF2FE1 		bx	lr
 721              		.section	.text.VDC_ShrdPrmSetRwProcEnable,"ax",%progbits
 722              		.align	2
 723              		.global	VDC_ShrdPrmSetRwProcEnable
 724              		.syntax unified
 725              		.arm
 726              		.fpu neon
 728              	VDC_ShrdPrmSetRwProcEnable:
 729              		@ args = 0, pretend = 0, frame = 0
 730              		@ frame_needed = 0, uses_anonymous_args = 0
 731              		@ link register save eliminated.
 732 0000 010070E3 		cmn	r0, #1
 733 0004 1EFF2F01 		bxeq	lr
 734 0008 003000E3 		movw	r3, #:lower16:.LANCHOR0
 735 000c 003040E3 		movt	r3, #:upper16:.LANCHOR0
 736 0010 0030D3E7 		ldrb	r3, [r3, r0]	@ zero_extendqisi2
 737 0014 000053E3 		cmp	r3, #0
 738 0018 00300013 		movwne	r3, #:lower16:.LANCHOR1
 739 001c 0120A013 		movne	r2, #1
 740 0020 00304013 		movtne	r3, #:upper16:.LANCHOR1
 741 0024 0020C317 		strbne	r2, [r3, r0]
 742 0028 1EFF2FE1 		bx	lr
 744              		.section	.text.VDC_ShrdPrmSetRwProcDisable,"ax",%progbits
 745              		.align	2
 746              		.global	VDC_ShrdPrmSetRwProcDisable
 747              		.syntax unified
 748              		.arm
 749              		.fpu neon
 751              	VDC_ShrdPrmSetRwProcDisable:
 752              		@ args = 0, pretend = 0, frame = 0
 753              		@ frame_needed = 0, uses_anonymous_args = 0
 754              		@ link register save eliminated.
 755 0000 010070E3 		cmn	r0, #1
 756 0004 1EFF2F01 		bxeq	lr
 757 0008 003000E3 		movw	r3, #:lower16:.LANCHOR0
 758 000c 003040E3 		movt	r3, #:upper16:.LANCHOR0
 759 0010 0030D3E7 		ldrb	r3, [r3, r0]	@ zero_extendqisi2
 760 0014 000053E3 		cmp	r3, #0
 761 0018 00300013 		movwne	r3, #:lower16:.LANCHOR1
 762 001c 0020A013 		movne	r2, #0
 763 0020 00304013 		movtne	r3, #:upper16:.LANCHOR1
 764 0024 0020C317 		strbne	r2, [r3, r0]
 765 0028 1EFF2FE1 		bx	lr
 767              		.section	.text.VDC_ShrdPrmGetRwProcReady,"ax",%progbits
 768              		.align	2
 769              		.global	VDC_ShrdPrmGetRwProcReady
 770              		.syntax unified
 771              		.arm
 772              		.fpu neon
 774              	VDC_ShrdPrmGetRwProcReady:
 775              		@ args = 0, pretend = 0, frame = 0
 776              		@ frame_needed = 0, uses_anonymous_args = 0
 777              		@ link register save eliminated.
 778 0000 003000E3 		movw	r3, #:lower16:.LANCHOR0
 779 0004 003040E3 		movt	r3, #:upper16:.LANCHOR0
 780 0008 0030D3E7 		ldrb	r3, [r3, r0]	@ zero_extendqisi2
 781 000c 000053E3 		cmp	r3, #0
 782 0010 00300013 		movwne	r3, #:lower16:.LANCHOR1
 783 0014 00304013 		movtne	r3, #:upper16:.LANCHOR1
 784 0018 0000D317 		ldrbne	r0, [r3, r0]	@ zero_extendqisi2
 785 001c 100F6F11 		clzne	r0, r0
 786 0020 A002A011 		lsrne	r0, r0, #5
 787 0024 0300A001 		moveq	r0, r3
 788 0028 1EFF2FE1 		bx	lr
 790              		.section	.text.VDC_ShrdPrmGetRwProcEnabled,"ax",%progbits
 791              		.align	2
 792              		.global	VDC_ShrdPrmGetRwProcEnabled
 793              		.syntax unified
 794              		.arm
 795              		.fpu neon
 797              	VDC_ShrdPrmGetRwProcEnabled:
 798              		@ args = 0, pretend = 0, frame = 0
 799              		@ frame_needed = 0, uses_anonymous_args = 0
 800              		@ link register save eliminated.
 801 0000 003000E3 		movw	r3, #:lower16:.LANCHOR0
 802 0004 003040E3 		movt	r3, #:upper16:.LANCHOR0
 803 0008 0030D3E7 		ldrb	r3, [r3, r0]	@ zero_extendqisi2
 804 000c 000053E3 		cmp	r3, #0
 805 0010 0500000A 		beq	.L92
 806 0014 003000E3 		movw	r3, #:lower16:.LANCHOR1
 807 0018 003040E3 		movt	r3, #:upper16:.LANCHOR1
 808 001c 0000D3E7 		ldrb	r0, [r3, r0]	@ zero_extendqisi2
 809 0020 000090E2 		adds	r0, r0, #0
 810 0024 0100A013 		movne	r0, #1
 811 0028 1EFF2FE1 		bx	lr
 812              	.L92:
 813 002c 0300A0E1 		mov	r0, r3
 814 0030 1EFF2FE1 		bx	lr
 816              		.section	.bss.layer_resource,"aw",%nobits
 817              		.align	3
 818              		.set	.LANCHOR0,. + 0
 821              	layer_resource:
 822 0000 00000000 		.space	4
 823              		.section	.bss.lvds_resource.69837,"aw",%nobits
 826              	lvds_resource.69837:
 827 0000 00       		.space	1
 828              		.section	.bss.lvds_vdc_sel_ch,"aw",%nobits
 829              		.set	.LANCHOR6,. + 0
 832              	lvds_vdc_sel_ch:
 833 0000 00       		.space	1
 834              		.section	.bss.param_common,"aw",%nobits
 835              		.align	2
 836              		.set	.LANCHOR2,. + 0
 839              	param_common:
 840 0000 00000000 		.space	12
 840      00000000 
 840      00000000 
 841              		.section	.bss.param_graphics,"aw",%nobits
 842              		.align	2
 843              		.set	.LANCHOR5,. + 0
 846              	param_graphics:
 847 0000 00000000 		.space	54
 847      00000000 
 847      00000000 
 847      00000000 
 847      00000000 
 848              		.section	.bss.param_resource.69836,"aw",%nobits
 849              		.align	2
 852              	param_resource.69836:
 853 0000 00000000 		.space	4
 854              		.section	.bss.param_scaling,"aw",%nobits
 855              		.align	2
 856              		.set	.LANCHOR4,. + 0
 859              	param_scaling:
 860 0000 00000000 		.space	12
 860      00000000 
 860      00000000 
 861              		.section	.bss.rw_proc_state,"aw",%nobits
 862              		.align	3
 863              		.set	.LANCHOR1,. + 0
 866              	rw_proc_state:
 867 0000 00000000 		.space	4
 868              		.section	.bss.video_input_flag,"aw",%nobits
 869              		.set	.LANCHOR3,. + 0
 872              	video_input_flag:
 873 0000 00       		.space	1
 874              		.section	.rodata.CSWTCH.4,"a",%progbits
 875              		.align	3
 876              		.set	.LANCHOR7,. + 0
 879              	CSWTCH.4:
 880 0000 00000000 		.word	param_resource.69836
 881 0004 01000000 		.word	param_resource.69836+1
 882 0008 02000000 		.word	param_resource.69836+2
 883 000c 03000000 		.word	param_resource.69836+3
 884 0010 00000000 		.word	lvds_resource.69837
 885              		.ident	"GCC: (GNU Tools for ARM Embedded Processors 6-2017-q2-update) 6.3.1 20170620 (release) [AR