   1              		.cpu cortex-a9
   2              		.eabi_attribute 28, 1
   3              		.eabi_attribute 20, 1
   4              		.eabi_attribute 21, 1
   5              		.eabi_attribute 23, 3
   6              		.eabi_attribute 24, 1
   7              		.eabi_attribute 25, 1
   8              		.eabi_attribute 26, 1
   9              		.eabi_attribute 30, 2
  10              		.eabi_attribute 34, 0
  11              		.eabi_attribute 18, 4
  12              		.file	"r_vdc_check_parameter.c"
  13              		.section	.text.CheckTcon_DataEnable,"ax",%progbits
  14              		.align	2
  15              		.syntax unified
  16              		.arm
  17              		.fpu neon
  19              	CheckTcon_DataEnable:
  20              		@ args = 0, pretend = 0, frame = 0
  21              		@ frame_needed = 0, uses_anonymous_args = 0
  22              		@ link register save eliminated.
  23              	.L2:
  24 0000 0730D0E5 		ldrb	r3, [r0, #7]	@ zero_extendqisi2
  25 0004 013083E2 		add	r3, r3, #1
  26 0008 7330EFE6 		uxtb	r3, r3
  27 000c 080053E3 		cmp	r3, #8
  28 0010 0500A023 		movcs	r0, #5
  29 0014 0000A033 		movcc	r0, #0
  30 0018 1EFF2FE1 		bx	lr
  32              		.section	.text.CheckTcon_HorizontalPol,"ax",%progbits
  33              		.align	2
  34              		.syntax unified
  35              		.arm
  36              		.fpu neon
  38              	CheckTcon_HorizontalPol:
  39              		@ args = 0, pretend = 0, frame = 0
  40              		@ frame_needed = 0, uses_anonymous_args = 0
  41              		@ link register save eliminated.
  42 0000 B020D0E1 		ldrh	r2, [r0]
  43 0004 3E3BA0E3 		mov	r3, #63488
  44 0008 FF3F4FE3 		movt	r3, 65535
  45 000c 030012E1 		tst	r2, r3
  46 0010 0100000A 		beq	.L11
  47              	.L7:
  48 0014 0400A0E3 		mov	r0, #4
  49 0018 1EFF2FE1 		bx	lr
  50              	.L11:
  51 001c B220D0E1 		ldrh	r2, [r0, #2]
  52 0020 030012E1 		tst	r2, r3
  53 0024 FAFFFF1A 		bne	.L7
  54 0028 0430D0E5 		ldrb	r3, [r0, #4]	@ zero_extendqisi2
  55 002c 030053E3 		cmp	r3, #3
  56 0030 0100009A 		bls	.L12
  57              	.L5:
  58 0034 0500A0E3 		mov	r0, #5
  59 0038 1EFF2FE1 		bx	lr
  60              	.L12:
  61 003c 0730D0E5 		ldrb	r3, [r0, #7]	@ zero_extendqisi2
  62 0040 013083E2 		add	r3, r3, #1
  63 0044 7330EFE6 		uxtb	r3, r3
  64 0048 070053E3 		cmp	r3, #7
  65 004c 0500A083 		movhi	r0, #5
  66 0050 0000A093 		movls	r0, #0
  67 0054 1EFF2FE1 		bx	lr
  69              		.section	.text.CheckTcon_Vertical,"ax",%progbits
  70              		.align	2
  71              		.syntax unified
  72              		.arm
  73              		.fpu neon
  75              	CheckTcon_Vertical:
  76              		@ args = 0, pretend = 0, frame = 0
  77              		@ frame_needed = 0, uses_anonymous_args = 0
  78              		@ link register save eliminated.
  79 0000 B020D0E1 		ldrh	r2, [r0]
  80 0004 3E3BA0E3 		mov	r3, #63488
  81 0008 FF3F4FE3 		movt	r3, 65535
  82 000c 030012E1 		tst	r2, r3
  83 0010 0100000A 		beq	.L18
  84              	.L16:
  85              	.L14:
  86 0014 0400A0E3 		mov	r0, #4
  87 0018 1EFF2FE1 		bx	lr
  88              	.L18:
  89 001c B220D0E1 		ldrh	r2, [r0, #2]
  90 0020 030012E1 		tst	r2, r3
  91 0024 FAFFFF1A 		bne	.L16
  92 0028 0730D0E5 		ldrb	r3, [r0, #7]	@ zero_extendqisi2
  93 002c 013083E2 		add	r3, r3, #1
  94 0030 7330EFE6 		uxtb	r3, r3
  95 0034 080053E3 		cmp	r3, #8
  96 0038 0000A033 		movcc	r0, #0
  97 003c 0500A023 		movcs	r0, #5
  98 0040 1EFF2FE1 		bx	lr
 100              		.section	.text.CheckTcon_Horizontal,"ax",%progbits
 101              		.align	2
 102              		.syntax unified
 103              		.arm
 104              		.fpu neon
 106              	CheckTcon_Horizontal:
 107              		@ args = 0, pretend = 0, frame = 0
 108              		@ frame_needed = 0, uses_anonymous_args = 0
 109              		@ link register save eliminated.
 110 0000 B020D0E1 		ldrh	r2, [r0]
 111 0004 3E3BA0E3 		mov	r3, #63488
 112 0008 FF3F4FE3 		movt	r3, 65535
 113 000c 030012E1 		tst	r2, r3
 114 0010 0100000A 		beq	.L24
 115              	.L22:
 116              	.L20:
 117 0014 0400A0E3 		mov	r0, #4
 118 0018 1EFF2FE1 		bx	lr
 119              	.L24:
 120 001c B220D0E1 		ldrh	r2, [r0, #2]
 121 0020 030012E1 		tst	r2, r3
 122 0024 FAFFFF1A 		bne	.L22
 123 0028 0730D0E5 		ldrb	r3, [r0, #7]	@ zero_extendqisi2
 124 002c 013083E2 		add	r3, r3, #1
 125 0030 7330EFE6 		uxtb	r3, r3
 126 0034 080053E3 		cmp	r3, #8
 127 0038 0000A033 		movcc	r0, #0
 128 003c 0500A023 		movcs	r0, #5
 129 0040 1EFF2FE1 		bx	lr
 131              		.section	.text.VDC_InitializeCheckPrm,"ax",%progbits
 132              		.align	2
 133              		.global	VDC_InitializeCheckPrm
 134              		.syntax unified
 135              		.arm
 136              		.fpu neon
 138              	VDC_InitializeCheckPrm:
 139              		@ args = 0, pretend = 0, frame = 0
 140              		@ frame_needed = 0, uses_anonymous_args = 0
 141 0000 000050E3 		cmp	r0, #0
 142 0004 0100000A 		beq	.L53
 143              	.L40:
 144 0008 0100A0E3 		mov	r0, #1
 145 000c 1EFF2FE1 		bx	lr
 146              	.L53:
 147 0010 000051E3 		cmp	r1, #0
 148 0014 0400000A 		beq	.L54
 149 0018 0030D1E5 		ldrb	r3, [r1]	@ zero_extendqisi2
 150 001c 040053E3 		cmp	r3, #4
 151 0020 0300009A 		bls	.L55
 152              	.L39:
 153 0024 0500A0E3 		mov	r0, #5
 154 0028 1EFF2FE1 		bx	lr
 155              	.L54:
 156              	.L26:
 157 002c 0300A0E3 		mov	r0, #3
 158 0030 1EFF2FE1 		bx	lr
 159              	.L55:
 160 0034 033043E2 		sub	r3, r3, #3
 161 0038 010053E3 		cmp	r3, #1
 162 003c 0200009A 		bls	.L28
 163 0040 0130D1E5 		ldrb	r3, [r1, #1]	@ zero_extendqisi2
 164 0044 0C0053E3 		cmp	r3, #12
 165 0048 F5FFFF8A 		bhi	.L39
 166              	.L28:
 167 004c 043091E5 		ldr	r3, [r1, #4]
 168 0050 000053E3 		cmp	r3, #0
 169 0054 0E00000A 		beq	.L56
 170 0058 0020D3E5 		ldrb	r2, [r3]	@ zero_extendqisi2
 171 005c 020052E3 		cmp	r2, #2
 172 0060 EFFFFF8A 		bhi	.L39
 173 0064 0420D3E5 		ldrb	r2, [r3, #4]	@ zero_extendqisi2
 174 0068 020052E3 		cmp	r2, #2
 175 006c ECFFFF8A 		bhi	.L39
 176 0070 0520D3E5 		ldrb	r2, [r3, #5]	@ zero_extendqisi2
 177 0074 000052E3 		cmp	r2, #0
 178 0078 E2FFFF1A 		bne	.L40
 179 007c B620D3E1 		ldrh	r2, [r3, #6]
 180 0080 162042E2 		sub	r2, r2, #22
 181 0084 280052E3 		cmp	r2, #40
 182 0088 1600009A 		bls	.L57
 183              	.L41:
 184 008c 0400A0E3 		mov	r0, #4
 185 0090 1EFF2FE1 		bx	lr
 186              	.L56:
 187 0094 10402DE9 		push	{r4, lr}
 188 0098 0400A0E3 		mov	r0, #4
 189 009c 0140A0E1 		mov	r4, r1
 190 00a0 FEFFFFEB 		bl	VDC_ShrdPrmGetResource
 191 00a4 000050E3 		cmp	r0, #0
 192 00a8 0030D4E5 		ldrb	r3, [r4]	@ zero_extendqisi2
 193 00ac 0400001A 		bne	.L30
 194 00b0 033043E2 		sub	r3, r3, #3
 195 00b4 010053E3 		cmp	r3, #1
 196 00b8 0800009A 		bls	.L36
 197              	.L31:
 198 00bc 0000A0E3 		mov	r0, #0
 199 00c0 1080BDE8 		pop	{r4, pc}
 200              	.L30:
 201 00c4 040053E3 		cmp	r3, #4
 202 00c8 FBFFFF1A 		bne	.L31
 203 00cc FEFFFFEB 		bl	VDC_ShrdPrmGetLvdsCh
 204 00d0 000050E3 		cmp	r0, #0
 205 00d4 F8FFFF0A 		beq	.L31
 206 00d8 0700A0E3 		mov	r0, #7
 207 00dc 1080BDE8 		pop	{r4, pc}
 208              	.L36:
 209 00e0 0300A0E3 		mov	r0, #3
 210 00e4 1080BDE8 		pop	{r4, pc}
 211              	.L57:
 212 00e8 B830D3E1 		ldrh	r3, [r3, #8]
 213 00ec 070053E3 		cmp	r3, #7
 214 00f0 E5FFFF8A 		bhi	.L41
 215 00f4 0000A0E3 		mov	r0, #0
 216 00f8 1EFF2FE1 		bx	lr
 218              		.section	.text.VDC_TerminateCheckPrm,"ax",%progbits
 219              		.align	2
 220              		.global	VDC_TerminateCheckPrm
 221              		.syntax unified
 222              		.arm
 223              		.fpu neon
 225              	VDC_TerminateCheckPrm:
 226              		@ args = 0, pretend = 0, frame = 0
 227              		@ frame_needed = 0, uses_anonymous_args = 0
 228              		@ link register save eliminated.
 229 0000 000090E2 		adds	r0, r0, #0
 230 0004 0100A013 		movne	r0, #1
 231 0008 1EFF2FE1 		bx	lr
 233              		.section	.text.VDC_VideoInputCheckPrm,"ax",%progbits
 234              		.align	2
 235              		.global	VDC_VideoInputCheckPrm
 236              		.syntax unified
 237              		.arm
 238              		.fpu neon
 240              	VDC_VideoInputCheckPrm:
 241              		@ args = 0, pretend = 0, frame = 0
 242              		@ frame_needed = 0, uses_anonymous_args = 0
 243              		@ link register save eliminated.
 244 0000 000050E3 		cmp	r0, #0
 245 0004 0100000A 		beq	.L86
 246 0008 0100A0E3 		mov	r0, #1
 247 000c 1EFF2FE1 		bx	lr
 248              	.L86:
 249 0010 000051E3 		cmp	r1, #0
 250 0014 0600000A 		beq	.L78
 251 0018 B220D1E1 		ldrh	r2, [r1, #2]
 252 001c 3F3BA0E3 		mov	r3, #64512
 253 0020 FF3F4FE3 		movt	r3, 65535
 254 0024 030012E1 		tst	r2, r3
 255 0028 0300000A 		beq	.L87
 256              	.L72:
 257 002c 0400A0E3 		mov	r0, #4
 258 0030 1EFF2FE1 		bx	lr
 259              	.L78:
 260              	.L60:
 261 0034 0300A0E3 		mov	r0, #3
 262 0038 1EFF2FE1 		bx	lr
 263              	.L87:
 264 003c B420D1E1 		ldrh	r2, [r1, #4]
 265 0040 030012E1 		tst	r2, r3
 266 0044 F8FFFF1A 		bne	.L72
 267 0048 082091E5 		ldr	r2, [r1, #8]
 268 004c 000052E3 		cmp	r2, #0
 269 0050 1400000A 		beq	.L62
 270 0054 B030D2E1 		ldrh	r3, [r2]
 271 0058 0730C3E3 		bic	r3, r3, #7
 272 005c 000053E3 		cmp	r3, #0
 273 0060 F1FFFF1A 		bne	.L72
 274 0064 B230D2E1 		ldrh	r3, [r2, #2]
 275 0068 FF0C13E3 		tst	r3, #65280
 276 006c EEFFFF1A 		bne	.L72
 277 0070 FE0053E3 		cmp	r3, #254
 278 0074 0100009A 		bls	.L88
 279              	.L73:
 280 0078 0600A0E3 		mov	r0, #6
 281 007c 1EFF2FE1 		bx	lr
 282              	.L88:
 283 0080 B430D2E1 		ldrh	r3, [r2, #4]
 284 0084 FF0C13E3 		tst	r3, #65280
 285 0088 E7FFFF1A 		bne	.L72
 286 008c FE0053E3 		cmp	r3, #254
 287 0090 F8FFFF8A 		bhi	.L73
 288 0094 B630D2E1 		ldrh	r3, [r2, #6]
 289 0098 FF0C13E3 		tst	r3, #65280
 290 009c E2FFFF1A 		bne	.L72
 291 00a0 FE0053E3 		cmp	r3, #254
 292 00a4 F3FFFF8A 		bhi	.L73
 293              	.L62:
 294 00a8 0C3091E5 		ldr	r3, [r1, #12]
 295 00ac 000053E3 		cmp	r3, #0
 296 00b0 DFFFFF0A 		beq	.L78
 297 00b4 0020D3E5 		ldrb	r2, [r3]	@ zero_extendqisi2
 298 00b8 060052E3 		cmp	r2, #6
 299 00bc 0100009A 		bls	.L89
 300              	.L76:
 301 00c0 0500A0E3 		mov	r0, #5
 302 00c4 1EFF2FE1 		bx	lr
 303              	.L89:
 304 00c8 0A30D3E5 		ldrb	r3, [r3, #10]	@ zero_extendqisi2
 305 00cc 030053E3 		cmp	r3, #3
 306 00d0 FAFFFF8A 		bhi	.L76
 307 00d4 013043E2 		sub	r3, r3, #1
 308 00d8 010053E3 		cmp	r3, #1
 309 00dc 05005293 		cmpls	r2, #5
 310 00e0 0000A013 		movne	r0, #0
 311 00e4 0700A003 		moveq	r0, #7
 312 00e8 1EFF2FE1 		bx	lr
 314              		.section	.text.VDC_SyncControlCheckPrm,"ax",%progbits
 315              		.align	2
 316              		.global	VDC_SyncControlCheckPrm
 317              		.syntax unified
 318              		.arm
 319              		.fpu neon
 321              	VDC_SyncControlCheckPrm:
 322              		@ args = 0, pretend = 0, frame = 0
 323              		@ frame_needed = 0, uses_anonymous_args = 0
 324              		@ link register save eliminated.
 325 0000 000050E3 		cmp	r0, #0
 326 0004 0100000A 		beq	.L116
 327 0008 0100A0E3 		mov	r0, #1
 328 000c 1EFF2FE1 		bx	lr
 329              	.L116:
 330 0010 000051E3 		cmp	r1, #0
 331 0014 1600000A 		beq	.L117
 332 0018 0030D1E5 		ldrb	r3, [r1]	@ zero_extendqisi2
 333 001c 000053E3 		cmp	r3, #0
 334 0020 0400000A 		beq	.L93
 335 0024 B230D1E1 		ldrh	r3, [r1, #2]
 336 0028 3E0B13E3 		tst	r3, #63488
 337 002c 0100000A 		beq	.L93
 338              	.L105:
 339 0030 0400A0E3 		mov	r0, #4
 340 0034 1EFF2FE1 		bx	lr
 341              	.L93:
 342 0038 B420D1E1 		ldrh	r2, [r1, #4]
 343 003c 3E3BA0E3 		mov	r3, #63488
 344 0040 FF3F4FE3 		movt	r3, 65535
 345 0044 030012E1 		tst	r2, r3
 346 0048 F8FFFF1A 		bne	.L105
 347 004c B620D1E1 		ldrh	r2, [r1, #6]
 348 0050 FF0C12E3 		tst	r2, #65280
 349 0054 F5FFFF1A 		bne	.L105
 350 0058 B820D1E1 		ldrh	r2, [r1, #8]
 351 005c 030012E1 		tst	r2, r3
 352 0060 F2FFFF1A 		bne	.L105
 353 0064 030052E3 		cmp	r2, #3
 354 0068 0300008A 		bhi	.L118
 355              	.L104:
 356 006c 0600A0E3 		mov	r0, #6
 357 0070 1EFF2FE1 		bx	lr
 358              	.L117:
 359              	.L91:
 360 0074 0300A0E3 		mov	r0, #3
 361 0078 1EFF2FE1 		bx	lr
 362              	.L118:
 363 007c BA00D1E1 		ldrh	r0, [r1, #10]
 364 0080 030010E1 		tst	r0, r3
 365 0084 E9FFFF1A 		bne	.L105
 366 0088 002082E0 		add	r2, r2, r0
 367 008c F70700E3 		movw	r0, #2039
 368 0090 000052E1 		cmp	r2, r0
 369 0094 F4FFFF8A 		bhi	.L104
 370 0098 BC20D1E1 		ldrh	r2, [r1, #12]
 371 009c 030012E1 		tst	r2, r3
 372 00a0 E2FFFF1A 		bne	.L105
 373 00a4 0F0052E3 		cmp	r2, #15
 374 00a8 EFFFFF9A 		bls	.L104
 375 00ac BE10D1E1 		ldrh	r1, [r1, #14]
 376 00b0 030011E1 		tst	r1, r3
 377 00b4 DDFFFF1A 		bne	.L105
 378 00b8 012082E0 		add	r2, r2, r1
 379 00bc 7E0E52E3 		cmp	r2, #2016
 380 00c0 0600A023 		movcs	r0, #6
 381 00c4 0000A033 		movcc	r0, #0
 382 00c8 1EFF2FE1 		bx	lr
 384              		.section	.text.VDC_DisplayOutputCheckPrm,"ax",%progbits
 385              		.align	2
 386              		.global	VDC_DisplayOutputCheckPrm
 387              		.syntax unified
 388              		.arm
 389              		.fpu neon
 391              	VDC_DisplayOutputCheckPrm:
 392              		@ args = 0, pretend = 0, frame = 0
 393              		@ frame_needed = 0, uses_anonymous_args = 0
 394 0000 000050E3 		cmp	r0, #0
 395 0004 0100000A 		beq	.L150
 396 0008 0100A0E3 		mov	r0, #1
 397 000c 1EFF2FE1 		bx	lr
 398              	.L150:
 399 0010 000051E3 		cmp	r1, #0
 400 0014 0600000A 		beq	.L151
 401 0018 B020D1E1 		ldrh	r2, [r1]
 402 001c 3E3BA0E3 		mov	r3, #63488
 403 0020 FF3F4FE3 		movt	r3, 65535
 404 0024 030012E1 		tst	r2, r3
 405 0028 0300000A 		beq	.L152
 406              	.L143:
 407 002c 0400A0E3 		mov	r0, #4
 408 0030 1EFF2FE1 		bx	lr
 409              	.L151:
 410              	.L120:
 411 0034 0300A0E3 		mov	r0, #3
 412 0038 1EFF2FE1 		bx	lr
 413              	.L152:
 414 003c B220D1E1 		ldrh	r2, [r1, #2]
 415 0040 030012E1 		tst	r2, r3
 416 0044 F8FFFF1A 		bne	.L143
 417 0048 F0412DE9 		push	{r4, r5, r6, r7, r8, lr}
 418 004c 006000E3 		movw	r6, #:lower16:.LANCHOR0
 419 0050 0140A0E1 		mov	r4, r1
 420 0054 045081E2 		add	r5, r1, #4
 421 0058 006040E3 		movt	r6, #:upper16:.LANCHOR0
 422 005c 247081E2 		add	r7, r1, #36
 423              	.L124:
 424 0060 043095E4 		ldr	r3, [r5], #4
 425 0064 000053E2 		subs	r0, r3, #0
 426 0068 0300000A 		beq	.L126
 427 006c 003096E5 		ldr	r3, [r6]
 428 0070 33FF2FE1 		blx	r3
 429 0074 000050E3 		cmp	r0, #0
 430 0078 0C00001A 		bne	.L153
 431              	.L126:
 432 007c 070055E1 		cmp	r5, r7
 433 0080 046086E2 		add	r6, r6, #4
 434 0084 F5FFFF1A 		bne	.L124
 435 0088 2730D4E5 		ldrb	r3, [r4, #39]	@ zero_extendqisi2
 436 008c 030053E3 		cmp	r3, #3
 437 0090 0100009A 		bls	.L154
 438              	.L133:
 439 0094 0500A0E3 		mov	r0, #5
 440 0098 F081BDE8 		pop	{r4, r5, r6, r7, r8, pc}
 441              	.L154:
 442 009c 0400000A 		beq	.L155
 443              	.L127:
 444 00a0 2C3094E5 		ldr	r3, [r4, #44]
 445 00a4 FF0413E2 		ands	r0, r3, #-16777216
 446 00a8 0400A013 		movne	r0, #4
 447 00ac F081BDE8 		pop	{r4, r5, r6, r7, r8, pc}
 448              	.L153:
 449 00b0 F081BDE8 		pop	{r4, r5, r6, r7, r8, pc}
 450              	.L155:
 451 00b4 2830D4E5 		ldrb	r3, [r4, #40]	@ zero_extendqisi2
 452 00b8 020053E3 		cmp	r3, #2
 453 00bc F4FFFF8A 		bhi	.L133
 454 00c0 000053E3 		cmp	r3, #0
 455 00c4 0100001A 		bne	.L156
 456              	.L134:
 457 00c8 0700A0E3 		mov	r0, #7
 458 00cc F081BDE8 		pop	{r4, r5, r6, r7, r8, pc}
 459              	.L156:
 460 00d0 2A20D4E5 		ldrb	r2, [r4, #42]	@ zero_extendqisi2
 461 00d4 030052E3 		cmp	r2, #3
 462 00d8 EDFFFF8A 		bhi	.L133
 463 00dc 010053E3 		cmp	r3, #1
 464 00e0 03005203 		cmpeq	r2, #3
 465 00e4 EDFFFF1A 		bne	.L127
 466 00e8 F6FFFFEA 		b	.L134
 468              		.section	.text.VDC_CallbackISRCheckPrm,"ax",%progbits
 469              		.align	2
 470              		.global	VDC_CallbackISRCheckPrm
 471              		.syntax unified
 472              		.arm
 473              		.fpu neon
 475              	VDC_CallbackISRCheckPrm:
 476              		@ args = 0, pretend = 0, frame = 0
 477              		@ frame_needed = 0, uses_anonymous_args = 0
 478              		@ link register save eliminated.
 479 0000 000050E3 		cmp	r0, #0
 480 0004 0100000A 		beq	.L172
 481 0008 0100A0E3 		mov	r0, #1
 482 000c 1EFF2FE1 		bx	lr
 483              	.L172:
 484 0010 000051E3 		cmp	r1, #0
 485 0014 0400000A 		beq	.L173
 486 0018 0000D1E5 		ldrb	r0, [r1]	@ zero_extendqisi2
 487 001c 090050E3 		cmp	r0, #9
 488 0020 0300009A 		bls	.L174
 489 0024 0500A0E3 		mov	r0, #5
 490 0028 1EFF2FE1 		bx	lr
 491              	.L173:
 492              	.L158:
 493 002c 0300A0E3 		mov	r0, #3
 494 0030 1EFF2FE1 		bx	lr
 495              	.L174:
 496 0034 043091E5 		ldr	r3, [r1, #4]
 497 0038 000053E3 		cmp	r3, #0
 498 003c 0900000A 		beq	.L163
 499 0040 090050E3 		cmp	r0, #9
 500 0044 03005013 		cmpne	r0, #3
 501 0048 0100A003 		moveq	r0, #1
 502 004c 0000A013 		movne	r0, #0
 503 0050 1EFF2F11 		bxne	lr
 504 0054 B830D1E1 		ldrh	r3, [r1, #8]
 505 0058 3E0B13E3 		tst	r3, #63488
 506 005c 0000A003 		moveq	r0, #0
 507 0060 0400A013 		movne	r0, #4
 508 0064 1EFF2FE1 		bx	lr
 509              	.L163:
 510 0068 0300A0E1 		mov	r0, r3
 511 006c 1EFF2FE1 		bx	lr
 513              		.section	.text.VDC_WriteDataControlCheckPrm,"ax",%progbits
 514              		.align	2
 515              		.global	VDC_WriteDataControlCheckPrm
 516              		.syntax unified
 517              		.arm
 518              		.fpu neon
 520              	VDC_WriteDataControlCheckPrm:
 521              		@ args = 0, pretend = 0, frame = 0
 522              		@ frame_needed = 0, uses_anonymous_args = 0
 523              		@ link register save eliminated.
 524 0000 000050E3 		cmp	r0, #0
 525 0004 0100000A 		beq	.L221
 526 0008 0100A0E3 		mov	r0, #1
 527 000c 1EFF2FE1 		bx	lr
 528              	.L221:
 529 0010 000051E3 		cmp	r1, #0
 530 0014 0100000A 		beq	.L222
 531 0018 0200A0E3 		mov	r0, #2
 532 001c 1EFF2FE1 		bx	lr
 533              	.L222:
 534 0020 000052E3 		cmp	r2, #0
 535 0024 0600000A 		beq	.L201
 536 0028 B010D2E1 		ldrh	r1, [r2]
 537 002c 3E3BA0E3 		mov	r3, #63488
 538 0030 FF3F4FE3 		movt	r3, 65535
 539 0034 030011E1 		tst	r1, r3
 540 0038 0300000A 		beq	.L223
 541              	.L211:
 542              	.L176:
 543 003c 0400A0E3 		mov	r0, #4
 544 0040 1EFF2FE1 		bx	lr
 545              	.L201:
 546 0044 0300A0E3 		mov	r0, #3
 547 0048 1EFF2FE1 		bx	lr
 548              	.L223:
 549 004c 030051E3 		cmp	r1, #3
 550 0050 0100008A 		bhi	.L224
 551              	.L204:
 552 0054 0600A0E3 		mov	r0, #6
 553 0058 1EFF2FE1 		bx	lr
 554              	.L224:
 555 005c B200D2E1 		ldrh	r0, [r2, #2]
 556 0060 030010E1 		tst	r0, r3
 557 0064 F4FFFF1A 		bne	.L211
 558 0068 001081E0 		add	r1, r1, r0
 559 006c F70700E3 		movw	r0, #2039
 560 0070 000051E1 		cmp	r1, r0
 561 0074 F6FFFF8A 		bhi	.L204
 562 0078 B410D2E1 		ldrh	r1, [r2, #4]
 563 007c 030011E1 		tst	r1, r3
 564 0080 EDFFFF1A 		bne	.L211
 565 0084 0F0051E3 		cmp	r1, #15
 566 0088 F1FFFF9A 		bls	.L204
 567 008c B630D2E1 		ldrh	r3, [r2, #6]
 568 0090 0F0A13E3 		tst	r3, #61440
 569 0094 E8FFFF1A 		bne	.L211
 570 0098 031081E0 		add	r1, r1, r3
 571 009c 7E0E51E3 		cmp	r1, #2016
 572 00a0 EBFFFF2A 		bcs	.L204
 573 00a4 BA10D2E1 		ldrh	r1, [r2, #10]
 574 00a8 3E3BA0E3 		mov	r3, #63488
 575 00ac FF3F4FE3 		movt	r3, 65535
 576 00b0 030011E1 		tst	r1, r3
 577 00b4 E0FFFF1A 		bne	.L211
 578 00b8 030011E3 		tst	r1, #3
 579 00bc E4FFFF1A 		bne	.L204
 580 00c0 BC10D2E1 		ldrh	r1, [r2, #12]
 581 00c4 030011E1 		tst	r1, r3
 582 00c8 DBFFFF1A 		bne	.L211
 583 00cc 030011E3 		tst	r1, #3
 584 00d0 DFFFFF1A 		bne	.L204
 585 00d4 0F30D2E5 		ldrb	r3, [r2, #15]	@ zero_extendqisi2
 586 00d8 040053E3 		cmp	r3, #4
 587 00dc 0100009A 		bls	.L225
 588              	.L200:
 589 00e0 0500A0E3 		mov	r0, #5
 590 00e4 1EFF2FE1 		bx	lr
 591              	.L225:
 592 00e8 1030D2E5 		ldrb	r3, [r2, #16]	@ zero_extendqisi2
 593 00ec 070053E3 		cmp	r3, #7
 594 00f0 FAFFFF8A 		bhi	.L200
 595 00f4 1130D2E5 		ldrb	r3, [r2, #17]	@ zero_extendqisi2
 596 00f8 030053E3 		cmp	r3, #3
 597 00fc F7FFFF8A 		bhi	.L200
 598 0100 1430D2E5 		ldrb	r3, [r2, #20]	@ zero_extendqisi2
 599 0104 030053E3 		cmp	r3, #3
 600 0108 F4FFFF8A 		bhi	.L200
 601 010c 183092E5 		ldr	r3, [r2, #24]
 602 0110 000053E3 		cmp	r3, #0
 603 0114 CAFFFF0A 		beq	.L201
 604 0118 1C3092E5 		ldr	r3, [r2, #28]
 605 011c 7F1CC3E3 		bic	r1, r3, #32512
 606 0120 FF10C1E3 		bic	r1, r1, #255
 607 0124 000051E3 		cmp	r1, #0
 608 0128 C3FFFF1A 		bne	.L211
 609 012c 1210D2E5 		ldrb	r1, [r2, #18]	@ zero_extendqisi2
 610 0130 000051E3 		cmp	r1, #0
 611 0134 1300001A 		bne	.L179
 612 0138 1F0013E3 		tst	r3, #31
 613 013c C4FFFF1A 		bne	.L204
 614              	.L180:
 615 0140 200092E5 		ldr	r0, [r2, #32]
 616 0144 FF3FC0E3 		bic	r3, r0, #1020
 617 0148 0330C3E3 		bic	r3, r3, #3
 618 014c 000053E3 		cmp	r3, #0
 619 0150 B9FFFF1A 		bne	.L211
 620 0154 000050E3 		cmp	r0, #0
 621 0158 1EFF2F01 		bxeq	lr
 622 015c 243092E5 		ldr	r3, [r2, #36]
 623 0160 A32BA0E1 		lsr	r2, r3, #23
 624 0164 822BA0E1 		lsl	r2, r2, #23
 625 0168 000052E3 		cmp	r2, #0
 626 016c B2FFFF1A 		bne	.L211
 627 0170 000051E3 		cmp	r1, #0
 628 0174 0600001A 		bne	.L181
 629 0178 1F0013E3 		tst	r3, #31
 630 017c 0000A003 		moveq	r0, #0
 631 0180 0600A013 		movne	r0, #6
 632 0184 1EFF2FE1 		bx	lr
 633              	.L179:
 634 0188 7F0013E3 		tst	r3, #127
 635 018c B0FFFF1A 		bne	.L204
 636 0190 EAFFFFEA 		b	.L180
 637              	.L181:
 638 0194 7F0013E3 		tst	r3, #127
 639 0198 0000A003 		moveq	r0, #0
 640 019c 0600A013 		movne	r0, #6
 641 01a0 1EFF2FE1 		bx	lr
 643              		.section	.text.VDC_ChangeWriteProcessCheckPrm,"ax",%progbits
 644              		.align	2
 645              		.global	VDC_ChangeWriteProcessCheckPrm
 646              		.syntax unified
 647              		.arm
 648              		.fpu neon
 650              	VDC_ChangeWriteProcessCheckPrm:
 651              		@ args = 0, pretend = 0, frame = 0
 652              		@ frame_needed = 0, uses_anonymous_args = 0
 653              		@ link register save eliminated.
 654 0000 000050E3 		cmp	r0, #0
 655 0004 0100000A 		beq	.L257
 656 0008 0100A0E3 		mov	r0, #1
 657 000c 1EFF2FE1 		bx	lr
 658              	.L257:
 659 0010 000051E3 		cmp	r1, #0
 660 0014 0100000A 		beq	.L258
 661 0018 0200A0E3 		mov	r0, #2
 662 001c 1EFF2FE1 		bx	lr
 663              	.L258:
 664 0020 000052E3 		cmp	r2, #0
 665 0024 0600000A 		beq	.L233
 666 0028 B010D2E1 		ldrh	r1, [r2]
 667 002c 3E3BA0E3 		mov	r3, #63488
 668 0030 FF3F4FE3 		movt	r3, 65535
 669 0034 030011E1 		tst	r1, r3
 670 0038 0300000A 		beq	.L259
 671              	.L247:
 672              	.L227:
 673 003c 0400A0E3 		mov	r0, #4
 674 0040 1EFF2FE1 		bx	lr
 675              	.L233:
 676 0044 0300A0E3 		mov	r0, #3
 677 0048 1EFF2FE1 		bx	lr
 678              	.L259:
 679 004c 030051E3 		cmp	r1, #3
 680 0050 0100008A 		bhi	.L260
 681              	.L244:
 682 0054 0600A0E3 		mov	r0, #6
 683 0058 1EFF2FE1 		bx	lr
 684              	.L260:
 685 005c B200D2E1 		ldrh	r0, [r2, #2]
 686 0060 030010E1 		tst	r0, r3
 687 0064 F4FFFF1A 		bne	.L247
 688 0068 001081E0 		add	r1, r1, r0
 689 006c F70700E3 		movw	r0, #2039
 690 0070 000051E1 		cmp	r1, r0
 691 0074 F6FFFF8A 		bhi	.L244
 692 0078 B410D2E1 		ldrh	r1, [r2, #4]
 693 007c 030011E1 		tst	r1, r3
 694 0080 EDFFFF1A 		bne	.L247
 695 0084 0F0051E3 		cmp	r1, #15
 696 0088 F1FFFF9A 		bls	.L244
 697 008c B630D2E1 		ldrh	r3, [r2, #6]
 698 0090 0F0A13E3 		tst	r3, #61440
 699 0094 E8FFFF1A 		bne	.L247
 700 0098 031081E0 		add	r1, r1, r3
 701 009c 7E0E51E3 		cmp	r1, #2016
 702 00a0 EBFFFF2A 		bcs	.L244
 703 00a4 BA10D2E1 		ldrh	r1, [r2, #10]
 704 00a8 3E3BA0E3 		mov	r3, #63488
 705 00ac FF3F4FE3 		movt	r3, 65535
 706 00b0 030011E1 		tst	r1, r3
 707 00b4 E0FFFF1A 		bne	.L247
 708 00b8 030011E3 		tst	r1, #3
 709 00bc E4FFFF1A 		bne	.L244
 710 00c0 BC10D2E1 		ldrh	r1, [r2, #12]
 711 00c4 030011E1 		tst	r1, r3
 712 00c8 DBFFFF1A 		bne	.L247
 713 00cc 030011E3 		tst	r1, #3
 714 00d0 DFFFFF1A 		bne	.L244
 715 00d4 0F30D2E5 		ldrb	r3, [r2, #15]	@ zero_extendqisi2
 716 00d8 050053E3 		cmp	r3, #5
 717 00dc 0000A033 		movcc	r0, #0
 718 00e0 0500A023 		movcs	r0, #5
 719 00e4 1EFF2FE1 		bx	lr
 721              		.section	.text.VDC_ReadDataControlCheckPrm,"ax",%progbits
 722              		.align	2
 723              		.global	VDC_ReadDataControlCheckPrm
 724              		.syntax unified
 725              		.arm
 726              		.fpu neon
 728              	VDC_ReadDataControlCheckPrm:
 729              		@ args = 0, pretend = 0, frame = 0
 730              		@ frame_needed = 0, uses_anonymous_args = 0
 731 0000 000050E3 		cmp	r0, #0
 732 0004 0100000A 		beq	.L321
 733 0008 0100A0E3 		mov	r0, #1
 734 000c 1EFF2FE1 		bx	lr
 735              	.L321:
 736 0010 011041E2 		sub	r1, r1, #1
 737 0014 7110EFE6 		uxtb	r1, r1
 738 0018 020051E3 		cmp	r1, #2
 739 001c 0600008A 		bhi	.L299
 740 0020 000053E3 		cmp	r3, #0
 741 0024 1700000A 		beq	.L322
 742 0028 0110D3E5 		ldrb	r1, [r3, #1]	@ zero_extendqisi2
 743 002c 030051E3 		cmp	r1, #3
 744 0030 0300009A 		bls	.L323
 745 0034 0500A0E3 		mov	r0, #5
 746 0038 1EFF2FE1 		bx	lr
 747              	.L299:
 748 003c 0200A0E3 		mov	r0, #2
 749 0040 1EFF2FE1 		bx	lr
 750              	.L323:
 751 0044 000052E3 		cmp	r2, #0
 752 0048 70402DE9 		push	{r4, r5, r6, lr}
 753 004c 0340A0E1 		mov	r4, r3
 754 0050 0250A0E1 		mov	r5, r2
 755 0054 1100000A 		beq	.L265
 756 0058 020052E3 		cmp	r2, #2
 757 005c 0B00009A 		bls	.L324
 758              	.L264:
 759 0060 043094E5 		ldr	r3, [r4, #4]
 760 0064 000053E3 		cmp	r3, #0
 761 0068 3400000A 		beq	.L270
 762              	.L272:
 763 006c 082094E5 		ldr	r2, [r4, #8]
 764 0070 7F3CC2E3 		bic	r3, r2, #32512
 765 0074 FF30C3E3 		bic	r3, r3, #255
 766 0078 000053E3 		cmp	r3, #0
 767 007c 1200000A 		beq	.L325
 768              	.L297:
 769 0080 0400A0E3 		mov	r0, #4
 770 0084 7080BDE8 		pop	{r4, r5, r6, pc}
 771              	.L322:
 772 0088 0300A0E3 		mov	r0, #3
 773 008c 1EFF2FE1 		bx	lr
 774              	.L324:
 775 0090 010051E3 		cmp	r1, #1
 776 0094 2E00000A 		beq	.L268
 777              	.L269:
 778 0098 0700A0E3 		mov	r0, #7
 779 009c 7080BDE8 		pop	{r4, r5, r6, pc}
 780              	.L265:
 781 00a0 FEFFFFEB 		bl	VDC_ShrdPrmGetFrBuffBtm
 782 00a4 0060A0E1 		mov	r6, r0
 783 00a8 0500A0E1 		mov	r0, r5
 784 00ac FEFFFFEB 		bl	VDC_ShrdPrmGetLayerResource
 785 00b0 000056E3 		cmp	r6, #0
 786 00b4 00005013 		cmpne	r0, #0
 787 00b8 E8FFFF0A 		beq	.L264
 788 00bc 0130D4E5 		ldrb	r3, [r4, #1]	@ zero_extendqisi2
 789 00c0 000053E3 		cmp	r3, #0
 790 00c4 F3FFFF0A 		beq	.L269
 791 00c8 E4FFFFEA 		b	.L264
 792              	.L325:
 793 00cc 0330D4E5 		ldrb	r3, [r4, #3]	@ zero_extendqisi2
 794 00d0 000053E3 		cmp	r3, #0
 795 00d4 0300001A 		bne	.L273
 796 00d8 1F0012E3 		tst	r2, #31
 797 00dc 0300000A 		beq	.L274
 798              	.L296:
 799 00e0 0600A0E3 		mov	r0, #6
 800 00e4 7080BDE8 		pop	{r4, r5, r6, pc}
 801              	.L273:
 802 00e8 7F0012E3 		tst	r2, #127
 803 00ec FBFFFF1A 		bne	.L296
 804              	.L274:
 805 00f0 0C3094E5 		ldr	r3, [r4, #12]
 806 00f4 000053E3 		cmp	r3, #0
 807 00f8 0B00000A 		beq	.L275
 808 00fc B010D3E1 		ldrh	r1, [r3]
 809 0100 3E2BA0E3 		mov	r2, #63488
 810 0104 FF2F4FE3 		movt	r2, 65535
 811 0108 020011E1 		tst	r1, r2
 812 010c DBFFFF1A 		bne	.L297
 813 0110 000051E3 		cmp	r1, #0
 814 0114 F1FFFF0A 		beq	.L296
 815 0118 B230D3E1 		ldrh	r3, [r3, #2]
 816 011c 020013E1 		tst	r3, r2
 817 0120 D6FFFF1A 		bne	.L297
 818 0124 020053E3 		cmp	r3, #2
 819 0128 ECFFFF9A 		bls	.L296
 820              	.L275:
 821 012c 1130D4E5 		ldrb	r3, [r4, #17]	@ zero_extendqisi2
 822 0130 0B0053E3 		cmp	r3, #11
 823 0134 0A00009A 		bls	.L326
 824              	.L290:
 825 0138 0500A0E3 		mov	r0, #5
 826 013c 7080BDE8 		pop	{r4, r5, r6, pc}
 827              	.L270:
 828 0140 0130D4E5 		ldrb	r3, [r4, #1]	@ zero_extendqisi2
 829 0144 030053E3 		cmp	r3, #3
 830 0148 C7FFFF0A 		beq	.L272
 831              	.L301:
 832              	.L262:
 833 014c 0300A0E3 		mov	r0, #3
 834 0150 7080BDE8 		pop	{r4, r5, r6, pc}
 835              	.L268:
 836 0154 043093E5 		ldr	r3, [r3, #4]
 837 0158 000053E3 		cmp	r3, #0
 838 015c C2FFFF1A 		bne	.L272
 839 0160 F9FFFFEA 		b	.L301
 840              	.L326:
 841 0164 082043E2 		sub	r2, r3, #8
 842 0168 010052E3 		cmp	r2, #1
 843 016c 0020A083 		movhi	r2, #0
 844 0170 0120A093 		movls	r2, #1
 845 0174 000055E3 		cmp	r5, #0
 846 0178 0020A003 		moveq	r2, #0
 847 017c 000052E3 		cmp	r2, #0
 848 0180 C4FFFF1A 		bne	.L269
 849 0184 080053E3 		cmp	r3, #8
 850 0188 1D00000A 		beq	.L327
 851              	.L276:
 852 018c 1330D4E5 		ldrb	r3, [r4, #19]	@ zero_extendqisi2
 853 0190 070053E3 		cmp	r3, #7
 854 0194 E7FFFF8A 		bhi	.L290
 855 0198 B431D4E1 		ldrh	r3, [r4, #20]
 856 019c 3E2BA0E3 		mov	r2, #63488
 857 01a0 FF2F4FE3 		movt	r2, 65535
 858 01a4 020013E1 		tst	r3, r2
 859 01a8 B4FFFF1A 		bne	.L297
 860 01ac 030053E3 		cmp	r3, #3
 861 01b0 CAFFFF9A 		bls	.L296
 862 01b4 B611D4E1 		ldrh	r1, [r4, #22]
 863 01b8 020011E1 		tst	r1, r2
 864 01bc AFFFFF1A 		bne	.L297
 865 01c0 013083E0 		add	r3, r3, r1
 866 01c4 F71700E3 		movw	r1, #2039
 867 01c8 010053E1 		cmp	r3, r1
 868 01cc C3FFFF8A 		bhi	.L296
 869 01d0 B831D4E1 		ldrh	r3, [r4, #24]
 870 01d4 020013E1 		tst	r3, r2
 871 01d8 A8FFFF1A 		bne	.L297
 872 01dc 0F0053E3 		cmp	r3, #15
 873 01e0 BEFFFF9A 		bls	.L296
 874 01e4 BA11D4E1 		ldrh	r1, [r4, #26]
 875 01e8 020011E1 		tst	r1, r2
 876 01ec A3FFFF1A 		bne	.L297
 877 01f0 013083E0 		add	r3, r3, r1
 878 01f4 7E0E53E3 		cmp	r3, #2016
 879 01f8 0600A023 		movcs	r0, #6
 880 01fc 0000A033 		movcc	r0, #0
 881 0200 7080BDE8 		pop	{r4, r5, r6, pc}
 882              	.L327:
 883 0204 1230D4E5 		ldrb	r3, [r4, #18]	@ zero_extendqisi2
 884 0208 070053E3 		cmp	r3, #7
 885 020c C9FFFF8A 		bhi	.L290
 886 0210 DDFFFFEA 		b	.L276
 888              		.section	.text.VDC_ChangeReadProcessCheckPrm,"ax",%progbits
 889              		.align	2
 890              		.global	VDC_ChangeReadProcessCheckPrm
 891              		.syntax unified
 892              		.arm
 893              		.fpu neon
 895              	VDC_ChangeReadProcessCheckPrm:
 896              		@ args = 0, pretend = 0, frame = 0
 897              		@ frame_needed = 0, uses_anonymous_args = 0
 898              		@ link register save eliminated.
 899 0000 000050E3 		cmp	r0, #0
 900 0004 0100000A 		beq	.L362
 901 0008 0100A0E3 		mov	r0, #1
 902 000c 1EFF2FE1 		bx	lr
 903              	.L362:
 904 0010 011041E2 		sub	r1, r1, #1
 905 0014 7110EFE6 		uxtb	r1, r1
 906 0018 020051E3 		cmp	r1, #2
 907 001c 0B00008A 		bhi	.L349
 908 0020 000052E3 		cmp	r2, #0
 909 0024 0F00000A 		beq	.L363
 910 0028 043092E5 		ldr	r3, [r2, #4]
 911 002c 000053E3 		cmp	r3, #0
 912 0030 1300000A 		beq	.L331
 913 0034 B000D3E1 		ldrh	r0, [r3]
 914 0038 3E1BA0E3 		mov	r1, #63488
 915 003c FF1F4FE3 		movt	r1, 65535
 916 0040 010010E1 		tst	r0, r1
 917 0044 0300000A 		beq	.L364
 918              	.L345:
 919 0048 0400A0E3 		mov	r0, #4
 920 004c 1EFF2FE1 		bx	lr
 921              	.L349:
 922 0050 0200A0E3 		mov	r0, #2
 923 0054 1EFF2FE1 		bx	lr
 924              	.L364:
 925 0058 000050E3 		cmp	r0, #0
 926 005c 0300001A 		bne	.L365
 927              	.L346:
 928 0060 0600A0E3 		mov	r0, #6
 929 0064 1EFF2FE1 		bx	lr
 930              	.L363:
 931              	.L329:
 932 0068 0300A0E3 		mov	r0, #3
 933 006c 1EFF2FE1 		bx	lr
 934              	.L365:
 935 0070 B230D3E1 		ldrh	r3, [r3, #2]
 936 0074 010013E1 		tst	r3, r1
 937 0078 F2FFFF1A 		bne	.L345
 938 007c 020053E3 		cmp	r3, #2
 939 0080 F6FFFF9A 		bls	.L346
 940              	.L331:
 941 0084 083092E5 		ldr	r3, [r2, #8]
 942 0088 000053E3 		cmp	r3, #0
 943 008c 1800000A 		beq	.L332
 944 0090 B000D3E1 		ldrh	r0, [r3]
 945 0094 3E1BA0E3 		mov	r1, #63488
 946 0098 FF1F4FE3 		movt	r1, 65535
 947 009c 010010E1 		tst	r0, r1
 948 00a0 E8FFFF1A 		bne	.L345
 949 00a4 030050E3 		cmp	r0, #3
 950 00a8 ECFFFF9A 		bls	.L346
 951 00ac B2C0D3E1 		ldrh	ip, [r3, #2]
 952 00b0 01001CE1 		tst	ip, r1
 953 00b4 E3FFFF1A 		bne	.L345
 954 00b8 0C0080E0 		add	r0, r0, ip
 955 00bc F7C700E3 		movw	ip, #2039
 956 00c0 0C0050E1 		cmp	r0, ip
 957 00c4 E5FFFF8A 		bhi	.L346
 958 00c8 B400D3E1 		ldrh	r0, [r3, #4]
 959 00cc 010010E1 		tst	r0, r1
 960 00d0 DCFFFF1A 		bne	.L345
 961 00d4 0F0050E3 		cmp	r0, #15
 962 00d8 E0FFFF9A 		bls	.L346
 963 00dc B630D3E1 		ldrh	r3, [r3, #6]
 964 00e0 010013E1 		tst	r3, r1
 965 00e4 D7FFFF1A 		bne	.L345
 966 00e8 030080E0 		add	r0, r0, r3
 967 00ec 7E0E50E3 		cmp	r0, #2016
 968 00f0 DAFFFF2A 		bcs	.L346
 969              	.L332:
 970 00f4 0C0092E5 		ldr	r0, [r2, #12]
 971 00f8 000050E3 		cmp	r0, #0
 972 00fc 1EFF2F01 		bxeq	lr
 973 0100 0030D0E5 		ldrb	r3, [r0]	@ zero_extendqisi2
 974 0104 013083E2 		add	r3, r3, #1
 975 0108 7330EFE6 		uxtb	r3, r3
 976 010c 050053E3 		cmp	r3, #5
 977 0110 0000A033 		movcc	r0, #0
 978 0114 0500A023 		movcs	r0, #5
 979 0118 1EFF2FE1 		bx	lr
 981              		.section	.text.VDC_StartProcessCheckPrm,"ax",%progbits
 982              		.align	2
 983              		.global	VDC_StartProcessCheckPrm
 984              		.syntax unified
 985              		.arm
 986              		.fpu neon
 988              	VDC_StartProcessCheckPrm:
 989              		@ args = 0, pretend = 0, frame = 0
 990              		@ frame_needed = 0, uses_anonymous_args = 0
 991              		@ link register save eliminated.
 992 0000 000050E3 		cmp	r0, #0
 993 0004 0100000A 		beq	.L384
 994 0008 0100A0E3 		mov	r0, #1
 995 000c 1EFF2FE1 		bx	lr
 996              	.L384:
 997 0010 013081E2 		add	r3, r1, #1
 998 0014 7330EFE6 		uxtb	r3, r3
 999 0018 040053E3 		cmp	r3, #4
 1000 001c 0D00008A 		bhi	.L377
 1001 0020 000052E3 		cmp	r2, #0
 1002 0024 1B00000A 		beq	.L385
 1003 0028 000092E5 		ldr	r0, [r2]
 1004 002c 000050E3 		cmp	r0, #0
 1005 0030 1EFF2F01 		bxeq	lr
 1006 0034 0030D0E5 		ldrb	r3, [r0]	@ zero_extendqisi2
 1007 0038 010071E3 		cmn	r1, #1
 1008 003c 013083E2 		add	r3, r3, #1
 1009 0040 7330EFE6 		uxtb	r3, r3
 1010 0044 0500000A 		beq	.L386
 1011 0048 050053E3 		cmp	r3, #5
 1012 004c 0000A033 		movcc	r0, #0
 1013 0050 0500A023 		movcs	r0, #5
 1014 0054 1EFF2FE1 		bx	lr
 1015              	.L377:
 1016 0058 0200A0E3 		mov	r0, #2
 1017 005c 1EFF2FE1 		bx	lr
 1018              	.L386:
 1019 0060 040053E3 		cmp	r3, #4
 1020 0064 0D00008A 		bhi	.L374
 1021 0068 0130D0E5 		ldrb	r3, [r0, #1]	@ zero_extendqisi2
 1022 006c 013083E2 		add	r3, r3, #1
 1023 0070 7330EFE6 		uxtb	r3, r3
 1024 0074 040053E3 		cmp	r3, #4
 1025 0078 0800008A 		bhi	.L374
 1026 007c 0230D0E5 		ldrb	r3, [r0, #2]	@ zero_extendqisi2
 1027 0080 013083E2 		add	r3, r3, #1
 1028 0084 7330EFE6 		uxtb	r3, r3
 1029 0088 050053E3 		cmp	r3, #5
 1030 008c 0000A033 		movcc	r0, #0
 1031 0090 0500A023 		movcs	r0, #5
 1032 0094 1EFF2FE1 		bx	lr
 1033              	.L385:
 1034              	.L367:
 1035 0098 0300A0E3 		mov	r0, #3
 1036 009c 1EFF2FE1 		bx	lr
 1037              	.L374:
 1038 00a0 0500A0E3 		mov	r0, #5
 1039 00a4 1EFF2FE1 		bx	lr
 1041              		.section	.text.VDC_StopProcessCheckPrm,"ax",%progbits
 1042              		.align	2
 1043              		.global	VDC_StopProcessCheckPrm
 1044              		.syntax unified
 1045              		.arm
 1046              		.fpu neon
 1048              	VDC_StopProcessCheckPrm:
 1049              		@ args = 0, pretend = 0, frame = 0
 1050              		@ frame_needed = 0, uses_anonymous_args = 0
 1051              		@ link register save eliminated.
 1052 0000 000050E3 		cmp	r0, #0
 1053 0004 0100000A 		beq	.L388
 1054 0008 0100A0E3 		mov	r0, #1
 1055 000c 1EFF2FE1 		bx	lr
 1056              	.L388:
 1057              	.L389:
 1058 0010 011081E2 		add	r1, r1, #1
 1059 0014 7110EFE6 		uxtb	r1, r1
 1060 0018 050051E3 		cmp	r1, #5
 1061 001c 0000A033 		movcc	r0, #0
 1062 0020 0200A023 		movcs	r0, #2
 1063 0024 1EFF2FE1 		bx	lr
 1065              		.section	.text.VDC_ReleaseDataControlCheckPrm,"ax",%progbits
 1066              		.align	2
 1067              		.global	VDC_ReleaseDataControlCheckPrm
 1068              		.syntax unified
 1069              		.arm
 1070              		.fpu neon
 1072              	VDC_ReleaseDataControlCheckPrm:
 1073              		@ args = 0, pretend = 0, frame = 0
 1074              		@ frame_needed = 0, uses_anonymous_args = 0
 1075              		@ link register save eliminated.
 1076 0000 000050E3 		cmp	r0, #0
 1077 0004 0100000A 		beq	.L393
 1078 0008 0100A0E3 		mov	r0, #1
 1079 000c 1EFF2FE1 		bx	lr
 1080              	.L393:
 1081              	.L394:
 1082 0010 011081E2 		add	r1, r1, #1
 1083 0014 7110EFE6 		uxtb	r1, r1
 1084 0018 050051E3 		cmp	r1, #5
 1085 001c 0000A033 		movcc	r0, #0
 1086 0020 0200A023 		movcs	r0, #2
 1087 0024 1EFF2FE1 		bx	lr
 1089              		.section	.text.VDC_VideoNoiseReductCheckPrm,"ax",%progbits
 1090              		.align	2
 1091              		.global	VDC_VideoNoiseReductCheckPrm
 1092              		.syntax unified
 1093              		.arm
 1094              		.fpu neon
 1096              	VDC_VideoNoiseReductCheckPrm:
 1097              		@ args = 0, pretend = 0, frame = 0
 1098              		@ frame_needed = 0, uses_anonymous_args = 0
 1099              		@ link register save eliminated.
 1100 0000 000050E3 		cmp	r0, #0
 1101 0004 0100000A 		beq	.L417
 1102 0008 0100A0E3 		mov	r0, #1
 1103 000c 1EFF2FE1 		bx	lr
 1104              	.L417:
 1105 0010 000051E3 		cmp	r1, #0
 1106 0014 0900000A 		beq	.L418
 1107 0018 0030D1E5 		ldrb	r3, [r1]	@ zero_extendqisi2
 1108 001c 030053E3 		cmp	r3, #3
 1109 0020 0100009A 		bls	.L419
 1110              	.L408:
 1111 0024 0500A0E3 		mov	r0, #5
 1112 0028 1EFF2FE1 		bx	lr
 1113              	.L419:
 1114 002c 043091E5 		ldr	r3, [r1, #4]
 1115 0030 7F30D3E3 		bics	r3, r3, #127
 1116 0034 0300000A 		beq	.L420
 1117              	.L409:
 1118 0038 0400A0E3 		mov	r0, #4
 1119 003c 1EFF2FE1 		bx	lr
 1120              	.L418:
 1121              	.L398:
 1122 0040 0100A0E1 		mov	r0, r1
 1123 0044 1EFF2FE1 		bx	lr
 1124              	.L420:
 1125 0048 0830D1E5 		ldrb	r3, [r1, #8]	@ zero_extendqisi2
 1126 004c 030053E3 		cmp	r3, #3
 1127 0050 F3FFFF8A 		bhi	.L408
 1128 0054 0C30D1E5 		ldrb	r3, [r1, #12]	@ zero_extendqisi2
 1129 0058 030053E3 		cmp	r3, #3
 1130 005c F0FFFF8A 		bhi	.L408
 1131 0060 103091E5 		ldr	r3, [r1, #16]
 1132 0064 7F30D3E3 		bics	r3, r3, #127
 1133 0068 F2FFFF1A 		bne	.L409
 1134 006c 1430D1E5 		ldrb	r3, [r1, #20]	@ zero_extendqisi2
 1135 0070 030053E3 		cmp	r3, #3
 1136 0074 EAFFFF8A 		bhi	.L408
 1137 0078 1830D1E5 		ldrb	r3, [r1, #24]	@ zero_extendqisi2
 1138 007c 030053E3 		cmp	r3, #3
 1139 0080 E7FFFF8A 		bhi	.L408
 1140 0084 1C3091E5 		ldr	r3, [r1, #28]
 1141 0088 7F30D3E3 		bics	r3, r3, #127
 1142 008c E9FFFF1A 		bne	.L409
 1143 0090 2030D1E5 		ldrb	r3, [r1, #32]	@ zero_extendqisi2
 1144 0094 040053E3 		cmp	r3, #4
 1145 0098 0000A033 		movcc	r0, #0
 1146 009c 0500A023 		movcs	r0, #5
 1147 00a0 1EFF2FE1 		bx	lr
 1149              		.section	.text.VDC_ImageColorMatrixCheckPrm,"ax",%progbits
 1150              		.align	2
 1151              		.global	VDC_ImageColorMatrixCheckPrm
 1152              		.syntax unified
 1153              		.arm
 1154              		.fpu neon
 1156              	VDC_ImageColorMatrixCheckPrm:
 1157              		@ args = 0, pretend = 0, frame = 0
 1158              		@ frame_needed = 0, uses_anonymous_args = 0
 1159              		@ link register save eliminated.
 1160 0000 000050E3 		cmp	r0, #0
 1161 0004 0100000A 		beq	.L451
 1162 0008 0100A0E3 		mov	r0, #1
 1163 000c 1EFF2FE1 		bx	lr
 1164              	.L451:
 1165 0010 000051E3 		cmp	r1, #0
 1166 0014 0400000A 		beq	.L452
 1167 0018 0030D1E5 		ldrb	r3, [r1]	@ zero_extendqisi2
 1168 001c 010053E3 		cmp	r3, #1
 1169 0020 0300009A 		bls	.L453
 1170              	.L428:
 1171 0024 0500A0E3 		mov	r0, #5
 1172 0028 1EFF2FE1 		bx	lr
 1173              	.L452:
 1174              	.L422:
 1175 002c 0300A0E3 		mov	r0, #3
 1176 0030 1EFF2FE1 		bx	lr
 1177              	.L453:
 1178 0034 0120D1E5 		ldrb	r2, [r1, #1]	@ zero_extendqisi2
 1179 0038 030052E3 		cmp	r2, #3
 1180 003c F8FFFF8A 		bhi	.L428
 1181 0040 000053E3 		cmp	r3, #0
 1182 0044 0400000A 		beq	.L424
 1183 0048 FD2002E2 		and	r2, r2, #253
 1184 004c 010052E3 		cmp	r2, #1
 1185 0050 0100001A 		bne	.L424
 1186 0054 0700A0E3 		mov	r0, #7
 1187 0058 1EFF2FE1 		bx	lr
 1188              	.L424:
 1189 005c B230D1E1 		ldrh	r3, [r1, #2]
 1190 0060 FF0C13E3 		tst	r3, #65280
 1191 0064 2600001A 		bne	.L440
 1192 0068 B430D1E1 		ldrh	r3, [r1, #4]
 1193 006c FF0C13E3 		tst	r3, #65280
 1194 0070 2300001A 		bne	.L440
 1195 0074 B630D1E1 		ldrh	r3, [r1, #6]
 1196 0078 FF0C13E3 		tst	r3, #65280
 1197 007c 2000001A 		bne	.L440
 1198 0080 B820D1E1 		ldrh	r2, [r1, #8]
 1199 0084 3E3BA0E3 		mov	r3, #63488
 1200 0088 FF3F4FE3 		movt	r3, 65535
 1201 008c 030012E1 		tst	r2, r3
 1202 0090 1B00001A 		bne	.L440
 1203 0094 BA20D1E1 		ldrh	r2, [r1, #10]
 1204 0098 030012E1 		tst	r2, r3
 1205 009c 1800001A 		bne	.L440
 1206 00a0 BC20D1E1 		ldrh	r2, [r1, #12]
 1207 00a4 030012E1 		tst	r2, r3
 1208 00a8 1500001A 		bne	.L440
 1209 00ac BE20D1E1 		ldrh	r2, [r1, #14]
 1210 00b0 030012E1 		tst	r2, r3
 1211 00b4 1200001A 		bne	.L440
 1212 00b8 B021D1E1 		ldrh	r2, [r1, #16]
 1213 00bc 030012E1 		tst	r2, r3
 1214 00c0 0F00001A 		bne	.L440
 1215 00c4 B221D1E1 		ldrh	r2, [r1, #18]
 1216 00c8 030012E1 		tst	r2, r3
 1217 00cc 0C00001A 		bne	.L440
 1218 00d0 B421D1E1 		ldrh	r2, [r1, #20]
 1219 00d4 030012E1 		tst	r2, r3
 1220 00d8 0900001A 		bne	.L440
 1221 00dc B621D1E1 		ldrh	r2, [r1, #22]
 1222 00e0 3E3BA0E3 		mov	r3, #63488
 1223 00e4 FF3F4FE3 		movt	r3, 65535
 1224 00e8 030012E1 		tst	r2, r3
 1225 00ec 0400001A 		bne	.L440
 1226 00f0 B821D1E1 		ldrh	r2, [r1, #24]
 1227 00f4 030012E1 		tst	r2, r3
 1228 00f8 0000A003 		moveq	r0, #0
 1229 00fc 0400A013 		movne	r0, #4
 1230 0100 1EFF2FE1 		bx	lr
 1231              	.L440:
 1232 0104 0400A0E3 		mov	r0, #4
 1233 0108 1EFF2FE1 		bx	lr
 1235              		.section	.text.VDC_ImageEnhancementCheckPrm,"ax",%progbits
 1236              		.align	2
 1237              		.global	VDC_ImageEnhancementCheckPrm
 1238              		.syntax unified
 1239              		.arm
 1240              		.fpu neon
 1242              	VDC_ImageEnhancementCheckPrm:
 1243              		@ args = 0, pretend = 0, frame = 0
 1244              		@ frame_needed = 0, uses_anonymous_args = 0
 1245              		@ link register save eliminated.
 1246 0000 000050E3 		cmp	r0, #0
 1247 0004 0100000A 		beq	.L479
 1248 0008 0100A0E3 		mov	r0, #1
 1249 000c 1EFF2FE1 		bx	lr
 1250              	.L479:
 1251 0010 000051E3 		cmp	r1, #0
 1252 0014 0100000A 		beq	.L480
 1253              	.L455:
 1254 0018 0500A0E3 		mov	r0, #5
 1255 001c 1EFF2FE1 		bx	lr
 1256              	.L480:
 1257 0020 000052E3 		cmp	r2, #0
 1258 0024 0A00000A 		beq	.L457
 1259 0028 0510D2E5 		ldrb	r1, [r2, #5]	@ zero_extendqisi2
 1260 002c 800011E3 		tst	r1, #128
 1261 0030 0100000A 		beq	.L481
 1262              	.L467:
 1263 0034 0400A0E3 		mov	r0, #4
 1264 0038 1EFF2FE1 		bx	lr
 1265              	.L481:
 1266 003c 0A10D2E5 		ldrb	r1, [r2, #10]	@ zero_extendqisi2
 1267 0040 800011E3 		tst	r1, #128
 1268 0044 FAFFFF1A 		bne	.L467
 1269 0048 0F20D2E5 		ldrb	r2, [r2, #15]	@ zero_extendqisi2
 1270 004c 800012E3 		tst	r2, #128
 1271 0050 F7FFFF1A 		bne	.L467
 1272              	.L457:
 1273 0054 000053E3 		cmp	r3, #0
 1274 0058 1000000A 		beq	.L463
 1275 005c B010D3E1 		ldrh	r1, [r3]
 1276 0060 3E2BA0E3 		mov	r2, #63488
 1277 0064 FF2F4FE3 		movt	r2, 65535
 1278 0068 020011E1 		tst	r1, r2
 1279 006c F0FFFF1A 		bne	.L467
 1280 0070 010051E3 		cmp	r1, #1
 1281 0074 0700009A 		bls	.L468
 1282 0078 B210D3E1 		ldrh	r1, [r3, #2]
 1283 007c 020011E1 		tst	r1, r2
 1284 0080 EBFFFF1A 		bne	.L467
 1285 0084 B410D3E1 		ldrh	r1, [r3, #4]
 1286 0088 020011E1 		tst	r1, r2
 1287 008c E8FFFF1A 		bne	.L467
 1288 0090 030051E3 		cmp	r1, #3
 1289 0094 0300008A 		bhi	.L482
 1290              	.L468:
 1291 0098 0600A0E3 		mov	r0, #6
 1292 009c 1EFF2FE1 		bx	lr
 1293              	.L463:
 1294 00a0 0300A0E1 		mov	r0, r3
 1295 00a4 1EFF2FE1 		bx	lr
 1296              	.L482:
 1297 00a8 B630D3E1 		ldrh	r3, [r3, #6]
 1298 00ac 020013E1 		tst	r3, r2
 1299 00b0 0000A003 		moveq	r0, #0
 1300 00b4 0400A013 		movne	r0, #4
 1301 00b8 1EFF2FE1 		bx	lr
 1303              		.section	.text.VDC_ImageBlackStretchCheckPrm,"ax",%progbits
 1304              		.align	2
 1305              		.global	VDC_ImageBlackStretchCheckPrm
 1306              		.syntax unified
 1307              		.arm
 1308              		.fpu neon
 1310              	VDC_ImageBlackStretchCheckPrm:
 1311              		@ args = 0, pretend = 0, frame = 0
 1312              		@ frame_needed = 0, uses_anonymous_args = 0
 1313              		@ link register save eliminated.
 1314 0000 000050E3 		cmp	r0, #0
 1315 0004 0100000A 		beq	.L500
 1316 0008 0100A0E3 		mov	r0, #1
 1317 000c 1EFF2FE1 		bx	lr
 1318              	.L500:
 1319 0010 000051E3 		cmp	r1, #0
 1320 0014 0100000A 		beq	.L501
 1321              	.L484:
 1322 0018 0500A0E3 		mov	r0, #5
 1323 001c 1EFF2FE1 		bx	lr
 1324              	.L501:
 1325 0020 000052E3 		cmp	r2, #0
 1326 0024 1500000A 		beq	.L488
 1327 0028 B030D2E1 		ldrh	r3, [r2]
 1328 002c 0F30C3E3 		bic	r3, r3, #15
 1329 0030 000053E3 		cmp	r3, #0
 1330 0034 0100000A 		beq	.L502
 1331              	.L492:
 1332 0038 0400A0E3 		mov	r0, #4
 1333 003c 1EFF2FE1 		bx	lr
 1334              	.L502:
 1335 0040 B230D2E1 		ldrh	r3, [r2, #2]
 1336 0044 0F30C3E3 		bic	r3, r3, #15
 1337 0048 000053E3 		cmp	r3, #0
 1338 004c F9FFFF1A 		bne	.L492
 1339 0050 B430D2E1 		ldrh	r3, [r2, #4]
 1340 0054 1F30C3E3 		bic	r3, r3, #31
 1341 0058 000053E3 		cmp	r3, #0
 1342 005c F5FFFF1A 		bne	.L492
 1343 0060 B630D2E1 		ldrh	r3, [r2, #6]
 1344 0064 1F20C3E3 		bic	r2, r3, #31
 1345 0068 000052E3 		cmp	r2, #0
 1346 006c F1FFFF1A 		bne	.L492
 1347 0070 1F0053E3 		cmp	r3, #31
 1348 0074 0000A013 		movne	r0, #0
 1349 0078 0600A003 		moveq	r0, #6
 1350 007c 1EFF2FE1 		bx	lr
 1351              	.L488:
 1352 0080 0200A0E1 		mov	r0, r2
 1353 0084 1EFF2FE1 		bx	lr
 1355              		.section	.text.VDC_AlphaBlendingCheckPrm,"ax",%progbits
 1356              		.align	2
 1357              		.global	VDC_AlphaBlendingCheckPrm
 1358              		.syntax unified
 1359              		.arm
 1360              		.fpu neon
 1362              	VDC_AlphaBlendingCheckPrm:
 1363              		@ args = 0, pretend = 0, frame = 0
 1364              		@ frame_needed = 0, uses_anonymous_args = 0
 1365              		@ link register save eliminated.
 1366 0000 000050E3 		cmp	r0, #0
 1367 0004 0100000A 		beq	.L515
 1368 0008 0100A0E3 		mov	r0, #1
 1369 000c 1EFF2FE1 		bx	lr
 1370              	.L515:
 1371 0010 021041E2 		sub	r1, r1, #2
 1372 0014 7110EFE6 		uxtb	r1, r1
 1373 0018 010051E3 		cmp	r1, #1
 1374 001c 0100009A 		bls	.L516
 1375              	.L504:
 1376 0020 0200A0E3 		mov	r0, #2
 1377 0024 1EFF2FE1 		bx	lr
 1378              	.L516:
 1379 0028 000052E3 		cmp	r2, #0
 1380 002c 0000A013 		movne	r0, #0
 1381 0030 0300A003 		moveq	r0, #3
 1382 0034 1EFF2FE1 		bx	lr
 1384              		.section	.text.VDC_AlphaBlendingRectCheckPrm,"ax",%progbits
 1385              		.align	2
 1386              		.global	VDC_AlphaBlendingRectCheckPrm
 1387              		.syntax unified
 1388              		.arm
 1389              		.fpu neon
 1391              	VDC_AlphaBlendingRectCheckPrm:
 1392              		@ args = 0, pretend = 0, frame = 0
 1393              		@ frame_needed = 0, uses_anonymous_args = 0
 1394              		@ link register save eliminated.
 1395 0000 000050E3 		cmp	r0, #0
 1396 0004 0100000A 		beq	.L539
 1397 0008 0100A0E3 		mov	r0, #1
 1398 000c 1EFF2FE1 		bx	lr
 1399              	.L539:
 1400 0010 021041E2 		sub	r1, r1, #2
 1401 0014 7110EFE6 		uxtb	r1, r1
 1402 0018 010051E3 		cmp	r1, #1
 1403 001c 0100009A 		bls	.L540
 1404              	.L518:
 1405 0020 0200A0E3 		mov	r0, #2
 1406 0024 1EFF2FE1 		bx	lr
 1407              	.L540:
 1408 0028 000052E3 		cmp	r2, #0
 1409 002c 1D00000A 		beq	.L523
 1410 0030 003092E5 		ldr	r3, [r2]
 1411 0034 000053E3 		cmp	r3, #0
 1412 0038 0F00000A 		beq	.L520
 1413 003c B000D3E1 		ldrh	r0, [r3]
 1414 0040 3E1BA0E3 		mov	r1, #63488
 1415 0044 FF1F4FE3 		movt	r1, 65535
 1416 0048 010010E1 		tst	r0, r1
 1417 004c 0100000A 		beq	.L541
 1418              	.L527:
 1419 0050 0400A0E3 		mov	r0, #4
 1420 0054 1EFF2FE1 		bx	lr
 1421              	.L541:
 1422 0058 B200D3E1 		ldrh	r0, [r3, #2]
 1423 005c 010010E1 		tst	r0, r1
 1424 0060 FAFFFF1A 		bne	.L527
 1425 0064 B400D3E1 		ldrh	r0, [r3, #4]
 1426 0068 010010E1 		tst	r0, r1
 1427 006c F7FFFF1A 		bne	.L527
 1428 0070 B630D3E1 		ldrh	r3, [r3, #6]
 1429 0074 010013E1 		tst	r3, r1
 1430 0078 F4FFFF1A 		bne	.L527
 1431              	.L520:
 1432 007c 040092E5 		ldr	r0, [r2, #4]
 1433 0080 000050E3 		cmp	r0, #0
 1434 0084 1EFF2F01 		bxeq	lr
 1435 0088 B000D0E1 		ldrh	r0, [r0]
 1436 008c FE3100E3 		movw	r3, #510
 1437 0090 FF0080E2 		add	r0, r0, #255
 1438 0094 7000FFE6 		uxth	r0, r0
 1439 0098 030050E1 		cmp	r0, r3
 1440 009c 0600A083 		movhi	r0, #6
 1441 00a0 0000A093 		movls	r0, #0
 1442 00a4 1EFF2FE1 		bx	lr
 1443              	.L523:
 1444 00a8 0200A0E1 		mov	r0, r2
 1445 00ac 1EFF2FE1 		bx	lr
 1447              		.section	.text.VDC_ChromakeyCheckPrm,"ax",%progbits
 1448              		.align	2
 1449              		.global	VDC_ChromakeyCheckPrm
 1450              		.syntax unified
 1451              		.arm
 1452              		.fpu neon
 1454              	VDC_ChromakeyCheckPrm:
 1455              		@ args = 0, pretend = 0, frame = 0
 1456              		@ frame_needed = 0, uses_anonymous_args = 0
 1457 0000 000050E3 		cmp	r0, #0
 1458 0004 0100000A 		beq	.L572
 1459 0008 0100A0E3 		mov	r0, #1
 1460 000c 1EFF2FE1 		bx	lr
 1461              	.L572:
 1462 0010 011041E2 		sub	r1, r1, #1
 1463 0014 7110EFE6 		uxtb	r1, r1
 1464 0018 020051E3 		cmp	r1, #2
 1465 001c 1300008A 		bhi	.L561
 1466 0020 000053E3 		cmp	r3, #0
 1467 0024 3100000A 		beq	.L573
 1468 0028 10402DE9 		push	{r4, lr}
 1469 002c 0200A0E1 		mov	r0, r2
 1470 0030 0340A0E1 		mov	r4, r3
 1471 0034 FEFFFFEB 		bl	VDC_ShrdPrmGetGraphicsFormat
 1472 0038 0A0050E3 		cmp	r0, #10
 1473 003c 00F19F97 		ldrls	pc, [pc, r0, asl #2]
 1474 0040 140000EA 		b	.L554
 1475              	.L546:
 1476 0044 78000000 		.word	.L545
 1477 0048 B4000000 		.word	.L547
 1478 004c 78000000 		.word	.L545
 1479 0050 78000000 		.word	.L545
 1480 0054 98000000 		.word	.L554
 1481 0058 D0000000 		.word	.L548
 1482 005c E0000000 		.word	.L549
 1483 0060 A0000000 		.word	.L550
 1484 0064 98000000 		.word	.L554
 1485 0068 98000000 		.word	.L554
 1486 006c 78000000 		.word	.L545
 1487              	.L561:
 1488              	.L543:
 1489 0070 0200A0E3 		mov	r0, #2
 1490 0074 1EFF2FE1 		bx	lr
 1491              	.L545:
 1492 0078 002094E5 		ldr	r2, [r4]
 1493 007c 0030A0E3 		mov	r3, #0
 1494 0080 FF3F4FE3 		movt	r3, 65535
 1495 0084 030012E1 		tst	r2, r3
 1496 0088 0700001A 		bne	.L560
 1497 008c 042094E5 		ldr	r2, [r4, #4]
 1498 0090 030012E1 		tst	r2, r3
 1499 0094 0400001A 		bne	.L560
 1500              	.L554:
 1501 0098 0000A0E3 		mov	r0, #0
 1502 009c 1080BDE8 		pop	{r4, pc}
 1503              	.L550:
 1504 00a0 003094E5 		ldr	r3, [r4]
 1505 00a4 0130D3E3 		bics	r3, r3, #1
 1506 00a8 FAFFFF0A 		beq	.L554
 1507              	.L560:
 1508 00ac 0400A0E3 		mov	r0, #4
 1509 00b0 1080BDE8 		pop	{r4, pc}
 1510              	.L547:
 1511 00b4 003094E5 		ldr	r3, [r4]
 1512 00b8 FF0413E3 		tst	r3, #-16777216
 1513 00bc FAFFFF1A 		bne	.L560
 1514 00c0 043094E5 		ldr	r3, [r4, #4]
 1515 00c4 FF0413E3 		tst	r3, #-16777216
 1516 00c8 F7FFFF1A 		bne	.L560
 1517 00cc F1FFFFEA 		b	.L554
 1518              	.L548:
 1519 00d0 003094E5 		ldr	r3, [r4]
 1520 00d4 FF30D3E3 		bics	r3, r3, #255
 1521 00d8 F3FFFF1A 		bne	.L560
 1522 00dc EDFFFFEA 		b	.L554
 1523              	.L549:
 1524 00e0 003094E5 		ldr	r3, [r4]
 1525 00e4 0F30D3E3 		bics	r3, r3, #15
 1526 00e8 EFFFFF1A 		bne	.L560
 1527 00ec E9FFFFEA 		b	.L554
 1528              	.L573:
 1529 00f0 0000A0E3 		mov	r0, #0
 1530 00f4 1EFF2FE1 		bx	lr
 1532              		.section	.text.VDC_CLUTCheckPrm,"ax",%progbits
 1533              		.align	2
 1534              		.global	VDC_CLUTCheckPrm
 1535              		.syntax unified
 1536              		.arm
 1537              		.fpu neon
 1539              	VDC_CLUTCheckPrm:
 1540              		@ args = 0, pretend = 0, frame = 0
 1541              		@ frame_needed = 0, uses_anonymous_args = 0
 1542 0000 000050E3 		cmp	r0, #0
 1543 0004 0100000A 		beq	.L601
 1544 0008 0100A0E3 		mov	r0, #1
 1545 000c 1EFF2FE1 		bx	lr
 1546              	.L601:
 1547 0010 011041E2 		sub	r1, r1, #1
 1548 0014 7110EFE6 		uxtb	r1, r1
 1549 0018 020051E3 		cmp	r1, #2
 1550 001c 0600008A 		bhi	.L586
 1551 0020 000053E3 		cmp	r3, #0
 1552 0024 0600000A 		beq	.L602
 1553 0028 001093E5 		ldr	r1, [r3]
 1554 002c 000051E3 		cmp	r1, #0
 1555 0030 0500001A 		bne	.L603
 1556 0034 0600A0E3 		mov	r0, #6
 1557 0038 1EFF2FE1 		bx	lr
 1558              	.L586:
 1559              	.L575:
 1560 003c 0200A0E3 		mov	r0, #2
 1561 0040 1EFF2FE1 		bx	lr
 1562              	.L602:
 1563 0044 0300A0E3 		mov	r0, #3
 1564 0048 1EFF2FE1 		bx	lr
 1565              	.L603:
 1566 004c 10402DE9 		push	{r4, lr}
 1567 0050 0200A0E1 		mov	r0, r2
 1568 0054 0340A0E1 		mov	r4, r3
 1569 0058 FEFFFFEB 		bl	VDC_ShrdPrmGetGraphicsFormat
 1570 005c 070050E3 		cmp	r0, #7
 1571 0060 003094E5 		ldr	r3, [r4]
 1572 0064 0500000A 		beq	.L604
 1573 0068 060050E3 		cmp	r0, #6
 1574 006c 0C00000A 		beq	.L605
 1575 0070 010C53E3 		cmp	r3, #256
 1576 0074 0300009A 		bls	.L580
 1577              	.L579:
 1578 0078 0600A0E3 		mov	r0, #6
 1579 007c 1080BDE8 		pop	{r4, pc}
 1580              	.L604:
 1581 0080 020053E3 		cmp	r3, #2
 1582 0084 FBFFFF8A 		bhi	.L579
 1583              	.L580:
 1584 0088 043094E5 		ldr	r3, [r4, #4]
 1585 008c 000053E3 		cmp	r3, #0
 1586 0090 0100000A 		beq	.L606
 1587 0094 0000A0E3 		mov	r0, #0
 1588 0098 1080BDE8 		pop	{r4, pc}
 1589              	.L606:
 1590 009c 0300A0E3 		mov	r0, #3
 1591 00a0 1080BDE8 		pop	{r4, pc}
 1592              	.L605:
 1593 00a4 100053E3 		cmp	r3, #16
 1594 00a8 F2FFFF8A 		bhi	.L579
 1595 00ac F5FFFFEA 		b	.L580
 1597              		.section	.text.VDC_DisplayCalibrationCheckPrm,"ax",%progbits
 1598              		.align	2
 1599              		.global	VDC_DisplayCalibrationCheckPrm
 1600              		.syntax unified
 1601              		.arm
 1602              		.fpu neon
 1604              	VDC_DisplayCalibrationCheckPrm:
 1605              		@ args = 0, pretend = 0, frame = 0
 1606              		@ frame_needed = 0, uses_anonymous_args = 0
 1607              		@ link register save eliminated.
 1608 0000 000050E3 		cmp	r0, #0
 1609 0004 0100000A 		beq	.L632
 1610 0008 0100A0E3 		mov	r0, #1
 1611 000c 1EFF2FE1 		bx	lr
 1612              	.L632:
 1613 0010 000051E3 		cmp	r1, #0
 1614 0014 0900000A 		beq	.L633
 1615 0018 043091E5 		ldr	r3, [r1, #4]
 1616 001c 000053E3 		cmp	r3, #0
 1617 0020 0E00000A 		beq	.L610
 1618 0024 B000D3E1 		ldrh	r0, [r3]
 1619 0028 3F2BA0E3 		mov	r2, #64512
 1620 002c FF2F4FE3 		movt	r2, 65535
 1621 0030 020010E1 		tst	r0, r2
 1622 0034 0300000A 		beq	.L634
 1623              	.L621:
 1624 0038 0400A0E3 		mov	r0, #4
 1625 003c 1EFF2FE1 		bx	lr
 1626              	.L633:
 1627              	.L608:
 1628 0040 0300A0E3 		mov	r0, #3
 1629 0044 1EFF2FE1 		bx	lr
 1630              	.L634:
 1631 0048 B200D3E1 		ldrh	r0, [r3, #2]
 1632 004c 020010E1 		tst	r0, r2
 1633 0050 F8FFFF1A 		bne	.L621
 1634 0054 B430D3E1 		ldrh	r3, [r3, #4]
 1635 0058 020013E1 		tst	r3, r2
 1636 005c F5FFFF1A 		bne	.L621
 1637              	.L610:
 1638 0060 0C0091E5 		ldr	r0, [r1, #12]
 1639 0064 000050E3 		cmp	r0, #0
 1640 0068 1EFF2F01 		bxeq	lr
 1641 006c 0030D0E5 		ldrb	r3, [r0]	@ zero_extendqisi2
 1642 0070 030053E3 		cmp	r3, #3
 1643 0074 0100009A 		bls	.L635
 1644 0078 0500A0E3 		mov	r0, #5
 1645 007c 1EFF2FE1 		bx	lr
 1646              	.L635:
 1647 0080 020053E3 		cmp	r3, #2
 1648 0084 0100000A 		beq	.L636
 1649 0088 0000A0E3 		mov	r0, #0
 1650 008c 1EFF2FE1 		bx	lr
 1651              	.L636:
 1652 0090 0130D0E5 		ldrb	r3, [r0, #1]	@ zero_extendqisi2
 1653 0094 FC0013E3 		tst	r3, #252
 1654 0098 E6FFFF1A 		bne	.L621
 1655 009c 0230D0E5 		ldrb	r3, [r0, #2]	@ zero_extendqisi2
 1656 00a0 FC0013E3 		tst	r3, #252
 1657 00a4 E3FFFF1A 		bne	.L621
 1658 00a8 0330D0E5 		ldrb	r3, [r0, #3]	@ zero_extendqisi2
 1659 00ac FC0013E3 		tst	r3, #252
 1660 00b0 E0FFFF1A 		bne	.L621
 1661 00b4 0430D0E5 		ldrb	r3, [r0, #4]	@ zero_extendqisi2
 1662 00b8 FC0013E3 		tst	r3, #252
 1663 00bc 0000A003 		moveq	r0, #0
 1664 00c0 0400A013 		movne	r0, #4
 1665 00c4 1EFF2FE1 		bx	lr
 1667              		.section	.text.VDC_GammaCorrectionCheckPrm,"ax",%progbits
 1668              		.align	2
 1669              		.global	VDC_GammaCorrectionCheckPrm
 1670              		.syntax unified
 1671              		.arm
 1672              		.fpu neon
 1674              	VDC_GammaCorrectionCheckPrm:
 1675              		@ args = 0, pretend = 0, frame = 0
 1676              		@ frame_needed = 0, uses_anonymous_args = 0
 1677              		@ link register save eliminated.
 1678 0000 000050E3 		cmp	r0, #0
 1679 0004 0100000A 		beq	.L664
 1680 0008 0100A0E3 		mov	r0, #1
 1681 000c 1EFF2FE1 		bx	lr
 1682              	.L664:
 1683 0010 000051E3 		cmp	r1, #0
 1684 0014 2C00000A 		beq	.L665
 1685 0018 000091E5 		ldr	r0, [r1]
 1686 001c 000050E3 		cmp	r0, #0
 1687 0020 0B00000A 		beq	.L640
 1688 0024 3ECBA0E3 		mov	ip, #63488
 1689 0028 023040E2 		sub	r3, r0, #2
 1690 002c FFCF4FE3 		movt	ip, 65535
 1691 0030 3E0080E2 		add	r0, r0, #62
 1692 0034 010000EA 		b	.L641
 1693              	.L666:
 1694 0038 030050E1 		cmp	r0, r3
 1695 003c 0400000A 		beq	.L640
 1696              	.L641:
 1697 0040 B220F3E1 		ldrh	r2, [r3, #2]!
 1698 0044 0C0012E1 		tst	r2, ip
 1699 0048 FAFFFF0A 		beq	.L666
 1700              	.L649:
 1701 004c 0400A0E3 		mov	r0, #4
 1702 0050 1EFF2FE1 		bx	lr
 1703              	.L640:
 1704 0054 080091E5 		ldr	r0, [r1, #8]
 1705 0058 000050E3 		cmp	r0, #0
 1706 005c 0A00000A 		beq	.L643
 1707 0060 3ECBA0E3 		mov	ip, #63488
 1708 0064 023040E2 		sub	r3, r0, #2
 1709 0068 FFCF4FE3 		movt	ip, 65535
 1710 006c 3E0080E2 		add	r0, r0, #62
 1711 0070 010000EA 		b	.L642
 1712              	.L667:
 1713 0074 030050E1 		cmp	r0, r3
 1714 0078 0300000A 		beq	.L643
 1715              	.L642:
 1716 007c B220F3E1 		ldrh	r2, [r3, #2]!
 1717 0080 0C0012E1 		tst	r2, ip
 1718 0084 FAFFFF0A 		beq	.L667
 1719 0088 EFFFFFEA 		b	.L649
 1720              	.L643:
 1721 008c 100091E5 		ldr	r0, [r1, #16]
 1722 0090 000050E3 		cmp	r0, #0
 1723 0094 1EFF2F01 		bxeq	lr
 1724 0098 3E2BA0E3 		mov	r2, #63488
 1725 009c 023040E2 		sub	r3, r0, #2
 1726 00a0 FF2F4FE3 		movt	r2, 65535
 1727 00a4 3E1080E2 		add	r1, r0, #62
 1728 00a8 010000EA 		b	.L644
 1729              	.L669:
 1730 00ac 030051E1 		cmp	r1, r3
 1731 00b0 0400000A 		beq	.L668
 1732              	.L644:
 1733 00b4 B200F3E1 		ldrh	r0, [r3, #2]!
 1734 00b8 020010E0 		ands	r0, r0, r2
 1735 00bc FAFFFF0A 		beq	.L669
 1736 00c0 0400A0E3 		mov	r0, #4
 1737 00c4 1EFF2FE1 		bx	lr
 1738              	.L668:
 1739 00c8 1EFF2FE1 		bx	lr
 1740              	.L665:
 1741              	.L638:
 1742 00cc 0100A0E1 		mov	r0, r1
 1743 00d0 1EFF2FE1 		bx	lr
 1745              		.section	.rodata.tcon_function_tbl.69605,"a",%progbits
 1746              		.align	3
 1747              		.set	.LANCHOR0,. + 0
 1750              	tcon_function_tbl.69605:
 1751 0000 00000000 		.word	CheckTcon_Vertical
 1752 0004 00000000 		.word	CheckTcon_Vertical
 1753 0008 00000000 		.word	CheckTcon_Horizontal
 1754 000c 00000000 		.word	CheckTcon_Horizontal
 1755 0010 00000000 		.word	CheckTcon_Horizontal
 1756 0014 00000000 		.word	CheckTcon_HorizontalPol
 1757 0018 00000000 		.word	CheckTcon_HorizontalPol
 1758 001c 00000000 		.word	CheckTcon_DataEnable
 1759              		.ident	"GCC: (GNU Tools for ARM Embedded Processors 6-2017-q2-update) 6.3.1 20170620 (release) [AR