   1              		.cpu cortex-a9
   2              		.eabi_attribute 28, 1
   3              		.eabi_attribute 20, 1
   4              		.eabi_attribute 21, 1
   5              		.eabi_attribute 23, 3
   6              		.eabi_attribute 24, 1
   7              		.eabi_attribute 25, 1
   8              		.eabi_attribute 26, 1
   9              		.eabi_attribute 30, 1
  10              		.eabi_attribute 34, 0
  11              		.eabi_attribute 18, 4
  12              		.file	"console.c"
  13              		.text
  14              	.Ltext0:
  15              		.cfi_sections	.debug_frame
  16              		.section	.text.con_print_prompt,"ax",%progbits
  17              		.align	2
  18              		.syntax unified
  19              		.arm
  20              		.fpu neon
  22              	con_print_prompt:
  23              	.LFB11:
  24              		.file 1 "../src/renesas/application/common/console/console.c"
   1:../src/renesas/application/common/console/console.c **** /******************************************************************************
   2:../src/renesas/application/common/console/console.c **** * DISCLAIMER
   3:../src/renesas/application/common/console/console.c **** * This software is supplied by Renesas Electronics Corporation and is only 
   4:../src/renesas/application/common/console/console.c **** * intended for use with Renesas products. No other uses are authorized. This 
   5:../src/renesas/application/common/console/console.c **** * software is owned by Renesas Electronics Corporation and is protected under
   6:../src/renesas/application/common/console/console.c **** * all applicable laws, including copyright laws.
   7:../src/renesas/application/common/console/console.c **** * THIS SOFTWARE IS PROVIDED "AS IS" AND RENESAS MAKES NO WARRANTIES REGARDING
   8:../src/renesas/application/common/console/console.c **** * THIS SOFTWARE, WHETHER EXPRESS, IMPLIED OR STATUTORY, INCLUDING BUT NOT
   9:../src/renesas/application/common/console/console.c **** * LIMITED TO WARRANTIES OF MERCHANTABILITY, FITNESS FOR A PARTICULAR PURPOSE 
  10:../src/renesas/application/common/console/console.c **** * AND NON-INFRINGEMENT. ALL SUCH WARRANTIES ARE EXPRESSLY DISCLAIMED.
  11:../src/renesas/application/common/console/console.c **** * TO THE MAXIMUM EXTENT PERMITTED NOT PROHIBITED BY LAW, NEITHER RENESAS 
  12:../src/renesas/application/common/console/console.c **** * ELECTRONICS CORPORATION NOR ANY OF ITS AFFILIATED COMPANIES SHALL BE LIABLE 
  13:../src/renesas/application/common/console/console.c **** * FOR ANY DIRECT, INDIRECT, SPECIAL, INCIDENTAL OR CONSEQUENTIAL DAMAGES FOR
  14:../src/renesas/application/common/console/console.c **** * ANY REASON RELATED TO THIS SOFTWARE, EVEN IF RENESAS OR ITS AFFILIATES HAVE
  15:../src/renesas/application/common/console/console.c **** * BEEN ADVISED OF THE POSSIBILITY OF SUCH DAMAGES.
  16:../src/renesas/application/common/console/console.c **** * Renesas reserves the right, without notice, to make changes to this software
  17:../src/renesas/application/common/console/console.c **** * and to discontinue the availability of this software. By using this software,
  18:../src/renesas/application/common/console/console.c **** * you agree to the additional terms and conditions found by accessing the 
  19:../src/renesas/application/common/console/console.c **** * following link:
  20:../src/renesas/application/common/console/console.c **** * http://www.renesas.com/disclaimer
  21:../src/renesas/application/common/console/console.c **** *******************************************************************************
  22:../src/renesas/application/common/console/console.c **** * Copyright (C) 2012 Renesas Electronics Corporation. All rights reserved.
  23:../src/renesas/application/common/console/console.c **** *******************************************************************************
  24:../src/renesas/application/common/console/console.c **** * File Name    : console.c
  25:../src/renesas/application/common/console/console.c **** * Version      : 1.01
  26:../src/renesas/application/common/console/console.c **** * Device(s)    : Renesas
  27:../src/renesas/application/common/console/console.c **** * Tool-Chain   : N/A
  28:../src/renesas/application/common/console/console.c **** * OS           : N/A
  29:../src/renesas/application/common/console/console.c **** * H/W Platform : RSK+
  30:../src/renesas/application/common/console/console.c **** * Description  : Simple command line console implemenation
  31:../src/renesas/application/common/console/console.c **** *******************************************************************************
  32:../src/renesas/application/common/console/console.c **** * History      : DD.MM.YYYY Version Description
  33:../src/renesas/application/common/console/console.c **** *              : 04.02.2010 1.00    First Release
  34:../src/renesas/application/common/console/console.c **** *              : 10.06.2010 1.01    Updated type definitions
  35:../src/renesas/application/common/console/console.c **** ******************************************************************************/
  36:../src/renesas/application/common/console/console.c **** 
  37:../src/renesas/application/common/console/console.c **** /******************************************************************************
  38:../src/renesas/application/common/console/console.c ****   WARNING!  IN ACCORDANCE WITH THE USER LICENCE THIS CODE MUST NOT BE CONVEYED
  39:../src/renesas/application/common/console/console.c ****   OR REDISTRIBUTED IN COMBINATION WITH ANY SOFTWARE LICENSED UNDER TERMS THE
  40:../src/renesas/application/common/console/console.c ****   SAME AS OR SIMILAR TO THE GNU GENERAL PUBLIC LICENCE
  41:../src/renesas/application/common/console/console.c **** ******************************************************************************/
  42:../src/renesas/application/common/console/console.c **** 
  43:../src/renesas/application/common/console/console.c **** /******************************************************************************
  44:../src/renesas/application/common/console/console.c **** Includes   <System Includes> , "Project Includes"
  45:../src/renesas/application/common/console/console.c **** ******************************************************************************/
  46:../src/renesas/application/common/console/console.c **** 
  47:../src/renesas/application/common/console/console.c **** #include <stdio.h>
  48:../src/renesas/application/common/console/console.c **** #include <string.h>
  49:../src/renesas/application/common/console/console.c **** #include <ctype.h>
  50:../src/renesas/application/common/console/console.c **** #include <wild_compare.h>
  51:../src/renesas/application/common/console/console.c **** 
  52:../src/renesas/application/common/console/console.c **** #include "compiler_settings.h"
  53:../src/renesas/application/common/console/console.c **** #include "r_os_abstraction_api.h"
  54:../src/renesas/application/common/console/console.c **** 
  55:../src/renesas/application/common/console/console.c **** #include "console.h"
  56:../src/renesas/application/common/console/console.c **** #include "driver.h"
  57:../src/renesas/application/common/console/console.c **** #include "version.h"
  58:../src/renesas/application/common/console/console.c **** 
  59:../src/renesas/application/common/console/console.c **** /******************************************************************************
  60:../src/renesas/application/common/console/console.c ****  Typedef definitions
  61:../src/renesas/application/common/console/console.c ****  ******************************************************************************/
  62:../src/renesas/application/common/console/console.c **** 
  63:../src/renesas/application/common/console/console.c **** /******************************************************************************
  64:../src/renesas/application/common/console/console.c ****  Macro definitions
  65:../src/renesas/application/common/console/console.c ****  ******************************************************************************/
  66:../src/renesas/application/common/console/console.c **** 
  67:../src/renesas/application/common/console/console.c **** /******************************************************************************
  68:../src/renesas/application/common/console/console.c ****  Imported global variables and functions (from other files)
  69:../src/renesas/application/common/console/console.c ****  ******************************************************************************/
  70:../src/renesas/application/common/console/console.c **** 
  71:../src/renesas/application/common/console/console.c **** /******************************************************************************
  72:../src/renesas/application/common/console/console.c ****  Exported global variables and functions (to be accessed by other files)
  73:../src/renesas/application/common/console/console.c ****  ******************************************************************************/
  74:../src/renesas/application/common/console/console.c **** 
  75:../src/renesas/application/common/console/console.c **** /******************************************************************************
  76:../src/renesas/application/common/console/console.c ****  Private global variables and functions
  77:../src/renesas/application/common/console/console.c ****  ******************************************************************************/
  78:../src/renesas/application/common/console/console.c **** 
  79:../src/renesas/application/common/console/console.c **** static int16_t con_print_prompt(pst_comset_t pCom);
  80:../src/renesas/application/common/console/console.c **** static e_cmderr_t con_parse_command(pst_comset_t pCom);
  81:../src/renesas/application/common/console/console.c **** static e_cmderr_t process_ordinary_char(pst_comset_t pCom, char chChar, _Bool *pbfCommand);
  82:../src/renesas/application/common/console/console.c **** 
  83:../src/renesas/application/common/console/console.c **** /* Terminal window escape sequences */
  84:../src/renesas/application/common/console/console.c **** //static const char * const gsp_clear_screen = "\x1b[2J";
  85:../src/renesas/application/common/console/console.c **** //static const char * const gsp_cursor_home = "\x1b[H";
  86:../src/renesas/application/common/console/console.c **** 
  87:../src/renesas/application/common/console/console.c **** /******************************************************************************
  88:../src/renesas/application/common/console/console.c ****  Public Functions
  89:../src/renesas/application/common/console/console.c ****  ******************************************************************************/
  90:../src/renesas/application/common/console/console.c **** 
  91:../src/renesas/application/common/console/console.c **** /******************************************************************************
  92:../src/renesas/application/common/console/console.c ****  * Function Name: show_welcome_msg
  93:../src/renesas/application/common/console/console.c ****  * Description  : Function to display initial welcome message
  94:../src/renesas/application/common/console/console.c ****  * Arguments    : IN  pCom - Pointer to the command object data
  95:../src/renesas/application/common/console/console.c ****  *              : IN  clear_screen - clear screen before message  true/false
  96:../src/renesas/application/common/console/console.c ****  * Return Value : None
  97:../src/renesas/application/common/console/console.c ****  *****************************************************************************/
  98:../src/renesas/application/common/console/console.c **** void show_welcome_msg (FILE *p_out, bool_t clear_screen)
  99:../src/renesas/application/common/console/console.c **** {
 100:../src/renesas/application/common/console/console.c ****     st_os_abstraction_info_t ver_info;
 101:../src/renesas/application/common/console/console.c **** 
 102:../src/renesas/application/common/console/console.c ****    	fprintf(p_out,"\r\n\n##########################################################################
 103:../src/renesas/application/common/console/console.c **** 	fprintf(p_out,"\rRZ/A2M Automatic number-plate recognition (ANPR) for GCC Ver. %u.%u\n", APPLICATI
 104:../src/renesas/application/common/console/console.c **** 	fprintf(p_out,"\rCopyright (C) 2021 Renesas Electronics Corporation. All rights reserved.\n");
 105:../src/renesas/application/common/console/console.c **** 	fprintf(p_out,"\rBuild Info Date %s at %s \n", __DATE__, __TIME__);
 106:../src/renesas/application/common/console/console.c **** 
 107:../src/renesas/application/common/console/console.c **** 	if(R_OS_GetVersion(&ver_info) == 0)
 108:../src/renesas/application/common/console/console.c **** 	{
 109:../src/renesas/application/common/console/console.c **** 		fprintf(p_out,"\r%s Version %d.%d\n\n\n", ver_info.p_szdriver_name, ver_info.version.sub.major, v
 110:../src/renesas/application/common/console/console.c **** 	}
 111:../src/renesas/application/common/console/console.c **** 
 112:../src/renesas/application/common/console/console.c ****     fflush(p_out);
 113:../src/renesas/application/common/console/console.c **** }
 114:../src/renesas/application/common/console/console.c **** /******************************************************************************
 115:../src/renesas/application/common/console/console.c ****  End of function show_welcome_msg
 116:../src/renesas/application/common/console/console.c ****  ******************************************************************************/
 117:../src/renesas/application/common/console/console.c **** 
 118:../src/renesas/application/common/console/console.c **** /******************************************************************************
 119:../src/renesas/application/common/console/console.c ****  Function Name: console
 120:../src/renesas/application/common/console/console.c ****  Description:   Function to implement a simple command console using the ANSI C
 121:../src/renesas/application/common/console/console.c ****                 run time library IO functions
 122:../src/renesas/application/common/console/console.c ****  Arguments:     IN  pCom - Pointer to the command object data
 123:../src/renesas/application/common/console/console.c ****                 IN  pCmdFunctions - Pointer to a table of command tables
 124:../src/renesas/application/common/console/console.c ****                 IN  pIn - Pointer to the file stream for input
 125:../src/renesas/application/common/console/console.c ****                 IN  pOut - Pointer to the file stream for output
 126:../src/renesas/application/common/console/console.c ****                 IN  pszPrompt - Pointer to the prompt string
 127:../src/renesas/application/common/console/console.c ****  Return value:  0 for success otherwise error code
 128:../src/renesas/application/common/console/console.c ****  ******************************************************************************/
 129:../src/renesas/application/common/console/console.c **** e_cmderr_t console(pst_comset_t pCom, cpst_command_table_t *ppComFunctions, int32_t iNumTables, FIL
 130:../src/renesas/application/common/console/console.c **** {
 131:../src/renesas/application/common/console/console.c ****     /* Initialise our variables */
 132:../src/renesas/application/common/console/console.c ****     memset(pCom, 0, sizeof(st_comset_t));
 133:../src/renesas/application/common/console/console.c ****     pCom->p_in = pIn;
 134:../src/renesas/application/common/console/console.c ****     pCom->p_out = pOut;
 135:../src/renesas/application/common/console/console.c ****     pCom->p_function = ppComFunctions;
 136:../src/renesas/application/common/console/console.c ****     pCom->num_tables = (int16_t)iNumTables;
 137:../src/renesas/application/common/console/console.c ****     pCom->p_prompt = pszPrompt;
 138:../src/renesas/application/common/console/console.c ****     pCom->default_prompt = pszPrompt;
 139:../src/renesas/application/common/console/console.c ****     pCom->working_drive = -1;
 140:../src/renesas/application/common/console/console.c **** 
 141:../src/renesas/application/common/console/console.c ****     /* Initialise the last command with the help string */
 142:../src/renesas/application/common/console/console.c ****     strcpy(pCom->va.command, "?");
 143:../src/renesas/application/common/console/console.c **** 
 144:../src/renesas/application/common/console/console.c ****     /* Print a prompt */
 145:../src/renesas/application/common/console/console.c ****     con_print_prompt(pCom);
 146:../src/renesas/application/common/console/console.c ****     fflush(pOut);
 147:../src/renesas/application/common/console/console.c **** 
 148:../src/renesas/application/common/console/console.c ****     /* Disable buffering for single character input */
 149:../src/renesas/application/common/console/console.c ****     setvbuf(pIn, NULL, _IONBF, 0);
 150:../src/renesas/application/common/console/console.c **** 
 151:../src/renesas/application/common/console/console.c ****     /* Until there is an error */
 152:../src/renesas/application/common/console/console.c ****     while (true)
 153:../src/renesas/application/common/console/console.c ****     {
 154:../src/renesas/application/common/console/console.c ****         _Bool bf_command = false;
 155:../src/renesas/application/common/console/console.c **** 
 156:../src/renesas/application/common/console/console.c ****         /* cast 0 to CMDERR */
 157:../src/renesas/application/common/console/console.c ****         e_cmderr_t error_code = (e_cmderr_t) 0;
 158:../src/renesas/application/common/console/console.c ****         int_t data;
 159:../src/renesas/application/common/console/console.c **** 
 160:../src/renesas/application/common/console/console.c ****         /* Read a character from the input stream */
 161:../src/renesas/application/common/console/console.c ****         data = fgetc(pIn);
 162:../src/renesas/application/common/console/console.c ****         if (EOF == data)
 163:../src/renesas/application/common/console/console.c ****         {
 164:../src/renesas/application/common/console/console.c ****             /* cast to void */
 165:../src/renesas/application/common/console/console.c ****             clearerr(pIn);
 166:../src/renesas/application/common/console/console.c ****             return CMD_ERROR_IN_IO;
 167:../src/renesas/application/common/console/console.c ****         }
 168:../src/renesas/application/common/console/console.c **** 
 169:../src/renesas/application/common/console/console.c ****         pCom->va.data = (int16_t)data;
 170:../src/renesas/application/common/console/console.c **** 
 171:../src/renesas/application/common/console/console.c ****         /* Bump the read count */
 172:../src/renesas/application/common/console/console.c ****         pCom->va.read_count++;
 173:../src/renesas/application/common/console/console.c **** 
 174:../src/renesas/application/common/console/console.c ****         /* Process the character */
 175:../src/renesas/application/common/console/console.c ****         fflush(pOut);
 176:../src/renesas/application/common/console/console.c **** 
 177:../src/renesas/application/common/console/console.c ****         /* cast integer to char */
 178:../src/renesas/application/common/console/console.c ****         error_code = con_process_char(pCom, (char) pCom->va.data, &bf_command);
 179:../src/renesas/application/common/console/console.c **** 
 180:../src/renesas/application/common/console/console.c ****         /* If an error occurs then return it */
 181:../src/renesas/application/common/console/console.c ****         if (error_code > CMD_UNKNOWN)
 182:../src/renesas/application/common/console/console.c ****         {
 183:../src/renesas/application/common/console/console.c ****             return error_code;
 184:../src/renesas/application/common/console/console.c ****         }
 185:../src/renesas/application/common/console/console.c **** 
 186:../src/renesas/application/common/console/console.c ****         /* If a command has been received then print the prompt if required */
 187:../src/renesas/application/common/console/console.c ****         if ((bf_command) && (CMD_NO_PROMPT != error_code))
 188:../src/renesas/application/common/console/console.c ****         {
 189:../src/renesas/application/common/console/console.c ****             if (con_print_prompt(pCom) < 0)
 190:../src/renesas/application/common/console/console.c ****             {
 191:../src/renesas/application/common/console/console.c ****                 return CMD_ERROR_IN_IO;
 192:../src/renesas/application/common/console/console.c ****             }
 193:../src/renesas/application/common/console/console.c ****         }
 194:../src/renesas/application/common/console/console.c **** 
 195:../src/renesas/application/common/console/console.c ****         fflush(pOut);
 196:../src/renesas/application/common/console/console.c ****     }
 197:../src/renesas/application/common/console/console.c **** 
 198:../src/renesas/application/common/console/console.c ****     return CMD_OK;
 199:../src/renesas/application/common/console/console.c **** }
 200:../src/renesas/application/common/console/console.c **** /******************************************************************************
 201:../src/renesas/application/common/console/console.c ****  End of function console
 202:../src/renesas/application/common/console/console.c ****  ******************************************************************************/
 203:../src/renesas/application/common/console/console.c **** 
 204:../src/renesas/application/common/console/console.c **** /******************************************************************************
 205:../src/renesas/application/common/console/console.c ****  Function Name: con_get_last_command_line
 206:../src/renesas/application/common/console/console.c ****  Description:   Function to bring up the last command line for editing
 207:../src/renesas/application/common/console/console.c ****  Arguments:     IN  pCom - pointer to the command object
 208:../src/renesas/application/common/console/console.c ****  Return value:  0 for success otherwise error code
 209:../src/renesas/application/common/console/console.c ****  ******************************************************************************/
 210:../src/renesas/application/common/console/console.c **** void con_get_last_command_line(pst_comset_t pCom)
 211:../src/renesas/application/common/console/console.c **** {
 212:../src/renesas/application/common/console/console.c ****     strcpy(pCom->va.buffer, pCom->va.command);
 213:../src/renesas/application/common/console/console.c ****     fprintf(pCom->p_out, "%s", pCom->va.buffer);
 214:../src/renesas/application/common/console/console.c **** 
 215:../src/renesas/application/common/console/console.c ****     /* cast size_t to uint32_t */
 216:../src/renesas/application/common/console/console.c ****     pCom->va.buffer_index = (uint32_t) strlen(pCom->va.command);
 217:../src/renesas/application/common/console/console.c **** }
 218:../src/renesas/application/common/console/console.c **** /******************************************************************************
 219:../src/renesas/application/common/console/console.c ****  End of function con_get_last_command_line
 220:../src/renesas/application/common/console/console.c ****  ******************************************************************************/
 221:../src/renesas/application/common/console/console.c **** 
 222:../src/renesas/application/common/console/console.c **** /******************************************************************************
 223:../src/renesas/application/common/console/console.c ****  Function Name: con_do_last_command_line
 224:../src/renesas/application/common/console/console.c ****  Description  : Function to get do the last command again
 225:../src/renesas/application/common/console/console.c ****  Arguments    : IN  pCom - pointer to command table
 226:../src/renesas/application/common/console/console.c ****  Return Value : 0 for success otherwise error code
 227:../src/renesas/application/common/console/console.c ****  ******************************************************************************/
 228:../src/renesas/application/common/console/console.c **** e_cmderr_t con_do_last_command_line(pst_comset_t pCom)
 229:../src/renesas/application/common/console/console.c **** {
 230:../src/renesas/application/common/console/console.c ****     con_get_last_command_line(pCom);
 231:../src/renesas/application/common/console/console.c ****     fprintf(pCom->p_out, "\r\n");
 232:../src/renesas/application/common/console/console.c **** 
 233:../src/renesas/application/common/console/console.c ****     return con_parse_command(pCom);
 234:../src/renesas/application/common/console/console.c **** }
 235:../src/renesas/application/common/console/console.c **** /******************************************************************************
 236:../src/renesas/application/common/console/console.c **** End of function con_do_last_command_line
 237:../src/renesas/application/common/console/console.c **** ******************************************************************************/
 238:../src/renesas/application/common/console/console.c **** 
 239:../src/renesas/application/common/console/console.c **** /******************************************************************************
 240:../src/renesas/application/common/console/console.c **** Function Name: process_ordinary_char
 241:../src/renesas/application/common/console/console.c **** Description:   Function to process an ordinary character
 242:../src/renesas/application/common/console/console.c **** Arguments:     IN  pCom - pointer to the command object
 243:../src/renesas/application/common/console/console.c ****                IN  chChar - The character to process
 244:../src/renesas/application/common/console/console.c ****                IN  pbfCommand - Pointer to a flag that is set when a
 245:../src/renesas/application/common/console/console.c ****                                 command is received
 246:../src/renesas/application/common/console/console.c **** Return value:  0 for success otherwise error code
 247:../src/renesas/application/common/console/console.c **** ******************************************************************************/
 248:../src/renesas/application/common/console/console.c **** static e_cmderr_t process_ordinary_char(pst_comset_t pCom, char chChar, _Bool *pbfCommand)
 249:../src/renesas/application/common/console/console.c **** {
 250:../src/renesas/application/common/console/console.c ****     if (pCom->va.buffer_index < (CMD_READER_LINE_SIZE - 1))
 251:../src/renesas/application/common/console/console.c ****     {
 252:../src/renesas/application/common/console/console.c ****         /* buffer */
 253:../src/renesas/application/common/console/console.c ****         pCom->va.buffer[pCom->va.buffer_index++] = chChar;
 254:../src/renesas/application/common/console/console.c **** 
 255:../src/renesas/application/common/console/console.c ****         /* Two character escape sequence termination tests - F Keys */
 256:../src/renesas/application/common/console/console.c ****         if ((ESC_ESCAPE_SEQUENCE == pCom->va.escape_sequence) && (2 == pCom->va.buffer_index) && ('
 257:../src/renesas/application/common/console/console.c ****         {
 258:../src/renesas/application/common/console/console.c ****             pCom->va.buffer[pCom->va.buffer_index] = '\0';
 259:../src/renesas/application/common/console/console.c ****             *pbfCommand = true;
 260:../src/renesas/application/common/console/console.c **** 
 261:../src/renesas/application/common/console/console.c ****             /* Parse the command line */
 262:../src/renesas/application/common/console/console.c ****             return con_parse_command(pCom);
 263:../src/renesas/application/common/console/console.c ****         }
 264:../src/renesas/application/common/console/console.c ****         /* Arrow keys */
 265:../src/renesas/application/common/console/console.c ****         else if ((ESC_ESCAPE_SEQUENCE == pCom->va.escape_sequence) && (2 == pCom->va.buffer_index) 
 266:../src/renesas/application/common/console/console.c ****         {
 267:../src/renesas/application/common/console/console.c ****             pCom->va.buffer[pCom->va.buffer_index] = '\0';
 268:../src/renesas/application/common/console/console.c ****             *pbfCommand = 1;
 269:../src/renesas/application/common/console/console.c ****             return con_parse_command(pCom);
 270:../src/renesas/application/common/console/console.c ****         }
 271:../src/renesas/application/common/console/console.c ****         else
 272:../src/renesas/application/common/console/console.c ****         {
 273:../src/renesas/application/common/console/console.c ****             /* do nothing */
 274:../src/renesas/application/common/console/console.c ****             __asm ("nop");
 275:../src/renesas/application/common/console/console.c ****         }
 276:../src/renesas/application/common/console/console.c ****     }
 277:../src/renesas/application/common/console/console.c ****     else
 278:../src/renesas/application/common/console/console.c ****     {
 279:../src/renesas/application/common/console/console.c ****         return CMD_LINE_TOO_LONG;
 280:../src/renesas/application/common/console/console.c ****     }
 281:../src/renesas/application/common/console/console.c **** 
 282:../src/renesas/application/common/console/console.c **** #ifdef SERIAL
 283:../src/renesas/application/common/console/console.c ****     /* echo to console */
 284:../src/renesas/application/common/console/console.c ****     if ((ESC_NO_ESCAPE == pCom->va.escape_sequence) && ('@' != pCom->va.buffer[0]))
 285:../src/renesas/application/common/console/console.c ****     {
 286:../src/renesas/application/common/console/console.c ****         if (pCom->secrecy)
 287:../src/renesas/application/common/console/console.c ****         {
 288:../src/renesas/application/common/console/console.c ****             fputc('*', pCom->p_out);
 289:../src/renesas/application/common/console/console.c ****         }
 290:../src/renesas/application/common/console/console.c ****         else
 291:../src/renesas/application/common/console/console.c ****         {
 292:../src/renesas/application/common/console/console.c ****             fputc(chChar, pCom->p_out);
 293:../src/renesas/application/common/console/console.c ****         }
 294:../src/renesas/application/common/console/console.c ****     }
 295:../src/renesas/application/common/console/console.c **** #endif
 296:../src/renesas/application/common/console/console.c **** 
 297:../src/renesas/application/common/console/console.c ****     return CMD_OK;
 298:../src/renesas/application/common/console/console.c **** }
 299:../src/renesas/application/common/console/console.c **** /******************************************************************************
 300:../src/renesas/application/common/console/console.c ****  End of function process_ordinary_char
 301:../src/renesas/application/common/console/console.c ****  ******************************************************************************/
 302:../src/renesas/application/common/console/console.c **** 
 303:../src/renesas/application/common/console/console.c **** /******************************************************************************
 304:../src/renesas/application/common/console/console.c ****  Function Name: terminate_command
 305:../src/renesas/application/common/console/console.c ****  Description:   Function to process an ordinary character
 306:../src/renesas/application/common/console/console.c ****  Arguments:     IN  pCom - pointer to the command object
 307:../src/renesas/application/common/console/console.c ****                 IN  chChar - The character to process
 308:../src/renesas/application/common/console/console.c ****                 IN  pbfCommand - Pointer to a flag that is set when a
 309:../src/renesas/application/common/console/console.c ****                                  command is received
 310:../src/renesas/application/common/console/console.c ****  Return value:  0 for success otherwise error code
 311:../src/renesas/application/common/console/console.c ****  ******************************************************************************/
 312:../src/renesas/application/common/console/console.c **** static e_cmderr_t terminate_command(pst_comset_t pCom, char chChar, _Bool *pbfCommand)
 313:../src/renesas/application/common/console/console.c **** {
 314:../src/renesas/application/common/console/console.c ****     (void)chChar;
 315:../src/renesas/application/common/console/console.c **** 
 316:../src/renesas/application/common/console/console.c ****     if ((ESC_NO_ESCAPE == pCom->va.escape_sequence) && ('@' != pCom->va.buffer[0]))
 317:../src/renesas/application/common/console/console.c ****     {
 318:../src/renesas/application/common/console/console.c **** #ifdef SERIAL
 319:../src/renesas/application/common/console/console.c ****         fprintf(pCom->p_out, "\r\n");
 320:../src/renesas/application/common/console/console.c **** #endif
 321:../src/renesas/application/common/console/console.c ****     }
 322:../src/renesas/application/common/console/console.c **** 
 323:../src/renesas/application/common/console/console.c ****     /* Terminate the string */
 324:../src/renesas/application/common/console/console.c ****     pCom->va.buffer[pCom->va.buffer_index] = (uint8_t) '\0';
 325:../src/renesas/application/common/console/console.c ****     *pbfCommand = true;
 326:../src/renesas/application/common/console/console.c **** 
 327:../src/renesas/application/common/console/console.c ****     /* Parse the command line */
 328:../src/renesas/application/common/console/console.c ****     return con_parse_command(pCom);
 329:../src/renesas/application/common/console/console.c **** }
 330:../src/renesas/application/common/console/console.c **** /******************************************************************************
 331:../src/renesas/application/common/console/console.c ****  End of function terminate_command
 332:../src/renesas/application/common/console/console.c ****  ******************************************************************************/
 333:../src/renesas/application/common/console/console.c **** 
 334:../src/renesas/application/common/console/console.c **** /******************************************************************************
 335:../src/renesas/application/common/console/console.c ****  Function Name: con_process_char
 336:../src/renesas/application/common/console/console.c ****  Description:   Function to process a character
 337:../src/renesas/application/common/console/console.c ****  Arguments:     IN  pCom - pointer to the command object
 338:../src/renesas/application/common/console/console.c ****                 IN  chChar - The character to process
 339:../src/renesas/application/common/console/console.c ****                 IN  pbfCommand - Pointer to a flag that is set when a
 340:../src/renesas/application/common/console/console.c ****                                  command is received
 341:../src/renesas/application/common/console/console.c ****  Return value:  0 for success otherwise error code
 342:../src/renesas/application/common/console/console.c ****  ******************************************************************************/
 343:../src/renesas/application/common/console/console.c **** e_cmderr_t con_process_char(pst_comset_t pCom, char chChar, _Bool *pbfCommand)
 344:../src/renesas/application/common/console/console.c **** {
 345:../src/renesas/application/common/console/console.c ****     *pbfCommand = false;
 346:../src/renesas/application/common/console/console.c **** 
 347:../src/renesas/application/common/console/console.c ****     switch (chChar)
 348:../src/renesas/application/common/console/console.c ****     {
 349:../src/renesas/application/common/console/console.c ****         /* Ignore escape sequence start */
 350:../src/renesas/application/common/console/console.c ****         case CMD_ESCAPE_CHARACTER:
 351:../src/renesas/application/common/console/console.c ****         {
 352:../src/renesas/application/common/console/console.c ****             /* suppress echo */
 353:../src/renesas/application/common/console/console.c ****             pCom->va.escape_sequence = ESC_ESCAPE_SEQUENCE;
 354:../src/renesas/application/common/console/console.c ****             pCom->va.buffer_index = 0;
 355:../src/renesas/application/common/console/console.c ****         }
 356:../src/renesas/application/common/console/console.c ****         break;
 357:../src/renesas/application/common/console/console.c **** 
 358:../src/renesas/application/common/console/console.c ****         case '\b':                            /* White out on back space */
 359:../src/renesas/application/common/console/console.c ****         case  0x7F:                            /* PuTTY sends non-ASCII back space */
 360:../src/renesas/application/common/console/console.c ****         {
 361:../src/renesas/application/common/console/console.c ****             if (0 != pCom->va.buffer_index)
 362:../src/renesas/application/common/console/console.c ****             {
 363:../src/renesas/application/common/console/console.c **** #ifdef SERIAL
 364:../src/renesas/application/common/console/console.c ****                 fprintf(pCom->p_out, "\b \b");
 365:../src/renesas/application/common/console/console.c **** #endif
 366:../src/renesas/application/common/console/console.c ****                 pCom->va.buffer_index--;
 367:../src/renesas/application/common/console/console.c ****             }
 368:../src/renesas/application/common/console/console.c ****         }
 369:../src/renesas/application/common/console/console.c ****         break;
 370:../src/renesas/application/common/console/console.c **** 
 371:../src/renesas/application/common/console/console.c **** #ifdef SERIAL
 372:../src/renesas/application/common/console/console.c ****         case '\n':                            /* New line - ignore */
 373:../src/renesas/application/common/console/console.c ****         {
 374:../src/renesas/application/common/console/console.c ****             __asm ("nop");
 375:../src/renesas/application/common/console/console.c ****         }
 376:../src/renesas/application/common/console/console.c ****         break;
 377:../src/renesas/application/common/console/console.c **** #endif
 378:../src/renesas/application/common/console/console.c **** 
 379:../src/renesas/application/common/console/console.c ****         /* End of escape sequence */
 380:../src/renesas/application/common/console/console.c ****         case ';':
 381:../src/renesas/application/common/console/console.c ****         {
 382:../src/renesas/application/common/console/console.c ****             if (ESC_NO_ESCAPE == pCom->va.escape_sequence)
 383:../src/renesas/application/common/console/console.c ****             {
 384:../src/renesas/application/common/console/console.c ****                 return process_ordinary_char(pCom, chChar, pbfCommand);
 385:../src/renesas/application/common/console/console.c ****             }
 386:../src/renesas/application/common/console/console.c **** 
 387:../src/renesas/application/common/console/console.c ****                return terminate_command(pCom, chChar, pbfCommand);
 388:../src/renesas/application/common/console/console.c ****         }
 389:../src/renesas/application/common/console/console.c **** 
 390:../src/renesas/application/common/console/console.c ****         case '~':
 391:../src/renesas/application/common/console/console.c ****         {
 392:../src/renesas/application/common/console/console.c ****             if (ESC_NO_ESCAPE == pCom->va.escape_sequence)
 393:../src/renesas/application/common/console/console.c ****             {
 394:../src/renesas/application/common/console/console.c ****                 return process_ordinary_char(pCom, chChar, pbfCommand);
 395:../src/renesas/application/common/console/console.c ****             }
 396:../src/renesas/application/common/console/console.c **** 
 397:../src/renesas/application/common/console/console.c ****             return terminate_command(pCom, chChar, pbfCommand);
 398:../src/renesas/application/common/console/console.c ****         }
 399:../src/renesas/application/common/console/console.c **** 
 400:../src/renesas/application/common/console/console.c ****         case 0:
 401:../src/renesas/application/common/console/console.c ****         {
 402:../src/renesas/application/common/console/console.c ****             if (ESC_NO_ESCAPE == pCom->va.escape_sequence)
 403:../src/renesas/application/common/console/console.c ****             {
 404:../src/renesas/application/common/console/console.c ****                 break;
 405:../src/renesas/application/common/console/console.c ****             }
 406:../src/renesas/application/common/console/console.c **** 
 407:../src/renesas/application/common/console/console.c ****             return terminate_command(pCom, chChar, pbfCommand);
 408:../src/renesas/application/common/console/console.c ****         }
 409:../src/renesas/application/common/console/console.c **** 
 410:../src/renesas/application/common/console/console.c **** #ifdef SERIAL
 411:../src/renesas/application/common/console/console.c ****         case '\r':                            /* return - do function */
 412:../src/renesas/application/common/console/console.c **** #else
 413:../src/renesas/application/common/console/console.c ****         case '\n':
 414:../src/renesas/application/common/console/console.c **** #endif
 415:../src/renesas/application/common/console/console.c ****         {
 416:../src/renesas/application/common/console/console.c ****             return terminate_command(pCom, chChar, pbfCommand);
 417:../src/renesas/application/common/console/console.c ****         }
 418:../src/renesas/application/common/console/console.c **** 
 419:../src/renesas/application/common/console/console.c ****         /* All other characters */
 420:../src/renesas/application/common/console/console.c ****         default:
 421:../src/renesas/application/common/console/console.c ****         {
 422:../src/renesas/application/common/console/console.c ****             return process_ordinary_char(pCom, chChar, pbfCommand);
 423:../src/renesas/application/common/console/console.c ****         }
 424:../src/renesas/application/common/console/console.c ****     }
 425:../src/renesas/application/common/console/console.c **** 
 426:../src/renesas/application/common/console/console.c ****     return CMD_OK;
 427:../src/renesas/application/common/console/console.c **** }
 428:../src/renesas/application/common/console/console.c **** /******************************************************************************
 429:../src/renesas/application/common/console/console.c ****  End of function con_process_char
 430:../src/renesas/application/common/console/console.c ****  ******************************************************************************/
 431:../src/renesas/application/common/console/console.c **** 
 432:../src/renesas/application/common/console/console.c **** /******************************************************************************
 433:../src/renesas/application/common/console/console.c ****  Function Name: con_print_prompt
 434:../src/renesas/application/common/console/console.c ****  Description  : Function to print the command prompt
 435:../src/renesas/application/common/console/console.c ****  Arguments    : IN  pCom - pointer to the command object
 436:../src/renesas/application/common/console/console.c ****  Return Value : 0 for success otherwise error code
 437:../src/renesas/application/common/console/console.c ****  ******************************************************************************/
 438:../src/renesas/application/common/console/console.c **** static int16_t con_print_prompt(pst_comset_t pCom)
 439:../src/renesas/application/common/console/console.c **** {
  25              		.loc 1 439 0
  26              		.cfi_startproc
  27              		@ args = 0, pretend = 0, frame = 0
  28              		@ frame_needed = 0, uses_anonymous_args = 0
  29              	.LVL0:
 440:../src/renesas/application/common/console/console.c ****     int16_t result = 0;
 441:../src/renesas/application/common/console/console.c **** 
 442:../src/renesas/application/common/console/console.c ****     /* Don't print a NULL prompt */
 443:../src/renesas/application/common/console/console.c ****     if (pCom->p_prompt)
  30              		.loc 1 443 0
  31 0000 303C90E5 		ldr	r3, [r0, #3120]
  32 0004 000053E3 		cmp	r3, #0
  33 0008 0A00000A 		beq	.L3
 439:../src/renesas/application/common/console/console.c ****     int16_t result = 0;
  34              		.loc 1 439 0
  35 000c 10402DE9 		push	{r4, lr}
  36              		.cfi_def_cfa_offset 8
  37              		.cfi_offset 4, -8
  38              		.cfi_offset 14, -4
  39 0010 0040A0E1 		mov	r4, r0
 444:../src/renesas/application/common/console/console.c ****     {
 445:../src/renesas/application/common/console/console.c ****         fflush(pCom->p_out);
  40              		.loc 1 445 0
  41 0014 380C90E5 		ldr	r0, [r0, #3128]
  42              	.LVL1:
  43 0018 FEFFFFEB 		bl	fflush
  44              	.LVL2:
 446:../src/renesas/application/common/console/console.c ****         result = (int16_t)fprintf(pCom->p_out, "\r\n%s ",  pCom->p_prompt);
  45              		.loc 1 446 0
  46 001c 302C94E5 		ldr	r2, [r4, #3120]
  47 0020 001000E3 		movw	r1, #:lower16:.LC0
  48 0024 001040E3 		movt	r1, #:upper16:.LC0
  49 0028 380C94E5 		ldr	r0, [r4, #3128]
  50 002c FEFFFFEB 		bl	fprintf
  51              	.LVL3:
  52 0030 7000BFE6 		sxth	r0, r0
  53              	.LVL4:
  54 0034 1080BDE8 		pop	{r4, pc}
  55              	.LVL5:
  56              	.L3:
  57              		.cfi_def_cfa_offset 0
  58              		.cfi_restore 4
  59              		.cfi_restore 14
 440:../src/renesas/application/common/console/console.c **** 
  60              		.loc 1 440 0
  61 0038 0000A0E3 		mov	r0, #0
  62              	.LVL6:
  63 003c 1EFF2FE1 		bx	lr
  64              		.cfi_endproc
  65              	.LFE11:
  67              		.section	.text.con_init_arg_list,"ax",%progbits
  68              		.align	2
  69              		.syntax unified
  70              		.arm
  71              		.fpu neon
  73              	con_init_arg_list:
  74              	.LFB13:
 447:../src/renesas/application/common/console/console.c ****     }
 448:../src/renesas/application/common/console/console.c **** 
 449:../src/renesas/application/common/console/console.c ****     return result;
 450:../src/renesas/application/common/console/console.c **** }
 451:../src/renesas/application/common/console/console.c **** /******************************************************************************
 452:../src/renesas/application/common/console/console.c ****  End of function con_print_prompt
 453:../src/renesas/application/common/console/console.c ****  ******************************************************************************/
 454:../src/renesas/application/common/console/console.c **** 
 455:../src/renesas/application/common/console/console.c **** /******************************************************************************
 456:../src/renesas/application/common/console/console.c ****  Function Name: con_split_line
 457:../src/renesas/application/common/console/console.c ****  Description  : Function to split the command line in to the argument array
 458:../src/renesas/application/common/console/console.c ****  Arguments    : IN  pszLine - Pointer to the command line
 459:../src/renesas/application/common/console/console.c ****                 IN  pszArguments - Pointer to the arguments
 460:../src/renesas/application/common/console/console.c ****  Return Value : The number of arguments split
 461:../src/renesas/application/common/console/console.c ****  ******************************************************************************/
 462:../src/renesas/application/common/console/console.c **** static int con_split_line(char *pszLine, char **pszArguments)
 463:../src/renesas/application/common/console/console.c **** {
 464:../src/renesas/application/common/console/console.c ****     int16_t arg_count;
 465:../src/renesas/application/common/console/console.c ****     int16_t count;
 466:../src/renesas/application/common/console/console.c ****     char * p_argument;
 467:../src/renesas/application/common/console/console.c **** 
 468:../src/renesas/application/common/console/console.c ****     for (arg_count = 0; (arg_count < CMD_MAX_ARG) && (*pszLine); arg_count++)
 469:../src/renesas/application/common/console/console.c ****     {
 470:../src/renesas/application/common/console/console.c ****         p_argument = pszArguments[arg_count];
 471:../src/renesas/application/common/console/console.c **** 
 472:../src/renesas/application/common/console/console.c ****         /* Look for the first white space */
 473:../src/renesas/application/common/console/console.c ****         while ((*pszLine) && (isspace(*pszLine)))
 474:../src/renesas/application/common/console/console.c ****         {
 475:../src/renesas/application/common/console/console.c ****             pszLine++;
 476:../src/renesas/application/common/console/console.c ****         }
 477:../src/renesas/application/common/console/console.c **** 
 478:../src/renesas/application/common/console/console.c ****         /* Initialise the argument length counter */
 479:../src/renesas/application/common/console/console.c ****         count = 0;
 480:../src/renesas/application/common/console/console.c **** 
 481:../src/renesas/application/common/console/console.c ****         /* Allow inverted commas to specify file names with spaces in */
 482:../src/renesas/application/common/console/console.c ****         if ('\"' == (*pszLine))
 483:../src/renesas/application/common/console/console.c ****         {
 484:../src/renesas/application/common/console/console.c ****             pszLine++;
 485:../src/renesas/application/common/console/console.c **** 
 486:../src/renesas/application/common/console/console.c ****             /* Copy the string until the next inverted comma or end of line */
 487:../src/renesas/application/common/console/console.c ****             while ((*pszLine) && ('\"' != (*pszLine)))
 488:../src/renesas/application/common/console/console.c ****             {
 489:../src/renesas/application/common/console/console.c ****                 count++;
 490:../src/renesas/application/common/console/console.c ****                 if (count >= CMD_MAX_ARG_LENGTH)
 491:../src/renesas/application/common/console/console.c ****                 {
 492:../src/renesas/application/common/console/console.c ****                     *p_argument = '\0';
 493:../src/renesas/application/common/console/console.c ****                     break;
 494:../src/renesas/application/common/console/console.c ****                 }
 495:../src/renesas/application/common/console/console.c **** 
 496:../src/renesas/application/common/console/console.c ****                 *p_argument++ = *pszLine++;
 497:../src/renesas/application/common/console/console.c ****             }
 498:../src/renesas/application/common/console/console.c **** 
 499:../src/renesas/application/common/console/console.c ****             /* Skip the " character */
 500:../src/renesas/application/common/console/console.c ****             pszLine++;
 501:../src/renesas/application/common/console/console.c ****         }
 502:../src/renesas/application/common/console/console.c **** 
 503:../src/renesas/application/common/console/console.c ****         /* Copy and argument until the end of the line or the next space */
 504:../src/renesas/application/common/console/console.c ****         while ((*pszLine) && (!isspace(*pszLine)))
 505:../src/renesas/application/common/console/console.c ****         {
 506:../src/renesas/application/common/console/console.c ****             count++;
 507:../src/renesas/application/common/console/console.c ****             if (count >= CMD_MAX_ARG_LENGTH)
 508:../src/renesas/application/common/console/console.c ****             {
 509:../src/renesas/application/common/console/console.c ****                 *p_argument = '\0';
 510:../src/renesas/application/common/console/console.c ****                 break;
 511:../src/renesas/application/common/console/console.c ****             }
 512:../src/renesas/application/common/console/console.c **** 
 513:../src/renesas/application/common/console/console.c ****             *p_argument++ = *pszLine++;
 514:../src/renesas/application/common/console/console.c ****         }
 515:../src/renesas/application/common/console/console.c ****     }
 516:../src/renesas/application/common/console/console.c **** 
 517:../src/renesas/application/common/console/console.c ****     if (arg_count > CMD_MAX_ARG)
 518:../src/renesas/application/common/console/console.c ****     {
 519:../src/renesas/application/common/console/console.c ****         arg_count = CMD_MAX_ARG;
 520:../src/renesas/application/common/console/console.c ****     }
 521:../src/renesas/application/common/console/console.c **** 
 522:../src/renesas/application/common/console/console.c ****     return arg_count;
 523:../src/renesas/application/common/console/console.c **** }
 524:../src/renesas/application/common/console/console.c **** /******************************************************************************
 525:../src/renesas/application/common/console/console.c ****  End of function con_split_line
 526:../src/renesas/application/common/console/console.c ****  ******************************************************************************/
 527:../src/renesas/application/common/console/console.c **** 
 528:../src/renesas/application/common/console/console.c **** /******************************************************************************
 529:../src/renesas/application/common/console/console.c ****  Function Name: con_init_arg_list
 530:../src/renesas/application/common/console/console.c ****  Description  : Function to initialise the argument list
 531:../src/renesas/application/common/console/console.c ****  Arguments    : IN  pCom - pointer to the command object
 532:../src/renesas/application/common/console/console.c ****  Return Value : none
 533:../src/renesas/application/common/console/console.c ****  ******************************************************************************/
 534:../src/renesas/application/common/console/console.c **** static void con_init_arg_list(pst_comset_t pCom)
 535:../src/renesas/application/common/console/console.c **** {
  75              		.loc 1 535 0
  76              		.cfi_startproc
  77              		@ args = 0, pretend = 0, frame = 0
  78              		@ frame_needed = 0, uses_anonymous_args = 0
  79              	.LVL7:
  80 0000 70402DE9 		push	{r4, r5, r6, lr}
  81              		.cfi_def_cfa_offset 16
  82              		.cfi_offset 4, -16
  83              		.cfi_offset 5, -12
  84              		.cfi_offset 6, -8
  85              		.cfi_offset 14, -4
  86              	.LVL8:
 536:../src/renesas/application/common/console/console.c ****     int8_t count = CMD_MAX_ARG;
 537:../src/renesas/application/common/console/console.c **** 
 538:../src/renesas/application/common/console/console.c ****     /* cast to char ** */
 539:../src/renesas/application/common/console/console.c ****     char **p_arguments = (char **) pCom->va.arguments;
  87              		.loc 1 539 0
  88 0004 825E80E2 		add	r5, r0, #2080
  89              	.LVL9:
 540:../src/renesas/application/common/console/console.c **** 
 541:../src/renesas/application/common/console/console.c ****     /* cast to char * */
 542:../src/renesas/application/common/console/console.c ****     char *p_argument = ((char *) pCom->va.arguments) + (CMD_MAX_ARG * sizeof(char *));
  90              		.loc 1 542 0
  91 0008 214D80E2 		add	r4, r0, #2112
  92              	.LVL10:
 543:../src/renesas/application/common/console/console.c **** 
 544:../src/renesas/application/common/console/console.c ****     /* Initialise all the data */
 545:../src/renesas/application/common/console/console.c ****     memset(pCom->va.arguments, 0, (CMD_MAX_ARG * CMD_MAX_ARG_LENGTH));
  93              		.loc 1 545 0
  94 000c 012BA0E3 		mov	r2, #1024
  95 0010 0010A0E3 		mov	r1, #0
  96 0014 0500A0E1 		mov	r0, r5
  97              	.LVL11:
  98 0018 FEFFFFEB 		bl	memset
  99              	.LVL12:
 536:../src/renesas/application/common/console/console.c **** 
 100              		.loc 1 536 0
 101 001c 0820A0E3 		mov	r2, #8
 546:../src/renesas/application/common/console/console.c **** 
 547:../src/renesas/application/common/console/console.c ****     /* Set the pointers to the strings */
 548:../src/renesas/application/common/console/console.c ****     while (count--)
 102              		.loc 1 548 0
 103 0020 030000EA 		b	.L9
 104              	.LVL13:
 105              	.L10:
 549:../src/renesas/application/common/console/console.c ****     {
 550:../src/renesas/application/common/console/console.c ****         *p_arguments++ = p_argument;
 106              		.loc 1 550 0
 107 0024 004085E5 		str	r4, [r5]
 551:../src/renesas/application/common/console/console.c ****         p_argument += CMD_MAX_ARG_LENGTH;
 108              		.loc 1 551 0
 109 0028 804084E2 		add	r4, r4, #128
 110              	.LVL14:
 550:../src/renesas/application/common/console/console.c ****         p_argument += CMD_MAX_ARG_LENGTH;
 111              		.loc 1 550 0
 112 002c 045085E2 		add	r5, r5, #4
 113              	.LVL15:
 548:../src/renesas/application/common/console/console.c ****     {
 114              		.loc 1 548 0
 115 0030 0320A0E1 		mov	r2, r3
 116              	.LVL16:
 117              	.L9:
 118 0034 013042E2 		sub	r3, r2, #1
 119 0038 7330AFE6 		sxtb	r3, r3
 120              	.LVL17:
 121 003c 000052E3 		cmp	r2, #0
 122 0040 F7FFFF1A 		bne	.L10
 552:../src/renesas/application/common/console/console.c ****     }
 553:../src/renesas/application/common/console/console.c **** }
 123              		.loc 1 553 0
 124 0044 7080BDE8 		pop	{r4, r5, r6, pc}
 125              		.cfi_endproc
 126              	.LFE13:
 128              		.section	.text.con_split_line,"ax",%progbits
 129              		.align	2
 130              		.syntax unified
 131              		.arm
 132              		.fpu neon
 134              	con_split_line:
 135              	.LFB12:
 463:../src/renesas/application/common/console/console.c ****     int16_t arg_count;
 136              		.loc 1 463 0
 137              		.cfi_startproc
 138              		@ args = 0, pretend = 0, frame = 0
 139              		@ frame_needed = 0, uses_anonymous_args = 0
 140              	.LVL18:
 141 0000 F0412DE9 		push	{r4, r5, r6, r7, r8, lr}
 142              		.cfi_def_cfa_offset 24
 143              		.cfi_offset 4, -24
 144              		.cfi_offset 5, -20
 145              		.cfi_offset 6, -16
 146              		.cfi_offset 7, -12
 147              		.cfi_offset 8, -8
 148              		.cfi_offset 14, -4
 149 0004 0040A0E1 		mov	r4, r0
 150 0008 0180A0E1 		mov	r8, r1
 151              	.LVL19:
 468:../src/renesas/application/common/console/console.c ****     {
 152              		.loc 1 468 0
 153 000c 0070A0E3 		mov	r7, #0
 154 0010 330000EA 		b	.L13
 155              	.LVL20:
 156              	.L16:
 475:../src/renesas/application/common/console/console.c ****         }
 157              		.loc 1 475 0
 158 0014 014084E2 		add	r4, r4, #1
 159              	.LVL21:
 160              	.L14:
 473:../src/renesas/application/common/console/console.c ****         {
 161              		.loc 1 473 0
 162 0018 0030D4E5 		ldrb	r3, [r4]	@ zero_extendqisi2
 163 001c 000053E3 		cmp	r3, #0
 164 0020 0500000A 		beq	.L15
 473:../src/renesas/application/common/console/console.c ****         {
 165              		.loc 1 473 0 is_stmt 0 discriminator 1
 166 0024 FEFFFFEB 		bl	__locale_ctype_ptr
 167              	.LVL22:
 168 0028 0030D4E5 		ldrb	r3, [r4]	@ zero_extendqisi2
 169 002c 030080E0 		add	r0, r0, r3
 170 0030 0130D0E5 		ldrb	r3, [r0, #1]	@ zero_extendqisi2
 171 0034 080013E3 		tst	r3, #8
 172 0038 F5FFFF1A 		bne	.L16
 173              	.L15:
 174              	.LVL23:
 482:../src/renesas/application/common/console/console.c ****         {
 175              		.loc 1 482 0 is_stmt 1
 176 003c 0030D4E5 		ldrb	r3, [r4]	@ zero_extendqisi2
 177 0040 220053E3 		cmp	r3, #34
 178 0044 1100000A 		beq	.L32
 479:../src/renesas/application/common/console/console.c **** 
 179              		.loc 1 479 0
 180 0048 0050A0E3 		mov	r5, #0
 181              	.LVL24:
 182              	.L22:
 504:../src/renesas/application/common/console/console.c ****         {
 183              		.loc 1 504 0
 184 004c 0030D4E5 		ldrb	r3, [r4]	@ zero_extendqisi2
 185 0050 000053E3 		cmp	r3, #0
 186 0054 2000000A 		beq	.L24
 504:../src/renesas/application/common/console/console.c ****         {
 187              		.loc 1 504 0 is_stmt 0 discriminator 1
 188 0058 FEFFFFEB 		bl	__locale_ctype_ptr
 189              	.LVL25:
 190 005c 0030D4E5 		ldrb	r3, [r4]	@ zero_extendqisi2
 191 0060 030080E0 		add	r0, r0, r3
 192 0064 0120D0E5 		ldrb	r2, [r0, #1]	@ zero_extendqisi2
 193 0068 080012E3 		tst	r2, #8
 194 006c 1A00001A 		bne	.L24
 506:../src/renesas/application/common/console/console.c ****             if (count >= CMD_MAX_ARG_LENGTH)
 195              		.loc 1 506 0 is_stmt 1
 196 0070 015085E2 		add	r5, r5, #1
 197              	.LVL26:
 198 0074 7550BFE6 		sxth	r5, r5
 199              	.LVL27:
 507:../src/renesas/application/common/console/console.c ****             {
 200              		.loc 1 507 0
 201 0078 7F0055E3 		cmp	r5, #127
 202 007c 140000CA 		bgt	.L33
 203              	.LVL28:
 513:../src/renesas/application/common/console/console.c ****         }
 204              		.loc 1 513 0
 205 0080 014084E2 		add	r4, r4, #1
 206              	.LVL29:
 207 0084 0030C6E5 		strb	r3, [r6]
 208 0088 016086E2 		add	r6, r6, #1
 209              	.LVL30:
 210 008c EEFFFFEA 		b	.L22
 211              	.LVL31:
 212              	.L32:
 484:../src/renesas/application/common/console/console.c **** 
 213              		.loc 1 484 0
 214 0090 014084E2 		add	r4, r4, #1
 215              	.LVL32:
 479:../src/renesas/application/common/console/console.c **** 
 216              		.loc 1 479 0
 217 0094 0050A0E3 		mov	r5, #0
 218              	.LVL33:
 219              	.L18:
 487:../src/renesas/application/common/console/console.c ****             {
 220              		.loc 1 487 0
 221 0098 0030D4E5 		ldrb	r3, [r4]	@ zero_extendqisi2
 222 009c 000053E3 		cmp	r3, #0
 223 00a0 22005313 		cmpne	r3, #34
 224 00a4 0800000A 		beq	.L20
 489:../src/renesas/application/common/console/console.c ****                 if (count >= CMD_MAX_ARG_LENGTH)
 225              		.loc 1 489 0
 226 00a8 015085E2 		add	r5, r5, #1
 227              	.LVL34:
 228 00ac 7550BFE6 		sxth	r5, r5
 229              	.LVL35:
 490:../src/renesas/application/common/console/console.c ****                 {
 230              		.loc 1 490 0
 231 00b0 7F0055E3 		cmp	r5, #127
 232              	.LVL36:
 496:../src/renesas/application/common/console/console.c ****             }
 233              		.loc 1 496 0
 234 00b4 014084D2 		addle	r4, r4, #1
 235              	.LVL37:
 236 00b8 0030C6D5 		strble	r3, [r6]
 237 00bc 016086D2 		addle	r6, r6, #1
 238              	.LVL38:
 239 00c0 F4FFFFDA 		ble	.L18
 240              	.L34:
 492:../src/renesas/application/common/console/console.c ****                     break;
 241              		.loc 1 492 0
 242 00c4 0030A0E3 		mov	r3, #0
 243 00c8 0030C6E5 		strb	r3, [r6]
 244              	.L20:
 500:../src/renesas/application/common/console/console.c ****         }
 245              		.loc 1 500 0
 246 00cc 014084E2 		add	r4, r4, #1
 247              	.LVL39:
 248 00d0 DDFFFFEA 		b	.L22
 249              	.L33:
 509:../src/renesas/application/common/console/console.c ****                 break;
 250              		.loc 1 509 0
 251 00d4 0030A0E3 		mov	r3, #0
 252 00d8 0030C6E5 		strb	r3, [r6]
 253              	.L24:
 468:../src/renesas/application/common/console/console.c ****     {
 254              		.loc 1 468 0 discriminator 2
 255 00dc 017087E2 		add	r7, r7, #1
 256              	.LVL40:
 257 00e0 7770BFE6 		sxth	r7, r7
 258              	.LVL41:
 259              	.L13:
 468:../src/renesas/application/common/console/console.c ****     {
 260              		.loc 1 468 0 is_stmt 0 discriminator 1
 261 00e4 070057E3 		cmp	r7, #7
 262 00e8 030000CA 		bgt	.L26
 468:../src/renesas/application/common/console/console.c ****     {
 263              		.loc 1 468 0 discriminator 3
 264 00ec 0030D4E5 		ldrb	r3, [r4]	@ zero_extendqisi2
 265 00f0 000053E3 		cmp	r3, #0
 470:../src/renesas/application/common/console/console.c **** 
 266              		.loc 1 470 0 is_stmt 1
 267 00f4 07619817 		ldrne	r6, [r8, r7, lsl #2]
 268              	.LVL42:
 473:../src/renesas/application/common/console/console.c ****         {
 269              		.loc 1 473 0
 270 00f8 C6FFFF1A 		bne	.L14
 271              	.LVL43:
 272              	.L26:
 517:../src/renesas/application/common/console/console.c ****     {
 273              		.loc 1 517 0
 274 00fc 080057E3 		cmp	r7, #8
 519:../src/renesas/application/common/console/console.c ****     }
 275              		.loc 1 519 0
 276 0100 0870A0C3 		movgt	r7, #8
 277              	.LVL44:
 278              	.L28:
 523:../src/renesas/application/common/console/console.c **** /******************************************************************************
 279              		.loc 1 523 0
 280 0104 0700A0E1 		mov	r0, r7
 281 0108 F081BDE8 		pop	{r4, r5, r6, r7, r8, pc}
 282              		.cfi_endproc
 283              	.LFE12:
 285              		.section	.text.con_execute,"ax",%progbits
 286              		.align	2
 287              		.syntax unified
 288              		.arm
 289              		.fpu neon
 291              	con_execute:
 292              	.LFB14:
 554:../src/renesas/application/common/console/console.c **** /******************************************************************************
 555:../src/renesas/application/common/console/console.c ****  End of function con_init_arg_list
 556:../src/renesas/application/common/console/console.c ****  ******************************************************************************/
 557:../src/renesas/application/common/console/console.c **** 
 558:../src/renesas/application/common/console/console.c **** /******************************************************************************
 559:../src/renesas/application/common/console/console.c ****  Function Name: con_execute
 560:../src/renesas/application/common/console/console.c ****  Description  : Function to execute the command function
 561:../src/renesas/application/common/console/console.c ****  Arguments    : IN  pCom - pointer to the command object
 562:../src/renesas/application/common/console/console.c ****                 IN  pCmdList - pointer to a list of commands to match against
 563:../src/renesas/application/common/console/console.c ****                 OUT pbfValidCommand - pointer to a flag set true when command
 564:../src/renesas/application/common/console/console.c ****                                       matched
 565:../src/renesas/application/common/console/console.c ****  Return Value : 0 for success otherwise error code
 566:../src/renesas/application/common/console/console.c ****  ******************************************************************************/
 567:../src/renesas/application/common/console/console.c **** static e_cmderr_t con_execute(pst_comset_t pCom, cpst_command_table_t pCmdList, _Bool *pbfValidComm
 568:../src/renesas/application/common/console/console.c **** {
 293              		.loc 1 568 0
 294              		.cfi_startproc
 295              		@ args = 0, pretend = 0, frame = 8
 296              		@ frame_needed = 0, uses_anonymous_args = 0
 297              	.LVL45:
 298 0000 F04F2DE9 		push	{r4, r5, r6, r7, r8, r9, r10, fp, lr}
 299              		.cfi_def_cfa_offset 36
 300              		.cfi_offset 4, -36
 301              		.cfi_offset 5, -32
 302              		.cfi_offset 6, -28
 303              		.cfi_offset 7, -24
 304              		.cfi_offset 8, -20
 305              		.cfi_offset 9, -16
 306              		.cfi_offset 10, -12
 307              		.cfi_offset 11, -8
 308              		.cfi_offset 14, -4
 309 0004 0CD04DE2 		sub	sp, sp, #12
 310              		.cfi_def_cfa_offset 48
 311 0008 02A0A0E1 		mov	r10, r2
 569:../src/renesas/application/common/console/console.c ****     /* Check for a valid command list pointer */
 570:../src/renesas/application/common/console/console.c ****     if (NULL != pCmdList)
 312              		.loc 1 570 0
 313 000c 006051E2 		subs	r6, r1, #0
 314 0010 2A00000A 		beq	.L36
 315 0014 0090A0E1 		mov	r9, r0
 316              	.LBB2:
 571:../src/renesas/application/common/console/console.c ****     {
 572:../src/renesas/application/common/console/console.c ****         uint32_t cmd_len;
 573:../src/renesas/application/common/console/console.c ****         uint32_t length;
 574:../src/renesas/application/common/console/console.c ****         int16_t func_index;
 575:../src/renesas/application/common/console/console.c ****         int8_t arg_count;
 576:../src/renesas/application/common/console/console.c **** 
 577:../src/renesas/application/common/console/console.c ****         /* Initialise the argument list */
 578:../src/renesas/application/common/console/console.c ****         con_init_arg_list(pCom);
 317              		.loc 1 578 0
 318 0018 FEFFFFEB 		bl	con_init_arg_list
 319              	.LVL46:
 579:../src/renesas/application/common/console/console.c **** 
 580:../src/renesas/application/common/console/console.c ****         /* Split the command line */
 581:../src/renesas/application/common/console/console.c ****         arg_count = (int8_t)con_split_line(pCom->va.buffer, (char **) pCom->va.arguments);
 320              		.loc 1 581 0
 321 001c 82BE89E2 		add	fp, r9, #2080
 322 0020 0B10A0E1 		mov	r1, fp
 323 0024 0900A0E1 		mov	r0, r9
 324 0028 FEFFFFEB 		bl	con_split_line
 325              	.LVL47:
 326 002c 7030AFE6 		sxtb	r3, r0
 327 0030 04308DE5 		str	r3, [sp, #4]
 328              	.LVL48:
 582:../src/renesas/application/common/console/console.c **** 
 583:../src/renesas/application/common/console/console.c ****         /* Get the length of the command */
 584:../src/renesas/application/common/console/console.c ****         cmd_len = (uint32_t) strlen((*(char **) pCom->va.arguments));
 329              		.loc 1 584 0
 330 0034 200899E5 		ldr	r0, [r9, #2080]
 331 0038 FEFFFFEB 		bl	strlen
 332              	.LVL49:
 333 003c 0070A0E1 		mov	r7, r0
 334              	.LVL50:
 585:../src/renesas/application/common/console/console.c **** 
 586:../src/renesas/application/common/console/console.c ****         /* check against list of command tokens */
 587:../src/renesas/application/common/console/console.c ****         for (func_index = 0; func_index < (int) pCmdList->number_of_commands; func_index++)
 335              		.loc 1 587 0
 336 0040 0040A0E3 		mov	r4, #0
 337 0044 010000EA 		b	.L37
 338              	.LVL51:
 339              	.L38:
 340              		.loc 1 587 0 is_stmt 0 discriminator 2
 341 0048 014084E2 		add	r4, r4, #1
 342              	.LVL52:
 343 004c 7440BFE6 		sxth	r4, r4
 344              	.LVL53:
 345              	.L37:
 346              		.loc 1 587 0 discriminator 1
 347 0050 243096E5 		ldr	r3, [r6, #36]
 348 0054 030054E1 		cmp	r4, r3
 349 0058 180000AA 		bge	.L36
 350              	.LBB3:
 588:../src/renesas/application/common/console/console.c ****         {
 589:../src/renesas/application/common/console/console.c ****             /* Get pointer to the associated command */
 590:../src/renesas/application/common/console/console.c ****             char * p_string = pCmdList->command_list[func_index].p_command;
 351              		.loc 1 590 0 is_stmt 1
 352 005c 201096E5 		ldr	r1, [r6, #32]
 353 0060 842084E0 		add	r2, r4, r4, lsl #1
 354 0064 0231A0E1 		lsl	r3, r2, #2
 355 0068 0380A0E1 		mov	r8, r3
 356 006c 035091E7 		ldr	r5, [r1, r3]
 357              	.LVL54:
 591:../src/renesas/application/common/console/console.c **** 
 592:../src/renesas/application/common/console/console.c ****             /* Calculate command length */
 593:../src/renesas/application/common/console/console.c ****             length = (uint32_t) strlen(p_string);
 358              		.loc 1 593 0
 359 0070 0500A0E1 		mov	r0, r5
 360 0074 FEFFFFEB 		bl	strlen
 361              	.LVL55:
 594:../src/renesas/application/common/console/console.c **** 
 595:../src/renesas/application/common/console/console.c ****             /* Check the length of the command */
 596:../src/renesas/application/common/console/console.c ****             if (cmd_len == length)
 362              		.loc 1 596 0
 363 0078 000057E1 		cmp	r7, r0
 364 007c F1FFFF1A 		bne	.L38
 597:../src/renesas/application/common/console/console.c ****             {
 598:../src/renesas/application/common/console/console.c ****                 /* Command line has been matched */
 599:../src/renesas/application/common/console/console.c ****                 if (wild_compare(p_string, (*(char **) pCom->va.arguments)))
 365              		.loc 1 599 0
 366 0080 201899E5 		ldr	r1, [r9, #2080]
 367 0084 0500A0E1 		mov	r0, r5
 368              	.LVL56:
 369 0088 FEFFFFEB 		bl	wild_compare
 370              	.LVL57:
 371 008c 000050E3 		cmp	r0, #0
 372 0090 ECFFFF0A 		beq	.L38
 600:../src/renesas/application/common/console/console.c ****                 {
 601:../src/renesas/application/common/console/console.c ****                     /* Show that we are processing a valid command */
 602:../src/renesas/application/common/console/console.c ****                     *pbfValidCommand = true;
 373              		.loc 1 602 0
 374 0094 0130A0E3 		mov	r3, #1
 375 0098 0030CAE5 		strb	r3, [r10]
 603:../src/renesas/application/common/console/console.c **** 
 604:../src/renesas/application/common/console/console.c ****                     /* Execute the command */
 605:../src/renesas/application/common/console/console.c ****                     return (e_cmderr_t) pCmdList->command_list[func_index].function(arg_count, (cha
 376              		.loc 1 605 0
 377 009c 203096E5 		ldr	r3, [r6, #32]
 378 00a0 088083E0 		add	r8, r3, r8
 379 00a4 043098E5 		ldr	r3, [r8, #4]
 380 00a8 0920A0E1 		mov	r2, r9
 381 00ac 0B10A0E1 		mov	r1, fp
 382 00b0 04009DE5 		ldr	r0, [sp, #4]
 383 00b4 33FF2FE1 		blx	r3
 384              	.LVL58:
 385 00b8 7000EFE6 		uxtb	r0, r0
 386 00bc 010000EA 		b	.L39
 387              	.LVL59:
 388              	.L36:
 389              	.LBE3:
 390              	.LBE2:
 606:../src/renesas/application/common/console/console.c ****                 }
 607:../src/renesas/application/common/console/console.c ****             }
 608:../src/renesas/application/common/console/console.c ****         }
 609:../src/renesas/application/common/console/console.c ****     }
 610:../src/renesas/application/common/console/console.c **** 
 611:../src/renesas/application/common/console/console.c ****     /* No command matched */
 612:../src/renesas/application/common/console/console.c ****     *pbfValidCommand = false;
 391              		.loc 1 612 0
 392 00c0 0000A0E3 		mov	r0, #0
 393 00c4 0000CAE5 		strb	r0, [r10]
 394              	.L39:
 613:../src/renesas/application/common/console/console.c **** 
 614:../src/renesas/application/common/console/console.c ****     return CMD_OK;
 615:../src/renesas/application/common/console/console.c **** }
 395              		.loc 1 615 0
 396 00c8 0CD08DE2 		add	sp, sp, #12
 397              		.cfi_def_cfa_offset 36
 398              		@ sp needed
 399 00cc F08FBDE8 		pop	{r4, r5, r6, r7, r8, r9, r10, fp, pc}
 400              		.cfi_endproc
 401              	.LFE14:
 403              		.section	.text.con_parse_command,"ax",%progbits
 404              		.align	2
 405              		.syntax unified
 406              		.arm
 407              		.fpu neon
 409              	con_parse_command:
 410              	.LFB15:
 616:../src/renesas/application/common/console/console.c **** /******************************************************************************
 617:../src/renesas/application/common/console/console.c ****  End of function con_execute
 618:../src/renesas/application/common/console/console.c ****  ******************************************************************************/
 619:../src/renesas/application/common/console/console.c **** 
 620:../src/renesas/application/common/console/console.c **** /******************************************************************************
 621:../src/renesas/application/common/console/console.c ****  Function Name: con_parse_command
 622:../src/renesas/application/common/console/console.c ****  Description  : Function to pars the command and call the handling function
 623:../src/renesas/application/common/console/console.c ****  Arguments    : IN  pCom - pointer to command table
 624:../src/renesas/application/common/console/console.c ****  Return Value : 0 for success otherwise error code
 625:../src/renesas/application/common/console/console.c ****  ******************************************************************************/
 626:../src/renesas/application/common/console/console.c **** static e_cmderr_t con_parse_command(pst_comset_t pCom)
 627:../src/renesas/application/common/console/console.c **** {
 411              		.loc 1 627 0
 412              		.cfi_startproc
 413              		@ args = 0, pretend = 0, frame = 8
 414              		@ frame_needed = 0, uses_anonymous_args = 0
 415              	.LVL60:
 416 0000 70402DE9 		push	{r4, r5, r6, lr}
 417              		.cfi_def_cfa_offset 16
 418              		.cfi_offset 4, -16
 419              		.cfi_offset 5, -12
 420              		.cfi_offset 6, -8
 421              		.cfi_offset 14, -4
 422 0004 08D04DE2 		sub	sp, sp, #8
 423              		.cfi_def_cfa_offset 24
 424              	.LVL61:
 628:../src/renesas/application/common/console/console.c ****     uint32_t eat_space_count = 0U;
 629:../src/renesas/application/common/console/console.c ****     uint32_t length;
 630:../src/renesas/application/common/console/console.c ****     _Bool valid_command = false;
 425              		.loc 1 630 0
 426 0008 0020A0E3 		mov	r2, #0
 427 000c 0720CDE5 		strb	r2, [sp, #7]
 428              	.LVL62:
 631:../src/renesas/application/common/console/console.c ****     int16_t count = 0;
 632:../src/renesas/application/common/console/console.c ****     e_cmderr_t error_code = CMD_OK;
 633:../src/renesas/application/common/console/console.c **** 
 634:../src/renesas/application/common/console/console.c ****     /* Eat any white space before the command */
 635:../src/renesas/application/common/console/console.c ****     while ((' ' == pCom->va.buffer[eat_space_count]) || ('\t' == pCom->va.buffer[eat_space_count])
 429              		.loc 1 635 0
 430 0010 000000EA 		b	.L43
 431              	.LVL63:
 432              	.L44:
 636:../src/renesas/application/common/console/console.c ****             || ('@' == pCom->va.buffer[eat_space_count]))
 637:../src/renesas/application/common/console/console.c ****     {
 638:../src/renesas/application/common/console/console.c ****         eat_space_count++;
 433              		.loc 1 638 0
 434 0014 012082E2 		add	r2, r2, #1
 435              	.LVL64:
 436              	.L43:
 635:../src/renesas/application/common/console/console.c ****             || ('@' == pCom->va.buffer[eat_space_count]))
 437              		.loc 1 635 0
 438 0018 0230D0E7 		ldrb	r3, [r0, r2]	@ zero_extendqisi2
 439 001c 090053E3 		cmp	r3, #9
 440 0020 20005313 		cmpne	r3, #32
 441 0024 FAFFFF0A 		beq	.L44
 636:../src/renesas/application/common/console/console.c ****             || ('@' == pCom->va.buffer[eat_space_count]))
 442              		.loc 1 636 0
 443 0028 400053E3 		cmp	r3, #64
 444 002c F8FFFF0A 		beq	.L44
 639:../src/renesas/application/common/console/console.c ****     }
 640:../src/renesas/application/common/console/console.c **** 
 641:../src/renesas/application/common/console/console.c ****     length = pCom->va.buffer_index - eat_space_count;
 445              		.loc 1 641 0
 446 0030 243C90E5 		ldr	r3, [r0, #3108]
 447              	.LVL65:
 642:../src/renesas/application/common/console/console.c ****     pCom->va.buffer_index = 0;
 448              		.loc 1 642 0
 449 0034 0010A0E3 		mov	r1, #0
 450 0038 241C80E5 		str	r1, [r0, #3108]
 643:../src/renesas/application/common/console/console.c **** 
 644:../src/renesas/application/common/console/console.c ****     /* Test for valid command or just CR */
 645:../src/renesas/application/common/console/console.c ****     if (length >= 1)
 451              		.loc 1 645 0
 452 003c 030052E1 		cmp	r2, r3
 453 0040 2700000A 		beq	.L51
 454 0044 0040A0E1 		mov	r4, r0
 646:../src/renesas/application/common/console/console.c ****     {
 647:../src/renesas/application/common/console/console.c ****         /* If it is not an escape sequence */
 648:../src/renesas/application/common/console/console.c ****         if (ESC_NO_ESCAPE == pCom->va.escape_sequence)
 455              		.loc 1 648 0
 456 0048 203CD0E5 		ldrb	r3, [r0, #3104]	@ zero_extendqisi2
 457              	.LVL66:
 458 004c 010053E1 		cmp	r3, r1
 459 0050 1300000A 		beq	.L53
 649:../src/renesas/application/common/console/console.c ****         {
 650:../src/renesas/application/common/console/console.c ****             /* Copy to last command buffer */
 651:../src/renesas/application/common/console/console.c ****             strcpy(pCom->va.command, pCom->va.buffer);
 652:../src/renesas/application/common/console/console.c ****         }
 653:../src/renesas/application/common/console/console.c ****         else
 654:../src/renesas/application/common/console/console.c ****         {
 655:../src/renesas/application/common/console/console.c ****             /* Cancel escape sequence */
 656:../src/renesas/application/common/console/console.c ****             pCom->va.escape_sequence = ESC_NO_ESCAPE;
 460              		.loc 1 656 0
 461 0054 0030A0E3 		mov	r3, #0
 462 0058 203CC0E5 		strb	r3, [r0, #3104]
 463              	.LVL67:
 464              	.L48:
 628:../src/renesas/application/common/console/console.c ****     uint32_t length;
 465              		.loc 1 628 0
 466 005c 0060A0E3 		mov	r6, #0
 467 0060 0650A0E1 		mov	r5, r6
 468              	.LVL68:
 469              	.L47:
 657:../src/renesas/application/common/console/console.c ****         }
 658:../src/renesas/application/common/console/console.c **** 
 659:../src/renesas/application/common/console/console.c ****         /* Execute the command function */
 660:../src/renesas/application/common/console/console.c ****         while (count < pCom->num_tables)
 470              		.loc 1 660 0
 471 0064 443C00E3 		movw	r3, #3140
 472 0068 F33094E1 		ldrsh	r3, [r4, r3]
 473 006c 030055E1 		cmp	r5, r3
 474 0070 0F0000AA 		bge	.L49
 661:../src/renesas/application/common/console/console.c ****         {
 662:../src/renesas/application/common/console/console.c ****             error_code = con_execute(pCom, pCom->p_function[count], &valid_command);
 475              		.loc 1 662 0
 476 0074 403C94E5 		ldr	r3, [r4, #3136]
 477 0078 07208DE2 		add	r2, sp, #7
 478 007c 051193E7 		ldr	r1, [r3, r5, lsl #2]
 479 0080 0400A0E1 		mov	r0, r4
 480 0084 FEFFFFEB 		bl	con_execute
 481              	.LVL69:
 482 0088 0060A0E1 		mov	r6, r0
 483              	.LVL70:
 663:../src/renesas/application/common/console/console.c **** 
 664:../src/renesas/application/common/console/console.c ****             if (!valid_command)
 484              		.loc 1 664 0
 485 008c 0730DDE5 		ldrb	r3, [sp, #7]	@ zero_extendqisi2
 486 0090 000053E3 		cmp	r3, #0
 487 0094 0600001A 		bne	.L49
 665:../src/renesas/application/common/console/console.c ****             {
 666:../src/renesas/application/common/console/console.c ****                 count++;
 488              		.loc 1 666 0
 489 0098 015085E2 		add	r5, r5, #1
 490              	.LVL71:
 491 009c 7550BFE6 		sxth	r5, r5
 492              	.LVL72:
 493 00a0 EFFFFFEA 		b	.L47
 494              	.LVL73:
 495              	.L53:
 651:../src/renesas/application/common/console/console.c ****         }
 496              		.loc 1 651 0
 497 00a4 0010A0E1 		mov	r1, r0
 498 00a8 410E80E2 		add	r0, r0, #1040
 499              	.LVL74:
 500 00ac FEFFFFEB 		bl	strcpy
 501              	.LVL75:
 502 00b0 E9FFFFEA 		b	.L48
 503              	.LVL76:
 504              	.L49:
 667:../src/renesas/application/common/console/console.c ****             }
 668:../src/renesas/application/common/console/console.c ****             else
 669:../src/renesas/application/common/console/console.c ****             {
 670:../src/renesas/application/common/console/console.c ****                 break;
 671:../src/renesas/application/common/console/console.c ****             }
 672:../src/renesas/application/common/console/console.c ****         }
 673:../src/renesas/application/common/console/console.c **** 
 674:../src/renesas/application/common/console/console.c ****         /* Test to see if command is valid */
 675:../src/renesas/application/common/console/console.c ****         if (!valid_command)
 505              		.loc 1 675 0
 506 00b4 0730DDE5 		ldrb	r3, [sp, #7]	@ zero_extendqisi2
 507 00b8 000053E3 		cmp	r3, #0
 508 00bc 0200000A 		beq	.L54
 509              	.LVL77:
 510              	.L45:
 676:../src/renesas/application/common/console/console.c ****         {
 677:../src/renesas/application/common/console/console.c ****             fprintf(pCom->p_out, "\r\n\"%s\" Unknown command\r\n", pCom->va.buffer);
 678:../src/renesas/application/common/console/console.c ****         }
 679:../src/renesas/application/common/console/console.c ****     }
 680:../src/renesas/application/common/console/console.c **** 
 681:../src/renesas/application/common/console/console.c ****     return error_code;
 682:../src/renesas/application/common/console/console.c **** }
 511              		.loc 1 682 0
 512 00c0 0600A0E1 		mov	r0, r6
 513 00c4 08D08DE2 		add	sp, sp, #8
 514              		.cfi_remember_state
 515              		.cfi_def_cfa_offset 16
 516              		@ sp needed
 517 00c8 7080BDE8 		pop	{r4, r5, r6, pc}
 518              	.LVL78:
 519              	.L54:
 520              		.cfi_restore_state
 677:../src/renesas/application/common/console/console.c ****         }
 521              		.loc 1 677 0
 522 00cc 0420A0E1 		mov	r2, r4
 523 00d0 001000E3 		movw	r1, #:lower16:.LC1
 524 00d4 001040E3 		movt	r1, #:upper16:.LC1
 525 00d8 380C94E5 		ldr	r0, [r4, #3128]
 526 00dc FEFFFFEB 		bl	fprintf
 527              	.LVL79:
 528 00e0 F6FFFFEA 		b	.L45
 529              	.LVL80:
 530              	.L51:
 632:../src/renesas/application/common/console/console.c **** 
 531              		.loc 1 632 0
 532 00e4 0060A0E3 		mov	r6, #0
 533 00e8 F4FFFFEA 		b	.L45
 534              		.cfi_endproc
 535              	.LFE15:
 537              		.section	.text.terminate_command,"ax",%progbits
 538              		.align	2
 539              		.syntax unified
 540              		.arm
 541              		.fpu neon
 543              	terminate_command:
 544              	.LFB9:
 313:../src/renesas/application/common/console/console.c ****     (void)chChar;
 545              		.loc 1 313 0
 546              		.cfi_startproc
 547              		@ args = 0, pretend = 0, frame = 0
 548              		@ frame_needed = 0, uses_anonymous_args = 0
 549              	.LVL81:
 550 0000 70402DE9 		push	{r4, r5, r6, lr}
 551              		.cfi_def_cfa_offset 16
 552              		.cfi_offset 4, -16
 553              		.cfi_offset 5, -12
 554              		.cfi_offset 6, -8
 555              		.cfi_offset 14, -4
 556 0004 0040A0E1 		mov	r4, r0
 557 0008 0250A0E1 		mov	r5, r2
 316:../src/renesas/application/common/console/console.c ****     {
 558              		.loc 1 316 0
 559 000c 203CD0E5 		ldrb	r3, [r0, #3104]	@ zero_extendqisi2
 560 0010 000053E3 		cmp	r3, #0
 561 0014 0800001A 		bne	.L56
 316:../src/renesas/application/common/console/console.c ****     {
 562              		.loc 1 316 0 is_stmt 0 discriminator 1
 563 0018 0030D0E5 		ldrb	r3, [r0]	@ zero_extendqisi2
 564 001c 400053E3 		cmp	r3, #64
 565 0020 0500000A 		beq	.L56
 319:../src/renesas/application/common/console/console.c **** #endif
 566              		.loc 1 319 0 is_stmt 1
 567 0024 383C90E5 		ldr	r3, [r0, #3128]
 568 0028 0220A0E3 		mov	r2, #2
 569              	.LVL82:
 570 002c 0110A0E3 		mov	r1, #1
 571              	.LVL83:
 572 0030 000000E3 		movw	r0, #:lower16:.LC2
 573              	.LVL84:
 574 0034 000040E3 		movt	r0, #:upper16:.LC2
 575 0038 FEFFFFEB 		bl	fwrite
 576              	.LVL85:
 577              	.L56:
 324:../src/renesas/application/common/console/console.c ****     *pbfCommand = true;
 578              		.loc 1 324 0
 579 003c 243C94E5 		ldr	r3, [r4, #3108]
 580 0040 0020A0E3 		mov	r2, #0
 581 0044 0320C4E7 		strb	r2, [r4, r3]
 325:../src/renesas/application/common/console/console.c **** 
 582              		.loc 1 325 0
 583 0048 0130A0E3 		mov	r3, #1
 584 004c 0030C5E5 		strb	r3, [r5]
 328:../src/renesas/application/common/console/console.c **** }
 585              		.loc 1 328 0
 586 0050 0400A0E1 		mov	r0, r4
 587 0054 FEFFFFEB 		bl	con_parse_command
 588              	.LVL86:
 329:../src/renesas/application/common/console/console.c **** /******************************************************************************
 589              		.loc 1 329 0
 590 0058 7080BDE8 		pop	{r4, r5, r6, pc}
 591              		.cfi_endproc
 592              	.LFE9:
 594              		.section	.text.process_ordinary_char,"ax",%progbits
 595              		.align	2
 596              		.syntax unified
 597              		.arm
 598              		.fpu neon
 600              	process_ordinary_char:
 601              	.LFB8:
 249:../src/renesas/application/common/console/console.c ****     if (pCom->va.buffer_index < (CMD_READER_LINE_SIZE - 1))
 602              		.loc 1 249 0
 603              		.cfi_startproc
 604              		@ args = 0, pretend = 0, frame = 0
 605              		@ frame_needed = 0, uses_anonymous_args = 0
 606              	.LVL87:
 250:../src/renesas/application/common/console/console.c ****     {
 607              		.loc 1 250 0
 608 0000 243C90E5 		ldr	r3, [r0, #3108]
 609 0004 0EC400E3 		movw	ip, #1038
 610 0008 0C0053E1 		cmp	r3, ip
 611 000c 0100009A 		bls	.L70
 279:../src/renesas/application/common/console/console.c ****     }
 612              		.loc 1 279 0
 613 0010 0200A0E3 		mov	r0, #2
 614              	.LVL88:
 615 0014 1EFF2FE1 		bx	lr
 616              	.LVL89:
 617              	.L70:
 249:../src/renesas/application/common/console/console.c ****     if (pCom->va.buffer_index < (CMD_READER_LINE_SIZE - 1))
 618              		.loc 1 249 0
 619 0018 10402DE9 		push	{r4, lr}
 620              		.cfi_def_cfa_offset 8
 621              		.cfi_offset 4, -8
 622              		.cfi_offset 14, -4
 623 001c 01C0A0E1 		mov	ip, r1
 253:../src/renesas/application/common/console/console.c **** 
 624              		.loc 1 253 0
 625 0020 011083E2 		add	r1, r3, #1
 626              	.LVL90:
 627 0024 241C80E5 		str	r1, [r0, #3108]
 628 0028 03C0C0E7 		strb	ip, [r0, r3]
 256:../src/renesas/application/common/console/console.c ****         {
 629              		.loc 1 256 0
 630 002c 203CD0E5 		ldrb	r3, [r0, #3104]	@ zero_extendqisi2
 631 0030 010053E3 		cmp	r3, #1
 632 0034 0F00000A 		beq	.L71
 633              	.L60:
 265:../src/renesas/application/common/console/console.c ****         {
 634              		.loc 1 265 0
 635 0038 010053E3 		cmp	r3, #1
 636 003c 1800000A 		beq	.L72
 637              	.L61:
 274:../src/renesas/application/common/console/console.c ****         }
 638              		.loc 1 274 0
 639              		.syntax divided
 640              	@ 274 "../src/renesas/application/common/console/console.c" 1
 641 0040 00F020E3 		nop
 642              	@ 0 "" 2
 284:../src/renesas/application/common/console/console.c ****     {
 643              		.loc 1 284 0
 644              		.arm
 645              		.syntax unified
 646 0044 000053E3 		cmp	r3, #0
 647 0048 2700001A 		bne	.L64
 284:../src/renesas/application/common/console/console.c ****     {
 648              		.loc 1 284 0 is_stmt 0 discriminator 1
 649 004c 0030D0E5 		ldrb	r3, [r0]	@ zero_extendqisi2
 650 0050 400053E3 		cmp	r3, #64
 651 0054 2600000A 		beq	.L65
 286:../src/renesas/application/common/console/console.c ****         {
 652              		.loc 1 286 0 is_stmt 1
 653 0058 3C3CD0E5 		ldrb	r3, [r0, #3132]	@ zero_extendqisi2
 654 005c 000053E3 		cmp	r3, #0
 655 0060 1C00001A 		bne	.L73
 292:../src/renesas/application/common/console/console.c ****         }
 656              		.loc 1 292 0
 657 0064 381C90E5 		ldr	r1, [r0, #3128]
 658 0068 0C00A0E1 		mov	r0, ip
 659              	.LVL91:
 660 006c FEFFFFEB 		bl	fputc
 661              	.LVL92:
 297:../src/renesas/application/common/console/console.c **** }
 662              		.loc 1 297 0
 663 0070 0000A0E3 		mov	r0, #0
 664 0074 1080BDE8 		pop	{r4, pc}
 665              	.LVL93:
 666              	.L71:
 256:../src/renesas/application/common/console/console.c ****         {
 667              		.loc 1 256 0 discriminator 1
 668 0078 020051E3 		cmp	r1, #2
 669 007c EDFFFF1A 		bne	.L60
 256:../src/renesas/application/common/console/console.c ****         {
 670              		.loc 1 256 0 is_stmt 0 discriminator 2
 671 0080 00E0D0E5 		ldrb	lr, [r0]	@ zero_extendqisi2
 672 0084 4F005EE3 		cmp	lr, #79
 673 0088 EAFFFF1A 		bne	.L60
 258:../src/renesas/application/common/console/console.c ****             *pbfCommand = true;
 674              		.loc 1 258 0 is_stmt 1
 675 008c 0030A0E3 		mov	r3, #0
 676 0090 0130C0E7 		strb	r3, [r0, r1]
 259:../src/renesas/application/common/console/console.c **** 
 677              		.loc 1 259 0
 678 0094 0130A0E3 		mov	r3, #1
 679 0098 0030C2E5 		strb	r3, [r2]
 262:../src/renesas/application/common/console/console.c ****         }
 680              		.loc 1 262 0
 681 009c FEFFFFEB 		bl	con_parse_command
 682              	.LVL94:
 683 00a0 1080BDE8 		pop	{r4, pc}
 684              	.LVL95:
 685              	.L72:
 265:../src/renesas/application/common/console/console.c ****         {
 686              		.loc 1 265 0 discriminator 1
 687 00a4 020051E3 		cmp	r1, #2
 688 00a8 E4FFFF1A 		bne	.L61
 265:../src/renesas/application/common/console/console.c ****         {
 689              		.loc 1 265 0 is_stmt 0 discriminator 2
 690 00ac 00E0D0E5 		ldrb	lr, [r0]	@ zero_extendqisi2
 691 00b0 5B005EE3 		cmp	lr, #91
 692 00b4 E1FFFF1A 		bne	.L61
 265:../src/renesas/application/common/console/console.c ****         {
 693              		.loc 1 265 0 discriminator 3
 694 00b8 31005CE3 		cmp	ip, #49
 695 00bc DFFFFF0A 		beq	.L61
 267:../src/renesas/application/common/console/console.c ****             *pbfCommand = 1;
 696              		.loc 1 267 0 is_stmt 1
 697 00c0 0030A0E3 		mov	r3, #0
 698 00c4 0130C0E7 		strb	r3, [r0, r1]
 268:../src/renesas/application/common/console/console.c ****             return con_parse_command(pCom);
 699              		.loc 1 268 0
 700 00c8 0130A0E3 		mov	r3, #1
 701 00cc 0030C2E5 		strb	r3, [r2]
 269:../src/renesas/application/common/console/console.c ****         }
 702              		.loc 1 269 0
 703 00d0 FEFFFFEB 		bl	con_parse_command
 704              	.LVL96:
 705 00d4 1080BDE8 		pop	{r4, pc}
 706              	.LVL97:
 707              	.L73:
 288:../src/renesas/application/common/console/console.c ****         }
 708              		.loc 1 288 0
 709 00d8 381C90E5 		ldr	r1, [r0, #3128]
 710 00dc 2A00A0E3 		mov	r0, #42
 711              	.LVL98:
 712 00e0 FEFFFFEB 		bl	fputc
 713              	.LVL99:
 297:../src/renesas/application/common/console/console.c **** }
 714              		.loc 1 297 0
 715 00e4 0000A0E3 		mov	r0, #0
 716 00e8 1080BDE8 		pop	{r4, pc}
 717              	.LVL100:
 718              	.L64:
 719 00ec 0000A0E3 		mov	r0, #0
 720              	.LVL101:
 721 00f0 1080BDE8 		pop	{r4, pc}
 722              	.LVL102:
 723              	.L65:
 724 00f4 0000A0E3 		mov	r0, #0
 725              	.LVL103:
 298:../src/renesas/application/common/console/console.c **** /******************************************************************************
 726              		.loc 1 298 0
 727 00f8 1080BDE8 		pop	{r4, pc}
 728              		.cfi_endproc
 729              	.LFE8:
 731              		.section	.text.show_welcome_msg,"ax",%progbits
 732              		.align	2
 733              		.global	show_welcome_msg
 734              		.syntax unified
 735              		.arm
 736              		.fpu neon
 738              	show_welcome_msg:
 739              	.LFB4:
  99:../src/renesas/application/common/console/console.c ****     st_os_abstraction_info_t ver_info;
 740              		.loc 1 99 0
 741              		.cfi_startproc
 742              		@ args = 0, pretend = 0, frame = 16
 743              		@ frame_needed = 0, uses_anonymous_args = 0
 744              	.LVL104:
 745 0000 10402DE9 		push	{r4, lr}
 746              		.cfi_def_cfa_offset 8
 747              		.cfi_offset 4, -8
 748              		.cfi_offset 14, -4
 749 0004 18D04DE2 		sub	sp, sp, #24
 750              		.cfi_def_cfa_offset 32
 751 0008 0040A0E1 		mov	r4, r0
 102:../src/renesas/application/common/console/console.c **** 	fprintf(p_out,"\rRZ/A2M Automatic number-plate recognition (ANPR) for GCC Ver. %u.%u\n", APPLICATI
 752              		.loc 1 102 0
 753 000c 0030A0E1 		mov	r3, r0
 754 0010 5520A0E3 		mov	r2, #85
 755 0014 0110A0E3 		mov	r1, #1
 756              	.LVL105:
 757 0018 000000E3 		movw	r0, #:lower16:.LC3
 758              	.LVL106:
 759 001c 000040E3 		movt	r0, #:upper16:.LC3
 760 0020 FEFFFFEB 		bl	fwrite
 761              	.LVL107:
 103:../src/renesas/application/common/console/console.c **** 	fprintf(p_out,"\rCopyright (C) 2021 Renesas Electronics Corporation. All rights reserved.\n");
 762              		.loc 1 103 0
 763 0024 0330A0E3 		mov	r3, #3
 764 0028 0120A0E3 		mov	r2, #1
 765 002c 001000E3 		movw	r1, #:lower16:.LC4
 766 0030 001040E3 		movt	r1, #:upper16:.LC4
 767 0034 0400A0E1 		mov	r0, r4
 768 0038 FEFFFFEB 		bl	fprintf
 769              	.LVL108:
 104:../src/renesas/application/common/console/console.c **** 	fprintf(p_out,"\rBuild Info Date %s at %s \n", __DATE__, __TIME__);
 770              		.loc 1 104 0
 771 003c 0430A0E1 		mov	r3, r4
 772 0040 4A20A0E3 		mov	r2, #74
 773 0044 0110A0E3 		mov	r1, #1
 774 0048 000000E3 		movw	r0, #:lower16:.LC5
 775 004c 000040E3 		movt	r0, #:upper16:.LC5
 776 0050 FEFFFFEB 		bl	fwrite
 777              	.LVL109:
 105:../src/renesas/application/common/console/console.c **** 
 778              		.loc 1 105 0
 779 0054 003000E3 		movw	r3, #:lower16:.LC6
 780 0058 003040E3 		movt	r3, #:upper16:.LC6
 781 005c 002000E3 		movw	r2, #:lower16:.LC7
 782 0060 002040E3 		movt	r2, #:upper16:.LC7
 783 0064 001000E3 		movw	r1, #:lower16:.LC8
 784 0068 001040E3 		movt	r1, #:upper16:.LC8
 785 006c 0400A0E1 		mov	r0, r4
 786 0070 FEFFFFEB 		bl	fprintf
 787              	.LVL110:
 107:../src/renesas/application/common/console/console.c **** 	{
 788              		.loc 1 107 0
 789 0074 0C008DE2 		add	r0, sp, #12
 790 0078 FEFFFFEB 		bl	R_OS_GetVersion
 791              	.LVL111:
 792 007c 000050E3 		cmp	r0, #0
 793 0080 0300000A 		beq	.L77
 794              	.L75:
 112:../src/renesas/application/common/console/console.c **** }
 795              		.loc 1 112 0
 796 0084 0400A0E1 		mov	r0, r4
 797 0088 FEFFFFEB 		bl	fflush
 798              	.LVL112:
 113:../src/renesas/application/common/console/console.c **** /******************************************************************************
 799              		.loc 1 113 0
 800 008c 18D08DE2 		add	sp, sp, #24
 801              		.cfi_remember_state
 802              		.cfi_def_cfa_offset 8
 803              		@ sp needed
 804 0090 1080BDE8 		pop	{r4, pc}
 805              	.LVL113:
 806              	.L77:
 807              		.cfi_restore_state
 109:../src/renesas/application/common/console/console.c **** 	}
 808              		.loc 1 109 0
 809 0094 BE30DDE1 		ldrh	r3, [sp, #14]
 810 0098 BC20DDE1 		ldrh	r2, [sp, #12]
 811 009c 00208DE5 		str	r2, [sp]
 812 00a0 14209DE5 		ldr	r2, [sp, #20]
 813 00a4 001000E3 		movw	r1, #:lower16:.LC9
 814 00a8 001040E3 		movt	r1, #:upper16:.LC9
 815 00ac 0400A0E1 		mov	r0, r4
 816 00b0 FEFFFFEB 		bl	fprintf
 817              	.LVL114:
 818 00b4 F2FFFFEA 		b	.L75
 819              		.cfi_endproc
 820              	.LFE4:
 822              		.section	.text.con_get_last_command_line,"ax",%progbits
 823              		.align	2
 824              		.global	con_get_last_command_line
 825              		.syntax unified
 826              		.arm
 827              		.fpu neon
 829              	con_get_last_command_line:
 830              	.LFB6:
 211:../src/renesas/application/common/console/console.c ****     strcpy(pCom->va.buffer, pCom->va.command);
 831              		.loc 1 211 0
 832              		.cfi_startproc
 833              		@ args = 0, pretend = 0, frame = 0
 834              		@ frame_needed = 0, uses_anonymous_args = 0
 835              	.LVL115:
 836 0000 70402DE9 		push	{r4, r5, r6, lr}
 837              		.cfi_def_cfa_offset 16
 838              		.cfi_offset 4, -16
 839              		.cfi_offset 5, -12
 840              		.cfi_offset 6, -8
 841              		.cfi_offset 14, -4
 842 0004 0040A0E1 		mov	r4, r0
 212:../src/renesas/application/common/console/console.c ****     fprintf(pCom->p_out, "%s", pCom->va.buffer);
 843              		.loc 1 212 0
 844 0008 415E80E2 		add	r5, r0, #1040
 845 000c 0510A0E1 		mov	r1, r5
 846 0010 FEFFFFEB 		bl	strcpy
 847              	.LVL116:
 213:../src/renesas/application/common/console/console.c **** 
 848              		.loc 1 213 0
 849 0014 381C94E5 		ldr	r1, [r4, #3128]
 850 0018 0400A0E1 		mov	r0, r4
 851 001c FEFFFFEB 		bl	fputs
 852              	.LVL117:
 216:../src/renesas/application/common/console/console.c **** }
 853              		.loc 1 216 0
 854 0020 0500A0E1 		mov	r0, r5
 855 0024 FEFFFFEB 		bl	strlen
 856              	.LVL118:
 857 0028 240C84E5 		str	r0, [r4, #3108]
 858 002c 7080BDE8 		pop	{r4, r5, r6, pc}
 859              		.cfi_endproc
 860              	.LFE6:
 862              		.section	.text.con_do_last_command_line,"ax",%progbits
 863              		.align	2
 864              		.global	con_do_last_command_line
 865              		.syntax unified
 866              		.arm
 867              		.fpu neon
 869              	con_do_last_command_line:
 870              	.LFB7:
 229:../src/renesas/application/common/console/console.c ****     con_get_last_command_line(pCom);
 871              		.loc 1 229 0
 872              		.cfi_startproc
 873              		@ args = 0, pretend = 0, frame = 0
 874              		@ frame_needed = 0, uses_anonymous_args = 0
 875              	.LVL119:
 876 0000 10402DE9 		push	{r4, lr}
 877              		.cfi_def_cfa_offset 8
 878              		.cfi_offset 4, -8
 879              		.cfi_offset 14, -4
 880 0004 0040A0E1 		mov	r4, r0
 230:../src/renesas/application/common/console/console.c ****     fprintf(pCom->p_out, "\r\n");
 881              		.loc 1 230 0
 882 0008 FEFFFFEB 		bl	con_get_last_command_line
 883              	.LVL120:
 231:../src/renesas/application/common/console/console.c **** 
 884              		.loc 1 231 0
 885 000c 383C94E5 		ldr	r3, [r4, #3128]
 886 0010 0220A0E3 		mov	r2, #2
 887 0014 0110A0E3 		mov	r1, #1
 888 0018 000000E3 		movw	r0, #:lower16:.LC2
 889 001c 000040E3 		movt	r0, #:upper16:.LC2
 890 0020 FEFFFFEB 		bl	fwrite
 891              	.LVL121:
 233:../src/renesas/application/common/console/console.c **** }
 892              		.loc 1 233 0
 893 0024 0400A0E1 		mov	r0, r4
 894 0028 FEFFFFEB 		bl	con_parse_command
 895              	.LVL122:
 234:../src/renesas/application/common/console/console.c **** /******************************************************************************
 896              		.loc 1 234 0
 897 002c 1080BDE8 		pop	{r4, pc}
 898              		.cfi_endproc
 899              	.LFE7:
 901              		.section	.text.con_process_char,"ax",%progbits
 902              		.align	2
 903              		.global	con_process_char
 904              		.syntax unified
 905              		.arm
 906              		.fpu neon
 908              	con_process_char:
 909              	.LFB10:
 344:../src/renesas/application/common/console/console.c ****     *pbfCommand = false;
 910              		.loc 1 344 0
 911              		.cfi_startproc
 912              		@ args = 0, pretend = 0, frame = 0
 913              		@ frame_needed = 0, uses_anonymous_args = 0
 914              	.LVL123:
 915 0000 10402DE9 		push	{r4, lr}
 916              		.cfi_def_cfa_offset 8
 917              		.cfi_offset 4, -8
 918              		.cfi_offset 14, -4
 919 0004 0040A0E1 		mov	r4, r0
 345:../src/renesas/application/common/console/console.c **** 
 920              		.loc 1 345 0
 921 0008 0030A0E3 		mov	r3, #0
 922 000c 0030C2E5 		strb	r3, [r2]
 347:../src/renesas/application/common/console/console.c ****     {
 923              		.loc 1 347 0
 924 0010 0D0051E3 		cmp	r1, #13
 925 0014 3F00000A 		beq	.L84
 926 0018 0900009A 		bls	.L99
 927 001c 3B0051E3 		cmp	r1, #59
 928 0020 2C00000A 		beq	.L89
 929 0024 0F00009A 		bls	.L100
 930 0028 7E0051E3 		cmp	r1, #126
 931 002c 1400001A 		bne	.L101
 392:../src/renesas/application/common/console/console.c ****             {
 932              		.loc 1 392 0
 933 0030 203CD0E5 		ldrb	r3, [r0, #3104]	@ zero_extendqisi2
 934 0034 000053E3 		cmp	r3, #0
 935 0038 2D00001A 		bne	.L95
 394:../src/renesas/application/common/console/console.c ****             }
 936              		.loc 1 394 0
 937 003c FEFFFFEB 		bl	process_ordinary_char
 938              	.LVL124:
 939 0040 1080BDE8 		pop	{r4, pc}
 940              	.LVL125:
 941              	.L99:
 347:../src/renesas/application/common/console/console.c ****     {
 942              		.loc 1 347 0
 943 0044 080051E3 		cmp	r1, #8
 944 0048 0F00000A 		beq	.L86
 945 004c 0A0051E3 		cmp	r1, #10
 946 0050 1D00000A 		beq	.L87
 947 0054 030051E1 		cmp	r1, r3
 948 0058 2700000A 		beq	.L102
 949              	.L83:
 422:../src/renesas/application/common/console/console.c ****         }
 950              		.loc 1 422 0
 951 005c 0400A0E1 		mov	r0, r4
 952              	.LVL126:
 953 0060 FEFFFFEB 		bl	process_ordinary_char
 954              	.LVL127:
 955 0064 1080BDE8 		pop	{r4, pc}
 956              	.LVL128:
 957              	.L100:
 347:../src/renesas/application/common/console/console.c ****     {
 958              		.loc 1 347 0
 959 0068 1B0051E3 		cmp	r1, #27
 960 006c FAFFFF1A 		bne	.L83
 353:../src/renesas/application/common/console/console.c ****             pCom->va.buffer_index = 0;
 961              		.loc 1 353 0
 962 0070 0130A0E3 		mov	r3, #1
 963 0074 203CC0E5 		strb	r3, [r0, #3104]
 354:../src/renesas/application/common/console/console.c ****         }
 964              		.loc 1 354 0
 965 0078 0000A0E3 		mov	r0, #0
 966              	.LVL129:
 967 007c 240C84E5 		str	r0, [r4, #3108]
 356:../src/renesas/application/common/console/console.c **** 
 968              		.loc 1 356 0
 969 0080 1080BDE8 		pop	{r4, pc}
 970              	.LVL130:
 971              	.L101:
 347:../src/renesas/application/common/console/console.c ****     {
 972              		.loc 1 347 0
 973 0084 7F0051E3 		cmp	r1, #127
 974 0088 F3FFFF1A 		bne	.L83
 975              	.L86:
 361:../src/renesas/application/common/console/console.c ****             {
 976              		.loc 1 361 0
 977 008c 243C94E5 		ldr	r3, [r4, #3108]
 978 0090 000053E3 		cmp	r3, #0
 979 0094 0100001A 		bne	.L103
 426:../src/renesas/application/common/console/console.c **** }
 980              		.loc 1 426 0
 981 0098 0000A0E3 		mov	r0, #0
 982              	.LVL131:
 983 009c 1080BDE8 		pop	{r4, pc}
 984              	.LVL132:
 985              	.L103:
 364:../src/renesas/application/common/console/console.c **** #endif
 986              		.loc 1 364 0
 987 00a0 383C94E5 		ldr	r3, [r4, #3128]
 988 00a4 0320A0E3 		mov	r2, #3
 989              	.LVL133:
 990 00a8 0110A0E3 		mov	r1, #1
 991              	.LVL134:
 992 00ac 000000E3 		movw	r0, #:lower16:.LC10
 993              	.LVL135:
 994 00b0 000040E3 		movt	r0, #:upper16:.LC10
 995 00b4 FEFFFFEB 		bl	fwrite
 996              	.LVL136:
 366:../src/renesas/application/common/console/console.c ****             }
 997              		.loc 1 366 0
 998 00b8 243C94E5 		ldr	r3, [r4, #3108]
 999 00bc 013043E2 		sub	r3, r3, #1
 1000 00c0 243C84E5 		str	r3, [r4, #3108]
 426:../src/renesas/application/common/console/console.c **** }
 1001              		.loc 1 426 0
 1002 00c4 0000A0E3 		mov	r0, #0
 1003 00c8 1080BDE8 		pop	{r4, pc}
 1004              	.LVL137:
 1005              	.L87:
 374:../src/renesas/application/common/console/console.c ****         }
 1006              		.loc 1 374 0
 1007              		.syntax divided
 1008              	@ 374 "../src/renesas/application/common/console/console.c" 1
 1009 00cc 00F020E3 		nop
 1010              	@ 0 "" 2
 426:../src/renesas/application/common/console/console.c **** }
 1011              		.loc 1 426 0
 1012              		.arm
 1013              		.syntax unified
 1014 00d0 0000A0E3 		mov	r0, #0
 1015              	.LVL138:
 376:../src/renesas/application/common/console/console.c **** #endif
 1016              		.loc 1 376 0
 1017 00d4 1080BDE8 		pop	{r4, pc}
 1018              	.LVL139:
 1019              	.L89:
 382:../src/renesas/application/common/console/console.c ****             {
 1020              		.loc 1 382 0
 1021 00d8 203CD0E5 		ldrb	r3, [r0, #3104]	@ zero_extendqisi2
 1022 00dc 000053E3 		cmp	r3, #0
 1023 00e0 0100001A 		bne	.L94
 384:../src/renesas/application/common/console/console.c ****             }
 1024              		.loc 1 384 0
 1025 00e4 FEFFFFEB 		bl	process_ordinary_char
 1026              	.LVL140:
 1027 00e8 1080BDE8 		pop	{r4, pc}
 1028              	.LVL141:
 1029              	.L94:
 387:../src/renesas/application/common/console/console.c ****         }
 1030              		.loc 1 387 0
 1031 00ec FEFFFFEB 		bl	terminate_command
 1032              	.LVL142:
 1033 00f0 1080BDE8 		pop	{r4, pc}
 1034              	.LVL143:
 1035              	.L95:
 397:../src/renesas/application/common/console/console.c ****         }
 1036              		.loc 1 397 0
 1037 00f4 FEFFFFEB 		bl	terminate_command
 1038              	.LVL144:
 1039 00f8 1080BDE8 		pop	{r4, pc}
 1040              	.LVL145:
 1041              	.L102:
 402:../src/renesas/application/common/console/console.c ****             {
 1042              		.loc 1 402 0
 1043 00fc 203CD0E5 		ldrb	r3, [r0, #3104]	@ zero_extendqisi2
 1044 0100 000053E3 		cmp	r3, #0
 1045 0104 0100001A 		bne	.L104
 426:../src/renesas/application/common/console/console.c **** }
 1046              		.loc 1 426 0
 1047 0108 0000A0E3 		mov	r0, #0
 1048              	.LVL146:
 427:../src/renesas/application/common/console/console.c **** /******************************************************************************
 1049              		.loc 1 427 0
 1050 010c 1080BDE8 		pop	{r4, pc}
 1051              	.LVL147:
 1052              	.L104:
 407:../src/renesas/application/common/console/console.c ****         }
 1053              		.loc 1 407 0
 1054 0110 FEFFFFEB 		bl	terminate_command
 1055              	.LVL148:
 1056 0114 1080BDE8 		pop	{r4, pc}
 1057              	.LVL149:
 1058              	.L84:
 416:../src/renesas/application/common/console/console.c ****         }
 1059              		.loc 1 416 0
 1060 0118 FEFFFFEB 		bl	terminate_command
 1061              	.LVL150:
 1062 011c 1080BDE8 		pop	{r4, pc}
 1063              		.cfi_endproc
 1064              	.LFE10:
 1066              		.section	.text.console,"ax",%progbits
 1067              		.align	2
 1068              		.global	console
 1069              		.syntax unified
 1070              		.arm
 1071              		.fpu neon
 1073              	console:
 1074              	.LFB5:
 130:../src/renesas/application/common/console/console.c ****     /* Initialise our variables */
 1075              		.loc 1 130 0
 1076              		.cfi_startproc
 1077              		@ args = 8, pretend = 0, frame = 8
 1078              		@ frame_needed = 0, uses_anonymous_args = 0
 1079              	.LVL151:
 1080 0000 F0432DE9 		push	{r4, r5, r6, r7, r8, r9, lr}
 1081              		.cfi_def_cfa_offset 28
 1082              		.cfi_offset 4, -28
 1083              		.cfi_offset 5, -24
 1084              		.cfi_offset 6, -20
 1085              		.cfi_offset 7, -16
 1086              		.cfi_offset 8, -12
 1087              		.cfi_offset 9, -8
 1088              		.cfi_offset 14, -4
 1089 0004 0CD04DE2 		sub	sp, sp, #12
 1090              		.cfi_def_cfa_offset 40
 1091 0008 0040A0E1 		mov	r4, r0
 1092 000c 0190A0E1 		mov	r9, r1
 1093 0010 0280A0E1 		mov	r8, r2
 1094 0014 0370A0E1 		mov	r7, r3
 1095 0018 28609DE5 		ldr	r6, [sp, #40]
 1096 001c 2C509DE5 		ldr	r5, [sp, #44]
 132:../src/renesas/application/common/console/console.c ****     pCom->p_in = pIn;
 1097              		.loc 1 132 0
 1098 0020 EC2403E3 		movw	r2, #13548
 1099              	.LVL152:
 1100 0024 0010A0E3 		mov	r1, #0
 1101              	.LVL153:
 1102 0028 FEFFFFEB 		bl	memset
 1103              	.LVL154:
 133:../src/renesas/application/common/console/console.c ****     pCom->p_out = pOut;
 1104              		.loc 1 133 0
 1105 002c 347C84E5 		str	r7, [r4, #3124]
 134:../src/renesas/application/common/console/console.c ****     pCom->p_function = ppComFunctions;
 1106              		.loc 1 134 0
 1107 0030 386C84E5 		str	r6, [r4, #3128]
 135:../src/renesas/application/common/console/console.c ****     pCom->num_tables = (int16_t)iNumTables;
 1108              		.loc 1 135 0
 1109 0034 409C84E5 		str	r9, [r4, #3136]
 136:../src/renesas/application/common/console/console.c ****     pCom->p_prompt = pszPrompt;
 1110              		.loc 1 136 0
 1111 0038 443C00E3 		movw	r3, #3140
 1112 003c B38084E1 		strh	r8, [r4, r3]	@ movhi
 137:../src/renesas/application/common/console/console.c ****     pCom->default_prompt = pszPrompt;
 1113              		.loc 1 137 0
 1114 0040 305C84E5 		str	r5, [r4, #3120]
 138:../src/renesas/application/common/console/console.c ****     pCom->working_drive = -1;
 1115              		.loc 1 138 0
 1116 0044 033A84E2 		add	r3, r4, #12288
 1117 0048 E85483E5 		str	r5, [r3, #1256]
 139:../src/renesas/application/common/console/console.c **** 
 1118              		.loc 1 139 0
 1119 004c 0030E0E3 		mvn	r3, #0
 1120 0050 463CC4E5 		strb	r3, [r4, #3142]
 142:../src/renesas/application/common/console/console.c **** 
 1121              		.loc 1 142 0
 1122 0054 0250A0E3 		mov	r5, #2
 1123 0058 0520A0E1 		mov	r2, r5
 1124 005c 001000E3 		movw	r1, #:lower16:.LC11
 1125 0060 001040E3 		movt	r1, #:upper16:.LC11
 1126 0064 410E84E2 		add	r0, r4, #1040
 1127 0068 FEFFFFEB 		bl	memcpy
 1128              	.LVL155:
 145:../src/renesas/application/common/console/console.c ****     fflush(pOut);
 1129              		.loc 1 145 0
 1130 006c 0400A0E1 		mov	r0, r4
 1131 0070 FEFFFFEB 		bl	con_print_prompt
 1132              	.LVL156:
 146:../src/renesas/application/common/console/console.c **** 
 1133              		.loc 1 146 0
 1134 0074 0600A0E1 		mov	r0, r6
 1135 0078 FEFFFFEB 		bl	fflush
 1136              	.LVL157:
 149:../src/renesas/application/common/console/console.c **** 
 1137              		.loc 1 149 0
 1138 007c 0030A0E3 		mov	r3, #0
 1139 0080 0520A0E1 		mov	r2, r5
 1140 0084 0310A0E1 		mov	r1, r3
 1141 0088 0700A0E1 		mov	r0, r7
 1142 008c FEFFFFEB 		bl	setvbuf
 1143              	.LVL158:
 1144 0090 070000EA 		b	.L109
 1145              	.LVL159:
 1146              	.L112:
 1147              	.LBB4:
 165:../src/renesas/application/common/console/console.c ****             return CMD_ERROR_IN_IO;
 1148              		.loc 1 165 0
 1149 0094 BC30D7E1 		ldrh	r3, [r7, #12]
 1150 0098 6030C3E3 		bic	r3, r3, #96
 1151 009c BC30C7E1 		strh	r3, [r7, #12]	@ movhi
 166:../src/renesas/application/common/console/console.c ****         }
 1152              		.loc 1 166 0
 1153 00a0 0700A0E3 		mov	r0, #7
 1154              	.LVL160:
 1155              	.L107:
 1156              	.LBE4:
 199:../src/renesas/application/common/console/console.c **** /******************************************************************************
 1157              		.loc 1 199 0 discriminator 1
 1158 00a4 0CD08DE2 		add	sp, sp, #12
 1159              		.cfi_remember_state
 1160              		.cfi_def_cfa_offset 28
 1161              		@ sp needed
 1162 00a8 F083BDE8 		pop	{r4, r5, r6, r7, r8, r9, pc}
 1163              	.LVL161:
 1164              	.L108:
 1165              		.cfi_restore_state
 1166              	.LBB5:
 195:../src/renesas/application/common/console/console.c ****     }
 1167              		.loc 1 195 0
 1168 00ac 0600A0E1 		mov	r0, r6
 1169 00b0 FEFFFFEB 		bl	fflush
 1170              	.LVL162:
 1171              	.L109:
 154:../src/renesas/application/common/console/console.c **** 
 1172              		.loc 1 154 0
 1173 00b4 0030A0E3 		mov	r3, #0
 1174 00b8 0730CDE5 		strb	r3, [sp, #7]
 1175              	.LVL163:
 161:../src/renesas/application/common/console/console.c ****         if (EOF == data)
 1176              		.loc 1 161 0
 1177 00bc 0700A0E1 		mov	r0, r7
 1178 00c0 FEFFFFEB 		bl	fgetc
 1179              	.LVL164:
 162:../src/renesas/application/common/console/console.c ****         {
 1180              		.loc 1 162 0
 1181 00c4 010070E3 		cmn	r0, #1
 1182 00c8 F1FFFF0A 		beq	.L112
 169:../src/renesas/application/common/console/console.c **** 
 1183              		.loc 1 169 0
 1184 00cc 285C00E3 		movw	r5, #3112
 1185 00d0 B50084E1 		strh	r0, [r4, r5]	@ movhi
 172:../src/renesas/application/common/console/console.c **** 
 1186              		.loc 1 172 0
 1187 00d4 2C3C94E5 		ldr	r3, [r4, #3116]
 1188 00d8 013083E2 		add	r3, r3, #1
 1189 00dc 2C3C84E5 		str	r3, [r4, #3116]
 175:../src/renesas/application/common/console/console.c **** 
 1190              		.loc 1 175 0
 1191 00e0 0600A0E1 		mov	r0, r6
 1192              	.LVL165:
 1193 00e4 FEFFFFEB 		bl	fflush
 1194              	.LVL166:
 178:../src/renesas/application/common/console/console.c **** 
 1195              		.loc 1 178 0
 1196 00e8 07208DE2 		add	r2, sp, #7
 1197 00ec 0510D4E7 		ldrb	r1, [r4, r5]	@ zero_extendqisi2
 1198 00f0 0400A0E1 		mov	r0, r4
 1199 00f4 FEFFFFEB 		bl	con_process_char
 1200              	.LVL167:
 181:../src/renesas/application/common/console/console.c ****         {
 1201              		.loc 1 181 0
 1202 00f8 040050E3 		cmp	r0, #4
 1203 00fc E8FFFF8A 		bhi	.L107
 187:../src/renesas/application/common/console/console.c ****         {
 1204              		.loc 1 187 0
 1205 0100 0730DDE5 		ldrb	r3, [sp, #7]	@ zero_extendqisi2
 1206 0104 000053E3 		cmp	r3, #0
 1207 0108 E7FFFF0A 		beq	.L108
 187:../src/renesas/application/common/console/console.c ****         {
 1208              		.loc 1 187 0 is_stmt 0 discriminator 1
 1209 010c 010050E3 		cmp	r0, #1
 1210 0110 E5FFFF0A 		beq	.L108
 189:../src/renesas/application/common/console/console.c ****             {
 1211              		.loc 1 189 0 is_stmt 1
 1212 0114 0400A0E1 		mov	r0, r4
 1213              	.LVL168:
 1214 0118 FEFFFFEB 		bl	con_print_prompt
 1215              	.LVL169:
 1216 011c 000050E3 		cmp	r0, #0
 1217 0120 E1FFFFAA 		bge	.L108
 191:../src/renesas/application/common/console/console.c ****             }
 1218              		.loc 1 191 0
 1219 0124 0700A0E3 		mov	r0, #7
 1220 0128 DDFFFFEA 		b	.L107
 1221              	.LBE5:
 1222              		.cfi_endproc
 1223              	.LFE5:
 1225              		.section	.rodata.con_parse_command.str1.4,"aMS",%progbits,1
 1226              		.align	2
 1227              	.LC1:
 1228 0000 0D0A2225 		.ascii	"\015\012\"%s\" Unknown command\015\012\000"
 1228      73222055 
 1228      6E6B6E6F 
 1228      776E2063 
 1228      6F6D6D61 
 1229              		.section	.rodata.con_print_prompt.str1.4,"aMS",%progbits,1
 1230              		.align	2
 1231              	.LC0:
 1232 0000 0D0A2573 		.ascii	"\015\012%s \000"
 1232      2000
 1233              		.section	.rodata.con_process_char.str1.4,"aMS",%progbits,1
 1234              		.align	2
 1235              	.LC10:
 1236 0000 08200800 		.ascii	"\010 \010\000"
 1237              		.section	.rodata.console.str1.4,"aMS",%progbits,1
 1238              		.align	2
 1239              	.LC11:
 1240 0000 3F00     		.ascii	"?\000"
 1241              		.section	.rodata.show_welcome_msg.str1.4,"aMS",%progbits,1
 1242              		.align	2
 1243              	.LC3:
 1244 0000 0D0A0A23 		.ascii	"\015\012\012#######################################"
 1244      23232323 
 1244      23232323 
 1244      23232323 
 1244      23232323 
 1245 002a 23232323 		.ascii	"#########################################\012\012\000"
 1245      23232323 
 1245      23232323 
 1245      23232323 
 1245      23232323 
 1246 0056 0000     		.space	2
 1247              	.LC4:
 1248 0058 0D525A2F 		.ascii	"\015RZ/A2M Automatic number-plate recognition (ANPR"
 1248      41324D20 
 1248      4175746F 
 1248      6D617469 
 1248      63206E75 
 1249 0088 2920666F 		.ascii	") for GCC Ver. %u.%u\012\000"
 1249      72204743 
 1249      43205665 
 1249      722E2025 
 1249      752E2575 
 1250 009e 0000     		.space	2
 1251              	.LC5:
 1252 00a0 0D436F70 		.ascii	"\015Copyright (C) 2021 Renesas Electronics Corporat"
 1252      79726967 
 1252      68742028 
 1252      43292032 
 1252      30323120 
 1253 00d0 696F6E2E 		.ascii	"ion. All rights reserved.\012\000"
 1253      20416C6C 
 1253      20726967 
 1253      68747320 
 1253      72657365 
 1254 00eb 00       		.space	1
 1255              	.LC6:
 1256 00ec 31333A34 		.ascii	"13:46:02\000"
 1256      363A3032 
 1256      00
 1257 00f5 000000   		.space	3
 1258              	.LC7:
 1259 00f8 4A756C20 		.ascii	"Jul  6 2021\000"
 1259      20362032 
 1259      30323100 
 1260              	.LC8:
 1261 0104 0D427569 		.ascii	"\015Build Info Date %s at %s \012\000"
 1261      6C642049 
 1261      6E666F20 
 1261      44617465 
 1261      20257320 
 1262              	.LC9:
 1263 0120 0D257320 		.ascii	"\015%s Version %d.%d\012\012\012\000"
 1263      56657273 
 1263      696F6E20 
 1263      25642E25 
 1263      640A0A0A 
 1264              		.section	.rodata.terminate_command.str1.4,"aMS",%progbits,1
 1265              		.align	2
 1266              	.LC2:
 1267 0000 0D0A00   		.ascii	"\015\012\000"
 1268              		.text
 1269              	.Letext0:
 1270              		.file 2 "c:\\program files (x86)\\gnu tools arm embedded\\6 2017-q2-update\\arm-none-eabi\\include
 1271              		.file 3 "c:\\program files (x86)\\gnu tools arm embedded\\6 2017-q2-update\\lib\\gcc\\arm-none-eab
 1272              		.file 4 "c:\\program files (x86)\\gnu tools arm embedded\\6 2017-q2-update\\arm-none-eabi\\include
 1273              		.file 5 "c:\\program files (x86)\\gnu tools arm embedded\\6 2017-q2-update\\arm-none-eabi\\include
 1274              		.file 6 "c:\\program files (x86)\\gnu tools arm embedded\\6 2017-q2-update\\arm-none-eabi\\include
 1275              		.file 7 "c:\\program files (x86)\\gnu tools arm embedded\\6 2017-q2-update\\arm-none-eabi\\include
 1276              		.file 8 "c:\\program files (x86)\\gnu tools arm embedded\\6 2017-q2-update\\arm-none-eabi\\include
 1277              		.file 9 "c:\\program files (x86)\\gnu tools arm embedded\\6 2017-q2-update\\arm-none-eabi\\include
 1278              		.file 10 "c:\\program files (x86)\\gnu tools arm embedded\\6 2017-q2-update\\arm-none-eabi\\includ
 1279              		.file 11 "C:/Renesas/e2studio_2021_01_workspace_RZA2M_ANPR/ANPR_RZA2M_GR_MANGO/generate/system/inc
 1280              		.file 12 "C:/Renesas/e2studio_2021_01_workspace_RZA2M_ANPR/ANPR_RZA2M_GR_MANGO/generate/os_abstrac
 1281              		.file 13 "C:/Renesas/e2studio_2021_01_workspace_RZA2M_ANPR/ANPR_RZA2M_GR_MANGO/generate/system/inc
 1282              		.file 14 "C:/Renesas/e2studio_2021_01_workspace_RZA2M_ANPR/ANPR_RZA2M_GR_MANGO/generate/os_abstrac
 1283              		.file 15 "C:/Renesas/e2studio_2021_01_workspace_RZA2M_ANPR/ANPR_RZA2M_GR_MANGO/src/renesas/applica
 1284              		.file 16 "c:\\program files (x86)\\gnu tools arm embedded\\6 2017-q2-update\\arm-none-eabi\\includ
 1285              		.file 17 "C:/Renesas/e2studio_2021_01_workspace_RZA2M_ANPR/ANPR_RZA2M_GR_MANGO/src/renesas/applica
 1286              		.file 18 "<built-in>"
 1287              		.file 19 "C:/Renesas/e2studio_2021_01_workspace_RZA2M_ANPR/ANPR_RZA2M_GR_MANGO/generate/os_abstrac