   1              		.cpu cortex-a9
   2              		.eabi_attribute 28, 1
   3              		.eabi_attribute 20, 1
   4              		.eabi_attribute 21, 1
   5              		.eabi_attribute 23, 3
   6              		.eabi_attribute 24, 1
   7              		.eabi_attribute 25, 1
   8              		.eabi_attribute 26, 1
   9              		.eabi_attribute 30, 2
  10              		.eabi_attribute 34, 0
  11              		.eabi_attribute 18, 4
  12              		.file	"r_gpio_lld_rza2m.c"
  13              		.section	.text.R_GPIO_PinDirectionSet.constprop.4,"ax",%progbits
  14              		.align	2
  15              		.syntax unified
  16              		.arm
  17              		.fpu neon
  19              	R_GPIO_PinDirectionSet.constprop.4:
  20              		@ args = 0, pretend = 0, frame = 0
  21              		@ frame_needed = 0, uses_anonymous_args = 0
  22 0000 7020EFE6 		uxtb	r2, r0
  23 0004 070052E3 		cmp	r2, #7
  24 0008 1900008A 		bhi	.L3
  25 000c 2004A0E1 		lsr	r0, r0, #8
  26 0010 003000E3 		movw	r3, #:lower16:.LANCHOR0
  27 0014 003040E3 		movt	r3, #:upper16:.LANCHOR0
  28 0018 10402DE9 		push	{r4, lr}
  29 001c 0040D3E7 		ldrb	r4, [r3, r0]	@ zero_extendqisi2
  30 0020 3442E0E1 		mvn	r4, r4, lsr r2
  31 0024 014004E2 		and	r4, r4, #1
  32 0028 150050E3 		cmp	r0, #21
  33 002c 01408483 		orrhi	r4, r4, #1
  34 0030 000054E3 		cmp	r4, #0
  35 0034 1000001A 		bne	.L4
  36 0038 003000E3 		movw	r3, #:lower16:.LANCHOR1
  37 003c 001000E3 		movw	r1, #:lower16:.LANCHOR2
  38 0040 001040E3 		movt	r1, #:upper16:.LANCHOR2
  39 0044 003040E3 		movt	r3, #:upper16:.LANCHOR1
  40 0048 023193E7 		ldr	r3, [r3, r2, lsl #2]
  41 004c 8000A0E1 		lsl	r0, r0, #1
  42 0050 022191E7 		ldr	r2, [r1, r2, lsl #2]
  43 0054 0410A0E1 		mov	r1, r4
  44 0058 FD0480E2 		add	r0, r0, #-50331648
  45 005c 020A40E2 		sub	r0, r0, #8192
  46 0060 7330FFE6 		uxth	r3, r3
  47 0064 7220FFE6 		uxth	r2, r2
  48 0068 FEFFFFEB 		bl	RZA_IO_RegWrite_16
  49 006c 0400A0E1 		mov	r0, r4
  50 0070 1080BDE8 		pop	{r4, pc}
  51              	.L3:
  52 0074 0000E0E3 		mvn	r0, #0
  53 0078 1EFF2FE1 		bx	lr
  54              	.L4:
  55 007c 0000E0E3 		mvn	r0, #0
  56 0080 1080BDE8 		pop	{r4, pc}
  58              		.section	.text.R_GPIO_HWUninitialise,"ax",%progbits
  59              		.align	2
  60              		.global	R_GPIO_HWUninitialise
  61              		.syntax unified
  62              		.arm
  63              		.fpu neon
  65              	R_GPIO_HWUninitialise:
  66              		@ args = 0, pretend = 0, frame = 0
  67              		@ frame_needed = 0, uses_anonymous_args = 0
  68              		@ link register save eliminated.
  69 0000 003000E3 		movw	r3, #:lower16:.LANCHOR3
  70 0004 0020A0E3 		mov	r2, #0
  71 0008 003040E3 		movt	r3, #:upper16:.LANCHOR3
  72 000c 0200A0E1 		mov	r0, r2
  73 0010 002083E5 		str	r2, [r3]
  74 0014 1EFF2FE1 		bx	lr
  76              		.section	.text.R_GPIO_PortWrite,"ax",%progbits
  77              		.align	2
  78              		.global	R_GPIO_PortWrite
  79              		.syntax unified
  80              		.arm
  81              		.fpu neon
  83              	R_GPIO_PortWrite:
  84              		@ args = 0, pretend = 0, frame = 0
  85              		@ frame_needed = 0, uses_anonymous_args = 0
  86 0000 2004A0E1 		lsr	r0, r0, #8
  87 0004 150050E3 		cmp	r0, #21
  88 0008 0700008A 		bhi	.L13
  89 000c FD0480E2 		add	r0, r0, #-50331648
  90 0010 10402DE9 		push	{r4, lr}
  91 0014 0030E0E3 		mvn	r3, #0
  92 0018 7F0D40E2 		sub	r0, r0, #8128
  93 001c 0020A0E3 		mov	r2, #0
  94 0020 FEFFFFEB 		bl	RZA_IO_RegWrite_8
  95 0024 0000A0E3 		mov	r0, #0
  96 0028 1080BDE8 		pop	{r4, pc}
  97              	.L13:
  98 002c 0400E0E3 		mvn	r0, #4
  99 0030 1EFF2FE1 		bx	lr
 101              		.section	.text.R_GPIO_PortRead,"ax",%progbits
 102              		.align	2
 103              		.global	R_GPIO_PortRead
 104              		.syntax unified
 105              		.arm
 106              		.fpu neon
 108              	R_GPIO_PortRead:
 109              		@ args = 0, pretend = 0, frame = 0
 110              		@ frame_needed = 0, uses_anonymous_args = 0
 111 0000 2034A0E1 		lsr	r3, r0, #8
 112 0004 150053E3 		cmp	r3, #21
 113 0008 0B00008A 		bhi	.L20
 114 000c 60000EE3 		movw	r0, #57440
 115 0010 10402DE9 		push	{r4, lr}
 116 0014 FF0C4FE3 		movt	r0, 64767
 117 0018 0140A0E1 		mov	r4, r1
 118 001c 0020E0E3 		mvn	r2, #0
 119 0020 0010A0E3 		mov	r1, #0
 120 0024 000083E0 		add	r0, r3, r0
 121 0028 FEFFFFEB 		bl	RZA_IO_RegRead_8
 122 002c 0030A0E3 		mov	r3, #0
 123 0030 0000C4E5 		strb	r0, [r4]
 124 0034 0300A0E1 		mov	r0, r3
 125 0038 1080BDE8 		pop	{r4, pc}
 126              	.L20:
 127 003c 0430E0E3 		mvn	r3, #4
 128 0040 0300A0E1 		mov	r0, r3
 129 0044 1EFF2FE1 		bx	lr
 131              		.section	.text.R_GPIO_PinWrite,"ax",%progbits
 132              		.align	2
 133              		.global	R_GPIO_PinWrite
 134              		.syntax unified
 135              		.arm
 136              		.fpu neon
 138              	R_GPIO_PinWrite:
 139              		@ args = 0, pretend = 0, frame = 0
 140              		@ frame_needed = 0, uses_anonymous_args = 0
 141 0000 7020EFE6 		uxtb	r2, r0
 142 0004 70402DE9 		push	{r4, r5, r6, lr}
 143 0008 070052E3 		cmp	r2, #7
 144 000c 1700008A 		bhi	.L36
 145 0010 2054A0E1 		lsr	r5, r0, #8
 146 0014 003000E3 		movw	r3, #:lower16:.LANCHOR0
 147 0018 003040E3 		movt	r3, #:upper16:.LANCHOR0
 148 001c 0530D3E7 		ldrb	r3, [r3, r5]	@ zero_extendqisi2
 149 0020 3332A0E1 		lsr	r3, r3, r2
 150 0024 010013E3 		tst	r3, #1
 151 0028 1000000A 		beq	.L36
 152 002c 150055E3 		cmp	r5, #21
 153 0030 0E00008A 		bhi	.L36
 154 0034 000051E3 		cmp	r1, #0
 155 0038 0F00001A 		bne	.L49
 156 003c 00E000E3 		movw	lr, #:lower16:.LANCHOR4
 157 0040 01C0A0E1 		mov	ip, r1
 158 0044 00E040E3 		movt	lr, #:upper16:.LANCHOR4
 159              	.L31:
 160 0048 B1309EE1 		ldrh	r3, [lr, r1]
 161 004c 061081E2 		add	r1, r1, #6
 162 0050 000053E1 		cmp	r3, r0
 163 0054 1700000A 		beq	.L50
 164 0058 01C08CE2 		add	ip, ip, #1
 165 005c 16005CE3 		cmp	ip, #22
 166 0060 F8FFFF1A 		bne	.L31
 167 0064 0340E0E3 		mvn	r4, #3
 168 0068 0400A0E1 		mov	r0, r4
 169 006c 7080BDE8 		pop	{r4, r5, r6, pc}
 170              	.L36:
 171 0070 0040E0E3 		mvn	r4, #0
 172              	.L44:
 173 0074 0400A0E1 		mov	r0, r4
 174 0078 7080BDE8 		pop	{r4, r5, r6, pc}
 175              	.L49:
 176 007c 010051E3 		cmp	r1, #1
 177 0080 1400000A 		beq	.L39
 178 0084 020051E3 		cmp	r1, #2
 179 0088 0110A003 		moveq	r1, #1
 180 008c 0010A013 		movne	r1, #0
 181 0090 0040A003 		moveq	r4, #0
 182 0094 0340E013 		mvnne	r4, #3
 183              	.L29:
 184 0098 003000E3 		movw	r3, #:lower16:.LANCHOR5
 185 009c FD0485E2 		add	r0, r5, #-50331648
 186 00a0 003040E3 		movt	r3, #:upper16:.LANCHOR5
 187 00a4 7F0D40E2 		sub	r0, r0, #8128
 188 00a8 0231D3E7 		ldrb	r3, [r3, r2, lsl #2]	@ zero_extendqisi2
 189 00ac FEFFFFEB 		bl	RZA_IO_RegWrite_8
 190 00b0 0400A0E1 		mov	r0, r4
 191 00b4 7080BDE8 		pop	{r4, r5, r6, pc}
 192              	.L50:
 193 00b8 8CC08CE0 		add	ip, ip, ip, lsl #1
 194 00bc 8CC08EE0 		add	ip, lr, ip, lsl #1
 195 00c0 0230DCE5 		ldrb	r3, [ip, #2]	@ zero_extendqisi2
 196 00c4 030053E3 		cmp	r3, #3
 197 00c8 0500000A 		beq	.L51
 198 00cc 040053E3 		cmp	r3, #4
 199 00d0 0040A013 		movne	r4, #0
 200 00d4 E6FFFF1A 		bne	.L44
 201              	.L39:
 202 00d8 0010A0E3 		mov	r1, #0
 203 00dc 0140A0E1 		mov	r4, r1
 204 00e0 ECFFFFEA 		b	.L29
 205              	.L51:
 206 00e4 0110A0E3 		mov	r1, #1
 207 00e8 0040A0E3 		mov	r4, #0
 208 00ec E9FFFFEA 		b	.L29
 210              		.section	.text.R_GPIO_PinRead,"ax",%progbits
 211              		.align	2
 212              		.global	R_GPIO_PinRead
 213              		.syntax unified
 214              		.arm
 215              		.fpu neon
 217              	R_GPIO_PinRead:
 218              		@ args = 0, pretend = 0, frame = 0
 219              		@ frame_needed = 0, uses_anonymous_args = 0
 220 0000 70C0EFE6 		uxtb	ip, r0
 221 0004 07005CE3 		cmp	ip, #7
 222 0008 1900008A 		bhi	.L55
 223 000c 2034A0E1 		lsr	r3, r0, #8
 224 0010 002000E3 		movw	r2, #:lower16:.LANCHOR0
 225 0014 002040E3 		movt	r2, #:upper16:.LANCHOR0
 226 0018 70402DE9 		push	{r4, r5, r6, lr}
 227 001c 0340D2E7 		ldrb	r4, [r2, r3]	@ zero_extendqisi2
 228 0020 344CE0E1 		mvn	r4, r4, lsr ip
 229 0024 014004E2 		and	r4, r4, #1
 230 0028 150053E3 		cmp	r3, #21
 231 002c 01408483 		orrhi	r4, r4, #1
 232 0030 000054E3 		cmp	r4, #0
 233 0034 1000001A 		bne	.L56
 234 0038 002000E3 		movw	r2, #:lower16:.LANCHOR5
 235 003c 60000EE3 		movw	r0, #57440
 236 0040 002040E3 		movt	r2, #:upper16:.LANCHOR5
 237 0044 FF0C4FE3 		movt	r0, 64767
 238 0048 000083E0 		add	r0, r3, r0
 239 004c 0150A0E1 		mov	r5, r1
 240 0050 0C21D2E7 		ldrb	r2, [r2, ip, lsl #2]	@ zero_extendqisi2
 241 0054 0C10A0E1 		mov	r1, ip
 242 0058 FEFFFFEB 		bl	RZA_IO_RegRead_8
 243 005c 000050E3 		cmp	r0, #0
 244 0060 0230A013 		movne	r3, #2
 245 0064 0130A003 		moveq	r3, #1
 246 0068 0400A011 		movne	r0, r4
 247 006c 0030C5E5 		strb	r3, [r5]
 248 0070 7080BDE8 		pop	{r4, r5, r6, pc}
 249              	.L55:
 250 0074 0000E0E3 		mvn	r0, #0
 251 0078 1EFF2FE1 		bx	lr
 252              	.L56:
 253 007c 0000E0E3 		mvn	r0, #0
 254 0080 7080BDE8 		pop	{r4, r5, r6, pc}
 256              		.section	.text.R_GPIO_PinDirectionSet,"ax",%progbits
 257              		.align	2
 258              		.global	R_GPIO_PinDirectionSet
 259              		.syntax unified
 260              		.arm
 261              		.fpu neon
 263              	R_GPIO_PinDirectionSet:
 264              		@ args = 0, pretend = 0, frame = 0
 265              		@ frame_needed = 0, uses_anonymous_args = 0
 266 0000 70402DE9 		push	{r4, r5, r6, lr}
 267 0004 7040EFE6 		uxtb	r4, r0
 268 0008 070054E3 		cmp	r4, #7
 269 000c 1D00008A 		bhi	.L73
 270 0010 20E4A0E1 		lsr	lr, r0, #8
 271 0014 003000E3 		movw	r3, #:lower16:.LANCHOR0
 272 0018 003040E3 		movt	r3, #:upper16:.LANCHOR0
 273 001c 0E50D3E7 		ldrb	r5, [r3, lr]	@ zero_extendqisi2
 274 0020 3554E0E1 		mvn	r5, r5, lsr r4
 275 0024 015005E2 		and	r5, r5, #1
 276 0028 15005EE3 		cmp	lr, #21
 277 002c 01508583 		orrhi	r5, r5, #1
 278 0030 000055E3 		cmp	r5, #0
 279 0034 1300001A 		bne	.L73
 280 0038 000051E3 		cmp	r1, #0
 281 003c 1300000A 		beq	.L88
 282 0040 003000E3 		movw	r3, #:lower16:.LANCHOR2
 283 0044 8EE0A0E1 		lsl	lr, lr, #1
 284 0048 003040E3 		movt	r3, #:upper16:.LANCHOR2
 285 004c 042193E7 		ldr	r2, [r3, r4, lsl #2]
 286 0050 020051E3 		cmp	r1, #2
 287 0054 003000E3 		movw	r3, #:lower16:.LANCHOR1
 288 0058 FD048EE2 		add	r0, lr, #-50331648
 289 005c 003040E3 		movt	r3, #:upper16:.LANCHOR1
 290 0060 020A40E2 		sub	r0, r0, #8192
 291 0064 043193E7 		ldr	r3, [r3, r4, lsl #2]
 292 0068 7220FFE6 		uxth	r2, r2
 293 006c 2300000A 		beq	.L70
 294 0070 030051E3 		cmp	r1, #3
 295 0074 3700000A 		beq	.L71
 296 0078 010051E3 		cmp	r1, #1
 297 007c 3000000A 		beq	.L69
 298 0080 0200E0E3 		mvn	r0, #2
 299 0084 7080BDE8 		pop	{r4, r5, r6, pc}
 300              	.L73:
 301 0088 0000E0E3 		mvn	r0, #0
 302 008c 7080BDE8 		pop	{r4, r5, r6, pc}
 303              	.L88:
 304 0090 00C000E3 		movw	ip, #:lower16:.LANCHOR4
 305 0094 0120A0E1 		mov	r2, r1
 306 0098 00C040E3 		movt	ip, #:upper16:.LANCHOR4
 307              	.L67:
 308 009c B1309CE1 		ldrh	r3, [ip, r1]
 309 00a0 061081E2 		add	r1, r1, #6
 310 00a4 000053E1 		cmp	r3, r0
 311 00a8 0400000A 		beq	.L89
 312 00ac 012082E2 		add	r2, r2, #1
 313 00b0 160052E3 		cmp	r2, #22
 314 00b4 F8FFFF1A 		bne	.L67
 315              	.L86:
 316 00b8 0300E0E3 		mvn	r0, #3
 317 00bc 7080BDE8 		pop	{r4, r5, r6, pc}
 318              	.L89:
 319 00c0 822082E0 		add	r2, r2, r2, lsl #1
 320 00c4 82208CE0 		add	r2, ip, r2, lsl #1
 321 00c8 0230D2E5 		ldrb	r3, [r2, #2]	@ zero_extendqisi2
 322 00cc 032043E2 		sub	r2, r3, #3
 323 00d0 020052E3 		cmp	r2, #2
 324 00d4 0E00008A 		bhi	.L90
 325 00d8 003000E3 		movw	r3, #:lower16:.LANCHOR2
 326 00dc 8EE0A0E1 		lsl	lr, lr, #1
 327 00e0 003040E3 		movt	r3, #:upper16:.LANCHOR2
 328 00e4 042193E7 		ldr	r2, [r3, r4, lsl #2]
 329 00e8 003000E3 		movw	r3, #:lower16:.LANCHOR1
 330 00ec 003040E3 		movt	r3, #:upper16:.LANCHOR1
 331 00f0 FD048EE2 		add	r0, lr, #-50331648
 332 00f4 043193E7 		ldr	r3, [r3, r4, lsl #2]
 333 00f8 020A40E2 		sub	r0, r0, #8192
 334 00fc 7220FFE6 		uxth	r2, r2
 335              	.L70:
 336 0100 7330FFE6 		uxth	r3, r3
 337 0104 0310A0E3 		mov	r1, #3
 338 0108 FEFFFFEB 		bl	RZA_IO_RegWrite_16
 339 010c 0000A0E3 		mov	r0, #0
 340 0110 7080BDE8 		pop	{r4, r5, r6, pc}
 341              	.L90:
 342 0114 020053E3 		cmp	r3, #2
 343 0118 E6FFFF1A 		bne	.L86
 344 011c 003000E3 		movw	r3, #:lower16:.LANCHOR2
 345 0120 8E00A0E1 		lsl	r0, lr, #1
 346 0124 003040E3 		movt	r3, #:upper16:.LANCHOR2
 347 0128 042193E7 		ldr	r2, [r3, r4, lsl #2]
 348 012c 003000E3 		movw	r3, #:lower16:.LANCHOR1
 349 0130 003040E3 		movt	r3, #:upper16:.LANCHOR1
 350 0134 FD0480E2 		add	r0, r0, #-50331648
 351 0138 043193E7 		ldr	r3, [r3, r4, lsl #2]
 352 013c 020A40E2 		sub	r0, r0, #8192
 353 0140 7220FFE6 		uxth	r2, r2
 354              	.L69:
 355 0144 7330FFE6 		uxth	r3, r3
 356 0148 0210A0E3 		mov	r1, #2
 357 014c FEFFFFEB 		bl	RZA_IO_RegWrite_16
 358 0150 0000A0E3 		mov	r0, #0
 359 0154 7080BDE8 		pop	{r4, r5, r6, pc}
 360              	.L71:
 361 0158 7330FFE6 		uxth	r3, r3
 362 015c 0510A0E1 		mov	r1, r5
 363 0160 FEFFFFEB 		bl	RZA_IO_RegWrite_16
 364 0164 0500A0E1 		mov	r0, r5
 365 0168 7080BDE8 		pop	{r4, r5, r6, pc}
 367              		.section	.text.R_GPIO_PortDirectionSet,"ax",%progbits
 368              		.align	2
 369              		.global	R_GPIO_PortDirectionSet
 370              		.syntax unified
 371              		.arm
 372              		.fpu neon
 374              	R_GPIO_PortDirectionSet:
 375              		@ args = 0, pretend = 0, frame = 0
 376              		@ frame_needed = 0, uses_anonymous_args = 0
 377 0000 F0412DE9 		push	{r4, r5, r6, r7, r8, lr}
 378 0004 0050A0E1 		mov	r5, r0
 379 0008 2004A0E1 		lsr	r0, r0, #8
 380 000c 150050E3 		cmp	r0, #21
 381 0010 2B00008A 		bhi	.L97
 382 0014 00C000E3 		movw	ip, #:lower16:.LANCHOR0
 383 0018 0160A0E1 		mov	r6, r1
 384 001c 0270A0E1 		mov	r7, r2
 385 0020 0210A0E1 		mov	r1, r2
 386 0024 00C040E3 		movt	ip, #:upper16:.LANCHOR0
 387 0028 0020A0E3 		mov	r2, #0
 388              	.L94:
 389 002c 014011E2 		ands	r4, r1, #1
 390 0030 0130A0E3 		mov	r3, #1
 391 0034 0030DC17 		ldrbne	r3, [ip, r0]	@ zero_extendqisi2
 392 0038 A110A0E1 		lsr	r1, r1, #1
 393 003c 3332E011 		mvnne	r3, r3, lsr r2
 394 0040 012082E2 		add	r2, r2, #1
 395 0044 7220EFE6 		uxtb	r2, r2
 396 0048 01300312 		andne	r3, r3, #1
 397 004c 00406312 		rsbne	r4, r3, #0
 398 0050 01302312 		eorne	r3, r3, #1
 399 0054 070052E3 		cmp	r2, #7
 400 0058 0030A083 		movhi	r3, #0
 401 005c 01300392 		andls	r3, r3, #1
 402 0060 000053E3 		cmp	r3, #0
 403 0064 F0FFFF1A 		bne	.L94
 404 0068 000054E3 		cmp	r4, #0
 405 006c 0800000A 		beq	.L96
 406 0070 110000EA 		b	.L99
 407              	.L95:
 408 0074 014084E2 		add	r4, r4, #1
 409 0078 A770A0E1 		lsr	r7, r7, #1
 410 007c 7440EFE6 		uxtb	r4, r4
 411 0080 070054E3 		cmp	r4, #7
 412 0084 0030A083 		movhi	r3, #0
 413 0088 01300392 		andls	r3, r3, #1
 414 008c 000053E3 		cmp	r3, #0
 415 0090 0800000A 		beq	.L104
 416              	.L96:
 417 0094 010017E2 		ands	r0, r7, #1
 418 0098 0130A0E3 		mov	r3, #1
 419 009c F4FFFF0A 		beq	.L95
 420 00a0 0610A0E1 		mov	r1, r6
 421 00a4 040085E1 		orr	r0, r5, r4
 422 00a8 FEFFFFEB 		bl	R_GPIO_PinDirectionSet
 423 00ac 103F6FE1 		clz	r3, r0
 424 00b0 A332A0E1 		lsr	r3, r3, #5
 425 00b4 EEFFFFEA 		b	.L95
 426              	.L104:
 427 00b8 F081BDE8 		pop	{r4, r5, r6, r7, r8, pc}
 428              	.L99:
 429 00bc 0000E0E3 		mvn	r0, #0
 430 00c0 F081BDE8 		pop	{r4, r5, r6, r7, r8, pc}
 431              	.L97:
 432 00c4 0400E0E3 		mvn	r0, #4
 433 00c8 F081BDE8 		pop	{r4, r5, r6, r7, r8, pc}
 435              		.section	.text.R_GPIO_PinDirectionGet,"ax",%progbits
 436              		.align	2
 437              		.global	R_GPIO_PinDirectionGet
 438              		.syntax unified
 439              		.arm
 440              		.fpu neon
 442              	R_GPIO_PinDirectionGet:
 443              		@ args = 0, pretend = 0, frame = 0
 444              		@ frame_needed = 0, uses_anonymous_args = 0
 445 0000 7030EFE6 		uxtb	r3, r0
 446 0004 070053E3 		cmp	r3, #7
 447 0008 1F00008A 		bhi	.L110
 448 000c 2004A0E1 		lsr	r0, r0, #8
 449 0010 002000E3 		movw	r2, #:lower16:.LANCHOR0
 450 0014 002040E3 		movt	r2, #:upper16:.LANCHOR0
 451 0018 70402DE9 		push	{r4, r5, r6, lr}
 452 001c 0040D2E7 		ldrb	r4, [r2, r0]	@ zero_extendqisi2
 453 0020 3443E0E1 		mvn	r4, r4, lsr r3
 454 0024 014004E2 		and	r4, r4, #1
 455 0028 150050E3 		cmp	r0, #21
 456 002c 01408483 		orrhi	r4, r4, #1
 457 0030 000054E3 		cmp	r4, #0
 458 0034 2100001A 		bne	.L111
 459 0038 002000E3 		movw	r2, #:lower16:.LANCHOR1
 460 003c 00C000E3 		movw	ip, #:lower16:.LANCHOR2
 461 0040 00C040E3 		movt	ip, #:upper16:.LANCHOR2
 462 0044 002040E3 		movt	r2, #:upper16:.LANCHOR1
 463 0048 032192E7 		ldr	r2, [r2, r3, lsl #2]
 464 004c 0150A0E1 		mov	r5, r1
 465 0050 03119CE7 		ldr	r1, [ip, r3, lsl #2]
 466 0054 8000A0E1 		lsl	r0, r0, #1
 467 0058 FD0480E2 		add	r0, r0, #-50331648
 468 005c 020A40E2 		sub	r0, r0, #8192
 469 0060 7220FFE6 		uxth	r2, r2
 470 0064 7110FFE6 		uxth	r1, r1
 471 0068 FEFFFFEB 		bl	RZA_IO_RegRead_16
 472 006c 020050E3 		cmp	r0, #2
 473 0070 0E00000A 		beq	.L107
 474 0074 030050E3 		cmp	r0, #3
 475 0078 0500000A 		beq	.L108
 476 007c 000050E3 		cmp	r0, #0
 477 0080 0700000A 		beq	.L119
 478 0084 0300E0E3 		mvn	r0, #3
 479 0088 7080BDE8 		pop	{r4, r5, r6, pc}
 480              	.L110:
 481 008c 0000E0E3 		mvn	r0, #0
 482 0090 1EFF2FE1 		bx	lr
 483              	.L108:
 484 0094 0230A0E3 		mov	r3, #2
 485 0098 0400A0E1 		mov	r0, r4
 486 009c 0030C5E5 		strb	r3, [r5]
 487 00a0 7080BDE8 		pop	{r4, r5, r6, pc}
 488              	.L119:
 489 00a4 0330A0E3 		mov	r3, #3
 490 00a8 0030C5E5 		strb	r3, [r5]
 491 00ac 7080BDE8 		pop	{r4, r5, r6, pc}
 492              	.L107:
 493 00b0 0130A0E3 		mov	r3, #1
 494 00b4 0400A0E1 		mov	r0, r4
 495 00b8 0030C5E5 		strb	r3, [r5]
 496 00bc 7080BDE8 		pop	{r4, r5, r6, pc}
 497              	.L111:
 498 00c0 0000E0E3 		mvn	r0, #0
 499 00c4 7080BDE8 		pop	{r4, r5, r6, pc}
 501              		.section	.text.R_GPIO_PinAssignmentSet,"ax",%progbits
 502              		.align	2
 503              		.global	R_GPIO_PinAssignmentSet
 504              		.syntax unified
 505              		.arm
 506              		.fpu neon
 508              	R_GPIO_PinAssignmentSet:
 509              		@ args = 0, pretend = 0, frame = 0
 510              		@ frame_needed = 0, uses_anonymous_args = 0
 511 0000 7020EFE6 		uxtb	r2, r0
 512 0004 070052E3 		cmp	r2, #7
 513 0008 1600008A 		bhi	.L125
 514 000c 2004A0E1 		lsr	r0, r0, #8
 515 0010 003000E3 		movw	r3, #:lower16:.LANCHOR0
 516 0014 003040E3 		movt	r3, #:upper16:.LANCHOR0
 517 0018 0030D3E7 		ldrb	r3, [r3, r0]	@ zero_extendqisi2
 518 001c 3332A0E1 		lsr	r3, r3, r2
 519 0020 010013E3 		tst	r3, #1
 520 0024 0F00000A 		beq	.L125
 521 0028 150050E3 		cmp	r0, #21
 522 002c 0D00008A 		bhi	.L125
 523 0030 000051E3 		cmp	r1, #0
 524 0034 0D00001A 		bne	.L134
 525              	.L122:
 526 0038 003000E3 		movw	r3, #:lower16:.LANCHOR5
 527 003c 00C000E3 		movw	ip, #:lower16:.LANCHOR6
 528 0040 00C040E3 		movt	ip, #:upper16:.LANCHOR6
 529 0044 FD0480E2 		add	r0, r0, #-50331648
 530 0048 003040E3 		movt	r3, #:upper16:.LANCHOR5
 531 004c 10402DE9 		push	{r4, lr}
 532 0050 0231D3E7 		ldrb	r3, [r3, r2, lsl #2]	@ zero_extendqisi2
 533 0054 7E0D40E2 		sub	r0, r0, #8064
 534 0058 0221DCE7 		ldrb	r2, [ip, r2, lsl #2]	@ zero_extendqisi2
 535 005c FEFFFFEB 		bl	RZA_IO_RegWrite_8
 536 0060 0000A0E3 		mov	r0, #0
 537 0064 1080BDE8 		pop	{r4, pc}
 538              	.L125:
 539 0068 0000E0E3 		mvn	r0, #0
 540 006c 1EFF2FE1 		bx	lr
 541              	.L134:
 542 0070 010051E3 		cmp	r1, #1
 543 0074 EFFFFF0A 		beq	.L122
 544 0078 0300E0E3 		mvn	r0, #3
 545 007c 1EFF2FE1 		bx	lr
 547              		.section	.text.R_GPIO_PinAssignmentGet,"ax",%progbits
 548              		.align	2
 549              		.global	R_GPIO_PinAssignmentGet
 550              		.syntax unified
 551              		.arm
 552              		.fpu neon
 554              	R_GPIO_PinAssignmentGet:
 555              		@ args = 0, pretend = 0, frame = 0
 556              		@ frame_needed = 0, uses_anonymous_args = 0
 557 0000 7030EFE6 		uxtb	r3, r0
 558 0004 070053E3 		cmp	r3, #7
 559 0008 1900008A 		bhi	.L138
 560 000c 2004A0E1 		lsr	r0, r0, #8
 561 0010 002000E3 		movw	r2, #:lower16:.LANCHOR0
 562 0014 002040E3 		movt	r2, #:upper16:.LANCHOR0
 563 0018 70402DE9 		push	{r4, r5, r6, lr}
 564 001c 0040D2E7 		ldrb	r4, [r2, r0]	@ zero_extendqisi2
 565 0020 3443E0E1 		mvn	r4, r4, lsr r3
 566 0024 014004E2 		and	r4, r4, #1
 567 0028 150050E3 		cmp	r0, #21
 568 002c 01408483 		orrhi	r4, r4, #1
 569 0030 000054E3 		cmp	r4, #0
 570 0034 1000001A 		bne	.L139
 571 0038 0150A0E1 		mov	r5, r1
 572 003c 002000E3 		movw	r2, #:lower16:.LANCHOR5
 573 0040 001000E3 		movw	r1, #:lower16:.LANCHOR6
 574 0044 FD0480E2 		add	r0, r0, #-50331648
 575 0048 002040E3 		movt	r2, #:upper16:.LANCHOR5
 576 004c 001040E3 		movt	r1, #:upper16:.LANCHOR6
 577 0050 0321D2E7 		ldrb	r2, [r2, r3, lsl #2]	@ zero_extendqisi2
 578 0054 7E0D40E2 		sub	r0, r0, #8064
 579 0058 0311D1E7 		ldrb	r1, [r1, r3, lsl #2]	@ zero_extendqisi2
 580 005c FEFFFFEB 		bl	RZA_IO_RegRead_8
 581 0060 010050E3 		cmp	r0, #1
 582 0064 0000C505 		strbeq	r0, [r5]
 583 0068 0400A0E1 		mov	r0, r4
 584 006c 0040C515 		strbne	r4, [r5]
 585 0070 7080BDE8 		pop	{r4, r5, r6, pc}
 586              	.L138:
 587 0074 0000E0E3 		mvn	r0, #0
 588 0078 1EFF2FE1 		bx	lr
 589              	.L139:
 590 007c 0000E0E3 		mvn	r0, #0
 591 0080 7080BDE8 		pop	{r4, r5, r6, pc}
 593              		.section	.text.R_GPIO_PinTintSet,"ax",%progbits
 594              		.align	2
 595              		.global	R_GPIO_PinTintSet
 596              		.syntax unified
 597              		.arm
 598              		.fpu neon
 600              	R_GPIO_PinTintSet:
 601              		@ args = 0, pretend = 0, frame = 0
 602              		@ frame_needed = 0, uses_anonymous_args = 0
 603 0000 030051E3 		cmp	r1, #3
 604 0004 F0412DE9 		push	{r4, r5, r6, r7, r8, lr}
 605 0008 4F00000A 		beq	.L163
 606 000c 000051E3 		cmp	r1, #0
 607 0010 0140A0E1 		mov	r4, r1
 608 0014 0060A013 		movne	r6, #0
 609 0018 0B00001A 		bne	.L148
 610 001c 00C000E3 		movw	ip, #:lower16:.LANCHOR4
 611 0020 0410A0E1 		mov	r1, r4
 612 0024 00C040E3 		movt	ip, #:upper16:.LANCHOR4
 613 0028 0420A0E1 		mov	r2, r4
 614              	.L149:
 615 002c B1309CE1 		ldrh	r3, [ip, r1]
 616 0030 061081E2 		add	r1, r1, #6
 617 0034 000053E1 		cmp	r3, r0
 618 0038 3A00000A 		beq	.L164
 619 003c 012082E2 		add	r2, r2, #1
 620 0040 160052E3 		cmp	r2, #22
 621 0044 F8FFFF1A 		bne	.L149
 622 0048 0360E0E3 		mvn	r6, #3
 623              	.L148:
 624 004c 7050EFE6 		uxtb	r5, r0
 625 0050 2004A0E1 		lsr	r0, r0, #8
 626 0054 070055E3 		cmp	r5, #7
 627 0058 2F00008A 		bhi	.L155
 628              	.L165:
 629 005c 003000E3 		movw	r3, #:lower16:.LANCHOR0
 630 0060 003040E3 		movt	r3, #:upper16:.LANCHOR0
 631 0064 0070D3E7 		ldrb	r7, [r3, r0]	@ zero_extendqisi2
 632 0068 3775E0E1 		mvn	r7, r7, lsr r5
 633 006c 017007E2 		and	r7, r7, #1
 634 0070 150050E3 		cmp	r0, #21
 635 0074 01708783 		orrhi	r7, r7, #1
 636 0078 000057E3 		cmp	r7, #0
 637 007c 2600001A 		bne	.L155
 638 0080 800185E0 		add	r0, r5, r0, lsl #3
 639 0084 010054E3 		cmp	r4, #1
 640 0088 FD5480E2 		add	r5, r0, #-50331648
 641 008c 1E5C45E2 		sub	r5, r5, #7680
 642 0090 3000000A 		beq	.L150
 643 0094 020054E3 		cmp	r4, #2
 644 0098 0360E013 		mvnne	r6, #3
 645 009c 1F00001A 		bne	.L160
 646 00a0 FF020EE3 		movw	r0, #58111
 647 00a4 0710A0E1 		mov	r1, r7
 648 00a8 8030A0E3 		mov	r3, #128
 649 00ac FF0C4FE3 		movt	r0, 64767
 650 00b0 0720A0E3 		mov	r2, #7
 651 00b4 FEFFFFEB 		bl	RZA_IO_RegWrite_8
 652 00b8 FF020EE3 		movw	r0, #58111
 653 00bc 4030A0E3 		mov	r3, #64
 654 00c0 FF0C4FE3 		movt	r0, 64767
 655 00c4 0620A0E3 		mov	r2, #6
 656 00c8 0110A0E3 		mov	r1, #1
 657 00cc FEFFFFEB 		bl	RZA_IO_RegWrite_8
 658 00d0 0500A0E1 		mov	r0, r5
 659 00d4 4030A0E3 		mov	r3, #64
 660 00d8 0620A0E3 		mov	r2, #6
 661 00dc 0110A0E3 		mov	r1, #1
 662 00e0 FEFFFFEB 		bl	RZA_IO_RegWrite_8
 663 00e4 FF020EE3 		movw	r0, #58111
 664 00e8 0710A0E1 		mov	r1, r7
 665 00ec FF0C4FE3 		movt	r0, 64767
 666 00f0 4030A0E3 		mov	r3, #64
 667 00f4 0620A0E3 		mov	r2, #6
 668 00f8 FEFFFFEB 		bl	RZA_IO_RegWrite_8
 669 00fc FF020EE3 		movw	r0, #58111
 670 0100 8030A0E3 		mov	r3, #128
 671 0104 FF0C4FE3 		movt	r0, 64767
 672 0108 0720A0E3 		mov	r2, #7
 673 010c 0110A0E3 		mov	r1, #1
 674 0110 FEFFFFEB 		bl	RZA_IO_RegWrite_8
 675 0114 0600A0E1 		mov	r0, r6
 676 0118 F081BDE8 		pop	{r4, r5, r6, r7, r8, pc}
 677              	.L155:
 678 011c 0060E0E3 		mvn	r6, #0
 679              	.L160:
 680 0120 0600A0E1 		mov	r0, r6
 681 0124 F081BDE8 		pop	{r4, r5, r6, r7, r8, pc}
 682              	.L164:
 683 0128 7050EFE6 		uxtb	r5, r0
 684 012c 822082E0 		add	r2, r2, r2, lsl #1
 685 0130 2004A0E1 		lsr	r0, r0, #8
 686 0134 82208CE0 		add	r2, ip, r2, lsl #1
 687 0138 070055E3 		cmp	r5, #7
 688 013c 0060A0E3 		mov	r6, #0
 689 0140 0340D2E5 		ldrb	r4, [r2, #3]	@ zero_extendqisi2
 690 0144 F4FFFF8A 		bhi	.L155
 691 0148 C3FFFFEA 		b	.L165
 692              	.L163:
 693 014c 0060A0E3 		mov	r6, #0
 694 0150 0600A0E1 		mov	r0, r6
 695 0154 F081BDE8 		pop	{r4, r5, r6, r7, r8, pc}
 696              	.L150:
 697 0158 FF020EE3 		movw	r0, #58111
 698 015c 0710A0E1 		mov	r1, r7
 699 0160 8030A0E3 		mov	r3, #128
 700 0164 FF0C4FE3 		movt	r0, 64767
 701 0168 0720A0E3 		mov	r2, #7
 702 016c FEFFFFEB 		bl	RZA_IO_RegWrite_8
 703 0170 FF020EE3 		movw	r0, #58111
 704 0174 0410A0E1 		mov	r1, r4
 705 0178 4030A0E3 		mov	r3, #64
 706 017c FF0C4FE3 		movt	r0, 64767
 707 0180 0620A0E3 		mov	r2, #6
 708 0184 FEFFFFEB 		bl	RZA_IO_RegWrite_8
 709 0188 0500A0E1 		mov	r0, r5
 710 018c 0710A0E1 		mov	r1, r7
 711 0190 4030A0E3 		mov	r3, #64
 712 0194 0620A0E3 		mov	r2, #6
 713 0198 FEFFFFEB 		bl	RZA_IO_RegWrite_8
 714 019c FF020EE3 		movw	r0, #58111
 715 01a0 0710A0E1 		mov	r1, r7
 716 01a4 FF0C4FE3 		movt	r0, 64767
 717 01a8 4030A0E3 		mov	r3, #64
 718 01ac 0620A0E3 		mov	r2, #6
 719 01b0 FEFFFFEB 		bl	RZA_IO_RegWrite_8
 720 01b4 FF020EE3 		movw	r0, #58111
 721 01b8 0410A0E1 		mov	r1, r4
 722 01bc FF0C4FE3 		movt	r0, 64767
 723 01c0 8030A0E3 		mov	r3, #128
 724 01c4 0720A0E3 		mov	r2, #7
 725 01c8 FEFFFFEB 		bl	RZA_IO_RegWrite_8
 726 01cc 0600A0E1 		mov	r0, r6
 727 01d0 F081BDE8 		pop	{r4, r5, r6, r7, r8, pc}
 729              		.section	.text.R_GPIO_PinTintGet,"ax",%progbits
 730              		.align	2
 731              		.global	R_GPIO_PinTintGet
 732              		.syntax unified
 733              		.arm
 734              		.fpu neon
 736              	R_GPIO_PinTintGet:
 737              		@ args = 0, pretend = 0, frame = 0
 738              		@ frame_needed = 0, uses_anonymous_args = 0
 739 0000 7030EFE6 		uxtb	r3, r0
 740 0004 070053E3 		cmp	r3, #7
 741 0008 1700008A 		bhi	.L169
 742 000c 2004A0E1 		lsr	r0, r0, #8
 743 0010 002000E3 		movw	r2, #:lower16:.LANCHOR0
 744 0014 002040E3 		movt	r2, #:upper16:.LANCHOR0
 745 0018 70402DE9 		push	{r4, r5, r6, lr}
 746 001c 0040D2E7 		ldrb	r4, [r2, r0]	@ zero_extendqisi2
 747 0020 3443E0E1 		mvn	r4, r4, lsr r3
 748 0024 014004E2 		and	r4, r4, #1
 749 0028 150050E3 		cmp	r0, #21
 750 002c 01408483 		orrhi	r4, r4, #1
 751 0030 000054E3 		cmp	r4, #0
 752 0034 0E00001A 		bne	.L170
 753 0038 800183E0 		add	r0, r3, r0, lsl #3
 754 003c 0150A0E1 		mov	r5, r1
 755 0040 4020A0E3 		mov	r2, #64
 756 0044 FD0480E2 		add	r0, r0, #-50331648
 757 0048 0610A0E3 		mov	r1, #6
 758 004c 1E0C40E2 		sub	r0, r0, #7680
 759 0050 FEFFFFEB 		bl	RZA_IO_RegRead_8
 760 0054 000050E3 		cmp	r0, #0
 761 0058 0130A003 		moveq	r3, #1
 762 005c 0230A013 		movne	r3, #2
 763 0060 0400A011 		movne	r0, r4
 764 0064 0030C5E5 		strb	r3, [r5]
 765 0068 7080BDE8 		pop	{r4, r5, r6, pc}
 766              	.L169:
 767 006c 0000E0E3 		mvn	r0, #0
 768 0070 1EFF2FE1 		bx	lr
 769              	.L170:
 770 0074 0000E0E3 		mvn	r0, #0
 771 0078 7080BDE8 		pop	{r4, r5, r6, pc}
 773              		.section	.text.R_GPIO_PinDscrSet,"ax",%progbits
 774              		.align	2
 775              		.global	R_GPIO_PinDscrSet
 776              		.syntax unified
 777              		.arm
 778              		.fpu neon
 780              	R_GPIO_PinDscrSet:
 781              		@ args = 0, pretend = 0, frame = 0
 782              		@ frame_needed = 0, uses_anonymous_args = 0
 783 0000 70402DE9 		push	{r4, r5, r6, lr}
 784 0004 005051E2 		subs	r5, r1, #0
 785 0008 0040A0E1 		mov	r4, r0
 786 000c 0F00001A 		bne	.L176
 787 0010 000000E3 		movw	r0, #:lower16:.LANCHOR4
 788 0014 0510A0E1 		mov	r1, r5
 789 0018 0520A0E1 		mov	r2, r5
 790 001c 000040E3 		movt	r0, #:upper16:.LANCHOR4
 791              	.L178:
 792 0020 B13090E1 		ldrh	r3, [r0, r1]
 793 0024 061081E2 		add	r1, r1, #6
 794 0028 040053E1 		cmp	r3, r4
 795 002c 0400000A 		beq	.L226
 796 0030 012082E2 		add	r2, r2, #1
 797 0034 160052E3 		cmp	r2, #22
 798 0038 F8FFFF1A 		bne	.L178
 799              	.L219:
 800 003c 0300E0E3 		mvn	r0, #3
 801 0040 7080BDE8 		pop	{r4, r5, r6, pc}
 802              	.L226:
 803 0044 822082E0 		add	r2, r2, r2, lsl #1
 804 0048 822080E0 		add	r2, r0, r2, lsl #1
 805 004c 0450D2E5 		ldrb	r5, [r2, #4]	@ zero_extendqisi2
 806              	.L176:
 807 0050 050055E3 		cmp	r5, #5
 808 0054 2400000A 		beq	.L224
 809 0058 020914E3 		tst	r4, #32768
 810 005c 2400000A 		beq	.L227
 811 0060 020954E3 		cmp	r4, #32768
 812 0064 7B00000A 		beq	.L228
 813 0068 7F3C84E2 		add	r3, r4, #32512
 814 006c 7330FFE6 		uxth	r3, r3
 815 0070 0A0053E3 		cmp	r3, #10
 816 0074 6500009A 		bls	.L229
 817 0078 7E3C84E2 		add	r3, r4, #32256
 818 007c 7330FFE6 		uxth	r3, r3
 819 0080 050053E3 		cmp	r3, #5
 820 0084 7F00009A 		bls	.L230
 821 0088 7D3C84E2 		add	r3, r4, #32000
 822 008c 7330FFE6 		uxth	r3, r3
 823 0090 0D0053E3 		cmp	r3, #13
 824 0094 3A00008A 		bhi	.L213
 825 0098 E90CA0E3 		mov	r0, #59648
 826 009c 0020E0E3 		mvn	r2, #0
 827 00a0 FF0C4FE3 		movt	r0, 64767
 828 00a4 0010A0E3 		mov	r1, #0
 829 00a8 FEFFFFEB 		bl	RZA_IO_RegRead_32
 830 00ac 013100E3 		movw	r3, #257
 831 00b0 0030D3E1 		bics	r3, r3, r0
 832 00b4 5100000A 		beq	.L231
 833 00b8 010055E3 		cmp	r5, #1
 834 00bc 0310A003 		moveq	r1, #3
 835 00c0 DDFFFF1A 		bne	.L219
 836              	.L198:
 837 00c4 834C44E2 		sub	r4, r4, #33536
 838 00c8 002000E3 		movw	r2, #:lower16:.LANCHOR11
 839 00cc 844084E0 		add	r4, r4, r4, lsl #1
 840 00d0 002040E3 		movt	r2, #:upper16:.LANCHOR11
 841 00d4 0431A0E1 		lsl	r3, r4, #2
 842              	.L223:
 843 00d8 03C082E0 		add	ip, r2, r3
 844 00dc 030092E7 		ldr	r0, [r2, r3]
 845 00e0 08309CE5 		ldr	r3, [ip, #8]
 846 00e4 0420DCE5 		ldrb	r2, [ip, #4]	@ zero_extendqisi2
 847 00e8 FEFFFFEB 		bl	RZA_IO_RegWrite_32
 848              	.L224:
 849 00ec 0000A0E3 		mov	r0, #0
 850 00f0 7080BDE8 		pop	{r4, r5, r6, pc}
 851              	.L227:
 852 00f4 000055E3 		cmp	r5, #0
 853 00f8 0E00001A 		bne	.L181
 854 00fc 000000E3 		movw	r0, #:lower16:.LANCHOR4
 855 0100 0510A0E1 		mov	r1, r5
 856 0104 0520A0E1 		mov	r2, r5
 857 0108 000040E3 		movt	r0, #:upper16:.LANCHOR4
 858              	.L183:
 859 010c B13090E1 		ldrh	r3, [r0, r1]
 860 0110 061081E2 		add	r1, r1, #6
 861 0114 040053E1 		cmp	r3, r4
 862 0118 0300000A 		beq	.L232
 863 011c 012082E2 		add	r2, r2, #1
 864 0120 160052E3 		cmp	r2, #22
 865 0124 F8FFFF1A 		bne	.L183
 866 0128 C3FFFFEA 		b	.L219
 867              	.L232:
 868 012c 822082E0 		add	r2, r2, r2, lsl #1
 869 0130 820080E0 		add	r0, r0, r2, lsl #1
 870 0134 0450D0E5 		ldrb	r5, [r0, #4]	@ zero_extendqisi2
 871              	.L181:
 872 0138 020055E3 		cmp	r5, #2
 873 013c 2404A0E1 		lsr	r0, r4, #8
 874 0140 7440EFE6 		uxtb	r4, r4
 875 0144 1000000A 		beq	.L233
 876 0148 040055E3 		cmp	r5, #4
 877 014c BAFFFF1A 		bne	.L219
 878 0150 070054E3 		cmp	r4, #7
 879 0154 0030A083 		movhi	r3, #0
 880 0158 0200008A 		bhi	.L187
 881 015c 150050E3 		cmp	r0, #21
 882 0160 0030A083 		movhi	r3, #0
 883 0164 0130A093 		movls	r3, #1
 884              	.L187:
 885 0168 002000E3 		movw	r2, #:lower16:.LANCHOR8
 886 016c 002040E3 		movt	r2, #:upper16:.LANCHOR8
 887 0170 0020D2E7 		ldrb	r2, [r2, r0]	@ zero_extendqisi2
 888 0174 3224A0E1 		lsr	r2, r2, r4
 889 0178 010012E3 		tst	r2, #1
 890 017c 0110A013 		movne	r1, #1
 891 0180 0E00001A 		bne	.L186
 892              	.L213:
 893 0184 0000E0E3 		mvn	r0, #0
 894 0188 7080BDE8 		pop	{r4, r5, r6, pc}
 895              	.L233:
 896 018c 070054E3 		cmp	r4, #7
 897 0190 0030A083 		movhi	r3, #0
 898 0194 0200008A 		bhi	.L185
 899 0198 150050E3 		cmp	r0, #21
 900 019c 0030A083 		movhi	r3, #0
 901 01a0 0130A093 		movls	r3, #1
 902              	.L185:
 903 01a4 002000E3 		movw	r2, #:lower16:.LANCHOR7
 904 01a8 002040E3 		movt	r2, #:upper16:.LANCHOR7
 905 01ac 0020D2E7 		ldrb	r2, [r2, r0]	@ zero_extendqisi2
 906 01b0 3224A0E1 		lsr	r2, r2, r4
 907 01b4 010012E3 		tst	r2, #1
 908 01b8 0310A013 		movne	r1, #3
 909 01bc F0FFFF0A 		beq	.L213
 910              	.L186:
 911 01c0 010053E3 		cmp	r3, #1
 912 01c4 EEFFFF1A 		bne	.L213
 913 01c8 003000E3 		movw	r3, #:lower16:.LANCHOR1
 914 01cc 002000E3 		movw	r2, #:lower16:.LANCHOR2
 915 01d0 003040E3 		movt	r3, #:upper16:.LANCHOR1
 916 01d4 002040E3 		movt	r2, #:upper16:.LANCHOR2
 917 01d8 043193E7 		ldr	r3, [r3, r4, lsl #2]
 918 01dc 8000A0E1 		lsl	r0, r0, #1
 919 01e0 042192E7 		ldr	r2, [r2, r4, lsl #2]
 920 01e4 FD0480E2 		add	r0, r0, #-50331648
 921 01e8 7B0D40E2 		sub	r0, r0, #7872
 922 01ec 7330FFE6 		uxth	r3, r3
 923 01f0 7220FFE6 		uxth	r2, r2
 924 01f4 FEFFFFEB 		bl	RZA_IO_RegWrite_16
 925 01f8 0000A0E3 		mov	r0, #0
 926 01fc 7080BDE8 		pop	{r4, r5, r6, pc}
 927              	.L231:
 928 0200 020055E3 		cmp	r5, #2
 929 0204 0110A003 		moveq	r1, #1
 930 0208 ADFFFF0A 		beq	.L198
 931 020c 8AFFFFEA 		b	.L219
 932              	.L229:
 933 0210 810C54E3 		cmp	r4, #33024
 934 0214 3500000A 		beq	.L234
 935 0218 030055E3 		cmp	r5, #3
 936 021c 86FFFF1A 		bne	.L219
 937              	.L193:
 938 0220 E90CA0E3 		mov	r0, #59648
 939 0224 814C44E2 		sub	r4, r4, #33024
 940 0228 0210A0E3 		mov	r1, #2
 941 022c 0420A0E3 		mov	r2, #4
 942 0230 FF0C4FE3 		movt	r0, 64767
 943 0234 844084E0 		add	r4, r4, r4, lsl #1
 944 0238 FEFFFFEB 		bl	RZA_IO_RegRead_32
 945 023c 002000E3 		movw	r2, #:lower16:.LANCHOR9
 946 0240 010050E3 		cmp	r0, #1
 947 0244 002040E3 		movt	r2, #:upper16:.LANCHOR9
 948 0248 0431A0E1 		lsl	r3, r4, #2
 949 024c 0310A013 		movne	r1, #3
 950 0250 0210A003 		moveq	r1, #2
 951 0254 9FFFFFEA 		b	.L223
 952              	.L228:
 953 0258 010055E3 		cmp	r5, #1
 954 025c 1B00000A 		beq	.L189
 955 0260 020055E3 		cmp	r5, #2
 956 0264 74FFFF1A 		bne	.L219
 957 0268 D0090EE3 		movw	r0, #59856
 958 026c 0030E0E3 		mvn	r3, #0
 959 0270 FF0C4FE3 		movt	r0, 64767
 960 0274 0020A0E3 		mov	r2, #0
 961 0278 0110A0E3 		mov	r1, #1
 962 027c FEFFFFEB 		bl	RZA_IO_RegWrite_8
 963 0280 0000A0E3 		mov	r0, #0
 964 0284 7080BDE8 		pop	{r4, r5, r6, pc}
 965              	.L230:
 966 0288 820C54E3 		cmp	r4, #33280
 967 028c 1A00000A 		beq	.L235
 968 0290 030055E3 		cmp	r5, #3
 969 0294 68FFFF1A 		bne	.L219
 970              	.L196:
 971 0298 E90CA0E3 		mov	r0, #59648
 972 029c 824C44E2 		sub	r4, r4, #33280
 973 02a0 0310A0E3 		mov	r1, #3
 974 02a4 0820A0E3 		mov	r2, #8
 975 02a8 FF0C4FE3 		movt	r0, 64767
 976 02ac 844084E0 		add	r4, r4, r4, lsl #1
 977 02b0 FEFFFFEB 		bl	RZA_IO_RegRead_32
 978 02b4 002000E3 		movw	r2, #:lower16:.LANCHOR10
 979 02b8 010050E3 		cmp	r0, #1
 980 02bc 002040E3 		movt	r2, #:upper16:.LANCHOR10
 981 02c0 0431A0E1 		lsl	r3, r4, #2
 982 02c4 0310A013 		movne	r1, #3
 983 02c8 0210A003 		moveq	r1, #2
 984 02cc 81FFFFEA 		b	.L223
 985              	.L189:
 986 02d0 D0090EE3 		movw	r0, #59856
 987 02d4 0030E0E3 		mvn	r3, #0
 988 02d8 FF0C4FE3 		movt	r0, 64767
 989 02dc 0020A0E3 		mov	r2, #0
 990 02e0 0210A0E3 		mov	r1, #2
 991 02e4 FEFFFFEB 		bl	RZA_IO_RegWrite_8
 992 02e8 0000A0E3 		mov	r0, #0
 993 02ec 7080BDE8 		pop	{r4, r5, r6, pc}
 994              	.L234:
 995 02f0 010055E3 		cmp	r5, #1
 996 02f4 C9FFFF0A 		beq	.L193
 997 02f8 4FFFFFEA 		b	.L219
 998              	.L235:
 999 02fc 010055E3 		cmp	r5, #1
 1000 0300 E4FFFF0A 		beq	.L196
 1001 0304 4CFFFFEA 		b	.L219
 1003              		.section	.text.R_GPIO_PinDscrGet,"ax",%progbits
 1004              		.align	2
 1005              		.global	R_GPIO_PinDscrGet
 1006              		.syntax unified
 1007              		.arm
 1008              		.fpu neon
 1010              	R_GPIO_PinDscrGet:
 1011              		@ args = 0, pretend = 0, frame = 0
 1012              		@ frame_needed = 0, uses_anonymous_args = 0
 1013 0000 020910E3 		tst	r0, #32768
 1014 0004 10402DE9 		push	{r4, lr}
 1015 0008 0140A0E1 		mov	r4, r1
 1016 000c 2500000A 		beq	.L267
 1017 0010 020950E3 		cmp	r0, #32768
 1018 0014 5700000A 		beq	.L268
 1019 0018 7F3C80E2 		add	r3, r0, #32512
 1020 001c 7330FFE6 		uxth	r3, r3
 1021 0020 0A0053E3 		cmp	r3, #10
 1022 0024 0500008A 		bhi	.L246
 1023 0028 810C50E3 		cmp	r0, #33024
 1024 002c 1900000A 		beq	.L251
 1025              	.L247:
 1026 0030 0330A0E3 		mov	r3, #3
 1027 0034 0000A0E3 		mov	r0, #0
 1028 0038 0030C4E5 		strb	r3, [r4]
 1029 003c 1080BDE8 		pop	{r4, pc}
 1030              	.L246:
 1031 0040 7E3C80E2 		add	r3, r0, #32256
 1032 0044 7330FFE6 		uxth	r3, r3
 1033 0048 050053E3 		cmp	r3, #5
 1034 004c 4000009A 		bls	.L269
 1035 0050 7D3C80E2 		add	r3, r0, #32000
 1036 0054 7330FFE6 		uxth	r3, r3
 1037 0058 0D0053E3 		cmp	r3, #13
 1038 005c 3A00008A 		bhi	.L255
 1039 0060 830C40E2 		sub	r0, r0, #33536
 1040 0064 002000E3 		movw	r2, #:lower16:.LANCHOR11
 1041 0068 800080E0 		add	r0, r0, r0, lsl #1
 1042 006c 002040E3 		movt	r2, #:upper16:.LANCHOR11
 1043 0070 0031A0E1 		lsl	r3, r0, #2
 1044 0074 031082E0 		add	r1, r2, r3
 1045 0078 030092E7 		ldr	r0, [r2, r3]
 1046 007c 082091E5 		ldr	r2, [r1, #8]
 1047 0080 0410D1E5 		ldrb	r1, [r1, #4]	@ zero_extendqisi2
 1048 0084 FEFFFFEB 		bl	RZA_IO_RegRead_32
 1049 0088 010050E3 		cmp	r0, #1
 1050 008c 2300000A 		beq	.L250
 1051 0090 030050E3 		cmp	r0, #3
 1052 0094 3100001A 		bne	.L265
 1053              	.L251:
 1054 0098 0130A0E3 		mov	r3, #1
 1055 009c 0000A0E3 		mov	r0, #0
 1056 00a0 0030C4E5 		strb	r3, [r4]
 1057 00a4 1080BDE8 		pop	{r4, pc}
 1058              	.L267:
 1059 00a8 7030EFE6 		uxtb	r3, r0
 1060 00ac 2004A0E1 		lsr	r0, r0, #8
 1061 00b0 070053E3 		cmp	r3, #7
 1062 00b4 2400008A 		bhi	.L255
 1063 00b8 002000E3 		movw	r2, #:lower16:.LANCHOR7
 1064 00bc 150050E3 		cmp	r0, #21
 1065 00c0 002040E3 		movt	r2, #:upper16:.LANCHOR7
 1066 00c4 0010A093 		movls	r1, #0
 1067 00c8 0020D2E7 		ldrb	r2, [r2, r0]	@ zero_extendqisi2
 1068 00cc 0110A083 		movhi	r1, #1
 1069 00d0 3223E0E1 		mvn	r2, r2, lsr r3
 1070 00d4 012002E2 		and	r2, r2, #1
 1071 00d8 022091E1 		orrs	r2, r1, r2
 1072 00dc 1300001A 		bne	.L270
 1073              	.L239:
 1074 00e0 002000E3 		movw	r2, #:lower16:.LANCHOR1
 1075 00e4 001000E3 		movw	r1, #:lower16:.LANCHOR2
 1076 00e8 002040E3 		movt	r2, #:upper16:.LANCHOR1
 1077 00ec 001040E3 		movt	r1, #:upper16:.LANCHOR2
 1078 00f0 032192E7 		ldr	r2, [r2, r3, lsl #2]
 1079 00f4 8000A0E1 		lsl	r0, r0, #1
 1080 00f8 031191E7 		ldr	r1, [r1, r3, lsl #2]
 1081 00fc FD0480E2 		add	r0, r0, #-50331648
 1082 0100 7B0D40E2 		sub	r0, r0, #7872
 1083 0104 7220FFE6 		uxth	r2, r2
 1084 0108 7110FFE6 		uxth	r1, r1
 1085 010c FEFFFFEB 		bl	RZA_IO_RegRead_16
 1086 0110 010050E3 		cmp	r0, #1
 1087 0114 1300000A 		beq	.L240
 1088 0118 030050E3 		cmp	r0, #3
 1089 011c 0F00001A 		bne	.L265
 1090              	.L250:
 1091 0120 0230A0E3 		mov	r3, #2
 1092 0124 0000A0E3 		mov	r0, #0
 1093 0128 0030C4E5 		strb	r3, [r4]
 1094 012c 1080BDE8 		pop	{r4, pc}
 1095              	.L270:
 1096 0130 002000E3 		movw	r2, #:lower16:.LANCHOR8
 1097 0134 002040E3 		movt	r2, #:upper16:.LANCHOR8
 1098 0138 0020D2E7 		ldrb	r2, [r2, r0]	@ zero_extendqisi2
 1099 013c 3223E0E1 		mvn	r2, r2, lsr r3
 1100 0140 012002E2 		and	r2, r2, #1
 1101 0144 022091E1 		orrs	r2, r1, r2
 1102 0148 E4FFFF0A 		beq	.L239
 1103              	.L255:
 1104 014c 0000E0E3 		mvn	r0, #0
 1105 0150 1080BDE8 		pop	{r4, pc}
 1106              	.L269:
 1107 0154 820C50E3 		cmp	r0, #33280
 1108 0158 B4FFFF1A 		bne	.L247
 1109 015c CDFFFFEA 		b	.L251
 1110              	.L265:
 1111 0160 0300E0E3 		mvn	r0, #3
 1112 0164 1080BDE8 		pop	{r4, pc}
 1113              	.L240:
 1114 0168 0430A0E3 		mov	r3, #4
 1115 016c 0000A0E3 		mov	r0, #0
 1116 0170 0030C4E5 		strb	r3, [r4]
 1117 0174 1080BDE8 		pop	{r4, pc}
 1118              	.L268:
 1119 0178 D0090EE3 		movw	r0, #59856
 1120 017c 0020E0E3 		mvn	r2, #0
 1121 0180 FF0C4FE3 		movt	r0, 64767
 1122 0184 0010A0E3 		mov	r1, #0
 1123 0188 FEFFFFEB 		bl	RZA_IO_RegRead_8
 1124 018c 010050E3 		cmp	r0, #1
 1125 0190 E2FFFF0A 		beq	.L250
 1126 0194 020050E3 		cmp	r0, #2
 1127 0198 BEFFFF0A 		beq	.L251
 1128 019c 0530A0E3 		mov	r3, #5
 1129 01a0 0300E0E3 		mvn	r0, #3
 1130 01a4 0030C4E5 		strb	r3, [r4]
 1131 01a8 1080BDE8 		pop	{r4, pc}
 1133              		.section	.text.R_GPIO_PinGetConfiguration,"ax",%progbits
 1134              		.align	2
 1135              		.global	R_GPIO_PinGetConfiguration
 1136              		.syntax unified
 1137              		.arm
 1138              		.fpu neon
 1140              	R_GPIO_PinGetConfiguration:
 1141              		@ args = 0, pretend = 0, frame = 0
 1142              		@ frame_needed = 0, uses_anonymous_args = 0
 1143 0000 F84F2DE9 		push	{r3, r4, r5, r6, r7, r8, r9, r10, fp, lr}
 1144 0004 0330A0E3 		mov	r3, #3
 1145 0008 B050D0E1 		ldrh	r5, [r0]
 1146 000c 01A0A0E3 		mov	r10, #1
 1147 0010 0590A0E3 		mov	r9, #5
 1148 0014 0330C0E5 		strb	r3, [r0, #3]
 1149 0018 02A0C0E5 		strb	r10, [r0, #2]
 1150 001c 7560EFE6 		uxtb	r6, r5
 1151 0020 0490C0E5 		strb	r9, [r0, #4]
 1152 0024 070056E3 		cmp	r6, #7
 1153 0028 1F00008A 		bhi	.L272
 1154 002c 2554A0E1 		lsr	r5, r5, #8
 1155 0030 007000E3 		movw	r7, #:lower16:.LANCHOR0
 1156 0034 007040E3 		movt	r7, #:upper16:.LANCHOR0
 1157 0038 0530D7E7 		ldrb	r3, [r7, r5]	@ zero_extendqisi2
 1158 003c 3336A0E1 		lsr	r3, r3, r6
 1159 0040 010013E3 		tst	r3, #1
 1160 0044 1800000A 		beq	.L272
 1161 0048 150055E3 		cmp	r5, #21
 1162 004c 1600008A 		bhi	.L272
 1163 0050 0080A0E3 		mov	r8, #0
 1164 0054 0280C0E5 		strb	r8, [r0, #2]
 1165 0058 0530D7E7 		ldrb	r3, [r7, r5]	@ zero_extendqisi2
 1166 005c 3336A0E1 		lsr	r3, r3, r6
 1167 0060 010013E3 		tst	r3, #1
 1168 0064 1000000A 		beq	.L272
 1169 0068 002000E3 		movw	r2, #:lower16:.LANCHOR5
 1170 006c 003000E3 		movw	r3, #:lower16:.LANCHOR6
 1171 0070 002040E3 		movt	r2, #:upper16:.LANCHOR5
 1172 0074 003040E3 		movt	r3, #:upper16:.LANCHOR6
 1173 0078 06B1D2E7 		ldrb	fp, [r2, r6, lsl #2]	@ zero_extendqisi2
 1174 007c 0040A0E1 		mov	r4, r0
 1175 0080 FD0485E2 		add	r0, r5, #-50331648
 1176 0084 0611D3E7 		ldrb	r1, [r3, r6, lsl #2]	@ zero_extendqisi2
 1177 0088 7E0D40E2 		sub	r0, r0, #8064
 1178 008c 0B20A0E1 		mov	r2, fp
 1179 0090 FEFFFFEB 		bl	RZA_IO_RegRead_8
 1180 0094 0530D7E7 		ldrb	r3, [r7, r5]	@ zero_extendqisi2
 1181 0098 0A0050E1 		cmp	r0, r10
 1182 009c 3336A0E1 		lsr	r3, r3, r6
 1183 00a0 0300000A 		beq	.L273
 1184 00a4 010013E3 		tst	r3, #1
 1185 00a8 2700001A 		bne	.L310
 1186              	.L272:
 1187 00ac 0000E0E3 		mvn	r0, #0
 1188 00b0 F88FBDE8 		pop	{r3, r4, r5, r6, r7, r8, r9, r10, fp, pc}
 1189              	.L273:
 1190 00b4 010013E3 		tst	r3, #1
 1191 00b8 FBFFFF0A 		beq	.L272
 1192 00bc 850186E0 		add	r0, r6, r5, lsl #3
 1193 00c0 0810A0E1 		mov	r1, r8
 1194 00c4 0720A0E3 		mov	r2, #7
 1195 00c8 FD0480E2 		add	r0, r0, #-50331648
 1196 00cc 1E0C40E2 		sub	r0, r0, #7680
 1197 00d0 FEFFFFEB 		bl	RZA_IO_RegRead_8
 1198 00d4 070050E3 		cmp	r0, #7
 1199 00d8 06008092 		addls	r0, r0, #6
 1200 00dc 0000008A 		bhi	.L280
 1201              	.L307:
 1202 00e0 0200C4E5 		strb	r0, [r4, #2]
 1203              	.L280:
 1204 00e4 B000D4E1 		ldrh	r0, [r4]
 1205 00e8 7030EFE6 		uxtb	r3, r0
 1206 00ec 2004A0E1 		lsr	r0, r0, #8
 1207 00f0 070053E3 		cmp	r3, #7
 1208 00f4 ECFFFF8A 		bhi	.L272
 1209 00f8 0020D7E7 		ldrb	r2, [r7, r0]	@ zero_extendqisi2
 1210 00fc 3223A0E1 		lsr	r2, r2, r3
 1211 0100 010012E3 		tst	r2, #1
 1212 0104 E8FFFF0A 		beq	.L272
 1213 0108 150050E3 		cmp	r0, #21
 1214 010c E6FFFF8A 		bhi	.L272
 1215 0110 800183E0 		add	r0, r3, r0, lsl #3
 1216 0114 4020A0E3 		mov	r2, #64
 1217 0118 0610A0E3 		mov	r1, #6
 1218 011c FD0480E2 		add	r0, r0, #-50331648
 1219 0120 1E0C40E2 		sub	r0, r0, #7680
 1220 0124 FEFFFFEB 		bl	RZA_IO_RegRead_8
 1221 0128 000050E3 		cmp	r0, #0
 1222 012c 041084E2 		add	r1, r4, #4
 1223 0130 0130A003 		moveq	r3, #1
 1224 0134 0230A013 		movne	r3, #2
 1225 0138 B000D4E1 		ldrh	r0, [r4]
 1226 013c 0330C4E5 		strb	r3, [r4, #3]
 1227 0140 FEFFFFEB 		bl	R_GPIO_PinDscrGet
 1228 0144 0000A0E3 		mov	r0, #0
 1229 0148 F88FBDE8 		pop	{r3, r4, r5, r6, r7, r8, r9, r10, fp, pc}
 1230              	.L310:
 1231 014c 002000E3 		movw	r2, #:lower16:.LANCHOR1
 1232 0150 003000E3 		movw	r3, #:lower16:.LANCHOR2
 1233 0154 003040E3 		movt	r3, #:upper16:.LANCHOR2
 1234 0158 002040E3 		movt	r2, #:upper16:.LANCHOR1
 1235 015c 062192E7 		ldr	r2, [r2, r6, lsl #2]
 1236 0160 150AA0E1 		lsl	r0, r5, r10
 1237 0164 061193E7 		ldr	r1, [r3, r6, lsl #2]
 1238 0168 FD0480E2 		add	r0, r0, #-50331648
 1239 016c 020A40E2 		sub	r0, r0, #8192
 1240 0170 7220FFE6 		uxth	r2, r2
 1241 0174 7110FFE6 		uxth	r1, r1
 1242 0178 FEFFFFEB 		bl	RZA_IO_RegRead_16
 1243 017c 020050E3 		cmp	r0, #2
 1244 0180 D6FFFF0A 		beq	.L307
 1245 0184 030050E3 		cmp	r0, #3
 1246 0188 0300000A 		beq	.L276
 1247 018c 080050E1 		cmp	r0, r8
 1248 0190 0D00000A 		beq	.L311
 1249 0194 0300E0E3 		mvn	r0, #3
 1250 0198 F88FBDE8 		pop	{r3, r4, r5, r6, r7, r8, r9, r10, fp, pc}
 1251              	.L276:
 1252 019c 0530D7E7 		ldrb	r3, [r7, r5]	@ zero_extendqisi2
 1253 01a0 3336A0E1 		lsr	r3, r3, r6
 1254 01a4 010013E3 		tst	r3, #1
 1255 01a8 BFFFFF0A 		beq	.L272
 1256 01ac 60000EE3 		movw	r0, #57440
 1257 01b0 0B20A0E1 		mov	r2, fp
 1258 01b4 FF0C4FE3 		movt	r0, 64767
 1259 01b8 0610A0E1 		mov	r1, r6
 1260 01bc 000085E0 		add	r0, r5, r0
 1261 01c0 FEFFFFEB 		bl	RZA_IO_RegRead_8
 1262 01c4 0290C4E5 		strb	r9, [r4, #2]
 1263 01c8 C5FFFFEA 		b	.L280
 1264              	.L311:
 1265 01cc 02A0C4E5 		strb	r10, [r4, #2]
 1266 01d0 C3FFFFEA 		b	.L280
 1268              		.section	.text.R_GPIO_PeripheralFunctionWrite,"ax",%progbits
 1269              		.align	2
 1270              		.global	R_GPIO_PeripheralFunctionWrite
 1271              		.syntax unified
 1272              		.arm
 1273              		.fpu neon
 1275              	R_GPIO_PeripheralFunctionWrite:
 1276              		@ args = 0, pretend = 0, frame = 0
 1277              		@ frame_needed = 0, uses_anonymous_args = 0
 1278 0000 F0412DE9 		push	{r4, r5, r6, r7, r8, lr}
 1279 0004 7060EFE6 		uxtb	r6, r0
 1280 0008 070056E3 		cmp	r6, #7
 1281 000c 2B00008A 		bhi	.L315
 1282 0010 2074A0E1 		lsr	r7, r0, #8
 1283 0014 003000E3 		movw	r3, #:lower16:.LANCHOR0
 1284 0018 003040E3 		movt	r3, #:upper16:.LANCHOR0
 1285 001c 0740D3E7 		ldrb	r4, [r3, r7]	@ zero_extendqisi2
 1286 0020 3446E0E1 		mvn	r4, r4, lsr r6
 1287 0024 014004E2 		and	r4, r4, #1
 1288 0028 150057E3 		cmp	r7, #21
 1289 002c 01408483 		orrhi	r4, r4, #1
 1290 0030 000054E3 		cmp	r4, #0
 1291 0034 2100001A 		bne	.L315
 1292 0038 FF020EE3 		movw	r0, #58111
 1293 003c 0150A0E1 		mov	r5, r1
 1294 0040 8030A0E3 		mov	r3, #128
 1295 0044 0410A0E1 		mov	r1, r4
 1296 0048 FF0C4FE3 		movt	r0, 64767
 1297 004c 0720A0E3 		mov	r2, #7
 1298 0050 FEFFFFEB 		bl	RZA_IO_RegWrite_8
 1299 0054 FF020EE3 		movw	r0, #58111
 1300 0058 4030A0E3 		mov	r3, #64
 1301 005c FF0C4FE3 		movt	r0, 64767
 1302 0060 0620A0E3 		mov	r2, #6
 1303 0064 0110A0E3 		mov	r1, #1
 1304 0068 FEFFFFEB 		bl	RZA_IO_RegWrite_8
 1305 006c 870186E0 		add	r0, r6, r7, lsl #3
 1306 0070 0510A0E1 		mov	r1, r5
 1307 0074 0420A0E1 		mov	r2, r4
 1308 0078 FD0480E2 		add	r0, r0, #-50331648
 1309 007c 0730A0E3 		mov	r3, #7
 1310 0080 1E0C40E2 		sub	r0, r0, #7680
 1311 0084 FEFFFFEB 		bl	RZA_IO_RegWrite_8
 1312 0088 FF020EE3 		movw	r0, #58111
 1313 008c 0410A0E1 		mov	r1, r4
 1314 0090 4030A0E3 		mov	r3, #64
 1315 0094 FF0C4FE3 		movt	r0, 64767
 1316 0098 0620A0E3 		mov	r2, #6
 1317 009c FEFFFFEB 		bl	RZA_IO_RegWrite_8
 1318 00a0 FF020EE3 		movw	r0, #58111
 1319 00a4 8030A0E3 		mov	r3, #128
 1320 00a8 FF0C4FE3 		movt	r0, 64767
 1321 00ac 0720A0E3 		mov	r2, #7
 1322 00b0 0110A0E3 		mov	r1, #1
 1323 00b4 FEFFFFEB 		bl	RZA_IO_RegWrite_8
 1324 00b8 0400A0E1 		mov	r0, r4
 1325 00bc F081BDE8 		pop	{r4, r5, r6, r7, r8, pc}
 1326              	.L315:
 1327 00c0 0000E0E3 		mvn	r0, #0
 1328 00c4 F081BDE8 		pop	{r4, r5, r6, r7, r8, pc}
 1330              		.section	.text.R_GPIO_PeripheralFunctionRead,"ax",%progbits
 1331              		.align	2
 1332              		.global	R_GPIO_PeripheralFunctionRead
 1333              		.syntax unified
 1334              		.arm
 1335              		.fpu neon
 1337              	R_GPIO_PeripheralFunctionRead:
 1338              		@ args = 0, pretend = 0, frame = 0
 1339              		@ frame_needed = 0, uses_anonymous_args = 0
 1340 0000 7030EFE6 		uxtb	r3, r0
 1341 0004 70402DE9 		push	{r4, r5, r6, lr}
 1342 0008 070053E3 		cmp	r3, #7
 1343 000c 1300008A 		bhi	.L320
 1344 0010 2004A0E1 		lsr	r0, r0, #8
 1345 0014 002000E3 		movw	r2, #:lower16:.LANCHOR0
 1346 0018 002040E3 		movt	r2, #:upper16:.LANCHOR0
 1347 001c 0040D2E7 		ldrb	r4, [r2, r0]	@ zero_extendqisi2
 1348 0020 3443E0E1 		mvn	r4, r4, lsr r3
 1349 0024 014004E2 		and	r4, r4, #1
 1350 0028 150050E3 		cmp	r0, #21
 1351 002c 01408483 		orrhi	r4, r4, #1
 1352 0030 000054E3 		cmp	r4, #0
 1353 0034 0900001A 		bne	.L320
 1354 0038 800183E0 		add	r0, r3, r0, lsl #3
 1355 003c 0150A0E1 		mov	r5, r1
 1356 0040 0720A0E3 		mov	r2, #7
 1357 0044 FD0480E2 		add	r0, r0, #-50331648
 1358 0048 0410A0E1 		mov	r1, r4
 1359 004c 1E0C40E2 		sub	r0, r0, #7680
 1360 0050 FEFFFFEB 		bl	RZA_IO_RegRead_8
 1361 0054 0000C5E5 		strb	r0, [r5]
 1362 0058 0400A0E1 		mov	r0, r4
 1363 005c 7080BDE8 		pop	{r4, r5, r6, pc}
 1364              	.L320:
 1365 0060 0040E0E3 		mvn	r4, #0
 1366 0064 0400A0E1 		mov	r0, r4
 1367 0068 7080BDE8 		pop	{r4, r5, r6, pc}
 1369              		.section	.text.R_GPIO_PinSetFunction,"ax",%progbits
 1370              		.align	2
 1371              		.global	R_GPIO_PinSetFunction
 1372              		.syntax unified
 1373              		.arm
 1374              		.fpu neon
 1376              	R_GPIO_PinSetFunction:
 1377              		@ args = 0, pretend = 0, frame = 0
 1378              		@ frame_needed = 0, uses_anonymous_args = 0
 1379 0000 F84F2DE9 		push	{r3, r4, r5, r6, r7, r8, r9, r10, fp, lr}
 1380 0004 004051E2 		subs	r4, r1, #0
 1381 0008 0050A0E1 		mov	r5, r0
 1382 000c 1000001A 		bne	.L323
 1383 0010 000000E3 		movw	r0, #:lower16:.LANCHOR4
 1384 0014 0410A0E1 		mov	r1, r4
 1385 0018 0420A0E1 		mov	r2, r4
 1386 001c 000040E3 		movt	r0, #:upper16:.LANCHOR4
 1387              	.L325:
 1388 0020 B13090E1 		ldrh	r3, [r0, r1]
 1389 0024 061081E2 		add	r1, r1, #6
 1390 0028 050053E1 		cmp	r3, r5
 1391 002c 0500000A 		beq	.L348
 1392 0030 012082E2 		add	r2, r2, #1
 1393 0034 160052E3 		cmp	r2, #22
 1394 0038 F8FFFF1A 		bne	.L325
 1395              	.L337:
 1396 003c 0360E0E3 		mvn	r6, #3
 1397 0040 0600A0E1 		mov	r0, r6
 1398 0044 F88FBDE8 		pop	{r3, r4, r5, r6, r7, r8, r9, r10, fp, pc}
 1399              	.L348:
 1400 0048 822082E0 		add	r2, r2, r2, lsl #1
 1401 004c 822080E0 		add	r2, r0, r2, lsl #1
 1402 0050 0240D2E5 		ldrb	r4, [r2, #2]	@ zero_extendqisi2
 1403              	.L323:
 1404 0054 010054E3 		cmp	r4, #1
 1405 0058 7F00000A 		beq	.L349
 1406 005c 020054E3 		cmp	r4, #2
 1407 0060 BB00000A 		beq	.L350
 1408 0064 033044E2 		sub	r3, r4, #3
 1409 0068 020053E3 		cmp	r3, #2
 1410 006c 0900009A 		bls	.L351
 1411 0070 064044E2 		sub	r4, r4, #6
 1412 0074 7440EFE6 		uxtb	r4, r4
 1413 0078 070054E3 		cmp	r4, #7
 1414 007c EEFFFF8A 		bhi	.L337
 1415 0080 0500A0E1 		mov	r0, r5
 1416 0084 FEFFFFEB 		bl	R_GPIO_PinDirectionSet.constprop.4
 1417 0088 006050E2 		subs	r6, r0, #0
 1418 008c 2C00000A 		beq	.L352
 1419              	.L326:
 1420 0090 0600A0E1 		mov	r0, r6
 1421 0094 F88FBDE8 		pop	{r3, r4, r5, r6, r7, r8, r9, r10, fp, pc}
 1422              	.L351:
 1423 0098 0500A0E1 		mov	r0, r5
 1424 009c FEFFFFEB 		bl	R_GPIO_PinDirectionSet.constprop.4
 1425 00a0 006050E2 		subs	r6, r0, #0
 1426 00a4 F9FFFF1A 		bne	.L326
 1427 00a8 75C0EFE6 		uxtb	ip, r5
 1428 00ac 2504A0E1 		lsr	r0, r5, #8
 1429 00b0 07005CE3 		cmp	ip, #7
 1430 00b4 1F00008A 		bhi	.L329
 1431 00b8 003000E3 		movw	r3, #:lower16:.LANCHOR0
 1432 00bc 003040E3 		movt	r3, #:upper16:.LANCHOR0
 1433 00c0 0010D3E7 		ldrb	r1, [r3, r0]	@ zero_extendqisi2
 1434 00c4 311CE0E1 		mvn	r1, r1, lsr ip
 1435 00c8 011001E2 		and	r1, r1, #1
 1436 00cc 150050E3 		cmp	r0, #21
 1437 00d0 01108183 		orrhi	r1, r1, #1
 1438 00d4 000051E3 		cmp	r1, #0
 1439 00d8 1600001A 		bne	.L329
 1440 00dc 003000E3 		movw	r3, #:lower16:.LANCHOR5
 1441 00e0 002000E3 		movw	r2, #:lower16:.LANCHOR6
 1442 00e4 FD0480E2 		add	r0, r0, #-50331648
 1443 00e8 003040E3 		movt	r3, #:upper16:.LANCHOR5
 1444 00ec 002040E3 		movt	r2, #:upper16:.LANCHOR6
 1445 00f0 7E0D40E2 		sub	r0, r0, #8064
 1446 00f4 0C31D3E7 		ldrb	r3, [r3, ip, lsl #2]	@ zero_extendqisi2
 1447 00f8 0C21D2E7 		ldrb	r2, [r2, ip, lsl #2]	@ zero_extendqisi2
 1448 00fc FEFFFFEB 		bl	RZA_IO_RegWrite_8
 1449 0100 030054E3 		cmp	r4, #3
 1450 0104 B000000A 		beq	.L333
 1451 0108 040054E3 		cmp	r4, #4
 1452 010c B300001A 		bne	.L353
 1453 0110 0110A0E3 		mov	r1, #1
 1454 0114 0500A0E1 		mov	r0, r5
 1455 0118 FEFFFFEB 		bl	R_GPIO_PinWrite
 1456 011c 0060A0E1 		mov	r6, r0
 1457              	.L335:
 1458 0120 000056E3 		cmp	r6, #0
 1459 0124 D9FFFF1A 		bne	.L326
 1460              	.L336:
 1461 0128 0500A0E1 		mov	r0, r5
 1462 012c 0210A0E3 		mov	r1, #2
 1463 0130 F84FBDE8 		pop	{r3, r4, r5, r6, r7, r8, r9, r10, fp, lr}
 1464 0134 FEFFFFEA 		b	R_GPIO_PinDirectionSet
 1465              	.L329:
 1466 0138 0060E0E3 		mvn	r6, #0
 1467 013c 0600A0E1 		mov	r0, r6
 1468 0140 F88FBDE8 		pop	{r3, r4, r5, r6, r7, r8, r9, r10, fp, pc}
 1469              	.L352:
 1470 0144 7570EFE6 		uxtb	r7, r5
 1471 0148 2554A0E1 		lsr	r5, r5, #8
 1472 014c 070057E3 		cmp	r7, #7
 1473 0150 F8FFFF8A 		bhi	.L329
 1474 0154 00B000E3 		movw	fp, #:lower16:.LANCHOR0
 1475 0158 00B040E3 		movt	fp, #:upper16:.LANCHOR0
 1476 015c 0530DBE7 		ldrb	r3, [fp, r5]	@ zero_extendqisi2
 1477 0160 3337E0E1 		mvn	r3, r3, lsr r7
 1478 0164 150055E3 		cmp	r5, #21
 1479 0168 01308383 		orrhi	r3, r3, #1
 1480 016c 010013E3 		tst	r3, #1
 1481 0170 F0FFFF1A 		bne	.L329
 1482 0174 002000E3 		movw	r2, #:lower16:.LANCHOR6
 1483 0178 003000E3 		movw	r3, #:lower16:.LANCHOR5
 1484 017c 002040E3 		movt	r2, #:upper16:.LANCHOR6
 1485 0180 003040E3 		movt	r3, #:upper16:.LANCHOR5
 1486 0184 0791D2E7 		ldrb	r9, [r2, r7, lsl #2]	@ zero_extendqisi2
 1487 0188 FD8485E2 		add	r8, r5, #-50331648
 1488 018c 07A1D3E7 		ldrb	r10, [r3, r7, lsl #2]	@ zero_extendqisi2
 1489 0190 7E8D48E2 		sub	r8, r8, #8064
 1490 0194 0800A0E1 		mov	r0, r8
 1491 0198 0610A0E1 		mov	r1, r6
 1492 019c 0920A0E1 		mov	r2, r9
 1493 01a0 0A30A0E1 		mov	r3, r10
 1494 01a4 FEFFFFEB 		bl	RZA_IO_RegWrite_8
 1495 01a8 0530DBE7 		ldrb	r3, [fp, r5]	@ zero_extendqisi2
 1496 01ac 3337A0E1 		lsr	r3, r3, r7
 1497 01b0 010013E3 		tst	r3, #1
 1498 01b4 DFFFFF0A 		beq	.L329
 1499 01b8 FF020EE3 		movw	r0, #58111
 1500 01bc 8030A0E3 		mov	r3, #128
 1501 01c0 FF0C4FE3 		movt	r0, 64767
 1502 01c4 0720A0E3 		mov	r2, #7
 1503 01c8 0610A0E1 		mov	r1, r6
 1504 01cc FEFFFFEB 		bl	RZA_IO_RegWrite_8
 1505 01d0 FF020EE3 		movw	r0, #58111
 1506 01d4 4030A0E3 		mov	r3, #64
 1507 01d8 FF0C4FE3 		movt	r0, 64767
 1508 01dc 0620A0E3 		mov	r2, #6
 1509 01e0 0110A0E3 		mov	r1, #1
 1510 01e4 FEFFFFEB 		bl	RZA_IO_RegWrite_8
 1511 01e8 850187E0 		add	r0, r7, r5, lsl #3
 1512 01ec 0410A0E1 		mov	r1, r4
 1513 01f0 0730A0E3 		mov	r3, #7
 1514 01f4 FD0480E2 		add	r0, r0, #-50331648
 1515 01f8 0620A0E1 		mov	r2, r6
 1516 01fc 1E0C40E2 		sub	r0, r0, #7680
 1517 0200 FEFFFFEB 		bl	RZA_IO_RegWrite_8
 1518 0204 FF020EE3 		movw	r0, #58111
 1519 0208 4030A0E3 		mov	r3, #64
 1520 020c FF0C4FE3 		movt	r0, 64767
 1521 0210 0620A0E3 		mov	r2, #6
 1522 0214 0610A0E1 		mov	r1, r6
 1523 0218 FEFFFFEB 		bl	RZA_IO_RegWrite_8
 1524 021c FF020EE3 		movw	r0, #58111
 1525 0220 8030A0E3 		mov	r3, #128
 1526 0224 FF0C4FE3 		movt	r0, 64767
 1527 0228 0720A0E3 		mov	r2, #7
 1528 022c 0110A0E3 		mov	r1, #1
 1529 0230 FEFFFFEB 		bl	RZA_IO_RegWrite_8
 1530 0234 0530DBE7 		ldrb	r3, [fp, r5]	@ zero_extendqisi2
 1531 0238 3377E0E1 		mvn	r7, r3, lsr r7
 1532 023c 010017E3 		tst	r7, #1
 1533 0240 BCFFFF1A 		bne	.L329
 1534 0244 0A30A0E1 		mov	r3, r10
 1535 0248 0920A0E1 		mov	r2, r9
 1536 024c 0800A0E1 		mov	r0, r8
 1537 0250 0110A0E3 		mov	r1, #1
 1538 0254 FEFFFFEB 		bl	RZA_IO_RegWrite_8
 1539 0258 8CFFFFEA 		b	.L326
 1540              	.L349:
 1541 025c 0500A0E1 		mov	r0, r5
 1542 0260 FEFFFFEB 		bl	R_GPIO_PinDirectionSet.constprop.4
 1543 0264 006050E2 		subs	r6, r0, #0
 1544 0268 88FFFF1A 		bne	.L326
 1545 026c 7570EFE6 		uxtb	r7, r5
 1546 0270 2554A0E1 		lsr	r5, r5, #8
 1547 0274 070057E3 		cmp	r7, #7
 1548 0278 AEFFFF8A 		bhi	.L329
 1549 027c 008000E3 		movw	r8, #:lower16:.LANCHOR0
 1550 0280 008040E3 		movt	r8, #:upper16:.LANCHOR0
 1551 0284 0530D8E7 		ldrb	r3, [r8, r5]	@ zero_extendqisi2
 1552 0288 3337A0E1 		lsr	r3, r3, r7
 1553 028c 010013E3 		tst	r3, #1
 1554 0290 A8FFFF0A 		beq	.L329
 1555 0294 150055E3 		cmp	r5, #21
 1556 0298 A6FFFF8A 		bhi	.L329
 1557 029c FF020EE3 		movw	r0, #58111
 1558 02a0 8030A0E3 		mov	r3, #128
 1559 02a4 FF0C4FE3 		movt	r0, 64767
 1560 02a8 0720A0E3 		mov	r2, #7
 1561 02ac 0610A0E1 		mov	r1, r6
 1562 02b0 FEFFFFEB 		bl	RZA_IO_RegWrite_8
 1563 02b4 FF020EE3 		movw	r0, #58111
 1564 02b8 4030A0E3 		mov	r3, #64
 1565 02bc FF0C4FE3 		movt	r0, 64767
 1566 02c0 0620A0E3 		mov	r2, #6
 1567 02c4 0410A0E1 		mov	r1, r4
 1568 02c8 FEFFFFEB 		bl	RZA_IO_RegWrite_8
 1569 02cc 850187E0 		add	r0, r7, r5, lsl #3
 1570 02d0 0730A0E3 		mov	r3, #7
 1571 02d4 0620A0E1 		mov	r2, r6
 1572 02d8 FD0480E2 		add	r0, r0, #-50331648
 1573 02dc 0610A0E1 		mov	r1, r6
 1574 02e0 1E0C40E2 		sub	r0, r0, #7680
 1575 02e4 FEFFFFEB 		bl	RZA_IO_RegWrite_8
 1576 02e8 FF020EE3 		movw	r0, #58111
 1577 02ec 4030A0E3 		mov	r3, #64
 1578 02f0 FF0C4FE3 		movt	r0, 64767
 1579 02f4 0620A0E3 		mov	r2, #6
 1580 02f8 0610A0E1 		mov	r1, r6
 1581 02fc FEFFFFEB 		bl	RZA_IO_RegWrite_8
 1582 0300 FF020EE3 		movw	r0, #58111
 1583 0304 8030A0E3 		mov	r3, #128
 1584 0308 0410A0E1 		mov	r1, r4
 1585 030c FF0C4FE3 		movt	r0, 64767
 1586 0310 0720A0E3 		mov	r2, #7
 1587 0314 FEFFFFEB 		bl	RZA_IO_RegWrite_8
 1588 0318 0530D8E7 		ldrb	r3, [r8, r5]	@ zero_extendqisi2
 1589 031c 3337E0E1 		mvn	r3, r3, lsr r7
 1590 0320 010013E3 		tst	r3, #1
 1591 0324 83FFFF1A 		bne	.L329
 1592 0328 003000E3 		movw	r3, #:lower16:.LANCHOR5
 1593 032c 002000E3 		movw	r2, #:lower16:.LANCHOR6
 1594 0330 FD0485E2 		add	r0, r5, #-50331648
 1595 0334 003040E3 		movt	r3, #:upper16:.LANCHOR5
 1596 0338 002040E3 		movt	r2, #:upper16:.LANCHOR6
 1597 033c 7E0D40E2 		sub	r0, r0, #8064
 1598 0340 0731D3E7 		ldrb	r3, [r3, r7, lsl #2]	@ zero_extendqisi2
 1599 0344 0610A0E1 		mov	r1, r6
 1600 0348 0721D2E7 		ldrb	r2, [r2, r7, lsl #2]	@ zero_extendqisi2
 1601 034c FEFFFFEB 		bl	RZA_IO_RegWrite_8
 1602 0350 4EFFFFEA 		b	.L326
 1603              	.L350:
 1604 0354 0500A0E1 		mov	r0, r5
 1605 0358 FEFFFFEB 		bl	R_GPIO_PinDirectionSet.constprop.4
 1606 035c 006050E2 		subs	r6, r0, #0
 1607 0360 4AFFFF1A 		bne	.L326
 1608 0364 7520EFE6 		uxtb	r2, r5
 1609 0368 2504A0E1 		lsr	r0, r5, #8
 1610 036c 070052E3 		cmp	r2, #7
 1611 0370 70FFFF8A 		bhi	.L329
 1612 0374 003000E3 		movw	r3, #:lower16:.LANCHOR0
 1613 0378 003040E3 		movt	r3, #:upper16:.LANCHOR0
 1614 037c 0010D3E7 		ldrb	r1, [r3, r0]	@ zero_extendqisi2
 1615 0380 3112E0E1 		mvn	r1, r1, lsr r2
 1616 0384 011001E2 		and	r1, r1, #1
 1617 0388 150050E3 		cmp	r0, #21
 1618 038c 01108183 		orrhi	r1, r1, #1
 1619 0390 000051E3 		cmp	r1, #0
 1620 0394 67FFFF1A 		bne	.L329
 1621 0398 003000E3 		movw	r3, #:lower16:.LANCHOR5
 1622 039c 00C000E3 		movw	ip, #:lower16:.LANCHOR6
 1623 03a0 00C040E3 		movt	ip, #:upper16:.LANCHOR6
 1624 03a4 FD0480E2 		add	r0, r0, #-50331648
 1625 03a8 003040E3 		movt	r3, #:upper16:.LANCHOR5
 1626 03ac 7E0D40E2 		sub	r0, r0, #8064
 1627 03b0 0231D3E7 		ldrb	r3, [r3, r2, lsl #2]	@ zero_extendqisi2
 1628 03b4 0221DCE7 		ldrb	r2, [ip, r2, lsl #2]	@ zero_extendqisi2
 1629 03b8 FEFFFFEB 		bl	RZA_IO_RegWrite_8
 1630 03bc 0500A0E1 		mov	r0, r5
 1631 03c0 0110A0E3 		mov	r1, #1
 1632 03c4 F84FBDE8 		pop	{r3, r4, r5, r6, r7, r8, r9, r10, fp, lr}
 1633 03c8 FEFFFFEA 		b	R_GPIO_PinDirectionSet
 1634              	.L333:
 1635 03cc 0210A0E3 		mov	r1, #2
 1636 03d0 0500A0E1 		mov	r0, r5
 1637 03d4 FEFFFFEB 		bl	R_GPIO_PinWrite
 1638 03d8 0060A0E1 		mov	r6, r0
 1639 03dc 4FFFFFEA 		b	.L335
 1640              	.L353:
 1641              		.syntax divided
 1642              	@ 47 "C:/Renesas/e2studio_2021_01_workspace_RZA2M_ANPR/ANPR_RZA2M_EBK/generate/compiler/inc/r_compi
 1643 03e0 00F020E3 		nop
 1644              	@ 0 "" 2
 1645              		.arm
 1646              		.syntax unified
 1647 03e4 4FFFFFEA 		b	.L336
 1649              		.section	.text.R_GPIO_PinSetConfiguration,"ax",%progbits
 1650              		.align	2
 1651              		.global	R_GPIO_PinSetConfiguration
 1652              		.syntax unified
 1653              		.arm
 1654              		.fpu neon
 1656              	R_GPIO_PinSetConfiguration:
 1657              		@ args = 0, pretend = 0, frame = 0
 1658              		@ frame_needed = 0, uses_anonymous_args = 0
 1659 0000 F0472DE9 		push	{r4, r5, r6, r7, r8, r9, r10, lr}
 1660 0004 004000E3 		movw	r4, #:lower16:.LANCHOR12
 1661 0008 004040E3 		movt	r4, #:upper16:.LANCHOR12
 1662 000c 0160A0E1 		mov	r6, r1
 1663 0010 0080A0E1 		mov	r8, r0
 1664 0014 000094E5 		ldr	r0, [r4]
 1665 0018 FEFFFFEB 		bl	R_OS_MutexAcquire
 1666 001c B050D6E1 		ldrh	r5, [r6]
 1667 0020 023925E2 		eor	r3, r5, #32768
 1668 0024 010B53E3 		cmp	r3, #1024
 1669 0028 0400002A 		bcs	.L367
 1670              	.L356:
 1671 002c 0070E0E3 		mvn	r7, #0
 1672              	.L359:
 1673 0030 000094E5 		ldr	r0, [r4]
 1674 0034 FEFFFFEB 		bl	R_OS_MutexRelease
 1675 0038 0700A0E1 		mov	r0, r7
 1676 003c F087BDE8 		pop	{r4, r5, r6, r7, r8, r9, r10, pc}
 1677              	.L367:
 1678 0040 2524A0E1 		lsr	r2, r5, #8
 1679 0044 7530EFE6 		uxtb	r3, r5
 1680 0048 150052E3 		cmp	r2, #21
 1681 004c 0000A083 		movhi	r0, #0
 1682 0050 0100A093 		movls	r0, #1
 1683 0054 070053E3 		cmp	r3, #7
 1684 0058 F3FFFF8A 		bhi	.L356
 1685 005c 009000E3 		movw	r9, #:lower16:.LANCHOR0
 1686 0060 009040E3 		movt	r9, #:upper16:.LANCHOR0
 1687 0064 0210D9E7 		ldrb	r1, [r9, r2]	@ zero_extendqisi2
 1688 0068 3113E0E1 		mvn	r1, r1, lsr r3
 1689 006c 150052E3 		cmp	r2, #21
 1690 0070 01108183 		orrhi	r1, r1, #1
 1691 0074 010011E3 		tst	r1, #1
 1692 0078 EBFFFF1A 		bne	.L356
 1693 007c 823183E0 		add	r3, r3, r2, lsl #3
 1694 0080 002000E3 		movw	r2, #:lower16:.LANCHOR13
 1695 0084 002040E3 		movt	r2, #:upper16:.LANCHOR13
 1696 0088 8330A0E1 		lsl	r3, r3, #1
 1697 008c F33092E1 		ldrsh	r3, [r2, r3]
 1698 0090 030058E1 		cmp	r8, r3
 1699 0094 01007313 		cmnne	r3, #1
 1700 0098 0570E013 		mvnne	r7, #5
 1701 009c E3FFFF1A 		bne	.L359
 1702 00a0 000050E3 		cmp	r0, #0
 1703 00a4 E0FFFF0A 		beq	.L356
 1704 00a8 0410D6E5 		ldrb	r1, [r6, #4]	@ zero_extendqisi2
 1705 00ac 0500A0E1 		mov	r0, r5
 1706 00b0 FEFFFFEB 		bl	R_GPIO_PinDscrSet
 1707 00b4 007050E2 		subs	r7, r0, #0
 1708 00b8 DCFFFF1A 		bne	.L359
 1709 00bc 0210D6E5 		ldrb	r1, [r6, #2]	@ zero_extendqisi2
 1710 00c0 0500A0E1 		mov	r0, r5
 1711 00c4 FEFFFFEB 		bl	R_GPIO_PinSetFunction
 1712 00c8 007050E2 		subs	r7, r0, #0
 1713 00cc D7FFFF1A 		bne	.L359
 1714 00d0 0500A0E1 		mov	r0, r5
 1715 00d4 0310D6E5 		ldrb	r1, [r6, #3]	@ zero_extendqisi2
 1716 00d8 FEFFFFEB 		bl	R_GPIO_PinTintSet
 1717 00dc 007050E2 		subs	r7, r0, #0
 1718 00e0 D2FFFF1A 		bne	.L359
 1719 00e4 B020D6E1 		ldrh	r2, [r6]
 1720 00e8 7230EFE6 		uxtb	r3, r2
 1721 00ec 2224A0E1 		lsr	r2, r2, #8
 1722 00f0 070053E3 		cmp	r3, #7
 1723 00f4 CCFFFF8A 		bhi	.L356
 1724 00f8 0210D9E7 		ldrb	r1, [r9, r2]	@ zero_extendqisi2
 1725 00fc 3113E0E1 		mvn	r1, r1, lsr r3
 1726 0100 150052E3 		cmp	r2, #21
 1727 0104 01108183 		orrhi	r1, r1, #1
 1728 0108 010011E3 		tst	r1, #1
 1729 010c C6FFFF1A 		bne	.L356
 1730 0110 823183E0 		add	r3, r3, r2, lsl #3
 1731 0114 002000E3 		movw	r2, #:lower16:.LANCHOR13
 1732 0118 002040E3 		movt	r2, #:upper16:.LANCHOR13
 1733 011c 8330A0E1 		lsl	r3, r3, #1
 1734 0120 B38082E1 		strh	r8, [r2, r3]	@ movhi
 1735 0124 C1FFFFEA 		b	.L359
 1737              		.section	.text.R_GPIO_InitByPinList,"ax",%progbits
 1738              		.align	2
 1739              		.global	R_GPIO_InitByPinList
 1740              		.syntax unified
 1741              		.arm
 1742              		.fpu neon
 1744              	R_GPIO_InitByPinList:
 1745              		@ args = 0, pretend = 0, frame = 24
 1746              		@ frame_needed = 0, uses_anonymous_args = 0
 1747 0000 003000E3 		movw	r3, #:lower16:.LANCHOR12
 1748 0004 F04F2DE9 		push	{r4, r5, r6, r7, r8, r9, r10, fp, lr}
 1749 0008 003040E3 		movt	r3, #:upper16:.LANCHOR12
 1750 000c 1CD04DE2 		sub	sp, sp, #28
 1751 0010 0270A0E1 		mov	r7, r2
 1752 0014 01B0A0E1 		mov	fp, r1
 1753 0018 08008DE5 		str	r0, [sp, #8]
 1754 001c 000093E5 		ldr	r0, [r3]
 1755 0020 14308DE5 		str	r3, [sp, #20]
 1756 0024 FEFFFFEB 		bl	R_OS_MutexAcquire
 1757 0028 000057E3 		cmp	r7, #0
 1758 002c 7D00000A 		beq	.L384
 1759 0030 0050A0E3 		mov	r5, #0
 1760 0034 000000E3 		movw	r0, #:lower16:.LANCHOR4
 1761 0038 009000E3 		movw	r9, #:lower16:.LANCHOR0
 1762 003c 008000E3 		movw	r8, #:lower16:.LANCHOR13
 1763 0040 87E08BE0 		add	lr, fp, r7, lsl #1
 1764 0044 0560A0E1 		mov	r6, r5
 1765 0048 000040E3 		movt	r0, #:upper16:.LANCHOR4
 1766 004c 009040E3 		movt	r9, #:upper16:.LANCHOR0
 1767 0050 008040E3 		movt	r8, #:upper16:.LANCHOR13
 1768 0054 0BC0A0E1 		mov	ip, fp
 1769              	.L374:
 1770 0058 B210DCE0 		ldrh	r1, [ip], #2
 1771 005c 023921E2 		eor	r3, r1, #32768
 1772 0060 010B53E3 		cmp	r3, #1024
 1773 0064 0040E033 		mvncc	r4, #0
 1774 0068 00A0A033 		movcc	r10, #0
 1775 006c 5400002A 		bcs	.L405
 1776              	.L370:
 1777 0070 0030A0E3 		mov	r3, #0
 1778              	.L373:
 1779 0074 B02093E1 		ldrh	r2, [r3, r0]
 1780 0078 063083E2 		add	r3, r3, #6
 1781 007c 010052E1 		cmp	r2, r1
 1782 0080 0200000A 		beq	.L372
 1783 0084 840053E3 		cmp	r3, #132
 1784 0088 F9FFFF1A 		bne	.L373
 1785 008c 0150A0E3 		mov	r5, #1
 1786              	.L372:
 1787 0090 0C005EE1 		cmp	lr, ip
 1788 0094 EFFFFF1A 		bne	.L374
 1789 0098 000055E3 		cmp	r5, #0
 1790 009c 10A08DE5 		str	r10, [sp, #16]
 1791 00a0 5D00001A 		bne	.L389
 1792 00a4 000056E3 		cmp	r6, #0
 1793 00a8 6000001A 		bne	.L390
 1794 00ac 00005AE3 		cmp	r10, #0
 1795 00b0 5900001A 		bne	.L389
 1796 00b4 00A000E3 		movw	r10, #:lower16:.LANCHOR4
 1797 00b8 003000E3 		movw	r3, #:lower16:.LANCHOR0
 1798 00bc 002000E3 		movw	r2, #:lower16:.LANCHOR13
 1799 00c0 00A040E3 		movt	r10, #:upper16:.LANCHOR4
 1800 00c4 02104BE2 		sub	r1, fp, #2
 1801 00c8 003040E3 		movt	r3, #:upper16:.LANCHOR0
 1802 00cc 002040E3 		movt	r2, #:upper16:.LANCHOR13
 1803 00d0 00108DE5 		str	r1, [sp]
 1804 00d4 04308DE5 		str	r3, [sp, #4]
 1805 00d8 0C208DE5 		str	r2, [sp, #12]
 1806              	.L383:
 1807 00dc B060DAE1 		ldrh	r6, [r10]
 1808 00e0 0040A0E3 		mov	r4, #0
 1809 00e4 04309DE5 		ldr	r3, [sp, #4]
 1810 00e8 00509DE5 		ldr	r5, [sp]
 1811 00ec 2694A0E1 		lsr	r9, r6, #8
 1812 00f0 76B0EFE6 		uxtb	fp, r6
 1813 00f4 098083E0 		add	r8, r3, r9
 1814 00f8 020000EA 		b	.L381
 1815              	.L377:
 1816 00fc 014084E2 		add	r4, r4, #1
 1817 0100 040057E1 		cmp	r7, r4
 1818 0104 1B00000A 		beq	.L406
 1819              	.L381:
 1820 0108 B230F5E1 		ldrh	r3, [r5, #2]!
 1821 010c 060053E1 		cmp	r3, r6
 1822 0110 F9FFFF1A 		bne	.L377
 1823 0114 07005BE3 		cmp	fp, #7
 1824 0118 F7FFFF8A 		bhi	.L377
 1825 011c 0030D8E5 		ldrb	r3, [r8]	@ zero_extendqisi2
 1826 0120 333BA0E1 		lsr	r3, r3, fp
 1827 0124 010013E3 		tst	r3, #1
 1828 0128 F3FFFF0A 		beq	.L377
 1829 012c 150059E3 		cmp	r9, #21
 1830 0130 F1FFFF8A 		bhi	.L377
 1831 0134 0410DAE5 		ldrb	r1, [r10, #4]	@ zero_extendqisi2
 1832 0138 0600A0E1 		mov	r0, r6
 1833 013c FEFFFFEB 		bl	R_GPIO_PinDscrSet
 1834 0140 000050E3 		cmp	r0, #0
 1835 0144 1500000A 		beq	.L407
 1836              	.L380:
 1837 0148 0030D8E5 		ldrb	r3, [r8]	@ zero_extendqisi2
 1838 014c 333BA0E1 		lsr	r3, r3, fp
 1839 0150 010013E3 		tst	r3, #1
 1840 0154 E8FFFF0A 		beq	.L377
 1841 0158 89318BE0 		add	r3, fp, r9, lsl #3
 1842 015c 0C209DE5 		ldr	r2, [sp, #12]
 1843 0160 B810DDE1 		ldrh	r1, [sp, #8]
 1844 0164 014084E2 		add	r4, r4, #1
 1845 0168 8330A0E1 		lsl	r3, r3, #1
 1846 016c 040057E1 		cmp	r7, r4
 1847 0170 B31082E1 		strh	r1, [r2, r3]	@ movhi
 1848 0174 E3FFFF1A 		bne	.L381
 1849              	.L406:
 1850 0178 BC309FE5 		ldr	r3, .L408
 1851 017c 06A08AE2 		add	r10, r10, #6
 1852 0180 0A0053E1 		cmp	r3, r10
 1853 0184 D4FFFF1A 		bne	.L383
 1854              	.L369:
 1855 0188 14309DE5 		ldr	r3, [sp, #20]
 1856 018c 000093E5 		ldr	r0, [r3]
 1857 0190 FEFFFFEB 		bl	R_OS_MutexRelease
 1858 0194 10009DE5 		ldr	r0, [sp, #16]
 1859 0198 1CD08DE2 		add	sp, sp, #28
 1860              		@ sp needed
 1861 019c F08FBDE8 		pop	{r4, r5, r6, r7, r8, r9, r10, fp, pc}
 1862              	.L407:
 1863 01a0 0210DAE5 		ldrb	r1, [r10, #2]	@ zero_extendqisi2
 1864 01a4 0600A0E1 		mov	r0, r6
 1865 01a8 FEFFFFEB 		bl	R_GPIO_PinSetFunction
 1866 01ac 000050E3 		cmp	r0, #0
 1867 01b0 E4FFFF1A 		bne	.L380
 1868 01b4 0310DAE5 		ldrb	r1, [r10, #3]	@ zero_extendqisi2
 1869 01b8 0600A0E1 		mov	r0, r6
 1870 01bc FEFFFFEB 		bl	R_GPIO_PinTintSet
 1871 01c0 E0FFFFEA 		b	.L380
 1872              	.L405:
 1873 01c4 7130EFE6 		uxtb	r3, r1
 1874 01c8 2124A0E1 		lsr	r2, r1, #8
 1875 01cc 070053E3 		cmp	r3, #7
 1876 01d0 0E00008A 		bhi	.L387
 1877 01d4 02A0D9E7 		ldrb	r10, [r9, r2]	@ zero_extendqisi2
 1878 01d8 3AA3E0E1 		mvn	r10, r10, lsr r3
 1879 01dc 01A00AE2 		and	r10, r10, #1
 1880 01e0 150052E3 		cmp	r2, #21
 1881 01e4 01A08A83 		orrhi	r10, r10, #1
 1882 01e8 00005AE3 		cmp	r10, #0
 1883 01ec 0700001A 		bne	.L387
 1884 01f0 823183E0 		add	r3, r3, r2, lsl #3
 1885 01f4 8330A0E1 		lsl	r3, r3, #1
 1886 01f8 F34098E1 		ldrsh	r4, [r8, r3]
 1887              	.L371:
 1888 01fc 08309DE5 		ldr	r3, [sp, #8]
 1889 0200 040053E1 		cmp	r3, r4
 1890 0204 01007413 		cmnne	r4, #1
 1891 0208 0160A013 		movne	r6, #1
 1892 020c 97FFFFEA 		b	.L370
 1893              	.L387:
 1894 0210 00A0E0E3 		mvn	r10, #0
 1895 0214 0150A0E3 		mov	r5, #1
 1896 0218 F7FFFFEA 		b	.L371
 1897              	.L389:
 1898 021c 0030E0E3 		mvn	r3, #0
 1899 0220 10308DE5 		str	r3, [sp, #16]
 1900 0224 D7FFFFEA 		b	.L369
 1901              	.L384:
 1902 0228 10708DE5 		str	r7, [sp, #16]
 1903 022c D5FFFFEA 		b	.L369
 1904              	.L390:
 1905 0230 0530E0E3 		mvn	r3, #5
 1906 0234 10308DE5 		str	r3, [sp, #16]
 1907 0238 D2FFFFEA 		b	.L369
 1908              	.L409:
 1909              		.align	2
 1910              	.L408:
 1911 023c 84000000 		.word	.LANCHOR4+132
 1913              		.section	.text.R_GPIO_HWInitialise,"ax",%progbits
 1914              		.align	2
 1915              		.global	R_GPIO_HWInitialise
 1916              		.syntax unified
 1917              		.arm
 1918              		.fpu neon
 1920              	R_GPIO_HWInitialise:
 1921              		@ args = 0, pretend = 0, frame = 0
 1922              		@ frame_needed = 0, uses_anonymous_args = 0
 1923 0000 70402DE9 		push	{r4, r5, r6, lr}
 1924 0004 004000E3 		movw	r4, #:lower16:.LANCHOR12
 1925 0008 004040E3 		movt	r4, #:upper16:.LANCHOR12
 1926 000c FEFFFFEB 		bl	R_OS_EnterCritical
 1927 0010 003094E5 		ldr	r3, [r4]
 1928 0014 000053E3 		cmp	r3, #0
 1929 0018 1300000A 		beq	.L414
 1930              	.L411:
 1931 001c 005000E3 		movw	r5, #:lower16:.LANCHOR3
 1932 0020 005040E3 		movt	r5, #:upper16:.LANCHOR3
 1933 0024 FEFFFFEB 		bl	R_OS_ExitCritical
 1934 0028 003095E5 		ldr	r3, [r5]
 1935 002c 000053E3 		cmp	r3, #0
 1936 0030 0B00001A 		bne	.L412
 1937 0034 000000E3 		movw	r0, #:lower16:.LANCHOR13
 1938 0038 152EA0E3 		mov	r2, #336
 1939 003c FF10A0E3 		mov	r1, #255
 1940 0040 000040E3 		movt	r0, #:upper16:.LANCHOR13
 1941 0044 FEFFFFEB 		bl	memset
 1942 0048 000094E5 		ldr	r0, [r4]
 1943 004c FEFFFFEB 		bl	R_OS_MutexAcquire
 1944              		.syntax divided
 1945              	@ 47 "C:/Renesas/e2studio_2021_01_workspace_RZA2M_ANPR/ANPR_RZA2M_EBK/generate/compiler/inc/r_compi
 1946 0050 00F020E3 		nop
 1947              	@ 0 "" 2
 1948              		.arm
 1949              		.syntax unified
 1950 0054 000094E5 		ldr	r0, [r4]
 1951 0058 FEFFFFEB 		bl	R_OS_MutexRelease
 1952 005c 0130A0E3 		mov	r3, #1
 1953 0060 003085E5 		str	r3, [r5]
 1954              	.L412:
 1955 0064 0000A0E3 		mov	r0, #0
 1956 0068 7080BDE8 		pop	{r4, r5, r6, pc}
 1957              	.L414:
 1958 006c FEFFFFEB 		bl	R_OS_MutexCreate
 1959 0070 000084E5 		str	r0, [r4]
 1960 0074 E8FFFFEA 		b	.L411
 1962              		.section	.text.R_GPIO_InitByTable,"ax",%progbits
 1963              		.align	2
 1964              		.global	R_GPIO_InitByTable
 1965              		.syntax unified
 1966              		.arm
 1967              		.fpu neon
 1969              	R_GPIO_InitByTable:
 1970              		@ args = 0, pretend = 0, frame = 8
 1971              		@ frame_needed = 0, uses_anonymous_args = 0
 1972 0000 003000E3 		movw	r3, #:lower16:.LANCHOR12
 1973 0004 F04F2DE9 		push	{r4, r5, r6, r7, r8, r9, r10, fp, lr}
 1974 0008 003040E3 		movt	r3, #:upper16:.LANCHOR12
 1975 000c 0CD04DE2 		sub	sp, sp, #12
 1976 0010 0260A0E1 		mov	r6, r2
 1977 0014 0070A0E1 		mov	r7, r0
 1978 0018 000093E5 		ldr	r0, [r3]
 1979 001c 0150A0E1 		mov	r5, r1
 1980 0020 04308DE5 		str	r3, [sp, #4]
 1981 0024 FEFFFFEB 		bl	R_OS_MutexAcquire
 1982 0028 000056E3 		cmp	r6, #0
 1983 002c 7300000A 		beq	.L433
 1984 0030 86C086E0 		add	ip, r6, r6, lsl #1
 1985 0034 0010A0E3 		mov	r1, #0
 1986 0038 008000E3 		movw	r8, #:lower16:.LANCHOR0
 1987 003c 00108DE5 		str	r1, [sp]
 1988 0040 00B000E3 		movw	fp, #:lower16:.LANCHOR13
 1989 0044 8CC0A0E1 		lsl	ip, ip, #1
 1990 0048 01A0A0E1 		mov	r10, r1
 1991 004c 008040E3 		movt	r8, #:upper16:.LANCHOR0
 1992 0050 00B040E3 		movt	fp, #:upper16:.LANCHOR13
 1993 0054 020000EA 		b	.L419
 1994              	.L417:
 1995 0058 061081E2 		add	r1, r1, #6
 1996 005c 01005CE1 		cmp	ip, r1
 1997 0060 1A00000A 		beq	.L452
 1998              	.L419:
 1999 0064 B13095E1 		ldrh	r3, [r5, r1]
 2000 0068 0100A0E3 		mov	r0, #1
 2001 006c 0040A0E3 		mov	r4, #0
 2002 0070 022923E2 		eor	r2, r3, #32768
 2003 0074 010B52E3 		cmp	r2, #1024
 2004 0078 0090E033 		mvncc	r9, #0
 2005 007c F5FFFF3A 		bcc	.L417
 2006 0080 73E0EFE6 		uxtb	lr, r3
 2007 0084 2334A0E1 		lsr	r3, r3, #8
 2008 0088 07005EE3 		cmp	lr, #7
 2009 008c 83218EE0 		add	r2, lr, r3, lsl #3
 2010 0090 1220A0E1 		lsl	r2, r2, r0
 2011 0094 4D00008A 		bhi	.L436
 2012 0098 0340D8E7 		ldrb	r4, [r8, r3]	@ zero_extendqisi2
 2013 009c 344EE0E1 		mvn	r4, r4, lsr lr
 2014 00a0 004004E0 		and	r4, r4, r0
 2015 00a4 150053E3 		cmp	r3, #21
 2016 00a8 01408483 		orrhi	r4, r4, #1
 2017 00ac 000054E3 		cmp	r4, #0
 2018 00b0 4600001A 		bne	.L436
 2019 00b4 F2909BE1 		ldrsh	r9, [fp, r2]
 2020              	.L418:
 2021 00b8 090057E1 		cmp	r7, r9
 2022 00bc 01007913 		cmnne	r9, #1
 2023 00c0 061081E2 		add	r1, r1, #6
 2024 00c4 01A0A013 		movne	r10, #1
 2025 00c8 01005CE1 		cmp	ip, r1
 2026 00cc E4FFFF1A 		bne	.L419
 2027              	.L452:
 2028 00d0 00309DE5 		ldr	r3, [sp]
 2029 00d4 000053E3 		cmp	r3, #0
 2030 00d8 4100001A 		bne	.L438
 2031 00dc 00005AE3 		cmp	r10, #0
 2032 00e0 4900001A 		bne	.L453
 2033              	.L416:
 2034              		.syntax divided
 2035              	@ 47 "C:/Renesas/e2studio_2021_01_workspace_RZA2M_ANPR/ANPR_RZA2M_EBK/generate/compiler/inc/r_compi
 2036 00e4 00F020E3 		nop
 2037              	@ 0 "" 2
 2038              		.arm
 2039              		.syntax unified
 2040 00e8 000056E3 		cmp	r6, #0
 2041 00ec 0000A003 		moveq	r0, #0
 2042 00f0 01000012 		andne	r0, r0, #1
 2043 00f4 000050E3 		cmp	r0, #0
 2044 00f8 3A00000A 		beq	.L420
 2045 00fc 009000E3 		movw	r9, #:lower16:.LANCHOR0
 2046 0100 00A000E3 		movw	r10, #:lower16:.LANCHOR13
 2047 0104 009040E3 		movt	r9, #:upper16:.LANCHOR0
 2048 0108 00A040E3 		movt	r10, #:upper16:.LANCHOR13
 2049 010c 0080A0E3 		mov	r8, #0
 2050 0110 130000EA 		b	.L427
 2051              	.L424:
 2052 0114 B030D5E1 		ldrh	r3, [r5]
 2053 0118 2314A0E1 		lsr	r1, r3, #8
 2054 011c 7330EFE6 		uxtb	r3, r3
 2055 0120 150051E3 		cmp	r1, #21
 2056 0124 0000A083 		movhi	r0, #0
 2057 0128 0100A093 		movls	r0, #1
 2058 012c 070053E3 		cmp	r3, #7
 2059 0130 0700008A 		bhi	.L432
 2060 0134 0120D9E7 		ldrb	r2, [r9, r1]	@ zero_extendqisi2
 2061 0138 3223E0E1 		mvn	r2, r2, lsr r3
 2062 013c 012002E2 		and	r2, r2, #1
 2063              	.L429:
 2064 0140 010020E2 		eor	r0, r0, #1
 2065 0144 002092E1 		orrs	r2, r2, r0
 2066 0148 81318300 		addeq	r3, r3, r1, lsl #3
 2067 014c 8330A001 		lsleq	r3, r3, #1
 2068 0150 B3708A01 		strheq	r7, [r10, r3]	@ movhi
 2069              	.L432:
 2070 0154 018088E2 		add	r8, r8, #1
 2071 0158 065085E2 		add	r5, r5, #6
 2072 015c 080056E1 		cmp	r6, r8
 2073 0160 2000009A 		bls	.L420
 2074              	.L427:
 2075 0164 B0B0D5E1 		ldrh	fp, [r5]
 2076 0168 7B30EFE6 		uxtb	r3, fp
 2077 016c 070053E3 		cmp	r3, #7
 2078 0170 F7FFFF8A 		bhi	.L432
 2079 0174 2B14A0E1 		lsr	r1, fp, #8
 2080 0178 0120D9E7 		ldrb	r2, [r9, r1]	@ zero_extendqisi2
 2081 017c 3223E0E1 		mvn	r2, r2, lsr r3
 2082 0180 012002E2 		and	r2, r2, #1
 2083 0184 150051E3 		cmp	r1, #21
 2084 0188 0200A091 		movls	r0, r2
 2085 018c 01008283 		orrhi	r0, r2, #1
 2086 0190 000050E3 		cmp	r0, #0
 2087 0194 1E00001A 		bne	.L454
 2088 0198 0410D5E5 		ldrb	r1, [r5, #4]	@ zero_extendqisi2
 2089 019c 0B00A0E1 		mov	r0, fp
 2090 01a0 FEFFFFEB 		bl	R_GPIO_PinDscrSet
 2091 01a4 000050E3 		cmp	r0, #0
 2092 01a8 D9FFFF1A 		bne	.L424
 2093 01ac 0210D5E5 		ldrb	r1, [r5, #2]	@ zero_extendqisi2
 2094 01b0 0B00A0E1 		mov	r0, fp
 2095 01b4 FEFFFFEB 		bl	R_GPIO_PinSetFunction
 2096 01b8 000050E3 		cmp	r0, #0
 2097 01bc D4FFFF1A 		bne	.L424
 2098 01c0 0B00A0E1 		mov	r0, fp
 2099 01c4 0310D5E5 		ldrb	r1, [r5, #3]	@ zero_extendqisi2
 2100 01c8 FEFFFFEB 		bl	R_GPIO_PinTintSet
 2101 01cc D0FFFFEA 		b	.L424
 2102              	.L436:
 2103 01d0 0130A0E3 		mov	r3, #1
 2104 01d4 0000A0E3 		mov	r0, #0
 2105 01d8 0040E0E3 		mvn	r4, #0
 2106 01dc 00308DE5 		str	r3, [sp]
 2107 01e0 B4FFFFEA 		b	.L418
 2108              	.L438:
 2109 01e4 0040E0E3 		mvn	r4, #0
 2110              	.L420:
 2111 01e8 04309DE5 		ldr	r3, [sp, #4]
 2112 01ec 000093E5 		ldr	r0, [r3]
 2113 01f0 FEFFFFEB 		bl	R_OS_MutexRelease
 2114 01f4 0400A0E1 		mov	r0, r4
 2115 01f8 0CD08DE2 		add	sp, sp, #12
 2116              		@ sp needed
 2117 01fc F08FBDE8 		pop	{r4, r5, r6, r7, r8, r9, r10, fp, pc}
 2118              	.L433:
 2119 0200 0100A0E3 		mov	r0, #1
 2120 0204 0640A0E1 		mov	r4, r6
 2121 0208 B5FFFFEA 		b	.L416
 2122              	.L453:
 2123 020c 0540E0E3 		mvn	r4, #5
 2124 0210 F4FFFFEA 		b	.L420
 2125              	.L454:
 2126 0214 150051E3 		cmp	r1, #21
 2127 0218 0000A083 		movhi	r0, #0
 2128 021c 0100A093 		movls	r0, #1
 2129 0220 C6FFFFEA 		b	.L429
 2131              		.section	.text.R_GPIO_ClearByPinList,"ax",%progbits
 2132              		.align	2
 2133              		.global	R_GPIO_ClearByPinList
 2134              		.syntax unified
 2135              		.arm
 2136              		.fpu neon
 2138              	R_GPIO_ClearByPinList:
 2139              		@ args = 0, pretend = 0, frame = 16
 2140              		@ frame_needed = 0, uses_anonymous_args = 0
 2141 0000 003000E3 		movw	r3, #:lower16:.LANCHOR12
 2142 0004 F04F2DE9 		push	{r4, r5, r6, r7, r8, r9, r10, fp, lr}
 2143 0008 003040E3 		movt	r3, #:upper16:.LANCHOR12
 2144 000c 14D04DE2 		sub	sp, sp, #20
 2145 0010 0170A0E1 		mov	r7, r1
 2146 0014 0090A0E1 		mov	r9, r0
 2147 0018 000093E5 		ldr	r0, [r3]
 2148 001c 08308DE5 		str	r3, [sp, #8]
 2149 0020 FEFFFFEB 		bl	R_OS_MutexAcquire
 2150 0024 000057E3 		cmp	r7, #0
 2151 0028 1200000A 		beq	.L456
 2152 002c 029049E2 		sub	r9, r9, #2
 2153 0030 001000E3 		movw	r1, #:lower16:.LANCHOR0
 2154 0034 00C000E3 		movw	ip, #:lower16:.LANCHOR4
 2155 0038 09E0A0E1 		mov	lr, r9
 2156 003c 001040E3 		movt	r1, #:upper16:.LANCHOR0
 2157 0040 00C040E3 		movt	ip, #:upper16:.LANCHOR4
 2158 0044 0060A0E3 		mov	r6, #0
 2159              	.L466:
 2160 0048 B200FEE1 		ldrh	r0, [lr, #2]!
 2161 004c 023920E2 		eor	r3, r0, #32768
 2162 0050 010B53E3 		cmp	r3, #1024
 2163 0054 5900002A 		bcs	.L487
 2164              	.L470:
 2165 0058 0030A0E3 		mov	r3, #0
 2166              	.L461:
 2167 005c B3209CE1 		ldrh	r2, [ip, r3]
 2168 0060 063083E2 		add	r3, r3, #6
 2169 0064 000052E1 		cmp	r2, r0
 2170 0068 0800000A 		beq	.L460
 2171 006c 840053E3 		cmp	r3, #132
 2172 0070 F9FFFF1A 		bne	.L461
 2173              	.L459:
 2174 0074 0070E0E3 		mvn	r7, #0
 2175              	.L456:
 2176 0078 08309DE5 		ldr	r3, [sp, #8]
 2177 007c 000093E5 		ldr	r0, [r3]
 2178 0080 FEFFFFEB 		bl	R_OS_MutexRelease
 2179 0084 0700A0E1 		mov	r0, r7
 2180 0088 14D08DE2 		add	sp, sp, #20
 2181              		@ sp needed
 2182 008c F08FBDE8 		pop	{r4, r5, r6, r7, r8, r9, r10, fp, pc}
 2183              	.L460:
 2184 0090 016086E2 		add	r6, r6, #1
 2185 0094 060057E1 		cmp	r7, r6
 2186 0098 EAFFFF1A 		bne	.L466
 2187 009c 003000E3 		movw	r3, #:lower16:.LANCHOR7
 2188 00a0 002000E3 		movw	r2, #:lower16:.LANCHOR8
 2189 00a4 00A000E3 		movw	r10, #:lower16:.LANCHOR0
 2190 00a8 003040E3 		movt	r3, #:upper16:.LANCHOR7
 2191 00ac 002040E3 		movt	r2, #:upper16:.LANCHOR8
 2192 00b0 04308DE5 		str	r3, [sp, #4]
 2193 00b4 0C208DE5 		str	r2, [sp, #12]
 2194 00b8 00A040E3 		movt	r10, #:upper16:.LANCHOR0
 2195 00bc 0080A0E3 		mov	r8, #0
 2196 00c0 380000EA 		b	.L465
 2197              	.L488:
 2198 00c4 04309DE5 		ldr	r3, [sp, #4]
 2199 00c8 150055E3 		cmp	r5, #21
 2200 00cc 0020A083 		movhi	r2, #0
 2201 00d0 0120A093 		movls	r2, #1
 2202 00d4 0510D3E7 		ldrb	r1, [r3, r5]	@ zero_extendqisi2
 2203 00d8 313412E0 		ands	r3, r2, r1, lsr r4
 2204 00dc 4400000A 		beq	.L467
 2205 00e0 150055E3 		cmp	r5, #21
 2206 00e4 0210A0E3 		mov	r1, #2
 2207 00e8 0000A093 		movls	r0, #0
 2208 00ec 0100A083 		movhi	r0, #1
 2209              	.L463:
 2210 00f0 0520DAE7 		ldrb	r2, [r10, r5]	@ zero_extendqisi2
 2211 00f4 3224E0E1 		mvn	r2, r2, lsr r4
 2212 00f8 012002E2 		and	r2, r2, #1
 2213 00fc 023090E1 		orrs	r3, r0, r2
 2214 0100 DBFFFF1A 		bne	.L459
 2215 0104 0B00A0E1 		mov	r0, fp
 2216 0108 FEFFFFEB 		bl	R_GPIO_PinDscrSet
 2217 010c 007050E2 		subs	r7, r0, #0
 2218 0110 D8FFFF1A 		bne	.L456
 2219 0114 0110A0E3 		mov	r1, #1
 2220 0118 0B00A0E1 		mov	r0, fp
 2221 011c FEFFFFEB 		bl	R_GPIO_PinSetFunction
 2222 0120 007050E2 		subs	r7, r0, #0
 2223 0124 D3FFFF1A 		bne	.L456
 2224 0128 0B00A0E1 		mov	r0, fp
 2225 012c 0110A0E3 		mov	r1, #1
 2226 0130 FEFFFFEB 		bl	R_GPIO_PinTintSet
 2227 0134 007050E2 		subs	r7, r0, #0
 2228 0138 CEFFFF1A 		bne	.L456
 2229 013c 0530DAE7 		ldrb	r3, [r10, r5]	@ zero_extendqisi2
 2230 0140 3334E0E1 		mvn	r3, r3, lsr r4
 2231 0144 010013E3 		tst	r3, #1
 2232 0148 2700001A 		bne	.L472
 2233 014c 003000E3 		movw	r3, #:lower16:.LANCHOR5
 2234 0150 002000E3 		movw	r2, #:lower16:.LANCHOR6
 2235 0154 003040E3 		movt	r3, #:upper16:.LANCHOR5
 2236 0158 002040E3 		movt	r2, #:upper16:.LANCHOR6
 2237 015c FD0485E2 		add	r0, r5, #-50331648
 2238 0160 0431D3E7 		ldrb	r3, [r3, r4, lsl #2]	@ zero_extendqisi2
 2239 0164 0421D2E7 		ldrb	r2, [r2, r4, lsl #2]	@ zero_extendqisi2
 2240 0168 7E0D40E2 		sub	r0, r0, #8064
 2241 016c 0710A0E1 		mov	r1, r7
 2242 0170 FEFFFFEB 		bl	RZA_IO_RegWrite_8
 2243 0174 0530DAE7 		ldrb	r3, [r10, r5]	@ zero_extendqisi2
 2244 0178 3334E0E1 		mvn	r3, r3, lsr r4
 2245 017c 010013E3 		tst	r3, #1
 2246 0180 0500001A 		bne	.L464
 2247 0184 854184E0 		add	r4, r4, r5, lsl #3
 2248 0188 003000E3 		movw	r3, #:lower16:.LANCHOR13
 2249 018c 003040E3 		movt	r3, #:upper16:.LANCHOR13
 2250 0190 8440A0E1 		lsl	r4, r4, #1
 2251 0194 0020E0E3 		mvn	r2, #0
 2252 0198 B42083E1 		strh	r2, [r3, r4]	@ movhi
 2253              	.L464:
 2254 019c 018088E2 		add	r8, r8, #1
 2255 01a0 080056E1 		cmp	r6, r8
 2256 01a4 B3FFFF0A 		beq	.L456
 2257              	.L465:
 2258 01a8 B2B0F9E1 		ldrh	fp, [r9, #2]!
 2259 01ac 7B40EFE6 		uxtb	r4, fp
 2260 01b0 2B54A0E1 		lsr	r5, fp, #8
 2261 01b4 070054E3 		cmp	r4, #7
 2262 01b8 ADFFFF8A 		bhi	.L459
 2263 01bc C0FFFFEA 		b	.L488
 2264              	.L487:
 2265 01c0 7030EFE6 		uxtb	r3, r0
 2266 01c4 2044A0E1 		lsr	r4, r0, #8
 2267 01c8 070053E3 		cmp	r3, #7
 2268 01cc A8FFFF8A 		bhi	.L459
 2269 01d0 0420D1E7 		ldrb	r2, [r1, r4]	@ zero_extendqisi2
 2270 01d4 3233A0E1 		lsr	r3, r2, r3
 2271 01d8 010013E3 		tst	r3, #1
 2272 01dc A4FFFF0A 		beq	.L459
 2273 01e0 150054E3 		cmp	r4, #21
 2274 01e4 9BFFFF9A 		bls	.L470
 2275 01e8 A1FFFFEA 		b	.L459
 2276              	.L472:
 2277 01ec 0070E0E3 		mvn	r7, #0
 2278 01f0 E9FFFFEA 		b	.L464
 2279              	.L467:
 2280 01f4 0C309DE5 		ldr	r3, [sp, #12]
 2281 01f8 150055E3 		cmp	r5, #21
 2282 01fc 0000A093 		movls	r0, #0
 2283 0200 0100A083 		movhi	r0, #1
 2284 0204 0510D3E7 		ldrb	r1, [r3, r5]	@ zero_extendqisi2
 2285 0208 313412E0 		ands	r3, r2, r1, lsr r4
 2286 020c 0510A003 		moveq	r1, #5
 2287 0210 0410A013 		movne	r1, #4
 2288 0214 B5FFFFEA 		b	.L463
 2290              		.section	.text.R_GPIO_ClearByTable,"ax",%progbits
 2291              		.align	2
 2292              		.global	R_GPIO_ClearByTable
 2293              		.syntax unified
 2294              		.arm
 2295              		.fpu neon
 2297              	R_GPIO_ClearByTable:
 2298              		@ args = 0, pretend = 0, frame = 16
 2299              		@ frame_needed = 0, uses_anonymous_args = 0
 2300 0000 003000E3 		movw	r3, #:lower16:.LANCHOR12
 2301 0004 F04F2DE9 		push	{r4, r5, r6, r7, r8, r9, r10, fp, lr}
 2302 0008 003040E3 		movt	r3, #:upper16:.LANCHOR12
 2303 000c 14D04DE2 		sub	sp, sp, #20
 2304 0010 0190A0E1 		mov	r9, r1
 2305 0014 0080A0E1 		mov	r8, r0
 2306 0018 000093E5 		ldr	r0, [r3]
 2307 001c 0C308DE5 		str	r3, [sp, #12]
 2308 0020 FEFFFFEB 		bl	R_OS_MutexAcquire
 2309 0024 000059E3 		cmp	r9, #0
 2310 0028 7600000A 		beq	.L505
 2311 002c 0040A0E3 		mov	r4, #0
 2312 0030 00B000E3 		movw	fp, #:lower16:.LANCHOR5
 2313 0034 003000E3 		movw	r3, #:lower16:.LANCHOR7
 2314 0038 002000E3 		movw	r2, #:lower16:.LANCHOR6
 2315 003c 0460A0E1 		mov	r6, r4
 2316 0040 0470A0E1 		mov	r7, r4
 2317 0044 00B040E3 		movt	fp, #:upper16:.LANCHOR5
 2318 0048 003040E3 		movt	r3, #:upper16:.LANCHOR7
 2319 004c 002040E3 		movt	r2, #:upper16:.LANCHOR6
 2320 0050 08308DE5 		str	r3, [sp, #8]
 2321 0054 04208DE5 		str	r2, [sp, #4]
 2322              	.L499:
 2323 0058 B4A098E1 		ldrh	r10, [r8, r4]
 2324 005c 02091AE3 		tst	r10, #32768
 2325 0060 1800001A 		bne	.L528
 2326 0064 2A04A0E1 		lsr	r0, r10, #8
 2327 0068 7A10EFE6 		uxtb	r1, r10
 2328 006c 150050E3 		cmp	r0, #21
 2329 0070 00C0A083 		movhi	ip, #0
 2330 0074 01C0A093 		movls	ip, #1
 2331 0078 070051E3 		cmp	r1, #7
 2332 007c 0700008A 		bhi	.L497
 2333 0080 005000E3 		movw	r5, #:lower16:.LANCHOR0
 2334 0084 005040E3 		movt	r5, #:upper16:.LANCHOR0
 2335 0088 0020D5E7 		ldrb	r2, [r5, r0]	@ zero_extendqisi2
 2336 008c 3221A0E1 		lsr	r2, r2, r1
 2337 0090 012012E2 		ands	r2, r2, #1
 2338 0094 0100000A 		beq	.L497
 2339 0098 150050E3 		cmp	r0, #21
 2340 009c 1400009A 		bls	.L494
 2341              	.L497:
 2342 00a0 016086E2 		add	r6, r6, #1
 2343 00a4 064084E2 		add	r4, r4, #6
 2344 00a8 060059E1 		cmp	r9, r6
 2345 00ac E9FFFF1A 		bne	.L499
 2346              	.L490:
 2347 00b0 0C309DE5 		ldr	r3, [sp, #12]
 2348 00b4 000093E5 		ldr	r0, [r3]
 2349 00b8 FEFFFFEB 		bl	R_OS_MutexRelease
 2350 00bc 0700A0E1 		mov	r0, r7
 2351 00c0 14D08DE2 		add	sp, sp, #20
 2352              		@ sp needed
 2353 00c4 F08FBDE8 		pop	{r4, r5, r6, r7, r8, r9, r10, fp, pc}
 2354              	.L528:
 2355              		.syntax divided
 2356              	@ 47 "C:/Renesas/e2studio_2021_01_workspace_RZA2M_ANPR/ANPR_RZA2M_EBK/generate/compiler/inc/r_compi
 2357 00c8 00F020E3 		nop
 2358              	@ 0 "" 2
 2359              		.arm
 2360              		.syntax unified
 2361 00cc 005000E3 		movw	r5, #:lower16:.LANCHOR0
 2362 00d0 2A04A0E1 		lsr	r0, r10, #8
 2363 00d4 005040E3 		movt	r5, #:upper16:.LANCHOR0
 2364 00d8 7A10EFE6 		uxtb	r1, r10
 2365 00dc 0020D5E7 		ldrb	r2, [r5, r0]	@ zero_extendqisi2
 2366 00e0 070051E3 		cmp	r1, #7
 2367 00e4 3221A0E1 		lsr	r2, r2, r1
 2368 00e8 012002E2 		and	r2, r2, #1
 2369 00ec 3F00008A 		bhi	.L510
 2370 00f0 00C0A0E3 		mov	ip, #0
 2371              	.L494:
 2372 00f4 08309DE5 		ldr	r3, [sp, #8]
 2373 00f8 00E0D3E7 		ldrb	lr, [r3, r0]	@ zero_extendqisi2
 2374 00fc 3E311CE0 		ands	r3, ip, lr, lsr r1
 2375 0100 0210A013 		movne	r1, #2
 2376 0104 4100000A 		beq	.L529
 2377              	.L495:
 2378 0108 000052E3 		cmp	r2, #0
 2379 010c 3700000A 		beq	.L510
 2380 0110 00005CE3 		cmp	ip, #0
 2381 0114 3500000A 		beq	.L510
 2382 0118 0A00A0E1 		mov	r0, r10
 2383 011c FEFFFFEB 		bl	R_GPIO_PinDscrSet
 2384 0120 007050E2 		subs	r7, r0, #0
 2385 0124 DDFFFF1A 		bne	.L497
 2386 0128 0110A0E3 		mov	r1, #1
 2387 012c 0A00A0E1 		mov	r0, r10
 2388 0130 FEFFFFEB 		bl	R_GPIO_PinSetFunction
 2389 0134 007050E2 		subs	r7, r0, #0
 2390 0138 D8FFFF1A 		bne	.L497
 2391 013c 0A00A0E1 		mov	r0, r10
 2392 0140 0110A0E3 		mov	r1, #1
 2393 0144 FEFFFFEB 		bl	R_GPIO_PinTintSet
 2394 0148 007050E2 		subs	r7, r0, #0
 2395 014c D3FFFF1A 		bne	.L497
 2396 0150 B40098E1 		ldrh	r0, [r8, r4]
 2397 0154 7020EFE6 		uxtb	r2, r0
 2398 0158 2004A0E1 		lsr	r0, r0, #8
 2399 015c 070052E3 		cmp	r2, #7
 2400 0160 2200008A 		bhi	.L510
 2401 0164 0030D5E7 		ldrb	r3, [r5, r0]	@ zero_extendqisi2
 2402 0168 3332E0E1 		mvn	r3, r3, lsr r2
 2403 016c 150050E3 		cmp	r0, #21
 2404 0170 01308383 		orrhi	r3, r3, #1
 2405 0174 010013E3 		tst	r3, #1
 2406 0178 1C00001A 		bne	.L510
 2407 017c 04109DE5 		ldr	r1, [sp, #4]
 2408 0180 FD0480E2 		add	r0, r0, #-50331648
 2409 0184 0231DBE7 		ldrb	r3, [fp, r2, lsl #2]	@ zero_extendqisi2
 2410 0188 7E0D40E2 		sub	r0, r0, #8064
 2411 018c 0221D1E7 		ldrb	r2, [r1, r2, lsl #2]	@ zero_extendqisi2
 2412 0190 0710A0E1 		mov	r1, r7
 2413 0194 FEFFFFEB 		bl	RZA_IO_RegWrite_8
 2414 0198 B43098E1 		ldrh	r3, [r8, r4]
 2415 019c 7320EFE6 		uxtb	r2, r3
 2416 01a0 2334A0E1 		lsr	r3, r3, #8
 2417 01a4 070052E3 		cmp	r2, #7
 2418 01a8 BCFFFF8A 		bhi	.L497
 2419 01ac 0310D5E7 		ldrb	r1, [r5, r3]	@ zero_extendqisi2
 2420 01b0 3112E0E1 		mvn	r1, r1, lsr r2
 2421 01b4 150053E3 		cmp	r3, #21
 2422 01b8 01108183 		orrhi	r1, r1, #1
 2423 01bc 010011E3 		tst	r1, #1
 2424 01c0 B6FFFF1A 		bne	.L497
 2425 01c4 833182E0 		add	r3, r2, r3, lsl #3
 2426 01c8 016086E2 		add	r6, r6, #1
 2427 01cc 002000E3 		movw	r2, #:lower16:.LANCHOR13
 2428 01d0 8330A0E1 		lsl	r3, r3, #1
 2429 01d4 060059E1 		cmp	r9, r6
 2430 01d8 002040E3 		movt	r2, #:upper16:.LANCHOR13
 2431 01dc 0010E0E3 		mvn	r1, #0
 2432 01e0 064084E2 		add	r4, r4, #6
 2433 01e4 B31082E1 		strh	r1, [r2, r3]	@ movhi
 2434 01e8 9AFFFF1A 		bne	.L499
 2435 01ec AFFFFFEA 		b	.L490
 2436              	.L510:
 2437 01f0 016086E2 		add	r6, r6, #1
 2438 01f4 0070E0E3 		mvn	r7, #0
 2439 01f8 060059E1 		cmp	r9, r6
 2440 01fc 064084E2 		add	r4, r4, #6
 2441 0200 94FFFF1A 		bne	.L499
 2442 0204 A9FFFFEA 		b	.L490
 2443              	.L505:
 2444 0208 0970A0E1 		mov	r7, r9
 2445 020c A7FFFFEA 		b	.L490
 2446              	.L529:
 2447 0210 00E000E3 		movw	lr, #:lower16:.LANCHOR8
 2448 0214 00E040E3 		movt	lr, #:upper16:.LANCHOR8
 2449 0218 0000DEE7 		ldrb	r0, [lr, r0]	@ zero_extendqisi2
 2450 021c 30311CE0 		ands	r3, ip, r0, lsr r1
 2451 0220 0510A003 		moveq	r1, #5
 2452 0224 0410A013 		movne	r1, #4
 2453 0228 B6FFFFEA 		b	.L495
 2455              		.section	.text.R_GPIO_PinGetFunction,"ax",%progbits
 2456              		.align	2
 2457              		.global	R_GPIO_PinGetFunction
 2458              		.syntax unified
 2459              		.arm
 2460              		.fpu neon
 2462              	R_GPIO_PinGetFunction:
 2463              		@ args = 0, pretend = 0, frame = 0
 2464              		@ frame_needed = 0, uses_anonymous_args = 0
 2465 0000 F0472DE9 		push	{r4, r5, r6, r7, r8, r9, r10, lr}
 2466 0004 7060EFE6 		uxtb	r6, r0
 2467 0008 0030A0E3 		mov	r3, #0
 2468 000c 070056E3 		cmp	r6, #7
 2469 0010 0030C1E5 		strb	r3, [r1]
 2470 0014 1B00008A 		bhi	.L533
 2471 0018 2044A0E1 		lsr	r4, r0, #8
 2472 001c 007000E3 		movw	r7, #:lower16:.LANCHOR0
 2473 0020 007040E3 		movt	r7, #:upper16:.LANCHOR0
 2474 0024 0400D7E7 		ldrb	r0, [r7, r4]	@ zero_extendqisi2
 2475 0028 3006E0E1 		mvn	r0, r0, lsr r6
 2476 002c 010000E2 		and	r0, r0, #1
 2477 0030 150054E3 		cmp	r4, #21
 2478 0034 0050A091 		movls	r5, r0
 2479 0038 01508083 		orrhi	r5, r0, #1
 2480 003c 000055E3 		cmp	r5, #0
 2481 0040 1000001A 		bne	.L533
 2482 0044 002000E3 		movw	r2, #:lower16:.LANCHOR5
 2483 0048 003000E3 		movw	r3, #:lower16:.LANCHOR6
 2484 004c 002040E3 		movt	r2, #:upper16:.LANCHOR5
 2485 0050 003040E3 		movt	r3, #:upper16:.LANCHOR6
 2486 0054 0691D2E7 		ldrb	r9, [r2, r6, lsl #2]	@ zero_extendqisi2
 2487 0058 FD0484E2 		add	r0, r4, #-50331648
 2488 005c 0180A0E1 		mov	r8, r1
 2489 0060 7E0D40E2 		sub	r0, r0, #8064
 2490 0064 0611D3E7 		ldrb	r1, [r3, r6, lsl #2]	@ zero_extendqisi2
 2491 0068 0920A0E1 		mov	r2, r9
 2492 006c FEFFFFEB 		bl	RZA_IO_RegRead_8
 2493 0070 0430D7E7 		ldrb	r3, [r7, r4]	@ zero_extendqisi2
 2494 0074 010050E3 		cmp	r0, #1
 2495 0078 3336A0E1 		lsr	r3, r3, r6
 2496 007c 0300000A 		beq	.L534
 2497 0080 010013E3 		tst	r3, #1
 2498 0084 0F00001A 		bne	.L551
 2499              	.L533:
 2500 0088 0000E0E3 		mvn	r0, #0
 2501 008c F087BDE8 		pop	{r4, r5, r6, r7, r8, r9, r10, pc}
 2502              	.L534:
 2503 0090 010013E3 		tst	r3, #1
 2504 0094 FBFFFF0A 		beq	.L533
 2505 0098 840186E0 		add	r0, r6, r4, lsl #3
 2506 009c 0720A0E3 		mov	r2, #7
 2507 00a0 0510A0E1 		mov	r1, r5
 2508 00a4 FD0480E2 		add	r0, r0, #-50331648
 2509 00a8 1E0C40E2 		sub	r0, r0, #7680
 2510 00ac FEFFFFEB 		bl	RZA_IO_RegRead_8
 2511 00b0 070050E3 		cmp	r0, #7
 2512 00b4 2300008A 		bhi	.L539
 2513 00b8 063080E2 		add	r3, r0, #6
 2514 00bc 0500A0E1 		mov	r0, r5
 2515 00c0 0030C8E5 		strb	r3, [r8]
 2516 00c4 F087BDE8 		pop	{r4, r5, r6, r7, r8, r9, r10, pc}
 2517              	.L551:
 2518 00c8 002000E3 		movw	r2, #:lower16:.LANCHOR1
 2519 00cc 003000E3 		movw	r3, #:lower16:.LANCHOR2
 2520 00d0 003040E3 		movt	r3, #:upper16:.LANCHOR2
 2521 00d4 002040E3 		movt	r2, #:upper16:.LANCHOR1
 2522 00d8 062192E7 		ldr	r2, [r2, r6, lsl #2]
 2523 00dc 8400A0E1 		lsl	r0, r4, #1
 2524 00e0 061193E7 		ldr	r1, [r3, r6, lsl #2]
 2525 00e4 FD0480E2 		add	r0, r0, #-50331648
 2526 00e8 020A40E2 		sub	r0, r0, #8192
 2527 00ec 7220FFE6 		uxth	r2, r2
 2528 00f0 7110FFE6 		uxth	r1, r1
 2529 00f4 FEFFFFEB 		bl	RZA_IO_RegRead_16
 2530 00f8 020050E3 		cmp	r0, #2
 2531 00fc 1300000A 		beq	.L535
 2532 0100 030050E3 		cmp	r0, #3
 2533 0104 0300000A 		beq	.L536
 2534 0108 000050E3 		cmp	r0, #0
 2535 010c 1100000A 		beq	.L552
 2536 0110 0300E0E3 		mvn	r0, #3
 2537 0114 F087BDE8 		pop	{r4, r5, r6, r7, r8, r9, r10, pc}
 2538              	.L536:
 2539 0118 0430D7E7 		ldrb	r3, [r7, r4]	@ zero_extendqisi2
 2540 011c 3336E0E1 		mvn	r3, r3, lsr r6
 2541 0120 010013E3 		tst	r3, #1
 2542 0124 D7FFFF1A 		bne	.L533
 2543 0128 60000EE3 		movw	r0, #57440
 2544 012c 0920A0E1 		mov	r2, r9
 2545 0130 FF0C4FE3 		movt	r0, 64767
 2546 0134 0610A0E1 		mov	r1, r6
 2547 0138 000084E0 		add	r0, r4, r0
 2548 013c FEFFFFEB 		bl	RZA_IO_RegRead_8
 2549 0140 0530A0E3 		mov	r3, #5
 2550 0144 0030C8E5 		strb	r3, [r8]
 2551              	.L539:
 2552 0148 0000A0E3 		mov	r0, #0
 2553 014c F087BDE8 		pop	{r4, r5, r6, r7, r8, r9, r10, pc}
 2554              	.L535:
 2555 0150 0000C8E5 		strb	r0, [r8]
 2556 0154 FBFFFFEA 		b	.L539
 2557              	.L552:
 2558 0158 0130A0E3 		mov	r3, #1
 2559 015c 0030C8E5 		strb	r3, [r8]
 2560 0160 F8FFFFEA 		b	.L539
 2562              		.section	.text.R_GPIO_DeallocateAllPins,"ax",%progbits
 2563              		.align	2
 2564              		.global	R_GPIO_DeallocateAllPins
 2565              		.syntax unified
 2566              		.arm
 2567              		.fpu neon
 2569              	R_GPIO_DeallocateAllPins:
 2570              		@ args = 0, pretend = 0, frame = 0
 2571              		@ frame_needed = 0, uses_anonymous_args = 0
 2572              		@ link register save eliminated.
 2573 0000 003000E3 		movw	r3, #:lower16:.LANCHOR13
 2574 0004 00C0E0E3 		mvn	ip, #0
 2575 0008 003040E3 		movt	r3, #:upper16:.LANCHOR13
 2576 000c 151E83E2 		add	r1, r3, #336
 2577              	.L555:
 2578 0010 F020D3E1 		ldrsh	r2, [r3]
 2579 0014 023083E2 		add	r3, r3, #2
 2580 0018 000052E1 		cmp	r2, r0
 2581 001c B2C04301 		strheq	ip, [r3, #-2]	@ movhi
 2582 0020 010053E1 		cmp	r3, r1
 2583 0024 F9FFFF1A 		bne	.L555
 2584 0028 1EFF2FE1 		bx	lr
 2586              		.section	.text.R_GPIO_GetVersion,"ax",%progbits
 2587              		.align	2
 2588              		.global	R_GPIO_GetVersion
 2589              		.syntax unified
 2590              		.arm
 2591              		.fpu neon
 2593              	R_GPIO_GetVersion:
 2594              		@ args = 0, pretend = 0, frame = 0
 2595              		@ frame_needed = 0, uses_anonymous_args = 0
 2596 0000 002000E3 		movw	r2, #:lower16:.LC0
 2597 0004 04E02DE5 		str	lr, [sp, #-4]!
 2598 0008 0030A0E1 		mov	r3, r0
 2599 000c 0010A0E3 		mov	r1, #0
 2600 0010 002040E3 		movt	r2, #:upper16:.LC0
 2601 0014 01E0A0E3 		mov	lr, #1
 2602 0018 04C0A0E3 		mov	ip, #4
 2603 001c 142080E5 		str	r2, [r0, #20]
 2604 0020 0100A0E1 		mov	r0, r1
 2605 0024 BEE0C3E1 		strh	lr, [r3, #14]	@ movhi
 2606 0028 BCC0C3E1 		strh	ip, [r3, #12]	@ movhi
 2607 002c 101083E5 		str	r1, [r3, #16]
 2608 0030 04F09DE4 		ldr	pc, [sp], #4
 2610              		.section	.bss.s_gpio_pin_allocation,"aw",%nobits
 2611              		.align	3
 2612              		.set	.LANCHOR13,. + 0
 2615              	s_gpio_pin_allocation:
 2616 0000 00000000 		.space	336
 2616      00000000 
 2616      00000000 
 2616      00000000 
 2616      00000000 
 2617              		.section	.bss.s_r_drv_gpio_initialised,"aw",%nobits
 2618              		.align	2
 2619              		.set	.LANCHOR3,. + 0
 2622              	s_r_drv_gpio_initialised:
 2623 0000 00000000 		.space	4
 2624              		.section	.bss.sp_gpio_mutex,"aw",%nobits
 2625              		.align	2
 2626              		.set	.LANCHOR12,. + 0
 2629              	sp_gpio_mutex:
 2630 0000 00000000 		.space	4
 2631              		.section	.rodata.GPIO_SC_TABLE_MANUAL,"a",%progbits
 2632              		.align	2
 2633              		.set	.LANCHOR4,. + 0
 2636              	GPIO_SC_TABLE_MANUAL:
 2637 0000 0004     		.short	1024
 2638 0002 08       		.byte	8
 2639 0003 01       		.byte	1
 2640 0004 04       		.byte	4
 2641 0005 00       		.space	1
 2642 0006 0104     		.short	1025
 2643 0008 08       		.byte	8
 2644 0009 01       		.byte	1
 2645 000a 04       		.byte	4
 2646 000b 00       		.space	1
 2647 000c 0204     		.short	1026
 2648 000e 08       		.byte	8
 2649 000f 01       		.byte	1
 2650 0010 04       		.byte	4
 2651 0011 00       		.space	1
 2652 0012 0304     		.short	1027
 2653 0014 08       		.byte	8
 2654 0015 01       		.byte	1
 2655 0016 04       		.byte	4
 2656 0017 00       		.space	1
 2657 0018 0404     		.short	1028
 2658 001a 08       		.byte	8
 2659 001b 01       		.byte	1
 2660 001c 04       		.byte	4
 2661 001d 00       		.space	1
 2662 001e 0504     		.short	1029
 2663 0020 08       		.byte	8
 2664 0021 01       		.byte	1
 2665 0022 04       		.byte	4
 2666 0023 00       		.space	1
 2667 0024 0604     		.short	1030
 2668 0026 08       		.byte	8
 2669 0027 01       		.byte	1
 2670 0028 04       		.byte	4
 2671 0029 00       		.space	1
 2672 002a 0704     		.short	1031
 2673 002c 08       		.byte	8
 2674 002d 01       		.byte	1
 2675 002e 04       		.byte	4
 2676 002f 00       		.space	1
 2677 0030 0006     		.short	1536
 2678 0032 04       		.byte	4
 2679 0033 01       		.byte	1
 2680 0034 04       		.byte	4
 2681 0035 00       		.space	1
 2682 0036 0106     		.short	1537
 2683 0038 08       		.byte	8
 2684 0039 01       		.byte	1
 2685 003a 05       		.byte	5
 2686 003b 00       		.space	1
 2687 003c 0206     		.short	1538
 2688 003e 08       		.byte	8
 2689 003f 01       		.byte	1
 2690 0040 05       		.byte	5
 2691 0041 00       		.space	1
 2692 0042 0306     		.short	1539
 2693 0044 08       		.byte	8
 2694 0045 01       		.byte	1
 2695 0046 05       		.byte	5
 2696 0047 00       		.space	1
 2697 0048 0607     		.short	1798
 2698 004a 04       		.byte	4
 2699 004b 01       		.byte	1
 2700 004c 04       		.byte	4
 2701 004d 00       		.space	1
 2702 004e 010C     		.short	3073
 2703 0050 04       		.byte	4
 2704 0051 01       		.byte	1
 2705 0052 04       		.byte	4
 2706 0053 00       		.space	1
 2707 0054 010E     		.short	3585
 2708 0056 08       		.byte	8
 2709 0057 01       		.byte	1
 2710 0058 05       		.byte	5
 2711 0059 00       		.space	1
 2712 005a 020E     		.short	3586
 2713 005c 08       		.byte	8
 2714 005d 01       		.byte	1
 2715 005e 05       		.byte	5
 2716 005f 00       		.space	1
 2717 0060 030E     		.short	3587
 2718 0062 08       		.byte	8
 2719 0063 01       		.byte	1
 2720 0064 05       		.byte	5
 2721 0065 00       		.space	1
 2722 0066 040E     		.short	3588
 2723 0068 08       		.byte	8
 2724 0069 01       		.byte	1
 2725 006a 05       		.byte	5
 2726 006b 00       		.space	1
 2727 006c 050E     		.short	3589
 2728 006e 08       		.byte	8
 2729 006f 01       		.byte	1
 2730 0070 05       		.byte	5
 2731 0071 00       		.space	1
 2732 0072 060E     		.short	3590
 2733 0074 08       		.byte	8
 2734 0075 01       		.byte	1
 2735 0076 05       		.byte	5
 2736 0077 00       		.space	1
 2737 0078 0011     		.short	4352
 2738 007a 08       		.byte	8
 2739 007b 01       		.byte	1
 2740 007c 05       		.byte	5
 2741 007d 00       		.space	1
 2742 007e 0111     		.short	4353
 2743 0080 08       		.byte	8
 2744 0081 01       		.byte	1
 2745 0082 05       		.byte	5
 2746 0083 00       		.space	1
 2747              		.section	.rodata.R_GPIO_GetVersion.str1.4,"aMS",%progbits,1
 2748              		.align	2
 2749              	.LC0:
 2750 0000 4C4C4420 		.ascii	"LLD EBK_RZA2M GPIO\000"
 2750      45424B5F 
 2750      525A4132 
 2750      4D204750 
 2750      494F00
 2751              		.section	.rodata.s_mask_1bit_register,"a",%progbits
 2752              		.align	3
 2753              		.set	.LANCHOR5,. + 0
 2756              	s_mask_1bit_register:
 2757 0000 01000000 		.word	1
 2758 0004 02000000 		.word	2
 2759 0008 04000000 		.word	4
 2760 000c 08000000 		.word	8
 2761 0010 10000000 		.word	16
 2762 0014 20000000 		.word	32
 2763 0018 40000000 		.word	64
 2764 001c 80000000 		.word	128
 2765 0020 00010000 		.word	256
 2766 0024 00020000 		.word	512
 2767 0028 00040000 		.word	1024
 2768 002c 00080000 		.word	2048
 2769 0030 00100000 		.word	4096
 2770 0034 00200000 		.word	8192
 2771 0038 00400000 		.word	16384
 2772 003c 00800000 		.word	32768
 2773              		.section	.rodata.s_mask_2bit_register,"a",%progbits
 2774              		.align	3
 2775              		.set	.LANCHOR1,. + 0
 2778              	s_mask_2bit_register:
 2779 0000 03000000 		.word	3
 2780 0004 0C000000 		.word	12
 2781 0008 30000000 		.word	48
 2782 000c C0000000 		.word	192
 2783 0010 00030000 		.word	768
 2784 0014 000C0000 		.word	3072
 2785 0018 00300000 		.word	12288
 2786 001c 00C00000 		.word	49152
 2787 0020 00000300 		.word	196608
 2788 0024 00000C00 		.word	786432
 2789 0028 00003000 		.word	3145728
 2790 002c 0000C000 		.word	12582912
 2791 0030 00000003 		.word	50331648
 2792 0034 0000000C 		.word	201326592
 2793 0038 00000030 		.word	805306368
 2794 003c 000000C0 		.word	-1073741824
 2795              		.section	.rodata.s_qspi_reg,"a",%progbits
 2796              		.align	2
 2797              		.set	.LANCHOR11,. + 0
 2800              	s_qspi_reg:
 2801 0000 60E9FFFC 		.word	-50337440
 2802 0004 00       		.byte	0
 2803 0005 000000   		.space	3
 2804 0008 03000000 		.word	3
 2805 000c 60E9FFFC 		.word	-50337440
 2806 0010 02       		.byte	2
 2807 0011 000000   		.space	3
 2808 0014 0C000000 		.word	12
 2809 0018 60E9FFFC 		.word	-50337440
 2810 001c 04       		.byte	4
 2811 001d 000000   		.space	3
 2812 0020 30000000 		.word	48
 2813 0024 60E9FFFC 		.word	-50337440
 2814 0028 06       		.byte	6
 2815 0029 000000   		.space	3
 2816 002c C0000000 		.word	192
 2817 0030 60E9FFFC 		.word	-50337440
 2818 0034 08       		.byte	8
 2819 0035 000000   		.space	3
 2820 0038 00030000 		.word	768
 2821 003c 60E9FFFC 		.word	-50337440
 2822 0040 0A       		.byte	10
 2823 0041 000000   		.space	3
 2824 0044 000C0000 		.word	3072
 2825 0048 60E9FFFC 		.word	-50337440
 2826 004c 0C       		.byte	12
 2827 004d 000000   		.space	3
 2828 0050 00300000 		.word	12288
 2829 0054 60E9FFFC 		.word	-50337440
 2830 0058 0E       		.byte	14
 2831 0059 000000   		.space	3
 2832 005c 00C00000 		.word	49152
 2833 0060 60E9FFFC 		.word	-50337440
 2834 0064 10       		.byte	16
 2835 0065 000000   		.space	3
 2836 0068 00000300 		.word	196608
 2837 006c 60E9FFFC 		.word	-50337440
 2838 0070 12       		.byte	18
 2839 0071 000000   		.space	3
 2840 0074 00000C00 		.word	786432
 2841 0078 60E9FFFC 		.word	-50337440
 2842 007c 14       		.byte	20
 2843 007d 000000   		.space	3
 2844 0080 00003000 		.word	3145728
 2845 0084 60E9FFFC 		.word	-50337440
 2846 0088 16       		.byte	22
 2847 0089 000000   		.space	3
 2848 008c 0000C000 		.word	12582912
 2849 0090 60E9FFFC 		.word	-50337440
 2850 0094 18       		.byte	24
 2851 0095 000000   		.space	3
 2852 0098 00000003 		.word	50331648
 2853 009c 60E9FFFC 		.word	-50337440
 2854 00a0 1A       		.byte	26
 2855 00a1 000000   		.space	3
 2856 00a4 0000000C 		.word	201326592
 2857              		.section	.rodata.s_r_drv_gpio_dscr_4ma_support,"a",%progbits
 2858              		.align	3
 2859              		.set	.LANCHOR8,. + 0
 2862              	s_r_drv_gpio_dscr_4ma_support:
 2863 0000 7F       		.byte	127
 2864 0001 1F       		.byte	31
 2865 0002 0F       		.byte	15
 2866 0003 3F       		.byte	63
 2867 0004 FF       		.byte	-1
 2868 0005 FF       		.byte	-1
 2869 0006 FF       		.byte	-1
 2870 0007 FF       		.byte	-1
 2871 0008 FF       		.byte	-1
 2872 0009 FF       		.byte	-1
 2873 000a FF       		.byte	-1
 2874 000b 3F       		.byte	63
 2875 000c FF       		.byte	-1
 2876 000d FF       		.byte	-1
 2877 000e 7F       		.byte	127
 2878 000f FF       		.byte	-1
 2879 0010 FF       		.byte	-1
 2880 0011 7F       		.byte	127
 2881 0012 FF       		.byte	-1
 2882 0013 3F       		.byte	63
 2883 0014 1F       		.byte	31
 2884 0015 00       		.byte	0
 2885              		.section	.rodata.s_r_drv_gpio_dscr_8ma_support,"a",%progbits
 2886              		.align	3
 2887              		.set	.LANCHOR7,. + 0
 2890              	s_r_drv_gpio_dscr_8ma_support:
 2891 0000 00       		.byte	0
 2892 0001 00       		.byte	0
 2893 0002 00       		.byte	0
 2894 0003 00       		.byte	0
 2895 0004 00       		.byte	0
 2896 0005 00       		.byte	0
 2897 0006 00       		.byte	0
 2898 0007 00       		.byte	0
 2899 0008 00       		.byte	0
 2900 0009 00       		.byte	0
 2901 000a 00       		.byte	0
 2902 000b 00       		.byte	0
 2903 000c 00       		.byte	0
 2904 000d 00       		.byte	0
 2905 000e 00       		.byte	0
 2906 000f 00       		.byte	0
 2907 0010 FC       		.byte	-4
 2908 0011 00       		.byte	0
 2909 0012 7F       		.byte	127
 2910 0013 00       		.byte	0
 2911 0014 00       		.byte	0
 2912 0015 00       		.byte	0
 2913              		.section	.rodata.s_r_drv_gpio_support,"a",%progbits
 2914              		.align	3
 2915              		.set	.LANCHOR0,. + 0
 2918              	s_r_drv_gpio_support:
 2919 0000 7F       		.byte	127
 2920 0001 1F       		.byte	31
 2921 0002 0F       		.byte	15
 2922 0003 3F       		.byte	63
 2923 0004 FF       		.byte	-1
 2924 0005 FF       		.byte	-1
 2925 0006 FF       		.byte	-1
 2926 0007 FF       		.byte	-1
 2927 0008 FF       		.byte	-1
 2928 0009 FF       		.byte	-1
 2929 000a FF       		.byte	-1
 2930 000b 3F       		.byte	63
 2931 000c FF       		.byte	-1
 2932 000d FF       		.byte	-1
 2933 000e 7F       		.byte	127
 2934 000f FF       		.byte	-1
 2935 0010 FF       		.byte	-1
 2936 0011 7F       		.byte	127
 2937 0012 FF       		.byte	-1
 2938 0013 3F       		.byte	63
 2939 0014 1F       		.byte	31
 2940 0015 03       		.byte	3
 2941              		.section	.rodata.s_sd0_reg,"a",%progbits
 2942              		.align	2
 2943              		.set	.LANCHOR9,. + 0
 2946              	s_sd0_reg:
 2947 0000 20E9FFFC 		.word	-50337504
 2948 0004 00       		.byte	0
 2949 0005 000000   		.space	3
 2950 0008 03000000 		.word	3
 2951 000c 20E9FFFC 		.word	-50337504
 2952 0010 02       		.byte	2
 2953 0011 000000   		.space	3
 2954 0014 0C000000 		.word	12
 2955 0018 20E9FFFC 		.word	-50337504
 2956 001c 04       		.byte	4
 2957 001d 000000   		.space	3
 2958 0020 30000000 		.word	48
 2959 0024 20E9FFFC 		.word	-50337504
 2960 0028 06       		.byte	6
 2961 0029 000000   		.space	3
 2962 002c C0000000 		.word	192
 2963 0030 20E9FFFC 		.word	-50337504
 2964 0034 08       		.byte	8
 2965 0035 000000   		.space	3
 2966 0038 00030000 		.word	768
 2967 003c 20E9FFFC 		.word	-50337504
 2968 0040 0A       		.byte	10
 2969 0041 000000   		.space	3
 2970 0044 000C0000 		.word	3072
 2971 0048 30E9FFFC 		.word	-50337488
 2972 004c 00       		.byte	0
 2973 004d 000000   		.space	3
 2974 0050 03000000 		.word	3
 2975 0054 30E9FFFC 		.word	-50337488
 2976 0058 02       		.byte	2
 2977 0059 000000   		.space	3
 2978 005c 0C000000 		.word	12
 2979 0060 30E9FFFC 		.word	-50337488
 2980 0064 04       		.byte	4
 2981 0065 000000   		.space	3
 2982 0068 30000000 		.word	48
 2983 006c 30E9FFFC 		.word	-50337488
 2984 0070 06       		.byte	6
 2985 0071 000000   		.space	3
 2986 0074 C0000000 		.word	192
 2987 0078 30E9FFFC 		.word	-50337488
 2988 007c 08       		.byte	8
 2989 007d 000000   		.space	3
 2990 0080 00030000 		.word	768
 2991              		.section	.rodata.s_sd1_reg,"a",%progbits
 2992              		.align	2
 2993              		.set	.LANCHOR10,. + 0
 2996              	s_sd1_reg:
 2997 0000 40E9FFFC 		.word	-50337472
 2998 0004 00       		.byte	0
 2999 0005 000000   		.space	3
 3000 0008 03000000 		.word	3
 3001 000c 40E9FFFC 		.word	-50337472
 3002 0010 02       		.byte	2
 3003 0011 000000   		.space	3
 3004 0014 0C000000 		.word	12
 3005 0018 40E9FFFC 		.word	-50337472
 3006 001c 04       		.byte	4
 3007 001d 000000   		.space	3
 3008 0020 30000000 		.word	48
 3009 0024 40E9FFFC 		.word	-50337472
 3010 0028 06       		.byte	6
 3011 0029 000000   		.space	3
 3012 002c C0000000 		.word	192
 3013 0030 40E9FFFC 		.word	-50337472
 3014 0034 08       		.byte	8
 3015 0035 000000   		.space	3
 3016 0038 00030000 		.word	768
 3017 003c 40E9FFFC 		.word	-50337472
 3018 0040 0A       		.byte	10
 3019 0041 000000   		.space	3
 3020 0044 000C0000 		.word	3072
 3021              		.section	.rodata.s_shift_1bit_register,"a",%progbits
 3022              		.align	3
 3023              		.set	.LANCHOR6,. + 0
 3026              	s_shift_1bit_register:
 3027 0000 00000000 		.word	0
 3028 0004 01000000 		.word	1
 3029 0008 02000000 		.word	2
 3030 000c 03000000 		.word	3
 3031 0010 04000000 		.word	4
 3032 0014 05000000 		.word	5
 3033 0018 06000000 		.word	6
 3034 001c 07000000 		.word	7
 3035 0020 08000000 		.word	8
 3036 0024 09000000 		.word	9
 3037 0028 0A000000 		.word	10
 3038 002c 0B000000 		.word	11
 3039 0030 0C000000 		.word	12
 3040 0034 0D000000 		.word	13
 3041 0038 0E000000 		.word	14
 3042 003c 0F000000 		.word	15
 3043              		.section	.rodata.s_shift_2bit_register,"a",%progbits
 3044              		.align	3
 3045              		.set	.LANCHOR2,. + 0
 3048              	s_shift_2bit_register:
 3049 0000 00000000 		.word	0
 3050 0004 02000000 		.word	2
 3051 0008 04000000 		.word	4
 3052 000c 06000000 		.word	6
 3053 0010 08000000 		.word	8
 3054 0014 0A000000 		.word	10
 3055 0018 0C000000 		.word	12
 3056 001c 0E000000 		.word	14
 3057 0020 10000000 		.word	16
 3058 0024 12000000 		.word	18
 3059 0028 14000000 		.word	20
 3060 002c 16000000 		.word	22
 3061 0030 18000000 		.word	24
 3062 0034 1A000000 		.word	26
 3063 0038 1C000000 		.word	28
 3064 003c 1E000000 		.word	30
 3065              		.ident	"GCC: (GNU Tools for ARM Embedded Processors 6-2017-q2-update) 6.3.1 20170620 (release) [AR