   1              		.cpu cortex-a9
   2              		.eabi_attribute 28, 1
   3              		.eabi_attribute 20, 1
   4              		.eabi_attribute 21, 1
   5              		.eabi_attribute 23, 3
   6              		.eabi_attribute 24, 1
   7              		.eabi_attribute 25, 1
   8              		.eabi_attribute 26, 1
   9              		.eabi_attribute 30, 4
  10              		.eabi_attribute 34, 0
  11              		.eabi_attribute 18, 4
  12              		.file	"tensorflowlite_ptquant_dnn_compute.cc"
  13              		.section	.text._ZN6tflite18MicroErrorReporterD2Ev,"axG",%progbits,_ZN6tflite18MicroErrorReporterD5
  14              		.align	2
  15              		.weak	_ZN6tflite18MicroErrorReporterD2Ev
  16              		.syntax unified
  17              		.arm
  18              		.fpu neon
  20              	_ZN6tflite18MicroErrorReporterD2Ev:
  21              		.fnstart
  22              	.LFB6305:
  23              		@ args = 0, pretend = 0, frame = 0
  24              		@ frame_needed = 0, uses_anonymous_args = 0
  25              		@ link register save eliminated.
  26 0000 1EFF2FE1 		bx	lr
  27              		.cantunwind
  28              		.fnend
  30              		.weak	_ZN6tflite18MicroErrorReporterD1Ev
  31              		.set	_ZN6tflite18MicroErrorReporterD1Ev,_ZN6tflite18MicroErrorReporterD2Ev
  32              		.section	.text._ZN6tflite15MicroOpResolverILj7EED2Ev,"axG",%progbits,_ZN6tflite15MicroOpResolverIL
  33              		.align	2
  34              		.weak	_ZN6tflite15MicroOpResolverILj7EED2Ev
  35              		.syntax unified
  36              		.arm
  37              		.fpu neon
  39              	_ZN6tflite15MicroOpResolverILj7EED2Ev:
  40              		.fnstart
  41              	.LFB10340:
  42              		@ args = 0, pretend = 0, frame = 0
  43              		@ frame_needed = 0, uses_anonymous_args = 0
  44              		@ link register save eliminated.
  45 0000 1EFF2FE1 		bx	lr
  46              		.cantunwind
  47              		.fnend
  49              		.weak	_ZN6tflite15MicroOpResolverILj7EED1Ev
  50              		.set	_ZN6tflite15MicroOpResolverILj7EED1Ev,_ZN6tflite15MicroOpResolverILj7EED2Ev
  51              		.section	.text._ZNK6tflite15MicroOpResolverILj7EE6FindOpENS_15BuiltinOperatorEi,"axG",%progbits,_Z
  52              		.align	2
  53              		.weak	_ZNK6tflite15MicroOpResolverILj7EE6FindOpENS_15BuiltinOperatorEi
  54              		.syntax unified
  55              		.arm
  56              		.fpu neon
  58              	_ZNK6tflite15MicroOpResolverILj7EE6FindOpENS_15BuiltinOperatorEi:
  59              		.fnstart
  60              	.LFB10355:
  61              		@ args = 0, pretend = 0, frame = 0
  62              		@ frame_needed = 0, uses_anonymous_args = 0
  63 0000 10402DE9 		push	{r4, lr}
  64 0004 0030A0E1 		mov	r3, r0
  65 0008 E4E090E5 		ldr	lr, [r0, #228]
  66 000c 00C0A0E3 		mov	ip, #0
  67              	.L6:
  68 0010 0E005CE1 		cmp	ip, lr
  69 0014 0B00000A 		beq	.L7
  70 0018 184093E5 		ldr	r4, [r3, #24]
  71 001c 010054E1 		cmp	r4, r1
  72 0020 0500001A 		bne	.L5
  73 0024 204093E5 		ldr	r4, [r3, #32]
  74 0028 020054E1 		cmp	r4, r2
  75 002c 0200001A 		bne	.L5
  76 0030 8C0280E0 		add	r0, r0, ip, lsl #5
  77 0034 040080E2 		add	r0, r0, #4
  78 0038 1080BDE8 		pop	{r4, pc}
  79              	.L5:
  80 003c 01C08CE2 		add	ip, ip, #1
  81 0040 203083E2 		add	r3, r3, #32
  82 0044 F1FFFFEA 		b	.L6
  83              	.L7:
  84 0048 0000A0E3 		mov	r0, #0
  85 004c 1080BDE8 		pop	{r4, pc}
  86              		.cantunwind
  87              		.fnend
  89              		.section	.text._ZNK6tflite15MicroOpResolverILj7EE6FindOpEPKci,"axG",%progbits,_ZNK6tflite15MicroOp
  90              		.align	2
  91              		.weak	_ZNK6tflite15MicroOpResolverILj7EE6FindOpEPKci
  92              		.syntax unified
  93              		.arm
  94              		.fpu neon
  96              	_ZNK6tflite15MicroOpResolverILj7EE6FindOpEPKci:
  97              		.fnstart
  98              	.LFB10356:
  99              		@ args = 0, pretend = 0, frame = 0
 100              		@ frame_needed = 0, uses_anonymous_args = 0
 101 0000 F0472DE9 		push	{r4, r5, r6, r7, r8, r9, r10, lr}
 102 0004 0040A0E1 		mov	r4, r0
 103 0008 E47090E5 		ldr	r7, [r0, #228]
 104 000c 0180A0E1 		mov	r8, r1
 105 0010 0290A0E1 		mov	r9, r2
 106 0014 0050A0E1 		mov	r5, r0
 107 0018 0060A0E3 		mov	r6, #0
 108              	.L13:
 109 001c 070056E1 		cmp	r6, r7
 110 0020 1000000A 		beq	.L14
 111 0024 183095E5 		ldr	r3, [r5, #24]
 112 0028 200053E3 		cmp	r3, #32
 113 002c 0A00001A 		bne	.L12
 114 0030 0810A0E1 		mov	r1, r8
 115 0034 1C0095E5 		ldr	r0, [r5, #28]
 116 0038 FEFFFFEB 		bl	strcmp
 117 003c 000050E3 		cmp	r0, #0
 118 0040 0500001A 		bne	.L12
 119 0044 203095E5 		ldr	r3, [r5, #32]
 120 0048 090053E1 		cmp	r3, r9
 121 004c 0200001A 		bne	.L12
 122 0050 860284E0 		add	r0, r4, r6, lsl #5
 123 0054 040080E2 		add	r0, r0, #4
 124 0058 F087BDE8 		pop	{r4, r5, r6, r7, r8, r9, r10, pc}
 125              	.L12:
 126 005c 016086E2 		add	r6, r6, #1
 127 0060 205085E2 		add	r5, r5, #32
 128 0064 ECFFFFEA 		b	.L13
 129              	.L14:
 130 0068 0000A0E3 		mov	r0, #0
 131 006c F087BDE8 		pop	{r4, r5, r6, r7, r8, r9, r10, pc}
 132              		.cantunwind
 133              		.fnend
 135              		.section	.text._ZN6tflite15MicroOpResolverILj7EED0Ev,"axG",%progbits,_ZN6tflite15MicroOpResolverIL
 136              		.align	2
 137              		.weak	_ZN6tflite15MicroOpResolverILj7EED0Ev
 138              		.syntax unified
 139              		.arm
 140              		.fpu neon
 142              	_ZN6tflite15MicroOpResolverILj7EED0Ev:
 143              		.fnstart
 144              	.LFB10342:
 145              		@ args = 0, pretend = 0, frame = 0
 146              		@ frame_needed = 0, uses_anonymous_args = 0
 147 0000 10402DE9 		push	{r4, lr}
 148 0004 E810A0E3 		mov	r1, #232
 149 0008 0040A0E1 		mov	r4, r0
 150 000c FEFFFFEB 		bl	_ZdlPvj
 151 0010 0400A0E1 		mov	r0, r4
 152 0014 1080BDE8 		pop	{r4, pc}
 153              		.cantunwind
 154              		.fnend
 156              		.section	.text._ZN6tflite18MicroErrorReporterD0Ev,"axG",%progbits,_ZN6tflite18MicroErrorReporterD5
 157              		.align	2
 158              		.weak	_ZN6tflite18MicroErrorReporterD0Ev
 159              		.syntax unified
 160              		.arm
 161              		.fpu neon
 163              	_ZN6tflite18MicroErrorReporterD0Ev:
 164              		.fnstart
 165              	.LFB6307:
 166              		@ args = 0, pretend = 0, frame = 0
 167              		@ frame_needed = 0, uses_anonymous_args = 0
 168 0000 10402DE9 		push	{r4, lr}
 169 0004 0410A0E3 		mov	r1, #4
 170 0008 0040A0E1 		mov	r4, r0
 171 000c FEFFFFEB 		bl	_ZdlPvj
 172 0010 0400A0E1 		mov	r0, r4
 173 0014 1080BDE8 		pop	{r4, pc}
 174              		.cantunwind
 175              		.fnend
 177              		.section	.text._Z26tfl_ptquant_dnn_computePrePfS_,"ax",%progbits
 178              		.align	2
 179              		.global	_Z26tfl_ptquant_dnn_computePrePfS_
 180              		.syntax unified
 181              		.arm
 182              		.fpu neon
 184              	_Z26tfl_ptquant_dnn_computePrePfS_:
 185              		.fnstart
 186              	.LFB6678:
 187              		@ args = 0, pretend = 0, frame = 0
 188              		@ frame_needed = 0, uses_anonymous_args = 0
 189 0000 54309FE5 		ldr	r3, .L28
 190 0004 70402DE9 		push	{r4, r5, r6, lr}
 191              		.save {r4, r5, r6, lr}
 192 0008 0150A0E1 		mov	r5, r1
 193 000c 4C409FE5 		ldr	r4, .L28+4
 194 0010 003093E5 		ldr	r3, [r3]
 195 0014 040083E5 		str	r0, [r3, #4]
 196 0018 000094E5 		ldr	r0, [r4]
 197 001c FEFFFFEB 		bl	_ZN6tflite16MicroInterpreter6InvokeEv
 198 0020 000050E3 		cmp	r0, #0
 199 0024 0300000A 		beq	.L21
 200 0028 34309FE5 		ldr	r3, .L28+8
 201 002c 34109FE5 		ldr	r1, .L28+12
 202 0030 000093E5 		ldr	r0, [r3]
 203 0034 FEFFFFEB 		bl	_ZN6tflite13ErrorReporter6ReportEPKcz
 204              	.L21:
 205 0038 0010A0E3 		mov	r1, #0
 206 003c 000094E5 		ldr	r0, [r4]
 207 0040 FEFFFFEB 		bl	_ZN6tflite16MicroInterpreter6outputEj
 208 0044 001050E2 		subs	r1, r0, #0
 209 0048 9C20A0E3 		mov	r2, #156
 210 004c 0500A0E1 		mov	r0, r5
 211 0050 04109115 		ldrne	r1, [r1, #4]
 212 0054 7040BDE8 		pop	{r4, r5, r6, lr}
 213 0058 FEFFFFEA 		b	memcpy
 214              	.L29:
 215              		.align	2
 216              	.L28:
 217 005c 00000000 		.word	.LANCHOR0
 218 0060 00000000 		.word	.LANCHOR1
 219 0064 00000000 		.word	.LANCHOR2
 220 0068 00000000 		.word	.LC0
 221              		.fnend
 223              		.section	.text._ZN6tflite15MicroOpResolverILj7EE10AddBuiltinENS_15BuiltinOperatorEP18TfLiteRegistr
 224              		.align	2
 225              		.weak	_ZN6tflite15MicroOpResolverILj7EE10AddBuiltinENS_15BuiltinOperatorEP18TfLiteRegistrationii
 226              		.syntax unified
 227              		.arm
 228              		.fpu neon
 230              	_ZN6tflite15MicroOpResolverILj7EE10AddBuiltinENS_15BuiltinOperatorEP18TfLiteRegistrationii:
 231              		.fnstart
 232              	.LFB8144:
 233              		@ args = 4, pretend = 0, frame = 0
 234              		@ frame_needed = 0, uses_anonymous_args = 0
 235 0000 F84F2DE9 		push	{r3, r4, r5, r6, r7, r8, r9, r10, fp, lr}
 236              		.save {r3, r4, r5, r6, r7, r8, r9, r10, fp, lr}
 237 0004 0050A0E1 		mov	r5, r0
 238 0008 28A09DE5 		ldr	r10, [sp, #40]
 239 000c 0170A0E1 		mov	r7, r1
 240 0010 0280A0E1 		mov	r8, r2
 241 0014 0340A0E1 		mov	r4, r3
 242 0018 88609FE5 		ldr	r6, .L35
 243 001c 88909FE5 		ldr	r9, .L35+4
 244              	.L33:
 245 0020 0A0054E1 		cmp	r4, r10
 246 0024 F88FBDC8 		popgt	{r3, r4, r5, r6, r7, r8, r9, r10, fp, pc}
 247 0028 E42095E5 		ldr	r2, [r5, #228]
 248 002c 0730A0E3 		mov	r3, #7
 249 0030 000096E5 		ldr	r0, [r6]
 250 0034 060052E3 		cmp	r2, #6
 251 0038 0600009A 		bls	.L32
 252 003c 6C109FE5 		ldr	r1, .L35+8
 253 0040 080090E5 		ldr	r0, [r0, #8]
 254 0044 FEFFFFEB 		bl	fprintf
 255 0048 003096E5 		ldr	r3, [r6]
 256 004c 080093E5 		ldr	r0, [r3, #8]
 257 0050 F84FBDE8 		pop	{r3, r4, r5, r6, r7, r8, r9, r10, fp, lr}
 258 0054 FEFFFFEA 		b	fflush
 259              	.L32:
 260 0058 0910A0E1 		mov	r1, r9
 261 005c 080090E5 		ldr	r0, [r0, #8]
 262 0060 FEFFFFEB 		bl	fprintf
 263 0064 003096E5 		ldr	r3, [r6]
 264 0068 080093E5 		ldr	r0, [r3, #8]
 265 006c FEFFFFEB 		bl	fflush
 266 0070 E4B095E5 		ldr	fp, [r5, #228]
 267 0074 08E0A0E1 		mov	lr, r8
 268 0078 01308BE2 		add	r3, fp, #1
 269 007c E43085E5 		str	r3, [r5, #228]
 270 0080 8BB285E0 		add	fp, r5, fp, lsl #5
 271 0084 0F00BEE8 		ldmia	lr!, {r0, r1, r2, r3}
 272 0088 04C08BE2 		add	ip, fp, #4
 273 008c 0F00ACE8 		stmia	ip!, {r0, r1, r2, r3}
 274 0090 0F009EE8 		ldm	lr, {r0, r1, r2, r3}
 275 0094 0F008CE8 		stm	ip, {r0, r1, r2, r3}
 276 0098 20408BE5 		str	r4, [fp, #32]
 277 009c 014084E2 		add	r4, r4, #1
 278 00a0 18708BE5 		str	r7, [fp, #24]
 279 00a4 DDFFFFEA 		b	.L33
 280              	.L36:
 281              		.align	2
 282              	.L35:
 283 00a8 00000000 		.word	_impure_ptr
 284 00ac 4E000000 		.word	.LC2
 285 00b0 00000000 		.word	.LC1
 286              		.fnend
 288              		.section	.text._Z24tfl_ptquant_dnn_setupPrev,"ax",%progbits
 289              		.align	2
 290              		.global	_Z24tfl_ptquant_dnn_setupPrev
 291              		.syntax unified
 292              		.arm
 293              		.fpu neon
 295              	_Z24tfl_ptquant_dnn_setupPrev:
 296              		.fnstart
 297              	.LFB6665:
 298              		@ args = 0, pretend = 0, frame = 0
 299              		@ frame_needed = 0, uses_anonymous_args = 0
 300 0000 F3412DE9 		push	{r0, r1, r4, r5, r6, r7, r8, lr}
 301              		.save {r4, r5, r6, r7, r8, lr}
 302              		.pad #8
 303 0004 98429FE5 		ldr	r4, .L65
 304 0008 0030D4E5 		ldrb	r3, [r4]	@ zero_extendqisi2
 305 000c 5BF07FF5 		dmb	ish
 306 0010 010013E3 		tst	r3, #1
 307 0014 0900001A 		bne	.L39
 308 0018 0400A0E1 		mov	r0, r4
 309 001c FEFFFFEB 		bl	__cxa_guard_acquire
 310 0020 000050E3 		cmp	r0, #0
 311 0024 0500000A 		beq	.L39
 312 0028 0400A0E1 		mov	r0, r4
 313 002c FEFFFFEB 		bl	__cxa_guard_release
 314 0030 70229FE5 		ldr	r2, .L65+4
 315 0034 70129FE5 		ldr	r1, .L65+8
 316 0038 70029FE5 		ldr	r0, .L65+12
 317 003c FEFFFFEB 		bl	__aeabi_atexit
 318              	.L39:
 319 0040 6C229FE5 		ldr	r2, .L65+16
 320 0044 6C429FE5 		ldr	r4, .L65+20
 321 0048 60029FE5 		ldr	r0, .L65+12
 322 004c 0110D2E5 		ldrb	r1, [r2, #1]	@ zero_extendqisi2
 323 0050 0030D2E5 		ldrb	r3, [r2]	@ zero_extendqisi2
 324 0054 60729FE5 		ldr	r7, .L65+24
 325 0058 000084E5 		str	r0, [r4]
 326 005c 013483E1 		orr	r3, r3, r1, lsl #8
 327 0060 0210D2E5 		ldrb	r1, [r2, #2]	@ zero_extendqisi2
 328 0064 013883E1 		orr	r3, r3, r1, lsl #16
 329 0068 0310D2E5 		ldrb	r1, [r2, #3]	@ zero_extendqisi2
 330 006c 013C83E1 		orr	r3, r3, r1, lsl #24
 331 0070 021083E0 		add	r1, r3, r2
 332 0074 023093E7 		ldr	r3, [r3, r2]
 333 0078 001087E5 		str	r1, [r7]
 334 007c 033041E0 		sub	r3, r1, r3
 335 0080 B020D3E1 		ldrh	r2, [r3]
 336 0084 040052E3 		cmp	r2, #4
 337 0088 0B0000DA 		ble	.L51
 338 008c B420D3E1 		ldrh	r2, [r3, #4]
 339 0090 000052E3 		cmp	r2, #0
 340 0094 0200000A 		beq	.L41
 341 0098 022091E7 		ldr	r2, [r1, r2]
 342 009c 030052E3 		cmp	r2, #3
 343 00a0 0700000A 		beq	.L42
 344              	.L41:
 345 00a4 0330A0E3 		mov	r3, #3
 346 00a8 10129FE5 		ldr	r1, .L65+28
 347 00ac FC019FE5 		ldr	r0, .L65+12
 348 00b0 08D08DE2 		add	sp, sp, #8
 349              		@ sp needed
 350 00b4 F041BDE8 		pop	{r4, r5, r6, r7, r8, lr}
 351              	.LEHB0:
 352 00b8 FEFFFFEA 		b	_ZN6tflite13ErrorReporter6ReportEPKcz
 353              	.L51:
 354 00bc 0020A0E3 		mov	r2, #0
 355 00c0 F7FFFFEA 		b	.L41
 356              	.L42:
 357 00c4 F8819FE5 		ldr	r8, .L65+32
 358 00c8 F8119FE5 		ldr	r1, .L65+36
 359 00cc FEFFFFEB 		bl	_ZN6tflite13ErrorReporter6ReportEPKcz
 360 00d0 0030D8E5 		ldrb	r3, [r8]	@ zero_extendqisi2
 361 00d4 5BF07FF5 		dmb	ish
 362 00d8 EC619FE5 		ldr	r6, .L65+40
 363 00dc 015013E2 		ands	r5, r3, #1
 364 00e0 0C00001A 		bne	.L44
 365 00e4 0800A0E1 		mov	r0, r8
 366 00e8 FEFFFFEB 		bl	__cxa_guard_acquire
 367 00ec 000050E3 		cmp	r0, #0
 368 00f0 0800000A 		beq	.L44
 369 00f4 D4319FE5 		ldr	r3, .L65+44
 370 00f8 0800A0E1 		mov	r0, r8
 371 00fc E45086E5 		str	r5, [r6, #228]
 372 0100 003086E5 		str	r3, [r6]
 373 0104 FEFFFFEB 		bl	__cxa_guard_release
 374 0108 98219FE5 		ldr	r2, .L65+4
 375 010c 0600A0E1 		mov	r0, r6
 376 0110 BC119FE5 		ldr	r1, .L65+48
 377 0114 FEFFFFEB 		bl	__aeabi_atexit
 378              	.L44:
 379 0118 0480A0E3 		mov	r8, #4
 380 011c 0250A0E3 		mov	r5, #2
 381 0120 FEFFFFEB 		bl	_ZN6tflite3ops5micro24Register_FULLY_CONNECTEDEv
 382 0124 0830A0E1 		mov	r3, r8
 383 0128 0020A0E1 		mov	r2, r0
 384 012c 0910A0E3 		mov	r1, #9
 385 0130 94019FE5 		ldr	r0, .L65+40
 386 0134 00808DE5 		str	r8, [sp]
 387 0138 0360A0E3 		mov	r6, #3
 388 013c FEFFFFEB 		bl	_ZN6tflite15MicroOpResolverILj7EE10AddBuiltinENS_15BuiltinOperatorEP18TfLiteRegistrationii
 389 0140 FEFFFFEB 		bl	_ZN6tflite3ops5micro16Register_SOFTMAXEv
 390 0144 0530A0E1 		mov	r3, r5
 391 0148 0020A0E1 		mov	r2, r0
 392 014c 1910A0E3 		mov	r1, #25
 393 0150 74019FE5 		ldr	r0, .L65+40
 394 0154 00508DE5 		str	r5, [sp]
 395 0158 FEFFFFEB 		bl	_ZN6tflite15MicroOpResolverILj7EE10AddBuiltinENS_15BuiltinOperatorEP18TfLiteRegistrationii
 396 015c FEFFFFEB 		bl	_ZN6tflite3ops5micro16Register_CONV_2DEv
 397 0160 0630A0E1 		mov	r3, r6
 398 0164 0020A0E1 		mov	r2, r0
 399 0168 0610A0E1 		mov	r1, r6
 400 016c 58019FE5 		ldr	r0, .L65+40
 401 0170 00608DE5 		str	r6, [sp]
 402 0174 FEFFFFEB 		bl	_ZN6tflite15MicroOpResolverILj7EE10AddBuiltinENS_15BuiltinOperatorEP18TfLiteRegistrationii
 403 0178 FEFFFFEB 		bl	_ZN6tflite3ops5micro26Register_DEPTHWISE_CONV_2DEv
 404 017c 0630A0E1 		mov	r3, r6
 405 0180 0020A0E1 		mov	r2, r0
 406 0184 0810A0E1 		mov	r1, r8
 407 0188 3C019FE5 		ldr	r0, .L65+40
 408 018c 00608DE5 		str	r6, [sp]
 409 0190 FEFFFFEB 		bl	_ZN6tflite15MicroOpResolverILj7EE10AddBuiltinENS_15BuiltinOperatorEP18TfLiteRegistrationii
 410 0194 FEFFFFEB 		bl	_ZN6tflite3ops5micro24Register_AVERAGE_POOL_2DEv
 411 0198 0530A0E1 		mov	r3, r5
 412 019c 0020A0E1 		mov	r2, r0
 413 01a0 0110A0E3 		mov	r1, #1
 414 01a4 20019FE5 		ldr	r0, .L65+40
 415 01a8 00508DE5 		str	r5, [sp]
 416 01ac FEFFFFEB 		bl	_ZN6tflite15MicroOpResolverILj7EE10AddBuiltinENS_15BuiltinOperatorEP18TfLiteRegistrationii
 417 01b0 FEFFFFEB 		bl	_ZN6tflite3ops5micro17Register_QUANTIZEEv
 418 01b4 0130A0E3 		mov	r3, #1
 419 01b8 0020A0E1 		mov	r2, r0
 420 01bc 00308DE5 		str	r3, [sp]
 421 01c0 7210A0E3 		mov	r1, #114
 422 01c4 00019FE5 		ldr	r0, .L65+40
 423 01c8 FEFFFFEB 		bl	_ZN6tflite15MicroOpResolverILj7EE10AddBuiltinENS_15BuiltinOperatorEP18TfLiteRegistrationii
 424 01cc FEFFFFEB 		bl	_ZN6tflite3ops5micro19Register_DEQUANTIZEEv
 425 01d0 0530A0E1 		mov	r3, r5
 426 01d4 0020A0E1 		mov	r2, r0
 427 01d8 00508DE5 		str	r5, [sp]
 428 01dc 0610A0E3 		mov	r1, #6
 429 01e0 E4009FE5 		ldr	r0, .L65+40
 430 01e4 FEFFFFEB 		bl	_ZN6tflite15MicroOpResolverILj7EE10AddBuiltinENS_15BuiltinOperatorEP18TfLiteRegistrationii
 431              	.LEHE0:
 432 01e8 E8009FE5 		ldr	r0, .L65+52
 433 01ec 0030D0E5 		ldrb	r3, [r0]	@ zero_extendqisi2
 434 01f0 5BF07FF5 		dmb	ish
 435 01f4 010013E3 		tst	r3, #1
 436 01f8 0D00001A 		bne	.L47
 437 01fc FEFFFFEB 		bl	__cxa_guard_acquire
 438 0200 000050E3 		cmp	r0, #0
 439 0204 0A00000A 		beq	.L47
 440 0208 003094E5 		ldr	r3, [r4]
 441 020c B8209FE5 		ldr	r2, .L65+40
 442 0210 001097E5 		ldr	r1, [r7]
 443 0214 04308DE5 		str	r3, [sp, #4]
 444 0218 0A3BA0E3 		mov	r3, #10240
 445 021c 00308DE5 		str	r3, [sp]
 446 0220 B4009FE5 		ldr	r0, .L65+56
 447 0224 B4309FE5 		ldr	r3, .L65+60
 448              	.LEHB1:
 449 0228 FEFFFFEB 		bl	_ZN6tflite16MicroInterpreterC1EPKNS_5ModelERKNS_10OpResolverEPhjPNS_13ErrorReporterE
 450              	.LEHE1:
 451 022c A4009FE5 		ldr	r0, .L65+52
 452 0230 FEFFFFEB 		bl	__cxa_guard_release
 453              	.L47:
 454 0234 A0309FE5 		ldr	r3, .L65+56
 455 0238 A4509FE5 		ldr	r5, .L65+64
 456 023c A4109FE5 		ldr	r1, .L65+68
 457 0240 000094E5 		ldr	r0, [r4]
 458 0244 003085E5 		str	r3, [r5]
 459              	.LEHB2:
 460 0248 FEFFFFEB 		bl	_ZN6tflite13ErrorReporter6ReportEPKcz
 461 024c 000095E5 		ldr	r0, [r5]
 462 0250 FEFFFFEB 		bl	_ZN6tflite16MicroInterpreter15AllocateTensorsEv
 463 0254 006050E2 		subs	r6, r0, #0
 464 0258 0400000A 		beq	.L49
 465 025c 88109FE5 		ldr	r1, .L65+72
 466 0260 000094E5 		ldr	r0, [r4]
 467 0264 08D08DE2 		add	sp, sp, #8
 468              		@ sp needed
 469 0268 F041BDE8 		pop	{r4, r5, r6, r7, r8, lr}
 470 026c FEFFFFEA 		b	_ZN6tflite13ErrorReporter6ReportEPKcz
 471              	.L49:
 472 0270 78109FE5 		ldr	r1, .L65+76
 473 0274 000094E5 		ldr	r0, [r4]
 474 0278 FEFFFFEB 		bl	_ZN6tflite13ErrorReporter6ReportEPKcz
 475 027c 0610A0E1 		mov	r1, r6
 476 0280 000095E5 		ldr	r0, [r5]
 477 0284 FEFFFFEB 		bl	_ZN6tflite16MicroInterpreter5inputEj
 478 0288 64309FE5 		ldr	r3, .L65+80
 479 028c 000083E5 		str	r0, [r3]
 480 0290 08D08DE2 		add	sp, sp, #8
 481              		@ sp needed
 482 0294 F081BDE8 		pop	{r4, r5, r6, r7, r8, pc}
 483              	.L53:
 484 0298 38009FE5 		ldr	r0, .L65+52
 485 029c FEFFFFEB 		bl	__cxa_guard_abort
 486 02a0 FEFFFFEB 		bl	__cxa_end_cleanup
 487              	.LEHE2:
 488              	.L66:
 489              		.align	2
 490              	.L65:
 491 02a4 00000000 		.word	.LANCHOR3
 492 02a8 00000000 		.word	__dso_handle
 493 02ac 00000000 		.word	_ZN6tflite18MicroErrorReporterD1Ev
 494 02b0 00000000 		.word	.LANCHOR4
 495 02b4 00000000 		.word	g_number_plate_CNN_quant_data
 496 02b8 00000000 		.word	.LANCHOR2
 497 02bc 00000000 		.word	.LANCHOR5
 498 02c0 00000000 		.word	.LC3
 499 02c4 00000000 		.word	.LANCHOR6
 500 02c8 47000000 		.word	.LC4
 501 02cc 00000000 		.word	.LANCHOR7
 502 02d0 08000000 		.word	_ZTVN6tflite15MicroOpResolverILj7EEE+8
 503 02d4 00000000 		.word	_ZN6tflite15MicroOpResolverILj7EED1Ev
 504 02d8 00000000 		.word	.LANCHOR8
 505 02dc 00000000 		.word	.LANCHOR10
 506 02e0 00000000 		.word	.LANCHOR9
 507 02e4 00000000 		.word	.LANCHOR1
 508 02e8 6D000000 		.word	.LC5
 509 02ec 89000000 		.word	.LC6
 510 02f0 A2000000 		.word	.LC7
 511 02f4 00000000 		.word	.LANCHOR0
 512              		.global	__gxx_personality_v0
 513              		.personality	__gxx_personality_v0
 514              		.handlerdata
 515              	.LLSDA6665:
 516 0008 FF       		.byte	0xff
 517 0009 FF       		.byte	0xff
 518 000a 01       		.byte	0x1
 519 000b 11       		.uleb128 .LLSDACSE6665-.LLSDACSB6665
 520              	.LLSDACSB6665:
 521 000c B801     		.uleb128 .LEHB0-.LFB6665
 522 000e B002     		.uleb128 .LEHE0-.LEHB0
 523 0010 00       		.uleb128 0
 524 0011 00       		.uleb128 0
 525 0012 A804     		.uleb128 .LEHB1-.LFB6665
 526 0014 04       		.uleb128 .LEHE1-.LEHB1
 527 0015 9805     		.uleb128 .L53-.LFB6665
 528 0017 00       		.uleb128 0
 529 0018 C804     		.uleb128 .LEHB2-.LFB6665
 530 001a 5C       		.uleb128 .LEHE2-.LEHB2
 531 001b 00       		.uleb128 0
 532 001c 00       		.uleb128 0
 533              	.LLSDACSE6665:
 534              		.section	.text._Z24tfl_ptquant_dnn_setupPrev
 535              		.fnend
 537              		.weak	_ZTSN6tflite10OpResolverE
 538              		.section	.rodata._ZTSN6tflite10OpResolverE,"aG",%progbits,_ZTSN6tflite10OpResolverE,comdat
 541              	_ZTSN6tflite10OpResolverE:
 542 0000 4E367466 		.ascii	"N6tflite10OpResolverE\000"
 542      6C697465 
 542      31304F70 
 542      5265736F 
 542      6C766572 
 543              		.weak	_ZTIN6tflite10OpResolverE
 544              		.section	.rodata._ZTIN6tflite10OpResolverE,"aG",%progbits,_ZTIN6tflite10OpResolverE,comdat
 545              		.align	2
 548              	_ZTIN6tflite10OpResolverE:
 549 0000 08000000 		.word	_ZTVN10__cxxabiv117__class_type_infoE+8
 550 0004 00000000 		.word	_ZTSN6tflite10OpResolverE
 551              		.weak	_ZTSN6tflite15MicroOpResolverILj7EEE
 552              		.section	.rodata._ZTSN6tflite15MicroOpResolverILj7EEE,"aG",%progbits,_ZTSN6tflite15MicroOpResolver
 555              	_ZTSN6tflite15MicroOpResolverILj7EEE:
 556 0000 4E367466 		.ascii	"N6tflite15MicroOpResolverILj7EEE\000"
 556      6C697465 
 556      31354D69 
 556      63726F4F 
 556      70526573 
 557              		.weak	_ZTIN6tflite15MicroOpResolverILj7EEE
 558              		.section	.rodata._ZTIN6tflite15MicroOpResolverILj7EEE,"aG",%progbits,_ZTIN6tflite15MicroOpResolver
 559              		.align	2
 562              	_ZTIN6tflite15MicroOpResolverILj7EEE:
 563 0000 08000000 		.word	_ZTVN10__cxxabiv120__si_class_type_infoE+8
 564 0004 00000000 		.word	_ZTSN6tflite15MicroOpResolverILj7EEE
 565 0008 00000000 		.word	_ZTIN6tflite10OpResolverE
 566              		.weak	_ZTVN6tflite15MicroOpResolverILj7EEE
 567              		.section	.rodata._ZTVN6tflite15MicroOpResolverILj7EEE,"aG",%progbits,_ZTVN6tflite15MicroOpResolver
 568              		.align	2
 571              	_ZTVN6tflite15MicroOpResolverILj7EEE:
 572 0000 00000000 		.word	0
 573 0004 00000000 		.word	_ZTIN6tflite15MicroOpResolverILj7EEE
 574 0008 00000000 		.word	_ZNK6tflite15MicroOpResolverILj7EE6FindOpENS_15BuiltinOperatorEi
 575 000c 00000000 		.word	_ZNK6tflite15MicroOpResolverILj7EE6FindOpEPKci
 576 0010 00000000 		.word	_ZN6tflite15MicroOpResolverILj7EED1Ev
 577 0014 00000000 		.word	_ZN6tflite15MicroOpResolverILj7EED0Ev
 578              		.weak	_ZN11flatbuffers25flatbuffer_version_stringE
 579              		.section	.bss._ZGVZ24tfl_ptquant_dnn_setupPrevE25micro_op_resolver_ptquant,"aw",%nobits
 580              		.align	2
 581              		.set	.LANCHOR6,. + 0
 584              	_ZGVZ24tfl_ptquant_dnn_setupPrevE25micro_op_resolver_ptquant:
 585 0000 00000000 		.space	4
 586              		.section	.bss._ZGVZ24tfl_ptquant_dnn_setupPrevE26static_interpreter_ptquant,"aw",%nobits
 587              		.align	2
 588              		.set	.LANCHOR8,. + 0
 591              	_ZGVZ24tfl_ptquant_dnn_setupPrevE26static_interpreter_ptquant:
 592 0000 00000000 		.space	4
 593              		.section	.bss._ZGVZ24tfl_ptquant_dnn_setupPrevE28micro_error_reporter_ptquant,"aw",%nobits
 594              		.align	2
 595              		.set	.LANCHOR3,. + 0
 598              	_ZGVZ24tfl_ptquant_dnn_setupPrevE28micro_error_reporter_ptquant:
 599 0000 00000000 		.space	4
 600              		.section	.bss._ZN12_GLOBAL__N_113input_ptquantE,"aw",%nobits
 601              		.align	2
 602              		.set	.LANCHOR0,. + 0
 605              	_ZN12_GLOBAL__N_113input_ptquantE:
 606 0000 00000000 		.space	4
 607              		.section	.bss._ZN12_GLOBAL__N_113model_ptquantE,"aw",%nobits
 608              		.align	2
 609              		.set	.LANCHOR5,. + 0
 612              	_ZN12_GLOBAL__N_113model_ptquantE:
 613 0000 00000000 		.space	4
 614              		.section	.bss._ZN12_GLOBAL__N_119interpreter_ptquantE,"aw",%nobits
 615              		.align	2
 616              		.set	.LANCHOR1,. + 0
 619              	_ZN12_GLOBAL__N_119interpreter_ptquantE:
 620 0000 00000000 		.space	4
 621              		.section	.bss._ZN12_GLOBAL__N_122error_reporter_ptquantE,"aw",%nobits
 622              		.align	2
 623              		.set	.LANCHOR2,. + 0
 626              	_ZN12_GLOBAL__N_122error_reporter_ptquantE:
 627 0000 00000000 		.space	4
 628              		.section	.bss._ZN12_GLOBAL__N_1L20tensor_arena_ptquantE,"aw",%nobits
 629              		.set	.LANCHOR9,. + 0
 632              	_ZN12_GLOBAL__N_1L20tensor_arena_ptquantE:
 633 0000 00000000 		.space	10240
 633      00000000 
 633      00000000 
 633      00000000 
 633      00000000 
 634              		.section	.bss._ZZ24tfl_ptquant_dnn_setupPrevE25micro_op_resolver_ptquant,"aw",%nobits
 635              		.align	2
 636              		.set	.LANCHOR7,. + 0
 639              	_ZZ24tfl_ptquant_dnn_setupPrevE25micro_op_resolver_ptquant:
 640 0000 00000000 		.space	232
 640      00000000 
 640      00000000 
 640      00000000 
 640      00000000 
 641              		.section	.bss._ZZ24tfl_ptquant_dnn_setupPrevE26static_interpreter_ptquant,"aw",%nobits
 642              		.align	2
 643              		.set	.LANCHOR10,. + 0
 646              	_ZZ24tfl_ptquant_dnn_setupPrevE26static_interpreter_ptquant:
 647 0000 00000000 		.space	144
 647      00000000 
 647      00000000 
 647      00000000 
 647      00000000 
 648              		.section	.data._ZN11flatbuffers25flatbuffer_version_stringE,"aw",%progbits
 649              		.align	2
 652              	_ZN11flatbuffers25flatbuffer_version_stringE:
 653 0000 00000000 		.word	.LC8
 654              		.section	.data._ZZ24tfl_ptquant_dnn_setupPrevE28micro_error_reporter_ptquant,"aw",%progbits
 655              		.align	2
 656              		.set	.LANCHOR4,. + 0
 659              	_ZZ24tfl_ptquant_dnn_setupPrevE28micro_error_reporter_ptquant:
 660 0000 08000000 		.word	_ZTVN6tflite18MicroErrorReporterE+8
 661              		.section	.rodata._Z24tfl_ptquant_dnn_setupPrev.str1.1,"aMS",%progbits,1
 662              	.LC3:
 663 0000 4D6F6465 		.ascii	"Model provided is schema version %d not equal to su"
 663      6C207072 
 663      6F766964 
 663      65642069 
 663      73207363 
 664 0033 70706F72 		.ascii	"pported version %d.\000"
 664      74656420 
 664      76657273 
 664      696F6E20 
 664      25642E00 
 665              	.LC4:
 666 0047 7175616E 		.ascii	"quantized model loaded without error.\000"
 666      74697A65 
 666      64206D6F 
 666      64656C20 
 666      6C6F6164 
 667              	.LC5:
 668 006d 20202073 		.ascii	"   start allocating tensors\000"
 668      74617274 
 668      20616C6C 
 668      6F636174 
 668      696E6720 
 669              	.LC6:
 670 0089 416C6C6F 		.ascii	"AllocateTensors() failed\000"
 670      63617465 
 670      54656E73 
 670      6F727328 
 670      29206661 
 671              	.LC7:
 672 00a2 20202074 		.ascii	"   tensors allocated without error\000"
 672      656E736F 
 672      72732061 
 672      6C6C6F63 
 672      61746564 
 673              		.section	.rodata._Z26tfl_ptquant_dnn_computePrePfS_.str1.1,"aMS",%progbits,1
 674              	.LC0:
 675 0000 496E766F 		.ascii	"Invoke failed.\000"
 675      6B652066 
 675      61696C65 
 675      642E00
 676              		.section	.rodata._ZN6tflite15MicroOpResolverILj7EE10AddBuiltinENS_15BuiltinOperatorEP18TfLiteRegis
 677              	.LC1:
 678 0000 4572726F 		.ascii	"Error: MicroOpResolver.AddBuiltin : registrations_l"
 678      723A204D 
 678      6963726F 
 678      4F705265 
 678      736F6C76 
 679 0033 656E5F20 		.ascii	"en_ (%d) >= tOpCount (%d)\012\000"
 679      28256429 
 679      203E3D20 
 679      744F7043 
 679      6F756E74 
 680              	.LC2:
 681 004e 20202020 		.ascii	"        MicroOpResolver.AddBuiltin : registrations_"
 681      20202020 
 681      4D696372 
 681      6F4F7052 
 681      65736F6C 
 682 0081 6C656E5F 		.ascii	"len_ (%d) < tOpCount (%d)\012\000"
 682      20282564 
 682      29203C20 
 682      744F7043 
 682      6F756E74 
 683              		.section	.rodata.str1.1,"aMS",%progbits,1
 684              	.LC8:
 685 0000 466C6174 		.ascii	"FlatBuffers 1.11.0\000"
 685      42756666 
 685      65727320 
 685      312E3131 
 685      2E3000
 686              		.hidden	__dso_handle
 687              		.ident	"GCC: (GNU Tools for ARM Embedded Processors 6-2017-q2-update) 6.3.1 20170620 (release) [AR