   1              		.cpu cortex-a9
   2              		.eabi_attribute 28, 1
   3              		.eabi_attribute 20, 1
   4              		.eabi_attribute 21, 1
   5              		.eabi_attribute 23, 3
   6              		.eabi_attribute 24, 1
   7              		.eabi_attribute 25, 1
   8              		.eabi_attribute 26, 1
   9              		.eabi_attribute 30, 2
  10              		.eabi_attribute 34, 0
  11              		.eabi_attribute 18, 4
  12              		.file	"add.cpp"
  13              		.text
  14              	.Ltext0:
  15              		.cfi_sections	.debug_frame
  16              		.section	.text._ZN6tflite3ops5micro3add4InitEP13TfLiteContextPKcj,"ax",%progbits
  17              		.align	2
  18              		.global	_ZN6tflite3ops5micro3add4InitEP13TfLiteContextPKcj
  19              		.syntax unified
  20              		.arm
  21              		.fpu neon
  23              	_ZN6tflite3ops5micro3add4InitEP13TfLiteContextPKcj:
  24              		.fnstart
  25              	.LFB8968:
  26              		.file 1 "../src/tensorflow_lite/src/tensorflow/lite/micro/kernels/add.cpp"
   1:../src/tensorflow_lite/src/tensorflow/lite/micro/kernels/add.cpp **** /* Copyright 2019 The TensorFlow Authors. All Rights Reserved.
   2:../src/tensorflow_lite/src/tensorflow/lite/micro/kernels/add.cpp **** 
   3:../src/tensorflow_lite/src/tensorflow/lite/micro/kernels/add.cpp **** Licensed under the Apache License, Version 2.0 (the "License");
   4:../src/tensorflow_lite/src/tensorflow/lite/micro/kernels/add.cpp **** you may not use this file except in compliance with the License.
   5:../src/tensorflow_lite/src/tensorflow/lite/micro/kernels/add.cpp **** You may obtain a copy of the License at
   6:../src/tensorflow_lite/src/tensorflow/lite/micro/kernels/add.cpp **** 
   7:../src/tensorflow_lite/src/tensorflow/lite/micro/kernels/add.cpp ****     http://www.apache.org/licenses/LICENSE-2.0
   8:../src/tensorflow_lite/src/tensorflow/lite/micro/kernels/add.cpp **** 
   9:../src/tensorflow_lite/src/tensorflow/lite/micro/kernels/add.cpp **** Unless required by applicable law or agreed to in writing, software
  10:../src/tensorflow_lite/src/tensorflow/lite/micro/kernels/add.cpp **** distributed under the License is distributed on an "AS IS" BASIS,
  11:../src/tensorflow_lite/src/tensorflow/lite/micro/kernels/add.cpp **** WITHOUT WARRANTIES OR CONDITIONS OF ANY KIND, either express or implied.
  12:../src/tensorflow_lite/src/tensorflow/lite/micro/kernels/add.cpp **** See the License for the specific language governing permissions and
  13:../src/tensorflow_lite/src/tensorflow/lite/micro/kernels/add.cpp **** limitations under the License.
  14:../src/tensorflow_lite/src/tensorflow/lite/micro/kernels/add.cpp **** ==============================================================================*/
  15:../src/tensorflow_lite/src/tensorflow/lite/micro/kernels/add.cpp **** 
  16:../src/tensorflow_lite/src/tensorflow/lite/micro/kernels/add.cpp **** #include "tensorflow/lite/kernels/internal/reference/add.h"
  17:../src/tensorflow_lite/src/tensorflow/lite/micro/kernels/add.cpp **** 
  18:../src/tensorflow_lite/src/tensorflow/lite/micro/kernels/add.cpp **** #include "tensorflow/lite/c/builtin_op_data.h"
  19:../src/tensorflow_lite/src/tensorflow/lite/micro/kernels/add.cpp **** #include "tensorflow/lite/c/common.h"
  20:../src/tensorflow_lite/src/tensorflow/lite/micro/kernels/add.cpp **** #include "tensorflow/lite/kernels/internal/quantization_util.h"
  21:../src/tensorflow_lite/src/tensorflow/lite/micro/kernels/add.cpp **** #include "tensorflow/lite/kernels/internal/reference/integer_ops/add.h"
  22:../src/tensorflow_lite/src/tensorflow/lite/micro/kernels/add.cpp **** #include "tensorflow/lite/kernels/internal/reference/process_broadcast_shapes.h"
  23:../src/tensorflow_lite/src/tensorflow/lite/micro/kernels/add.cpp **** #include "tensorflow/lite/kernels/internal/tensor_ctypes.h"
  24:../src/tensorflow_lite/src/tensorflow/lite/micro/kernels/add.cpp **** #include "tensorflow/lite/kernels/kernel_util.h"
  25:../src/tensorflow_lite/src/tensorflow/lite/micro/kernels/add.cpp **** #include "tensorflow/lite/kernels/op_macros.h"
  26:../src/tensorflow_lite/src/tensorflow/lite/micro/kernels/add.cpp **** #include "tensorflow/lite/micro/kernels/kernel_util.h"
  27:../src/tensorflow_lite/src/tensorflow/lite/micro/kernels/add.cpp **** #include "tensorflow/lite/micro/memory_helpers.h"
  28:../src/tensorflow_lite/src/tensorflow/lite/micro/kernels/add.cpp **** 
  29:../src/tensorflow_lite/src/tensorflow/lite/micro/kernels/add.cpp **** namespace tflite {
  30:../src/tensorflow_lite/src/tensorflow/lite/micro/kernels/add.cpp **** namespace ops {
  31:../src/tensorflow_lite/src/tensorflow/lite/micro/kernels/add.cpp **** namespace micro {
  32:../src/tensorflow_lite/src/tensorflow/lite/micro/kernels/add.cpp **** namespace add {
  33:../src/tensorflow_lite/src/tensorflow/lite/micro/kernels/add.cpp **** 
  34:../src/tensorflow_lite/src/tensorflow/lite/micro/kernels/add.cpp **** constexpr int kInputTensor1 = 0;
  35:../src/tensorflow_lite/src/tensorflow/lite/micro/kernels/add.cpp **** constexpr int kInputTensor2 = 1;
  36:../src/tensorflow_lite/src/tensorflow/lite/micro/kernels/add.cpp **** constexpr int kOutputTensor = 0;
  37:../src/tensorflow_lite/src/tensorflow/lite/micro/kernels/add.cpp **** 
  38:../src/tensorflow_lite/src/tensorflow/lite/micro/kernels/add.cpp **** struct OpData {
  39:../src/tensorflow_lite/src/tensorflow/lite/micro/kernels/add.cpp ****   bool requires_broadcast;
  40:../src/tensorflow_lite/src/tensorflow/lite/micro/kernels/add.cpp **** 
  41:../src/tensorflow_lite/src/tensorflow/lite/micro/kernels/add.cpp ****   // These fields are used in both the general 8-bit -> 8bit quantized path,
  42:../src/tensorflow_lite/src/tensorflow/lite/micro/kernels/add.cpp ****   // and the special 16-bit -> 16bit quantized path
  43:../src/tensorflow_lite/src/tensorflow/lite/micro/kernels/add.cpp ****   int input1_shift;
  44:../src/tensorflow_lite/src/tensorflow/lite/micro/kernels/add.cpp ****   int input2_shift;
  45:../src/tensorflow_lite/src/tensorflow/lite/micro/kernels/add.cpp ****   int32_t output_activation_min;
  46:../src/tensorflow_lite/src/tensorflow/lite/micro/kernels/add.cpp ****   int32_t output_activation_max;
  47:../src/tensorflow_lite/src/tensorflow/lite/micro/kernels/add.cpp **** 
  48:../src/tensorflow_lite/src/tensorflow/lite/micro/kernels/add.cpp ****   // These fields are used only in the general 8-bit -> 8bit quantized path
  49:../src/tensorflow_lite/src/tensorflow/lite/micro/kernels/add.cpp ****   int32_t input1_multiplier;
  50:../src/tensorflow_lite/src/tensorflow/lite/micro/kernels/add.cpp ****   int32_t input2_multiplier;
  51:../src/tensorflow_lite/src/tensorflow/lite/micro/kernels/add.cpp ****   int32_t output_multiplier;
  52:../src/tensorflow_lite/src/tensorflow/lite/micro/kernels/add.cpp ****   int output_shift;
  53:../src/tensorflow_lite/src/tensorflow/lite/micro/kernels/add.cpp ****   int left_shift;
  54:../src/tensorflow_lite/src/tensorflow/lite/micro/kernels/add.cpp ****   int32_t input1_offset;
  55:../src/tensorflow_lite/src/tensorflow/lite/micro/kernels/add.cpp ****   int32_t input2_offset;
  56:../src/tensorflow_lite/src/tensorflow/lite/micro/kernels/add.cpp ****   int32_t output_offset;
  57:../src/tensorflow_lite/src/tensorflow/lite/micro/kernels/add.cpp **** 
  58:../src/tensorflow_lite/src/tensorflow/lite/micro/kernels/add.cpp ****   // Used only for float evals:
  59:../src/tensorflow_lite/src/tensorflow/lite/micro/kernels/add.cpp ****   float output_activation_min_f32;
  60:../src/tensorflow_lite/src/tensorflow/lite/micro/kernels/add.cpp ****   float output_activation_max_f32;
  61:../src/tensorflow_lite/src/tensorflow/lite/micro/kernels/add.cpp **** };
  62:../src/tensorflow_lite/src/tensorflow/lite/micro/kernels/add.cpp **** 
  63:../src/tensorflow_lite/src/tensorflow/lite/micro/kernels/add.cpp **** TfLiteStatus CalculateOpData(TfLiteContext* context, TfLiteAddParams* params,
  64:../src/tensorflow_lite/src/tensorflow/lite/micro/kernels/add.cpp ****                              const TfLiteTensor* input1,
  65:../src/tensorflow_lite/src/tensorflow/lite/micro/kernels/add.cpp ****                              const TfLiteTensor* input2, TfLiteTensor* output,
  66:../src/tensorflow_lite/src/tensorflow/lite/micro/kernels/add.cpp ****                              OpData* data) {
  67:../src/tensorflow_lite/src/tensorflow/lite/micro/kernels/add.cpp ****   data->requires_broadcast = !HaveSameShapes(input1, input2);
  68:../src/tensorflow_lite/src/tensorflow/lite/micro/kernels/add.cpp **** 
  69:../src/tensorflow_lite/src/tensorflow/lite/micro/kernels/add.cpp ****   if (output->type == kTfLiteInt8) {
  70:../src/tensorflow_lite/src/tensorflow/lite/micro/kernels/add.cpp ****     // 8bit -> 8bit general quantized path, with general rescalings
  71:../src/tensorflow_lite/src/tensorflow/lite/micro/kernels/add.cpp ****     data->input1_offset = -input1->params.zero_point;
  72:../src/tensorflow_lite/src/tensorflow/lite/micro/kernels/add.cpp ****     data->input2_offset = -input2->params.zero_point;
  73:../src/tensorflow_lite/src/tensorflow/lite/micro/kernels/add.cpp ****     data->output_offset = output->params.zero_point;
  74:../src/tensorflow_lite/src/tensorflow/lite/micro/kernels/add.cpp ****     data->left_shift = 20;
  75:../src/tensorflow_lite/src/tensorflow/lite/micro/kernels/add.cpp ****     const double twice_max_input_scale =
  76:../src/tensorflow_lite/src/tensorflow/lite/micro/kernels/add.cpp ****         2 * static_cast<double>(
  77:../src/tensorflow_lite/src/tensorflow/lite/micro/kernels/add.cpp ****                 std::max(input1->params.scale, input2->params.scale));
  78:../src/tensorflow_lite/src/tensorflow/lite/micro/kernels/add.cpp ****     const double real_input1_multiplier =
  79:../src/tensorflow_lite/src/tensorflow/lite/micro/kernels/add.cpp ****         static_cast<double>(input1->params.scale) / twice_max_input_scale;
  80:../src/tensorflow_lite/src/tensorflow/lite/micro/kernels/add.cpp ****     const double real_input2_multiplier =
  81:../src/tensorflow_lite/src/tensorflow/lite/micro/kernels/add.cpp ****         static_cast<double>(input2->params.scale) / twice_max_input_scale;
  82:../src/tensorflow_lite/src/tensorflow/lite/micro/kernels/add.cpp ****     const double real_output_multiplier =
  83:../src/tensorflow_lite/src/tensorflow/lite/micro/kernels/add.cpp ****         twice_max_input_scale /
  84:../src/tensorflow_lite/src/tensorflow/lite/micro/kernels/add.cpp ****         ((1 << data->left_shift) * static_cast<double>(output->params.scale));
  85:../src/tensorflow_lite/src/tensorflow/lite/micro/kernels/add.cpp **** 
  86:../src/tensorflow_lite/src/tensorflow/lite/micro/kernels/add.cpp ****     QuantizeMultiplierSmallerThanOneExp(
  87:../src/tensorflow_lite/src/tensorflow/lite/micro/kernels/add.cpp ****         real_input1_multiplier, &data->input1_multiplier, &data->input1_shift);
  88:../src/tensorflow_lite/src/tensorflow/lite/micro/kernels/add.cpp **** 
  89:../src/tensorflow_lite/src/tensorflow/lite/micro/kernels/add.cpp ****     QuantizeMultiplierSmallerThanOneExp(
  90:../src/tensorflow_lite/src/tensorflow/lite/micro/kernels/add.cpp ****         real_input2_multiplier, &data->input2_multiplier, &data->input2_shift);
  91:../src/tensorflow_lite/src/tensorflow/lite/micro/kernels/add.cpp **** 
  92:../src/tensorflow_lite/src/tensorflow/lite/micro/kernels/add.cpp ****     QuantizeMultiplierSmallerThanOneExp(
  93:../src/tensorflow_lite/src/tensorflow/lite/micro/kernels/add.cpp ****         real_output_multiplier, &data->output_multiplier, &data->output_shift);
  94:../src/tensorflow_lite/src/tensorflow/lite/micro/kernels/add.cpp **** 
  95:../src/tensorflow_lite/src/tensorflow/lite/micro/kernels/add.cpp ****     TF_LITE_ENSURE_STATUS(CalculateActivationRangeQuantized(
  96:../src/tensorflow_lite/src/tensorflow/lite/micro/kernels/add.cpp ****         context, params->activation, output, &data->output_activation_min,
  97:../src/tensorflow_lite/src/tensorflow/lite/micro/kernels/add.cpp ****         &data->output_activation_max));
  98:../src/tensorflow_lite/src/tensorflow/lite/micro/kernels/add.cpp ****   } else if (output->type == kTfLiteFloat32) {
  99:../src/tensorflow_lite/src/tensorflow/lite/micro/kernels/add.cpp ****     CalculateActivationRange(params->activation,
 100:../src/tensorflow_lite/src/tensorflow/lite/micro/kernels/add.cpp ****                              &data->output_activation_min_f32,
 101:../src/tensorflow_lite/src/tensorflow/lite/micro/kernels/add.cpp ****                              &data->output_activation_max_f32);
 102:../src/tensorflow_lite/src/tensorflow/lite/micro/kernels/add.cpp ****   }
 103:../src/tensorflow_lite/src/tensorflow/lite/micro/kernels/add.cpp **** 
 104:../src/tensorflow_lite/src/tensorflow/lite/micro/kernels/add.cpp ****   return kTfLiteOk;
 105:../src/tensorflow_lite/src/tensorflow/lite/micro/kernels/add.cpp **** }
 106:../src/tensorflow_lite/src/tensorflow/lite/micro/kernels/add.cpp **** 
 107:../src/tensorflow_lite/src/tensorflow/lite/micro/kernels/add.cpp **** void EvalAdd(TfLiteContext* context, TfLiteNode* node, TfLiteAddParams* params,
 108:../src/tensorflow_lite/src/tensorflow/lite/micro/kernels/add.cpp ****              const OpData* data, const TfLiteEvalTensor* input1,
 109:../src/tensorflow_lite/src/tensorflow/lite/micro/kernels/add.cpp ****              const TfLiteEvalTensor* input2, TfLiteEvalTensor* output) {
 110:../src/tensorflow_lite/src/tensorflow/lite/micro/kernels/add.cpp ****   tflite::ArithmeticParams op_params;
 111:../src/tensorflow_lite/src/tensorflow/lite/micro/kernels/add.cpp ****   SetActivationParams(data->output_activation_min_f32,
 112:../src/tensorflow_lite/src/tensorflow/lite/micro/kernels/add.cpp ****                       data->output_activation_max_f32, &op_params);
 113:../src/tensorflow_lite/src/tensorflow/lite/micro/kernels/add.cpp ****   if (data->requires_broadcast) {
 114:../src/tensorflow_lite/src/tensorflow/lite/micro/kernels/add.cpp ****     reference_ops::BroadcastAdd4DSlow(
 115:../src/tensorflow_lite/src/tensorflow/lite/micro/kernels/add.cpp ****         op_params, tflite::micro::GetTensorShape(input1),
 116:../src/tensorflow_lite/src/tensorflow/lite/micro/kernels/add.cpp ****         tflite::micro::GetTensorData<float>(input1),
 117:../src/tensorflow_lite/src/tensorflow/lite/micro/kernels/add.cpp ****         tflite::micro::GetTensorShape(input2),
 118:../src/tensorflow_lite/src/tensorflow/lite/micro/kernels/add.cpp ****         tflite::micro::GetTensorData<float>(input2),
 119:../src/tensorflow_lite/src/tensorflow/lite/micro/kernels/add.cpp ****         tflite::micro::GetTensorShape(output),
 120:../src/tensorflow_lite/src/tensorflow/lite/micro/kernels/add.cpp ****         tflite::micro::GetTensorData<float>(output));
 121:../src/tensorflow_lite/src/tensorflow/lite/micro/kernels/add.cpp ****   } else {
 122:../src/tensorflow_lite/src/tensorflow/lite/micro/kernels/add.cpp ****     reference_ops::Add(op_params, tflite::micro::GetTensorShape(input1),
 123:../src/tensorflow_lite/src/tensorflow/lite/micro/kernels/add.cpp ****                        tflite::micro::GetTensorData<float>(input1),
 124:../src/tensorflow_lite/src/tensorflow/lite/micro/kernels/add.cpp ****                        tflite::micro::GetTensorShape(input2),
 125:../src/tensorflow_lite/src/tensorflow/lite/micro/kernels/add.cpp ****                        tflite::micro::GetTensorData<float>(input2),
 126:../src/tensorflow_lite/src/tensorflow/lite/micro/kernels/add.cpp ****                        tflite::micro::GetTensorShape(output),
 127:../src/tensorflow_lite/src/tensorflow/lite/micro/kernels/add.cpp ****                        tflite::micro::GetTensorData<float>(output));
 128:../src/tensorflow_lite/src/tensorflow/lite/micro/kernels/add.cpp ****   }
 129:../src/tensorflow_lite/src/tensorflow/lite/micro/kernels/add.cpp **** }
 130:../src/tensorflow_lite/src/tensorflow/lite/micro/kernels/add.cpp **** 
 131:../src/tensorflow_lite/src/tensorflow/lite/micro/kernels/add.cpp **** TfLiteStatus EvalAddQuantized(TfLiteContext* context, TfLiteNode* node,
 132:../src/tensorflow_lite/src/tensorflow/lite/micro/kernels/add.cpp ****                               TfLiteAddParams* params, const OpData* data,
 133:../src/tensorflow_lite/src/tensorflow/lite/micro/kernels/add.cpp ****                               const TfLiteEvalTensor* input1,
 134:../src/tensorflow_lite/src/tensorflow/lite/micro/kernels/add.cpp ****                               const TfLiteEvalTensor* input2,
 135:../src/tensorflow_lite/src/tensorflow/lite/micro/kernels/add.cpp ****                               TfLiteEvalTensor* output) {
 136:../src/tensorflow_lite/src/tensorflow/lite/micro/kernels/add.cpp ****   tflite::ArithmeticParams op_params;
 137:../src/tensorflow_lite/src/tensorflow/lite/micro/kernels/add.cpp ****   op_params.left_shift = data->left_shift;
 138:../src/tensorflow_lite/src/tensorflow/lite/micro/kernels/add.cpp ****   op_params.input1_offset = data->input1_offset;
 139:../src/tensorflow_lite/src/tensorflow/lite/micro/kernels/add.cpp ****   op_params.input1_multiplier = data->input1_multiplier;
 140:../src/tensorflow_lite/src/tensorflow/lite/micro/kernels/add.cpp ****   op_params.input1_shift = data->input1_shift;
 141:../src/tensorflow_lite/src/tensorflow/lite/micro/kernels/add.cpp ****   op_params.input2_offset = data->input2_offset;
 142:../src/tensorflow_lite/src/tensorflow/lite/micro/kernels/add.cpp ****   op_params.input2_multiplier = data->input2_multiplier;
 143:../src/tensorflow_lite/src/tensorflow/lite/micro/kernels/add.cpp ****   op_params.input2_shift = data->input2_shift;
 144:../src/tensorflow_lite/src/tensorflow/lite/micro/kernels/add.cpp ****   op_params.output_offset = data->output_offset;
 145:../src/tensorflow_lite/src/tensorflow/lite/micro/kernels/add.cpp ****   op_params.output_multiplier = data->output_multiplier;
 146:../src/tensorflow_lite/src/tensorflow/lite/micro/kernels/add.cpp ****   op_params.output_shift = data->output_shift;
 147:../src/tensorflow_lite/src/tensorflow/lite/micro/kernels/add.cpp ****   SetActivationParams(data->output_activation_min, data->output_activation_max,
 148:../src/tensorflow_lite/src/tensorflow/lite/micro/kernels/add.cpp ****                       &op_params);
 149:../src/tensorflow_lite/src/tensorflow/lite/micro/kernels/add.cpp ****   bool need_broadcast = reference_ops::ProcessBroadcastShapes(
 150:../src/tensorflow_lite/src/tensorflow/lite/micro/kernels/add.cpp ****       tflite::micro::GetTensorShape(input1),
 151:../src/tensorflow_lite/src/tensorflow/lite/micro/kernels/add.cpp ****       tflite::micro::GetTensorShape(input2), &op_params);
 152:../src/tensorflow_lite/src/tensorflow/lite/micro/kernels/add.cpp **** 
 153:../src/tensorflow_lite/src/tensorflow/lite/micro/kernels/add.cpp ****   if (need_broadcast) {
 154:../src/tensorflow_lite/src/tensorflow/lite/micro/kernels/add.cpp ****     reference_integer_ops::BroadcastAdd4DSlow(
 155:../src/tensorflow_lite/src/tensorflow/lite/micro/kernels/add.cpp ****         op_params, tflite::micro::GetTensorShape(input1),
 156:../src/tensorflow_lite/src/tensorflow/lite/micro/kernels/add.cpp ****         tflite::micro::GetTensorData<int8_t>(input1),
 157:../src/tensorflow_lite/src/tensorflow/lite/micro/kernels/add.cpp ****         tflite::micro::GetTensorShape(input2),
 158:../src/tensorflow_lite/src/tensorflow/lite/micro/kernels/add.cpp ****         tflite::micro::GetTensorData<int8_t>(input2),
 159:../src/tensorflow_lite/src/tensorflow/lite/micro/kernels/add.cpp ****         tflite::micro::GetTensorShape(output),
 160:../src/tensorflow_lite/src/tensorflow/lite/micro/kernels/add.cpp ****         tflite::micro::GetTensorData<int8_t>(output));
 161:../src/tensorflow_lite/src/tensorflow/lite/micro/kernels/add.cpp ****   } else {
 162:../src/tensorflow_lite/src/tensorflow/lite/micro/kernels/add.cpp ****     reference_integer_ops::Add(op_params, tflite::micro::GetTensorShape(input1),
 163:../src/tensorflow_lite/src/tensorflow/lite/micro/kernels/add.cpp ****                                tflite::micro::GetTensorData<int8_t>(input1),
 164:../src/tensorflow_lite/src/tensorflow/lite/micro/kernels/add.cpp ****                                tflite::micro::GetTensorShape(input2),
 165:../src/tensorflow_lite/src/tensorflow/lite/micro/kernels/add.cpp ****                                tflite::micro::GetTensorData<int8_t>(input2),
 166:../src/tensorflow_lite/src/tensorflow/lite/micro/kernels/add.cpp ****                                tflite::micro::GetTensorShape(output),
 167:../src/tensorflow_lite/src/tensorflow/lite/micro/kernels/add.cpp ****                                tflite::micro::GetTensorData<int8_t>(output));
 168:../src/tensorflow_lite/src/tensorflow/lite/micro/kernels/add.cpp ****   }
 169:../src/tensorflow_lite/src/tensorflow/lite/micro/kernels/add.cpp **** 
 170:../src/tensorflow_lite/src/tensorflow/lite/micro/kernels/add.cpp ****   return kTfLiteOk;
 171:../src/tensorflow_lite/src/tensorflow/lite/micro/kernels/add.cpp **** }
 172:../src/tensorflow_lite/src/tensorflow/lite/micro/kernels/add.cpp **** 
 173:../src/tensorflow_lite/src/tensorflow/lite/micro/kernels/add.cpp **** void* Init(TfLiteContext* context, const char* buffer, size_t length) {
  27              		.loc 1 173 0
  28              		.cfi_startproc
  29              		@ args = 0, pretend = 0, frame = 0
  30              		@ frame_needed = 0, uses_anonymous_args = 0
  31              	.LVL0:
 174:../src/tensorflow_lite/src/tensorflow/lite/micro/kernels/add.cpp ****   TFLITE_DCHECK(context->AllocatePersistentBuffer != nullptr);
  32              		.loc 1 174 0
  33 0000 383090E5 		ldr	r3, [r0, #56]
  34 0004 000053E3 		cmp	r3, #0
  35 0008 0100000A 		beq	.L7
 175:../src/tensorflow_lite/src/tensorflow/lite/micro/kernels/add.cpp ****   return context->AllocatePersistentBuffer(context, sizeof(OpData));
  36              		.loc 1 175 0
  37 000c 3C10A0E3 		mov	r1, #60
  38              	.LVL1:
  39 0010 13FF2FE1 		bx	r3
  40              	.LVL2:
  41              	.L7:
 173:../src/tensorflow_lite/src/tensorflow/lite/micro/kernels/add.cpp ****   TFLITE_DCHECK(context->AllocatePersistentBuffer != nullptr);
  42              		.loc 1 173 0 discriminator 1
  43 0014 10402DE9 		push	{r4, lr}
  44              		.save {r4, lr}
  45              		.cfi_def_cfa_offset 8
  46              		.cfi_offset 4, -8
  47              		.cfi_offset 14, -4
 174:../src/tensorflow_lite/src/tensorflow/lite/micro/kernels/add.cpp ****   TFLITE_DCHECK(context->AllocatePersistentBuffer != nullptr);
  48              		.loc 1 174 0 discriminator 1
  49 0018 FEFFFFEB 		bl	abort
  50              	.LVL3:
  51              		.cfi_endproc
  52              	.LFE8968:
  53              		.fnend
  55              		.section	.text._ZN6tflite3ops5micro3add7PrepareEP13TfLiteContextP10TfLiteNode,"ax",%progbits
  56              		.align	2
  57              		.global	_ZN6tflite3ops5micro3add7PrepareEP13TfLiteContextP10TfLiteNode
  58              		.syntax unified
  59              		.arm
  60              		.fpu neon
  62              	_ZN6tflite3ops5micro3add7PrepareEP13TfLiteContextP10TfLiteNode:
  63              		.fnstart
  64              	.LFB8969:
 176:../src/tensorflow_lite/src/tensorflow/lite/micro/kernels/add.cpp **** }
 177:../src/tensorflow_lite/src/tensorflow/lite/micro/kernels/add.cpp **** 
 178:../src/tensorflow_lite/src/tensorflow/lite/micro/kernels/add.cpp **** TfLiteStatus Prepare(TfLiteContext* context, TfLiteNode* node) {
  65              		.loc 1 178 0
  66              		.cfi_startproc
  67              		@ args = 0, pretend = 0, frame = 0
  68              		@ frame_needed = 0, uses_anonymous_args = 0
  69              	.LVL4:
 179:../src/tensorflow_lite/src/tensorflow/lite/micro/kernels/add.cpp ****   TFLITE_DCHECK(node->user_data != nullptr);
  70              		.loc 1 179 0
  71 0000 103091E5 		ldr	r3, [r1, #16]
 178:../src/tensorflow_lite/src/tensorflow/lite/micro/kernels/add.cpp ****   TFLITE_DCHECK(node->user_data != nullptr);
  72              		.loc 1 178 0
  73 0004 F0432DE9 		push	{r4, r5, r6, r7, r8, r9, lr}
  74              		.save {r4, r5, r6, r7, r8, r9, lr}
  75              		.cfi_def_cfa_offset 28
  76              		.cfi_offset 4, -28
  77              		.cfi_offset 5, -24
  78              		.cfi_offset 6, -20
  79              		.cfi_offset 7, -16
  80              		.cfi_offset 8, -12
  81              		.cfi_offset 9, -8
  82              		.cfi_offset 14, -4
  83 0008 048B2DED 		vpush.64	{d8, d9}
  84              		.vsave {d8, d9}
  85              		.cfi_def_cfa_offset 44
  86              		.cfi_offset 80, -44
  87              		.cfi_offset 81, -40
  88              		.cfi_offset 82, -36
  89              		.cfi_offset 83, -32
  90              		.pad #12
  91 000c 0CD04DE2 		sub	sp, sp, #12
  92              		.cfi_def_cfa_offset 56
  93              		.loc 1 179 0
  94 0010 000053E3 		cmp	r3, #0
  95 0014 9B00000A 		beq	.L10
 180:../src/tensorflow_lite/src/tensorflow/lite/micro/kernels/add.cpp ****   TFLITE_DCHECK(node->builtin_data != nullptr);
  96              		.loc 1 180 0
  97 0018 143091E5 		ldr	r3, [r1, #20]
  98 001c 0140A0E1 		mov	r4, r1
  99 0020 000053E3 		cmp	r3, #0
 100 0024 9700000A 		beq	.L10
 181:../src/tensorflow_lite/src/tensorflow/lite/micro/kernels/add.cpp **** 
 182:../src/tensorflow_lite/src/tensorflow/lite/micro/kernels/add.cpp ****   const TfLiteTensor* input1 = GetInput(context, node, kInputTensor1);
 101              		.loc 1 182 0
 102 0028 0020A0E3 		mov	r2, #0
 103 002c 0060A0E1 		mov	r6, r0
 104 0030 FEFFFFEB 		bl	_ZN6tflite8GetInputEPK13TfLiteContextPK10TfLiteNodei
 105              	.LVL5:
 183:../src/tensorflow_lite/src/tensorflow/lite/micro/kernels/add.cpp ****   TF_LITE_ENSURE(context, input1 != nullptr);
 106              		.loc 1 183 0
 107 0034 008050E2 		subs	r8, r0, #0
 108 0038 5B00000A 		beq	.L29
 184:../src/tensorflow_lite/src/tensorflow/lite/micro/kernels/add.cpp ****   const TfLiteTensor* input2 = GetInput(context, node, kInputTensor2);
 109              		.loc 1 184 0
 110 003c 0120A0E3 		mov	r2, #1
 111 0040 0410A0E1 		mov	r1, r4
 112 0044 0600A0E1 		mov	r0, r6
 113              	.LVL6:
 114 0048 FEFFFFEB 		bl	_ZN6tflite8GetInputEPK13TfLiteContextPK10TfLiteNodei
 115              	.LVL7:
 185:../src/tensorflow_lite/src/tensorflow/lite/micro/kernels/add.cpp ****   TF_LITE_ENSURE(context, input2 != nullptr);
 116              		.loc 1 185 0
 117 004c 009050E2 		subs	r9, r0, #0
 118 0050 6400000A 		beq	.L30
 186:../src/tensorflow_lite/src/tensorflow/lite/micro/kernels/add.cpp ****   TfLiteTensor* output = GetOutput(context, node, kOutputTensor);
 119              		.loc 1 186 0
 120 0054 0020A0E3 		mov	r2, #0
 121 0058 0410A0E1 		mov	r1, r4
 122 005c 0600A0E1 		mov	r0, r6
 123              	.LVL8:
 124 0060 FEFFFFEB 		bl	_ZN6tflite9GetOutputEP13TfLiteContextPK10TfLiteNodei
 125              	.LVL9:
 187:../src/tensorflow_lite/src/tensorflow/lite/micro/kernels/add.cpp ****   TF_LITE_ENSURE(context, output != nullptr);
 126              		.loc 1 187 0
 127 0064 007050E2 		subs	r7, r0, #0
 128 0068 6B00000A 		beq	.L31
 129              	.LBB347:
 130              	.LBB348:
 131              	.LBB349:
  67:../src/tensorflow_lite/src/tensorflow/lite/micro/kernels/add.cpp **** 
 132              		.loc 1 67 0
 133 006c 0910A0E1 		mov	r1, r9
 134 0070 0800A0E1 		mov	r0, r8
 135              	.LVL10:
 136              	.LBE349:
 137              	.LBE348:
 138              	.LBE347:
 188:../src/tensorflow_lite/src/tensorflow/lite/micro/kernels/add.cpp **** 
 189:../src/tensorflow_lite/src/tensorflow/lite/micro/kernels/add.cpp ****   OpData* data = static_cast<OpData*>(node->user_data);
 139              		.loc 1 189 0
 140 0074 105094E5 		ldr	r5, [r4, #16]
 141              	.LVL11:
 190:../src/tensorflow_lite/src/tensorflow/lite/micro/kernels/add.cpp ****   auto* params = reinterpret_cast<TfLiteAddParams*>(node->builtin_data);
 142              		.loc 1 190 0
 143 0078 144094E5 		ldr	r4, [r4, #20]
 144              	.LVL12:
 145              	.LBB391:
 146              	.LBB383:
 147              	.LBB375:
  67:../src/tensorflow_lite/src/tensorflow/lite/micro/kernels/add.cpp **** 
 148              		.loc 1 67 0
 149 007c FEFFFFEB 		bl	_ZN6tflite14HaveSameShapesEPK12TfLiteTensorS2_
 150              	.LVL13:
 151              	.LBB350:
  69:../src/tensorflow_lite/src/tensorflow/lite/micro/kernels/add.cpp ****     // 8bit -> 8bit general quantized path, with general rescalings
 152              		.loc 1 69 0
 153 0080 0030D7E5 		ldrb	r3, [r7]	@ zero_extendqisi2
 154              	.LBE350:
  67:../src/tensorflow_lite/src/tensorflow/lite/micro/kernels/add.cpp **** 
 155              		.loc 1 67 0
 156 0084 010020E2 		eor	r0, r0, #1
 157 0088 0000C5E5 		strb	r0, [r5]
 158              	.LBB361:
  69:../src/tensorflow_lite/src/tensorflow/lite/micro/kernels/add.cpp ****     // 8bit -> 8bit general quantized path, with general rescalings
 159              		.loc 1 69 0
 160 008c 090053E3 		cmp	r3, #9
 161 0090 0500000A 		beq	.L32
  98:../src/tensorflow_lite/src/tensorflow/lite/micro/kernels/add.cpp ****     CalculateActivationRange(params->activation,
 162              		.loc 1 98 0
 163 0094 010053E3 		cmp	r3, #1
 164              	.LBE361:
 165              	.LBE375:
 166              	.LBE383:
 167              	.LBE391:
 191:../src/tensorflow_lite/src/tensorflow/lite/micro/kernels/add.cpp **** 
 192:../src/tensorflow_lite/src/tensorflow/lite/micro/kernels/add.cpp ****   TF_LITE_ENSURE_STATUS(
 193:../src/tensorflow_lite/src/tensorflow/lite/micro/kernels/add.cpp ****       CalculateOpData(context, params, input1, input2, output, data));
 194:../src/tensorflow_lite/src/tensorflow/lite/micro/kernels/add.cpp **** 
 195:../src/tensorflow_lite/src/tensorflow/lite/micro/kernels/add.cpp ****   return kTfLiteOk;
 168              		.loc 1 195 0
 169 0098 0000A013 		movne	r0, #0
 170              	.LBB392:
 171              	.LBB384:
 172              	.LBB376:
 173              	.LBB362:
  98:../src/tensorflow_lite/src/tensorflow/lite/micro/kernels/add.cpp ****     CalculateActivationRange(params->activation,
 174              		.loc 1 98 0
 175 009c 3100000A 		beq	.L33
 176              	.LVL14:
 177              	.L12:
 178              	.LBE362:
 179              	.LBE376:
 180              	.LBE384:
 181              	.LBE392:
 196:../src/tensorflow_lite/src/tensorflow/lite/micro/kernels/add.cpp **** }
 182              		.loc 1 196 0
 183 00a0 0CD08DE2 		add	sp, sp, #12
 184              		.cfi_remember_state
 185              		.cfi_def_cfa_offset 44
 186              		@ sp needed
 187 00a4 048BBDEC 		vldm	sp!, {d8-d9}
 188              		.cfi_restore 82
 189              		.cfi_restore 83
 190              		.cfi_restore 80
 191              		.cfi_restore 81
 192              		.cfi_def_cfa_offset 28
 193 00a8 F083BDE8 		pop	{r4, r5, r6, r7, r8, r9, pc}
 194              	.LVL15:
 195              	.L32:
 196              		.cfi_restore_state
 197              	.LBB393:
 198              	.LBB385:
 199              	.LBB377:
 200              	.LBB363:
 201              	.LBB364:
 202              	.LBB365:
 203              	.LBB366:
 204              		.file 2 "c:\\program files (x86)\\gnu tools arm embedded\\6 2017-q2-update\\arm-none-eabi\\include
   1:c:\program files (x86)\gnu tools arm embedded\6 2017-q2-update\arm-none-eabi\include\c++\6.3.1\bits\stl_algobase.h **** // Core algorithmic facilities -*- C++ -*-
   2:c:\program files (x86)\gnu tools arm embedded\6 2017-q2-update\arm-none-eabi\include\c++\6.3.1\bits\stl_algobase.h **** 
   3:c:\program files (x86)\gnu tools arm embedded\6 2017-q2-update\arm-none-eabi\include\c++\6.3.1\bits\stl_algobase.h **** // Copyright (C) 2001-2016 Free Software Foundation, Inc.
   4:c:\program files (x86)\gnu tools arm embedded\6 2017-q2-update\arm-none-eabi\include\c++\6.3.1\bits\stl_algobase.h **** //
   5:c:\program files (x86)\gnu tools arm embedded\6 2017-q2-update\arm-none-eabi\include\c++\6.3.1\bits\stl_algobase.h **** // This file is part of the GNU ISO C++ Library.  This library is free
   6:c:\program files (x86)\gnu tools arm embedded\6 2017-q2-update\arm-none-eabi\include\c++\6.3.1\bits\stl_algobase.h **** // software; you can redistribute it and/or modify it under the
   7:c:\program files (x86)\gnu tools arm embedded\6 2017-q2-update\arm-none-eabi\include\c++\6.3.1\bits\stl_algobase.h **** // terms of the GNU General Public License as published by the
   8:c:\program files (x86)\gnu tools arm embedded\6 2017-q2-update\arm-none-eabi\include\c++\6.3.1\bits\stl_algobase.h **** // Free Software Foundation; either version 3, or (at your option)
   9:c:\program files (x86)\gnu tools arm embedded\6 2017-q2-update\arm-none-eabi\include\c++\6.3.1\bits\stl_algobase.h **** // any later version.
  10:c:\program files (x86)\gnu tools arm embedded\6 2017-q2-update\arm-none-eabi\include\c++\6.3.1\bits\stl_algobase.h **** 
  11:c:\program files (x86)\gnu tools arm embedded\6 2017-q2-update\arm-none-eabi\include\c++\6.3.1\bits\stl_algobase.h **** // This library is distributed in the hope that it will be useful,
  12:c:\program files (x86)\gnu tools arm embedded\6 2017-q2-update\arm-none-eabi\include\c++\6.3.1\bits\stl_algobase.h **** // but WITHOUT ANY WARRANTY; without even the implied warranty of
  13:c:\program files (x86)\gnu tools arm embedded\6 2017-q2-update\arm-none-eabi\include\c++\6.3.1\bits\stl_algobase.h **** // MERCHANTABILITY or FITNESS FOR A PARTICULAR PURPOSE.  See the
  14:c:\program files (x86)\gnu tools arm embedded\6 2017-q2-update\arm-none-eabi\include\c++\6.3.1\bits\stl_algobase.h **** // GNU General Public License for more details.
  15:c:\program files (x86)\gnu tools arm embedded\6 2017-q2-update\arm-none-eabi\include\c++\6.3.1\bits\stl_algobase.h **** 
  16:c:\program files (x86)\gnu tools arm embedded\6 2017-q2-update\arm-none-eabi\include\c++\6.3.1\bits\stl_algobase.h **** // Under Section 7 of GPL version 3, you are granted additional
  17:c:\program files (x86)\gnu tools arm embedded\6 2017-q2-update\arm-none-eabi\include\c++\6.3.1\bits\stl_algobase.h **** // permissions described in the GCC Runtime Library Exception, version
  18:c:\program files (x86)\gnu tools arm embedded\6 2017-q2-update\arm-none-eabi\include\c++\6.3.1\bits\stl_algobase.h **** // 3.1, as published by the Free Software Foundation.
  19:c:\program files (x86)\gnu tools arm embedded\6 2017-q2-update\arm-none-eabi\include\c++\6.3.1\bits\stl_algobase.h **** 
  20:c:\program files (x86)\gnu tools arm embedded\6 2017-q2-update\arm-none-eabi\include\c++\6.3.1\bits\stl_algobase.h **** // You should have received a copy of the GNU General Public License and
  21:c:\program files (x86)\gnu tools arm embedded\6 2017-q2-update\arm-none-eabi\include\c++\6.3.1\bits\stl_algobase.h **** // a copy of the GCC Runtime Library Exception along with this program;
  22:c:\program files (x86)\gnu tools arm embedded\6 2017-q2-update\arm-none-eabi\include\c++\6.3.1\bits\stl_algobase.h **** // see the files COPYING3 and COPYING.RUNTIME respectively.  If not, see
  23:c:\program files (x86)\gnu tools arm embedded\6 2017-q2-update\arm-none-eabi\include\c++\6.3.1\bits\stl_algobase.h **** // <http://www.gnu.org/licenses/>.
  24:c:\program files (x86)\gnu tools arm embedded\6 2017-q2-update\arm-none-eabi\include\c++\6.3.1\bits\stl_algobase.h **** 
  25:c:\program files (x86)\gnu tools arm embedded\6 2017-q2-update\arm-none-eabi\include\c++\6.3.1\bits\stl_algobase.h **** /*
  26:c:\program files (x86)\gnu tools arm embedded\6 2017-q2-update\arm-none-eabi\include\c++\6.3.1\bits\stl_algobase.h ****  *
  27:c:\program files (x86)\gnu tools arm embedded\6 2017-q2-update\arm-none-eabi\include\c++\6.3.1\bits\stl_algobase.h ****  * Copyright (c) 1994
  28:c:\program files (x86)\gnu tools arm embedded\6 2017-q2-update\arm-none-eabi\include\c++\6.3.1\bits\stl_algobase.h ****  * Hewlett-Packard Company
  29:c:\program files (x86)\gnu tools arm embedded\6 2017-q2-update\arm-none-eabi\include\c++\6.3.1\bits\stl_algobase.h ****  *
  30:c:\program files (x86)\gnu tools arm embedded\6 2017-q2-update\arm-none-eabi\include\c++\6.3.1\bits\stl_algobase.h ****  * Permission to use, copy, modify, distribute and sell this software
  31:c:\program files (x86)\gnu tools arm embedded\6 2017-q2-update\arm-none-eabi\include\c++\6.3.1\bits\stl_algobase.h ****  * and its documentation for any purpose is hereby granted without fee,
  32:c:\program files (x86)\gnu tools arm embedded\6 2017-q2-update\arm-none-eabi\include\c++\6.3.1\bits\stl_algobase.h ****  * provided that the above copyright notice appear in all copies and
  33:c:\program files (x86)\gnu tools arm embedded\6 2017-q2-update\arm-none-eabi\include\c++\6.3.1\bits\stl_algobase.h ****  * that both that copyright notice and this permission notice appear
  34:c:\program files (x86)\gnu tools arm embedded\6 2017-q2-update\arm-none-eabi\include\c++\6.3.1\bits\stl_algobase.h ****  * in supporting documentation.  Hewlett-Packard Company makes no
  35:c:\program files (x86)\gnu tools arm embedded\6 2017-q2-update\arm-none-eabi\include\c++\6.3.1\bits\stl_algobase.h ****  * representations about the suitability of this software for any
  36:c:\program files (x86)\gnu tools arm embedded\6 2017-q2-update\arm-none-eabi\include\c++\6.3.1\bits\stl_algobase.h ****  * purpose.  It is provided "as is" without express or implied warranty.
  37:c:\program files (x86)\gnu tools arm embedded\6 2017-q2-update\arm-none-eabi\include\c++\6.3.1\bits\stl_algobase.h ****  *
  38:c:\program files (x86)\gnu tools arm embedded\6 2017-q2-update\arm-none-eabi\include\c++\6.3.1\bits\stl_algobase.h ****  *
  39:c:\program files (x86)\gnu tools arm embedded\6 2017-q2-update\arm-none-eabi\include\c++\6.3.1\bits\stl_algobase.h ****  * Copyright (c) 1996-1998
  40:c:\program files (x86)\gnu tools arm embedded\6 2017-q2-update\arm-none-eabi\include\c++\6.3.1\bits\stl_algobase.h ****  * Silicon Graphics Computer Systems, Inc.
  41:c:\program files (x86)\gnu tools arm embedded\6 2017-q2-update\arm-none-eabi\include\c++\6.3.1\bits\stl_algobase.h ****  *
  42:c:\program files (x86)\gnu tools arm embedded\6 2017-q2-update\arm-none-eabi\include\c++\6.3.1\bits\stl_algobase.h ****  * Permission to use, copy, modify, distribute and sell this software
  43:c:\program files (x86)\gnu tools arm embedded\6 2017-q2-update\arm-none-eabi\include\c++\6.3.1\bits\stl_algobase.h ****  * and its documentation for any purpose is hereby granted without fee,
  44:c:\program files (x86)\gnu tools arm embedded\6 2017-q2-update\arm-none-eabi\include\c++\6.3.1\bits\stl_algobase.h ****  * provided that the above copyright notice appear in all copies and
  45:c:\program files (x86)\gnu tools arm embedded\6 2017-q2-update\arm-none-eabi\include\c++\6.3.1\bits\stl_algobase.h ****  * that both that copyright notice and this permission notice appear
  46:c:\program files (x86)\gnu tools arm embedded\6 2017-q2-update\arm-none-eabi\include\c++\6.3.1\bits\stl_algobase.h ****  * in supporting documentation.  Silicon Graphics makes no
  47:c:\program files (x86)\gnu tools arm embedded\6 2017-q2-update\arm-none-eabi\include\c++\6.3.1\bits\stl_algobase.h ****  * representations about the suitability of this software for any
  48:c:\program files (x86)\gnu tools arm embedded\6 2017-q2-update\arm-none-eabi\include\c++\6.3.1\bits\stl_algobase.h ****  * purpose.  It is provided "as is" without express or implied warranty.
  49:c:\program files (x86)\gnu tools arm embedded\6 2017-q2-update\arm-none-eabi\include\c++\6.3.1\bits\stl_algobase.h ****  */
  50:c:\program files (x86)\gnu tools arm embedded\6 2017-q2-update\arm-none-eabi\include\c++\6.3.1\bits\stl_algobase.h **** 
  51:c:\program files (x86)\gnu tools arm embedded\6 2017-q2-update\arm-none-eabi\include\c++\6.3.1\bits\stl_algobase.h **** /** @file bits/stl_algobase.h
  52:c:\program files (x86)\gnu tools arm embedded\6 2017-q2-update\arm-none-eabi\include\c++\6.3.1\bits\stl_algobase.h ****  *  This is an internal header file, included by other library headers.
  53:c:\program files (x86)\gnu tools arm embedded\6 2017-q2-update\arm-none-eabi\include\c++\6.3.1\bits\stl_algobase.h ****  *  Do not attempt to use it directly. @headername{algorithm}
  54:c:\program files (x86)\gnu tools arm embedded\6 2017-q2-update\arm-none-eabi\include\c++\6.3.1\bits\stl_algobase.h ****  */
  55:c:\program files (x86)\gnu tools arm embedded\6 2017-q2-update\arm-none-eabi\include\c++\6.3.1\bits\stl_algobase.h **** 
  56:c:\program files (x86)\gnu tools arm embedded\6 2017-q2-update\arm-none-eabi\include\c++\6.3.1\bits\stl_algobase.h **** #ifndef _STL_ALGOBASE_H
  57:c:\program files (x86)\gnu tools arm embedded\6 2017-q2-update\arm-none-eabi\include\c++\6.3.1\bits\stl_algobase.h **** #define _STL_ALGOBASE_H 1
  58:c:\program files (x86)\gnu tools arm embedded\6 2017-q2-update\arm-none-eabi\include\c++\6.3.1\bits\stl_algobase.h **** 
  59:c:\program files (x86)\gnu tools arm embedded\6 2017-q2-update\arm-none-eabi\include\c++\6.3.1\bits\stl_algobase.h **** #include <bits/c++config.h>
  60:c:\program files (x86)\gnu tools arm embedded\6 2017-q2-update\arm-none-eabi\include\c++\6.3.1\bits\stl_algobase.h **** #include <bits/functexcept.h>
  61:c:\program files (x86)\gnu tools arm embedded\6 2017-q2-update\arm-none-eabi\include\c++\6.3.1\bits\stl_algobase.h **** #include <bits/cpp_type_traits.h>
  62:c:\program files (x86)\gnu tools arm embedded\6 2017-q2-update\arm-none-eabi\include\c++\6.3.1\bits\stl_algobase.h **** #include <ext/type_traits.h>
  63:c:\program files (x86)\gnu tools arm embedded\6 2017-q2-update\arm-none-eabi\include\c++\6.3.1\bits\stl_algobase.h **** #include <ext/numeric_traits.h>
  64:c:\program files (x86)\gnu tools arm embedded\6 2017-q2-update\arm-none-eabi\include\c++\6.3.1\bits\stl_algobase.h **** #include <bits/stl_pair.h>
  65:c:\program files (x86)\gnu tools arm embedded\6 2017-q2-update\arm-none-eabi\include\c++\6.3.1\bits\stl_algobase.h **** #include <bits/stl_iterator_base_types.h>
  66:c:\program files (x86)\gnu tools arm embedded\6 2017-q2-update\arm-none-eabi\include\c++\6.3.1\bits\stl_algobase.h **** #include <bits/stl_iterator_base_funcs.h>
  67:c:\program files (x86)\gnu tools arm embedded\6 2017-q2-update\arm-none-eabi\include\c++\6.3.1\bits\stl_algobase.h **** #include <bits/stl_iterator.h>
  68:c:\program files (x86)\gnu tools arm embedded\6 2017-q2-update\arm-none-eabi\include\c++\6.3.1\bits\stl_algobase.h **** #include <bits/concept_check.h>
  69:c:\program files (x86)\gnu tools arm embedded\6 2017-q2-update\arm-none-eabi\include\c++\6.3.1\bits\stl_algobase.h **** #include <debug/debug.h>
  70:c:\program files (x86)\gnu tools arm embedded\6 2017-q2-update\arm-none-eabi\include\c++\6.3.1\bits\stl_algobase.h **** #include <bits/move.h> // For std::swap and _GLIBCXX_MOVE
  71:c:\program files (x86)\gnu tools arm embedded\6 2017-q2-update\arm-none-eabi\include\c++\6.3.1\bits\stl_algobase.h **** #include <bits/predefined_ops.h>
  72:c:\program files (x86)\gnu tools arm embedded\6 2017-q2-update\arm-none-eabi\include\c++\6.3.1\bits\stl_algobase.h **** 
  73:c:\program files (x86)\gnu tools arm embedded\6 2017-q2-update\arm-none-eabi\include\c++\6.3.1\bits\stl_algobase.h **** namespace std _GLIBCXX_VISIBILITY(default)
  74:c:\program files (x86)\gnu tools arm embedded\6 2017-q2-update\arm-none-eabi\include\c++\6.3.1\bits\stl_algobase.h **** {
  75:c:\program files (x86)\gnu tools arm embedded\6 2017-q2-update\arm-none-eabi\include\c++\6.3.1\bits\stl_algobase.h **** _GLIBCXX_BEGIN_NAMESPACE_VERSION
  76:c:\program files (x86)\gnu tools arm embedded\6 2017-q2-update\arm-none-eabi\include\c++\6.3.1\bits\stl_algobase.h **** 
  77:c:\program files (x86)\gnu tools arm embedded\6 2017-q2-update\arm-none-eabi\include\c++\6.3.1\bits\stl_algobase.h **** #if __cplusplus < 201103L
  78:c:\program files (x86)\gnu tools arm embedded\6 2017-q2-update\arm-none-eabi\include\c++\6.3.1\bits\stl_algobase.h ****   // See http://gcc.gnu.org/ml/libstdc++/2004-08/msg00167.html: in a
  79:c:\program files (x86)\gnu tools arm embedded\6 2017-q2-update\arm-none-eabi\include\c++\6.3.1\bits\stl_algobase.h ****   // nutshell, we are partially implementing the resolution of DR 187,
  80:c:\program files (x86)\gnu tools arm embedded\6 2017-q2-update\arm-none-eabi\include\c++\6.3.1\bits\stl_algobase.h ****   // when it's safe, i.e., the value_types are equal.
  81:c:\program files (x86)\gnu tools arm embedded\6 2017-q2-update\arm-none-eabi\include\c++\6.3.1\bits\stl_algobase.h ****   template<bool _BoolType>
  82:c:\program files (x86)\gnu tools arm embedded\6 2017-q2-update\arm-none-eabi\include\c++\6.3.1\bits\stl_algobase.h ****     struct __iter_swap
  83:c:\program files (x86)\gnu tools arm embedded\6 2017-q2-update\arm-none-eabi\include\c++\6.3.1\bits\stl_algobase.h ****     {
  84:c:\program files (x86)\gnu tools arm embedded\6 2017-q2-update\arm-none-eabi\include\c++\6.3.1\bits\stl_algobase.h ****       template<typename _ForwardIterator1, typename _ForwardIterator2>
  85:c:\program files (x86)\gnu tools arm embedded\6 2017-q2-update\arm-none-eabi\include\c++\6.3.1\bits\stl_algobase.h ****         static void
  86:c:\program files (x86)\gnu tools arm embedded\6 2017-q2-update\arm-none-eabi\include\c++\6.3.1\bits\stl_algobase.h ****         iter_swap(_ForwardIterator1 __a, _ForwardIterator2 __b)
  87:c:\program files (x86)\gnu tools arm embedded\6 2017-q2-update\arm-none-eabi\include\c++\6.3.1\bits\stl_algobase.h ****         {
  88:c:\program files (x86)\gnu tools arm embedded\6 2017-q2-update\arm-none-eabi\include\c++\6.3.1\bits\stl_algobase.h ****           typedef typename iterator_traits<_ForwardIterator1>::value_type
  89:c:\program files (x86)\gnu tools arm embedded\6 2017-q2-update\arm-none-eabi\include\c++\6.3.1\bits\stl_algobase.h ****             _ValueType1;
  90:c:\program files (x86)\gnu tools arm embedded\6 2017-q2-update\arm-none-eabi\include\c++\6.3.1\bits\stl_algobase.h ****           _ValueType1 __tmp = _GLIBCXX_MOVE(*__a);
  91:c:\program files (x86)\gnu tools arm embedded\6 2017-q2-update\arm-none-eabi\include\c++\6.3.1\bits\stl_algobase.h ****           *__a = _GLIBCXX_MOVE(*__b);
  92:c:\program files (x86)\gnu tools arm embedded\6 2017-q2-update\arm-none-eabi\include\c++\6.3.1\bits\stl_algobase.h ****           *__b = _GLIBCXX_MOVE(__tmp);
  93:c:\program files (x86)\gnu tools arm embedded\6 2017-q2-update\arm-none-eabi\include\c++\6.3.1\bits\stl_algobase.h **** 	}
  94:c:\program files (x86)\gnu tools arm embedded\6 2017-q2-update\arm-none-eabi\include\c++\6.3.1\bits\stl_algobase.h ****     };
  95:c:\program files (x86)\gnu tools arm embedded\6 2017-q2-update\arm-none-eabi\include\c++\6.3.1\bits\stl_algobase.h **** 
  96:c:\program files (x86)\gnu tools arm embedded\6 2017-q2-update\arm-none-eabi\include\c++\6.3.1\bits\stl_algobase.h ****   template<>
  97:c:\program files (x86)\gnu tools arm embedded\6 2017-q2-update\arm-none-eabi\include\c++\6.3.1\bits\stl_algobase.h ****     struct __iter_swap<true>
  98:c:\program files (x86)\gnu tools arm embedded\6 2017-q2-update\arm-none-eabi\include\c++\6.3.1\bits\stl_algobase.h ****     {
  99:c:\program files (x86)\gnu tools arm embedded\6 2017-q2-update\arm-none-eabi\include\c++\6.3.1\bits\stl_algobase.h ****       template<typename _ForwardIterator1, typename _ForwardIterator2>
 100:c:\program files (x86)\gnu tools arm embedded\6 2017-q2-update\arm-none-eabi\include\c++\6.3.1\bits\stl_algobase.h ****         static void 
 101:c:\program files (x86)\gnu tools arm embedded\6 2017-q2-update\arm-none-eabi\include\c++\6.3.1\bits\stl_algobase.h ****         iter_swap(_ForwardIterator1 __a, _ForwardIterator2 __b)
 102:c:\program files (x86)\gnu tools arm embedded\6 2017-q2-update\arm-none-eabi\include\c++\6.3.1\bits\stl_algobase.h ****         {
 103:c:\program files (x86)\gnu tools arm embedded\6 2017-q2-update\arm-none-eabi\include\c++\6.3.1\bits\stl_algobase.h ****           swap(*__a, *__b);
 104:c:\program files (x86)\gnu tools arm embedded\6 2017-q2-update\arm-none-eabi\include\c++\6.3.1\bits\stl_algobase.h ****         }
 105:c:\program files (x86)\gnu tools arm embedded\6 2017-q2-update\arm-none-eabi\include\c++\6.3.1\bits\stl_algobase.h ****     };
 106:c:\program files (x86)\gnu tools arm embedded\6 2017-q2-update\arm-none-eabi\include\c++\6.3.1\bits\stl_algobase.h **** #endif
 107:c:\program files (x86)\gnu tools arm embedded\6 2017-q2-update\arm-none-eabi\include\c++\6.3.1\bits\stl_algobase.h **** 
 108:c:\program files (x86)\gnu tools arm embedded\6 2017-q2-update\arm-none-eabi\include\c++\6.3.1\bits\stl_algobase.h ****   /**
 109:c:\program files (x86)\gnu tools arm embedded\6 2017-q2-update\arm-none-eabi\include\c++\6.3.1\bits\stl_algobase.h ****    *  @brief Swaps the contents of two iterators.
 110:c:\program files (x86)\gnu tools arm embedded\6 2017-q2-update\arm-none-eabi\include\c++\6.3.1\bits\stl_algobase.h ****    *  @ingroup mutating_algorithms
 111:c:\program files (x86)\gnu tools arm embedded\6 2017-q2-update\arm-none-eabi\include\c++\6.3.1\bits\stl_algobase.h ****    *  @param  __a  An iterator.
 112:c:\program files (x86)\gnu tools arm embedded\6 2017-q2-update\arm-none-eabi\include\c++\6.3.1\bits\stl_algobase.h ****    *  @param  __b  Another iterator.
 113:c:\program files (x86)\gnu tools arm embedded\6 2017-q2-update\arm-none-eabi\include\c++\6.3.1\bits\stl_algobase.h ****    *  @return   Nothing.
 114:c:\program files (x86)\gnu tools arm embedded\6 2017-q2-update\arm-none-eabi\include\c++\6.3.1\bits\stl_algobase.h ****    *
 115:c:\program files (x86)\gnu tools arm embedded\6 2017-q2-update\arm-none-eabi\include\c++\6.3.1\bits\stl_algobase.h ****    *  This function swaps the values pointed to by two iterators, not the
 116:c:\program files (x86)\gnu tools arm embedded\6 2017-q2-update\arm-none-eabi\include\c++\6.3.1\bits\stl_algobase.h ****    *  iterators themselves.
 117:c:\program files (x86)\gnu tools arm embedded\6 2017-q2-update\arm-none-eabi\include\c++\6.3.1\bits\stl_algobase.h ****   */
 118:c:\program files (x86)\gnu tools arm embedded\6 2017-q2-update\arm-none-eabi\include\c++\6.3.1\bits\stl_algobase.h ****   template<typename _ForwardIterator1, typename _ForwardIterator2>
 119:c:\program files (x86)\gnu tools arm embedded\6 2017-q2-update\arm-none-eabi\include\c++\6.3.1\bits\stl_algobase.h ****     inline void
 120:c:\program files (x86)\gnu tools arm embedded\6 2017-q2-update\arm-none-eabi\include\c++\6.3.1\bits\stl_algobase.h ****     iter_swap(_ForwardIterator1 __a, _ForwardIterator2 __b)
 121:c:\program files (x86)\gnu tools arm embedded\6 2017-q2-update\arm-none-eabi\include\c++\6.3.1\bits\stl_algobase.h ****     {
 122:c:\program files (x86)\gnu tools arm embedded\6 2017-q2-update\arm-none-eabi\include\c++\6.3.1\bits\stl_algobase.h ****       // concept requirements
 123:c:\program files (x86)\gnu tools arm embedded\6 2017-q2-update\arm-none-eabi\include\c++\6.3.1\bits\stl_algobase.h ****       __glibcxx_function_requires(_Mutable_ForwardIteratorConcept<
 124:c:\program files (x86)\gnu tools arm embedded\6 2017-q2-update\arm-none-eabi\include\c++\6.3.1\bits\stl_algobase.h **** 				  _ForwardIterator1>)
 125:c:\program files (x86)\gnu tools arm embedded\6 2017-q2-update\arm-none-eabi\include\c++\6.3.1\bits\stl_algobase.h ****       __glibcxx_function_requires(_Mutable_ForwardIteratorConcept<
 126:c:\program files (x86)\gnu tools arm embedded\6 2017-q2-update\arm-none-eabi\include\c++\6.3.1\bits\stl_algobase.h **** 				  _ForwardIterator2>)
 127:c:\program files (x86)\gnu tools arm embedded\6 2017-q2-update\arm-none-eabi\include\c++\6.3.1\bits\stl_algobase.h **** 
 128:c:\program files (x86)\gnu tools arm embedded\6 2017-q2-update\arm-none-eabi\include\c++\6.3.1\bits\stl_algobase.h **** #if __cplusplus < 201103L
 129:c:\program files (x86)\gnu tools arm embedded\6 2017-q2-update\arm-none-eabi\include\c++\6.3.1\bits\stl_algobase.h ****       typedef typename iterator_traits<_ForwardIterator1>::value_type
 130:c:\program files (x86)\gnu tools arm embedded\6 2017-q2-update\arm-none-eabi\include\c++\6.3.1\bits\stl_algobase.h **** 	_ValueType1;
 131:c:\program files (x86)\gnu tools arm embedded\6 2017-q2-update\arm-none-eabi\include\c++\6.3.1\bits\stl_algobase.h ****       typedef typename iterator_traits<_ForwardIterator2>::value_type
 132:c:\program files (x86)\gnu tools arm embedded\6 2017-q2-update\arm-none-eabi\include\c++\6.3.1\bits\stl_algobase.h **** 	_ValueType2;
 133:c:\program files (x86)\gnu tools arm embedded\6 2017-q2-update\arm-none-eabi\include\c++\6.3.1\bits\stl_algobase.h **** 
 134:c:\program files (x86)\gnu tools arm embedded\6 2017-q2-update\arm-none-eabi\include\c++\6.3.1\bits\stl_algobase.h ****       __glibcxx_function_requires(_ConvertibleConcept<_ValueType1,
 135:c:\program files (x86)\gnu tools arm embedded\6 2017-q2-update\arm-none-eabi\include\c++\6.3.1\bits\stl_algobase.h **** 				  _ValueType2>)
 136:c:\program files (x86)\gnu tools arm embedded\6 2017-q2-update\arm-none-eabi\include\c++\6.3.1\bits\stl_algobase.h ****       __glibcxx_function_requires(_ConvertibleConcept<_ValueType2,
 137:c:\program files (x86)\gnu tools arm embedded\6 2017-q2-update\arm-none-eabi\include\c++\6.3.1\bits\stl_algobase.h **** 				  _ValueType1>)
 138:c:\program files (x86)\gnu tools arm embedded\6 2017-q2-update\arm-none-eabi\include\c++\6.3.1\bits\stl_algobase.h **** 
 139:c:\program files (x86)\gnu tools arm embedded\6 2017-q2-update\arm-none-eabi\include\c++\6.3.1\bits\stl_algobase.h ****       typedef typename iterator_traits<_ForwardIterator1>::reference
 140:c:\program files (x86)\gnu tools arm embedded\6 2017-q2-update\arm-none-eabi\include\c++\6.3.1\bits\stl_algobase.h **** 	_ReferenceType1;
 141:c:\program files (x86)\gnu tools arm embedded\6 2017-q2-update\arm-none-eabi\include\c++\6.3.1\bits\stl_algobase.h ****       typedef typename iterator_traits<_ForwardIterator2>::reference
 142:c:\program files (x86)\gnu tools arm embedded\6 2017-q2-update\arm-none-eabi\include\c++\6.3.1\bits\stl_algobase.h **** 	_ReferenceType2;
 143:c:\program files (x86)\gnu tools arm embedded\6 2017-q2-update\arm-none-eabi\include\c++\6.3.1\bits\stl_algobase.h ****       std::__iter_swap<__are_same<_ValueType1, _ValueType2>::__value
 144:c:\program files (x86)\gnu tools arm embedded\6 2017-q2-update\arm-none-eabi\include\c++\6.3.1\bits\stl_algobase.h **** 	&& __are_same<_ValueType1&, _ReferenceType1>::__value
 145:c:\program files (x86)\gnu tools arm embedded\6 2017-q2-update\arm-none-eabi\include\c++\6.3.1\bits\stl_algobase.h **** 	&& __are_same<_ValueType2&, _ReferenceType2>::__value>::
 146:c:\program files (x86)\gnu tools arm embedded\6 2017-q2-update\arm-none-eabi\include\c++\6.3.1\bits\stl_algobase.h **** 	iter_swap(__a, __b);
 147:c:\program files (x86)\gnu tools arm embedded\6 2017-q2-update\arm-none-eabi\include\c++\6.3.1\bits\stl_algobase.h **** #else
 148:c:\program files (x86)\gnu tools arm embedded\6 2017-q2-update\arm-none-eabi\include\c++\6.3.1\bits\stl_algobase.h ****       swap(*__a, *__b);
 149:c:\program files (x86)\gnu tools arm embedded\6 2017-q2-update\arm-none-eabi\include\c++\6.3.1\bits\stl_algobase.h **** #endif
 150:c:\program files (x86)\gnu tools arm embedded\6 2017-q2-update\arm-none-eabi\include\c++\6.3.1\bits\stl_algobase.h ****     }
 151:c:\program files (x86)\gnu tools arm embedded\6 2017-q2-update\arm-none-eabi\include\c++\6.3.1\bits\stl_algobase.h **** 
 152:c:\program files (x86)\gnu tools arm embedded\6 2017-q2-update\arm-none-eabi\include\c++\6.3.1\bits\stl_algobase.h ****   /**
 153:c:\program files (x86)\gnu tools arm embedded\6 2017-q2-update\arm-none-eabi\include\c++\6.3.1\bits\stl_algobase.h ****    *  @brief Swap the elements of two sequences.
 154:c:\program files (x86)\gnu tools arm embedded\6 2017-q2-update\arm-none-eabi\include\c++\6.3.1\bits\stl_algobase.h ****    *  @ingroup mutating_algorithms
 155:c:\program files (x86)\gnu tools arm embedded\6 2017-q2-update\arm-none-eabi\include\c++\6.3.1\bits\stl_algobase.h ****    *  @param  __first1  A forward iterator.
 156:c:\program files (x86)\gnu tools arm embedded\6 2017-q2-update\arm-none-eabi\include\c++\6.3.1\bits\stl_algobase.h ****    *  @param  __last1   A forward iterator.
 157:c:\program files (x86)\gnu tools arm embedded\6 2017-q2-update\arm-none-eabi\include\c++\6.3.1\bits\stl_algobase.h ****    *  @param  __first2  A forward iterator.
 158:c:\program files (x86)\gnu tools arm embedded\6 2017-q2-update\arm-none-eabi\include\c++\6.3.1\bits\stl_algobase.h ****    *  @return   An iterator equal to @p first2+(last1-first1).
 159:c:\program files (x86)\gnu tools arm embedded\6 2017-q2-update\arm-none-eabi\include\c++\6.3.1\bits\stl_algobase.h ****    *
 160:c:\program files (x86)\gnu tools arm embedded\6 2017-q2-update\arm-none-eabi\include\c++\6.3.1\bits\stl_algobase.h ****    *  Swaps each element in the range @p [first1,last1) with the
 161:c:\program files (x86)\gnu tools arm embedded\6 2017-q2-update\arm-none-eabi\include\c++\6.3.1\bits\stl_algobase.h ****    *  corresponding element in the range @p [first2,(last1-first1)).
 162:c:\program files (x86)\gnu tools arm embedded\6 2017-q2-update\arm-none-eabi\include\c++\6.3.1\bits\stl_algobase.h ****    *  The ranges must not overlap.
 163:c:\program files (x86)\gnu tools arm embedded\6 2017-q2-update\arm-none-eabi\include\c++\6.3.1\bits\stl_algobase.h ****   */
 164:c:\program files (x86)\gnu tools arm embedded\6 2017-q2-update\arm-none-eabi\include\c++\6.3.1\bits\stl_algobase.h ****   template<typename _ForwardIterator1, typename _ForwardIterator2>
 165:c:\program files (x86)\gnu tools arm embedded\6 2017-q2-update\arm-none-eabi\include\c++\6.3.1\bits\stl_algobase.h ****     _ForwardIterator2
 166:c:\program files (x86)\gnu tools arm embedded\6 2017-q2-update\arm-none-eabi\include\c++\6.3.1\bits\stl_algobase.h ****     swap_ranges(_ForwardIterator1 __first1, _ForwardIterator1 __last1,
 167:c:\program files (x86)\gnu tools arm embedded\6 2017-q2-update\arm-none-eabi\include\c++\6.3.1\bits\stl_algobase.h **** 		_ForwardIterator2 __first2)
 168:c:\program files (x86)\gnu tools arm embedded\6 2017-q2-update\arm-none-eabi\include\c++\6.3.1\bits\stl_algobase.h ****     {
 169:c:\program files (x86)\gnu tools arm embedded\6 2017-q2-update\arm-none-eabi\include\c++\6.3.1\bits\stl_algobase.h ****       // concept requirements
 170:c:\program files (x86)\gnu tools arm embedded\6 2017-q2-update\arm-none-eabi\include\c++\6.3.1\bits\stl_algobase.h ****       __glibcxx_function_requires(_Mutable_ForwardIteratorConcept<
 171:c:\program files (x86)\gnu tools arm embedded\6 2017-q2-update\arm-none-eabi\include\c++\6.3.1\bits\stl_algobase.h **** 				  _ForwardIterator1>)
 172:c:\program files (x86)\gnu tools arm embedded\6 2017-q2-update\arm-none-eabi\include\c++\6.3.1\bits\stl_algobase.h ****       __glibcxx_function_requires(_Mutable_ForwardIteratorConcept<
 173:c:\program files (x86)\gnu tools arm embedded\6 2017-q2-update\arm-none-eabi\include\c++\6.3.1\bits\stl_algobase.h **** 				  _ForwardIterator2>)
 174:c:\program files (x86)\gnu tools arm embedded\6 2017-q2-update\arm-none-eabi\include\c++\6.3.1\bits\stl_algobase.h ****       __glibcxx_requires_valid_range(__first1, __last1);
 175:c:\program files (x86)\gnu tools arm embedded\6 2017-q2-update\arm-none-eabi\include\c++\6.3.1\bits\stl_algobase.h **** 
 176:c:\program files (x86)\gnu tools arm embedded\6 2017-q2-update\arm-none-eabi\include\c++\6.3.1\bits\stl_algobase.h ****       for (; __first1 != __last1; ++__first1, (void)++__first2)
 177:c:\program files (x86)\gnu tools arm embedded\6 2017-q2-update\arm-none-eabi\include\c++\6.3.1\bits\stl_algobase.h **** 	std::iter_swap(__first1, __first2);
 178:c:\program files (x86)\gnu tools arm embedded\6 2017-q2-update\arm-none-eabi\include\c++\6.3.1\bits\stl_algobase.h ****       return __first2;
 179:c:\program files (x86)\gnu tools arm embedded\6 2017-q2-update\arm-none-eabi\include\c++\6.3.1\bits\stl_algobase.h ****     }
 180:c:\program files (x86)\gnu tools arm embedded\6 2017-q2-update\arm-none-eabi\include\c++\6.3.1\bits\stl_algobase.h **** 
 181:c:\program files (x86)\gnu tools arm embedded\6 2017-q2-update\arm-none-eabi\include\c++\6.3.1\bits\stl_algobase.h ****   /**
 182:c:\program files (x86)\gnu tools arm embedded\6 2017-q2-update\arm-none-eabi\include\c++\6.3.1\bits\stl_algobase.h ****    *  @brief This does what you think it does.
 183:c:\program files (x86)\gnu tools arm embedded\6 2017-q2-update\arm-none-eabi\include\c++\6.3.1\bits\stl_algobase.h ****    *  @ingroup sorting_algorithms
 184:c:\program files (x86)\gnu tools arm embedded\6 2017-q2-update\arm-none-eabi\include\c++\6.3.1\bits\stl_algobase.h ****    *  @param  __a  A thing of arbitrary type.
 185:c:\program files (x86)\gnu tools arm embedded\6 2017-q2-update\arm-none-eabi\include\c++\6.3.1\bits\stl_algobase.h ****    *  @param  __b  Another thing of arbitrary type.
 186:c:\program files (x86)\gnu tools arm embedded\6 2017-q2-update\arm-none-eabi\include\c++\6.3.1\bits\stl_algobase.h ****    *  @return   The lesser of the parameters.
 187:c:\program files (x86)\gnu tools arm embedded\6 2017-q2-update\arm-none-eabi\include\c++\6.3.1\bits\stl_algobase.h ****    *
 188:c:\program files (x86)\gnu tools arm embedded\6 2017-q2-update\arm-none-eabi\include\c++\6.3.1\bits\stl_algobase.h ****    *  This is the simple classic generic implementation.  It will work on
 189:c:\program files (x86)\gnu tools arm embedded\6 2017-q2-update\arm-none-eabi\include\c++\6.3.1\bits\stl_algobase.h ****    *  temporary expressions, since they are only evaluated once, unlike a
 190:c:\program files (x86)\gnu tools arm embedded\6 2017-q2-update\arm-none-eabi\include\c++\6.3.1\bits\stl_algobase.h ****    *  preprocessor macro.
 191:c:\program files (x86)\gnu tools arm embedded\6 2017-q2-update\arm-none-eabi\include\c++\6.3.1\bits\stl_algobase.h ****   */
 192:c:\program files (x86)\gnu tools arm embedded\6 2017-q2-update\arm-none-eabi\include\c++\6.3.1\bits\stl_algobase.h ****   template<typename _Tp>
 193:c:\program files (x86)\gnu tools arm embedded\6 2017-q2-update\arm-none-eabi\include\c++\6.3.1\bits\stl_algobase.h ****     _GLIBCXX14_CONSTEXPR
 194:c:\program files (x86)\gnu tools arm embedded\6 2017-q2-update\arm-none-eabi\include\c++\6.3.1\bits\stl_algobase.h ****     inline const _Tp&
 195:c:\program files (x86)\gnu tools arm embedded\6 2017-q2-update\arm-none-eabi\include\c++\6.3.1\bits\stl_algobase.h ****     min(const _Tp& __a, const _Tp& __b)
 196:c:\program files (x86)\gnu tools arm embedded\6 2017-q2-update\arm-none-eabi\include\c++\6.3.1\bits\stl_algobase.h ****     {
 197:c:\program files (x86)\gnu tools arm embedded\6 2017-q2-update\arm-none-eabi\include\c++\6.3.1\bits\stl_algobase.h ****       // concept requirements
 198:c:\program files (x86)\gnu tools arm embedded\6 2017-q2-update\arm-none-eabi\include\c++\6.3.1\bits\stl_algobase.h ****       __glibcxx_function_requires(_LessThanComparableConcept<_Tp>)
 199:c:\program files (x86)\gnu tools arm embedded\6 2017-q2-update\arm-none-eabi\include\c++\6.3.1\bits\stl_algobase.h ****       //return __b < __a ? __b : __a;
 200:c:\program files (x86)\gnu tools arm embedded\6 2017-q2-update\arm-none-eabi\include\c++\6.3.1\bits\stl_algobase.h ****       if (__b < __a)
 201:c:\program files (x86)\gnu tools arm embedded\6 2017-q2-update\arm-none-eabi\include\c++\6.3.1\bits\stl_algobase.h **** 	return __b;
 202:c:\program files (x86)\gnu tools arm embedded\6 2017-q2-update\arm-none-eabi\include\c++\6.3.1\bits\stl_algobase.h ****       return __a;
 203:c:\program files (x86)\gnu tools arm embedded\6 2017-q2-update\arm-none-eabi\include\c++\6.3.1\bits\stl_algobase.h ****     }
 204:c:\program files (x86)\gnu tools arm embedded\6 2017-q2-update\arm-none-eabi\include\c++\6.3.1\bits\stl_algobase.h **** 
 205:c:\program files (x86)\gnu tools arm embedded\6 2017-q2-update\arm-none-eabi\include\c++\6.3.1\bits\stl_algobase.h ****   /**
 206:c:\program files (x86)\gnu tools arm embedded\6 2017-q2-update\arm-none-eabi\include\c++\6.3.1\bits\stl_algobase.h ****    *  @brief This does what you think it does.
 207:c:\program files (x86)\gnu tools arm embedded\6 2017-q2-update\arm-none-eabi\include\c++\6.3.1\bits\stl_algobase.h ****    *  @ingroup sorting_algorithms
 208:c:\program files (x86)\gnu tools arm embedded\6 2017-q2-update\arm-none-eabi\include\c++\6.3.1\bits\stl_algobase.h ****    *  @param  __a  A thing of arbitrary type.
 209:c:\program files (x86)\gnu tools arm embedded\6 2017-q2-update\arm-none-eabi\include\c++\6.3.1\bits\stl_algobase.h ****    *  @param  __b  Another thing of arbitrary type.
 210:c:\program files (x86)\gnu tools arm embedded\6 2017-q2-update\arm-none-eabi\include\c++\6.3.1\bits\stl_algobase.h ****    *  @return   The greater of the parameters.
 211:c:\program files (x86)\gnu tools arm embedded\6 2017-q2-update\arm-none-eabi\include\c++\6.3.1\bits\stl_algobase.h ****    *
 212:c:\program files (x86)\gnu tools arm embedded\6 2017-q2-update\arm-none-eabi\include\c++\6.3.1\bits\stl_algobase.h ****    *  This is the simple classic generic implementation.  It will work on
 213:c:\program files (x86)\gnu tools arm embedded\6 2017-q2-update\arm-none-eabi\include\c++\6.3.1\bits\stl_algobase.h ****    *  temporary expressions, since they are only evaluated once, unlike a
 214:c:\program files (x86)\gnu tools arm embedded\6 2017-q2-update\arm-none-eabi\include\c++\6.3.1\bits\stl_algobase.h ****    *  preprocessor macro.
 215:c:\program files (x86)\gnu tools arm embedded\6 2017-q2-update\arm-none-eabi\include\c++\6.3.1\bits\stl_algobase.h ****   */
 216:c:\program files (x86)\gnu tools arm embedded\6 2017-q2-update\arm-none-eabi\include\c++\6.3.1\bits\stl_algobase.h ****   template<typename _Tp>
 217:c:\program files (x86)\gnu tools arm embedded\6 2017-q2-update\arm-none-eabi\include\c++\6.3.1\bits\stl_algobase.h ****     _GLIBCXX14_CONSTEXPR
 218:c:\program files (x86)\gnu tools arm embedded\6 2017-q2-update\arm-none-eabi\include\c++\6.3.1\bits\stl_algobase.h ****     inline const _Tp&
 219:c:\program files (x86)\gnu tools arm embedded\6 2017-q2-update\arm-none-eabi\include\c++\6.3.1\bits\stl_algobase.h ****     max(const _Tp& __a, const _Tp& __b)
 220:c:\program files (x86)\gnu tools arm embedded\6 2017-q2-update\arm-none-eabi\include\c++\6.3.1\bits\stl_algobase.h ****     {
 221:c:\program files (x86)\gnu tools arm embedded\6 2017-q2-update\arm-none-eabi\include\c++\6.3.1\bits\stl_algobase.h ****       // concept requirements
 222:c:\program files (x86)\gnu tools arm embedded\6 2017-q2-update\arm-none-eabi\include\c++\6.3.1\bits\stl_algobase.h ****       __glibcxx_function_requires(_LessThanComparableConcept<_Tp>)
 223:c:\program files (x86)\gnu tools arm embedded\6 2017-q2-update\arm-none-eabi\include\c++\6.3.1\bits\stl_algobase.h ****       //return  __a < __b ? __b : __a;
 224:c:\program files (x86)\gnu tools arm embedded\6 2017-q2-update\arm-none-eabi\include\c++\6.3.1\bits\stl_algobase.h ****       if (__a < __b)
 205              		.loc 2 224 0
 206 00ac 036AD9ED 		vldr.32	s13, [r9, #12]
 207              	.LBE366:
 208              	.LBE365:
  74:../src/tensorflow_lite/src/tensorflow/lite/micro/kernels/add.cpp ****     const double twice_max_input_scale =
 209              		.loc 1 74 0
 210 00b0 14C0A0E3 		mov	ip, #20
 211              	.LBB368:
 212              	.LBB367:
 213              		.loc 2 224 0
 214 00b4 037AD8ED 		vldr.32	s15, [r8, #12]
 215              	.LBE367:
 216              	.LBE368:
  87:../src/tensorflow_lite/src/tensorflow/lite/micro/kernels/add.cpp **** 
 217              		.loc 1 87 0
 218 00b8 0C0085E0 		add	r0, r5, ip
  84:../src/tensorflow_lite/src/tensorflow/lite/micro/kernels/add.cpp **** 
 219              		.loc 1 84 0
 220 00bc 037A97ED 		vldr.32	s14, [r7, #12]
  87:../src/tensorflow_lite/src/tensorflow/lite/micro/kernels/add.cpp **** 
 221              		.loc 1 87 0
 222 00c0 041085E2 		add	r1, r5, #4
  84:../src/tensorflow_lite/src/tensorflow/lite/micro/kernels/add.cpp **** 
 223              		.loc 1 84 0
 224 00c4 713BDFED 		vldr.64	d19, .L36
  81:../src/tensorflow_lite/src/tensorflow/lite/micro/kernels/add.cpp ****     const double real_output_multiplier =
 225              		.loc 1 81 0
 226 00c8 E62AF7EE 		vcvt.f64.f32	d18, s13
  77:../src/tensorflow_lite/src/tensorflow/lite/micro/kernels/add.cpp ****     const double real_input1_multiplier =
 227              		.loc 1 77 0
 228 00cc E67AF4EE 		vcmpe.f32	s15, s13
 229 00d0 10FAF1EE 		vmrs	APSR_nzcv, FPSCR
  79:../src/tensorflow_lite/src/tensorflow/lite/micro/kernels/add.cpp ****     const double real_input2_multiplier =
 230              		.loc 1 79 0
 231 00d4 E70AB7EE 		vcvt.f64.f32	d0, s15
  77:../src/tensorflow_lite/src/tensorflow/lite/micro/kernels/add.cpp ****     const double real_input1_multiplier =
 232              		.loc 1 77 0
 233 00d8 667AF04E 		vmovmi.f32	s15, s13
  76:../src/tensorflow_lite/src/tensorflow/lite/micro/kernels/add.cpp ****                 std::max(input1->params.scale, input2->params.scale));
 234              		.loc 1 76 0
 235 00dc E70AF7EE 		vcvt.f64.f32	d16, s15
  84:../src/tensorflow_lite/src/tensorflow/lite/micro/kernels/add.cpp **** 
 236              		.loc 1 84 0
 237 00e0 C71AF7EE 		vcvt.f64.f32	d17, s14
  71:../src/tensorflow_lite/src/tensorflow/lite/micro/kernels/add.cpp ****     data->input2_offset = -input2->params.zero_point;
 238              		.loc 1 71 0
 239 00e4 102098E5 		ldr	r2, [r8, #16]
  72:../src/tensorflow_lite/src/tensorflow/lite/micro/kernels/add.cpp ****     data->output_offset = output->params.zero_point;
 240              		.loc 1 72 0
 241 00e8 103099E5 		ldr	r3, [r9, #16]
  77:../src/tensorflow_lite/src/tensorflow/lite/micro/kernels/add.cpp ****     const double real_input1_multiplier =
 242              		.loc 1 77 0
 243 00ec A00B70EE 		vadd.f64	d16, d16, d16
  84:../src/tensorflow_lite/src/tensorflow/lite/micro/kernels/add.cpp **** 
 244              		.loc 1 84 0
 245 00f0 A31B61EE 		vmul.f64	d17, d17, d19
  71:../src/tensorflow_lite/src/tensorflow/lite/micro/kernels/add.cpp ****     data->input2_offset = -input2->params.zero_point;
 246              		.loc 1 71 0
 247 00f4 002062E2 		rsb	r2, r2, #0
 248 00f8 282085E5 		str	r2, [r5, #40]
  72:../src/tensorflow_lite/src/tensorflow/lite/micro/kernels/add.cpp ****     data->output_offset = output->params.zero_point;
 249              		.loc 1 72 0
 250 00fc 003063E2 		rsb	r3, r3, #0
  73:../src/tensorflow_lite/src/tensorflow/lite/micro/kernels/add.cpp ****     data->left_shift = 20;
 251              		.loc 1 73 0
 252 0100 102097E5 		ldr	r2, [r7, #16]
  87:../src/tensorflow_lite/src/tensorflow/lite/micro/kernels/add.cpp **** 
 253              		.loc 1 87 0
 254 0104 200B80EE 		vdiv.f64	d0, d0, d16
  81:../src/tensorflow_lite/src/tensorflow/lite/micro/kernels/add.cpp ****     const double real_output_multiplier =
 255              		.loc 1 81 0
 256 0108 A09B82EE 		vdiv.f64	d9, d18, d16
  84:../src/tensorflow_lite/src/tensorflow/lite/micro/kernels/add.cpp **** 
 257              		.loc 1 84 0
 258 010c A18B80EE 		vdiv.f64	d8, d16, d17
  72:../src/tensorflow_lite/src/tensorflow/lite/micro/kernels/add.cpp ****     data->output_offset = output->params.zero_point;
 259              		.loc 1 72 0
 260 0110 2C3085E5 		str	r3, [r5, #44]
  74:../src/tensorflow_lite/src/tensorflow/lite/micro/kernels/add.cpp ****     const double twice_max_input_scale =
 261              		.loc 1 74 0
 262 0114 24C085E5 		str	ip, [r5, #36]
 263              	.LVL16:
  73:../src/tensorflow_lite/src/tensorflow/lite/micro/kernels/add.cpp ****     data->left_shift = 20;
 264              		.loc 1 73 0
 265 0118 302085E5 		str	r2, [r5, #48]
  87:../src/tensorflow_lite/src/tensorflow/lite/micro/kernels/add.cpp **** 
 266              		.loc 1 87 0
 267 011c FEFFFFEB 		bl	_ZN6tflite35QuantizeMultiplierSmallerThanOneExpEdPlPi
 268              	.LVL17:
  90:../src/tensorflow_lite/src/tensorflow/lite/micro/kernels/add.cpp **** 
 269              		.loc 1 90 0
 270 0120 081085E2 		add	r1, r5, #8
 271 0124 180085E2 		add	r0, r5, #24
 272 0128 490BB0EE 		vmov.f64	d0, d9
 273 012c FEFFFFEB 		bl	_ZN6tflite35QuantizeMultiplierSmallerThanOneExpEdPlPi
 274              	.LVL18:
  93:../src/tensorflow_lite/src/tensorflow/lite/micro/kernels/add.cpp **** 
 275              		.loc 1 93 0
 276 0130 201085E2 		add	r1, r5, #32
 277 0134 1C0085E2 		add	r0, r5, #28
 278 0138 480BB0EE 		vmov.f64	d0, d8
 279 013c FEFFFFEB 		bl	_ZN6tflite35QuantizeMultiplierSmallerThanOneExpEdPlPi
 280              	.LVL19:
 281              	.LBB369:
  95:../src/tensorflow_lite/src/tensorflow/lite/micro/kernels/add.cpp ****         context, params->activation, output, &data->output_activation_min,
 282              		.loc 1 95 0
 283 0140 103085E2 		add	r3, r5, #16
 284 0144 0010D4E5 		ldrb	r1, [r4]	@ zero_extendqisi2
 285 0148 0720A0E1 		mov	r2, r7
 286 014c 00308DE5 		str	r3, [sp]
 287 0150 0600A0E1 		mov	r0, r6
 288 0154 0C3085E2 		add	r3, r5, #12
 289 0158 FEFFFFEB 		bl	_ZN6tflite33CalculateActivationRangeQuantizedEP13TfLiteContext21TfLiteFusedActivationP12TfLiteT
 290              	.LVL20:
 291              	.LBE369:
 292              	.LBE364:
 293              	.LBE363:
 294              	.LBE377:
 295              	.LBE385:
 296              	.LBE393:
 297              		.loc 1 196 0
 298 015c 0CD08DE2 		add	sp, sp, #12
 299              		.cfi_remember_state
 300              		.cfi_def_cfa_offset 44
 301              		@ sp needed
 302 0160 048BBDEC 		vldm	sp!, {d8-d9}
 303              		.cfi_restore 80
 304              		.cfi_restore 81
 305              		.cfi_restore 82
 306              		.cfi_restore 83
 307              		.cfi_def_cfa_offset 28
 308              	.LVL21:
 309 0164 F083BDE8 		pop	{r4, r5, r6, r7, r8, r9, pc}
 310              	.LVL22:
 311              	.L33:
 312              		.cfi_restore_state
 313              	.LBB394:
 314              	.LBB386:
 315              	.LBB378:
 316              	.LBB370:
  99:../src/tensorflow_lite/src/tensorflow/lite/micro/kernels/add.cpp ****                              &data->output_activation_min_f32,
 317              		.loc 1 99 0
 318 0168 0030D4E5 		ldrb	r3, [r4]	@ zero_extendqisi2
 319              	.LVL23:
 320              	.LBB351:
 321              	.LBB352:
 322              		.file 3 "C:/Renesas/e2studio_2021_01_workspace_RZA2M_ANPR/ANPR_RZA2M_GR_MANGO/src/tensorflow_lite/
   1:C:/Renesas/e2studio_2021_01_workspace_RZA2M_ANPR/ANPR_RZA2M_GR_MANGO/src/tensorflow_lite/src/tensorflow/lite/kernels\kernel_util.h **** /* Copyright 2017 The TensorFlow Authors. All Rights Reserved.
   2:C:/Renesas/e2studio_2021_01_workspace_RZA2M_ANPR/ANPR_RZA2M_GR_MANGO/src/tensorflow_lite/src/tensorflow/lite/kernels\kernel_util.h **** 
   3:C:/Renesas/e2studio_2021_01_workspace_RZA2M_ANPR/ANPR_RZA2M_GR_MANGO/src/tensorflow_lite/src/tensorflow/lite/kernels\kernel_util.h **** Licensed under the Apache License, Version 2.0 (the "License");
   4:C:/Renesas/e2studio_2021_01_workspace_RZA2M_ANPR/ANPR_RZA2M_GR_MANGO/src/tensorflow_lite/src/tensorflow/lite/kernels\kernel_util.h **** you may not use this file except in compliance with the License.
   5:C:/Renesas/e2studio_2021_01_workspace_RZA2M_ANPR/ANPR_RZA2M_GR_MANGO/src/tensorflow_lite/src/tensorflow/lite/kernels\kernel_util.h **** You may obtain a copy of the License at
   6:C:/Renesas/e2studio_2021_01_workspace_RZA2M_ANPR/ANPR_RZA2M_GR_MANGO/src/tensorflow_lite/src/tensorflow/lite/kernels\kernel_util.h **** 
   7:C:/Renesas/e2studio_2021_01_workspace_RZA2M_ANPR/ANPR_RZA2M_GR_MANGO/src/tensorflow_lite/src/tensorflow/lite/kernels\kernel_util.h ****     http://www.apache.org/licenses/LICENSE-2.0
   8:C:/Renesas/e2studio_2021_01_workspace_RZA2M_ANPR/ANPR_RZA2M_GR_MANGO/src/tensorflow_lite/src/tensorflow/lite/kernels\kernel_util.h **** 
   9:C:/Renesas/e2studio_2021_01_workspace_RZA2M_ANPR/ANPR_RZA2M_GR_MANGO/src/tensorflow_lite/src/tensorflow/lite/kernels\kernel_util.h **** Unless required by applicable law or agreed to in writing, software
  10:C:/Renesas/e2studio_2021_01_workspace_RZA2M_ANPR/ANPR_RZA2M_GR_MANGO/src/tensorflow_lite/src/tensorflow/lite/kernels\kernel_util.h **** distributed under the License is distributed on an "AS IS" BASIS,
  11:C:/Renesas/e2studio_2021_01_workspace_RZA2M_ANPR/ANPR_RZA2M_GR_MANGO/src/tensorflow_lite/src/tensorflow/lite/kernels\kernel_util.h **** WITHOUT WARRANTIES OR CONDITIONS OF ANY KIND, either express or implied.
  12:C:/Renesas/e2studio_2021_01_workspace_RZA2M_ANPR/ANPR_RZA2M_GR_MANGO/src/tensorflow_lite/src/tensorflow/lite/kernels\kernel_util.h **** See the License for the specific language governing permissions and
  13:C:/Renesas/e2studio_2021_01_workspace_RZA2M_ANPR/ANPR_RZA2M_GR_MANGO/src/tensorflow_lite/src/tensorflow/lite/kernels\kernel_util.h **** limitations under the License.
  14:C:/Renesas/e2studio_2021_01_workspace_RZA2M_ANPR/ANPR_RZA2M_GR_MANGO/src/tensorflow_lite/src/tensorflow/lite/kernels\kernel_util.h **** ==============================================================================*/
  15:C:/Renesas/e2studio_2021_01_workspace_RZA2M_ANPR/ANPR_RZA2M_GR_MANGO/src/tensorflow_lite/src/tensorflow/lite/kernels\kernel_util.h **** #ifndef TENSORFLOW_LITE_KERNELS_KERNEL_UTIL_H_
  16:C:/Renesas/e2studio_2021_01_workspace_RZA2M_ANPR/ANPR_RZA2M_GR_MANGO/src/tensorflow_lite/src/tensorflow/lite/kernels\kernel_util.h **** #define TENSORFLOW_LITE_KERNELS_KERNEL_UTIL_H_
  17:C:/Renesas/e2studio_2021_01_workspace_RZA2M_ANPR/ANPR_RZA2M_GR_MANGO/src/tensorflow_lite/src/tensorflow/lite/kernels\kernel_util.h **** 
  18:C:/Renesas/e2studio_2021_01_workspace_RZA2M_ANPR/ANPR_RZA2M_GR_MANGO/src/tensorflow_lite/src/tensorflow/lite/kernels\kernel_util.h **** #include <stdint.h>
  19:C:/Renesas/e2studio_2021_01_workspace_RZA2M_ANPR/ANPR_RZA2M_GR_MANGO/src/tensorflow_lite/src/tensorflow/lite/kernels\kernel_util.h **** 
  20:C:/Renesas/e2studio_2021_01_workspace_RZA2M_ANPR/ANPR_RZA2M_GR_MANGO/src/tensorflow_lite/src/tensorflow/lite/kernels\kernel_util.h **** #include <limits>
  21:C:/Renesas/e2studio_2021_01_workspace_RZA2M_ANPR/ANPR_RZA2M_GR_MANGO/src/tensorflow_lite/src/tensorflow/lite/kernels\kernel_util.h **** 
  22:C:/Renesas/e2studio_2021_01_workspace_RZA2M_ANPR/ANPR_RZA2M_GR_MANGO/src/tensorflow_lite/src/tensorflow/lite/kernels\kernel_util.h **** #include "tensorflow/lite/c/builtin_op_data.h"
  23:C:/Renesas/e2studio_2021_01_workspace_RZA2M_ANPR/ANPR_RZA2M_GR_MANGO/src/tensorflow_lite/src/tensorflow/lite/kernels\kernel_util.h **** #include "tensorflow/lite/c/common.h"
  24:C:/Renesas/e2studio_2021_01_workspace_RZA2M_ANPR/ANPR_RZA2M_GR_MANGO/src/tensorflow_lite/src/tensorflow/lite/kernels\kernel_util.h **** 
  25:C:/Renesas/e2studio_2021_01_workspace_RZA2M_ANPR/ANPR_RZA2M_GR_MANGO/src/tensorflow_lite/src/tensorflow/lite/kernels\kernel_util.h **** namespace tflite {
  26:C:/Renesas/e2studio_2021_01_workspace_RZA2M_ANPR/ANPR_RZA2M_GR_MANGO/src/tensorflow_lite/src/tensorflow/lite/kernels\kernel_util.h **** 
  27:C:/Renesas/e2studio_2021_01_workspace_RZA2M_ANPR/ANPR_RZA2M_GR_MANGO/src/tensorflow_lite/src/tensorflow/lite/kernels\kernel_util.h **** // A fair number of functions in this header have historically been inline.
  28:C:/Renesas/e2studio_2021_01_workspace_RZA2M_ANPR/ANPR_RZA2M_GR_MANGO/src/tensorflow_lite/src/tensorflow/lite/kernels\kernel_util.h **** // It is ok to change functions to not be inline if the latency with
  29:C:/Renesas/e2studio_2021_01_workspace_RZA2M_ANPR/ANPR_RZA2M_GR_MANGO/src/tensorflow_lite/src/tensorflow/lite/kernels\kernel_util.h **** // benchmark_model for MobileNet + MobileBERT is unaffected. If such a change is
  30:C:/Renesas/e2studio_2021_01_workspace_RZA2M_ANPR/ANPR_RZA2M_GR_MANGO/src/tensorflow_lite/src/tensorflow/lite/kernels\kernel_util.h **** // made, move the newly non-inlined function declarations to the top of this
  31:C:/Renesas/e2studio_2021_01_workspace_RZA2M_ANPR/ANPR_RZA2M_GR_MANGO/src/tensorflow_lite/src/tensorflow/lite/kernels\kernel_util.h **** // header file.
  32:C:/Renesas/e2studio_2021_01_workspace_RZA2M_ANPR/ANPR_RZA2M_GR_MANGO/src/tensorflow_lite/src/tensorflow/lite/kernels\kernel_util.h **** 
  33:C:/Renesas/e2studio_2021_01_workspace_RZA2M_ANPR/ANPR_RZA2M_GR_MANGO/src/tensorflow_lite/src/tensorflow/lite/kernels\kernel_util.h **** // Note: You must check if result is not null:
  34:C:/Renesas/e2studio_2021_01_workspace_RZA2M_ANPR/ANPR_RZA2M_GR_MANGO/src/tensorflow_lite/src/tensorflow/lite/kernels\kernel_util.h **** //
  35:C:/Renesas/e2studio_2021_01_workspace_RZA2M_ANPR/ANPR_RZA2M_GR_MANGO/src/tensorflow_lite/src/tensorflow/lite/kernels\kernel_util.h **** //   TfLiteTensor* my_tensor = GetInput(context, node, kMyTensorIdx);
  36:C:/Renesas/e2studio_2021_01_workspace_RZA2M_ANPR/ANPR_RZA2M_GR_MANGO/src/tensorflow_lite/src/tensorflow/lite/kernels\kernel_util.h **** //   TF_LITE_ENSURE(context, my_tensor != nullptr);
  37:C:/Renesas/e2studio_2021_01_workspace_RZA2M_ANPR/ANPR_RZA2M_GR_MANGO/src/tensorflow_lite/src/tensorflow/lite/kernels\kernel_util.h **** //
  38:C:/Renesas/e2studio_2021_01_workspace_RZA2M_ANPR/ANPR_RZA2M_GR_MANGO/src/tensorflow_lite/src/tensorflow/lite/kernels\kernel_util.h **** // This is because the index might point to the optional tensor constant
  39:C:/Renesas/e2studio_2021_01_workspace_RZA2M_ANPR/ANPR_RZA2M_GR_MANGO/src/tensorflow_lite/src/tensorflow/lite/kernels\kernel_util.h **** // (kTfLiteOptionalTensor) in which case there is no tensor to return.
  40:C:/Renesas/e2studio_2021_01_workspace_RZA2M_ANPR/ANPR_RZA2M_GR_MANGO/src/tensorflow_lite/src/tensorflow/lite/kernels\kernel_util.h **** const TfLiteTensor* GetInput(const TfLiteContext* context,
  41:C:/Renesas/e2studio_2021_01_workspace_RZA2M_ANPR/ANPR_RZA2M_GR_MANGO/src/tensorflow_lite/src/tensorflow/lite/kernels\kernel_util.h ****                              const TfLiteNode* node, int index);
  42:C:/Renesas/e2studio_2021_01_workspace_RZA2M_ANPR/ANPR_RZA2M_GR_MANGO/src/tensorflow_lite/src/tensorflow/lite/kernels\kernel_util.h **** 
  43:C:/Renesas/e2studio_2021_01_workspace_RZA2M_ANPR/ANPR_RZA2M_GR_MANGO/src/tensorflow_lite/src/tensorflow/lite/kernels\kernel_util.h **** // Same as `GetInput` but returns boolean and uses output argument for tensor.
  44:C:/Renesas/e2studio_2021_01_workspace_RZA2M_ANPR/ANPR_RZA2M_GR_MANGO/src/tensorflow_lite/src/tensorflow/lite/kernels\kernel_util.h **** //
  45:C:/Renesas/e2studio_2021_01_workspace_RZA2M_ANPR/ANPR_RZA2M_GR_MANGO/src/tensorflow_lite/src/tensorflow/lite/kernels\kernel_util.h **** //   TfLiteTensor* my_tensor;
  46:C:/Renesas/e2studio_2021_01_workspace_RZA2M_ANPR/ANPR_RZA2M_GR_MANGO/src/tensorflow_lite/src/tensorflow/lite/kernels\kernel_util.h **** //   TF_LITE_ENSURE_OK(context,
  47:C:/Renesas/e2studio_2021_01_workspace_RZA2M_ANPR/ANPR_RZA2M_GR_MANGO/src/tensorflow_lite/src/tensorflow/lite/kernels\kernel_util.h **** //                     GetInputSafe(context, node, kMyTensorIdx, &my_tensor));
  48:C:/Renesas/e2studio_2021_01_workspace_RZA2M_ANPR/ANPR_RZA2M_GR_MANGO/src/tensorflow_lite/src/tensorflow/lite/kernels\kernel_util.h **** //   // can use my_tensor directly from here onwards, it is not nullptr
  49:C:/Renesas/e2studio_2021_01_workspace_RZA2M_ANPR/ANPR_RZA2M_GR_MANGO/src/tensorflow_lite/src/tensorflow/lite/kernels\kernel_util.h **** //
  50:C:/Renesas/e2studio_2021_01_workspace_RZA2M_ANPR/ANPR_RZA2M_GR_MANGO/src/tensorflow_lite/src/tensorflow/lite/kernels\kernel_util.h **** // Should be used in cases where the binary size is too large.
  51:C:/Renesas/e2studio_2021_01_workspace_RZA2M_ANPR/ANPR_RZA2M_GR_MANGO/src/tensorflow_lite/src/tensorflow/lite/kernels\kernel_util.h **** TfLiteStatus GetInputSafe(const TfLiteContext* context, const TfLiteNode* node,
  52:C:/Renesas/e2studio_2021_01_workspace_RZA2M_ANPR/ANPR_RZA2M_GR_MANGO/src/tensorflow_lite/src/tensorflow/lite/kernels\kernel_util.h ****                           int index, const TfLiteTensor** tensor);
  53:C:/Renesas/e2studio_2021_01_workspace_RZA2M_ANPR/ANPR_RZA2M_GR_MANGO/src/tensorflow_lite/src/tensorflow/lite/kernels\kernel_util.h **** 
  54:C:/Renesas/e2studio_2021_01_workspace_RZA2M_ANPR/ANPR_RZA2M_GR_MANGO/src/tensorflow_lite/src/tensorflow/lite/kernels\kernel_util.h **** // Note: You must check if result is not null:
  55:C:/Renesas/e2studio_2021_01_workspace_RZA2M_ANPR/ANPR_RZA2M_GR_MANGO/src/tensorflow_lite/src/tensorflow/lite/kernels\kernel_util.h **** //
  56:C:/Renesas/e2studio_2021_01_workspace_RZA2M_ANPR/ANPR_RZA2M_GR_MANGO/src/tensorflow_lite/src/tensorflow/lite/kernels\kernel_util.h **** //   TfLiteTensor* my_tensor = GetVariableInput(context, node, kMyTensorIdx);
  57:C:/Renesas/e2studio_2021_01_workspace_RZA2M_ANPR/ANPR_RZA2M_GR_MANGO/src/tensorflow_lite/src/tensorflow/lite/kernels\kernel_util.h **** //   TF_LITE_ENSURE(context, my_tensor != nullptr);
  58:C:/Renesas/e2studio_2021_01_workspace_RZA2M_ANPR/ANPR_RZA2M_GR_MANGO/src/tensorflow_lite/src/tensorflow/lite/kernels\kernel_util.h **** //
  59:C:/Renesas/e2studio_2021_01_workspace_RZA2M_ANPR/ANPR_RZA2M_GR_MANGO/src/tensorflow_lite/src/tensorflow/lite/kernels\kernel_util.h **** // This is because the index might point to the optional tensor constant
  60:C:/Renesas/e2studio_2021_01_workspace_RZA2M_ANPR/ANPR_RZA2M_GR_MANGO/src/tensorflow_lite/src/tensorflow/lite/kernels\kernel_util.h **** // (kTfLiteOptionalTensor) in which case there is no tensor to return.
  61:C:/Renesas/e2studio_2021_01_workspace_RZA2M_ANPR/ANPR_RZA2M_GR_MANGO/src/tensorflow_lite/src/tensorflow/lite/kernels\kernel_util.h **** TfLiteTensor* GetVariableInput(TfLiteContext* context, const TfLiteNode* node,
  62:C:/Renesas/e2studio_2021_01_workspace_RZA2M_ANPR/ANPR_RZA2M_GR_MANGO/src/tensorflow_lite/src/tensorflow/lite/kernels\kernel_util.h ****                                int index);
  63:C:/Renesas/e2studio_2021_01_workspace_RZA2M_ANPR/ANPR_RZA2M_GR_MANGO/src/tensorflow_lite/src/tensorflow/lite/kernels\kernel_util.h **** 
  64:C:/Renesas/e2studio_2021_01_workspace_RZA2M_ANPR/ANPR_RZA2M_GR_MANGO/src/tensorflow_lite/src/tensorflow/lite/kernels\kernel_util.h **** // Note: You must check if result is not null:
  65:C:/Renesas/e2studio_2021_01_workspace_RZA2M_ANPR/ANPR_RZA2M_GR_MANGO/src/tensorflow_lite/src/tensorflow/lite/kernels\kernel_util.h **** //
  66:C:/Renesas/e2studio_2021_01_workspace_RZA2M_ANPR/ANPR_RZA2M_GR_MANGO/src/tensorflow_lite/src/tensorflow/lite/kernels\kernel_util.h **** //   TfLiteTensor* my_tensor = GetOutput(context, node, kMyTensorIdx);
  67:C:/Renesas/e2studio_2021_01_workspace_RZA2M_ANPR/ANPR_RZA2M_GR_MANGO/src/tensorflow_lite/src/tensorflow/lite/kernels\kernel_util.h **** //   TF_LITE_ENSURE(context, my_tensor != nullptr);
  68:C:/Renesas/e2studio_2021_01_workspace_RZA2M_ANPR/ANPR_RZA2M_GR_MANGO/src/tensorflow_lite/src/tensorflow/lite/kernels\kernel_util.h **** //
  69:C:/Renesas/e2studio_2021_01_workspace_RZA2M_ANPR/ANPR_RZA2M_GR_MANGO/src/tensorflow_lite/src/tensorflow/lite/kernels\kernel_util.h **** // This is because the index might point to the optional tensor constant
  70:C:/Renesas/e2studio_2021_01_workspace_RZA2M_ANPR/ANPR_RZA2M_GR_MANGO/src/tensorflow_lite/src/tensorflow/lite/kernels\kernel_util.h **** // (kTfLiteOptionalTensor) in which case there is no tensor to return.
  71:C:/Renesas/e2studio_2021_01_workspace_RZA2M_ANPR/ANPR_RZA2M_GR_MANGO/src/tensorflow_lite/src/tensorflow/lite/kernels\kernel_util.h **** TfLiteTensor* GetOutput(TfLiteContext* context, const TfLiteNode* node,
  72:C:/Renesas/e2studio_2021_01_workspace_RZA2M_ANPR/ANPR_RZA2M_GR_MANGO/src/tensorflow_lite/src/tensorflow/lite/kernels\kernel_util.h ****                         int index);
  73:C:/Renesas/e2studio_2021_01_workspace_RZA2M_ANPR/ANPR_RZA2M_GR_MANGO/src/tensorflow_lite/src/tensorflow/lite/kernels\kernel_util.h **** 
  74:C:/Renesas/e2studio_2021_01_workspace_RZA2M_ANPR/ANPR_RZA2M_GR_MANGO/src/tensorflow_lite/src/tensorflow/lite/kernels\kernel_util.h **** // Same as `GetOutput` but returns boolean and uses output argument for tensor.
  75:C:/Renesas/e2studio_2021_01_workspace_RZA2M_ANPR/ANPR_RZA2M_GR_MANGO/src/tensorflow_lite/src/tensorflow/lite/kernels\kernel_util.h **** //
  76:C:/Renesas/e2studio_2021_01_workspace_RZA2M_ANPR/ANPR_RZA2M_GR_MANGO/src/tensorflow_lite/src/tensorflow/lite/kernels\kernel_util.h **** //   TfLiteTensor* my_tensor;
  77:C:/Renesas/e2studio_2021_01_workspace_RZA2M_ANPR/ANPR_RZA2M_GR_MANGO/src/tensorflow_lite/src/tensorflow/lite/kernels\kernel_util.h **** //   TF_LITE_ENSURE_OK(context,
  78:C:/Renesas/e2studio_2021_01_workspace_RZA2M_ANPR/ANPR_RZA2M_GR_MANGO/src/tensorflow_lite/src/tensorflow/lite/kernels\kernel_util.h **** //                     GetOutputSafe(context, node, kMyTensorIdx, &my_tensor));
  79:C:/Renesas/e2studio_2021_01_workspace_RZA2M_ANPR/ANPR_RZA2M_GR_MANGO/src/tensorflow_lite/src/tensorflow/lite/kernels\kernel_util.h **** //   // can use my_tensor directly from here onwards, it is not nullptr
  80:C:/Renesas/e2studio_2021_01_workspace_RZA2M_ANPR/ANPR_RZA2M_GR_MANGO/src/tensorflow_lite/src/tensorflow/lite/kernels\kernel_util.h **** //
  81:C:/Renesas/e2studio_2021_01_workspace_RZA2M_ANPR/ANPR_RZA2M_GR_MANGO/src/tensorflow_lite/src/tensorflow/lite/kernels\kernel_util.h **** // Should be used in cases where the binary size is too large.
  82:C:/Renesas/e2studio_2021_01_workspace_RZA2M_ANPR/ANPR_RZA2M_GR_MANGO/src/tensorflow_lite/src/tensorflow/lite/kernels\kernel_util.h **** TfLiteStatus GetOutputSafe(const TfLiteContext* context, const TfLiteNode* node,
  83:C:/Renesas/e2studio_2021_01_workspace_RZA2M_ANPR/ANPR_RZA2M_GR_MANGO/src/tensorflow_lite/src/tensorflow/lite/kernels\kernel_util.h ****                            int index, TfLiteTensor** tensor);
  84:C:/Renesas/e2studio_2021_01_workspace_RZA2M_ANPR/ANPR_RZA2M_GR_MANGO/src/tensorflow_lite/src/tensorflow/lite/kernels\kernel_util.h **** 
  85:C:/Renesas/e2studio_2021_01_workspace_RZA2M_ANPR/ANPR_RZA2M_GR_MANGO/src/tensorflow_lite/src/tensorflow/lite/kernels\kernel_util.h **** // Note: You must check if result is not null:
  86:C:/Renesas/e2studio_2021_01_workspace_RZA2M_ANPR/ANPR_RZA2M_GR_MANGO/src/tensorflow_lite/src/tensorflow/lite/kernels\kernel_util.h **** //
  87:C:/Renesas/e2studio_2021_01_workspace_RZA2M_ANPR/ANPR_RZA2M_GR_MANGO/src/tensorflow_lite/src/tensorflow/lite/kernels\kernel_util.h **** //   TfLiteTensor* my_tensor = GetOptionalInputTensor(context, node, kIdx);
  88:C:/Renesas/e2studio_2021_01_workspace_RZA2M_ANPR/ANPR_RZA2M_GR_MANGO/src/tensorflow_lite/src/tensorflow/lite/kernels\kernel_util.h **** //   TF_LITE_ENSURE(context, my_tensor != nullptr);
  89:C:/Renesas/e2studio_2021_01_workspace_RZA2M_ANPR/ANPR_RZA2M_GR_MANGO/src/tensorflow_lite/src/tensorflow/lite/kernels\kernel_util.h **** //
  90:C:/Renesas/e2studio_2021_01_workspace_RZA2M_ANPR/ANPR_RZA2M_GR_MANGO/src/tensorflow_lite/src/tensorflow/lite/kernels\kernel_util.h **** // This is because the index might point to the optional tensor constant
  91:C:/Renesas/e2studio_2021_01_workspace_RZA2M_ANPR/ANPR_RZA2M_GR_MANGO/src/tensorflow_lite/src/tensorflow/lite/kernels\kernel_util.h **** // (kTfLiteOptionalTensor) in which case there is no tensor to return.
  92:C:/Renesas/e2studio_2021_01_workspace_RZA2M_ANPR/ANPR_RZA2M_GR_MANGO/src/tensorflow_lite/src/tensorflow/lite/kernels\kernel_util.h **** //
  93:C:/Renesas/e2studio_2021_01_workspace_RZA2M_ANPR/ANPR_RZA2M_GR_MANGO/src/tensorflow_lite/src/tensorflow/lite/kernels\kernel_util.h **** // Deprecated. GetInput has the same functionality.
  94:C:/Renesas/e2studio_2021_01_workspace_RZA2M_ANPR/ANPR_RZA2M_GR_MANGO/src/tensorflow_lite/src/tensorflow/lite/kernels\kernel_util.h **** const TfLiteTensor* GetOptionalInputTensor(const TfLiteContext* context,
  95:C:/Renesas/e2studio_2021_01_workspace_RZA2M_ANPR/ANPR_RZA2M_GR_MANGO/src/tensorflow_lite/src/tensorflow/lite/kernels\kernel_util.h ****                                            const TfLiteNode* node, int index);
  96:C:/Renesas/e2studio_2021_01_workspace_RZA2M_ANPR/ANPR_RZA2M_GR_MANGO/src/tensorflow_lite/src/tensorflow/lite/kernels\kernel_util.h **** 
  97:C:/Renesas/e2studio_2021_01_workspace_RZA2M_ANPR/ANPR_RZA2M_GR_MANGO/src/tensorflow_lite/src/tensorflow/lite/kernels\kernel_util.h **** #ifndef TF_LITE_STATIC_MEMORY
  98:C:/Renesas/e2studio_2021_01_workspace_RZA2M_ANPR/ANPR_RZA2M_GR_MANGO/src/tensorflow_lite/src/tensorflow/lite/kernels\kernel_util.h **** // Note: You must check if result is not null:
  99:C:/Renesas/e2studio_2021_01_workspace_RZA2M_ANPR/ANPR_RZA2M_GR_MANGO/src/tensorflow_lite/src/tensorflow/lite/kernels\kernel_util.h **** //
 100:C:/Renesas/e2studio_2021_01_workspace_RZA2M_ANPR/ANPR_RZA2M_GR_MANGO/src/tensorflow_lite/src/tensorflow/lite/kernels\kernel_util.h **** //   TfLiteTensor* my_tensor = GetTemporary(context, node, kMyTensorIdx);
 101:C:/Renesas/e2studio_2021_01_workspace_RZA2M_ANPR/ANPR_RZA2M_GR_MANGO/src/tensorflow_lite/src/tensorflow/lite/kernels\kernel_util.h **** //   TF_LITE_ENSURE(context, my_tensor != nullptr);
 102:C:/Renesas/e2studio_2021_01_workspace_RZA2M_ANPR/ANPR_RZA2M_GR_MANGO/src/tensorflow_lite/src/tensorflow/lite/kernels\kernel_util.h **** //
 103:C:/Renesas/e2studio_2021_01_workspace_RZA2M_ANPR/ANPR_RZA2M_GR_MANGO/src/tensorflow_lite/src/tensorflow/lite/kernels\kernel_util.h **** // This is because the index might point to the optional tensor constant
 104:C:/Renesas/e2studio_2021_01_workspace_RZA2M_ANPR/ANPR_RZA2M_GR_MANGO/src/tensorflow_lite/src/tensorflow/lite/kernels\kernel_util.h **** // (kTfLiteOptionalTensor) in which case there is no tensor to return.
 105:C:/Renesas/e2studio_2021_01_workspace_RZA2M_ANPR/ANPR_RZA2M_GR_MANGO/src/tensorflow_lite/src/tensorflow/lite/kernels\kernel_util.h **** TfLiteTensor* GetTemporary(TfLiteContext* context, const TfLiteNode* node,
 106:C:/Renesas/e2studio_2021_01_workspace_RZA2M_ANPR/ANPR_RZA2M_GR_MANGO/src/tensorflow_lite/src/tensorflow/lite/kernels\kernel_util.h ****                            int index);
 107:C:/Renesas/e2studio_2021_01_workspace_RZA2M_ANPR/ANPR_RZA2M_GR_MANGO/src/tensorflow_lite/src/tensorflow/lite/kernels\kernel_util.h **** 
 108:C:/Renesas/e2studio_2021_01_workspace_RZA2M_ANPR/ANPR_RZA2M_GR_MANGO/src/tensorflow_lite/src/tensorflow/lite/kernels\kernel_util.h **** // Same as `GetTemporary` but returns boolean and uses output argument for
 109:C:/Renesas/e2studio_2021_01_workspace_RZA2M_ANPR/ANPR_RZA2M_GR_MANGO/src/tensorflow_lite/src/tensorflow/lite/kernels\kernel_util.h **** // tensor.
 110:C:/Renesas/e2studio_2021_01_workspace_RZA2M_ANPR/ANPR_RZA2M_GR_MANGO/src/tensorflow_lite/src/tensorflow/lite/kernels\kernel_util.h **** //
 111:C:/Renesas/e2studio_2021_01_workspace_RZA2M_ANPR/ANPR_RZA2M_GR_MANGO/src/tensorflow_lite/src/tensorflow/lite/kernels\kernel_util.h **** //   TfLiteTensor* my_tensor;
 112:C:/Renesas/e2studio_2021_01_workspace_RZA2M_ANPR/ANPR_RZA2M_GR_MANGO/src/tensorflow_lite/src/tensorflow/lite/kernels\kernel_util.h **** //   TF_LITE_ENSURE_OK(context,
 113:C:/Renesas/e2studio_2021_01_workspace_RZA2M_ANPR/ANPR_RZA2M_GR_MANGO/src/tensorflow_lite/src/tensorflow/lite/kernels\kernel_util.h **** //                     GetTemporarySafe(context, node, kMyTensorIdx,
 114:C:/Renesas/e2studio_2021_01_workspace_RZA2M_ANPR/ANPR_RZA2M_GR_MANGO/src/tensorflow_lite/src/tensorflow/lite/kernels\kernel_util.h **** //                     &my_tensor));
 115:C:/Renesas/e2studio_2021_01_workspace_RZA2M_ANPR/ANPR_RZA2M_GR_MANGO/src/tensorflow_lite/src/tensorflow/lite/kernels\kernel_util.h **** //   // can use my_tensor directly from here onwards, it is not nullptr
 116:C:/Renesas/e2studio_2021_01_workspace_RZA2M_ANPR/ANPR_RZA2M_GR_MANGO/src/tensorflow_lite/src/tensorflow/lite/kernels\kernel_util.h **** //
 117:C:/Renesas/e2studio_2021_01_workspace_RZA2M_ANPR/ANPR_RZA2M_GR_MANGO/src/tensorflow_lite/src/tensorflow/lite/kernels\kernel_util.h **** // Should be used in cases where the binary size is too large.
 118:C:/Renesas/e2studio_2021_01_workspace_RZA2M_ANPR/ANPR_RZA2M_GR_MANGO/src/tensorflow_lite/src/tensorflow/lite/kernels\kernel_util.h **** TfLiteStatus GetTemporarySafe(const TfLiteContext* context,
 119:C:/Renesas/e2studio_2021_01_workspace_RZA2M_ANPR/ANPR_RZA2M_GR_MANGO/src/tensorflow_lite/src/tensorflow/lite/kernels\kernel_util.h ****                               const TfLiteNode* node, int index,
 120:C:/Renesas/e2studio_2021_01_workspace_RZA2M_ANPR/ANPR_RZA2M_GR_MANGO/src/tensorflow_lite/src/tensorflow/lite/kernels\kernel_util.h ****                               TfLiteTensor** tensor);
 121:C:/Renesas/e2studio_2021_01_workspace_RZA2M_ANPR/ANPR_RZA2M_GR_MANGO/src/tensorflow_lite/src/tensorflow/lite/kernels\kernel_util.h **** 
 122:C:/Renesas/e2studio_2021_01_workspace_RZA2M_ANPR/ANPR_RZA2M_GR_MANGO/src/tensorflow_lite/src/tensorflow/lite/kernels\kernel_util.h **** // Note: You must check if result is not null:
 123:C:/Renesas/e2studio_2021_01_workspace_RZA2M_ANPR/ANPR_RZA2M_GR_MANGO/src/tensorflow_lite/src/tensorflow/lite/kernels\kernel_util.h **** //
 124:C:/Renesas/e2studio_2021_01_workspace_RZA2M_ANPR/ANPR_RZA2M_GR_MANGO/src/tensorflow_lite/src/tensorflow/lite/kernels\kernel_util.h **** //   TfLiteTensor* my_tensor = GetIntermediates(context, node, kMyTensorIdx);
 125:C:/Renesas/e2studio_2021_01_workspace_RZA2M_ANPR/ANPR_RZA2M_GR_MANGO/src/tensorflow_lite/src/tensorflow/lite/kernels\kernel_util.h **** //   TF_LITE_ENSURE(context, my_tensor != nullptr);
 126:C:/Renesas/e2studio_2021_01_workspace_RZA2M_ANPR/ANPR_RZA2M_GR_MANGO/src/tensorflow_lite/src/tensorflow/lite/kernels\kernel_util.h **** //
 127:C:/Renesas/e2studio_2021_01_workspace_RZA2M_ANPR/ANPR_RZA2M_GR_MANGO/src/tensorflow_lite/src/tensorflow/lite/kernels\kernel_util.h **** // This is because the index might point to the optional tensor constant
 128:C:/Renesas/e2studio_2021_01_workspace_RZA2M_ANPR/ANPR_RZA2M_GR_MANGO/src/tensorflow_lite/src/tensorflow/lite/kernels\kernel_util.h **** // (kTfLiteOptionalTensor) in which case there is no tensor to return.
 129:C:/Renesas/e2studio_2021_01_workspace_RZA2M_ANPR/ANPR_RZA2M_GR_MANGO/src/tensorflow_lite/src/tensorflow/lite/kernels\kernel_util.h **** const TfLiteTensor* GetIntermediates(TfLiteContext* context,
 130:C:/Renesas/e2studio_2021_01_workspace_RZA2M_ANPR/ANPR_RZA2M_GR_MANGO/src/tensorflow_lite/src/tensorflow/lite/kernels\kernel_util.h ****                                      const TfLiteNode* node, int index);
 131:C:/Renesas/e2studio_2021_01_workspace_RZA2M_ANPR/ANPR_RZA2M_GR_MANGO/src/tensorflow_lite/src/tensorflow/lite/kernels\kernel_util.h **** 
 132:C:/Renesas/e2studio_2021_01_workspace_RZA2M_ANPR/ANPR_RZA2M_GR_MANGO/src/tensorflow_lite/src/tensorflow/lite/kernels\kernel_util.h **** // Same as `GetIntermediates` but returns boolean and uses output argument for
 133:C:/Renesas/e2studio_2021_01_workspace_RZA2M_ANPR/ANPR_RZA2M_GR_MANGO/src/tensorflow_lite/src/tensorflow/lite/kernels\kernel_util.h **** // tensor.
 134:C:/Renesas/e2studio_2021_01_workspace_RZA2M_ANPR/ANPR_RZA2M_GR_MANGO/src/tensorflow_lite/src/tensorflow/lite/kernels\kernel_util.h **** //
 135:C:/Renesas/e2studio_2021_01_workspace_RZA2M_ANPR/ANPR_RZA2M_GR_MANGO/src/tensorflow_lite/src/tensorflow/lite/kernels\kernel_util.h **** //   TfLiteTensor* my_tensor;
 136:C:/Renesas/e2studio_2021_01_workspace_RZA2M_ANPR/ANPR_RZA2M_GR_MANGO/src/tensorflow_lite/src/tensorflow/lite/kernels\kernel_util.h **** //   TF_LITE_ENSURE_OK(context,
 137:C:/Renesas/e2studio_2021_01_workspace_RZA2M_ANPR/ANPR_RZA2M_GR_MANGO/src/tensorflow_lite/src/tensorflow/lite/kernels\kernel_util.h **** //                     GetIntermediatesSafe(context, node, kMyTensorIdx,
 138:C:/Renesas/e2studio_2021_01_workspace_RZA2M_ANPR/ANPR_RZA2M_GR_MANGO/src/tensorflow_lite/src/tensorflow/lite/kernels\kernel_util.h **** //                     &my_tensor));
 139:C:/Renesas/e2studio_2021_01_workspace_RZA2M_ANPR/ANPR_RZA2M_GR_MANGO/src/tensorflow_lite/src/tensorflow/lite/kernels\kernel_util.h **** //   // can use my_tensor directly from here onwards, it is not nullptr
 140:C:/Renesas/e2studio_2021_01_workspace_RZA2M_ANPR/ANPR_RZA2M_GR_MANGO/src/tensorflow_lite/src/tensorflow/lite/kernels\kernel_util.h **** //
 141:C:/Renesas/e2studio_2021_01_workspace_RZA2M_ANPR/ANPR_RZA2M_GR_MANGO/src/tensorflow_lite/src/tensorflow/lite/kernels\kernel_util.h **** // Should be used in cases where the binary size is too large.
 142:C:/Renesas/e2studio_2021_01_workspace_RZA2M_ANPR/ANPR_RZA2M_GR_MANGO/src/tensorflow_lite/src/tensorflow/lite/kernels\kernel_util.h **** TfLiteStatus GetIntermediatesSafe(const TfLiteContext* context,
 143:C:/Renesas/e2studio_2021_01_workspace_RZA2M_ANPR/ANPR_RZA2M_GR_MANGO/src/tensorflow_lite/src/tensorflow/lite/kernels\kernel_util.h ****                                   const TfLiteNode* node, int index,
 144:C:/Renesas/e2studio_2021_01_workspace_RZA2M_ANPR/ANPR_RZA2M_GR_MANGO/src/tensorflow_lite/src/tensorflow/lite/kernels\kernel_util.h ****                                   TfLiteTensor** tensor);
 145:C:/Renesas/e2studio_2021_01_workspace_RZA2M_ANPR/ANPR_RZA2M_GR_MANGO/src/tensorflow_lite/src/tensorflow/lite/kernels\kernel_util.h **** #endif  // TF_LITE_STATIC_MEMORY
 146:C:/Renesas/e2studio_2021_01_workspace_RZA2M_ANPR/ANPR_RZA2M_GR_MANGO/src/tensorflow_lite/src/tensorflow/lite/kernels\kernel_util.h **** 
 147:C:/Renesas/e2studio_2021_01_workspace_RZA2M_ANPR/ANPR_RZA2M_GR_MANGO/src/tensorflow_lite/src/tensorflow/lite/kernels\kernel_util.h **** inline int NumDimensions(const TfLiteTensor* t) { return t->dims->size; }
 148:C:/Renesas/e2studio_2021_01_workspace_RZA2M_ANPR/ANPR_RZA2M_GR_MANGO/src/tensorflow_lite/src/tensorflow/lite/kernels\kernel_util.h **** inline int SizeOfDimension(const TfLiteTensor* t, int dim) {
 149:C:/Renesas/e2studio_2021_01_workspace_RZA2M_ANPR/ANPR_RZA2M_GR_MANGO/src/tensorflow_lite/src/tensorflow/lite/kernels\kernel_util.h ****   return t->dims->data[dim];
 150:C:/Renesas/e2studio_2021_01_workspace_RZA2M_ANPR/ANPR_RZA2M_GR_MANGO/src/tensorflow_lite/src/tensorflow/lite/kernels\kernel_util.h **** }
 151:C:/Renesas/e2studio_2021_01_workspace_RZA2M_ANPR/ANPR_RZA2M_GR_MANGO/src/tensorflow_lite/src/tensorflow/lite/kernels\kernel_util.h **** 
 152:C:/Renesas/e2studio_2021_01_workspace_RZA2M_ANPR/ANPR_RZA2M_GR_MANGO/src/tensorflow_lite/src/tensorflow/lite/kernels\kernel_util.h **** inline int NumInputs(const TfLiteNode* node) { return node->inputs->size; }
 153:C:/Renesas/e2studio_2021_01_workspace_RZA2M_ANPR/ANPR_RZA2M_GR_MANGO/src/tensorflow_lite/src/tensorflow/lite/kernels\kernel_util.h **** inline int NumOutputs(const TfLiteNode* node) { return node->outputs->size; }
 154:C:/Renesas/e2studio_2021_01_workspace_RZA2M_ANPR/ANPR_RZA2M_GR_MANGO/src/tensorflow_lite/src/tensorflow/lite/kernels\kernel_util.h **** 
 155:C:/Renesas/e2studio_2021_01_workspace_RZA2M_ANPR/ANPR_RZA2M_GR_MANGO/src/tensorflow_lite/src/tensorflow/lite/kernels\kernel_util.h **** #ifndef TF_LITE_STATIC_MEMORY
 156:C:/Renesas/e2studio_2021_01_workspace_RZA2M_ANPR/ANPR_RZA2M_GR_MANGO/src/tensorflow_lite/src/tensorflow/lite/kernels\kernel_util.h **** inline int NumIntermediates(const TfLiteNode* node) {
 157:C:/Renesas/e2studio_2021_01_workspace_RZA2M_ANPR/ANPR_RZA2M_GR_MANGO/src/tensorflow_lite/src/tensorflow/lite/kernels\kernel_util.h ****   return node->intermediates->size;
 158:C:/Renesas/e2studio_2021_01_workspace_RZA2M_ANPR/ANPR_RZA2M_GR_MANGO/src/tensorflow_lite/src/tensorflow/lite/kernels\kernel_util.h **** }
 159:C:/Renesas/e2studio_2021_01_workspace_RZA2M_ANPR/ANPR_RZA2M_GR_MANGO/src/tensorflow_lite/src/tensorflow/lite/kernels\kernel_util.h **** #endif  // TF_LITE_STATIC_MEMORY
 160:C:/Renesas/e2studio_2021_01_workspace_RZA2M_ANPR/ANPR_RZA2M_GR_MANGO/src/tensorflow_lite/src/tensorflow/lite/kernels\kernel_util.h **** 
 161:C:/Renesas/e2studio_2021_01_workspace_RZA2M_ANPR/ANPR_RZA2M_GR_MANGO/src/tensorflow_lite/src/tensorflow/lite/kernels\kernel_util.h **** inline int64_t NumElements(const TfLiteIntArray* dims) {
 162:C:/Renesas/e2studio_2021_01_workspace_RZA2M_ANPR/ANPR_RZA2M_GR_MANGO/src/tensorflow_lite/src/tensorflow/lite/kernels\kernel_util.h ****   int64_t count = 1;
 163:C:/Renesas/e2studio_2021_01_workspace_RZA2M_ANPR/ANPR_RZA2M_GR_MANGO/src/tensorflow_lite/src/tensorflow/lite/kernels\kernel_util.h ****   for (int i = 0; i < dims->size; ++i) {
 164:C:/Renesas/e2studio_2021_01_workspace_RZA2M_ANPR/ANPR_RZA2M_GR_MANGO/src/tensorflow_lite/src/tensorflow/lite/kernels\kernel_util.h ****     count *= dims->data[i];
 165:C:/Renesas/e2studio_2021_01_workspace_RZA2M_ANPR/ANPR_RZA2M_GR_MANGO/src/tensorflow_lite/src/tensorflow/lite/kernels\kernel_util.h ****   }
 166:C:/Renesas/e2studio_2021_01_workspace_RZA2M_ANPR/ANPR_RZA2M_GR_MANGO/src/tensorflow_lite/src/tensorflow/lite/kernels\kernel_util.h ****   return count;
 167:C:/Renesas/e2studio_2021_01_workspace_RZA2M_ANPR/ANPR_RZA2M_GR_MANGO/src/tensorflow_lite/src/tensorflow/lite/kernels\kernel_util.h **** }
 168:C:/Renesas/e2studio_2021_01_workspace_RZA2M_ANPR/ANPR_RZA2M_GR_MANGO/src/tensorflow_lite/src/tensorflow/lite/kernels\kernel_util.h **** 
 169:C:/Renesas/e2studio_2021_01_workspace_RZA2M_ANPR/ANPR_RZA2M_GR_MANGO/src/tensorflow_lite/src/tensorflow/lite/kernels\kernel_util.h **** inline int64_t NumElements(const TfLiteTensor* t) {
 170:C:/Renesas/e2studio_2021_01_workspace_RZA2M_ANPR/ANPR_RZA2M_GR_MANGO/src/tensorflow_lite/src/tensorflow/lite/kernels\kernel_util.h ****   return NumElements(t->dims);
 171:C:/Renesas/e2studio_2021_01_workspace_RZA2M_ANPR/ANPR_RZA2M_GR_MANGO/src/tensorflow_lite/src/tensorflow/lite/kernels\kernel_util.h **** }
 172:C:/Renesas/e2studio_2021_01_workspace_RZA2M_ANPR/ANPR_RZA2M_GR_MANGO/src/tensorflow_lite/src/tensorflow/lite/kernels\kernel_util.h **** 
 173:C:/Renesas/e2studio_2021_01_workspace_RZA2M_ANPR/ANPR_RZA2M_GR_MANGO/src/tensorflow_lite/src/tensorflow/lite/kernels\kernel_util.h **** // Determines whether tensor is constant.
 174:C:/Renesas/e2studio_2021_01_workspace_RZA2M_ANPR/ANPR_RZA2M_GR_MANGO/src/tensorflow_lite/src/tensorflow/lite/kernels\kernel_util.h **** // TODO(b/138199592): Introduce new query which checks for constant OR
 175:C:/Renesas/e2studio_2021_01_workspace_RZA2M_ANPR/ANPR_RZA2M_GR_MANGO/src/tensorflow_lite/src/tensorflow/lite/kernels\kernel_util.h **** // persistent-read-only, which would be useful for most tensor kernels that
 176:C:/Renesas/e2studio_2021_01_workspace_RZA2M_ANPR/ANPR_RZA2M_GR_MANGO/src/tensorflow_lite/src/tensorflow/lite/kernels\kernel_util.h **** // are potentially dynamic based on the input tensor value availability at the
 177:C:/Renesas/e2studio_2021_01_workspace_RZA2M_ANPR/ANPR_RZA2M_GR_MANGO/src/tensorflow_lite/src/tensorflow/lite/kernels\kernel_util.h **** // time of prepare.
 178:C:/Renesas/e2studio_2021_01_workspace_RZA2M_ANPR/ANPR_RZA2M_GR_MANGO/src/tensorflow_lite/src/tensorflow/lite/kernels\kernel_util.h **** inline bool IsConstantTensor(const TfLiteTensor* tensor) {
 179:C:/Renesas/e2studio_2021_01_workspace_RZA2M_ANPR/ANPR_RZA2M_GR_MANGO/src/tensorflow_lite/src/tensorflow/lite/kernels\kernel_util.h ****   return tensor->allocation_type == kTfLiteMmapRo;
 180:C:/Renesas/e2studio_2021_01_workspace_RZA2M_ANPR/ANPR_RZA2M_GR_MANGO/src/tensorflow_lite/src/tensorflow/lite/kernels\kernel_util.h **** }
 181:C:/Renesas/e2studio_2021_01_workspace_RZA2M_ANPR/ANPR_RZA2M_GR_MANGO/src/tensorflow_lite/src/tensorflow/lite/kernels\kernel_util.h **** 
 182:C:/Renesas/e2studio_2021_01_workspace_RZA2M_ANPR/ANPR_RZA2M_GR_MANGO/src/tensorflow_lite/src/tensorflow/lite/kernels\kernel_util.h **** // Determines whether tensor is dynamic. Note that a tensor can be non-const and
 183:C:/Renesas/e2studio_2021_01_workspace_RZA2M_ANPR/ANPR_RZA2M_GR_MANGO/src/tensorflow_lite/src/tensorflow/lite/kernels\kernel_util.h **** // not dynamic. This function specifically checks for a dynamic tensor.
 184:C:/Renesas/e2studio_2021_01_workspace_RZA2M_ANPR/ANPR_RZA2M_GR_MANGO/src/tensorflow_lite/src/tensorflow/lite/kernels\kernel_util.h **** inline bool IsDynamicTensor(const TfLiteTensor* tensor) {
 185:C:/Renesas/e2studio_2021_01_workspace_RZA2M_ANPR/ANPR_RZA2M_GR_MANGO/src/tensorflow_lite/src/tensorflow/lite/kernels\kernel_util.h ****   return tensor->allocation_type == kTfLiteDynamic;
 186:C:/Renesas/e2studio_2021_01_workspace_RZA2M_ANPR/ANPR_RZA2M_GR_MANGO/src/tensorflow_lite/src/tensorflow/lite/kernels\kernel_util.h **** }
 187:C:/Renesas/e2studio_2021_01_workspace_RZA2M_ANPR/ANPR_RZA2M_GR_MANGO/src/tensorflow_lite/src/tensorflow/lite/kernels\kernel_util.h **** 
 188:C:/Renesas/e2studio_2021_01_workspace_RZA2M_ANPR/ANPR_RZA2M_GR_MANGO/src/tensorflow_lite/src/tensorflow/lite/kernels\kernel_util.h **** // Sets tensor to dynamic.
 189:C:/Renesas/e2studio_2021_01_workspace_RZA2M_ANPR/ANPR_RZA2M_GR_MANGO/src/tensorflow_lite/src/tensorflow/lite/kernels\kernel_util.h **** inline void SetTensorToDynamic(TfLiteTensor* tensor) {
 190:C:/Renesas/e2studio_2021_01_workspace_RZA2M_ANPR/ANPR_RZA2M_GR_MANGO/src/tensorflow_lite/src/tensorflow/lite/kernels\kernel_util.h ****   if (tensor->allocation_type != kTfLiteDynamic) {
 191:C:/Renesas/e2studio_2021_01_workspace_RZA2M_ANPR/ANPR_RZA2M_GR_MANGO/src/tensorflow_lite/src/tensorflow/lite/kernels\kernel_util.h ****     tensor->allocation_type = kTfLiteDynamic;
 192:C:/Renesas/e2studio_2021_01_workspace_RZA2M_ANPR/ANPR_RZA2M_GR_MANGO/src/tensorflow_lite/src/tensorflow/lite/kernels\kernel_util.h ****     tensor->data.raw = nullptr;
 193:C:/Renesas/e2studio_2021_01_workspace_RZA2M_ANPR/ANPR_RZA2M_GR_MANGO/src/tensorflow_lite/src/tensorflow/lite/kernels\kernel_util.h ****   }
 194:C:/Renesas/e2studio_2021_01_workspace_RZA2M_ANPR/ANPR_RZA2M_GR_MANGO/src/tensorflow_lite/src/tensorflow/lite/kernels\kernel_util.h **** }
 195:C:/Renesas/e2studio_2021_01_workspace_RZA2M_ANPR/ANPR_RZA2M_GR_MANGO/src/tensorflow_lite/src/tensorflow/lite/kernels\kernel_util.h **** 
 196:C:/Renesas/e2studio_2021_01_workspace_RZA2M_ANPR/ANPR_RZA2M_GR_MANGO/src/tensorflow_lite/src/tensorflow/lite/kernels\kernel_util.h **** // Sets tensor to persistent and read-only.
 197:C:/Renesas/e2studio_2021_01_workspace_RZA2M_ANPR/ANPR_RZA2M_GR_MANGO/src/tensorflow_lite/src/tensorflow/lite/kernels\kernel_util.h **** inline void SetTensorToPersistentRo(TfLiteTensor* tensor) {
 198:C:/Renesas/e2studio_2021_01_workspace_RZA2M_ANPR/ANPR_RZA2M_GR_MANGO/src/tensorflow_lite/src/tensorflow/lite/kernels\kernel_util.h ****   if (tensor->allocation_type != kTfLitePersistentRo) {
 199:C:/Renesas/e2studio_2021_01_workspace_RZA2M_ANPR/ANPR_RZA2M_GR_MANGO/src/tensorflow_lite/src/tensorflow/lite/kernels\kernel_util.h ****     tensor->allocation_type = kTfLitePersistentRo;
 200:C:/Renesas/e2studio_2021_01_workspace_RZA2M_ANPR/ANPR_RZA2M_GR_MANGO/src/tensorflow_lite/src/tensorflow/lite/kernels\kernel_util.h ****     tensor->data.raw = nullptr;
 201:C:/Renesas/e2studio_2021_01_workspace_RZA2M_ANPR/ANPR_RZA2M_GR_MANGO/src/tensorflow_lite/src/tensorflow/lite/kernels\kernel_util.h ****   }
 202:C:/Renesas/e2studio_2021_01_workspace_RZA2M_ANPR/ANPR_RZA2M_GR_MANGO/src/tensorflow_lite/src/tensorflow/lite/kernels\kernel_util.h **** }
 203:C:/Renesas/e2studio_2021_01_workspace_RZA2M_ANPR/ANPR_RZA2M_GR_MANGO/src/tensorflow_lite/src/tensorflow/lite/kernels\kernel_util.h **** 
 204:C:/Renesas/e2studio_2021_01_workspace_RZA2M_ANPR/ANPR_RZA2M_GR_MANGO/src/tensorflow_lite/src/tensorflow/lite/kernels\kernel_util.h **** // Determines whether it is a hybrid op - one that has float inputs and
 205:C:/Renesas/e2studio_2021_01_workspace_RZA2M_ANPR/ANPR_RZA2M_GR_MANGO/src/tensorflow_lite/src/tensorflow/lite/kernels\kernel_util.h **** // quantized weights.
 206:C:/Renesas/e2studio_2021_01_workspace_RZA2M_ANPR/ANPR_RZA2M_GR_MANGO/src/tensorflow_lite/src/tensorflow/lite/kernels\kernel_util.h **** inline bool IsHybridOp(const TfLiteTensor* input, const TfLiteTensor* weight) {
 207:C:/Renesas/e2studio_2021_01_workspace_RZA2M_ANPR/ANPR_RZA2M_GR_MANGO/src/tensorflow_lite/src/tensorflow/lite/kernels\kernel_util.h ****   return ((weight->type == kTfLiteUInt8 || weight->type == kTfLiteInt8) &&
 208:C:/Renesas/e2studio_2021_01_workspace_RZA2M_ANPR/ANPR_RZA2M_GR_MANGO/src/tensorflow_lite/src/tensorflow/lite/kernels\kernel_util.h ****           input->type == kTfLiteFloat32);
 209:C:/Renesas/e2studio_2021_01_workspace_RZA2M_ANPR/ANPR_RZA2M_GR_MANGO/src/tensorflow_lite/src/tensorflow/lite/kernels\kernel_util.h **** }
 210:C:/Renesas/e2studio_2021_01_workspace_RZA2M_ANPR/ANPR_RZA2M_GR_MANGO/src/tensorflow_lite/src/tensorflow/lite/kernels\kernel_util.h **** 
 211:C:/Renesas/e2studio_2021_01_workspace_RZA2M_ANPR/ANPR_RZA2M_GR_MANGO/src/tensorflow_lite/src/tensorflow/lite/kernels\kernel_util.h **** // Check dimensionality match and populate OpData for Conv and DepthwiseConv.
 212:C:/Renesas/e2studio_2021_01_workspace_RZA2M_ANPR/ANPR_RZA2M_GR_MANGO/src/tensorflow_lite/src/tensorflow/lite/kernels\kernel_util.h **** TfLiteStatus PopulateConvolutionQuantizationParams(
 213:C:/Renesas/e2studio_2021_01_workspace_RZA2M_ANPR/ANPR_RZA2M_GR_MANGO/src/tensorflow_lite/src/tensorflow/lite/kernels\kernel_util.h ****     TfLiteContext* context, const TfLiteTensor* input,
 214:C:/Renesas/e2studio_2021_01_workspace_RZA2M_ANPR/ANPR_RZA2M_GR_MANGO/src/tensorflow_lite/src/tensorflow/lite/kernels\kernel_util.h ****     const TfLiteTensor* filter, const TfLiteTensor* bias, TfLiteTensor* output,
 215:C:/Renesas/e2studio_2021_01_workspace_RZA2M_ANPR/ANPR_RZA2M_GR_MANGO/src/tensorflow_lite/src/tensorflow/lite/kernels\kernel_util.h ****     const TfLiteFusedActivation& activation, int32_t* multiplier, int* shift,
 216:C:/Renesas/e2studio_2021_01_workspace_RZA2M_ANPR/ANPR_RZA2M_GR_MANGO/src/tensorflow_lite/src/tensorflow/lite/kernels\kernel_util.h ****     int32_t* output_activation_min, int32_t* output_activation_max,
 217:C:/Renesas/e2studio_2021_01_workspace_RZA2M_ANPR/ANPR_RZA2M_GR_MANGO/src/tensorflow_lite/src/tensorflow/lite/kernels\kernel_util.h ****     int32_t* per_channel_multiplier, int* per_channel_shift);
 218:C:/Renesas/e2studio_2021_01_workspace_RZA2M_ANPR/ANPR_RZA2M_GR_MANGO/src/tensorflow_lite/src/tensorflow/lite/kernels\kernel_util.h **** 
 219:C:/Renesas/e2studio_2021_01_workspace_RZA2M_ANPR/ANPR_RZA2M_GR_MANGO/src/tensorflow_lite/src/tensorflow/lite/kernels\kernel_util.h **** TfLiteStatus PopulateConvolutionQuantizationParams(
 220:C:/Renesas/e2studio_2021_01_workspace_RZA2M_ANPR/ANPR_RZA2M_GR_MANGO/src/tensorflow_lite/src/tensorflow/lite/kernels\kernel_util.h ****     TfLiteContext* context, const TfLiteTensor* input,
 221:C:/Renesas/e2studio_2021_01_workspace_RZA2M_ANPR/ANPR_RZA2M_GR_MANGO/src/tensorflow_lite/src/tensorflow/lite/kernels\kernel_util.h ****     const TfLiteTensor* filter, const TfLiteTensor* bias, TfLiteTensor* output,
 222:C:/Renesas/e2studio_2021_01_workspace_RZA2M_ANPR/ANPR_RZA2M_GR_MANGO/src/tensorflow_lite/src/tensorflow/lite/kernels\kernel_util.h ****     const TfLiteFusedActivation& activation, int32_t* multiplier, int* shift,
 223:C:/Renesas/e2studio_2021_01_workspace_RZA2M_ANPR/ANPR_RZA2M_GR_MANGO/src/tensorflow_lite/src/tensorflow/lite/kernels\kernel_util.h ****     int32_t* output_activation_min, int32_t* output_activation_max,
 224:C:/Renesas/e2studio_2021_01_workspace_RZA2M_ANPR/ANPR_RZA2M_GR_MANGO/src/tensorflow_lite/src/tensorflow/lite/kernels\kernel_util.h ****     int32_t* per_channel_multiplier, int* per_channel_shift, int num_channels);
 225:C:/Renesas/e2studio_2021_01_workspace_RZA2M_ANPR/ANPR_RZA2M_GR_MANGO/src/tensorflow_lite/src/tensorflow/lite/kernels\kernel_util.h **** 
 226:C:/Renesas/e2studio_2021_01_workspace_RZA2M_ANPR/ANPR_RZA2M_GR_MANGO/src/tensorflow_lite/src/tensorflow/lite/kernels\kernel_util.h **** // Calculates the multiplication factor for a quantized convolution (or
 227:C:/Renesas/e2studio_2021_01_workspace_RZA2M_ANPR/ANPR_RZA2M_GR_MANGO/src/tensorflow_lite/src/tensorflow/lite/kernels\kernel_util.h **** // quantized depthwise convolution) involving the given tensors. Returns an
 228:C:/Renesas/e2studio_2021_01_workspace_RZA2M_ANPR/ANPR_RZA2M_GR_MANGO/src/tensorflow_lite/src/tensorflow/lite/kernels\kernel_util.h **** // error if the scales of the tensors are not compatible.
 229:C:/Renesas/e2studio_2021_01_workspace_RZA2M_ANPR/ANPR_RZA2M_GR_MANGO/src/tensorflow_lite/src/tensorflow/lite/kernels\kernel_util.h **** TfLiteStatus GetQuantizedConvolutionMultipler(TfLiteContext* context,
 230:C:/Renesas/e2studio_2021_01_workspace_RZA2M_ANPR/ANPR_RZA2M_GR_MANGO/src/tensorflow_lite/src/tensorflow/lite/kernels\kernel_util.h ****                                               const TfLiteTensor* input,
 231:C:/Renesas/e2studio_2021_01_workspace_RZA2M_ANPR/ANPR_RZA2M_GR_MANGO/src/tensorflow_lite/src/tensorflow/lite/kernels\kernel_util.h ****                                               const TfLiteTensor* filter,
 232:C:/Renesas/e2studio_2021_01_workspace_RZA2M_ANPR/ANPR_RZA2M_GR_MANGO/src/tensorflow_lite/src/tensorflow/lite/kernels\kernel_util.h ****                                               const TfLiteTensor* bias,
 233:C:/Renesas/e2studio_2021_01_workspace_RZA2M_ANPR/ANPR_RZA2M_GR_MANGO/src/tensorflow_lite/src/tensorflow/lite/kernels\kernel_util.h ****                                               TfLiteTensor* output,
 234:C:/Renesas/e2studio_2021_01_workspace_RZA2M_ANPR/ANPR_RZA2M_GR_MANGO/src/tensorflow_lite/src/tensorflow/lite/kernels\kernel_util.h ****                                               double* multiplier);
 235:C:/Renesas/e2studio_2021_01_workspace_RZA2M_ANPR/ANPR_RZA2M_GR_MANGO/src/tensorflow_lite/src/tensorflow/lite/kernels\kernel_util.h **** 
 236:C:/Renesas/e2studio_2021_01_workspace_RZA2M_ANPR/ANPR_RZA2M_GR_MANGO/src/tensorflow_lite/src/tensorflow/lite/kernels\kernel_util.h **** TfLiteStatus GetQuantizedConvolutionMultipler(TfLiteContext* context,
 237:C:/Renesas/e2studio_2021_01_workspace_RZA2M_ANPR/ANPR_RZA2M_GR_MANGO/src/tensorflow_lite/src/tensorflow/lite/kernels\kernel_util.h ****                                               const TfLiteTensor* input,
 238:C:/Renesas/e2studio_2021_01_workspace_RZA2M_ANPR/ANPR_RZA2M_GR_MANGO/src/tensorflow_lite/src/tensorflow/lite/kernels\kernel_util.h ****                                               const TfLiteTensor* filter,
 239:C:/Renesas/e2studio_2021_01_workspace_RZA2M_ANPR/ANPR_RZA2M_GR_MANGO/src/tensorflow_lite/src/tensorflow/lite/kernels\kernel_util.h ****                                               TfLiteTensor* output,
 240:C:/Renesas/e2studio_2021_01_workspace_RZA2M_ANPR/ANPR_RZA2M_GR_MANGO/src/tensorflow_lite/src/tensorflow/lite/kernels\kernel_util.h ****                                               double* multiplier);
 241:C:/Renesas/e2studio_2021_01_workspace_RZA2M_ANPR/ANPR_RZA2M_GR_MANGO/src/tensorflow_lite/src/tensorflow/lite/kernels\kernel_util.h **** 
 242:C:/Renesas/e2studio_2021_01_workspace_RZA2M_ANPR/ANPR_RZA2M_GR_MANGO/src/tensorflow_lite/src/tensorflow/lite/kernels\kernel_util.h **** // Calculates the useful quantized range of an activation layer given its
 243:C:/Renesas/e2studio_2021_01_workspace_RZA2M_ANPR/ANPR_RZA2M_GR_MANGO/src/tensorflow_lite/src/tensorflow/lite/kernels\kernel_util.h **** // activation tensor.
 244:C:/Renesas/e2studio_2021_01_workspace_RZA2M_ANPR/ANPR_RZA2M_GR_MANGO/src/tensorflow_lite/src/tensorflow/lite/kernels\kernel_util.h **** TfLiteStatus CalculateActivationRangeQuantized(TfLiteContext* context,
 245:C:/Renesas/e2studio_2021_01_workspace_RZA2M_ANPR/ANPR_RZA2M_GR_MANGO/src/tensorflow_lite/src/tensorflow/lite/kernels\kernel_util.h ****                                                TfLiteFusedActivation activation,
 246:C:/Renesas/e2studio_2021_01_workspace_RZA2M_ANPR/ANPR_RZA2M_GR_MANGO/src/tensorflow_lite/src/tensorflow/lite/kernels\kernel_util.h ****                                                TfLiteTensor* output,
 247:C:/Renesas/e2studio_2021_01_workspace_RZA2M_ANPR/ANPR_RZA2M_GR_MANGO/src/tensorflow_lite/src/tensorflow/lite/kernels\kernel_util.h ****                                                int32_t* act_min,
 248:C:/Renesas/e2studio_2021_01_workspace_RZA2M_ANPR/ANPR_RZA2M_GR_MANGO/src/tensorflow_lite/src/tensorflow/lite/kernels\kernel_util.h ****                                                int32_t* act_max);
 249:C:/Renesas/e2studio_2021_01_workspace_RZA2M_ANPR/ANPR_RZA2M_GR_MANGO/src/tensorflow_lite/src/tensorflow/lite/kernels\kernel_util.h **** 
 250:C:/Renesas/e2studio_2021_01_workspace_RZA2M_ANPR/ANPR_RZA2M_GR_MANGO/src/tensorflow_lite/src/tensorflow/lite/kernels\kernel_util.h **** // Calculates the useful range of an activation layer given its activation
 251:C:/Renesas/e2studio_2021_01_workspace_RZA2M_ANPR/ANPR_RZA2M_GR_MANGO/src/tensorflow_lite/src/tensorflow/lite/kernels\kernel_util.h **** // tensor.a
 252:C:/Renesas/e2studio_2021_01_workspace_RZA2M_ANPR/ANPR_RZA2M_GR_MANGO/src/tensorflow_lite/src/tensorflow/lite/kernels\kernel_util.h **** template <typename T>
 253:C:/Renesas/e2studio_2021_01_workspace_RZA2M_ANPR/ANPR_RZA2M_GR_MANGO/src/tensorflow_lite/src/tensorflow/lite/kernels\kernel_util.h **** void CalculateActivationRange(TfLiteFusedActivation activation,
 254:C:/Renesas/e2studio_2021_01_workspace_RZA2M_ANPR/ANPR_RZA2M_GR_MANGO/src/tensorflow_lite/src/tensorflow/lite/kernels\kernel_util.h ****                               T* activation_min, T* activation_max) {
 255:C:/Renesas/e2studio_2021_01_workspace_RZA2M_ANPR/ANPR_RZA2M_GR_MANGO/src/tensorflow_lite/src/tensorflow/lite/kernels\kernel_util.h ****   if (activation == kTfLiteActRelu) {
 323              		.loc 3 255 0
 324 016c 010053E3 		cmp	r3, #1
 256:C:/Renesas/e2studio_2021_01_workspace_RZA2M_ANPR/ANPR_RZA2M_GR_MANGO/src/tensorflow_lite/src/tensorflow/lite/kernels\kernel_util.h ****     *activation_min = 0;
 325              		.loc 3 256 0
 326 0170 0020A003 		moveq	r2, #0
 255:C:/Renesas/e2studio_2021_01_workspace_RZA2M_ANPR/ANPR_RZA2M_GR_MANGO/src/tensorflow_lite/src/tensorflow/lite/kernels\kernel_util.h ****     *activation_min = 0;
 327              		.loc 3 255 0
 328 0174 0400000A 		beq	.L28
 257:C:/Renesas/e2studio_2021_01_workspace_RZA2M_ANPR/ANPR_RZA2M_GR_MANGO/src/tensorflow_lite/src/tensorflow/lite/kernels\kernel_util.h ****     *activation_max = std::numeric_limits<T>::max();
 258:C:/Renesas/e2studio_2021_01_workspace_RZA2M_ANPR/ANPR_RZA2M_GR_MANGO/src/tensorflow_lite/src/tensorflow/lite/kernels\kernel_util.h ****   } else if (activation == kTfLiteActRelu6) {
 329              		.loc 3 258 0
 330 0178 030053E3 		cmp	r3, #3
 331 017c 3300000A 		beq	.L34
 259:C:/Renesas/e2studio_2021_01_workspace_RZA2M_ANPR/ANPR_RZA2M_GR_MANGO/src/tensorflow_lite/src/tensorflow/lite/kernels\kernel_util.h ****     *activation_min = 0;
 260:C:/Renesas/e2studio_2021_01_workspace_RZA2M_ANPR/ANPR_RZA2M_GR_MANGO/src/tensorflow_lite/src/tensorflow/lite/kernels\kernel_util.h ****     *activation_max = 6;
 261:C:/Renesas/e2studio_2021_01_workspace_RZA2M_ANPR/ANPR_RZA2M_GR_MANGO/src/tensorflow_lite/src/tensorflow/lite/kernels\kernel_util.h ****   } else if (activation == kTfLiteActReluN1To1) {
 332              		.loc 3 261 0
 333 0180 020053E3 		cmp	r3, #2
 262:C:/Renesas/e2studio_2021_01_workspace_RZA2M_ANPR/ANPR_RZA2M_GR_MANGO/src/tensorflow_lite/src/tensorflow/lite/kernels\kernel_util.h ****     *activation_min = -1;
 263:C:/Renesas/e2studio_2021_01_workspace_RZA2M_ANPR/ANPR_RZA2M_GR_MANGO/src/tensorflow_lite/src/tensorflow/lite/kernels\kernel_util.h ****     *activation_max = 1;
 264:C:/Renesas/e2studio_2021_01_workspace_RZA2M_ANPR/ANPR_RZA2M_GR_MANGO/src/tensorflow_lite/src/tensorflow/lite/kernels\kernel_util.h ****   } else {
 265:C:/Renesas/e2studio_2021_01_workspace_RZA2M_ANPR/ANPR_RZA2M_GR_MANGO/src/tensorflow_lite/src/tensorflow/lite/kernels\kernel_util.h ****     *activation_min = std::numeric_limits<T>::lowest();
 334              		.loc 3 265 0
 335 0184 0225E013 		mvnne	r2, #8388608
 261:C:/Renesas/e2studio_2021_01_workspace_RZA2M_ANPR/ANPR_RZA2M_GR_MANGO/src/tensorflow_lite/src/tensorflow/lite/kernels\kernel_util.h ****     *activation_min = -1;
 336              		.loc 3 261 0
 337 0188 3700000A 		beq	.L35
 338              	.L28:
 266:C:/Renesas/e2studio_2021_01_workspace_RZA2M_ANPR/ANPR_RZA2M_GR_MANGO/src/tensorflow_lite/src/tensorflow/lite/kernels\kernel_util.h ****     *activation_max = std::numeric_limits<T>::max();
 339              		.loc 3 266 0
 340 018c FF3F0FE3 		movw	r3, #65535
 341              	.LVL24:
 342              	.LBE352:
 343              	.LBE351:
 344              	.LBE370:
 345              	.LBE378:
 346              	.LBE386:
 347              	.LBE394:
 195:../src/tensorflow_lite/src/tensorflow/lite/micro/kernels/add.cpp **** }
 348              		.loc 1 195 0
 349 0190 0000A0E3 		mov	r0, #0
 350              	.LBB395:
 351              	.LBB387:
 352              	.LBB379:
 353              	.LBB371:
 354              	.LBB357:
 355              	.LBB353:
 356              		.loc 3 266 0
 357 0194 7F3F47E3 		movt	r3, 32639
 265:C:/Renesas/e2studio_2021_01_workspace_RZA2M_ANPR/ANPR_RZA2M_GR_MANGO/src/tensorflow_lite/src/tensorflow/lite/kernels\kernel_util.h ****     *activation_max = std::numeric_limits<T>::max();
 358              		.loc 3 265 0
 359 0198 342085E5 		str	r2, [r5, #52]	@ float
 360              		.loc 3 266 0
 361 019c 383085E5 		str	r3, [r5, #56]	@ float
 362              	.LBE353:
 363              	.LBE357:
 364              	.LBE371:
 365              	.LBE379:
 366              	.LBE387:
 367              	.LBE395:
 368              		.loc 1 196 0
 369 01a0 0CD08DE2 		add	sp, sp, #12
 370              		.cfi_remember_state
 371              		.cfi_def_cfa_offset 44
 372              		@ sp needed
 373 01a4 048BBDEC 		vldm	sp!, {d8-d9}
 374              		.cfi_restore 80
 375              		.cfi_restore 81
 376              		.cfi_restore 82
 377              		.cfi_restore 83
 378              		.cfi_def_cfa_offset 28
 379 01a8 F083BDE8 		pop	{r4, r5, r6, r7, r8, r9, pc}
 380              	.LVL25:
 381              	.L29:
 382              		.cfi_restore_state
 183:../src/tensorflow_lite/src/tensorflow/lite/micro/kernels/add.cpp ****   const TfLiteTensor* input2 = GetInput(context, node, kInputTensor2);
 383              		.loc 1 183 0 discriminator 1
 384 01ac 003000E3 		movw	r3, #:lower16:.LC3
 385 01b0 002000E3 		movw	r2, #:lower16:.LC1
 386 01b4 003040E3 		movt	r3, #:upper16:.LC3
 387 01b8 001000E3 		movw	r1, #:lower16:.LC2
 388 01bc 00308DE5 		str	r3, [sp]
 389 01c0 0600A0E1 		mov	r0, r6
 390              	.LVL26:
 391 01c4 002040E3 		movt	r2, #:upper16:.LC1
 392 01c8 001040E3 		movt	r1, #:upper16:.LC2
 393 01cc 144096E5 		ldr	r4, [r6, #20]
 394              	.LVL27:
 395 01d0 B730A0E3 		mov	r3, #183
 396 01d4 34FF2FE1 		blx	r4
 397              	.LVL28:
 398 01d8 0100A0E3 		mov	r0, #1
 399              		.loc 1 196 0 discriminator 1
 400 01dc 0CD08DE2 		add	sp, sp, #12
 401              		.cfi_remember_state
 402              		.cfi_def_cfa_offset 44
 403              		@ sp needed
 404 01e0 048BBDEC 		vldm	sp!, {d8-d9}
 405              		.cfi_restore 80
 406              		.cfi_restore 81
 407              		.cfi_restore 82
 408              		.cfi_restore 83
 409              		.cfi_def_cfa_offset 28
 410 01e4 F083BDE8 		pop	{r4, r5, r6, r7, r8, r9, pc}
 411              	.LVL29:
 412              	.L30:
 413              		.cfi_restore_state
 185:../src/tensorflow_lite/src/tensorflow/lite/micro/kernels/add.cpp ****   TfLiteTensor* output = GetOutput(context, node, kOutputTensor);
 414              		.loc 1 185 0 discriminator 1
 415 01e8 003000E3 		movw	r3, #:lower16:.LC4
 416 01ec 002000E3 		movw	r2, #:lower16:.LC1
 417 01f0 003040E3 		movt	r3, #:upper16:.LC4
 418 01f4 001000E3 		movw	r1, #:lower16:.LC2
 419 01f8 00308DE5 		str	r3, [sp]
 420 01fc 0600A0E1 		mov	r0, r6
 421              	.LVL30:
 422 0200 002040E3 		movt	r2, #:upper16:.LC1
 423 0204 001040E3 		movt	r1, #:upper16:.LC2
 424 0208 144096E5 		ldr	r4, [r6, #20]
 425              	.LVL31:
 426 020c B930A0E3 		mov	r3, #185
 427 0210 34FF2FE1 		blx	r4
 428              	.LVL32:
 429 0214 0100A0E3 		mov	r0, #1
 430 0218 A0FFFFEA 		b	.L12
 431              	.LVL33:
 432              	.L31:
 187:../src/tensorflow_lite/src/tensorflow/lite/micro/kernels/add.cpp **** 
 433              		.loc 1 187 0 discriminator 1
 434 021c 003000E3 		movw	r3, #:lower16:.LC5
 435 0220 002000E3 		movw	r2, #:lower16:.LC1
 436 0224 003040E3 		movt	r3, #:upper16:.LC5
 437 0228 001000E3 		movw	r1, #:lower16:.LC2
 438 022c 00308DE5 		str	r3, [sp]
 439 0230 0600A0E1 		mov	r0, r6
 440              	.LVL34:
 441 0234 002040E3 		movt	r2, #:upper16:.LC1
 442 0238 001040E3 		movt	r1, #:upper16:.LC2
 443 023c 144096E5 		ldr	r4, [r6, #20]
 444              	.LVL35:
 445 0240 BB30A0E3 		mov	r3, #187
 446 0244 34FF2FE1 		blx	r4
 447              	.LVL36:
 448 0248 0100A0E3 		mov	r0, #1
 449 024c 93FFFFEA 		b	.L12
 450              	.LVL37:
 451              	.L34:
 452              	.LBB396:
 453              	.LBB388:
 454              	.LBB380:
 455              	.LBB372:
 456              	.LBB358:
 457              	.LBB354:
 260:C:/Renesas/e2studio_2021_01_workspace_RZA2M_ANPR/ANPR_RZA2M_GR_MANGO/src/tensorflow_lite/src/tensorflow/lite/kernels\kernel_util.h ****   } else if (activation == kTfLiteActReluN1To1) {
 458              		.loc 3 260 0
 459 0250 0030A0E3 		mov	r3, #0
 460              	.LVL38:
 259:C:/Renesas/e2studio_2021_01_workspace_RZA2M_ANPR/ANPR_RZA2M_GR_MANGO/src/tensorflow_lite/src/tensorflow/lite/kernels\kernel_util.h ****     *activation_max = 6;
 461              		.loc 3 259 0
 462 0254 0020A0E3 		mov	r2, #0
 260:C:/Renesas/e2studio_2021_01_workspace_RZA2M_ANPR/ANPR_RZA2M_GR_MANGO/src/tensorflow_lite/src/tensorflow/lite/kernels\kernel_util.h ****   } else if (activation == kTfLiteActReluN1To1) {
 463              		.loc 3 260 0
 464 0258 C03044E3 		movt	r3, 16576
 465              	.LBE354:
 466              	.LBE358:
 467              	.LBE372:
 468              	.LBE380:
 469              	.LBE388:
 470              	.LBE396:
 195:../src/tensorflow_lite/src/tensorflow/lite/micro/kernels/add.cpp **** }
 471              		.loc 1 195 0
 472 025c 0000A0E3 		mov	r0, #0
 473              	.LBB397:
 474              	.LBB389:
 475              	.LBB381:
 476              	.LBB373:
 477              	.LBB359:
 478              	.LBB355:
 259:C:/Renesas/e2studio_2021_01_workspace_RZA2M_ANPR/ANPR_RZA2M_GR_MANGO/src/tensorflow_lite/src/tensorflow/lite/kernels\kernel_util.h ****     *activation_max = 6;
 479              		.loc 3 259 0
 480 0260 342085E5 		str	r2, [r5, #52]	@ float
 260:C:/Renesas/e2studio_2021_01_workspace_RZA2M_ANPR/ANPR_RZA2M_GR_MANGO/src/tensorflow_lite/src/tensorflow/lite/kernels\kernel_util.h ****   } else if (activation == kTfLiteActReluN1To1) {
 481              		.loc 3 260 0
 482 0264 383085E5 		str	r3, [r5, #56]	@ float
 483 0268 8CFFFFEA 		b	.L12
 484              	.LVL39:
 485              	.L35:
 262:C:/Renesas/e2studio_2021_01_workspace_RZA2M_ANPR/ANPR_RZA2M_GR_MANGO/src/tensorflow_lite/src/tensorflow/lite/kernels\kernel_util.h ****     *activation_max = 1;
 486              		.loc 3 262 0
 487 026c 0020A0E3 		mov	r2, #0
 263:C:/Renesas/e2studio_2021_01_workspace_RZA2M_ANPR/ANPR_RZA2M_GR_MANGO/src/tensorflow_lite/src/tensorflow/lite/kernels\kernel_util.h ****   } else {
 488              		.loc 3 263 0
 489 0270 FE35A0E3 		mov	r3, #1065353216
 490              	.LVL40:
 262:C:/Renesas/e2studio_2021_01_workspace_RZA2M_ANPR/ANPR_RZA2M_GR_MANGO/src/tensorflow_lite/src/tensorflow/lite/kernels\kernel_util.h ****     *activation_max = 1;
 491              		.loc 3 262 0
 492 0274 802F4BE3 		movt	r2, 49024
 493              	.LBE355:
 494              	.LBE359:
 495              	.LBE373:
 496              	.LBE381:
 497              	.LBE389:
 498              	.LBE397:
 195:../src/tensorflow_lite/src/tensorflow/lite/micro/kernels/add.cpp **** }
 499              		.loc 1 195 0
 500 0278 0000A0E3 		mov	r0, #0
 501              	.LBB398:
 502              	.LBB390:
 503              	.LBB382:
 504              	.LBB374:
 505              	.LBB360:
 506              	.LBB356:
 262:C:/Renesas/e2studio_2021_01_workspace_RZA2M_ANPR/ANPR_RZA2M_GR_MANGO/src/tensorflow_lite/src/tensorflow/lite/kernels\kernel_util.h ****     *activation_max = 1;
 507              		.loc 3 262 0
 508 027c 342085E5 		str	r2, [r5, #52]	@ float
 263:C:/Renesas/e2studio_2021_01_workspace_RZA2M_ANPR/ANPR_RZA2M_GR_MANGO/src/tensorflow_lite/src/tensorflow/lite/kernels\kernel_util.h ****   } else {
 509              		.loc 3 263 0
 510 0280 383085E5 		str	r3, [r5, #56]	@ float
 511 0284 85FFFFEA 		b	.L12
 512              	.LVL41:
 513              	.L10:
 514              	.LBE356:
 515              	.LBE360:
 516              	.LBE374:
 517              	.LBE382:
 518              	.LBE390:
 519              	.LBE398:
 179:../src/tensorflow_lite/src/tensorflow/lite/micro/kernels/add.cpp ****   TFLITE_DCHECK(node->builtin_data != nullptr);
 520              		.loc 1 179 0 discriminator 1
 521 0288 FEFFFFEB 		bl	abort
 522              	.LVL42:
 523              	.L37:
 524 028c 00F020E3 		.align	3
 525              	.L36:
 526 0290 00000000 		.word	0
 527 0294 00003041 		.word	1093664768
 528              		.cfi_endproc
 529              	.LFE8969:
 530              		.fnend
 532              		.section	.text._ZN6tflite13reference_ops22ProcessBroadcastShapesERKNS_12RuntimeShapeES3_PNS_16Arit
 533              		.align	2
 534              		.weak	_ZN6tflite13reference_ops22ProcessBroadcastShapesERKNS_12RuntimeShapeES3_PNS_16ArithmeticPar
 535              		.syntax unified
 536              		.arm
 537              		.fpu neon
 539              	_ZN6tflite13reference_ops22ProcessBroadcastShapesERKNS_12RuntimeShapeES3_PNS_16ArithmeticParamsE:
 540              		.fnstart
 541              	.LFB4161:
 542              		.file 4 "C:/Renesas/e2studio_2021_01_workspace_RZA2M_ANPR/ANPR_RZA2M_GR_MANGO/src/tensorflow_lite/
   1:C:/Renesas/e2studio_2021_01_workspace_RZA2M_ANPR/ANPR_RZA2M_GR_MANGO/src/tensorflow_lite/src/tensorflow/lite/kernels/internal/reference\process_broadcast_shapes.h **** /* Copyright 2019 The TensorFlow Authors. All Rights Reserved.
   2:C:/Renesas/e2studio_2021_01_workspace_RZA2M_ANPR/ANPR_RZA2M_GR_MANGO/src/tensorflow_lite/src/tensorflow/lite/kernels/internal/reference\process_broadcast_shapes.h **** 
   3:C:/Renesas/e2studio_2021_01_workspace_RZA2M_ANPR/ANPR_RZA2M_GR_MANGO/src/tensorflow_lite/src/tensorflow/lite/kernels/internal/reference\process_broadcast_shapes.h **** Licensed under the Apache License, Version 2.0 (the "License");
   4:C:/Renesas/e2studio_2021_01_workspace_RZA2M_ANPR/ANPR_RZA2M_GR_MANGO/src/tensorflow_lite/src/tensorflow/lite/kernels/internal/reference\process_broadcast_shapes.h **** you may not use this file except in compliance with the License.
   5:C:/Renesas/e2studio_2021_01_workspace_RZA2M_ANPR/ANPR_RZA2M_GR_MANGO/src/tensorflow_lite/src/tensorflow/lite/kernels/internal/reference\process_broadcast_shapes.h **** You may obtain a copy of the License at
   6:C:/Renesas/e2studio_2021_01_workspace_RZA2M_ANPR/ANPR_RZA2M_GR_MANGO/src/tensorflow_lite/src/tensorflow/lite/kernels/internal/reference\process_broadcast_shapes.h **** 
   7:C:/Renesas/e2studio_2021_01_workspace_RZA2M_ANPR/ANPR_RZA2M_GR_MANGO/src/tensorflow_lite/src/tensorflow/lite/kernels/internal/reference\process_broadcast_shapes.h ****     http://www.apache.org/licenses/LICENSE-2.0
   8:C:/Renesas/e2studio_2021_01_workspace_RZA2M_ANPR/ANPR_RZA2M_GR_MANGO/src/tensorflow_lite/src/tensorflow/lite/kernels/internal/reference\process_broadcast_shapes.h **** 
   9:C:/Renesas/e2studio_2021_01_workspace_RZA2M_ANPR/ANPR_RZA2M_GR_MANGO/src/tensorflow_lite/src/tensorflow/lite/kernels/internal/reference\process_broadcast_shapes.h **** Unless required by applicable law or agreed to in writing, software
  10:C:/Renesas/e2studio_2021_01_workspace_RZA2M_ANPR/ANPR_RZA2M_GR_MANGO/src/tensorflow_lite/src/tensorflow/lite/kernels/internal/reference\process_broadcast_shapes.h **** distributed under the License is distributed on an "AS IS" BASIS,
  11:C:/Renesas/e2studio_2021_01_workspace_RZA2M_ANPR/ANPR_RZA2M_GR_MANGO/src/tensorflow_lite/src/tensorflow/lite/kernels/internal/reference\process_broadcast_shapes.h **** WITHOUT WARRANTIES OR CONDITIONS OF ANY KIND, either express or implied.
  12:C:/Renesas/e2studio_2021_01_workspace_RZA2M_ANPR/ANPR_RZA2M_GR_MANGO/src/tensorflow_lite/src/tensorflow/lite/kernels/internal/reference\process_broadcast_shapes.h **** See the License for the specific language governing permissions and
  13:C:/Renesas/e2studio_2021_01_workspace_RZA2M_ANPR/ANPR_RZA2M_GR_MANGO/src/tensorflow_lite/src/tensorflow/lite/kernels/internal/reference\process_broadcast_shapes.h **** limitations under the License.
  14:C:/Renesas/e2studio_2021_01_workspace_RZA2M_ANPR/ANPR_RZA2M_GR_MANGO/src/tensorflow_lite/src/tensorflow/lite/kernels/internal/reference\process_broadcast_shapes.h **** ==============================================================================*/
  15:C:/Renesas/e2studio_2021_01_workspace_RZA2M_ANPR/ANPR_RZA2M_GR_MANGO/src/tensorflow_lite/src/tensorflow/lite/kernels/internal/reference\process_broadcast_shapes.h **** #ifndef TENSORFLOW_LITE_KERNELS_INTERNAL_REFERENCE_PROCESS_BROADCAST_SHAPES_H_
  16:C:/Renesas/e2studio_2021_01_workspace_RZA2M_ANPR/ANPR_RZA2M_GR_MANGO/src/tensorflow_lite/src/tensorflow/lite/kernels/internal/reference\process_broadcast_shapes.h **** #define TENSORFLOW_LITE_KERNELS_INTERNAL_REFERENCE_PROCESS_BROADCAST_SHAPES_H_
  17:C:/Renesas/e2studio_2021_01_workspace_RZA2M_ANPR/ANPR_RZA2M_GR_MANGO/src/tensorflow_lite/src/tensorflow/lite/kernels/internal/reference\process_broadcast_shapes.h **** 
  18:C:/Renesas/e2studio_2021_01_workspace_RZA2M_ANPR/ANPR_RZA2M_GR_MANGO/src/tensorflow_lite/src/tensorflow/lite/kernels/internal/reference\process_broadcast_shapes.h **** #include "tensorflow/lite/kernels/internal/types.h"
  19:C:/Renesas/e2studio_2021_01_workspace_RZA2M_ANPR/ANPR_RZA2M_GR_MANGO/src/tensorflow_lite/src/tensorflow/lite/kernels/internal/reference\process_broadcast_shapes.h **** 
  20:C:/Renesas/e2studio_2021_01_workspace_RZA2M_ANPR/ANPR_RZA2M_GR_MANGO/src/tensorflow_lite/src/tensorflow/lite/kernels/internal/reference\process_broadcast_shapes.h **** namespace tflite {
  21:C:/Renesas/e2studio_2021_01_workspace_RZA2M_ANPR/ANPR_RZA2M_GR_MANGO/src/tensorflow_lite/src/tensorflow/lite/kernels/internal/reference\process_broadcast_shapes.h **** 
  22:C:/Renesas/e2studio_2021_01_workspace_RZA2M_ANPR/ANPR_RZA2M_GR_MANGO/src/tensorflow_lite/src/tensorflow/lite/kernels/internal/reference\process_broadcast_shapes.h **** namespace reference_ops {
  23:C:/Renesas/e2studio_2021_01_workspace_RZA2M_ANPR/ANPR_RZA2M_GR_MANGO/src/tensorflow_lite/src/tensorflow/lite/kernels/internal/reference\process_broadcast_shapes.h **** 
  24:C:/Renesas/e2studio_2021_01_workspace_RZA2M_ANPR/ANPR_RZA2M_GR_MANGO/src/tensorflow_lite/src/tensorflow/lite/kernels/internal/reference\process_broadcast_shapes.h **** // Consolidates dimensions in broadcast inputs, checks for five-fold pattern.
  25:C:/Renesas/e2studio_2021_01_workspace_RZA2M_ANPR/ANPR_RZA2M_GR_MANGO/src/tensorflow_lite/src/tensorflow/lite/kernels/internal/reference\process_broadcast_shapes.h **** //
  26:C:/Renesas/e2studio_2021_01_workspace_RZA2M_ANPR/ANPR_RZA2M_GR_MANGO/src/tensorflow_lite/src/tensorflow/lite/kernels/internal/reference\process_broadcast_shapes.h **** // For example, if sequence of dimensions of one input is
  27:C:/Renesas/e2studio_2021_01_workspace_RZA2M_ANPR/ANPR_RZA2M_GR_MANGO/src/tensorflow_lite/src/tensorflow/lite/kernels/internal/reference\process_broadcast_shapes.h **** // ..., 1, 3, 1, 7, 9, 5,... and the other is ..., 2, 3, 1, 7, 1, 1, ...
  28:C:/Renesas/e2studio_2021_01_workspace_RZA2M_ANPR/ANPR_RZA2M_GR_MANGO/src/tensorflow_lite/src/tensorflow/lite/kernels/internal/reference\process_broadcast_shapes.h **** // we can consolidate these as
  29:C:/Renesas/e2studio_2021_01_workspace_RZA2M_ANPR/ANPR_RZA2M_GR_MANGO/src/tensorflow_lite/src/tensorflow/lite/kernels/internal/reference\process_broadcast_shapes.h **** // ..., 1, 3*7, 9*5, ... and 2, 3*7, 1.
  30:C:/Renesas/e2studio_2021_01_workspace_RZA2M_ANPR/ANPR_RZA2M_GR_MANGO/src/tensorflow_lite/src/tensorflow/lite/kernels/internal/reference\process_broadcast_shapes.h **** //
  31:C:/Renesas/e2studio_2021_01_workspace_RZA2M_ANPR/ANPR_RZA2M_GR_MANGO/src/tensorflow_lite/src/tensorflow/lite/kernels/internal/reference\process_broadcast_shapes.h **** // The category is updated in the less-frequent case of shapes that are
  32:C:/Renesas/e2studio_2021_01_workspace_RZA2M_ANPR/ANPR_RZA2M_GR_MANGO/src/tensorflow_lite/src/tensorflow/lite/kernels/internal/reference\process_broadcast_shapes.h **** // not suited to a fivefold-loop broadcast.
  33:C:/Renesas/e2studio_2021_01_workspace_RZA2M_ANPR/ANPR_RZA2M_GR_MANGO/src/tensorflow_lite/src/tensorflow/lite/kernels/internal/reference\process_broadcast_shapes.h **** //
  34:C:/Renesas/e2studio_2021_01_workspace_RZA2M_ANPR/ANPR_RZA2M_GR_MANGO/src/tensorflow_lite/src/tensorflow/lite/kernels/internal/reference\process_broadcast_shapes.h **** // Falls back to generic pattern when it does not know how to process properly.
  35:C:/Renesas/e2studio_2021_01_workspace_RZA2M_ANPR/ANPR_RZA2M_GR_MANGO/src/tensorflow_lite/src/tensorflow/lite/kernels/internal/reference\process_broadcast_shapes.h **** //
  36:C:/Renesas/e2studio_2021_01_workspace_RZA2M_ANPR/ANPR_RZA2M_GR_MANGO/src/tensorflow_lite/src/tensorflow/lite/kernels/internal/reference\process_broadcast_shapes.h **** // Returns true iff there is some sort of broadcast, which includes five-fold
  37:C:/Renesas/e2studio_2021_01_workspace_RZA2M_ANPR/ANPR_RZA2M_GR_MANGO/src/tensorflow_lite/src/tensorflow/lite/kernels/internal/reference\process_broadcast_shapes.h **** // patterns and falling back to generic broadcast.
  38:C:/Renesas/e2studio_2021_01_workspace_RZA2M_ANPR/ANPR_RZA2M_GR_MANGO/src/tensorflow_lite/src/tensorflow/lite/kernels/internal/reference\process_broadcast_shapes.h **** inline bool ProcessBroadcastShapes(const RuntimeShape& shape0,
  39:C:/Renesas/e2studio_2021_01_workspace_RZA2M_ANPR/ANPR_RZA2M_GR_MANGO/src/tensorflow_lite/src/tensorflow/lite/kernels/internal/reference\process_broadcast_shapes.h ****                                    const RuntimeShape& shape1,
  40:C:/Renesas/e2studio_2021_01_workspace_RZA2M_ANPR/ANPR_RZA2M_GR_MANGO/src/tensorflow_lite/src/tensorflow/lite/kernels/internal/reference\process_broadcast_shapes.h ****                                    tflite::ArithmeticParams* params) {
 543              		.loc 4 40 0
 544              		.cfi_startproc
 545              		.cfi_personality 0,__gxx_personality_v0
 546              		.cfi_lsda 0,.LLSDA4161
 547              		@ args = 0, pretend = 0, frame = 80
 548              		@ frame_needed = 0, uses_anonymous_args = 0
 549              	.LVL43:
 550 0000 F04F2DE9 		push	{r4, r5, r6, r7, r8, r9, r10, fp, lr}
 551              		.save {r4, r5, r6, r7, r8, r9, r10, fp, lr}
 552              		.cfi_def_cfa_offset 36
 553              		.cfi_offset 4, -36
 554              		.cfi_offset 5, -32
 555              		.cfi_offset 6, -28
 556              		.cfi_offset 7, -24
 557              		.cfi_offset 8, -20
 558              		.cfi_offset 9, -16
 559              		.cfi_offset 10, -12
 560              		.cfi_offset 11, -8
 561              		.cfi_offset 14, -4
 562 0004 0240A0E1 		mov	r4, r2
 563 0008 005091E5 		ldr	r5, [r1]
  41:C:/Renesas/e2studio_2021_01_workspace_RZA2M_ANPR/ANPR_RZA2M_GR_MANGO/src/tensorflow_lite/src/tensorflow/lite/kernels/internal/reference\process_broadcast_shapes.h ****   const int dims_count =
  42:C:/Renesas/e2studio_2021_01_workspace_RZA2M_ANPR/ANPR_RZA2M_GR_MANGO/src/tensorflow_lite/src/tensorflow/lite/kernels/internal/reference\process_broadcast_shapes.h ****       std::max(shape0.DimensionsCount(), shape1.DimensionsCount());
  43:C:/Renesas/e2studio_2021_01_workspace_RZA2M_ANPR/ANPR_RZA2M_GR_MANGO/src/tensorflow_lite/src/tensorflow/lite/kernels/internal/reference\process_broadcast_shapes.h **** 
  44:C:/Renesas/e2studio_2021_01_workspace_RZA2M_ANPR/ANPR_RZA2M_GR_MANGO/src/tensorflow_lite/src/tensorflow/lite/kernels/internal/reference\process_broadcast_shapes.h ****   params->broadcast_category = BroadcastableOpCategory::kGenericBroadcast;
 564              		.loc 4 44 0
 565 000c 0420A0E3 		mov	r2, #4
 566              	.LVL44:
  40:C:/Renesas/e2studio_2021_01_workspace_RZA2M_ANPR/ANPR_RZA2M_GR_MANGO/src/tensorflow_lite/src/tensorflow/lite/kernels/internal/reference\process_broadcast_shapes.h ****   const int dims_count =
 567              		.loc 4 40 0
 568              		.pad #84
 569 0010 54D04DE2 		sub	sp, sp, #84
 570              		.cfi_def_cfa_offset 120
  40:C:/Renesas/e2studio_2021_01_workspace_RZA2M_ANPR/ANPR_RZA2M_GR_MANGO/src/tensorflow_lite/src/tensorflow/lite/kernels/internal/reference\process_broadcast_shapes.h ****   const int dims_count =
 571              		.loc 4 40 0
 572 0014 0070A0E1 		mov	r7, r0
 573              	.LVL45:
 574 0018 003090E5 		ldr	r3, [r0]
 575 001c 0160A0E1 		mov	r6, r1
 576              		.loc 4 44 0
 577 0020 0020C4E5 		strb	r2, [r4]
 578 0024 050053E1 		cmp	r3, r5
 579 0028 0350A0A1 		movge	r5, r3
 580              	.LVL46:
 581              	.LBB505:
 582              	.LBB506:
 583              	.LBB507:
 584              	.LBB508:
 585              		.file 5 "C:/Renesas/e2studio_2021_01_workspace_RZA2M_ANPR/ANPR_RZA2M_GR_MANGO/src/tensorflow_lite/
   1:C:/Renesas/e2studio_2021_01_workspace_RZA2M_ANPR/ANPR_RZA2M_GR_MANGO/src/tensorflow_lite/src/tensorflow/lite/kernels/internal\types.h **** /* Copyright 2018 The TensorFlow Authors. All Rights Reserved.
   2:C:/Renesas/e2studio_2021_01_workspace_RZA2M_ANPR/ANPR_RZA2M_GR_MANGO/src/tensorflow_lite/src/tensorflow/lite/kernels/internal\types.h **** 
   3:C:/Renesas/e2studio_2021_01_workspace_RZA2M_ANPR/ANPR_RZA2M_GR_MANGO/src/tensorflow_lite/src/tensorflow/lite/kernels/internal\types.h **** Licensed under the Apache License, Version 2.0 (the "License");
   4:C:/Renesas/e2studio_2021_01_workspace_RZA2M_ANPR/ANPR_RZA2M_GR_MANGO/src/tensorflow_lite/src/tensorflow/lite/kernels/internal\types.h **** you may not use this file except in compliance with the License.
   5:C:/Renesas/e2studio_2021_01_workspace_RZA2M_ANPR/ANPR_RZA2M_GR_MANGO/src/tensorflow_lite/src/tensorflow/lite/kernels/internal\types.h **** You may obtain a copy of the License at
   6:C:/Renesas/e2studio_2021_01_workspace_RZA2M_ANPR/ANPR_RZA2M_GR_MANGO/src/tensorflow_lite/src/tensorflow/lite/kernels/internal\types.h **** 
   7:C:/Renesas/e2studio_2021_01_workspace_RZA2M_ANPR/ANPR_RZA2M_GR_MANGO/src/tensorflow_lite/src/tensorflow/lite/kernels/internal\types.h ****     http://www.apache.org/licenses/LICENSE-2.0
   8:C:/Renesas/e2studio_2021_01_workspace_RZA2M_ANPR/ANPR_RZA2M_GR_MANGO/src/tensorflow_lite/src/tensorflow/lite/kernels/internal\types.h **** 
   9:C:/Renesas/e2studio_2021_01_workspace_RZA2M_ANPR/ANPR_RZA2M_GR_MANGO/src/tensorflow_lite/src/tensorflow/lite/kernels/internal\types.h **** Unless required by applicable law or agreed to in writing, software
  10:C:/Renesas/e2studio_2021_01_workspace_RZA2M_ANPR/ANPR_RZA2M_GR_MANGO/src/tensorflow_lite/src/tensorflow/lite/kernels/internal\types.h **** distributed under the License is distributed on an "AS IS" BASIS,
  11:C:/Renesas/e2studio_2021_01_workspace_RZA2M_ANPR/ANPR_RZA2M_GR_MANGO/src/tensorflow_lite/src/tensorflow/lite/kernels/internal\types.h **** WITHOUT WARRANTIES OR CONDITIONS OF ANY KIND, either express or implied.
  12:C:/Renesas/e2studio_2021_01_workspace_RZA2M_ANPR/ANPR_RZA2M_GR_MANGO/src/tensorflow_lite/src/tensorflow/lite/kernels/internal\types.h **** See the License for the specific language governing permissions and
  13:C:/Renesas/e2studio_2021_01_workspace_RZA2M_ANPR/ANPR_RZA2M_GR_MANGO/src/tensorflow_lite/src/tensorflow/lite/kernels/internal\types.h **** limitations under the License.
  14:C:/Renesas/e2studio_2021_01_workspace_RZA2M_ANPR/ANPR_RZA2M_GR_MANGO/src/tensorflow_lite/src/tensorflow/lite/kernels/internal\types.h **** ==============================================================================*/
  15:C:/Renesas/e2studio_2021_01_workspace_RZA2M_ANPR/ANPR_RZA2M_GR_MANGO/src/tensorflow_lite/src/tensorflow/lite/kernels/internal\types.h **** #ifndef TENSORFLOW_LITE_KERNELS_INTERNAL_TYPES_H_
  16:C:/Renesas/e2studio_2021_01_workspace_RZA2M_ANPR/ANPR_RZA2M_GR_MANGO/src/tensorflow_lite/src/tensorflow/lite/kernels/internal\types.h **** #define TENSORFLOW_LITE_KERNELS_INTERNAL_TYPES_H_
  17:C:/Renesas/e2studio_2021_01_workspace_RZA2M_ANPR/ANPR_RZA2M_GR_MANGO/src/tensorflow_lite/src/tensorflow/lite/kernels/internal\types.h **** 
  18:C:/Renesas/e2studio_2021_01_workspace_RZA2M_ANPR/ANPR_RZA2M_GR_MANGO/src/tensorflow_lite/src/tensorflow/lite/kernels/internal\types.h **** #include <algorithm>
  19:C:/Renesas/e2studio_2021_01_workspace_RZA2M_ANPR/ANPR_RZA2M_GR_MANGO/src/tensorflow_lite/src/tensorflow/lite/kernels/internal\types.h **** #include <cstdint>
  20:C:/Renesas/e2studio_2021_01_workspace_RZA2M_ANPR/ANPR_RZA2M_GR_MANGO/src/tensorflow_lite/src/tensorflow/lite/kernels/internal\types.h **** #include <cstring>
  21:C:/Renesas/e2studio_2021_01_workspace_RZA2M_ANPR/ANPR_RZA2M_GR_MANGO/src/tensorflow_lite/src/tensorflow/lite/kernels/internal\types.h **** #include <initializer_list>
  22:C:/Renesas/e2studio_2021_01_workspace_RZA2M_ANPR/ANPR_RZA2M_GR_MANGO/src/tensorflow_lite/src/tensorflow/lite/kernels/internal\types.h **** 
  23:C:/Renesas/e2studio_2021_01_workspace_RZA2M_ANPR/ANPR_RZA2M_GR_MANGO/src/tensorflow_lite/src/tensorflow/lite/kernels/internal\types.h **** #include "tensorflow/lite/kernels/internal/compatibility.h"
  24:C:/Renesas/e2studio_2021_01_workspace_RZA2M_ANPR/ANPR_RZA2M_GR_MANGO/src/tensorflow_lite/src/tensorflow/lite/kernels/internal\types.h **** 
  25:C:/Renesas/e2studio_2021_01_workspace_RZA2M_ANPR/ANPR_RZA2M_GR_MANGO/src/tensorflow_lite/src/tensorflow/lite/kernels/internal\types.h **** namespace tflite {
  26:C:/Renesas/e2studio_2021_01_workspace_RZA2M_ANPR/ANPR_RZA2M_GR_MANGO/src/tensorflow_lite/src/tensorflow/lite/kernels/internal\types.h **** 
  27:C:/Renesas/e2studio_2021_01_workspace_RZA2M_ANPR/ANPR_RZA2M_GR_MANGO/src/tensorflow_lite/src/tensorflow/lite/kernels/internal\types.h **** enum class FusedActivationFunctionType : uint8_t {
  28:C:/Renesas/e2studio_2021_01_workspace_RZA2M_ANPR/ANPR_RZA2M_GR_MANGO/src/tensorflow_lite/src/tensorflow/lite/kernels/internal\types.h ****   kNone,
  29:C:/Renesas/e2studio_2021_01_workspace_RZA2M_ANPR/ANPR_RZA2M_GR_MANGO/src/tensorflow_lite/src/tensorflow/lite/kernels/internal\types.h ****   kRelu6,
  30:C:/Renesas/e2studio_2021_01_workspace_RZA2M_ANPR/ANPR_RZA2M_GR_MANGO/src/tensorflow_lite/src/tensorflow/lite/kernels/internal\types.h ****   kRelu1,
  31:C:/Renesas/e2studio_2021_01_workspace_RZA2M_ANPR/ANPR_RZA2M_GR_MANGO/src/tensorflow_lite/src/tensorflow/lite/kernels/internal\types.h ****   kRelu
  32:C:/Renesas/e2studio_2021_01_workspace_RZA2M_ANPR/ANPR_RZA2M_GR_MANGO/src/tensorflow_lite/src/tensorflow/lite/kernels/internal\types.h **** };
  33:C:/Renesas/e2studio_2021_01_workspace_RZA2M_ANPR/ANPR_RZA2M_GR_MANGO/src/tensorflow_lite/src/tensorflow/lite/kernels/internal\types.h **** enum class PaddingType : uint8_t { kNone, kSame, kValid };
  34:C:/Renesas/e2studio_2021_01_workspace_RZA2M_ANPR/ANPR_RZA2M_GR_MANGO/src/tensorflow_lite/src/tensorflow/lite/kernels/internal\types.h **** 
  35:C:/Renesas/e2studio_2021_01_workspace_RZA2M_ANPR/ANPR_RZA2M_GR_MANGO/src/tensorflow_lite/src/tensorflow/lite/kernels/internal\types.h **** struct PaddingValues {
  36:C:/Renesas/e2studio_2021_01_workspace_RZA2M_ANPR/ANPR_RZA2M_GR_MANGO/src/tensorflow_lite/src/tensorflow/lite/kernels/internal\types.h ****   int16_t width;
  37:C:/Renesas/e2studio_2021_01_workspace_RZA2M_ANPR/ANPR_RZA2M_GR_MANGO/src/tensorflow_lite/src/tensorflow/lite/kernels/internal\types.h ****   int16_t height;
  38:C:/Renesas/e2studio_2021_01_workspace_RZA2M_ANPR/ANPR_RZA2M_GR_MANGO/src/tensorflow_lite/src/tensorflow/lite/kernels/internal\types.h ****   // offset is used for calculating "remaining" padding, for example, `width`
  39:C:/Renesas/e2studio_2021_01_workspace_RZA2M_ANPR/ANPR_RZA2M_GR_MANGO/src/tensorflow_lite/src/tensorflow/lite/kernels/internal\types.h ****   // is 1 and `width_offset` is 1, so padding_left is 1 while padding_right is
  40:C:/Renesas/e2studio_2021_01_workspace_RZA2M_ANPR/ANPR_RZA2M_GR_MANGO/src/tensorflow_lite/src/tensorflow/lite/kernels/internal\types.h ****   // 1 + 1 = 2.
  41:C:/Renesas/e2studio_2021_01_workspace_RZA2M_ANPR/ANPR_RZA2M_GR_MANGO/src/tensorflow_lite/src/tensorflow/lite/kernels/internal\types.h ****   int16_t width_offset;
  42:C:/Renesas/e2studio_2021_01_workspace_RZA2M_ANPR/ANPR_RZA2M_GR_MANGO/src/tensorflow_lite/src/tensorflow/lite/kernels/internal\types.h ****   // Same as width_offset except it's over the height dimension.
  43:C:/Renesas/e2studio_2021_01_workspace_RZA2M_ANPR/ANPR_RZA2M_GR_MANGO/src/tensorflow_lite/src/tensorflow/lite/kernels/internal\types.h ****   int16_t height_offset;
  44:C:/Renesas/e2studio_2021_01_workspace_RZA2M_ANPR/ANPR_RZA2M_GR_MANGO/src/tensorflow_lite/src/tensorflow/lite/kernels/internal\types.h **** };
  45:C:/Renesas/e2studio_2021_01_workspace_RZA2M_ANPR/ANPR_RZA2M_GR_MANGO/src/tensorflow_lite/src/tensorflow/lite/kernels/internal\types.h **** 
  46:C:/Renesas/e2studio_2021_01_workspace_RZA2M_ANPR/ANPR_RZA2M_GR_MANGO/src/tensorflow_lite/src/tensorflow/lite/kernels/internal\types.h **** struct Padding3DValues {
  47:C:/Renesas/e2studio_2021_01_workspace_RZA2M_ANPR/ANPR_RZA2M_GR_MANGO/src/tensorflow_lite/src/tensorflow/lite/kernels/internal\types.h ****   int16_t width;
  48:C:/Renesas/e2studio_2021_01_workspace_RZA2M_ANPR/ANPR_RZA2M_GR_MANGO/src/tensorflow_lite/src/tensorflow/lite/kernels/internal\types.h ****   int16_t height;
  49:C:/Renesas/e2studio_2021_01_workspace_RZA2M_ANPR/ANPR_RZA2M_GR_MANGO/src/tensorflow_lite/src/tensorflow/lite/kernels/internal\types.h ****   int16_t depth;
  50:C:/Renesas/e2studio_2021_01_workspace_RZA2M_ANPR/ANPR_RZA2M_GR_MANGO/src/tensorflow_lite/src/tensorflow/lite/kernels/internal\types.h ****   // offset is used for calculating "remaining" padding, for example, `width`
  51:C:/Renesas/e2studio_2021_01_workspace_RZA2M_ANPR/ANPR_RZA2M_GR_MANGO/src/tensorflow_lite/src/tensorflow/lite/kernels/internal\types.h ****   // is 1 and `width_offset` is 1, so padding_left is 1 while padding_right is
  52:C:/Renesas/e2studio_2021_01_workspace_RZA2M_ANPR/ANPR_RZA2M_GR_MANGO/src/tensorflow_lite/src/tensorflow/lite/kernels/internal\types.h ****   // 1 + 1 = 2.
  53:C:/Renesas/e2studio_2021_01_workspace_RZA2M_ANPR/ANPR_RZA2M_GR_MANGO/src/tensorflow_lite/src/tensorflow/lite/kernels/internal\types.h ****   int16_t width_offset;
  54:C:/Renesas/e2studio_2021_01_workspace_RZA2M_ANPR/ANPR_RZA2M_GR_MANGO/src/tensorflow_lite/src/tensorflow/lite/kernels/internal\types.h ****   // Same as width_offset except it's over the height dimension.
  55:C:/Renesas/e2studio_2021_01_workspace_RZA2M_ANPR/ANPR_RZA2M_GR_MANGO/src/tensorflow_lite/src/tensorflow/lite/kernels/internal\types.h ****   int16_t height_offset;
  56:C:/Renesas/e2studio_2021_01_workspace_RZA2M_ANPR/ANPR_RZA2M_GR_MANGO/src/tensorflow_lite/src/tensorflow/lite/kernels/internal\types.h ****   // Same as width_offset except it's over the depth dimension.
  57:C:/Renesas/e2studio_2021_01_workspace_RZA2M_ANPR/ANPR_RZA2M_GR_MANGO/src/tensorflow_lite/src/tensorflow/lite/kernels/internal\types.h ****   int16_t depth_offset;
  58:C:/Renesas/e2studio_2021_01_workspace_RZA2M_ANPR/ANPR_RZA2M_GR_MANGO/src/tensorflow_lite/src/tensorflow/lite/kernels/internal\types.h **** };
  59:C:/Renesas/e2studio_2021_01_workspace_RZA2M_ANPR/ANPR_RZA2M_GR_MANGO/src/tensorflow_lite/src/tensorflow/lite/kernels/internal\types.h **** 
  60:C:/Renesas/e2studio_2021_01_workspace_RZA2M_ANPR/ANPR_RZA2M_GR_MANGO/src/tensorflow_lite/src/tensorflow/lite/kernels/internal\types.h **** // This enumeration allows for non-default formats for the weights array
  61:C:/Renesas/e2studio_2021_01_workspace_RZA2M_ANPR/ANPR_RZA2M_GR_MANGO/src/tensorflow_lite/src/tensorflow/lite/kernels/internal\types.h **** // of a fully-connected operator, allowing the use of special optimized
  62:C:/Renesas/e2studio_2021_01_workspace_RZA2M_ANPR/ANPR_RZA2M_GR_MANGO/src/tensorflow_lite/src/tensorflow/lite/kernels/internal\types.h **** // runtime paths.
  63:C:/Renesas/e2studio_2021_01_workspace_RZA2M_ANPR/ANPR_RZA2M_GR_MANGO/src/tensorflow_lite/src/tensorflow/lite/kernels/internal\types.h **** enum class FullyConnectedWeightsFormat : uint8_t {
  64:C:/Renesas/e2studio_2021_01_workspace_RZA2M_ANPR/ANPR_RZA2M_GR_MANGO/src/tensorflow_lite/src/tensorflow/lite/kernels/internal\types.h ****   // Default format (flat 2D layout, the inner contiguous dimension
  65:C:/Renesas/e2studio_2021_01_workspace_RZA2M_ANPR/ANPR_RZA2M_GR_MANGO/src/tensorflow_lite/src/tensorflow/lite/kernels/internal\types.h ****   // is input_depth, the outer non-contiguous dimension is output_depth)
  66:C:/Renesas/e2studio_2021_01_workspace_RZA2M_ANPR/ANPR_RZA2M_GR_MANGO/src/tensorflow_lite/src/tensorflow/lite/kernels/internal\types.h ****   kDefault,
  67:C:/Renesas/e2studio_2021_01_workspace_RZA2M_ANPR/ANPR_RZA2M_GR_MANGO/src/tensorflow_lite/src/tensorflow/lite/kernels/internal\types.h ****   // Summary: optimized layout for fast CPU runtime implementation,
  68:C:/Renesas/e2studio_2021_01_workspace_RZA2M_ANPR/ANPR_RZA2M_GR_MANGO/src/tensorflow_lite/src/tensorflow/lite/kernels/internal\types.h ****   // aimed specifically at ARM CPUs at the moment, and specialized for
  69:C:/Renesas/e2studio_2021_01_workspace_RZA2M_ANPR/ANPR_RZA2M_GR_MANGO/src/tensorflow_lite/src/tensorflow/lite/kernels/internal\types.h ****   // 8-bit quantized layers.
  70:C:/Renesas/e2studio_2021_01_workspace_RZA2M_ANPR/ANPR_RZA2M_GR_MANGO/src/tensorflow_lite/src/tensorflow/lite/kernels/internal\types.h ****   //
  71:C:/Renesas/e2studio_2021_01_workspace_RZA2M_ANPR/ANPR_RZA2M_GR_MANGO/src/tensorflow_lite/src/tensorflow/lite/kernels/internal\types.h ****   // The use case we're concerned with here is: 8-bit quantization,
  72:C:/Renesas/e2studio_2021_01_workspace_RZA2M_ANPR/ANPR_RZA2M_GR_MANGO/src/tensorflow_lite/src/tensorflow/lite/kernels/internal\types.h ****   // large weights matrix that doesn't fit in cache (e.g. 4096x2048 in
  73:C:/Renesas/e2studio_2021_01_workspace_RZA2M_ANPR/ANPR_RZA2M_GR_MANGO/src/tensorflow_lite/src/tensorflow/lite/kernels/internal\types.h ****   // a key application that drove this), very small batch size (e.g. 1 -- 4).
  74:C:/Renesas/e2studio_2021_01_workspace_RZA2M_ANPR/ANPR_RZA2M_GR_MANGO/src/tensorflow_lite/src/tensorflow/lite/kernels/internal\types.h ****   //
  75:C:/Renesas/e2studio_2021_01_workspace_RZA2M_ANPR/ANPR_RZA2M_GR_MANGO/src/tensorflow_lite/src/tensorflow/lite/kernels/internal\types.h ****   // Even with 8-bit quantization of weights, the performance of memory
  76:C:/Renesas/e2studio_2021_01_workspace_RZA2M_ANPR/ANPR_RZA2M_GR_MANGO/src/tensorflow_lite/src/tensorflow/lite/kernels/internal\types.h ****   // accesses to the weights can become the dominant issue when
  77:C:/Renesas/e2studio_2021_01_workspace_RZA2M_ANPR/ANPR_RZA2M_GR_MANGO/src/tensorflow_lite/src/tensorflow/lite/kernels/internal\types.h ****   // the batch size is small, so each weight value is used in only a few
  78:C:/Renesas/e2studio_2021_01_workspace_RZA2M_ANPR/ANPR_RZA2M_GR_MANGO/src/tensorflow_lite/src/tensorflow/lite/kernels/internal\types.h ****   // arithmetic ops, i.e. the fully-connected node has a low arithmetic
  79:C:/Renesas/e2studio_2021_01_workspace_RZA2M_ANPR/ANPR_RZA2M_GR_MANGO/src/tensorflow_lite/src/tensorflow/lite/kernels/internal\types.h ****   // intensity. The specific issues that arise are of three kinds:
  80:C:/Renesas/e2studio_2021_01_workspace_RZA2M_ANPR/ANPR_RZA2M_GR_MANGO/src/tensorflow_lite/src/tensorflow/lite/kernels/internal\types.h ****   // (1) One may, ideally, max out DRAM bandwidth, i.e. be truly memory
  81:C:/Renesas/e2studio_2021_01_workspace_RZA2M_ANPR/ANPR_RZA2M_GR_MANGO/src/tensorflow_lite/src/tensorflow/lite/kernels/internal\types.h ****   //     bound. That's the "good" issue to run into.
  82:C:/Renesas/e2studio_2021_01_workspace_RZA2M_ANPR/ANPR_RZA2M_GR_MANGO/src/tensorflow_lite/src/tensorflow/lite/kernels/internal\types.h ****   // (2) One may run into sub-optimal pre-fetching: the data hasn't been
  83:C:/Renesas/e2studio_2021_01_workspace_RZA2M_ANPR/ANPR_RZA2M_GR_MANGO/src/tensorflow_lite/src/tensorflow/lite/kernels/internal\types.h ****   //     prefetched into the cache by the time we need it.
  84:C:/Renesas/e2studio_2021_01_workspace_RZA2M_ANPR/ANPR_RZA2M_GR_MANGO/src/tensorflow_lite/src/tensorflow/lite/kernels/internal\types.h ****   // (3) One may run into cache aliasing: multiple values that are
  85:C:/Renesas/e2studio_2021_01_workspace_RZA2M_ANPR/ANPR_RZA2M_GR_MANGO/src/tensorflow_lite/src/tensorflow/lite/kernels/internal\types.h ****   //     pre-fetched, alias each other in the L1 cache (which typically
  86:C:/Renesas/e2studio_2021_01_workspace_RZA2M_ANPR/ANPR_RZA2M_GR_MANGO/src/tensorflow_lite/src/tensorflow/lite/kernels/internal\types.h ****   //     has only 4-way set associativity in ARM CPUs) and thus evict
  87:C:/Renesas/e2studio_2021_01_workspace_RZA2M_ANPR/ANPR_RZA2M_GR_MANGO/src/tensorflow_lite/src/tensorflow/lite/kernels/internal\types.h ****   //     each other before we get to using them.
  88:C:/Renesas/e2studio_2021_01_workspace_RZA2M_ANPR/ANPR_RZA2M_GR_MANGO/src/tensorflow_lite/src/tensorflow/lite/kernels/internal\types.h ****   //
  89:C:/Renesas/e2studio_2021_01_workspace_RZA2M_ANPR/ANPR_RZA2M_GR_MANGO/src/tensorflow_lite/src/tensorflow/lite/kernels/internal\types.h ****   // The point of this shuffling is to avoid issues (2) and (3) so that
  90:C:/Renesas/e2studio_2021_01_workspace_RZA2M_ANPR/ANPR_RZA2M_GR_MANGO/src/tensorflow_lite/src/tensorflow/lite/kernels/internal\types.h ****   // we get as fast as possible given only the hard constraint (1).
  91:C:/Renesas/e2studio_2021_01_workspace_RZA2M_ANPR/ANPR_RZA2M_GR_MANGO/src/tensorflow_lite/src/tensorflow/lite/kernels/internal\types.h ****   // This is achieved by turning the difficulty into a solution: the
  92:C:/Renesas/e2studio_2021_01_workspace_RZA2M_ANPR/ANPR_RZA2M_GR_MANGO/src/tensorflow_lite/src/tensorflow/lite/kernels/internal\types.h ****   // difficulty, that each value loaded from memory is used only in
  93:C:/Renesas/e2studio_2021_01_workspace_RZA2M_ANPR/ANPR_RZA2M_GR_MANGO/src/tensorflow_lite/src/tensorflow/lite/kernels/internal\types.h ****   // one kernel iteration, making this operation memory-intensive, hints at
  94:C:/Renesas/e2studio_2021_01_workspace_RZA2M_ANPR/ANPR_RZA2M_GR_MANGO/src/tensorflow_lite/src/tensorflow/lite/kernels/internal\types.h ****   // the solution, of shuffling the weights so that they are stored in the
  95:C:/Renesas/e2studio_2021_01_workspace_RZA2M_ANPR/ANPR_RZA2M_GR_MANGO/src/tensorflow_lite/src/tensorflow/lite/kernels/internal\types.h ****   // exact order as the kernel needs to load them, so that the memory
  96:C:/Renesas/e2studio_2021_01_workspace_RZA2M_ANPR/ANPR_RZA2M_GR_MANGO/src/tensorflow_lite/src/tensorflow/lite/kernels/internal\types.h ****   // accesses made by the kernel are trivial. This solves (2) because the
  97:C:/Renesas/e2studio_2021_01_workspace_RZA2M_ANPR/ANPR_RZA2M_GR_MANGO/src/tensorflow_lite/src/tensorflow/lite/kernels/internal\types.h ****   // trivial memory access pattern allows the CPU's automatic prefetching
  98:C:/Renesas/e2studio_2021_01_workspace_RZA2M_ANPR/ANPR_RZA2M_GR_MANGO/src/tensorflow_lite/src/tensorflow/lite/kernels/internal\types.h ****   // to perform very well (no need even for preload instructions), and this
  99:C:/Renesas/e2studio_2021_01_workspace_RZA2M_ANPR/ANPR_RZA2M_GR_MANGO/src/tensorflow_lite/src/tensorflow/lite/kernels/internal\types.h ****   // solves (3) because the values being loaded concurrently are now
 100:C:/Renesas/e2studio_2021_01_workspace_RZA2M_ANPR/ANPR_RZA2M_GR_MANGO/src/tensorflow_lite/src/tensorflow/lite/kernels/internal\types.h ****   // contiguous in the address space, thus don't alias each other in the cache.
 101:C:/Renesas/e2studio_2021_01_workspace_RZA2M_ANPR/ANPR_RZA2M_GR_MANGO/src/tensorflow_lite/src/tensorflow/lite/kernels/internal\types.h ****   //
 102:C:/Renesas/e2studio_2021_01_workspace_RZA2M_ANPR/ANPR_RZA2M_GR_MANGO/src/tensorflow_lite/src/tensorflow/lite/kernels/internal\types.h ****   // On ARM, we typically want our kernel to process a 4x16 block of weights
 103:C:/Renesas/e2studio_2021_01_workspace_RZA2M_ANPR/ANPR_RZA2M_GR_MANGO/src/tensorflow_lite/src/tensorflow/lite/kernels/internal\types.h ****   // at a time, because:
 104:C:/Renesas/e2studio_2021_01_workspace_RZA2M_ANPR/ANPR_RZA2M_GR_MANGO/src/tensorflow_lite/src/tensorflow/lite/kernels/internal\types.h ****   //   - 16 is the number of bytes in a NEON register.
 105:C:/Renesas/e2studio_2021_01_workspace_RZA2M_ANPR/ANPR_RZA2M_GR_MANGO/src/tensorflow_lite/src/tensorflow/lite/kernels/internal\types.h ****   //   - 4 is how many rows we need to handle concurrently in the kernel in
 106:C:/Renesas/e2studio_2021_01_workspace_RZA2M_ANPR/ANPR_RZA2M_GR_MANGO/src/tensorflow_lite/src/tensorflow/lite/kernels/internal\types.h ****   //     order to have sufficient mutual independence of instructions to
 107:C:/Renesas/e2studio_2021_01_workspace_RZA2M_ANPR/ANPR_RZA2M_GR_MANGO/src/tensorflow_lite/src/tensorflow/lite/kernels/internal\types.h ****   //     maximize arithmetic throughput.
 108:C:/Renesas/e2studio_2021_01_workspace_RZA2M_ANPR/ANPR_RZA2M_GR_MANGO/src/tensorflow_lite/src/tensorflow/lite/kernels/internal\types.h ****   //
 109:C:/Renesas/e2studio_2021_01_workspace_RZA2M_ANPR/ANPR_RZA2M_GR_MANGO/src/tensorflow_lite/src/tensorflow/lite/kernels/internal\types.h ****   // Finally, the 'Int8' part in the name refers to the fact that this
 110:C:/Renesas/e2studio_2021_01_workspace_RZA2M_ANPR/ANPR_RZA2M_GR_MANGO/src/tensorflow_lite/src/tensorflow/lite/kernels/internal\types.h ****   // weights format has each weights value encoded as a signed int8_t value,
 111:C:/Renesas/e2studio_2021_01_workspace_RZA2M_ANPR/ANPR_RZA2M_GR_MANGO/src/tensorflow_lite/src/tensorflow/lite/kernels/internal\types.h ****   // even if the data type of the weights buffer is uint8_t.  This is intended
 112:C:/Renesas/e2studio_2021_01_workspace_RZA2M_ANPR/ANPR_RZA2M_GR_MANGO/src/tensorflow_lite/src/tensorflow/lite/kernels/internal\types.h ****   // to save runtime kernels the effort to have to XOR the top bit of these
 113:C:/Renesas/e2studio_2021_01_workspace_RZA2M_ANPR/ANPR_RZA2M_GR_MANGO/src/tensorflow_lite/src/tensorflow/lite/kernels/internal\types.h ****   // bytes before using them in signed arithmetic, see this file for more
 114:C:/Renesas/e2studio_2021_01_workspace_RZA2M_ANPR/ANPR_RZA2M_GR_MANGO/src/tensorflow_lite/src/tensorflow/lite/kernels/internal\types.h ****   // explanations on the 'signed int8_t trick' in matrix multiplication kernels:
 115:C:/Renesas/e2studio_2021_01_workspace_RZA2M_ANPR/ANPR_RZA2M_GR_MANGO/src/tensorflow_lite/src/tensorflow/lite/kernels/internal\types.h ****   //
 116:C:/Renesas/e2studio_2021_01_workspace_RZA2M_ANPR/ANPR_RZA2M_GR_MANGO/src/tensorflow_lite/src/tensorflow/lite/kernels/internal\types.h ****   //   tensorflow/lite/toco/graph_transformations/ensure_uint8_weights_safe_for_fast_int8_kernels.c
 117:C:/Renesas/e2studio_2021_01_workspace_RZA2M_ANPR/ANPR_RZA2M_GR_MANGO/src/tensorflow_lite/src/tensorflow/lite/kernels/internal\types.h ****   //
 118:C:/Renesas/e2studio_2021_01_workspace_RZA2M_ANPR/ANPR_RZA2M_GR_MANGO/src/tensorflow_lite/src/tensorflow/lite/kernels/internal\types.h ****   kShuffled4x16Int8,
 119:C:/Renesas/e2studio_2021_01_workspace_RZA2M_ANPR/ANPR_RZA2M_GR_MANGO/src/tensorflow_lite/src/tensorflow/lite/kernels/internal\types.h **** };
 120:C:/Renesas/e2studio_2021_01_workspace_RZA2M_ANPR/ANPR_RZA2M_GR_MANGO/src/tensorflow_lite/src/tensorflow/lite/kernels/internal\types.h **** 
 121:C:/Renesas/e2studio_2021_01_workspace_RZA2M_ANPR/ANPR_RZA2M_GR_MANGO/src/tensorflow_lite/src/tensorflow/lite/kernels/internal\types.h **** // Quantization parameters, determining the mapping of quantized values
 122:C:/Renesas/e2studio_2021_01_workspace_RZA2M_ANPR/ANPR_RZA2M_GR_MANGO/src/tensorflow_lite/src/tensorflow/lite/kernels/internal\types.h **** // to real values (i.e. determining how quantized values are mathematically
 123:C:/Renesas/e2studio_2021_01_workspace_RZA2M_ANPR/ANPR_RZA2M_GR_MANGO/src/tensorflow_lite/src/tensorflow/lite/kernels/internal\types.h **** // interpreted).
 124:C:/Renesas/e2studio_2021_01_workspace_RZA2M_ANPR/ANPR_RZA2M_GR_MANGO/src/tensorflow_lite/src/tensorflow/lite/kernels/internal\types.h **** //
 125:C:/Renesas/e2studio_2021_01_workspace_RZA2M_ANPR/ANPR_RZA2M_GR_MANGO/src/tensorflow_lite/src/tensorflow/lite/kernels/internal\types.h **** // The correspondence is as follows:
 126:C:/Renesas/e2studio_2021_01_workspace_RZA2M_ANPR/ANPR_RZA2M_GR_MANGO/src/tensorflow_lite/src/tensorflow/lite/kernels/internal\types.h **** //
 127:C:/Renesas/e2studio_2021_01_workspace_RZA2M_ANPR/ANPR_RZA2M_GR_MANGO/src/tensorflow_lite/src/tensorflow/lite/kernels/internal\types.h **** //   real_value = scale * (quantized_value - zero_point);
 128:C:/Renesas/e2studio_2021_01_workspace_RZA2M_ANPR/ANPR_RZA2M_GR_MANGO/src/tensorflow_lite/src/tensorflow/lite/kernels/internal\types.h **** //
 129:C:/Renesas/e2studio_2021_01_workspace_RZA2M_ANPR/ANPR_RZA2M_GR_MANGO/src/tensorflow_lite/src/tensorflow/lite/kernels/internal\types.h **** // In other words, zero_point designates which quantized value corresponds to
 130:C:/Renesas/e2studio_2021_01_workspace_RZA2M_ANPR/ANPR_RZA2M_GR_MANGO/src/tensorflow_lite/src/tensorflow/lite/kernels/internal\types.h **** // the real 0 value, and scale designates the difference between the real values
 131:C:/Renesas/e2studio_2021_01_workspace_RZA2M_ANPR/ANPR_RZA2M_GR_MANGO/src/tensorflow_lite/src/tensorflow/lite/kernels/internal\types.h **** // corresponding to consecutive quantized values differing by 1.
 132:C:/Renesas/e2studio_2021_01_workspace_RZA2M_ANPR/ANPR_RZA2M_GR_MANGO/src/tensorflow_lite/src/tensorflow/lite/kernels/internal\types.h **** struct QuantizationParams {
 133:C:/Renesas/e2studio_2021_01_workspace_RZA2M_ANPR/ANPR_RZA2M_GR_MANGO/src/tensorflow_lite/src/tensorflow/lite/kernels/internal\types.h ****   int32_t zero_point = 0;
 134:C:/Renesas/e2studio_2021_01_workspace_RZA2M_ANPR/ANPR_RZA2M_GR_MANGO/src/tensorflow_lite/src/tensorflow/lite/kernels/internal\types.h ****   double scale = 0.0;
 135:C:/Renesas/e2studio_2021_01_workspace_RZA2M_ANPR/ANPR_RZA2M_GR_MANGO/src/tensorflow_lite/src/tensorflow/lite/kernels/internal\types.h **** };
 136:C:/Renesas/e2studio_2021_01_workspace_RZA2M_ANPR/ANPR_RZA2M_GR_MANGO/src/tensorflow_lite/src/tensorflow/lite/kernels/internal\types.h **** 
 137:C:/Renesas/e2studio_2021_01_workspace_RZA2M_ANPR/ANPR_RZA2M_GR_MANGO/src/tensorflow_lite/src/tensorflow/lite/kernels/internal\types.h **** inline bool operator==(const QuantizationParams& qp1,
 138:C:/Renesas/e2studio_2021_01_workspace_RZA2M_ANPR/ANPR_RZA2M_GR_MANGO/src/tensorflow_lite/src/tensorflow/lite/kernels/internal\types.h ****                        const QuantizationParams& qp2) {
 139:C:/Renesas/e2studio_2021_01_workspace_RZA2M_ANPR/ANPR_RZA2M_GR_MANGO/src/tensorflow_lite/src/tensorflow/lite/kernels/internal\types.h ****   return qp1.zero_point == qp2.zero_point && qp1.scale == qp2.scale;
 140:C:/Renesas/e2studio_2021_01_workspace_RZA2M_ANPR/ANPR_RZA2M_GR_MANGO/src/tensorflow_lite/src/tensorflow/lite/kernels/internal\types.h **** }
 141:C:/Renesas/e2studio_2021_01_workspace_RZA2M_ANPR/ANPR_RZA2M_GR_MANGO/src/tensorflow_lite/src/tensorflow/lite/kernels/internal\types.h **** 
 142:C:/Renesas/e2studio_2021_01_workspace_RZA2M_ANPR/ANPR_RZA2M_GR_MANGO/src/tensorflow_lite/src/tensorflow/lite/kernels/internal\types.h **** template <int N>
 143:C:/Renesas/e2studio_2021_01_workspace_RZA2M_ANPR/ANPR_RZA2M_GR_MANGO/src/tensorflow_lite/src/tensorflow/lite/kernels/internal\types.h **** struct Dims {
 144:C:/Renesas/e2studio_2021_01_workspace_RZA2M_ANPR/ANPR_RZA2M_GR_MANGO/src/tensorflow_lite/src/tensorflow/lite/kernels/internal\types.h ****   int sizes[N];
 145:C:/Renesas/e2studio_2021_01_workspace_RZA2M_ANPR/ANPR_RZA2M_GR_MANGO/src/tensorflow_lite/src/tensorflow/lite/kernels/internal\types.h ****   int strides[N];
 146:C:/Renesas/e2studio_2021_01_workspace_RZA2M_ANPR/ANPR_RZA2M_GR_MANGO/src/tensorflow_lite/src/tensorflow/lite/kernels/internal\types.h **** };
 147:C:/Renesas/e2studio_2021_01_workspace_RZA2M_ANPR/ANPR_RZA2M_GR_MANGO/src/tensorflow_lite/src/tensorflow/lite/kernels/internal\types.h **** 
 148:C:/Renesas/e2studio_2021_01_workspace_RZA2M_ANPR/ANPR_RZA2M_GR_MANGO/src/tensorflow_lite/src/tensorflow/lite/kernels/internal\types.h **** class RuntimeShape {
 149:C:/Renesas/e2studio_2021_01_workspace_RZA2M_ANPR/ANPR_RZA2M_GR_MANGO/src/tensorflow_lite/src/tensorflow/lite/kernels/internal\types.h ****  public:
 150:C:/Renesas/e2studio_2021_01_workspace_RZA2M_ANPR/ANPR_RZA2M_GR_MANGO/src/tensorflow_lite/src/tensorflow/lite/kernels/internal\types.h ****   // Shapes with dimensions up to 5 are stored directly in the structure, while
 151:C:/Renesas/e2studio_2021_01_workspace_RZA2M_ANPR/ANPR_RZA2M_GR_MANGO/src/tensorflow_lite/src/tensorflow/lite/kernels/internal\types.h ****   // larger shapes are separately allocated.
 152:C:/Renesas/e2studio_2021_01_workspace_RZA2M_ANPR/ANPR_RZA2M_GR_MANGO/src/tensorflow_lite/src/tensorflow/lite/kernels/internal\types.h ****   static constexpr int kMaxSmallSize = 5;
 153:C:/Renesas/e2studio_2021_01_workspace_RZA2M_ANPR/ANPR_RZA2M_GR_MANGO/src/tensorflow_lite/src/tensorflow/lite/kernels/internal\types.h **** 
 154:C:/Renesas/e2studio_2021_01_workspace_RZA2M_ANPR/ANPR_RZA2M_GR_MANGO/src/tensorflow_lite/src/tensorflow/lite/kernels/internal\types.h ****   RuntimeShape& operator=(RuntimeShape const&) = delete;
 155:C:/Renesas/e2studio_2021_01_workspace_RZA2M_ANPR/ANPR_RZA2M_GR_MANGO/src/tensorflow_lite/src/tensorflow/lite/kernels/internal\types.h **** 
 156:C:/Renesas/e2studio_2021_01_workspace_RZA2M_ANPR/ANPR_RZA2M_GR_MANGO/src/tensorflow_lite/src/tensorflow/lite/kernels/internal\types.h ****   RuntimeShape() : size_(0) {}
 157:C:/Renesas/e2studio_2021_01_workspace_RZA2M_ANPR/ANPR_RZA2M_GR_MANGO/src/tensorflow_lite/src/tensorflow/lite/kernels/internal\types.h **** 
 158:C:/Renesas/e2studio_2021_01_workspace_RZA2M_ANPR/ANPR_RZA2M_GR_MANGO/src/tensorflow_lite/src/tensorflow/lite/kernels/internal\types.h ****   explicit RuntimeShape(int dimensions_count) : size_(dimensions_count) {
 159:C:/Renesas/e2studio_2021_01_workspace_RZA2M_ANPR/ANPR_RZA2M_GR_MANGO/src/tensorflow_lite/src/tensorflow/lite/kernels/internal\types.h ****     if (dimensions_count > kMaxSmallSize) {
 160:C:/Renesas/e2studio_2021_01_workspace_RZA2M_ANPR/ANPR_RZA2M_GR_MANGO/src/tensorflow_lite/src/tensorflow/lite/kernels/internal\types.h **** #ifdef TF_LITE_STATIC_MEMORY
 161:C:/Renesas/e2studio_2021_01_workspace_RZA2M_ANPR/ANPR_RZA2M_GR_MANGO/src/tensorflow_lite/src/tensorflow/lite/kernels/internal\types.h ****       TFLITE_CHECK(false && "No shape resizing supported on this platform");
 162:C:/Renesas/e2studio_2021_01_workspace_RZA2M_ANPR/ANPR_RZA2M_GR_MANGO/src/tensorflow_lite/src/tensorflow/lite/kernels/internal\types.h **** #else  // TF_LITE_STATIC_MEMORY
 163:C:/Renesas/e2studio_2021_01_workspace_RZA2M_ANPR/ANPR_RZA2M_GR_MANGO/src/tensorflow_lite/src/tensorflow/lite/kernels/internal\types.h ****       dims_pointer_ = new int32_t[dimensions_count];
 164:C:/Renesas/e2studio_2021_01_workspace_RZA2M_ANPR/ANPR_RZA2M_GR_MANGO/src/tensorflow_lite/src/tensorflow/lite/kernels/internal\types.h **** #endif  // TF_LITE_STATIC_MEMORY
 165:C:/Renesas/e2studio_2021_01_workspace_RZA2M_ANPR/ANPR_RZA2M_GR_MANGO/src/tensorflow_lite/src/tensorflow/lite/kernels/internal\types.h ****     }
 166:C:/Renesas/e2studio_2021_01_workspace_RZA2M_ANPR/ANPR_RZA2M_GR_MANGO/src/tensorflow_lite/src/tensorflow/lite/kernels/internal\types.h ****   }
 167:C:/Renesas/e2studio_2021_01_workspace_RZA2M_ANPR/ANPR_RZA2M_GR_MANGO/src/tensorflow_lite/src/tensorflow/lite/kernels/internal\types.h **** 
 168:C:/Renesas/e2studio_2021_01_workspace_RZA2M_ANPR/ANPR_RZA2M_GR_MANGO/src/tensorflow_lite/src/tensorflow/lite/kernels/internal\types.h ****   RuntimeShape(int shape_size, int32_t value) : size_(0) {
 169:C:/Renesas/e2studio_2021_01_workspace_RZA2M_ANPR/ANPR_RZA2M_GR_MANGO/src/tensorflow_lite/src/tensorflow/lite/kernels/internal\types.h ****     Resize(shape_size);
 170:C:/Renesas/e2studio_2021_01_workspace_RZA2M_ANPR/ANPR_RZA2M_GR_MANGO/src/tensorflow_lite/src/tensorflow/lite/kernels/internal\types.h ****     for (int i = 0; i < shape_size; ++i) {
 171:C:/Renesas/e2studio_2021_01_workspace_RZA2M_ANPR/ANPR_RZA2M_GR_MANGO/src/tensorflow_lite/src/tensorflow/lite/kernels/internal\types.h ****       SetDim(i, value);
 172:C:/Renesas/e2studio_2021_01_workspace_RZA2M_ANPR/ANPR_RZA2M_GR_MANGO/src/tensorflow_lite/src/tensorflow/lite/kernels/internal\types.h ****     }
 173:C:/Renesas/e2studio_2021_01_workspace_RZA2M_ANPR/ANPR_RZA2M_GR_MANGO/src/tensorflow_lite/src/tensorflow/lite/kernels/internal\types.h ****   }
 174:C:/Renesas/e2studio_2021_01_workspace_RZA2M_ANPR/ANPR_RZA2M_GR_MANGO/src/tensorflow_lite/src/tensorflow/lite/kernels/internal\types.h **** 
 175:C:/Renesas/e2studio_2021_01_workspace_RZA2M_ANPR/ANPR_RZA2M_GR_MANGO/src/tensorflow_lite/src/tensorflow/lite/kernels/internal\types.h ****   RuntimeShape(int dimensions_count, const int32_t* dims_data) : size_(0) {
 176:C:/Renesas/e2studio_2021_01_workspace_RZA2M_ANPR/ANPR_RZA2M_GR_MANGO/src/tensorflow_lite/src/tensorflow/lite/kernels/internal\types.h ****     ReplaceWith(dimensions_count, dims_data);
 177:C:/Renesas/e2studio_2021_01_workspace_RZA2M_ANPR/ANPR_RZA2M_GR_MANGO/src/tensorflow_lite/src/tensorflow/lite/kernels/internal\types.h ****   }
 178:C:/Renesas/e2studio_2021_01_workspace_RZA2M_ANPR/ANPR_RZA2M_GR_MANGO/src/tensorflow_lite/src/tensorflow/lite/kernels/internal\types.h **** 
 179:C:/Renesas/e2studio_2021_01_workspace_RZA2M_ANPR/ANPR_RZA2M_GR_MANGO/src/tensorflow_lite/src/tensorflow/lite/kernels/internal\types.h ****   RuntimeShape(const std::initializer_list<int> init_list) : size_(0) {
 180:C:/Renesas/e2studio_2021_01_workspace_RZA2M_ANPR/ANPR_RZA2M_GR_MANGO/src/tensorflow_lite/src/tensorflow/lite/kernels/internal\types.h ****     BuildFrom(init_list);
 181:C:/Renesas/e2studio_2021_01_workspace_RZA2M_ANPR/ANPR_RZA2M_GR_MANGO/src/tensorflow_lite/src/tensorflow/lite/kernels/internal\types.h ****   }
 182:C:/Renesas/e2studio_2021_01_workspace_RZA2M_ANPR/ANPR_RZA2M_GR_MANGO/src/tensorflow_lite/src/tensorflow/lite/kernels/internal\types.h **** 
 183:C:/Renesas/e2studio_2021_01_workspace_RZA2M_ANPR/ANPR_RZA2M_GR_MANGO/src/tensorflow_lite/src/tensorflow/lite/kernels/internal\types.h ****   // Avoid using this constructor.  We should be able to delete it when C++17
 184:C:/Renesas/e2studio_2021_01_workspace_RZA2M_ANPR/ANPR_RZA2M_GR_MANGO/src/tensorflow_lite/src/tensorflow/lite/kernels/internal\types.h ****   // rolls out.
 185:C:/Renesas/e2studio_2021_01_workspace_RZA2M_ANPR/ANPR_RZA2M_GR_MANGO/src/tensorflow_lite/src/tensorflow/lite/kernels/internal\types.h ****   RuntimeShape(RuntimeShape const& other) : size_(other.DimensionsCount()) {
 186:C:/Renesas/e2studio_2021_01_workspace_RZA2M_ANPR/ANPR_RZA2M_GR_MANGO/src/tensorflow_lite/src/tensorflow/lite/kernels/internal\types.h ****     if (size_ > kMaxSmallSize) {
 187:C:/Renesas/e2studio_2021_01_workspace_RZA2M_ANPR/ANPR_RZA2M_GR_MANGO/src/tensorflow_lite/src/tensorflow/lite/kernels/internal\types.h **** #ifdef TF_LITE_STATIC_MEMORY
 188:C:/Renesas/e2studio_2021_01_workspace_RZA2M_ANPR/ANPR_RZA2M_GR_MANGO/src/tensorflow_lite/src/tensorflow/lite/kernels/internal\types.h ****       TFLITE_CHECK(false && "No shape resizing supported on this platform");
 189:C:/Renesas/e2studio_2021_01_workspace_RZA2M_ANPR/ANPR_RZA2M_GR_MANGO/src/tensorflow_lite/src/tensorflow/lite/kernels/internal\types.h **** #else
 190:C:/Renesas/e2studio_2021_01_workspace_RZA2M_ANPR/ANPR_RZA2M_GR_MANGO/src/tensorflow_lite/src/tensorflow/lite/kernels/internal\types.h ****       dims_pointer_ = new int32_t[size_];
 191:C:/Renesas/e2studio_2021_01_workspace_RZA2M_ANPR/ANPR_RZA2M_GR_MANGO/src/tensorflow_lite/src/tensorflow/lite/kernels/internal\types.h **** #endif
 192:C:/Renesas/e2studio_2021_01_workspace_RZA2M_ANPR/ANPR_RZA2M_GR_MANGO/src/tensorflow_lite/src/tensorflow/lite/kernels/internal\types.h ****     }
 193:C:/Renesas/e2studio_2021_01_workspace_RZA2M_ANPR/ANPR_RZA2M_GR_MANGO/src/tensorflow_lite/src/tensorflow/lite/kernels/internal\types.h ****     std::memcpy(DimsData(), other.DimsData(), sizeof(int32_t) * size_);
 194:C:/Renesas/e2studio_2021_01_workspace_RZA2M_ANPR/ANPR_RZA2M_GR_MANGO/src/tensorflow_lite/src/tensorflow/lite/kernels/internal\types.h ****   }
 195:C:/Renesas/e2studio_2021_01_workspace_RZA2M_ANPR/ANPR_RZA2M_GR_MANGO/src/tensorflow_lite/src/tensorflow/lite/kernels/internal\types.h **** 
 196:C:/Renesas/e2studio_2021_01_workspace_RZA2M_ANPR/ANPR_RZA2M_GR_MANGO/src/tensorflow_lite/src/tensorflow/lite/kernels/internal\types.h ****   bool operator==(const RuntimeShape& comp) const {
 197:C:/Renesas/e2studio_2021_01_workspace_RZA2M_ANPR/ANPR_RZA2M_GR_MANGO/src/tensorflow_lite/src/tensorflow/lite/kernels/internal\types.h ****     return this->size_ == comp.size_ &&
 198:C:/Renesas/e2studio_2021_01_workspace_RZA2M_ANPR/ANPR_RZA2M_GR_MANGO/src/tensorflow_lite/src/tensorflow/lite/kernels/internal\types.h ****            std::memcmp(DimsData(), comp.DimsData(), size_ * sizeof(int32_t)) ==
 199:C:/Renesas/e2studio_2021_01_workspace_RZA2M_ANPR/ANPR_RZA2M_GR_MANGO/src/tensorflow_lite/src/tensorflow/lite/kernels/internal\types.h ****                0;
 200:C:/Renesas/e2studio_2021_01_workspace_RZA2M_ANPR/ANPR_RZA2M_GR_MANGO/src/tensorflow_lite/src/tensorflow/lite/kernels/internal\types.h ****   }
 201:C:/Renesas/e2studio_2021_01_workspace_RZA2M_ANPR/ANPR_RZA2M_GR_MANGO/src/tensorflow_lite/src/tensorflow/lite/kernels/internal\types.h **** 
 202:C:/Renesas/e2studio_2021_01_workspace_RZA2M_ANPR/ANPR_RZA2M_GR_MANGO/src/tensorflow_lite/src/tensorflow/lite/kernels/internal\types.h ****   ~RuntimeShape() {
 203:C:/Renesas/e2studio_2021_01_workspace_RZA2M_ANPR/ANPR_RZA2M_GR_MANGO/src/tensorflow_lite/src/tensorflow/lite/kernels/internal\types.h ****     if (size_ > kMaxSmallSize) {
 204:C:/Renesas/e2studio_2021_01_workspace_RZA2M_ANPR/ANPR_RZA2M_GR_MANGO/src/tensorflow_lite/src/tensorflow/lite/kernels/internal\types.h **** #ifdef TF_LITE_STATIC_MEMORY
 205:C:/Renesas/e2studio_2021_01_workspace_RZA2M_ANPR/ANPR_RZA2M_GR_MANGO/src/tensorflow_lite/src/tensorflow/lite/kernels/internal\types.h ****       TFLITE_CHECK(false && "No shape resizing supported on this platform");
 206:C:/Renesas/e2studio_2021_01_workspace_RZA2M_ANPR/ANPR_RZA2M_GR_MANGO/src/tensorflow_lite/src/tensorflow/lite/kernels/internal\types.h **** #else  // TF_LITE_STATIC_MEMORY
 207:C:/Renesas/e2studio_2021_01_workspace_RZA2M_ANPR/ANPR_RZA2M_GR_MANGO/src/tensorflow_lite/src/tensorflow/lite/kernels/internal\types.h ****       delete[] dims_pointer_;
 208:C:/Renesas/e2studio_2021_01_workspace_RZA2M_ANPR/ANPR_RZA2M_GR_MANGO/src/tensorflow_lite/src/tensorflow/lite/kernels/internal\types.h **** #endif  // TF_LITE_STATIC_MEMORY
 209:C:/Renesas/e2studio_2021_01_workspace_RZA2M_ANPR/ANPR_RZA2M_GR_MANGO/src/tensorflow_lite/src/tensorflow/lite/kernels/internal\types.h ****     }
 210:C:/Renesas/e2studio_2021_01_workspace_RZA2M_ANPR/ANPR_RZA2M_GR_MANGO/src/tensorflow_lite/src/tensorflow/lite/kernels/internal\types.h ****   }
 211:C:/Renesas/e2studio_2021_01_workspace_RZA2M_ANPR/ANPR_RZA2M_GR_MANGO/src/tensorflow_lite/src/tensorflow/lite/kernels/internal\types.h **** 
 212:C:/Renesas/e2studio_2021_01_workspace_RZA2M_ANPR/ANPR_RZA2M_GR_MANGO/src/tensorflow_lite/src/tensorflow/lite/kernels/internal\types.h ****   inline int32_t DimensionsCount() const { return size_; }
 213:C:/Renesas/e2studio_2021_01_workspace_RZA2M_ANPR/ANPR_RZA2M_GR_MANGO/src/tensorflow_lite/src/tensorflow/lite/kernels/internal\types.h ****   inline int32_t Dims(int i) const {
 214:C:/Renesas/e2studio_2021_01_workspace_RZA2M_ANPR/ANPR_RZA2M_GR_MANGO/src/tensorflow_lite/src/tensorflow/lite/kernels/internal\types.h ****     TFLITE_DCHECK_GE(i, 0);
 215:C:/Renesas/e2studio_2021_01_workspace_RZA2M_ANPR/ANPR_RZA2M_GR_MANGO/src/tensorflow_lite/src/tensorflow/lite/kernels/internal\types.h ****     TFLITE_DCHECK_LT(i, size_);
 216:C:/Renesas/e2studio_2021_01_workspace_RZA2M_ANPR/ANPR_RZA2M_GR_MANGO/src/tensorflow_lite/src/tensorflow/lite/kernels/internal\types.h ****     return size_ > kMaxSmallSize ? dims_pointer_[i] : dims_[i];
 217:C:/Renesas/e2studio_2021_01_workspace_RZA2M_ANPR/ANPR_RZA2M_GR_MANGO/src/tensorflow_lite/src/tensorflow/lite/kernels/internal\types.h ****   }
 218:C:/Renesas/e2studio_2021_01_workspace_RZA2M_ANPR/ANPR_RZA2M_GR_MANGO/src/tensorflow_lite/src/tensorflow/lite/kernels/internal\types.h ****   inline void SetDim(int i, int32_t val) {
 219:C:/Renesas/e2studio_2021_01_workspace_RZA2M_ANPR/ANPR_RZA2M_GR_MANGO/src/tensorflow_lite/src/tensorflow/lite/kernels/internal\types.h ****     TFLITE_DCHECK_GE(i, 0);
 220:C:/Renesas/e2studio_2021_01_workspace_RZA2M_ANPR/ANPR_RZA2M_GR_MANGO/src/tensorflow_lite/src/tensorflow/lite/kernels/internal\types.h ****     TFLITE_DCHECK_LT(i, size_);
 221:C:/Renesas/e2studio_2021_01_workspace_RZA2M_ANPR/ANPR_RZA2M_GR_MANGO/src/tensorflow_lite/src/tensorflow/lite/kernels/internal\types.h ****     if (size_ > kMaxSmallSize) {
 222:C:/Renesas/e2studio_2021_01_workspace_RZA2M_ANPR/ANPR_RZA2M_GR_MANGO/src/tensorflow_lite/src/tensorflow/lite/kernels/internal\types.h ****       dims_pointer_[i] = val;
 223:C:/Renesas/e2studio_2021_01_workspace_RZA2M_ANPR/ANPR_RZA2M_GR_MANGO/src/tensorflow_lite/src/tensorflow/lite/kernels/internal\types.h ****     } else {
 224:C:/Renesas/e2studio_2021_01_workspace_RZA2M_ANPR/ANPR_RZA2M_GR_MANGO/src/tensorflow_lite/src/tensorflow/lite/kernels/internal\types.h ****       dims_[i] = val;
 225:C:/Renesas/e2studio_2021_01_workspace_RZA2M_ANPR/ANPR_RZA2M_GR_MANGO/src/tensorflow_lite/src/tensorflow/lite/kernels/internal\types.h ****     }
 226:C:/Renesas/e2studio_2021_01_workspace_RZA2M_ANPR/ANPR_RZA2M_GR_MANGO/src/tensorflow_lite/src/tensorflow/lite/kernels/internal\types.h ****   }
 227:C:/Renesas/e2studio_2021_01_workspace_RZA2M_ANPR/ANPR_RZA2M_GR_MANGO/src/tensorflow_lite/src/tensorflow/lite/kernels/internal\types.h **** 
 228:C:/Renesas/e2studio_2021_01_workspace_RZA2M_ANPR/ANPR_RZA2M_GR_MANGO/src/tensorflow_lite/src/tensorflow/lite/kernels/internal\types.h ****   inline int32_t* DimsData() {
 229:C:/Renesas/e2studio_2021_01_workspace_RZA2M_ANPR/ANPR_RZA2M_GR_MANGO/src/tensorflow_lite/src/tensorflow/lite/kernels/internal\types.h ****     return size_ > kMaxSmallSize ? dims_pointer_ : dims_;
 230:C:/Renesas/e2studio_2021_01_workspace_RZA2M_ANPR/ANPR_RZA2M_GR_MANGO/src/tensorflow_lite/src/tensorflow/lite/kernels/internal\types.h ****   }
 231:C:/Renesas/e2studio_2021_01_workspace_RZA2M_ANPR/ANPR_RZA2M_GR_MANGO/src/tensorflow_lite/src/tensorflow/lite/kernels/internal\types.h ****   inline const int32_t* DimsData() const {
 232:C:/Renesas/e2studio_2021_01_workspace_RZA2M_ANPR/ANPR_RZA2M_GR_MANGO/src/tensorflow_lite/src/tensorflow/lite/kernels/internal\types.h ****     return size_ > kMaxSmallSize ? dims_pointer_ : dims_;
 233:C:/Renesas/e2studio_2021_01_workspace_RZA2M_ANPR/ANPR_RZA2M_GR_MANGO/src/tensorflow_lite/src/tensorflow/lite/kernels/internal\types.h ****   }
 234:C:/Renesas/e2studio_2021_01_workspace_RZA2M_ANPR/ANPR_RZA2M_GR_MANGO/src/tensorflow_lite/src/tensorflow/lite/kernels/internal\types.h ****   // The caller must ensure that the shape is no bigger than 5-D.
 235:C:/Renesas/e2studio_2021_01_workspace_RZA2M_ANPR/ANPR_RZA2M_GR_MANGO/src/tensorflow_lite/src/tensorflow/lite/kernels/internal\types.h ****   inline const int32_t* DimsDataUpTo5D() const { return dims_; }
 236:C:/Renesas/e2studio_2021_01_workspace_RZA2M_ANPR/ANPR_RZA2M_GR_MANGO/src/tensorflow_lite/src/tensorflow/lite/kernels/internal\types.h **** 
 237:C:/Renesas/e2studio_2021_01_workspace_RZA2M_ANPR/ANPR_RZA2M_GR_MANGO/src/tensorflow_lite/src/tensorflow/lite/kernels/internal\types.h ****   inline void Resize(int dimensions_count) {
 238:C:/Renesas/e2studio_2021_01_workspace_RZA2M_ANPR/ANPR_RZA2M_GR_MANGO/src/tensorflow_lite/src/tensorflow/lite/kernels/internal\types.h ****     if (size_ > kMaxSmallSize) {
 239:C:/Renesas/e2studio_2021_01_workspace_RZA2M_ANPR/ANPR_RZA2M_GR_MANGO/src/tensorflow_lite/src/tensorflow/lite/kernels/internal\types.h **** #ifdef TF_LITE_STATIC_MEMORY
 240:C:/Renesas/e2studio_2021_01_workspace_RZA2M_ANPR/ANPR_RZA2M_GR_MANGO/src/tensorflow_lite/src/tensorflow/lite/kernels/internal\types.h ****       TFLITE_CHECK(false && "No shape resizing supported on this platform");
 241:C:/Renesas/e2studio_2021_01_workspace_RZA2M_ANPR/ANPR_RZA2M_GR_MANGO/src/tensorflow_lite/src/tensorflow/lite/kernels/internal\types.h **** #else  // TF_LITE_STATIC_MEMORY
 242:C:/Renesas/e2studio_2021_01_workspace_RZA2M_ANPR/ANPR_RZA2M_GR_MANGO/src/tensorflow_lite/src/tensorflow/lite/kernels/internal\types.h ****       delete[] dims_pointer_;
 243:C:/Renesas/e2studio_2021_01_workspace_RZA2M_ANPR/ANPR_RZA2M_GR_MANGO/src/tensorflow_lite/src/tensorflow/lite/kernels/internal\types.h **** #endif  // TF_LITE_STATIC_MEMORY
 244:C:/Renesas/e2studio_2021_01_workspace_RZA2M_ANPR/ANPR_RZA2M_GR_MANGO/src/tensorflow_lite/src/tensorflow/lite/kernels/internal\types.h ****     }
 245:C:/Renesas/e2studio_2021_01_workspace_RZA2M_ANPR/ANPR_RZA2M_GR_MANGO/src/tensorflow_lite/src/tensorflow/lite/kernels/internal\types.h ****     size_ = dimensions_count;
 246:C:/Renesas/e2studio_2021_01_workspace_RZA2M_ANPR/ANPR_RZA2M_GR_MANGO/src/tensorflow_lite/src/tensorflow/lite/kernels/internal\types.h ****     if (dimensions_count > kMaxSmallSize) {
 586              		.loc 5 246 0
 587 002c 050055E3 		cmp	r5, #5
 588 0030 CD0000DA 		ble	.L39
 589              	.LVL47:
 590              	.LBB509:
 591              	.LBB510:
 247:C:/Renesas/e2studio_2021_01_workspace_RZA2M_ANPR/ANPR_RZA2M_GR_MANGO/src/tensorflow_lite/src/tensorflow/lite/kernels/internal\types.h **** #ifdef TF_LITE_STATIC_MEMORY
 248:C:/Renesas/e2studio_2021_01_workspace_RZA2M_ANPR/ANPR_RZA2M_GR_MANGO/src/tensorflow_lite/src/tensorflow/lite/kernels/internal\types.h ****       TFLITE_CHECK(false && "No shape resizing supported on this platform");
 249:C:/Renesas/e2studio_2021_01_workspace_RZA2M_ANPR/ANPR_RZA2M_GR_MANGO/src/tensorflow_lite/src/tensorflow/lite/kernels/internal\types.h **** #else  // TF_LITE_STATIC_MEMORY
 250:C:/Renesas/e2studio_2021_01_workspace_RZA2M_ANPR/ANPR_RZA2M_GR_MANGO/src/tensorflow_lite/src/tensorflow/lite/kernels/internal\types.h ****       dims_pointer_ = new int32_t[dimensions_count];
 592              		.loc 5 250 0
 593 0034 2E0275E3 		cmn	r5, #-536870910
 594 0038 C50300CA 		bgt	.L40
 595 003c 0501A0E1 		lsl	r0, r5, #2
 596              	.LVL48:
 597              	.LEHB0:
 598 0040 FEFFFFEB 		bl	_Znaj
 599              	.LVL49:
 600              	.LEHE0:
 601 0044 080055E3 		cmp	r5, #8
 602 0048 0C008DE5 		str	r0, [sp, #12]
 603              	.LVL50:
 604 004c 0020A0D3 		movle	r2, #0
 605 0050 120000DA 		ble	.L42
 606 0054 091045E2 		sub	r1, r5, #9
 607 0058 883080E2 		add	r3, r0, #136
 608 005c 0710C1E3 		bic	r1, r1, #7
 609 0060 0020A0E3 		mov	r2, #0
 610 0064 081081E2 		add	r1, r1, #8
 611              	.LBE510:
 612              	.LBE509:
 613              	.LBE508:
 614              	.LBE507:
 615              	.LBB514:
 616              	.LBB515:
 617              	.LBB516:
 222:C:/Renesas/e2studio_2021_01_workspace_RZA2M_ANPR/ANPR_RZA2M_GR_MANGO/src/tensorflow_lite/src/tensorflow/lite/kernels/internal\types.h ****     } else {
 618              		.loc 5 222 0
 619 0068 01C0A0E3 		mov	ip, #1
 620              	.LVL51:
 621              	.L46:
 622 006c 082082E2 		add	r2, r2, #8
 623              	.LVL52:
 624 0070 00F0D3F5 		pld	[r3]
 625 0074 010052E1 		cmp	r2, r1
 626 0078 88C003E5 		str	ip, [r3, #-136]
 627              	.LVL53:
 628 007c 84C003E5 		str	ip, [r3, #-132]
 629 0080 203083E2 		add	r3, r3, #32
 630 0084 A0C003E5 		str	ip, [r3, #-160]
 631 0088 9CC003E5 		str	ip, [r3, #-156]
 632 008c 98C003E5 		str	ip, [r3, #-152]
 633 0090 94C003E5 		str	ip, [r3, #-148]
 634 0094 90C003E5 		str	ip, [r3, #-144]
 635 0098 8CC003E5 		str	ip, [r3, #-140]
 636              	.LVL54:
 637 009c F2FFFF1A 		bne	.L46
 638              	.LVL55:
 639              	.L42:
 640 00a0 020180E0 		add	r0, r0, r2, lsl #2
 641 00a4 0130A0E3 		mov	r3, #1
 642              	.L48:
 643              	.LVL56:
 644              	.LBE516:
 645              	.LBE515:
 170:C:/Renesas/e2studio_2021_01_workspace_RZA2M_ANPR/ANPR_RZA2M_GR_MANGO/src/tensorflow_lite/src/tensorflow/lite/kernels/internal\types.h ****       SetDim(i, value);
 646              		.loc 5 170 0
 647 00a8 012082E2 		add	r2, r2, #1
 648              	.LVL57:
 649              	.LBB520:
 650              	.LBB517:
 222:C:/Renesas/e2studio_2021_01_workspace_RZA2M_ANPR/ANPR_RZA2M_GR_MANGO/src/tensorflow_lite/src/tensorflow/lite/kernels/internal\types.h ****     } else {
 651              		.loc 5 222 0
 652 00ac 043080E4 		str	r3, [r0], #4
 653              	.LVL58:
 654              	.LBE517:
 655              	.LBE520:
 170:C:/Renesas/e2studio_2021_01_workspace_RZA2M_ANPR/ANPR_RZA2M_GR_MANGO/src/tensorflow_lite/src/tensorflow/lite/kernels/internal\types.h ****       SetDim(i, value);
 656              		.loc 5 170 0
 657 00b0 020055E1 		cmp	r5, r2
 658 00b4 FBFFFFCA 		bgt	.L48
 659              	.LVL59:
 660              	.LBE514:
 661              	.LBE506:
 662              	.LBE505:
 663              	.LBB531:
 664              	.LBB532:
 665              	.LBB533:
 666              	.LBB534:
 667              	.LBB535:
 251:C:/Renesas/e2studio_2021_01_workspace_RZA2M_ANPR/ANPR_RZA2M_GR_MANGO/src/tensorflow_lite/src/tensorflow/lite/kernels/internal\types.h **** #endif  // TF_LITE_STATIC_MEMORY
 252:C:/Renesas/e2studio_2021_01_workspace_RZA2M_ANPR/ANPR_RZA2M_GR_MANGO/src/tensorflow_lite/src/tensorflow/lite/kernels/internal\types.h ****     }
 253:C:/Renesas/e2studio_2021_01_workspace_RZA2M_ANPR/ANPR_RZA2M_GR_MANGO/src/tensorflow_lite/src/tensorflow/lite/kernels/internal\types.h ****   }
 254:C:/Renesas/e2studio_2021_01_workspace_RZA2M_ANPR/ANPR_RZA2M_GR_MANGO/src/tensorflow_lite/src/tensorflow/lite/kernels/internal\types.h **** 
 255:C:/Renesas/e2studio_2021_01_workspace_RZA2M_ANPR/ANPR_RZA2M_GR_MANGO/src/tensorflow_lite/src/tensorflow/lite/kernels/internal\types.h ****   inline void ReplaceWith(int dimensions_count, const int32_t* dims_data) {
 256:C:/Renesas/e2studio_2021_01_workspace_RZA2M_ANPR/ANPR_RZA2M_GR_MANGO/src/tensorflow_lite/src/tensorflow/lite/kernels/internal\types.h ****     Resize(dimensions_count);
 257:C:/Renesas/e2studio_2021_01_workspace_RZA2M_ANPR/ANPR_RZA2M_GR_MANGO/src/tensorflow_lite/src/tensorflow/lite/kernels/internal\types.h ****     int32_t* dst_dims = DimsData();
 258:C:/Renesas/e2studio_2021_01_workspace_RZA2M_ANPR/ANPR_RZA2M_GR_MANGO/src/tensorflow_lite/src/tensorflow/lite/kernels/internal\types.h ****     std::memcpy(dst_dims, dims_data, dimensions_count * sizeof(int32_t));
 259:C:/Renesas/e2studio_2021_01_workspace_RZA2M_ANPR/ANPR_RZA2M_GR_MANGO/src/tensorflow_lite/src/tensorflow/lite/kernels/internal\types.h ****   }
 260:C:/Renesas/e2studio_2021_01_workspace_RZA2M_ANPR/ANPR_RZA2M_GR_MANGO/src/tensorflow_lite/src/tensorflow/lite/kernels/internal\types.h **** 
 261:C:/Renesas/e2studio_2021_01_workspace_RZA2M_ANPR/ANPR_RZA2M_GR_MANGO/src/tensorflow_lite/src/tensorflow/lite/kernels/internal\types.h ****   template <typename T>
 262:C:/Renesas/e2studio_2021_01_workspace_RZA2M_ANPR/ANPR_RZA2M_GR_MANGO/src/tensorflow_lite/src/tensorflow/lite/kernels/internal\types.h ****   inline void BuildFrom(const T& src_iterable) {
 263:C:/Renesas/e2studio_2021_01_workspace_RZA2M_ANPR/ANPR_RZA2M_GR_MANGO/src/tensorflow_lite/src/tensorflow/lite/kernels/internal\types.h ****     const int dimensions_count =
 264:C:/Renesas/e2studio_2021_01_workspace_RZA2M_ANPR/ANPR_RZA2M_GR_MANGO/src/tensorflow_lite/src/tensorflow/lite/kernels/internal\types.h ****         std::distance(src_iterable.begin(), src_iterable.end());
 265:C:/Renesas/e2studio_2021_01_workspace_RZA2M_ANPR/ANPR_RZA2M_GR_MANGO/src/tensorflow_lite/src/tensorflow/lite/kernels/internal\types.h ****     Resize(dimensions_count);
 266:C:/Renesas/e2studio_2021_01_workspace_RZA2M_ANPR/ANPR_RZA2M_GR_MANGO/src/tensorflow_lite/src/tensorflow/lite/kernels/internal\types.h ****     int32_t* data = DimsData();
 267:C:/Renesas/e2studio_2021_01_workspace_RZA2M_ANPR/ANPR_RZA2M_GR_MANGO/src/tensorflow_lite/src/tensorflow/lite/kernels/internal\types.h ****     for (auto it : src_iterable) {
 268:C:/Renesas/e2studio_2021_01_workspace_RZA2M_ANPR/ANPR_RZA2M_GR_MANGO/src/tensorflow_lite/src/tensorflow/lite/kernels/internal\types.h ****       *data = it;
 269:C:/Renesas/e2studio_2021_01_workspace_RZA2M_ANPR/ANPR_RZA2M_GR_MANGO/src/tensorflow_lite/src/tensorflow/lite/kernels/internal\types.h ****       ++data;
 270:C:/Renesas/e2studio_2021_01_workspace_RZA2M_ANPR/ANPR_RZA2M_GR_MANGO/src/tensorflow_lite/src/tensorflow/lite/kernels/internal\types.h ****     }
 271:C:/Renesas/e2studio_2021_01_workspace_RZA2M_ANPR/ANPR_RZA2M_GR_MANGO/src/tensorflow_lite/src/tensorflow/lite/kernels/internal\types.h ****   }
 272:C:/Renesas/e2studio_2021_01_workspace_RZA2M_ANPR/ANPR_RZA2M_GR_MANGO/src/tensorflow_lite/src/tensorflow/lite/kernels/internal\types.h **** 
 273:C:/Renesas/e2studio_2021_01_workspace_RZA2M_ANPR/ANPR_RZA2M_GR_MANGO/src/tensorflow_lite/src/tensorflow/lite/kernels/internal\types.h ****   // This will probably be factored out. Old code made substantial use of 4-D
 274:C:/Renesas/e2studio_2021_01_workspace_RZA2M_ANPR/ANPR_RZA2M_GR_MANGO/src/tensorflow_lite/src/tensorflow/lite/kernels/internal\types.h ****   // shapes, and so this function is used to extend smaller shapes. Note that
 275:C:/Renesas/e2studio_2021_01_workspace_RZA2M_ANPR/ANPR_RZA2M_GR_MANGO/src/tensorflow_lite/src/tensorflow/lite/kernels/internal\types.h ****   // (a) as Dims<4>-dependent code is eliminated, the reliance on this should be
 276:C:/Renesas/e2studio_2021_01_workspace_RZA2M_ANPR/ANPR_RZA2M_GR_MANGO/src/tensorflow_lite/src/tensorflow/lite/kernels/internal\types.h ****   // reduced, and (b) some kernels are stricly 4-D, but then the shapes of their
 277:C:/Renesas/e2studio_2021_01_workspace_RZA2M_ANPR/ANPR_RZA2M_GR_MANGO/src/tensorflow_lite/src/tensorflow/lite/kernels/internal\types.h ****   // inputs should already be 4-D, so this function should not be needed.
 278:C:/Renesas/e2studio_2021_01_workspace_RZA2M_ANPR/ANPR_RZA2M_GR_MANGO/src/tensorflow_lite/src/tensorflow/lite/kernels/internal\types.h ****   inline static RuntimeShape ExtendedShape(int new_shape_size,
 279:C:/Renesas/e2studio_2021_01_workspace_RZA2M_ANPR/ANPR_RZA2M_GR_MANGO/src/tensorflow_lite/src/tensorflow/lite/kernels/internal\types.h ****                                            const RuntimeShape& shape) {
 280:C:/Renesas/e2studio_2021_01_workspace_RZA2M_ANPR/ANPR_RZA2M_GR_MANGO/src/tensorflow_lite/src/tensorflow/lite/kernels/internal\types.h ****     return RuntimeShape(new_shape_size, shape, 1);
 281:C:/Renesas/e2studio_2021_01_workspace_RZA2M_ANPR/ANPR_RZA2M_GR_MANGO/src/tensorflow_lite/src/tensorflow/lite/kernels/internal\types.h ****   }
 282:C:/Renesas/e2studio_2021_01_workspace_RZA2M_ANPR/ANPR_RZA2M_GR_MANGO/src/tensorflow_lite/src/tensorflow/lite/kernels/internal\types.h **** 
 283:C:/Renesas/e2studio_2021_01_workspace_RZA2M_ANPR/ANPR_RZA2M_GR_MANGO/src/tensorflow_lite/src/tensorflow/lite/kernels/internal\types.h ****   inline void BuildFrom(const std::initializer_list<int> init_list) {
 284:C:/Renesas/e2studio_2021_01_workspace_RZA2M_ANPR/ANPR_RZA2M_GR_MANGO/src/tensorflow_lite/src/tensorflow/lite/kernels/internal\types.h ****     BuildFrom<const std::initializer_list<int>>(init_list);
 285:C:/Renesas/e2studio_2021_01_workspace_RZA2M_ANPR/ANPR_RZA2M_GR_MANGO/src/tensorflow_lite/src/tensorflow/lite/kernels/internal\types.h ****   }
 286:C:/Renesas/e2studio_2021_01_workspace_RZA2M_ANPR/ANPR_RZA2M_GR_MANGO/src/tensorflow_lite/src/tensorflow/lite/kernels/internal\types.h **** 
 287:C:/Renesas/e2studio_2021_01_workspace_RZA2M_ANPR/ANPR_RZA2M_GR_MANGO/src/tensorflow_lite/src/tensorflow/lite/kernels/internal\types.h ****   // Returns the total count of elements, that is the size when flattened into a
 288:C:/Renesas/e2studio_2021_01_workspace_RZA2M_ANPR/ANPR_RZA2M_GR_MANGO/src/tensorflow_lite/src/tensorflow/lite/kernels/internal\types.h ****   // vector.
 289:C:/Renesas/e2studio_2021_01_workspace_RZA2M_ANPR/ANPR_RZA2M_GR_MANGO/src/tensorflow_lite/src/tensorflow/lite/kernels/internal\types.h ****   inline int FlatSize() const {
 290:C:/Renesas/e2studio_2021_01_workspace_RZA2M_ANPR/ANPR_RZA2M_GR_MANGO/src/tensorflow_lite/src/tensorflow/lite/kernels/internal\types.h ****     int buffer_size = 1;
 291:C:/Renesas/e2studio_2021_01_workspace_RZA2M_ANPR/ANPR_RZA2M_GR_MANGO/src/tensorflow_lite/src/tensorflow/lite/kernels/internal\types.h ****     const int* dims_data = reinterpret_cast<const int*>(DimsData());
 292:C:/Renesas/e2studio_2021_01_workspace_RZA2M_ANPR/ANPR_RZA2M_GR_MANGO/src/tensorflow_lite/src/tensorflow/lite/kernels/internal\types.h ****     for (int i = 0; i < size_; i++) {
 293:C:/Renesas/e2studio_2021_01_workspace_RZA2M_ANPR/ANPR_RZA2M_GR_MANGO/src/tensorflow_lite/src/tensorflow/lite/kernels/internal\types.h ****       buffer_size *= dims_data[i];
 294:C:/Renesas/e2studio_2021_01_workspace_RZA2M_ANPR/ANPR_RZA2M_GR_MANGO/src/tensorflow_lite/src/tensorflow/lite/kernels/internal\types.h ****     }
 295:C:/Renesas/e2studio_2021_01_workspace_RZA2M_ANPR/ANPR_RZA2M_GR_MANGO/src/tensorflow_lite/src/tensorflow/lite/kernels/internal\types.h ****     return buffer_size;
 296:C:/Renesas/e2studio_2021_01_workspace_RZA2M_ANPR/ANPR_RZA2M_GR_MANGO/src/tensorflow_lite/src/tensorflow/lite/kernels/internal\types.h ****   }
 297:C:/Renesas/e2studio_2021_01_workspace_RZA2M_ANPR/ANPR_RZA2M_GR_MANGO/src/tensorflow_lite/src/tensorflow/lite/kernels/internal\types.h **** 
 298:C:/Renesas/e2studio_2021_01_workspace_RZA2M_ANPR/ANPR_RZA2M_GR_MANGO/src/tensorflow_lite/src/tensorflow/lite/kernels/internal\types.h ****   bool operator!=(const RuntimeShape& comp) const { return !((*this) == comp); }
 299:C:/Renesas/e2studio_2021_01_workspace_RZA2M_ANPR/ANPR_RZA2M_GR_MANGO/src/tensorflow_lite/src/tensorflow/lite/kernels/internal\types.h **** 
 300:C:/Renesas/e2studio_2021_01_workspace_RZA2M_ANPR/ANPR_RZA2M_GR_MANGO/src/tensorflow_lite/src/tensorflow/lite/kernels/internal\types.h ****  private:
 301:C:/Renesas/e2studio_2021_01_workspace_RZA2M_ANPR/ANPR_RZA2M_GR_MANGO/src/tensorflow_lite/src/tensorflow/lite/kernels/internal\types.h ****   // For use only by ExtendedShape(), written to guarantee (return-value) copy
 302:C:/Renesas/e2studio_2021_01_workspace_RZA2M_ANPR/ANPR_RZA2M_GR_MANGO/src/tensorflow_lite/src/tensorflow/lite/kernels/internal\types.h ****   // elision in C++17.
 303:C:/Renesas/e2studio_2021_01_workspace_RZA2M_ANPR/ANPR_RZA2M_GR_MANGO/src/tensorflow_lite/src/tensorflow/lite/kernels/internal\types.h ****   // This creates a shape padded to the desired size with the specified value.
 304:C:/Renesas/e2studio_2021_01_workspace_RZA2M_ANPR/ANPR_RZA2M_GR_MANGO/src/tensorflow_lite/src/tensorflow/lite/kernels/internal\types.h ****   RuntimeShape(int new_shape_size, const RuntimeShape& shape, int pad_value)
 305:C:/Renesas/e2studio_2021_01_workspace_RZA2M_ANPR/ANPR_RZA2M_GR_MANGO/src/tensorflow_lite/src/tensorflow/lite/kernels/internal\types.h ****       : size_(0) {
 306:C:/Renesas/e2studio_2021_01_workspace_RZA2M_ANPR/ANPR_RZA2M_GR_MANGO/src/tensorflow_lite/src/tensorflow/lite/kernels/internal\types.h ****     // If the following check fails, it is likely because a 4D-only kernel is
 307:C:/Renesas/e2studio_2021_01_workspace_RZA2M_ANPR/ANPR_RZA2M_GR_MANGO/src/tensorflow_lite/src/tensorflow/lite/kernels/internal\types.h ****     // being used with an array of larger dimension count.
 308:C:/Renesas/e2studio_2021_01_workspace_RZA2M_ANPR/ANPR_RZA2M_GR_MANGO/src/tensorflow_lite/src/tensorflow/lite/kernels/internal\types.h ****     TFLITE_CHECK_GE(new_shape_size, shape.DimensionsCount());
 668              		.loc 5 308 0
 669 00b8 003097E5 		ldr	r3, [r7]
 670              	.LBE535:
 305:C:/Renesas/e2studio_2021_01_workspace_RZA2M_ANPR/ANPR_RZA2M_GR_MANGO/src/tensorflow_lite/src/tensorflow/lite/kernels/internal\types.h ****     // If the following check fails, it is likely because a 4D-only kernel is
 671              		.loc 5 305 0
 672 00bc 0020A0E3 		mov	r2, #0
 673 00c0 20208DE5 		str	r2, [sp, #32]
 674              	.LVL60:
 675              	.LBB586:
 676              		.loc 5 308 0
 677 00c4 050053E1 		cmp	r3, r5
 678              	.LBB536:
 679              	.LBB537:
 245:C:/Renesas/e2studio_2021_01_workspace_RZA2M_ANPR/ANPR_RZA2M_GR_MANGO/src/tensorflow_lite/src/tensorflow/lite/kernels/internal\types.h ****     if (dimensions_count > kMaxSmallSize) {
 680              		.loc 5 245 0
 681 00c8 20508DD5 		strle	r5, [sp, #32]
 682              	.LBE537:
 683              	.LBE536:
 684              		.loc 5 308 0
 685 00cc AF0000CA 		bgt	.L44
 686              	.LVL61:
 687              	.L202:
 688              	.LBB546:
 689              	.LBB542:
 690              	.LBB538:
 691              	.LBB539:
 250:C:/Renesas/e2studio_2021_01_workspace_RZA2M_ANPR/ANPR_RZA2M_GR_MANGO/src/tensorflow_lite/src/tensorflow/lite/kernels/internal\types.h **** #endif  // TF_LITE_STATIC_MEMORY
 692              		.loc 5 250 0
 693 00d0 2E0275E3 		cmn	r5, #-536870910
 694 00d4 8E0300CA 		bgt	.L50
 695 00d8 0501A0E1 		lsl	r0, r5, #2
 696              	.LEHB1:
 697 00dc FEFFFFEB 		bl	_Znaj
 698              	.LVL62:
 699              	.LEHE1:
 700 00e0 002097E5 		ldr	r2, [r7]
 701 00e4 24008DE5 		str	r0, [sp, #36]
 702              	.LVL63:
 703              	.LBE539:
 704              	.LBE538:
 705              	.LBE542:
 706              	.LBE546:
 309:C:/Renesas/e2studio_2021_01_workspace_RZA2M_ANPR/ANPR_RZA2M_GR_MANGO/src/tensorflow_lite/src/tensorflow/lite/kernels/internal\types.h ****     Resize(new_shape_size);
 310:C:/Renesas/e2studio_2021_01_workspace_RZA2M_ANPR/ANPR_RZA2M_GR_MANGO/src/tensorflow_lite/src/tensorflow/lite/kernels/internal\types.h ****     const int size_increase = new_shape_size - shape.DimensionsCount();
 707              		.loc 5 310 0
 708 00e8 023045E0 		sub	r3, r5, r2
 709              	.LVL64:
 710              	.LBB547:
 311:C:/Renesas/e2studio_2021_01_workspace_RZA2M_ANPR/ANPR_RZA2M_GR_MANGO/src/tensorflow_lite/src/tensorflow/lite/kernels/internal\types.h ****     for (int i = 0; i < size_increase; ++i) {
 711              		.loc 5 311 0
 712 00ec 000053E3 		cmp	r3, #0
 713 00f0 0D0000DA 		ble	.L196
 714              	.LVL65:
 715              	.LBB548:
 716              	.LBB549:
 220:C:/Renesas/e2studio_2021_01_workspace_RZA2M_ANPR/ANPR_RZA2M_GR_MANGO/src/tensorflow_lite/src/tensorflow/lite/kernels/internal\types.h ****     if (size_ > kMaxSmallSize) {
 717              		.loc 5 220 0
 718 00f4 000055E3 		cmp	r5, #0
 719 00f8 040040C2 		subgt	r0, r0, #4
 720 00fc 0020A0C3 		movgt	r2, #0
 222:C:/Renesas/e2studio_2021_01_workspace_RZA2M_ANPR/ANPR_RZA2M_GR_MANGO/src/tensorflow_lite/src/tensorflow/lite/kernels/internal\types.h ****     } else {
 721              		.loc 5 222 0
 722 0100 0110A0C3 		movgt	r1, #1
 220:C:/Renesas/e2studio_2021_01_workspace_RZA2M_ANPR/ANPR_RZA2M_GR_MANGO/src/tensorflow_lite/src/tensorflow/lite/kernels/internal\types.h ****     if (size_ > kMaxSmallSize) {
 723              		.loc 5 220 0
 724 0104 020000CA 		bgt	.L53
 725 0108 BF0000EA 		b	.L54
 726              	.LVL66:
 727              	.L431:
 728 010c 050052E1 		cmp	r2, r5
 729 0110 BD00000A 		beq	.L54
 730              	.LVL67:
 731              	.L53:
 732              	.LBE549:
 733              	.LBE548:
 734              		.loc 5 311 0
 735 0114 012082E2 		add	r2, r2, #1
 736              	.LVL68:
 737              	.LBB562:
 738              	.LBB550:
 222:C:/Renesas/e2studio_2021_01_workspace_RZA2M_ANPR/ANPR_RZA2M_GR_MANGO/src/tensorflow_lite/src/tensorflow/lite/kernels/internal\types.h ****     } else {
 739              		.loc 5 222 0
 740 0118 0410A0E5 		str	r1, [r0, #4]!
 741              	.LVL69:
 742              	.LBE550:
 743              	.LBE562:
 744              		.loc 5 311 0
 745 011c 030052E1 		cmp	r2, r3
 746 0120 F9FFFFBA 		blt	.L431
 747              	.LVL70:
 748 0124 24009DE5 		ldr	r0, [sp, #36]
 749 0128 002097E5 		ldr	r2, [r7]
 750              	.LVL71:
 751              	.L196:
 752              	.LBE547:
 753              	.LBB574:
 754              	.LBB575:
 232:C:/Renesas/e2studio_2021_01_workspace_RZA2M_ANPR/ANPR_RZA2M_GR_MANGO/src/tensorflow_lite/src/tensorflow/lite/kernels/internal\types.h ****   }
 755              		.loc 5 232 0
 756 012c 050052E3 		cmp	r2, #5
 757              	.LBE575:
 758              	.LBE574:
 312:C:/Renesas/e2studio_2021_01_workspace_RZA2M_ANPR/ANPR_RZA2M_GR_MANGO/src/tensorflow_lite/src/tensorflow/lite/kernels/internal\types.h ****       SetDim(i, pad_value);
 313:C:/Renesas/e2studio_2021_01_workspace_RZA2M_ANPR/ANPR_RZA2M_GR_MANGO/src/tensorflow_lite/src/tensorflow/lite/kernels/internal\types.h ****     }
 314:C:/Renesas/e2studio_2021_01_workspace_RZA2M_ANPR/ANPR_RZA2M_GR_MANGO/src/tensorflow_lite/src/tensorflow/lite/kernels/internal\types.h ****     std::memcpy(DimsData() + size_increase, shape.DimsData(),
 759              		.loc 5 314 0
 760 0130 030180E0 		add	r0, r0, r3, lsl #2
 761              	.LVL72:
 762              	.LBB577:
 763              	.LBB576:
 232:C:/Renesas/e2studio_2021_01_workspace_RZA2M_ANPR/ANPR_RZA2M_GR_MANGO/src/tensorflow_lite/src/tensorflow/lite/kernels/internal\types.h ****   }
 764              		.loc 5 232 0
 765 0134 041097C5 		ldrgt	r1, [r7, #4]
 766 0138 041087D2 		addle	r1, r7, #4
 767              	.LBE576:
 768              	.LBE577:
 315:C:/Renesas/e2studio_2021_01_workspace_RZA2M_ANPR/ANPR_RZA2M_GR_MANGO/src/tensorflow_lite/src/tensorflow/lite/kernels/internal\types.h ****                 sizeof(int32_t) * shape.DimensionsCount());
 769              		.loc 5 315 0
 770 013c 0221A0E1 		lsl	r2, r2, #2
 771 0140 FEFFFFEB 		bl	memcpy
 772              	.LVL73:
 773 0144 002096E5 		ldr	r2, [r6]
 774              	.LVL74:
 775              	.LBE586:
 776              	.LBE534:
 777              	.LBE533:
 778              	.LBE532:
 779              	.LBE531:
 780              	.LBB611:
 781              	.LBB612:
 782              	.LBB613:
 783              	.LBB614:
 305:C:/Renesas/e2studio_2021_01_workspace_RZA2M_ANPR/ANPR_RZA2M_GR_MANGO/src/tensorflow_lite/src/tensorflow/lite/kernels/internal\types.h ****     // If the following check fails, it is likely because a 4D-only kernel is
 784              		.loc 5 305 0
 785 0148 0030A0E3 		mov	r3, #0
 786 014c 38308DE5 		str	r3, [sp, #56]
 787              	.LBB615:
 308:C:/Renesas/e2studio_2021_01_workspace_RZA2M_ANPR/ANPR_RZA2M_GR_MANGO/src/tensorflow_lite/src/tensorflow/lite/kernels/internal\types.h ****     Resize(new_shape_size);
 788              		.loc 5 308 0
 789 0150 050052E1 		cmp	r2, r5
 790 0154 710300CA 		bgt	.L505
 791              	.LVL75:
 792              	.LBB616:
 793              	.LBB617:
 246:C:/Renesas/e2studio_2021_01_workspace_RZA2M_ANPR/ANPR_RZA2M_GR_MANGO/src/tensorflow_lite/src/tensorflow/lite/kernels/internal\types.h **** #ifdef TF_LITE_STATIC_MEMORY
 794              		.loc 5 246 0
 795 0158 050055E3 		cmp	r5, #5
 245:C:/Renesas/e2studio_2021_01_workspace_RZA2M_ANPR/ANPR_RZA2M_GR_MANGO/src/tensorflow_lite/src/tensorflow/lite/kernels/internal\types.h ****     if (dimensions_count > kMaxSmallSize) {
 796              		.loc 5 245 0
 797 015c 38508DE5 		str	r5, [sp, #56]
 246:C:/Renesas/e2studio_2021_01_workspace_RZA2M_ANPR/ANPR_RZA2M_GR_MANGO/src/tensorflow_lite/src/tensorflow/lite/kernels/internal\types.h **** #ifdef TF_LITE_STATIC_MEMORY
 798              		.loc 5 246 0
 799 0160 AD0000DA 		ble	.L61
 800              	.LVL76:
 801              	.LBB618:
 802              	.LBB619:
 250:C:/Renesas/e2studio_2021_01_workspace_RZA2M_ANPR/ANPR_RZA2M_GR_MANGO/src/tensorflow_lite/src/tensorflow/lite/kernels/internal\types.h **** #endif  // TF_LITE_STATIC_MEMORY
 803              		.loc 5 250 0
 804 0164 2E0275E3 		cmn	r5, #-536870910
 805 0168 760300CA 		bgt	.L62
 806 016c 0501A0E1 		lsl	r0, r5, #2
 807              	.LEHB2:
 808 0170 FEFFFFEB 		bl	_Znaj
 809              	.LVL77:
 810              	.LEHE2:
 811 0174 002096E5 		ldr	r2, [r6]
 812 0178 3C008DE5 		str	r0, [sp, #60]
 813              	.LVL78:
 814              	.LBE619:
 815              	.LBE618:
 816              	.LBE617:
 817              	.LBE616:
 310:C:/Renesas/e2studio_2021_01_workspace_RZA2M_ANPR/ANPR_RZA2M_GR_MANGO/src/tensorflow_lite/src/tensorflow/lite/kernels/internal\types.h ****     for (int i = 0; i < size_increase; ++i) {
 818              		.loc 5 310 0
 819 017c 021045E0 		sub	r1, r5, r2
 820              	.LVL79:
 821              	.LBB623:
 311:C:/Renesas/e2studio_2021_01_workspace_RZA2M_ANPR/ANPR_RZA2M_GR_MANGO/src/tensorflow_lite/src/tensorflow/lite/kernels/internal\types.h ****       SetDim(i, pad_value);
 822              		.loc 5 311 0
 823 0180 000051E3 		cmp	r1, #0
 824 0184 042040C2 		subgt	r2, r0, #4
 825 0188 0030A0C3 		movgt	r3, #0
 826              	.LBB624:
 827              	.LBB625:
 222:C:/Renesas/e2studio_2021_01_workspace_RZA2M_ANPR/ANPR_RZA2M_GR_MANGO/src/tensorflow_lite/src/tensorflow/lite/kernels/internal\types.h ****     } else {
 828              		.loc 5 222 0
 829 018c 0100A0C3 		movgt	r0, #1
 830              	.LBE625:
 831              	.LBE624:
 311:C:/Renesas/e2studio_2021_01_workspace_RZA2M_ANPR/ANPR_RZA2M_GR_MANGO/src/tensorflow_lite/src/tensorflow/lite/kernels/internal\types.h ****       SetDim(i, pad_value);
 832              		.loc 5 311 0
 833 0190 020000CA 		bgt	.L65
 834 0194 070000EA 		b	.L198
 835              	.LVL80:
 836              	.L433:
 837              	.LBB639:
 838              	.LBB626:
 220:C:/Renesas/e2studio_2021_01_workspace_RZA2M_ANPR/ANPR_RZA2M_GR_MANGO/src/tensorflow_lite/src/tensorflow/lite/kernels/internal\types.h ****     if (size_ > kMaxSmallSize) {
 839              		.loc 5 220 0
 840 0198 050053E1 		cmp	r3, r5
 841 019c BB00000A 		beq	.L66
 842              	.LVL81:
 843              	.L65:
 844              	.LBE626:
 845              	.LBE639:
 311:C:/Renesas/e2studio_2021_01_workspace_RZA2M_ANPR/ANPR_RZA2M_GR_MANGO/src/tensorflow_lite/src/tensorflow/lite/kernels/internal\types.h ****       SetDim(i, pad_value);
 846              		.loc 5 311 0
 847 01a0 013083E2 		add	r3, r3, #1
 848              	.LVL82:
 849              	.LBB640:
 850              	.LBB627:
 222:C:/Renesas/e2studio_2021_01_workspace_RZA2M_ANPR/ANPR_RZA2M_GR_MANGO/src/tensorflow_lite/src/tensorflow/lite/kernels/internal\types.h ****     } else {
 851              		.loc 5 222 0
 852 01a4 0400A2E5 		str	r0, [r2, #4]!
 853              	.LVL83:
 854              	.LBE627:
 855              	.LBE640:
 311:C:/Renesas/e2studio_2021_01_workspace_RZA2M_ANPR/ANPR_RZA2M_GR_MANGO/src/tensorflow_lite/src/tensorflow/lite/kernels/internal\types.h ****       SetDim(i, pad_value);
 856              		.loc 5 311 0
 857 01a8 010053E1 		cmp	r3, r1
 858 01ac F9FFFFBA 		blt	.L433
 859              	.LVL84:
 860 01b0 3C009DE5 		ldr	r0, [sp, #60]
 861 01b4 002096E5 		ldr	r2, [r6]
 862              	.LVL85:
 863              	.L198:
 864              	.LBE623:
 865              	.LBB652:
 866              	.LBB653:
 232:C:/Renesas/e2studio_2021_01_workspace_RZA2M_ANPR/ANPR_RZA2M_GR_MANGO/src/tensorflow_lite/src/tensorflow/lite/kernels/internal\types.h ****   }
 867              		.loc 5 232 0
 868 01b8 050052E3 		cmp	r2, #5
 869              	.LBE653:
 870              	.LBE652:
 314:C:/Renesas/e2studio_2021_01_workspace_RZA2M_ANPR/ANPR_RZA2M_GR_MANGO/src/tensorflow_lite/src/tensorflow/lite/kernels/internal\types.h ****                 sizeof(int32_t) * shape.DimensionsCount());
 871              		.loc 5 314 0
 872 01bc 010180E0 		add	r0, r0, r1, lsl #2
 873              	.LVL86:
 874              		.loc 5 315 0
 875 01c0 0221A0E1 		lsl	r2, r2, #2
 876              	.LBB655:
 877              	.LBB654:
 232:C:/Renesas/e2studio_2021_01_workspace_RZA2M_ANPR/ANPR_RZA2M_GR_MANGO/src/tensorflow_lite/src/tensorflow/lite/kernels/internal\types.h ****   }
 878              		.loc 5 232 0
 879 01c4 041096C5 		ldrgt	r1, [r6, #4]
 880              	.LVL87:
 881 01c8 041086D2 		addle	r1, r6, #4
 882              	.LBE654:
 883              	.LBE655:
 884              		.loc 5 315 0
 885 01cc FEFFFFEB 		bl	memcpy
 886              	.LVL88:
 887              	.LBE615:
 888              	.LBE614:
 889              	.LBE613:
 890              	.LBE612:
 891              	.LBE611:
 892              	.LBB676:
 893              	.LBB677:
 197:C:/Renesas/e2studio_2021_01_workspace_RZA2M_ANPR/ANPR_RZA2M_GR_MANGO/src/tensorflow_lite/src/tensorflow/lite/kernels/internal\types.h ****            std::memcmp(DimsData(), comp.DimsData(), size_ * sizeof(int32_t)) ==
 894              		.loc 5 197 0
 895 01d0 20709DE5 		ldr	r7, [sp, #32]
 896              	.LVL89:
 897 01d4 38609DE5 		ldr	r6, [sp, #56]
 898              	.LVL90:
 899 01d8 060057E1 		cmp	r7, r6
 900 01dc AC00000A 		beq	.L506
 901              	.L72:
 902              	.LVL91:
 903              	.LBE677:
 904              	.LBE676:
 905              	.LBB687:
  45:C:/Renesas/e2studio_2021_01_workspace_RZA2M_ANPR/ANPR_RZA2M_GR_MANGO/src/tensorflow_lite/src/tensorflow/lite/kernels/internal/reference\process_broadcast_shapes.h ****   RuntimeShape scalar_shape(dims_count, 1);
  46:C:/Renesas/e2studio_2021_01_workspace_RZA2M_ANPR/ANPR_RZA2M_GR_MANGO/src/tensorflow_lite/src/tensorflow/lite/kernels/internal/reference\process_broadcast_shapes.h **** 
  47:C:/Renesas/e2studio_2021_01_workspace_RZA2M_ANPR/ANPR_RZA2M_GR_MANGO/src/tensorflow_lite/src/tensorflow/lite/kernels/internal/reference\process_broadcast_shapes.h ****   auto extended_shape0 = RuntimeShape::ExtendedShape(dims_count, shape0);
  48:C:/Renesas/e2studio_2021_01_workspace_RZA2M_ANPR/ANPR_RZA2M_GR_MANGO/src/tensorflow_lite/src/tensorflow/lite/kernels/internal/reference\process_broadcast_shapes.h ****   auto extended_shape1 = RuntimeShape::ExtendedShape(dims_count, shape1);
  49:C:/Renesas/e2studio_2021_01_workspace_RZA2M_ANPR/ANPR_RZA2M_GR_MANGO/src/tensorflow_lite/src/tensorflow/lite/kernels/internal/reference\process_broadcast_shapes.h **** 
  50:C:/Renesas/e2studio_2021_01_workspace_RZA2M_ANPR/ANPR_RZA2M_GR_MANGO/src/tensorflow_lite/src/tensorflow/lite/kernels/internal/reference\process_broadcast_shapes.h ****   // Check for "exact" match, implicitly accepting any scalar shapes.
  51:C:/Renesas/e2studio_2021_01_workspace_RZA2M_ANPR/ANPR_RZA2M_GR_MANGO/src/tensorflow_lite/src/tensorflow/lite/kernels/internal/reference\process_broadcast_shapes.h ****   if (extended_shape0 == extended_shape1) {
  52:C:/Renesas/e2studio_2021_01_workspace_RZA2M_ANPR/ANPR_RZA2M_GR_MANGO/src/tensorflow_lite/src/tensorflow/lite/kernels/internal/reference\process_broadcast_shapes.h ****     params->broadcast_category = BroadcastableOpCategory::kNonBroadcast;
  53:C:/Renesas/e2studio_2021_01_workspace_RZA2M_ANPR/ANPR_RZA2M_GR_MANGO/src/tensorflow_lite/src/tensorflow/lite/kernels/internal/reference\process_broadcast_shapes.h ****     return false;
  54:C:/Renesas/e2studio_2021_01_workspace_RZA2M_ANPR/ANPR_RZA2M_GR_MANGO/src/tensorflow_lite/src/tensorflow/lite/kernels/internal/reference\process_broadcast_shapes.h ****   }
  55:C:/Renesas/e2studio_2021_01_workspace_RZA2M_ANPR/ANPR_RZA2M_GR_MANGO/src/tensorflow_lite/src/tensorflow/lite/kernels/internal/reference\process_broadcast_shapes.h **** 
  56:C:/Renesas/e2studio_2021_01_workspace_RZA2M_ANPR/ANPR_RZA2M_GR_MANGO/src/tensorflow_lite/src/tensorflow/lite/kernels/internal/reference\process_broadcast_shapes.h ****   for (int i = dims_count - 1; i >= 0; --i) {
 906              		.loc 4 56 0
 907 01e0 013055E2 		subs	r3, r5, #1
 908              	.LVL92:
 909 01e4 3900004A 		bmi	.L84
 910              	.LVL93:
 911              	.LBB688:
 912              	.LBB689:
 215:C:/Renesas/e2studio_2021_01_workspace_RZA2M_ANPR/ANPR_RZA2M_GR_MANGO/src/tensorflow_lite/src/tensorflow/lite/kernels/internal\types.h ****     return size_ > kMaxSmallSize ? dims_pointer_[i] : dims_[i];
 913              		.loc 5 215 0
 914 01e8 070053E1 		cmp	r3, r7
 915 01ec 7E0100AA 		bge	.L78
 916 01f0 050057E3 		cmp	r7, #5
 216:C:/Renesas/e2studio_2021_01_workspace_RZA2M_ANPR/ANPR_RZA2M_GR_MANGO/src/tensorflow_lite/src/tensorflow/lite/kernels/internal\types.h ****   }
 917              		.loc 5 216 0
 918 01f4 24809DE5 		ldr	r8, [sp, #36]
 919              	.LBE689:
 920              	.LBE688:
 921              	.LBB718:
 922              	.LBB719:
 923 01f8 3C009DE5 		ldr	r0, [sp, #60]
 924 01fc B60000CA 		bgt	.L80
 925 0200 050056E3 		cmp	r6, #5
 926 0204 430100CA 		bgt	.L81
 927              	.LBE719:
 928              	.LBE718:
 929              	.LBB749:
 930              	.LBB690:
 931 0208 50208DE2 		add	r2, sp, #80
 932              	.LBE690:
 933              	.LBE749:
 934              	.LBB750:
 935              	.LBB720:
 215:C:/Renesas/e2studio_2021_01_workspace_RZA2M_ANPR/ANPR_RZA2M_GR_MANGO/src/tensorflow_lite/src/tensorflow/lite/kernels/internal\types.h ****     return size_ > kMaxSmallSize ? dims_pointer_[i] : dims_[i];
 936              		.loc 5 215 0
 937 020c 060053E1 		cmp	r3, r6
 938              	.LBE720:
 939              	.LBE750:
 940              	.LBB751:
 941              	.LBB691:
 216:C:/Renesas/e2studio_2021_01_workspace_RZA2M_ANPR/ANPR_RZA2M_GR_MANGO/src/tensorflow_lite/src/tensorflow/lite/kernels/internal\types.h ****   }
 942              		.loc 5 216 0
 943 0210 032182E0 		add	r2, r2, r3, lsl #2
 944 0214 2CC012E5 		ldr	ip, [r2, #-44]
 945              	.LVL94:
 946              	.LBE691:
 947              	.LBE751:
 948              	.LBB752:
 949              	.LBB721:
 215:C:/Renesas/e2studio_2021_01_workspace_RZA2M_ANPR/ANPR_RZA2M_GR_MANGO/src/tensorflow_lite/src/tensorflow/lite/kernels/internal\types.h ****     return size_ > kMaxSmallSize ? dims_pointer_[i] : dims_[i];
 950              		.loc 5 215 0
 951 0218 370300AA 		bge	.L82
 216:C:/Renesas/e2studio_2021_01_workspace_RZA2M_ANPR/ANPR_RZA2M_GR_MANGO/src/tensorflow_lite/src/tensorflow/lite/kernels/internal\types.h ****   }
 952              		.loc 5 216 0
 953 021c 14E012E5 		ldr	lr, [r2, #-20]
 954              	.LVL95:
 955              	.LBE721:
 956              	.LBE752:
  57:C:/Renesas/e2studio_2021_01_workspace_RZA2M_ANPR/ANPR_RZA2M_GR_MANGO/src/tensorflow_lite/src/tensorflow/lite/kernels/internal/reference\process_broadcast_shapes.h ****     if (extended_shape0.Dims(i) == extended_shape1.Dims(i)) {
 957              		.loc 4 57 0
 958 0220 0C005EE1 		cmp	lr, ip
 959 0224 DD00001A 		bne	.L83
 960              	.LVL96:
  56:C:/Renesas/e2studio_2021_01_workspace_RZA2M_ANPR/ANPR_RZA2M_GR_MANGO/src/tensorflow_lite/src/tensorflow/lite/kernels/internal/reference\process_broadcast_shapes.h ****     if (extended_shape0.Dims(i) == extended_shape1.Dims(i)) {
 961              		.loc 4 56 0
 962 0228 022055E2 		subs	r2, r5, #2
 963              	.LVL97:
 964 022c 2700004A 		bmi	.L84
 965              	.LVL98:
 966              	.LBB753:
 967              	.LBB692:
 215:C:/Renesas/e2studio_2021_01_workspace_RZA2M_ANPR/ANPR_RZA2M_GR_MANGO/src/tensorflow_lite/src/tensorflow/lite/kernels/internal\types.h ****     return size_ > kMaxSmallSize ? dims_pointer_[i] : dims_[i];
 968              		.loc 5 215 0
 969 0230 070052E1 		cmp	r2, r7
 970 0234 6C0100AA 		bge	.L78
 216:C:/Renesas/e2studio_2021_01_workspace_RZA2M_ANPR/ANPR_RZA2M_GR_MANGO/src/tensorflow_lite/src/tensorflow/lite/kernels/internal\types.h ****   }
 971              		.loc 5 216 0
 972 0238 50108DE2 		add	r1, sp, #80
 973              	.LBE692:
 974              	.LBE753:
 975              	.LBB754:
 976              	.LBB722:
 215:C:/Renesas/e2studio_2021_01_workspace_RZA2M_ANPR/ANPR_RZA2M_GR_MANGO/src/tensorflow_lite/src/tensorflow/lite/kernels/internal\types.h ****     return size_ > kMaxSmallSize ? dims_pointer_[i] : dims_[i];
 977              		.loc 5 215 0
 978 023c 060052E1 		cmp	r2, r6
 979              	.LBE722:
 980              	.LBE754:
 981              	.LBB755:
 982              	.LBB693:
 216:C:/Renesas/e2studio_2021_01_workspace_RZA2M_ANPR/ANPR_RZA2M_GR_MANGO/src/tensorflow_lite/src/tensorflow/lite/kernels/internal\types.h ****   }
 983              		.loc 5 216 0
 984 0240 022181E0 		add	r2, r1, r2, lsl #2
 985              	.LVL99:
 986 0244 2CC012E5 		ldr	ip, [r2, #-44]
 987              	.LVL100:
 988              	.LBE693:
 989              	.LBE755:
 990              	.LBB756:
 991              	.LBB723:
 215:C:/Renesas/e2studio_2021_01_workspace_RZA2M_ANPR/ANPR_RZA2M_GR_MANGO/src/tensorflow_lite/src/tensorflow/lite/kernels/internal\types.h ****     return size_ > kMaxSmallSize ? dims_pointer_[i] : dims_[i];
 992              		.loc 5 215 0
 993 0248 2B0300AA 		bge	.L82
 216:C:/Renesas/e2studio_2021_01_workspace_RZA2M_ANPR/ANPR_RZA2M_GR_MANGO/src/tensorflow_lite/src/tensorflow/lite/kernels/internal\types.h ****   }
 994              		.loc 5 216 0
 995 024c 14E012E5 		ldr	lr, [r2, #-20]
 996              	.LVL101:
 997              	.LBE723:
 998              	.LBE756:
 999              		.loc 4 57 0
 1000 0250 0E005CE1 		cmp	ip, lr
 1001 0254 D100001A 		bne	.L83
  56:C:/Renesas/e2studio_2021_01_workspace_RZA2M_ANPR/ANPR_RZA2M_GR_MANGO/src/tensorflow_lite/src/tensorflow/lite/kernels/internal/reference\process_broadcast_shapes.h ****     if (extended_shape0.Dims(i) == extended_shape1.Dims(i)) {
 1002              		.loc 4 56 0
 1003 0258 032045E2 		sub	r2, r5, #3
 1004              	.LVL102:
 1005 025c 010072E3 		cmn	r2, #1
 1006 0260 1A00000A 		beq	.L84
 1007              	.LVL103:
 1008              	.LBB757:
 1009              	.LBB694:
 215:C:/Renesas/e2studio_2021_01_workspace_RZA2M_ANPR/ANPR_RZA2M_GR_MANGO/src/tensorflow_lite/src/tensorflow/lite/kernels/internal\types.h ****     return size_ > kMaxSmallSize ? dims_pointer_[i] : dims_[i];
 1010              		.loc 5 215 0
 1011 0264 020057E1 		cmp	r7, r2
 1012 0268 5F0100DA 		ble	.L78
 1013              	.LBE694:
 1014              	.LBE757:
 1015              	.LBB758:
 1016              	.LBB724:
 1017 026c 020056E1 		cmp	r6, r2
 1018              	.LBE724:
 1019              	.LBE758:
 1020              	.LBB759:
 1021              	.LBB695:
 216:C:/Renesas/e2studio_2021_01_workspace_RZA2M_ANPR/ANPR_RZA2M_GR_MANGO/src/tensorflow_lite/src/tensorflow/lite/kernels/internal\types.h ****   }
 1022              		.loc 5 216 0
 1023 0270 022181E0 		add	r2, r1, r2, lsl #2
 1024              	.LVL104:
 1025 0274 2CC012E5 		ldr	ip, [r2, #-44]
 1026              	.LVL105:
 1027              	.LBE695:
 1028              	.LBE759:
 1029              	.LBB760:
 1030              	.LBB725:
 215:C:/Renesas/e2studio_2021_01_workspace_RZA2M_ANPR/ANPR_RZA2M_GR_MANGO/src/tensorflow_lite/src/tensorflow/lite/kernels/internal\types.h ****     return size_ > kMaxSmallSize ? dims_pointer_[i] : dims_[i];
 1031              		.loc 5 215 0
 1032 0278 1F0300DA 		ble	.L82
 216:C:/Renesas/e2studio_2021_01_workspace_RZA2M_ANPR/ANPR_RZA2M_GR_MANGO/src/tensorflow_lite/src/tensorflow/lite/kernels/internal\types.h ****   }
 1033              		.loc 5 216 0
 1034 027c 14E012E5 		ldr	lr, [r2, #-20]
 1035              	.LVL106:
 1036              	.LBE725:
 1037              	.LBE760:
 1038              		.loc 4 57 0
 1039 0280 0C005EE1 		cmp	lr, ip
 1040 0284 C500001A 		bne	.L83
  56:C:/Renesas/e2studio_2021_01_workspace_RZA2M_ANPR/ANPR_RZA2M_GR_MANGO/src/tensorflow_lite/src/tensorflow/lite/kernels/internal/reference\process_broadcast_shapes.h ****     if (extended_shape0.Dims(i) == extended_shape1.Dims(i)) {
 1041              		.loc 4 56 0
 1042 0288 042045E2 		sub	r2, r5, #4
 1043              	.LVL107:
 1044 028c 010072E3 		cmn	r2, #1
 1045 0290 0E00000A 		beq	.L84
 1046              	.LVL108:
 1047              	.LBB761:
 1048              	.LBB696:
 215:C:/Renesas/e2studio_2021_01_workspace_RZA2M_ANPR/ANPR_RZA2M_GR_MANGO/src/tensorflow_lite/src/tensorflow/lite/kernels/internal\types.h ****     return size_ > kMaxSmallSize ? dims_pointer_[i] : dims_[i];
 1049              		.loc 5 215 0
 1050 0294 020057E1 		cmp	r7, r2
 1051 0298 530100DA 		ble	.L78
 1052              	.LBE696:
 1053              	.LBE761:
 1054              	.LBB762:
 1055              	.LBB726:
 1056 029c 020056E1 		cmp	r6, r2
 1057              	.LBE726:
 1058              	.LBE762:
 1059              	.LBB763:
 1060              	.LBB697:
 216:C:/Renesas/e2studio_2021_01_workspace_RZA2M_ANPR/ANPR_RZA2M_GR_MANGO/src/tensorflow_lite/src/tensorflow/lite/kernels/internal\types.h ****   }
 1061              		.loc 5 216 0
 1062 02a0 022181E0 		add	r2, r1, r2, lsl #2
 1063              	.LVL109:
 1064 02a4 2CC012E5 		ldr	ip, [r2, #-44]
 1065              	.LVL110:
 1066              	.LBE697:
 1067              	.LBE763:
 1068              	.LBB764:
 1069              	.LBB727:
 215:C:/Renesas/e2studio_2021_01_workspace_RZA2M_ANPR/ANPR_RZA2M_GR_MANGO/src/tensorflow_lite/src/tensorflow/lite/kernels/internal\types.h ****     return size_ > kMaxSmallSize ? dims_pointer_[i] : dims_[i];
 1070              		.loc 5 215 0
 1071 02a8 130300DA 		ble	.L82
 216:C:/Renesas/e2studio_2021_01_workspace_RZA2M_ANPR/ANPR_RZA2M_GR_MANGO/src/tensorflow_lite/src/tensorflow/lite/kernels/internal\types.h ****   }
 1072              		.loc 5 216 0
 1073 02ac 14E012E5 		ldr	lr, [r2, #-20]
 1074              	.LVL111:
 1075              	.LBE727:
 1076              	.LBE764:
 1077              		.loc 4 57 0
 1078 02b0 0E005CE1 		cmp	ip, lr
 1079 02b4 B900001A 		bne	.L83
 1080              	.LVL112:
  56:C:/Renesas/e2studio_2021_01_workspace_RZA2M_ANPR/ANPR_RZA2M_GR_MANGO/src/tensorflow_lite/src/tensorflow/lite/kernels/internal/reference\process_broadcast_shapes.h ****     if (extended_shape0.Dims(i) == extended_shape1.Dims(i)) {
 1081              		.loc 4 56 0
 1082 02b8 040055E3 		cmp	r5, #4
 1083 02bc 0300000A 		beq	.L84
 1084              	.LVL113:
 1085              		.loc 4 57 0
 1086 02c0 000058E1 		cmp	r8, r0
 1087              	.LBB765:
 1088              	.LBB698:
 216:C:/Renesas/e2studio_2021_01_workspace_RZA2M_ANPR/ANPR_RZA2M_GR_MANGO/src/tensorflow_lite/src/tensorflow/lite/kernels/internal\types.h ****   }
 1089              		.loc 5 216 0
 1090 02c4 08C0A0E1 		mov	ip, r8
 1091              	.LVL114:
 1092              	.LBE698:
 1093              	.LBE765:
 1094              	.LBB766:
 1095              	.LBB728:
 1096 02c8 00E0A0E1 		mov	lr, r0
 1097              	.LVL115:
 1098              	.LBE728:
 1099              	.LBE766:
 1100              		.loc 4 57 0
 1101 02cc B300001A 		bne	.L83
 1102              	.LVL116:
 1103              	.L84:
 1104              	.LBE687:
  58:C:/Renesas/e2studio_2021_01_workspace_RZA2M_ANPR/ANPR_RZA2M_GR_MANGO/src/tensorflow_lite/src/tensorflow/lite/kernels/internal/reference\process_broadcast_shapes.h ****       continue;
  59:C:/Renesas/e2studio_2021_01_workspace_RZA2M_ANPR/ANPR_RZA2M_GR_MANGO/src/tensorflow_lite/src/tensorflow/lite/kernels/internal/reference\process_broadcast_shapes.h ****     } else if (extended_shape0.Dims(i) == 1) {
  60:C:/Renesas/e2studio_2021_01_workspace_RZA2M_ANPR/ANPR_RZA2M_GR_MANGO/src/tensorflow_lite/src/tensorflow/lite/kernels/internal/reference\process_broadcast_shapes.h ****       params->broadcast_category =
  61:C:/Renesas/e2studio_2021_01_workspace_RZA2M_ANPR/ANPR_RZA2M_GR_MANGO/src/tensorflow_lite/src/tensorflow/lite/kernels/internal/reference\process_broadcast_shapes.h ****           BroadcastableOpCategory::kFirstInputBroadcastsFast;
  62:C:/Renesas/e2studio_2021_01_workspace_RZA2M_ANPR/ANPR_RZA2M_GR_MANGO/src/tensorflow_lite/src/tensorflow/lite/kernels/internal/reference\process_broadcast_shapes.h ****       break;
  63:C:/Renesas/e2studio_2021_01_workspace_RZA2M_ANPR/ANPR_RZA2M_GR_MANGO/src/tensorflow_lite/src/tensorflow/lite/kernels/internal/reference\process_broadcast_shapes.h ****     } else if (extended_shape1.Dims(i) == 1) {
  64:C:/Renesas/e2studio_2021_01_workspace_RZA2M_ANPR/ANPR_RZA2M_GR_MANGO/src/tensorflow_lite/src/tensorflow/lite/kernels/internal/reference\process_broadcast_shapes.h ****       params->broadcast_category =
  65:C:/Renesas/e2studio_2021_01_workspace_RZA2M_ANPR/ANPR_RZA2M_GR_MANGO/src/tensorflow_lite/src/tensorflow/lite/kernels/internal/reference\process_broadcast_shapes.h ****           BroadcastableOpCategory::kSecondInputBroadcastsFast;
  66:C:/Renesas/e2studio_2021_01_workspace_RZA2M_ANPR/ANPR_RZA2M_GR_MANGO/src/tensorflow_lite/src/tensorflow/lite/kernels/internal/reference\process_broadcast_shapes.h ****       break;
  67:C:/Renesas/e2studio_2021_01_workspace_RZA2M_ANPR/ANPR_RZA2M_GR_MANGO/src/tensorflow_lite/src/tensorflow/lite/kernels/internal/reference\process_broadcast_shapes.h ****     } else {
  68:C:/Renesas/e2studio_2021_01_workspace_RZA2M_ANPR/ANPR_RZA2M_GR_MANGO/src/tensorflow_lite/src/tensorflow/lite/kernels/internal/reference\process_broadcast_shapes.h ****       // This case is erroneous: there is a dimension that does not match and
  69:C:/Renesas/e2studio_2021_01_workspace_RZA2M_ANPR/ANPR_RZA2M_GR_MANGO/src/tensorflow_lite/src/tensorflow/lite/kernels/internal/reference\process_broadcast_shapes.h ****       // is not a broadcast from one shape to the other.
  70:C:/Renesas/e2studio_2021_01_workspace_RZA2M_ANPR/ANPR_RZA2M_GR_MANGO/src/tensorflow_lite/src/tensorflow/lite/kernels/internal/reference\process_broadcast_shapes.h ****       params->broadcast_category = BroadcastableOpCategory::kGenericBroadcast;
  71:C:/Renesas/e2studio_2021_01_workspace_RZA2M_ANPR/ANPR_RZA2M_GR_MANGO/src/tensorflow_lite/src/tensorflow/lite/kernels/internal/reference\process_broadcast_shapes.h ****       return true;
  72:C:/Renesas/e2studio_2021_01_workspace_RZA2M_ANPR/ANPR_RZA2M_GR_MANGO/src/tensorflow_lite/src/tensorflow/lite/kernels/internal/reference\process_broadcast_shapes.h ****     }
  73:C:/Renesas/e2studio_2021_01_workspace_RZA2M_ANPR/ANPR_RZA2M_GR_MANGO/src/tensorflow_lite/src/tensorflow/lite/kernels/internal/reference\process_broadcast_shapes.h ****   }
  74:C:/Renesas/e2studio_2021_01_workspace_RZA2M_ANPR/ANPR_RZA2M_GR_MANGO/src/tensorflow_lite/src/tensorflow/lite/kernels/internal/reference\process_broadcast_shapes.h **** 
  75:C:/Renesas/e2studio_2021_01_workspace_RZA2M_ANPR/ANPR_RZA2M_GR_MANGO/src/tensorflow_lite/src/tensorflow/lite/kernels/internal/reference\process_broadcast_shapes.h ****   if (params->broadcast_category !=
 1105              		.loc 4 75 0
 1106 02d0 0020D4E5 		ldrb	r2, [r4]	@ zero_extendqisi2
 1107 02d4 021042E2 		sub	r1, r2, #2
 1108 02d8 010051E3 		cmp	r1, #1
 1109 02dc 0E03008A 		bhi	.L507
 1110              	.LVL117:
  76:C:/Renesas/e2studio_2021_01_workspace_RZA2M_ANPR/ANPR_RZA2M_GR_MANGO/src/tensorflow_lite/src/tensorflow/lite/kernels/internal/reference\process_broadcast_shapes.h ****           BroadcastableOpCategory::kFirstInputBroadcastsFast &&
  77:C:/Renesas/e2studio_2021_01_workspace_RZA2M_ANPR/ANPR_RZA2M_GR_MANGO/src/tensorflow_lite/src/tensorflow/lite/kernels/internal/reference\process_broadcast_shapes.h ****       params->broadcast_category !=
  78:C:/Renesas/e2studio_2021_01_workspace_RZA2M_ANPR/ANPR_RZA2M_GR_MANGO/src/tensorflow_lite/src/tensorflow/lite/kernels/internal/reference\process_broadcast_shapes.h ****           BroadcastableOpCategory::kSecondInputBroadcastsFast) {
  79:C:/Renesas/e2studio_2021_01_workspace_RZA2M_ANPR/ANPR_RZA2M_GR_MANGO/src/tensorflow_lite/src/tensorflow/lite/kernels/internal/reference\process_broadcast_shapes.h ****     // This is unreachable because at least one else clause in the above loop
  80:C:/Renesas/e2studio_2021_01_workspace_RZA2M_ANPR/ANPR_RZA2M_GR_MANGO/src/tensorflow_lite/src/tensorflow/lite/kernels/internal/reference\process_broadcast_shapes.h ****     // must be reached.
  81:C:/Renesas/e2studio_2021_01_workspace_RZA2M_ANPR/ANPR_RZA2M_GR_MANGO/src/tensorflow_lite/src/tensorflow/lite/kernels/internal/reference\process_broadcast_shapes.h ****     TFLITE_DCHECK(false);
  82:C:/Renesas/e2studio_2021_01_workspace_RZA2M_ANPR/ANPR_RZA2M_GR_MANGO/src/tensorflow_lite/src/tensorflow/lite/kernels/internal/reference\process_broadcast_shapes.h ****     params->broadcast_category = BroadcastableOpCategory::kNonBroadcast;
  83:C:/Renesas/e2studio_2021_01_workspace_RZA2M_ANPR/ANPR_RZA2M_GR_MANGO/src/tensorflow_lite/src/tensorflow/lite/kernels/internal/reference\process_broadcast_shapes.h ****     return false;
  84:C:/Renesas/e2studio_2021_01_workspace_RZA2M_ANPR/ANPR_RZA2M_GR_MANGO/src/tensorflow_lite/src/tensorflow/lite/kernels/internal/reference\process_broadcast_shapes.h ****   }
  85:C:/Renesas/e2studio_2021_01_workspace_RZA2M_ANPR/ANPR_RZA2M_GR_MANGO/src/tensorflow_lite/src/tensorflow/lite/kernels/internal/reference\process_broadcast_shapes.h **** 
  86:C:/Renesas/e2studio_2021_01_workspace_RZA2M_ANPR/ANPR_RZA2M_GR_MANGO/src/tensorflow_lite/src/tensorflow/lite/kernels/internal/reference\process_broadcast_shapes.h ****   // From this point it is assumed contractually that corresponding dimensions
  87:C:/Renesas/e2studio_2021_01_workspace_RZA2M_ANPR/ANPR_RZA2M_GR_MANGO/src/tensorflow_lite/src/tensorflow/lite/kernels/internal/reference\process_broadcast_shapes.h ****   // in shape0 and shape1 are either (a) equal or (b) one or other equals 1.
  88:C:/Renesas/e2studio_2021_01_workspace_RZA2M_ANPR/ANPR_RZA2M_GR_MANGO/src/tensorflow_lite/src/tensorflow/lite/kernels/internal/reference\process_broadcast_shapes.h ****   const bool swap_inputs = params->broadcast_category ==
  89:C:/Renesas/e2studio_2021_01_workspace_RZA2M_ANPR/ANPR_RZA2M_GR_MANGO/src/tensorflow_lite/src/tensorflow/lite/kernels/internal/reference\process_broadcast_shapes.h ****                            BroadcastableOpCategory::kSecondInputBroadcastsFast;
  90:C:/Renesas/e2studio_2021_01_workspace_RZA2M_ANPR/ANPR_RZA2M_GR_MANGO/src/tensorflow_lite/src/tensorflow/lite/kernels/internal/reference\process_broadcast_shapes.h ****   const RuntimeShape* shape_a =
  91:C:/Renesas/e2studio_2021_01_workspace_RZA2M_ANPR/ANPR_RZA2M_GR_MANGO/src/tensorflow_lite/src/tensorflow/lite/kernels/internal/reference\process_broadcast_shapes.h ****       swap_inputs ? &extended_shape1 : &extended_shape0;
 1111              		.loc 4 91 0
 1112 02e0 030052E3 		cmp	r2, #3
  92:C:/Renesas/e2studio_2021_01_workspace_RZA2M_ANPR/ANPR_RZA2M_GR_MANGO/src/tensorflow_lite/src/tensorflow/lite/kernels/internal/reference\process_broadcast_shapes.h ****   const RuntimeShape* shape_b =
  93:C:/Renesas/e2studio_2021_01_workspace_RZA2M_ANPR/ANPR_RZA2M_GR_MANGO/src/tensorflow_lite/src/tensorflow/lite/kernels/internal/reference\process_broadcast_shapes.h ****       swap_inputs ? &extended_shape0 : &extended_shape1;
  94:C:/Renesas/e2studio_2021_01_workspace_RZA2M_ANPR/ANPR_RZA2M_GR_MANGO/src/tensorflow_lite/src/tensorflow/lite/kernels/internal/reference\process_broadcast_shapes.h **** 
  95:C:/Renesas/e2studio_2021_01_workspace_RZA2M_ANPR/ANPR_RZA2M_GR_MANGO/src/tensorflow_lite/src/tensorflow/lite/kernels/internal/reference\process_broadcast_shapes.h ****   int i = dims_count - 1;
  96:C:/Renesas/e2studio_2021_01_workspace_RZA2M_ANPR/ANPR_RZA2M_GR_MANGO/src/tensorflow_lite/src/tensorflow/lite/kernels/internal/reference\process_broadcast_shapes.h ****   params->broadcast_shape[0] = 1;
 1113              		.loc 4 96 0
 1114 02e4 01E0A0E3 		mov	lr, #1
 1115              	.LBB806:
 1116              	.LBB684:
 197:C:/Renesas/e2studio_2021_01_workspace_RZA2M_ANPR/ANPR_RZA2M_GR_MANGO/src/tensorflow_lite/src/tensorflow/lite/kernels/internal\types.h ****            std::memcmp(DimsData(), comp.DimsData(), size_ * sizeof(int32_t)) ==
 1117              		.loc 5 197 0
 1118 02e8 0620A001 		moveq	r2, r6
 1119              	.LVL118:
 1120 02ec 0710A001 		moveq	r1, r7
 1121              	.LVL119:
 1122              	.LBE684:
 1123              	.LBE806:
  91:C:/Renesas/e2studio_2021_01_workspace_RZA2M_ANPR/ANPR_RZA2M_GR_MANGO/src/tensorflow_lite/src/tensorflow/lite/kernels/internal/reference\process_broadcast_shapes.h ****   const RuntimeShape* shape_b =
 1124              		.loc 4 91 0
 1125 02f0 38008D02 		addeq	r0, sp, #56
  93:C:/Renesas/e2studio_2021_01_workspace_RZA2M_ANPR/ANPR_RZA2M_GR_MANGO/src/tensorflow_lite/src/tensorflow/lite/kernels/internal/reference\process_broadcast_shapes.h **** 
 1126              		.loc 4 93 0
 1127 02f4 20C08D02 		addeq	ip, sp, #32
 1128              	.LBB807:
 1129              	.LBB685:
 197:C:/Renesas/e2studio_2021_01_workspace_RZA2M_ANPR/ANPR_RZA2M_GR_MANGO/src/tensorflow_lite/src/tensorflow/lite/kernels/internal\types.h ****            std::memcmp(DimsData(), comp.DimsData(), size_ * sizeof(int32_t)) ==
 1130              		.loc 5 197 0
 1131 02f8 0720A011 		movne	r2, r7
 1132 02fc 0610A011 		movne	r1, r6
 1133              	.LBE685:
 1134              	.LBE807:
  91:C:/Renesas/e2studio_2021_01_workspace_RZA2M_ANPR/ANPR_RZA2M_GR_MANGO/src/tensorflow_lite/src/tensorflow/lite/kernels/internal/reference\process_broadcast_shapes.h ****   const RuntimeShape* shape_b =
 1135              		.loc 4 91 0
 1136 0300 20008D12 		addne	r0, sp, #32
  93:C:/Renesas/e2studio_2021_01_workspace_RZA2M_ANPR/ANPR_RZA2M_GR_MANGO/src/tensorflow_lite/src/tensorflow/lite/kernels/internal/reference\process_broadcast_shapes.h **** 
 1137              		.loc 4 93 0
 1138 0304 38C08D12 		addne	ip, sp, #56
 1139              	.LVL120:
  97:C:/Renesas/e2studio_2021_01_workspace_RZA2M_ANPR/ANPR_RZA2M_GR_MANGO/src/tensorflow_lite/src/tensorflow/lite/kernels/internal/reference\process_broadcast_shapes.h ****   params->broadcast_shape[1] = 1;
  98:C:/Renesas/e2studio_2021_01_workspace_RZA2M_ANPR/ANPR_RZA2M_GR_MANGO/src/tensorflow_lite/src/tensorflow/lite/kernels/internal/reference\process_broadcast_shapes.h ****   params->broadcast_shape[2] = 1;
  99:C:/Renesas/e2studio_2021_01_workspace_RZA2M_ANPR/ANPR_RZA2M_GR_MANGO/src/tensorflow_lite/src/tensorflow/lite/kernels/internal/reference\process_broadcast_shapes.h ****   params->broadcast_shape[3] = 1;
 100:C:/Renesas/e2studio_2021_01_workspace_RZA2M_ANPR/ANPR_RZA2M_GR_MANGO/src/tensorflow_lite/src/tensorflow/lite/kernels/internal/reference\process_broadcast_shapes.h ****   params->broadcast_shape[4] = 1;
 101:C:/Renesas/e2studio_2021_01_workspace_RZA2M_ANPR/ANPR_RZA2M_GR_MANGO/src/tensorflow_lite/src/tensorflow/lite/kernels/internal/reference\process_broadcast_shapes.h ****   // y_0 is greedy: include dims if both or neither equal 1: in other words,
 102:C:/Renesas/e2studio_2021_01_workspace_RZA2M_ANPR/ANPR_RZA2M_GR_MANGO/src/tensorflow_lite/src/tensorflow/lite/kernels/internal/reference\process_broadcast_shapes.h ****   // test for equality rather than (shape_a->Dims(i) != 1).
 103:C:/Renesas/e2studio_2021_01_workspace_RZA2M_ANPR/ANPR_RZA2M_GR_MANGO/src/tensorflow_lite/src/tensorflow/lite/kernels/internal/reference\process_broadcast_shapes.h ****   while (i >= 0 && shape_a->Dims(i) == shape_b->Dims(i)) {
 1140              		.loc 4 103 0
 1141 0308 000053E3 		cmp	r3, #0
  96:C:/Renesas/e2studio_2021_01_workspace_RZA2M_ANPR/ANPR_RZA2M_GR_MANGO/src/tensorflow_lite/src/tensorflow/lite/kernels/internal/reference\process_broadcast_shapes.h ****   params->broadcast_shape[1] = 1;
 1142              		.loc 4 96 0
 1143 030c 50E084E5 		str	lr, [r4, #80]
  97:C:/Renesas/e2studio_2021_01_workspace_RZA2M_ANPR/ANPR_RZA2M_GR_MANGO/src/tensorflow_lite/src/tensorflow/lite/kernels/internal/reference\process_broadcast_shapes.h ****   params->broadcast_shape[1] = 1;
 1144              		.loc 4 97 0
 1145 0310 54E084E5 		str	lr, [r4, #84]
  98:C:/Renesas/e2studio_2021_01_workspace_RZA2M_ANPR/ANPR_RZA2M_GR_MANGO/src/tensorflow_lite/src/tensorflow/lite/kernels/internal/reference\process_broadcast_shapes.h ****   params->broadcast_shape[3] = 1;
 1146              		.loc 4 98 0
 1147 0314 58E084E5 		str	lr, [r4, #88]
  99:C:/Renesas/e2studio_2021_01_workspace_RZA2M_ANPR/ANPR_RZA2M_GR_MANGO/src/tensorflow_lite/src/tensorflow/lite/kernels/internal/reference\process_broadcast_shapes.h ****   params->broadcast_shape[4] = 1;
 1148              		.loc 4 99 0
 1149 0318 5CE084E5 		str	lr, [r4, #92]
 100:C:/Renesas/e2studio_2021_01_workspace_RZA2M_ANPR/ANPR_RZA2M_GR_MANGO/src/tensorflow_lite/src/tensorflow/lite/kernels/internal/reference\process_broadcast_shapes.h ****   // y_0 is greedy: include dims if both or neither equal 1: in other words,
 1150              		.loc 4 100 0
 1151 031c 60E084E5 		str	lr, [r4, #96]
 1152              		.loc 4 103 0
 1153 0320 570100AA 		bge	.L91
 1154              	.LVL121:
 1155              	.L98:
 1156              	.LBB808:
 1157              	.LBB809:
 203:C:/Renesas/e2studio_2021_01_workspace_RZA2M_ANPR/ANPR_RZA2M_GR_MANGO/src/tensorflow_lite/src/tensorflow/lite/kernels/internal\types.h **** #ifdef TF_LITE_STATIC_MEMORY
 1158              		.loc 5 203 0
 1159 0324 050056E3 		cmp	r6, #5
 1160              	.LBE809:
 1161              	.LBE808:
 104:C:/Renesas/e2studio_2021_01_workspace_RZA2M_ANPR/ANPR_RZA2M_GR_MANGO/src/tensorflow_lite/src/tensorflow/lite/kernels/internal/reference\process_broadcast_shapes.h ****     params->broadcast_shape[4] *= shape_b->Dims(i);
 105:C:/Renesas/e2studio_2021_01_workspace_RZA2M_ANPR/ANPR_RZA2M_GR_MANGO/src/tensorflow_lite/src/tensorflow/lite/kernels/internal/reference\process_broadcast_shapes.h ****     --i;
 106:C:/Renesas/e2studio_2021_01_workspace_RZA2M_ANPR/ANPR_RZA2M_GR_MANGO/src/tensorflow_lite/src/tensorflow/lite/kernels/internal/reference\process_broadcast_shapes.h ****   }
 107:C:/Renesas/e2studio_2021_01_workspace_RZA2M_ANPR/ANPR_RZA2M_GR_MANGO/src/tensorflow_lite/src/tensorflow/lite/kernels/internal/reference\process_broadcast_shapes.h ****   // Here either input_a or input_b has dim of 1 (if i >= 0).  If it is input_b
 108:C:/Renesas/e2studio_2021_01_workspace_RZA2M_ANPR/ANPR_RZA2M_GR_MANGO/src/tensorflow_lite/src/tensorflow/lite/kernels/internal/reference\process_broadcast_shapes.h ****   // that has the unit dimension, the next two loops are not entered.
 109:C:/Renesas/e2studio_2021_01_workspace_RZA2M_ANPR/ANPR_RZA2M_GR_MANGO/src/tensorflow_lite/src/tensorflow/lite/kernels/internal/reference\process_broadcast_shapes.h ****   while (i >= 0 && shape_a->Dims(i) == 1) {
