   1              		.cpu cortex-a9
   2              		.eabi_attribute 28, 1
   3              		.eabi_attribute 20, 1
   4              		.eabi_attribute 21, 1
   5              		.eabi_attribute 23, 3
   6              		.eabi_attribute 24, 1
   7              		.eabi_attribute 25, 1
   8              		.eabi_attribute 26, 1
   9              		.eabi_attribute 30, 2
  10              		.eabi_attribute 34, 0
  11              		.eabi_attribute 18, 4
  12              		.file	"arg_min_max.cpp"
  13              		.text
  14              	.Ltext0:
  15              		.cfi_sections	.debug_frame
  16              		.section	.text._ZN6tflite3ops5micro16Register_ARG_MAXEv,"ax",%progbits
  17              		.align	2
  18              		.global	_ZN6tflite3ops5micro16Register_ARG_MAXEv
  19              		.syntax unified
  20              		.arm
  21              		.fpu neon
  23              	_ZN6tflite3ops5micro16Register_ARG_MAXEv:
  24              		.fnstart
  25              	.LFB1769:
  26              		.file 1 "../src/tensorflow_lite/src/tensorflow/lite/micro/kernels/arg_min_max.cpp"
   1:../src/tensorflow_lite/src/tensorflow/lite/micro/kernels/arg_min_max.cpp **** /* Copyright 2018 The TensorFlow Authors. All Rights Reserved.
   2:../src/tensorflow_lite/src/tensorflow/lite/micro/kernels/arg_min_max.cpp **** 
   3:../src/tensorflow_lite/src/tensorflow/lite/micro/kernels/arg_min_max.cpp **** Licensed under the Apache License, Version 2.0 (the "License");
   4:../src/tensorflow_lite/src/tensorflow/lite/micro/kernels/arg_min_max.cpp **** you may not use this file except in compliance with the License.
   5:../src/tensorflow_lite/src/tensorflow/lite/micro/kernels/arg_min_max.cpp **** You may obtain a copy of the License at
   6:../src/tensorflow_lite/src/tensorflow/lite/micro/kernels/arg_min_max.cpp **** 
   7:../src/tensorflow_lite/src/tensorflow/lite/micro/kernels/arg_min_max.cpp ****     http://www.apache.org/licenses/LICENSE-2.0
   8:../src/tensorflow_lite/src/tensorflow/lite/micro/kernels/arg_min_max.cpp **** 
   9:../src/tensorflow_lite/src/tensorflow/lite/micro/kernels/arg_min_max.cpp **** Unless required by applicable law or agreed to in writing, software
  10:../src/tensorflow_lite/src/tensorflow/lite/micro/kernels/arg_min_max.cpp **** distributed under the License is distributed on an "AS IS" BASIS,
  11:../src/tensorflow_lite/src/tensorflow/lite/micro/kernels/arg_min_max.cpp **** WITHOUT WARRANTIES OR CONDITIONS OF ANY KIND, either express or implied.
  12:../src/tensorflow_lite/src/tensorflow/lite/micro/kernels/arg_min_max.cpp **** See the License for the specific language governing permissions and
  13:../src/tensorflow_lite/src/tensorflow/lite/micro/kernels/arg_min_max.cpp **** limitations under the License.
  14:../src/tensorflow_lite/src/tensorflow/lite/micro/kernels/arg_min_max.cpp **** ==============================================================================*/
  15:../src/tensorflow_lite/src/tensorflow/lite/micro/kernels/arg_min_max.cpp **** 
  16:../src/tensorflow_lite/src/tensorflow/lite/micro/kernels/arg_min_max.cpp **** #include "tensorflow/lite/kernels/internal/reference/arg_min_max.h"
  17:../src/tensorflow_lite/src/tensorflow/lite/micro/kernels/arg_min_max.cpp **** 
  18:../src/tensorflow_lite/src/tensorflow/lite/micro/kernels/arg_min_max.cpp **** #include "tensorflow/lite/c/builtin_op_data.h"
  19:../src/tensorflow_lite/src/tensorflow/lite/micro/kernels/arg_min_max.cpp **** #include "tensorflow/lite/c/common.h"
  20:../src/tensorflow_lite/src/tensorflow/lite/micro/kernels/arg_min_max.cpp **** #include "tensorflow/lite/kernels/internal/tensor_ctypes.h"
  21:../src/tensorflow_lite/src/tensorflow/lite/micro/kernels/arg_min_max.cpp **** #include "tensorflow/lite/kernels/kernel_util.h"
  22:../src/tensorflow_lite/src/tensorflow/lite/micro/kernels/arg_min_max.cpp **** #include "tensorflow/lite/micro/kernels/kernel_util.h"
  23:../src/tensorflow_lite/src/tensorflow/lite/micro/kernels/arg_min_max.cpp **** #include "tensorflow/lite/micro/kernels/micro_utils.h"
  24:../src/tensorflow_lite/src/tensorflow/lite/micro/kernels/arg_min_max.cpp **** 
  25:../src/tensorflow_lite/src/tensorflow/lite/micro/kernels/arg_min_max.cpp **** namespace tflite {
  26:../src/tensorflow_lite/src/tensorflow/lite/micro/kernels/arg_min_max.cpp **** namespace ops {
  27:../src/tensorflow_lite/src/tensorflow/lite/micro/kernels/arg_min_max.cpp **** namespace micro {
  28:../src/tensorflow_lite/src/tensorflow/lite/micro/kernels/arg_min_max.cpp **** namespace arg_min_max {
  29:../src/tensorflow_lite/src/tensorflow/lite/micro/kernels/arg_min_max.cpp **** 
  30:../src/tensorflow_lite/src/tensorflow/lite/micro/kernels/arg_min_max.cpp **** constexpr int kInputTensor = 0;
  31:../src/tensorflow_lite/src/tensorflow/lite/micro/kernels/arg_min_max.cpp **** constexpr int kAxis = 1;
  32:../src/tensorflow_lite/src/tensorflow/lite/micro/kernels/arg_min_max.cpp **** constexpr int kOutputTensor = 0;
  33:../src/tensorflow_lite/src/tensorflow/lite/micro/kernels/arg_min_max.cpp **** 
  34:../src/tensorflow_lite/src/tensorflow/lite/micro/kernels/arg_min_max.cpp **** template <typename T1, typename T2, typename T3>
  35:../src/tensorflow_lite/src/tensorflow/lite/micro/kernels/arg_min_max.cpp **** inline void ArgMinMaxHelper(const RuntimeShape& input1_shape,
  36:../src/tensorflow_lite/src/tensorflow/lite/micro/kernels/arg_min_max.cpp ****                             const T1* input1_data, const T3* input2_data,
  37:../src/tensorflow_lite/src/tensorflow/lite/micro/kernels/arg_min_max.cpp ****                             const RuntimeShape& output_shape, T2* output_data,
  38:../src/tensorflow_lite/src/tensorflow/lite/micro/kernels/arg_min_max.cpp ****                             bool is_arg_max) {
  39:../src/tensorflow_lite/src/tensorflow/lite/micro/kernels/arg_min_max.cpp ****   if (is_arg_max) {
  40:../src/tensorflow_lite/src/tensorflow/lite/micro/kernels/arg_min_max.cpp ****     reference_ops::ArgMinMax(input1_shape, input1_data, input2_data,
  41:../src/tensorflow_lite/src/tensorflow/lite/micro/kernels/arg_min_max.cpp ****                              output_shape, output_data, micro::Greater());
  42:../src/tensorflow_lite/src/tensorflow/lite/micro/kernels/arg_min_max.cpp ****   } else {
  43:../src/tensorflow_lite/src/tensorflow/lite/micro/kernels/arg_min_max.cpp ****     reference_ops::ArgMinMax(input1_shape, input1_data, input2_data,
  44:../src/tensorflow_lite/src/tensorflow/lite/micro/kernels/arg_min_max.cpp ****                              output_shape, output_data, micro::Less());
  45:../src/tensorflow_lite/src/tensorflow/lite/micro/kernels/arg_min_max.cpp ****   }
  46:../src/tensorflow_lite/src/tensorflow/lite/micro/kernels/arg_min_max.cpp **** }
  47:../src/tensorflow_lite/src/tensorflow/lite/micro/kernels/arg_min_max.cpp **** 
  48:../src/tensorflow_lite/src/tensorflow/lite/micro/kernels/arg_min_max.cpp **** TfLiteStatus Eval(TfLiteContext* context, TfLiteNode* node, bool is_arg_max) {
  49:../src/tensorflow_lite/src/tensorflow/lite/micro/kernels/arg_min_max.cpp ****   const TfLiteEvalTensor* input =
  50:../src/tensorflow_lite/src/tensorflow/lite/micro/kernels/arg_min_max.cpp ****       tflite::micro::GetEvalInput(context, node, kInputTensor);
  51:../src/tensorflow_lite/src/tensorflow/lite/micro/kernels/arg_min_max.cpp ****   const TfLiteEvalTensor* axis =
  52:../src/tensorflow_lite/src/tensorflow/lite/micro/kernels/arg_min_max.cpp ****       tflite::micro::GetEvalInput(context, node, kAxis);
  53:../src/tensorflow_lite/src/tensorflow/lite/micro/kernels/arg_min_max.cpp ****   TfLiteEvalTensor* output =
  54:../src/tensorflow_lite/src/tensorflow/lite/micro/kernels/arg_min_max.cpp ****       tflite::micro::GetEvalOutput(context, node, kOutputTensor);
  55:../src/tensorflow_lite/src/tensorflow/lite/micro/kernels/arg_min_max.cpp **** 
  56:../src/tensorflow_lite/src/tensorflow/lite/micro/kernels/arg_min_max.cpp **** #define TF_LITE_ARG_MIN_MAX(data_type, axis_type, output_type)       \
  57:../src/tensorflow_lite/src/tensorflow/lite/micro/kernels/arg_min_max.cpp ****   ArgMinMaxHelper(tflite::micro::GetTensorShape(input),              \
  58:../src/tensorflow_lite/src/tensorflow/lite/micro/kernels/arg_min_max.cpp ****                   tflite::micro::GetTensorData<data_type>(input),    \
  59:../src/tensorflow_lite/src/tensorflow/lite/micro/kernels/arg_min_max.cpp ****                   tflite::micro::GetTensorData<axis_type>(axis),     \
  60:../src/tensorflow_lite/src/tensorflow/lite/micro/kernels/arg_min_max.cpp ****                   tflite::micro::GetTensorShape(output),             \
  61:../src/tensorflow_lite/src/tensorflow/lite/micro/kernels/arg_min_max.cpp ****                   tflite::micro::GetTensorData<output_type>(output), \
  62:../src/tensorflow_lite/src/tensorflow/lite/micro/kernels/arg_min_max.cpp ****                   is_arg_max)
  63:../src/tensorflow_lite/src/tensorflow/lite/micro/kernels/arg_min_max.cpp ****   if (axis->type == kTfLiteInt32) {
  64:../src/tensorflow_lite/src/tensorflow/lite/micro/kernels/arg_min_max.cpp ****     if (output->type == kTfLiteInt32) {
  65:../src/tensorflow_lite/src/tensorflow/lite/micro/kernels/arg_min_max.cpp ****       switch (input->type) {
  66:../src/tensorflow_lite/src/tensorflow/lite/micro/kernels/arg_min_max.cpp ****         case kTfLiteFloat32:
  67:../src/tensorflow_lite/src/tensorflow/lite/micro/kernels/arg_min_max.cpp ****           TF_LITE_ARG_MIN_MAX(float, int32_t, int32_t);
  68:../src/tensorflow_lite/src/tensorflow/lite/micro/kernels/arg_min_max.cpp ****           break;
  69:../src/tensorflow_lite/src/tensorflow/lite/micro/kernels/arg_min_max.cpp ****         case kTfLiteUInt8:
  70:../src/tensorflow_lite/src/tensorflow/lite/micro/kernels/arg_min_max.cpp ****           TF_LITE_ARG_MIN_MAX(uint8_t, int32_t, int32_t);
  71:../src/tensorflow_lite/src/tensorflow/lite/micro/kernels/arg_min_max.cpp ****           break;
  72:../src/tensorflow_lite/src/tensorflow/lite/micro/kernels/arg_min_max.cpp ****         case kTfLiteInt8:
  73:../src/tensorflow_lite/src/tensorflow/lite/micro/kernels/arg_min_max.cpp ****           TF_LITE_ARG_MIN_MAX(int8_t, int32_t, int32_t);
  74:../src/tensorflow_lite/src/tensorflow/lite/micro/kernels/arg_min_max.cpp ****           break;
  75:../src/tensorflow_lite/src/tensorflow/lite/micro/kernels/arg_min_max.cpp ****         default:
  76:../src/tensorflow_lite/src/tensorflow/lite/micro/kernels/arg_min_max.cpp ****           TF_LITE_KERNEL_LOG(context,
  77:../src/tensorflow_lite/src/tensorflow/lite/micro/kernels/arg_min_max.cpp ****                              "Only float32, uint8_t and int8_t are "
  78:../src/tensorflow_lite/src/tensorflow/lite/micro/kernels/arg_min_max.cpp ****                              "supported currently, got %s.",
  79:../src/tensorflow_lite/src/tensorflow/lite/micro/kernels/arg_min_max.cpp ****                              TfLiteTypeGetName(input->type));
  80:../src/tensorflow_lite/src/tensorflow/lite/micro/kernels/arg_min_max.cpp ****           return kTfLiteError;
  81:../src/tensorflow_lite/src/tensorflow/lite/micro/kernels/arg_min_max.cpp ****       }
  82:../src/tensorflow_lite/src/tensorflow/lite/micro/kernels/arg_min_max.cpp ****     } else {
  83:../src/tensorflow_lite/src/tensorflow/lite/micro/kernels/arg_min_max.cpp ****       TF_LITE_KERNEL_LOG(context,
  84:../src/tensorflow_lite/src/tensorflow/lite/micro/kernels/arg_min_max.cpp ****                          "Only int32_t are supported currently, got %s.",
  85:../src/tensorflow_lite/src/tensorflow/lite/micro/kernels/arg_min_max.cpp ****                          TfLiteTypeGetName(output->type));
  86:../src/tensorflow_lite/src/tensorflow/lite/micro/kernels/arg_min_max.cpp ****       return kTfLiteError;
  87:../src/tensorflow_lite/src/tensorflow/lite/micro/kernels/arg_min_max.cpp ****     }
  88:../src/tensorflow_lite/src/tensorflow/lite/micro/kernels/arg_min_max.cpp ****   } else {
  89:../src/tensorflow_lite/src/tensorflow/lite/micro/kernels/arg_min_max.cpp ****     TF_LITE_KERNEL_LOG(context, "Only int32_t are supported currently, got %s.",
  90:../src/tensorflow_lite/src/tensorflow/lite/micro/kernels/arg_min_max.cpp ****                        TfLiteTypeGetName(axis->type));
  91:../src/tensorflow_lite/src/tensorflow/lite/micro/kernels/arg_min_max.cpp ****     return kTfLiteError;
  92:../src/tensorflow_lite/src/tensorflow/lite/micro/kernels/arg_min_max.cpp ****   }
  93:../src/tensorflow_lite/src/tensorflow/lite/micro/kernels/arg_min_max.cpp **** 
  94:../src/tensorflow_lite/src/tensorflow/lite/micro/kernels/arg_min_max.cpp **** #undef TF_LITE_ARG_MIN_MAX
  95:../src/tensorflow_lite/src/tensorflow/lite/micro/kernels/arg_min_max.cpp **** 
  96:../src/tensorflow_lite/src/tensorflow/lite/micro/kernels/arg_min_max.cpp ****   return kTfLiteOk;
  97:../src/tensorflow_lite/src/tensorflow/lite/micro/kernels/arg_min_max.cpp **** }
  98:../src/tensorflow_lite/src/tensorflow/lite/micro/kernels/arg_min_max.cpp **** 
  99:../src/tensorflow_lite/src/tensorflow/lite/micro/kernels/arg_min_max.cpp **** TfLiteStatus ArgMinEval(TfLiteContext* context, TfLiteNode* node) {
 100:../src/tensorflow_lite/src/tensorflow/lite/micro/kernels/arg_min_max.cpp ****   return Eval(context, node, false);
 101:../src/tensorflow_lite/src/tensorflow/lite/micro/kernels/arg_min_max.cpp **** }
 102:../src/tensorflow_lite/src/tensorflow/lite/micro/kernels/arg_min_max.cpp **** 
 103:../src/tensorflow_lite/src/tensorflow/lite/micro/kernels/arg_min_max.cpp **** TfLiteStatus ArgMaxEval(TfLiteContext* context, TfLiteNode* node) {
 104:../src/tensorflow_lite/src/tensorflow/lite/micro/kernels/arg_min_max.cpp ****   return Eval(context, node, true);
 105:../src/tensorflow_lite/src/tensorflow/lite/micro/kernels/arg_min_max.cpp **** }
 106:../src/tensorflow_lite/src/tensorflow/lite/micro/kernels/arg_min_max.cpp **** 
 107:../src/tensorflow_lite/src/tensorflow/lite/micro/kernels/arg_min_max.cpp **** }  // namespace arg_min_max
 108:../src/tensorflow_lite/src/tensorflow/lite/micro/kernels/arg_min_max.cpp **** 
 109:../src/tensorflow_lite/src/tensorflow/lite/micro/kernels/arg_min_max.cpp **** TfLiteRegistration Register_ARG_MAX() {
  27              		.loc 1 109 0
  28              		.cfi_startproc
  29              		@ args = 0, pretend = 0, frame = 0
  30              		@ frame_needed = 0, uses_anonymous_args = 0
  31              	.LVL0:
  32 0000 10402DE9 		push	{r4, lr}
  33              		.cfi_def_cfa_offset 8
  34              		.cfi_offset 4, -8
  35              		.cfi_offset 14, -4
 110:../src/tensorflow_lite/src/tensorflow/lite/micro/kernels/arg_min_max.cpp ****   return {/*init=*/nullptr,
 111:../src/tensorflow_lite/src/tensorflow/lite/micro/kernels/arg_min_max.cpp ****           /*free=*/nullptr,
 112:../src/tensorflow_lite/src/tensorflow/lite/micro/kernels/arg_min_max.cpp ****           /*prepare=*/nullptr,
 113:../src/tensorflow_lite/src/tensorflow/lite/micro/kernels/arg_min_max.cpp ****           /*invoke=*/arg_min_max::ArgMaxEval,
 114:../src/tensorflow_lite/src/tensorflow/lite/micro/kernels/arg_min_max.cpp ****           /*profiling_string=*/nullptr,
 115:../src/tensorflow_lite/src/tensorflow/lite/micro/kernels/arg_min_max.cpp ****           /*builtin_code=*/0,
 116:../src/tensorflow_lite/src/tensorflow/lite/micro/kernels/arg_min_max.cpp ****           /*custom_name=*/nullptr,
 117:../src/tensorflow_lite/src/tensorflow/lite/micro/kernels/arg_min_max.cpp ****           /*version=*/0};
  36              		.loc 1 117 0
  37 0004 2020A0E3 		mov	r2, #32
  38 0008 0010A0E3 		mov	r1, #0
 109:../src/tensorflow_lite/src/tensorflow/lite/micro/kernels/arg_min_max.cpp ****   return {/*init=*/nullptr,
  39              		.loc 1 109 0
  40 000c 0040A0E1 		mov	r4, r0
  41              		.loc 1 117 0
  42 0010 FEFFFFEB 		bl	memset
  43              	.LVL1:
  44 0014 003000E3 		movw	r3, #:lower16:_ZN6tflite3ops5micro11arg_min_max10ArgMaxEvalEP13TfLiteContextP10TfLiteNode
 118:../src/tensorflow_lite/src/tensorflow/lite/micro/kernels/arg_min_max.cpp **** }
  45              		.loc 1 118 0
  46 0018 0400A0E1 		mov	r0, r4
 117:../src/tensorflow_lite/src/tensorflow/lite/micro/kernels/arg_min_max.cpp **** }
  47              		.loc 1 117 0
  48 001c 003040E3 		movt	r3, #:upper16:_ZN6tflite3ops5micro11arg_min_max10ArgMaxEvalEP13TfLiteContextP10TfLiteNode
  49 0020 0C3084E5 		str	r3, [r4, #12]
  50              		.loc 1 118 0
  51 0024 1080BDE8 		pop	{r4, pc}
  52              		.cfi_endproc
  53              	.LFE1769:
  54              		.cantunwind
  55              		.fnend
  57              		.section	.text._ZN6tflite3ops5micro16Register_ARG_MINEv,"ax",%progbits
  58              		.align	2
  59              		.global	_ZN6tflite3ops5micro16Register_ARG_MINEv
  60              		.syntax unified
  61              		.arm
  62              		.fpu neon
  64              	_ZN6tflite3ops5micro16Register_ARG_MINEv:
  65              		.fnstart
  66              	.LFB1770:
 119:../src/tensorflow_lite/src/tensorflow/lite/micro/kernels/arg_min_max.cpp **** 
 120:../src/tensorflow_lite/src/tensorflow/lite/micro/kernels/arg_min_max.cpp **** TfLiteRegistration Register_ARG_MIN() {
  67              		.loc 1 120 0
  68              		.cfi_startproc
  69              		@ args = 0, pretend = 0, frame = 0
  70              		@ frame_needed = 0, uses_anonymous_args = 0
  71              	.LVL2:
  72 0000 10402DE9 		push	{r4, lr}
  73              		.cfi_def_cfa_offset 8
  74              		.cfi_offset 4, -8
  75              		.cfi_offset 14, -4
 121:../src/tensorflow_lite/src/tensorflow/lite/micro/kernels/arg_min_max.cpp ****   return {/*init=*/nullptr,
 122:../src/tensorflow_lite/src/tensorflow/lite/micro/kernels/arg_min_max.cpp ****           /*free=*/nullptr,
 123:../src/tensorflow_lite/src/tensorflow/lite/micro/kernels/arg_min_max.cpp ****           /*prepare=*/nullptr,
 124:../src/tensorflow_lite/src/tensorflow/lite/micro/kernels/arg_min_max.cpp ****           /*invoke=*/arg_min_max::ArgMinEval,
 125:../src/tensorflow_lite/src/tensorflow/lite/micro/kernels/arg_min_max.cpp ****           /*profiling_string=*/nullptr,
 126:../src/tensorflow_lite/src/tensorflow/lite/micro/kernels/arg_min_max.cpp ****           /*builtin_code=*/0,
 127:../src/tensorflow_lite/src/tensorflow/lite/micro/kernels/arg_min_max.cpp ****           /*custom_name=*/nullptr,
 128:../src/tensorflow_lite/src/tensorflow/lite/micro/kernels/arg_min_max.cpp ****           /*version=*/0};
  76              		.loc 1 128 0
  77 0004 2020A0E3 		mov	r2, #32
  78 0008 0010A0E3 		mov	r1, #0
 120:../src/tensorflow_lite/src/tensorflow/lite/micro/kernels/arg_min_max.cpp ****   return {/*init=*/nullptr,
  79              		.loc 1 120 0
  80 000c 0040A0E1 		mov	r4, r0
  81              		.loc 1 128 0
  82 0010 FEFFFFEB 		bl	memset
  83              	.LVL3:
  84 0014 003000E3 		movw	r3, #:lower16:_ZN6tflite3ops5micro11arg_min_max10ArgMinEvalEP13TfLiteContextP10TfLiteNode
 129:../src/tensorflow_lite/src/tensorflow/lite/micro/kernels/arg_min_max.cpp **** }
  85              		.loc 1 129 0
  86 0018 0400A0E1 		mov	r0, r4
 128:../src/tensorflow_lite/src/tensorflow/lite/micro/kernels/arg_min_max.cpp **** }
  87              		.loc 1 128 0
  88 001c 003040E3 		movt	r3, #:upper16:_ZN6tflite3ops5micro11arg_min_max10ArgMinEvalEP13TfLiteContextP10TfLiteNode
  89 0020 0C3084E5 		str	r3, [r4, #12]
  90              		.loc 1 129 0
  91 0024 1080BDE8 		pop	{r4, pc}
  92              		.cfi_endproc
  93              	.LFE1770:
  94              		.cantunwind
  95              		.fnend
  97              		.section	.text._ZN6tflite13reference_ops9ArgMinMaxIfllNS_3ops5micro7GreaterEEEvRKNS_12RuntimeShape
  98              		.align	2
  99              		.weak	_ZN6tflite13reference_ops9ArgMinMaxIfllNS_3ops5micro7GreaterEEEvRKNS_12RuntimeShapeEPKT_PKT1
 100              		.syntax unified
 101              		.arm
 102              		.fpu neon
 104              	_ZN6tflite13reference_ops9ArgMinMaxIfllNS_3ops5micro7GreaterEEEvRKNS_12RuntimeShapeEPKT_PKT1_S7_PT0
 105              		.fnstart
 106              	.LFB1976:
 107              		.file 2 "C:/Renesas/e2studio_2021_01_workspace_RZA2M_ANPR/ANPR_RZA2M_GR_MANGO/src/tensorflow_lite/
   1:C:/Renesas/e2studio_2021_01_workspace_RZA2M_ANPR/ANPR_RZA2M_GR_MANGO/src/tensorflow_lite/src/tensorflow/lite/kernels/internal/reference\arg_min_max.h **** /* Copyright 2019 The TensorFlow Authors. All Rights Reserved.
   2:C:/Renesas/e2studio_2021_01_workspace_RZA2M_ANPR/ANPR_RZA2M_GR_MANGO/src/tensorflow_lite/src/tensorflow/lite/kernels/internal/reference\arg_min_max.h **** 
   3:C:/Renesas/e2studio_2021_01_workspace_RZA2M_ANPR/ANPR_RZA2M_GR_MANGO/src/tensorflow_lite/src/tensorflow/lite/kernels/internal/reference\arg_min_max.h **** Licensed under the Apache License, Version 2.0 (the "License");
   4:C:/Renesas/e2studio_2021_01_workspace_RZA2M_ANPR/ANPR_RZA2M_GR_MANGO/src/tensorflow_lite/src/tensorflow/lite/kernels/internal/reference\arg_min_max.h **** you may not use this file except in compliance with the License.
   5:C:/Renesas/e2studio_2021_01_workspace_RZA2M_ANPR/ANPR_RZA2M_GR_MANGO/src/tensorflow_lite/src/tensorflow/lite/kernels/internal/reference\arg_min_max.h **** You may obtain a copy of the License at
   6:C:/Renesas/e2studio_2021_01_workspace_RZA2M_ANPR/ANPR_RZA2M_GR_MANGO/src/tensorflow_lite/src/tensorflow/lite/kernels/internal/reference\arg_min_max.h **** 
   7:C:/Renesas/e2studio_2021_01_workspace_RZA2M_ANPR/ANPR_RZA2M_GR_MANGO/src/tensorflow_lite/src/tensorflow/lite/kernels/internal/reference\arg_min_max.h ****     http://www.apache.org/licenses/LICENSE-2.0
   8:C:/Renesas/e2studio_2021_01_workspace_RZA2M_ANPR/ANPR_RZA2M_GR_MANGO/src/tensorflow_lite/src/tensorflow/lite/kernels/internal/reference\arg_min_max.h **** 
   9:C:/Renesas/e2studio_2021_01_workspace_RZA2M_ANPR/ANPR_RZA2M_GR_MANGO/src/tensorflow_lite/src/tensorflow/lite/kernels/internal/reference\arg_min_max.h **** Unless required by applicable law or agreed to in writing, software
  10:C:/Renesas/e2studio_2021_01_workspace_RZA2M_ANPR/ANPR_RZA2M_GR_MANGO/src/tensorflow_lite/src/tensorflow/lite/kernels/internal/reference\arg_min_max.h **** distributed under the License is distributed on an "AS IS" BASIS,
  11:C:/Renesas/e2studio_2021_01_workspace_RZA2M_ANPR/ANPR_RZA2M_GR_MANGO/src/tensorflow_lite/src/tensorflow/lite/kernels/internal/reference\arg_min_max.h **** WITHOUT WARRANTIES OR CONDITIONS OF ANY KIND, either express or implied.
  12:C:/Renesas/e2studio_2021_01_workspace_RZA2M_ANPR/ANPR_RZA2M_GR_MANGO/src/tensorflow_lite/src/tensorflow/lite/kernels/internal/reference\arg_min_max.h **** See the License for the specific language governing permissions and
  13:C:/Renesas/e2studio_2021_01_workspace_RZA2M_ANPR/ANPR_RZA2M_GR_MANGO/src/tensorflow_lite/src/tensorflow/lite/kernels/internal/reference\arg_min_max.h **** limitations under the License.
  14:C:/Renesas/e2studio_2021_01_workspace_RZA2M_ANPR/ANPR_RZA2M_GR_MANGO/src/tensorflow_lite/src/tensorflow/lite/kernels/internal/reference\arg_min_max.h **** ==============================================================================*/
  15:C:/Renesas/e2studio_2021_01_workspace_RZA2M_ANPR/ANPR_RZA2M_GR_MANGO/src/tensorflow_lite/src/tensorflow/lite/kernels/internal/reference\arg_min_max.h **** #ifndef TENSORFLOW_LITE_KERNELS_INTERNAL_REFERENCE_ARG_MIN_MAX_H_
  16:C:/Renesas/e2studio_2021_01_workspace_RZA2M_ANPR/ANPR_RZA2M_GR_MANGO/src/tensorflow_lite/src/tensorflow/lite/kernels/internal/reference\arg_min_max.h **** #define TENSORFLOW_LITE_KERNELS_INTERNAL_REFERENCE_ARG_MIN_MAX_H_
  17:C:/Renesas/e2studio_2021_01_workspace_RZA2M_ANPR/ANPR_RZA2M_GR_MANGO/src/tensorflow_lite/src/tensorflow/lite/kernels/internal/reference\arg_min_max.h **** 
  18:C:/Renesas/e2studio_2021_01_workspace_RZA2M_ANPR/ANPR_RZA2M_GR_MANGO/src/tensorflow_lite/src/tensorflow/lite/kernels/internal/reference\arg_min_max.h **** #include <functional>
  19:C:/Renesas/e2studio_2021_01_workspace_RZA2M_ANPR/ANPR_RZA2M_GR_MANGO/src/tensorflow_lite/src/tensorflow/lite/kernels/internal/reference\arg_min_max.h **** 
  20:C:/Renesas/e2studio_2021_01_workspace_RZA2M_ANPR/ANPR_RZA2M_GR_MANGO/src/tensorflow_lite/src/tensorflow/lite/kernels/internal/reference\arg_min_max.h **** #include "tensorflow/lite/kernels/internal/types.h"
  21:C:/Renesas/e2studio_2021_01_workspace_RZA2M_ANPR/ANPR_RZA2M_GR_MANGO/src/tensorflow_lite/src/tensorflow/lite/kernels/internal/reference\arg_min_max.h **** 
  22:C:/Renesas/e2studio_2021_01_workspace_RZA2M_ANPR/ANPR_RZA2M_GR_MANGO/src/tensorflow_lite/src/tensorflow/lite/kernels/internal/reference\arg_min_max.h **** namespace tflite {
  23:C:/Renesas/e2studio_2021_01_workspace_RZA2M_ANPR/ANPR_RZA2M_GR_MANGO/src/tensorflow_lite/src/tensorflow/lite/kernels/internal/reference\arg_min_max.h **** 
  24:C:/Renesas/e2studio_2021_01_workspace_RZA2M_ANPR/ANPR_RZA2M_GR_MANGO/src/tensorflow_lite/src/tensorflow/lite/kernels/internal/reference\arg_min_max.h **** namespace reference_ops {
  25:C:/Renesas/e2studio_2021_01_workspace_RZA2M_ANPR/ANPR_RZA2M_GR_MANGO/src/tensorflow_lite/src/tensorflow/lite/kernels/internal/reference\arg_min_max.h **** 
  26:C:/Renesas/e2studio_2021_01_workspace_RZA2M_ANPR/ANPR_RZA2M_GR_MANGO/src/tensorflow_lite/src/tensorflow/lite/kernels/internal/reference\arg_min_max.h **** template <typename T>
  27:C:/Renesas/e2studio_2021_01_workspace_RZA2M_ANPR/ANPR_RZA2M_GR_MANGO/src/tensorflow_lite/src/tensorflow/lite/kernels/internal/reference\arg_min_max.h **** std::function<bool(T, T)> GetComparefunction(bool is_arg_max) {
  28:C:/Renesas/e2studio_2021_01_workspace_RZA2M_ANPR/ANPR_RZA2M_GR_MANGO/src/tensorflow_lite/src/tensorflow/lite/kernels/internal/reference\arg_min_max.h ****   if (is_arg_max) {
  29:C:/Renesas/e2studio_2021_01_workspace_RZA2M_ANPR/ANPR_RZA2M_GR_MANGO/src/tensorflow_lite/src/tensorflow/lite/kernels/internal/reference\arg_min_max.h ****     return std::greater<T>();
  30:C:/Renesas/e2studio_2021_01_workspace_RZA2M_ANPR/ANPR_RZA2M_GR_MANGO/src/tensorflow_lite/src/tensorflow/lite/kernels/internal/reference\arg_min_max.h ****   } else {
  31:C:/Renesas/e2studio_2021_01_workspace_RZA2M_ANPR/ANPR_RZA2M_GR_MANGO/src/tensorflow_lite/src/tensorflow/lite/kernels/internal/reference\arg_min_max.h ****     return std::less<T>();
  32:C:/Renesas/e2studio_2021_01_workspace_RZA2M_ANPR/ANPR_RZA2M_GR_MANGO/src/tensorflow_lite/src/tensorflow/lite/kernels/internal/reference\arg_min_max.h ****   }
  33:C:/Renesas/e2studio_2021_01_workspace_RZA2M_ANPR/ANPR_RZA2M_GR_MANGO/src/tensorflow_lite/src/tensorflow/lite/kernels/internal/reference\arg_min_max.h **** }
  34:C:/Renesas/e2studio_2021_01_workspace_RZA2M_ANPR/ANPR_RZA2M_GR_MANGO/src/tensorflow_lite/src/tensorflow/lite/kernels/internal/reference\arg_min_max.h **** 
  35:C:/Renesas/e2studio_2021_01_workspace_RZA2M_ANPR/ANPR_RZA2M_GR_MANGO/src/tensorflow_lite/src/tensorflow/lite/kernels/internal/reference\arg_min_max.h **** template <typename T1, typename T2, typename T3, typename Cmp>
  36:C:/Renesas/e2studio_2021_01_workspace_RZA2M_ANPR/ANPR_RZA2M_GR_MANGO/src/tensorflow_lite/src/tensorflow/lite/kernels/internal/reference\arg_min_max.h **** void ArgMinMax(const RuntimeShape& input1_shape, const T1* input1_data,
 108              		.loc 2 36 0
 109              		.cfi_startproc
 110              		@ args = 8, pretend = 0, frame = 0
 111              		@ frame_needed = 0, uses_anonymous_args = 0
 112              	.LVL4:
 113 0000 F84F2DE9 		push	{r3, r4, r5, r6, r7, r8, r9, r10, fp, lr}
 114              		.save {r3, r4, r5, r6, r7, r8, r9, r10, fp, lr}
 115              		.cfi_def_cfa_offset 40
 116              		.cfi_offset 3, -40
 117              		.cfi_offset 4, -36
 118              		.cfi_offset 5, -32
 119              		.cfi_offset 6, -28
 120              		.cfi_offset 7, -24
 121              		.cfi_offset 8, -20
 122              		.cfi_offset 9, -16
 123              		.cfi_offset 10, -12
 124              		.cfi_offset 11, -8
 125              		.cfi_offset 14, -4
 126 0004 004090E5 		ldr	r4, [r0]
 127              	.LVL5:
  37:C:/Renesas/e2studio_2021_01_workspace_RZA2M_ANPR/ANPR_RZA2M_GR_MANGO/src/tensorflow_lite/src/tensorflow/lite/kernels/internal/reference\arg_min_max.h ****                const T3* input2_data, const RuntimeShape& output_shape,
  38:C:/Renesas/e2studio_2021_01_workspace_RZA2M_ANPR/ANPR_RZA2M_GR_MANGO/src/tensorflow_lite/src/tensorflow/lite/kernels/internal/reference\arg_min_max.h ****                T2* output_data, const Cmp& cmp) {
  39:C:/Renesas/e2studio_2021_01_workspace_RZA2M_ANPR/ANPR_RZA2M_GR_MANGO/src/tensorflow_lite/src/tensorflow/lite/kernels/internal/reference\arg_min_max.h ****   TFLITE_DCHECK_GT(input1_shape.DimensionsCount(), 0);
 128              		.loc 2 39 0
 129 0008 000054E3 		cmp	r4, #0
 130 000c 3A0000DA 		ble	.L7
 131 0010 0060A0E1 		mov	r6, r0
 132              	.LVL6:
  40:C:/Renesas/e2studio_2021_01_workspace_RZA2M_ANPR/ANPR_RZA2M_GR_MANGO/src/tensorflow_lite/src/tensorflow/lite/kernels/internal/reference\arg_min_max.h ****   TFLITE_DCHECK_EQ(input1_shape.DimensionsCount() - 1,
 133              		.loc 2 40 0
 134 0014 000093E5 		ldr	r0, [r3]
 135              	.LVL7:
 136 0018 015044E2 		sub	r5, r4, #1
 137              	.LVL8:
 138 001c 000055E1 		cmp	r5, r0
 139 0020 3500001A 		bne	.L7
  41:C:/Renesas/e2studio_2021_01_workspace_RZA2M_ANPR/ANPR_RZA2M_GR_MANGO/src/tensorflow_lite/src/tensorflow/lite/kernels/internal/reference\arg_min_max.h ****                    output_shape.DimensionsCount());
  42:C:/Renesas/e2studio_2021_01_workspace_RZA2M_ANPR/ANPR_RZA2M_GR_MANGO/src/tensorflow_lite/src/tensorflow/lite/kernels/internal/reference\arg_min_max.h ****   int axis = input2_data[0];
 140              		.loc 2 42 0
 141 0024 002092E5 		ldr	r2, [r2]
 142              	.LVL9:
  43:C:/Renesas/e2studio_2021_01_workspace_RZA2M_ANPR/ANPR_RZA2M_GR_MANGO/src/tensorflow_lite/src/tensorflow/lite/kernels/internal/reference\arg_min_max.h ****   if (axis < 0) {
 143              		.loc 2 43 0
 144 0028 000052E3 		cmp	r2, #0
 145 002c 190100BA 		blt	.L145
 146              	.LVL10:
 147              	.L8:
 148              	.LBB195:
 149              	.LBB196:
 150              		.file 3 "C:/Renesas/e2studio_2021_01_workspace_RZA2M_ANPR/ANPR_RZA2M_GR_MANGO/src/tensorflow_lite/
   1:C:/Renesas/e2studio_2021_01_workspace_RZA2M_ANPR/ANPR_RZA2M_GR_MANGO/src/tensorflow_lite/src/tensorflow/lite/kernels/internal\types.h **** /* Copyright 2018 The TensorFlow Authors. All Rights Reserved.
   2:C:/Renesas/e2studio_2021_01_workspace_RZA2M_ANPR/ANPR_RZA2M_GR_MANGO/src/tensorflow_lite/src/tensorflow/lite/kernels/internal\types.h **** 
   3:C:/Renesas/e2studio_2021_01_workspace_RZA2M_ANPR/ANPR_RZA2M_GR_MANGO/src/tensorflow_lite/src/tensorflow/lite/kernels/internal\types.h **** Licensed under the Apache License, Version 2.0 (the "License");
   4:C:/Renesas/e2studio_2021_01_workspace_RZA2M_ANPR/ANPR_RZA2M_GR_MANGO/src/tensorflow_lite/src/tensorflow/lite/kernels/internal\types.h **** you may not use this file except in compliance with the License.
   5:C:/Renesas/e2studio_2021_01_workspace_RZA2M_ANPR/ANPR_RZA2M_GR_MANGO/src/tensorflow_lite/src/tensorflow/lite/kernels/internal\types.h **** You may obtain a copy of the License at
   6:C:/Renesas/e2studio_2021_01_workspace_RZA2M_ANPR/ANPR_RZA2M_GR_MANGO/src/tensorflow_lite/src/tensorflow/lite/kernels/internal\types.h **** 
   7:C:/Renesas/e2studio_2021_01_workspace_RZA2M_ANPR/ANPR_RZA2M_GR_MANGO/src/tensorflow_lite/src/tensorflow/lite/kernels/internal\types.h ****     http://www.apache.org/licenses/LICENSE-2.0
   8:C:/Renesas/e2studio_2021_01_workspace_RZA2M_ANPR/ANPR_RZA2M_GR_MANGO/src/tensorflow_lite/src/tensorflow/lite/kernels/internal\types.h **** 
   9:C:/Renesas/e2studio_2021_01_workspace_RZA2M_ANPR/ANPR_RZA2M_GR_MANGO/src/tensorflow_lite/src/tensorflow/lite/kernels/internal\types.h **** Unless required by applicable law or agreed to in writing, software
  10:C:/Renesas/e2studio_2021_01_workspace_RZA2M_ANPR/ANPR_RZA2M_GR_MANGO/src/tensorflow_lite/src/tensorflow/lite/kernels/internal\types.h **** distributed under the License is distributed on an "AS IS" BASIS,
  11:C:/Renesas/e2studio_2021_01_workspace_RZA2M_ANPR/ANPR_RZA2M_GR_MANGO/src/tensorflow_lite/src/tensorflow/lite/kernels/internal\types.h **** WITHOUT WARRANTIES OR CONDITIONS OF ANY KIND, either express or implied.
  12:C:/Renesas/e2studio_2021_01_workspace_RZA2M_ANPR/ANPR_RZA2M_GR_MANGO/src/tensorflow_lite/src/tensorflow/lite/kernels/internal\types.h **** See the License for the specific language governing permissions and
  13:C:/Renesas/e2studio_2021_01_workspace_RZA2M_ANPR/ANPR_RZA2M_GR_MANGO/src/tensorflow_lite/src/tensorflow/lite/kernels/internal\types.h **** limitations under the License.
  14:C:/Renesas/e2studio_2021_01_workspace_RZA2M_ANPR/ANPR_RZA2M_GR_MANGO/src/tensorflow_lite/src/tensorflow/lite/kernels/internal\types.h **** ==============================================================================*/
  15:C:/Renesas/e2studio_2021_01_workspace_RZA2M_ANPR/ANPR_RZA2M_GR_MANGO/src/tensorflow_lite/src/tensorflow/lite/kernels/internal\types.h **** #ifndef TENSORFLOW_LITE_KERNELS_INTERNAL_TYPES_H_
  16:C:/Renesas/e2studio_2021_01_workspace_RZA2M_ANPR/ANPR_RZA2M_GR_MANGO/src/tensorflow_lite/src/tensorflow/lite/kernels/internal\types.h **** #define TENSORFLOW_LITE_KERNELS_INTERNAL_TYPES_H_
  17:C:/Renesas/e2studio_2021_01_workspace_RZA2M_ANPR/ANPR_RZA2M_GR_MANGO/src/tensorflow_lite/src/tensorflow/lite/kernels/internal\types.h **** 
  18:C:/Renesas/e2studio_2021_01_workspace_RZA2M_ANPR/ANPR_RZA2M_GR_MANGO/src/tensorflow_lite/src/tensorflow/lite/kernels/internal\types.h **** #include <algorithm>
  19:C:/Renesas/e2studio_2021_01_workspace_RZA2M_ANPR/ANPR_RZA2M_GR_MANGO/src/tensorflow_lite/src/tensorflow/lite/kernels/internal\types.h **** #include <cstdint>
  20:C:/Renesas/e2studio_2021_01_workspace_RZA2M_ANPR/ANPR_RZA2M_GR_MANGO/src/tensorflow_lite/src/tensorflow/lite/kernels/internal\types.h **** #include <cstring>
  21:C:/Renesas/e2studio_2021_01_workspace_RZA2M_ANPR/ANPR_RZA2M_GR_MANGO/src/tensorflow_lite/src/tensorflow/lite/kernels/internal\types.h **** #include <initializer_list>
  22:C:/Renesas/e2studio_2021_01_workspace_RZA2M_ANPR/ANPR_RZA2M_GR_MANGO/src/tensorflow_lite/src/tensorflow/lite/kernels/internal\types.h **** 
  23:C:/Renesas/e2studio_2021_01_workspace_RZA2M_ANPR/ANPR_RZA2M_GR_MANGO/src/tensorflow_lite/src/tensorflow/lite/kernels/internal\types.h **** #include "tensorflow/lite/kernels/internal/compatibility.h"
  24:C:/Renesas/e2studio_2021_01_workspace_RZA2M_ANPR/ANPR_RZA2M_GR_MANGO/src/tensorflow_lite/src/tensorflow/lite/kernels/internal\types.h **** 
  25:C:/Renesas/e2studio_2021_01_workspace_RZA2M_ANPR/ANPR_RZA2M_GR_MANGO/src/tensorflow_lite/src/tensorflow/lite/kernels/internal\types.h **** namespace tflite {
  26:C:/Renesas/e2studio_2021_01_workspace_RZA2M_ANPR/ANPR_RZA2M_GR_MANGO/src/tensorflow_lite/src/tensorflow/lite/kernels/internal\types.h **** 
  27:C:/Renesas/e2studio_2021_01_workspace_RZA2M_ANPR/ANPR_RZA2M_GR_MANGO/src/tensorflow_lite/src/tensorflow/lite/kernels/internal\types.h **** enum class FusedActivationFunctionType : uint8_t {
  28:C:/Renesas/e2studio_2021_01_workspace_RZA2M_ANPR/ANPR_RZA2M_GR_MANGO/src/tensorflow_lite/src/tensorflow/lite/kernels/internal\types.h ****   kNone,
  29:C:/Renesas/e2studio_2021_01_workspace_RZA2M_ANPR/ANPR_RZA2M_GR_MANGO/src/tensorflow_lite/src/tensorflow/lite/kernels/internal\types.h ****   kRelu6,
  30:C:/Renesas/e2studio_2021_01_workspace_RZA2M_ANPR/ANPR_RZA2M_GR_MANGO/src/tensorflow_lite/src/tensorflow/lite/kernels/internal\types.h ****   kRelu1,
  31:C:/Renesas/e2studio_2021_01_workspace_RZA2M_ANPR/ANPR_RZA2M_GR_MANGO/src/tensorflow_lite/src/tensorflow/lite/kernels/internal\types.h ****   kRelu
  32:C:/Renesas/e2studio_2021_01_workspace_RZA2M_ANPR/ANPR_RZA2M_GR_MANGO/src/tensorflow_lite/src/tensorflow/lite/kernels/internal\types.h **** };
  33:C:/Renesas/e2studio_2021_01_workspace_RZA2M_ANPR/ANPR_RZA2M_GR_MANGO/src/tensorflow_lite/src/tensorflow/lite/kernels/internal\types.h **** enum class PaddingType : uint8_t { kNone, kSame, kValid };
  34:C:/Renesas/e2studio_2021_01_workspace_RZA2M_ANPR/ANPR_RZA2M_GR_MANGO/src/tensorflow_lite/src/tensorflow/lite/kernels/internal\types.h **** 
  35:C:/Renesas/e2studio_2021_01_workspace_RZA2M_ANPR/ANPR_RZA2M_GR_MANGO/src/tensorflow_lite/src/tensorflow/lite/kernels/internal\types.h **** struct PaddingValues {
  36:C:/Renesas/e2studio_2021_01_workspace_RZA2M_ANPR/ANPR_RZA2M_GR_MANGO/src/tensorflow_lite/src/tensorflow/lite/kernels/internal\types.h ****   int16_t width;
  37:C:/Renesas/e2studio_2021_01_workspace_RZA2M_ANPR/ANPR_RZA2M_GR_MANGO/src/tensorflow_lite/src/tensorflow/lite/kernels/internal\types.h ****   int16_t height;
  38:C:/Renesas/e2studio_2021_01_workspace_RZA2M_ANPR/ANPR_RZA2M_GR_MANGO/src/tensorflow_lite/src/tensorflow/lite/kernels/internal\types.h ****   // offset is used for calculating "remaining" padding, for example, `width`
  39:C:/Renesas/e2studio_2021_01_workspace_RZA2M_ANPR/ANPR_RZA2M_GR_MANGO/src/tensorflow_lite/src/tensorflow/lite/kernels/internal\types.h ****   // is 1 and `width_offset` is 1, so padding_left is 1 while padding_right is
  40:C:/Renesas/e2studio_2021_01_workspace_RZA2M_ANPR/ANPR_RZA2M_GR_MANGO/src/tensorflow_lite/src/tensorflow/lite/kernels/internal\types.h ****   // 1 + 1 = 2.
  41:C:/Renesas/e2studio_2021_01_workspace_RZA2M_ANPR/ANPR_RZA2M_GR_MANGO/src/tensorflow_lite/src/tensorflow/lite/kernels/internal\types.h ****   int16_t width_offset;
  42:C:/Renesas/e2studio_2021_01_workspace_RZA2M_ANPR/ANPR_RZA2M_GR_MANGO/src/tensorflow_lite/src/tensorflow/lite/kernels/internal\types.h ****   // Same as width_offset except it's over the height dimension.
  43:C:/Renesas/e2studio_2021_01_workspace_RZA2M_ANPR/ANPR_RZA2M_GR_MANGO/src/tensorflow_lite/src/tensorflow/lite/kernels/internal\types.h ****   int16_t height_offset;
  44:C:/Renesas/e2studio_2021_01_workspace_RZA2M_ANPR/ANPR_RZA2M_GR_MANGO/src/tensorflow_lite/src/tensorflow/lite/kernels/internal\types.h **** };
  45:C:/Renesas/e2studio_2021_01_workspace_RZA2M_ANPR/ANPR_RZA2M_GR_MANGO/src/tensorflow_lite/src/tensorflow/lite/kernels/internal\types.h **** 
  46:C:/Renesas/e2studio_2021_01_workspace_RZA2M_ANPR/ANPR_RZA2M_GR_MANGO/src/tensorflow_lite/src/tensorflow/lite/kernels/internal\types.h **** struct Padding3DValues {
  47:C:/Renesas/e2studio_2021_01_workspace_RZA2M_ANPR/ANPR_RZA2M_GR_MANGO/src/tensorflow_lite/src/tensorflow/lite/kernels/internal\types.h ****   int16_t width;
  48:C:/Renesas/e2studio_2021_01_workspace_RZA2M_ANPR/ANPR_RZA2M_GR_MANGO/src/tensorflow_lite/src/tensorflow/lite/kernels/internal\types.h ****   int16_t height;
  49:C:/Renesas/e2studio_2021_01_workspace_RZA2M_ANPR/ANPR_RZA2M_GR_MANGO/src/tensorflow_lite/src/tensorflow/lite/kernels/internal\types.h ****   int16_t depth;
  50:C:/Renesas/e2studio_2021_01_workspace_RZA2M_ANPR/ANPR_RZA2M_GR_MANGO/src/tensorflow_lite/src/tensorflow/lite/kernels/internal\types.h ****   // offset is used for calculating "remaining" padding, for example, `width`
  51:C:/Renesas/e2studio_2021_01_workspace_RZA2M_ANPR/ANPR_RZA2M_GR_MANGO/src/tensorflow_lite/src/tensorflow/lite/kernels/internal\types.h ****   // is 1 and `width_offset` is 1, so padding_left is 1 while padding_right is
  52:C:/Renesas/e2studio_2021_01_workspace_RZA2M_ANPR/ANPR_RZA2M_GR_MANGO/src/tensorflow_lite/src/tensorflow/lite/kernels/internal\types.h ****   // 1 + 1 = 2.
  53:C:/Renesas/e2studio_2021_01_workspace_RZA2M_ANPR/ANPR_RZA2M_GR_MANGO/src/tensorflow_lite/src/tensorflow/lite/kernels/internal\types.h ****   int16_t width_offset;
  54:C:/Renesas/e2studio_2021_01_workspace_RZA2M_ANPR/ANPR_RZA2M_GR_MANGO/src/tensorflow_lite/src/tensorflow/lite/kernels/internal\types.h ****   // Same as width_offset except it's over the height dimension.
  55:C:/Renesas/e2studio_2021_01_workspace_RZA2M_ANPR/ANPR_RZA2M_GR_MANGO/src/tensorflow_lite/src/tensorflow/lite/kernels/internal\types.h ****   int16_t height_offset;
  56:C:/Renesas/e2studio_2021_01_workspace_RZA2M_ANPR/ANPR_RZA2M_GR_MANGO/src/tensorflow_lite/src/tensorflow/lite/kernels/internal\types.h ****   // Same as width_offset except it's over the depth dimension.
  57:C:/Renesas/e2studio_2021_01_workspace_RZA2M_ANPR/ANPR_RZA2M_GR_MANGO/src/tensorflow_lite/src/tensorflow/lite/kernels/internal\types.h ****   int16_t depth_offset;
  58:C:/Renesas/e2studio_2021_01_workspace_RZA2M_ANPR/ANPR_RZA2M_GR_MANGO/src/tensorflow_lite/src/tensorflow/lite/kernels/internal\types.h **** };
  59:C:/Renesas/e2studio_2021_01_workspace_RZA2M_ANPR/ANPR_RZA2M_GR_MANGO/src/tensorflow_lite/src/tensorflow/lite/kernels/internal\types.h **** 
  60:C:/Renesas/e2studio_2021_01_workspace_RZA2M_ANPR/ANPR_RZA2M_GR_MANGO/src/tensorflow_lite/src/tensorflow/lite/kernels/internal\types.h **** // This enumeration allows for non-default formats for the weights array
  61:C:/Renesas/e2studio_2021_01_workspace_RZA2M_ANPR/ANPR_RZA2M_GR_MANGO/src/tensorflow_lite/src/tensorflow/lite/kernels/internal\types.h **** // of a fully-connected operator, allowing the use of special optimized
  62:C:/Renesas/e2studio_2021_01_workspace_RZA2M_ANPR/ANPR_RZA2M_GR_MANGO/src/tensorflow_lite/src/tensorflow/lite/kernels/internal\types.h **** // runtime paths.
  63:C:/Renesas/e2studio_2021_01_workspace_RZA2M_ANPR/ANPR_RZA2M_GR_MANGO/src/tensorflow_lite/src/tensorflow/lite/kernels/internal\types.h **** enum class FullyConnectedWeightsFormat : uint8_t {
  64:C:/Renesas/e2studio_2021_01_workspace_RZA2M_ANPR/ANPR_RZA2M_GR_MANGO/src/tensorflow_lite/src/tensorflow/lite/kernels/internal\types.h ****   // Default format (flat 2D layout, the inner contiguous dimension
  65:C:/Renesas/e2studio_2021_01_workspace_RZA2M_ANPR/ANPR_RZA2M_GR_MANGO/src/tensorflow_lite/src/tensorflow/lite/kernels/internal\types.h ****   // is input_depth, the outer non-contiguous dimension is output_depth)
  66:C:/Renesas/e2studio_2021_01_workspace_RZA2M_ANPR/ANPR_RZA2M_GR_MANGO/src/tensorflow_lite/src/tensorflow/lite/kernels/internal\types.h ****   kDefault,
  67:C:/Renesas/e2studio_2021_01_workspace_RZA2M_ANPR/ANPR_RZA2M_GR_MANGO/src/tensorflow_lite/src/tensorflow/lite/kernels/internal\types.h ****   // Summary: optimized layout for fast CPU runtime implementation,
  68:C:/Renesas/e2studio_2021_01_workspace_RZA2M_ANPR/ANPR_RZA2M_GR_MANGO/src/tensorflow_lite/src/tensorflow/lite/kernels/internal\types.h ****   // aimed specifically at ARM CPUs at the moment, and specialized for
  69:C:/Renesas/e2studio_2021_01_workspace_RZA2M_ANPR/ANPR_RZA2M_GR_MANGO/src/tensorflow_lite/src/tensorflow/lite/kernels/internal\types.h ****   // 8-bit quantized layers.
  70:C:/Renesas/e2studio_2021_01_workspace_RZA2M_ANPR/ANPR_RZA2M_GR_MANGO/src/tensorflow_lite/src/tensorflow/lite/kernels/internal\types.h ****   //
  71:C:/Renesas/e2studio_2021_01_workspace_RZA2M_ANPR/ANPR_RZA2M_GR_MANGO/src/tensorflow_lite/src/tensorflow/lite/kernels/internal\types.h ****   // The use case we're concerned with here is: 8-bit quantization,
  72:C:/Renesas/e2studio_2021_01_workspace_RZA2M_ANPR/ANPR_RZA2M_GR_MANGO/src/tensorflow_lite/src/tensorflow/lite/kernels/internal\types.h ****   // large weights matrix that doesn't fit in cache (e.g. 4096x2048 in
  73:C:/Renesas/e2studio_2021_01_workspace_RZA2M_ANPR/ANPR_RZA2M_GR_MANGO/src/tensorflow_lite/src/tensorflow/lite/kernels/internal\types.h ****   // a key application that drove this), very small batch size (e.g. 1 -- 4).
  74:C:/Renesas/e2studio_2021_01_workspace_RZA2M_ANPR/ANPR_RZA2M_GR_MANGO/src/tensorflow_lite/src/tensorflow/lite/kernels/internal\types.h ****   //
  75:C:/Renesas/e2studio_2021_01_workspace_RZA2M_ANPR/ANPR_RZA2M_GR_MANGO/src/tensorflow_lite/src/tensorflow/lite/kernels/internal\types.h ****   // Even with 8-bit quantization of weights, the performance of memory
  76:C:/Renesas/e2studio_2021_01_workspace_RZA2M_ANPR/ANPR_RZA2M_GR_MANGO/src/tensorflow_lite/src/tensorflow/lite/kernels/internal\types.h ****   // accesses to the weights can become the dominant issue when
  77:C:/Renesas/e2studio_2021_01_workspace_RZA2M_ANPR/ANPR_RZA2M_GR_MANGO/src/tensorflow_lite/src/tensorflow/lite/kernels/internal\types.h ****   // the batch size is small, so each weight value is used in only a few
  78:C:/Renesas/e2studio_2021_01_workspace_RZA2M_ANPR/ANPR_RZA2M_GR_MANGO/src/tensorflow_lite/src/tensorflow/lite/kernels/internal\types.h ****   // arithmetic ops, i.e. the fully-connected node has a low arithmetic
  79:C:/Renesas/e2studio_2021_01_workspace_RZA2M_ANPR/ANPR_RZA2M_GR_MANGO/src/tensorflow_lite/src/tensorflow/lite/kernels/internal\types.h ****   // intensity. The specific issues that arise are of three kinds:
  80:C:/Renesas/e2studio_2021_01_workspace_RZA2M_ANPR/ANPR_RZA2M_GR_MANGO/src/tensorflow_lite/src/tensorflow/lite/kernels/internal\types.h ****   // (1) One may, ideally, max out DRAM bandwidth, i.e. be truly memory
  81:C:/Renesas/e2studio_2021_01_workspace_RZA2M_ANPR/ANPR_RZA2M_GR_MANGO/src/tensorflow_lite/src/tensorflow/lite/kernels/internal\types.h ****   //     bound. That's the "good" issue to run into.
  82:C:/Renesas/e2studio_2021_01_workspace_RZA2M_ANPR/ANPR_RZA2M_GR_MANGO/src/tensorflow_lite/src/tensorflow/lite/kernels/internal\types.h ****   // (2) One may run into sub-optimal pre-fetching: the data hasn't been
  83:C:/Renesas/e2studio_2021_01_workspace_RZA2M_ANPR/ANPR_RZA2M_GR_MANGO/src/tensorflow_lite/src/tensorflow/lite/kernels/internal\types.h ****   //     prefetched into the cache by the time we need it.
  84:C:/Renesas/e2studio_2021_01_workspace_RZA2M_ANPR/ANPR_RZA2M_GR_MANGO/src/tensorflow_lite/src/tensorflow/lite/kernels/internal\types.h ****   // (3) One may run into cache aliasing: multiple values that are
  85:C:/Renesas/e2studio_2021_01_workspace_RZA2M_ANPR/ANPR_RZA2M_GR_MANGO/src/tensorflow_lite/src/tensorflow/lite/kernels/internal\types.h ****   //     pre-fetched, alias each other in the L1 cache (which typically
  86:C:/Renesas/e2studio_2021_01_workspace_RZA2M_ANPR/ANPR_RZA2M_GR_MANGO/src/tensorflow_lite/src/tensorflow/lite/kernels/internal\types.h ****   //     has only 4-way set associativity in ARM CPUs) and thus evict
  87:C:/Renesas/e2studio_2021_01_workspace_RZA2M_ANPR/ANPR_RZA2M_GR_MANGO/src/tensorflow_lite/src/tensorflow/lite/kernels/internal\types.h ****   //     each other before we get to using them.
  88:C:/Renesas/e2studio_2021_01_workspace_RZA2M_ANPR/ANPR_RZA2M_GR_MANGO/src/tensorflow_lite/src/tensorflow/lite/kernels/internal\types.h ****   //
  89:C:/Renesas/e2studio_2021_01_workspace_RZA2M_ANPR/ANPR_RZA2M_GR_MANGO/src/tensorflow_lite/src/tensorflow/lite/kernels/internal\types.h ****   // The point of this shuffling is to avoid issues (2) and (3) so that
  90:C:/Renesas/e2studio_2021_01_workspace_RZA2M_ANPR/ANPR_RZA2M_GR_MANGO/src/tensorflow_lite/src/tensorflow/lite/kernels/internal\types.h ****   // we get as fast as possible given only the hard constraint (1).
  91:C:/Renesas/e2studio_2021_01_workspace_RZA2M_ANPR/ANPR_RZA2M_GR_MANGO/src/tensorflow_lite/src/tensorflow/lite/kernels/internal\types.h ****   // This is achieved by turning the difficulty into a solution: the
  92:C:/Renesas/e2studio_2021_01_workspace_RZA2M_ANPR/ANPR_RZA2M_GR_MANGO/src/tensorflow_lite/src/tensorflow/lite/kernels/internal\types.h ****   // difficulty, that each value loaded from memory is used only in
  93:C:/Renesas/e2studio_2021_01_workspace_RZA2M_ANPR/ANPR_RZA2M_GR_MANGO/src/tensorflow_lite/src/tensorflow/lite/kernels/internal\types.h ****   // one kernel iteration, making this operation memory-intensive, hints at
  94:C:/Renesas/e2studio_2021_01_workspace_RZA2M_ANPR/ANPR_RZA2M_GR_MANGO/src/tensorflow_lite/src/tensorflow/lite/kernels/internal\types.h ****   // the solution, of shuffling the weights so that they are stored in the
  95:C:/Renesas/e2studio_2021_01_workspace_RZA2M_ANPR/ANPR_RZA2M_GR_MANGO/src/tensorflow_lite/src/tensorflow/lite/kernels/internal\types.h ****   // exact order as the kernel needs to load them, so that the memory
  96:C:/Renesas/e2studio_2021_01_workspace_RZA2M_ANPR/ANPR_RZA2M_GR_MANGO/src/tensorflow_lite/src/tensorflow/lite/kernels/internal\types.h ****   // accesses made by the kernel are trivial. This solves (2) because the
  97:C:/Renesas/e2studio_2021_01_workspace_RZA2M_ANPR/ANPR_RZA2M_GR_MANGO/src/tensorflow_lite/src/tensorflow/lite/kernels/internal\types.h ****   // trivial memory access pattern allows the CPU's automatic prefetching
  98:C:/Renesas/e2studio_2021_01_workspace_RZA2M_ANPR/ANPR_RZA2M_GR_MANGO/src/tensorflow_lite/src/tensorflow/lite/kernels/internal\types.h ****   // to perform very well (no need even for preload instructions), and this
  99:C:/Renesas/e2studio_2021_01_workspace_RZA2M_ANPR/ANPR_RZA2M_GR_MANGO/src/tensorflow_lite/src/tensorflow/lite/kernels/internal\types.h ****   // solves (3) because the values being loaded concurrently are now
 100:C:/Renesas/e2studio_2021_01_workspace_RZA2M_ANPR/ANPR_RZA2M_GR_MANGO/src/tensorflow_lite/src/tensorflow/lite/kernels/internal\types.h ****   // contiguous in the address space, thus don't alias each other in the cache.
 101:C:/Renesas/e2studio_2021_01_workspace_RZA2M_ANPR/ANPR_RZA2M_GR_MANGO/src/tensorflow_lite/src/tensorflow/lite/kernels/internal\types.h ****   //
 102:C:/Renesas/e2studio_2021_01_workspace_RZA2M_ANPR/ANPR_RZA2M_GR_MANGO/src/tensorflow_lite/src/tensorflow/lite/kernels/internal\types.h ****   // On ARM, we typically want our kernel to process a 4x16 block of weights
 103:C:/Renesas/e2studio_2021_01_workspace_RZA2M_ANPR/ANPR_RZA2M_GR_MANGO/src/tensorflow_lite/src/tensorflow/lite/kernels/internal\types.h ****   // at a time, because:
 104:C:/Renesas/e2studio_2021_01_workspace_RZA2M_ANPR/ANPR_RZA2M_GR_MANGO/src/tensorflow_lite/src/tensorflow/lite/kernels/internal\types.h ****   //   - 16 is the number of bytes in a NEON register.
 105:C:/Renesas/e2studio_2021_01_workspace_RZA2M_ANPR/ANPR_RZA2M_GR_MANGO/src/tensorflow_lite/src/tensorflow/lite/kernels/internal\types.h ****   //   - 4 is how many rows we need to handle concurrently in the kernel in
 106:C:/Renesas/e2studio_2021_01_workspace_RZA2M_ANPR/ANPR_RZA2M_GR_MANGO/src/tensorflow_lite/src/tensorflow/lite/kernels/internal\types.h ****   //     order to have sufficient mutual independence of instructions to
 107:C:/Renesas/e2studio_2021_01_workspace_RZA2M_ANPR/ANPR_RZA2M_GR_MANGO/src/tensorflow_lite/src/tensorflow/lite/kernels/internal\types.h ****   //     maximize arithmetic throughput.
 108:C:/Renesas/e2studio_2021_01_workspace_RZA2M_ANPR/ANPR_RZA2M_GR_MANGO/src/tensorflow_lite/src/tensorflow/lite/kernels/internal\types.h ****   //
 109:C:/Renesas/e2studio_2021_01_workspace_RZA2M_ANPR/ANPR_RZA2M_GR_MANGO/src/tensorflow_lite/src/tensorflow/lite/kernels/internal\types.h ****   // Finally, the 'Int8' part in the name refers to the fact that this
 110:C:/Renesas/e2studio_2021_01_workspace_RZA2M_ANPR/ANPR_RZA2M_GR_MANGO/src/tensorflow_lite/src/tensorflow/lite/kernels/internal\types.h ****   // weights format has each weights value encoded as a signed int8_t value,
 111:C:/Renesas/e2studio_2021_01_workspace_RZA2M_ANPR/ANPR_RZA2M_GR_MANGO/src/tensorflow_lite/src/tensorflow/lite/kernels/internal\types.h ****   // even if the data type of the weights buffer is uint8_t.  This is intended
 112:C:/Renesas/e2studio_2021_01_workspace_RZA2M_ANPR/ANPR_RZA2M_GR_MANGO/src/tensorflow_lite/src/tensorflow/lite/kernels/internal\types.h ****   // to save runtime kernels the effort to have to XOR the top bit of these
 113:C:/Renesas/e2studio_2021_01_workspace_RZA2M_ANPR/ANPR_RZA2M_GR_MANGO/src/tensorflow_lite/src/tensorflow/lite/kernels/internal\types.h ****   // bytes before using them in signed arithmetic, see this file for more
 114:C:/Renesas/e2studio_2021_01_workspace_RZA2M_ANPR/ANPR_RZA2M_GR_MANGO/src/tensorflow_lite/src/tensorflow/lite/kernels/internal\types.h ****   // explanations on the 'signed int8_t trick' in matrix multiplication kernels:
 115:C:/Renesas/e2studio_2021_01_workspace_RZA2M_ANPR/ANPR_RZA2M_GR_MANGO/src/tensorflow_lite/src/tensorflow/lite/kernels/internal\types.h ****   //
 116:C:/Renesas/e2studio_2021_01_workspace_RZA2M_ANPR/ANPR_RZA2M_GR_MANGO/src/tensorflow_lite/src/tensorflow/lite/kernels/internal\types.h ****   //   tensorflow/lite/toco/graph_transformations/ensure_uint8_weights_safe_for_fast_int8_kernels.c
 117:C:/Renesas/e2studio_2021_01_workspace_RZA2M_ANPR/ANPR_RZA2M_GR_MANGO/src/tensorflow_lite/src/tensorflow/lite/kernels/internal\types.h ****   //
 118:C:/Renesas/e2studio_2021_01_workspace_RZA2M_ANPR/ANPR_RZA2M_GR_MANGO/src/tensorflow_lite/src/tensorflow/lite/kernels/internal\types.h ****   kShuffled4x16Int8,
 119:C:/Renesas/e2studio_2021_01_workspace_RZA2M_ANPR/ANPR_RZA2M_GR_MANGO/src/tensorflow_lite/src/tensorflow/lite/kernels/internal\types.h **** };
 120:C:/Renesas/e2studio_2021_01_workspace_RZA2M_ANPR/ANPR_RZA2M_GR_MANGO/src/tensorflow_lite/src/tensorflow/lite/kernels/internal\types.h **** 
 121:C:/Renesas/e2studio_2021_01_workspace_RZA2M_ANPR/ANPR_RZA2M_GR_MANGO/src/tensorflow_lite/src/tensorflow/lite/kernels/internal\types.h **** // Quantization parameters, determining the mapping of quantized values
 122:C:/Renesas/e2studio_2021_01_workspace_RZA2M_ANPR/ANPR_RZA2M_GR_MANGO/src/tensorflow_lite/src/tensorflow/lite/kernels/internal\types.h **** // to real values (i.e. determining how quantized values are mathematically
 123:C:/Renesas/e2studio_2021_01_workspace_RZA2M_ANPR/ANPR_RZA2M_GR_MANGO/src/tensorflow_lite/src/tensorflow/lite/kernels/internal\types.h **** // interpreted).
 124:C:/Renesas/e2studio_2021_01_workspace_RZA2M_ANPR/ANPR_RZA2M_GR_MANGO/src/tensorflow_lite/src/tensorflow/lite/kernels/internal\types.h **** //
 125:C:/Renesas/e2studio_2021_01_workspace_RZA2M_ANPR/ANPR_RZA2M_GR_MANGO/src/tensorflow_lite/src/tensorflow/lite/kernels/internal\types.h **** // The correspondence is as follows:
 126:C:/Renesas/e2studio_2021_01_workspace_RZA2M_ANPR/ANPR_RZA2M_GR_MANGO/src/tensorflow_lite/src/tensorflow/lite/kernels/internal\types.h **** //
 127:C:/Renesas/e2studio_2021_01_workspace_RZA2M_ANPR/ANPR_RZA2M_GR_MANGO/src/tensorflow_lite/src/tensorflow/lite/kernels/internal\types.h **** //   real_value = scale * (quantized_value - zero_point);
 128:C:/Renesas/e2studio_2021_01_workspace_RZA2M_ANPR/ANPR_RZA2M_GR_MANGO/src/tensorflow_lite/src/tensorflow/lite/kernels/internal\types.h **** //
 129:C:/Renesas/e2studio_2021_01_workspace_RZA2M_ANPR/ANPR_RZA2M_GR_MANGO/src/tensorflow_lite/src/tensorflow/lite/kernels/internal\types.h **** // In other words, zero_point designates which quantized value corresponds to
 130:C:/Renesas/e2studio_2021_01_workspace_RZA2M_ANPR/ANPR_RZA2M_GR_MANGO/src/tensorflow_lite/src/tensorflow/lite/kernels/internal\types.h **** // the real 0 value, and scale designates the difference between the real values
 131:C:/Renesas/e2studio_2021_01_workspace_RZA2M_ANPR/ANPR_RZA2M_GR_MANGO/src/tensorflow_lite/src/tensorflow/lite/kernels/internal\types.h **** // corresponding to consecutive quantized values differing by 1.
 132:C:/Renesas/e2studio_2021_01_workspace_RZA2M_ANPR/ANPR_RZA2M_GR_MANGO/src/tensorflow_lite/src/tensorflow/lite/kernels/internal\types.h **** struct QuantizationParams {
 133:C:/Renesas/e2studio_2021_01_workspace_RZA2M_ANPR/ANPR_RZA2M_GR_MANGO/src/tensorflow_lite/src/tensorflow/lite/kernels/internal\types.h ****   int32_t zero_point = 0;
 134:C:/Renesas/e2studio_2021_01_workspace_RZA2M_ANPR/ANPR_RZA2M_GR_MANGO/src/tensorflow_lite/src/tensorflow/lite/kernels/internal\types.h ****   double scale = 0.0;
 135:C:/Renesas/e2studio_2021_01_workspace_RZA2M_ANPR/ANPR_RZA2M_GR_MANGO/src/tensorflow_lite/src/tensorflow/lite/kernels/internal\types.h **** };
 136:C:/Renesas/e2studio_2021_01_workspace_RZA2M_ANPR/ANPR_RZA2M_GR_MANGO/src/tensorflow_lite/src/tensorflow/lite/kernels/internal\types.h **** 
 137:C:/Renesas/e2studio_2021_01_workspace_RZA2M_ANPR/ANPR_RZA2M_GR_MANGO/src/tensorflow_lite/src/tensorflow/lite/kernels/internal\types.h **** inline bool operator==(const QuantizationParams& qp1,
 138:C:/Renesas/e2studio_2021_01_workspace_RZA2M_ANPR/ANPR_RZA2M_GR_MANGO/src/tensorflow_lite/src/tensorflow/lite/kernels/internal\types.h ****                        const QuantizationParams& qp2) {
 139:C:/Renesas/e2studio_2021_01_workspace_RZA2M_ANPR/ANPR_RZA2M_GR_MANGO/src/tensorflow_lite/src/tensorflow/lite/kernels/internal\types.h ****   return qp1.zero_point == qp2.zero_point && qp1.scale == qp2.scale;
 140:C:/Renesas/e2studio_2021_01_workspace_RZA2M_ANPR/ANPR_RZA2M_GR_MANGO/src/tensorflow_lite/src/tensorflow/lite/kernels/internal\types.h **** }
 141:C:/Renesas/e2studio_2021_01_workspace_RZA2M_ANPR/ANPR_RZA2M_GR_MANGO/src/tensorflow_lite/src/tensorflow/lite/kernels/internal\types.h **** 
 142:C:/Renesas/e2studio_2021_01_workspace_RZA2M_ANPR/ANPR_RZA2M_GR_MANGO/src/tensorflow_lite/src/tensorflow/lite/kernels/internal\types.h **** template <int N>
 143:C:/Renesas/e2studio_2021_01_workspace_RZA2M_ANPR/ANPR_RZA2M_GR_MANGO/src/tensorflow_lite/src/tensorflow/lite/kernels/internal\types.h **** struct Dims {
 144:C:/Renesas/e2studio_2021_01_workspace_RZA2M_ANPR/ANPR_RZA2M_GR_MANGO/src/tensorflow_lite/src/tensorflow/lite/kernels/internal\types.h ****   int sizes[N];
 145:C:/Renesas/e2studio_2021_01_workspace_RZA2M_ANPR/ANPR_RZA2M_GR_MANGO/src/tensorflow_lite/src/tensorflow/lite/kernels/internal\types.h ****   int strides[N];
 146:C:/Renesas/e2studio_2021_01_workspace_RZA2M_ANPR/ANPR_RZA2M_GR_MANGO/src/tensorflow_lite/src/tensorflow/lite/kernels/internal\types.h **** };
 147:C:/Renesas/e2studio_2021_01_workspace_RZA2M_ANPR/ANPR_RZA2M_GR_MANGO/src/tensorflow_lite/src/tensorflow/lite/kernels/internal\types.h **** 
 148:C:/Renesas/e2studio_2021_01_workspace_RZA2M_ANPR/ANPR_RZA2M_GR_MANGO/src/tensorflow_lite/src/tensorflow/lite/kernels/internal\types.h **** class RuntimeShape {
 149:C:/Renesas/e2studio_2021_01_workspace_RZA2M_ANPR/ANPR_RZA2M_GR_MANGO/src/tensorflow_lite/src/tensorflow/lite/kernels/internal\types.h ****  public:
 150:C:/Renesas/e2studio_2021_01_workspace_RZA2M_ANPR/ANPR_RZA2M_GR_MANGO/src/tensorflow_lite/src/tensorflow/lite/kernels/internal\types.h ****   // Shapes with dimensions up to 5 are stored directly in the structure, while
 151:C:/Renesas/e2studio_2021_01_workspace_RZA2M_ANPR/ANPR_RZA2M_GR_MANGO/src/tensorflow_lite/src/tensorflow/lite/kernels/internal\types.h ****   // larger shapes are separately allocated.
 152:C:/Renesas/e2studio_2021_01_workspace_RZA2M_ANPR/ANPR_RZA2M_GR_MANGO/src/tensorflow_lite/src/tensorflow/lite/kernels/internal\types.h ****   static constexpr int kMaxSmallSize = 5;
 153:C:/Renesas/e2studio_2021_01_workspace_RZA2M_ANPR/ANPR_RZA2M_GR_MANGO/src/tensorflow_lite/src/tensorflow/lite/kernels/internal\types.h **** 
 154:C:/Renesas/e2studio_2021_01_workspace_RZA2M_ANPR/ANPR_RZA2M_GR_MANGO/src/tensorflow_lite/src/tensorflow/lite/kernels/internal\types.h ****   RuntimeShape& operator=(RuntimeShape const&) = delete;
 155:C:/Renesas/e2studio_2021_01_workspace_RZA2M_ANPR/ANPR_RZA2M_GR_MANGO/src/tensorflow_lite/src/tensorflow/lite/kernels/internal\types.h **** 
 156:C:/Renesas/e2studio_2021_01_workspace_RZA2M_ANPR/ANPR_RZA2M_GR_MANGO/src/tensorflow_lite/src/tensorflow/lite/kernels/internal\types.h ****   RuntimeShape() : size_(0) {}
 157:C:/Renesas/e2studio_2021_01_workspace_RZA2M_ANPR/ANPR_RZA2M_GR_MANGO/src/tensorflow_lite/src/tensorflow/lite/kernels/internal\types.h **** 
 158:C:/Renesas/e2studio_2021_01_workspace_RZA2M_ANPR/ANPR_RZA2M_GR_MANGO/src/tensorflow_lite/src/tensorflow/lite/kernels/internal\types.h ****   explicit RuntimeShape(int dimensions_count) : size_(dimensions_count) {
 159:C:/Renesas/e2studio_2021_01_workspace_RZA2M_ANPR/ANPR_RZA2M_GR_MANGO/src/tensorflow_lite/src/tensorflow/lite/kernels/internal\types.h ****     if (dimensions_count > kMaxSmallSize) {
 160:C:/Renesas/e2studio_2021_01_workspace_RZA2M_ANPR/ANPR_RZA2M_GR_MANGO/src/tensorflow_lite/src/tensorflow/lite/kernels/internal\types.h **** #ifdef TF_LITE_STATIC_MEMORY
 161:C:/Renesas/e2studio_2021_01_workspace_RZA2M_ANPR/ANPR_RZA2M_GR_MANGO/src/tensorflow_lite/src/tensorflow/lite/kernels/internal\types.h ****       TFLITE_CHECK(false && "No shape resizing supported on this platform");
 162:C:/Renesas/e2studio_2021_01_workspace_RZA2M_ANPR/ANPR_RZA2M_GR_MANGO/src/tensorflow_lite/src/tensorflow/lite/kernels/internal\types.h **** #else  // TF_LITE_STATIC_MEMORY
 163:C:/Renesas/e2studio_2021_01_workspace_RZA2M_ANPR/ANPR_RZA2M_GR_MANGO/src/tensorflow_lite/src/tensorflow/lite/kernels/internal\types.h ****       dims_pointer_ = new int32_t[dimensions_count];
 164:C:/Renesas/e2studio_2021_01_workspace_RZA2M_ANPR/ANPR_RZA2M_GR_MANGO/src/tensorflow_lite/src/tensorflow/lite/kernels/internal\types.h **** #endif  // TF_LITE_STATIC_MEMORY
 165:C:/Renesas/e2studio_2021_01_workspace_RZA2M_ANPR/ANPR_RZA2M_GR_MANGO/src/tensorflow_lite/src/tensorflow/lite/kernels/internal\types.h ****     }
 166:C:/Renesas/e2studio_2021_01_workspace_RZA2M_ANPR/ANPR_RZA2M_GR_MANGO/src/tensorflow_lite/src/tensorflow/lite/kernels/internal\types.h ****   }
 167:C:/Renesas/e2studio_2021_01_workspace_RZA2M_ANPR/ANPR_RZA2M_GR_MANGO/src/tensorflow_lite/src/tensorflow/lite/kernels/internal\types.h **** 
 168:C:/Renesas/e2studio_2021_01_workspace_RZA2M_ANPR/ANPR_RZA2M_GR_MANGO/src/tensorflow_lite/src/tensorflow/lite/kernels/internal\types.h ****   RuntimeShape(int shape_size, int32_t value) : size_(0) {
 169:C:/Renesas/e2studio_2021_01_workspace_RZA2M_ANPR/ANPR_RZA2M_GR_MANGO/src/tensorflow_lite/src/tensorflow/lite/kernels/internal\types.h ****     Resize(shape_size);
 170:C:/Renesas/e2studio_2021_01_workspace_RZA2M_ANPR/ANPR_RZA2M_GR_MANGO/src/tensorflow_lite/src/tensorflow/lite/kernels/internal\types.h ****     for (int i = 0; i < shape_size; ++i) {
 171:C:/Renesas/e2studio_2021_01_workspace_RZA2M_ANPR/ANPR_RZA2M_GR_MANGO/src/tensorflow_lite/src/tensorflow/lite/kernels/internal\types.h ****       SetDim(i, value);
 172:C:/Renesas/e2studio_2021_01_workspace_RZA2M_ANPR/ANPR_RZA2M_GR_MANGO/src/tensorflow_lite/src/tensorflow/lite/kernels/internal\types.h ****     }
 173:C:/Renesas/e2studio_2021_01_workspace_RZA2M_ANPR/ANPR_RZA2M_GR_MANGO/src/tensorflow_lite/src/tensorflow/lite/kernels/internal\types.h ****   }
 174:C:/Renesas/e2studio_2021_01_workspace_RZA2M_ANPR/ANPR_RZA2M_GR_MANGO/src/tensorflow_lite/src/tensorflow/lite/kernels/internal\types.h **** 
 175:C:/Renesas/e2studio_2021_01_workspace_RZA2M_ANPR/ANPR_RZA2M_GR_MANGO/src/tensorflow_lite/src/tensorflow/lite/kernels/internal\types.h ****   RuntimeShape(int dimensions_count, const int32_t* dims_data) : size_(0) {
 176:C:/Renesas/e2studio_2021_01_workspace_RZA2M_ANPR/ANPR_RZA2M_GR_MANGO/src/tensorflow_lite/src/tensorflow/lite/kernels/internal\types.h ****     ReplaceWith(dimensions_count, dims_data);
 177:C:/Renesas/e2studio_2021_01_workspace_RZA2M_ANPR/ANPR_RZA2M_GR_MANGO/src/tensorflow_lite/src/tensorflow/lite/kernels/internal\types.h ****   }
 178:C:/Renesas/e2studio_2021_01_workspace_RZA2M_ANPR/ANPR_RZA2M_GR_MANGO/src/tensorflow_lite/src/tensorflow/lite/kernels/internal\types.h **** 
 179:C:/Renesas/e2studio_2021_01_workspace_RZA2M_ANPR/ANPR_RZA2M_GR_MANGO/src/tensorflow_lite/src/tensorflow/lite/kernels/internal\types.h ****   RuntimeShape(const std::initializer_list<int> init_list) : size_(0) {
 180:C:/Renesas/e2studio_2021_01_workspace_RZA2M_ANPR/ANPR_RZA2M_GR_MANGO/src/tensorflow_lite/src/tensorflow/lite/kernels/internal\types.h ****     BuildFrom(init_list);
 181:C:/Renesas/e2studio_2021_01_workspace_RZA2M_ANPR/ANPR_RZA2M_GR_MANGO/src/tensorflow_lite/src/tensorflow/lite/kernels/internal\types.h ****   }
 182:C:/Renesas/e2studio_2021_01_workspace_RZA2M_ANPR/ANPR_RZA2M_GR_MANGO/src/tensorflow_lite/src/tensorflow/lite/kernels/internal\types.h **** 
 183:C:/Renesas/e2studio_2021_01_workspace_RZA2M_ANPR/ANPR_RZA2M_GR_MANGO/src/tensorflow_lite/src/tensorflow/lite/kernels/internal\types.h ****   // Avoid using this constructor.  We should be able to delete it when C++17
 184:C:/Renesas/e2studio_2021_01_workspace_RZA2M_ANPR/ANPR_RZA2M_GR_MANGO/src/tensorflow_lite/src/tensorflow/lite/kernels/internal\types.h ****   // rolls out.
 185:C:/Renesas/e2studio_2021_01_workspace_RZA2M_ANPR/ANPR_RZA2M_GR_MANGO/src/tensorflow_lite/src/tensorflow/lite/kernels/internal\types.h ****   RuntimeShape(RuntimeShape const& other) : size_(other.DimensionsCount()) {
 186:C:/Renesas/e2studio_2021_01_workspace_RZA2M_ANPR/ANPR_RZA2M_GR_MANGO/src/tensorflow_lite/src/tensorflow/lite/kernels/internal\types.h ****     if (size_ > kMaxSmallSize) {
 187:C:/Renesas/e2studio_2021_01_workspace_RZA2M_ANPR/ANPR_RZA2M_GR_MANGO/src/tensorflow_lite/src/tensorflow/lite/kernels/internal\types.h **** #ifdef TF_LITE_STATIC_MEMORY
 188:C:/Renesas/e2studio_2021_01_workspace_RZA2M_ANPR/ANPR_RZA2M_GR_MANGO/src/tensorflow_lite/src/tensorflow/lite/kernels/internal\types.h ****       TFLITE_CHECK(false && "No shape resizing supported on this platform");
 189:C:/Renesas/e2studio_2021_01_workspace_RZA2M_ANPR/ANPR_RZA2M_GR_MANGO/src/tensorflow_lite/src/tensorflow/lite/kernels/internal\types.h **** #else
 190:C:/Renesas/e2studio_2021_01_workspace_RZA2M_ANPR/ANPR_RZA2M_GR_MANGO/src/tensorflow_lite/src/tensorflow/lite/kernels/internal\types.h ****       dims_pointer_ = new int32_t[size_];
 191:C:/Renesas/e2studio_2021_01_workspace_RZA2M_ANPR/ANPR_RZA2M_GR_MANGO/src/tensorflow_lite/src/tensorflow/lite/kernels/internal\types.h **** #endif
 192:C:/Renesas/e2studio_2021_01_workspace_RZA2M_ANPR/ANPR_RZA2M_GR_MANGO/src/tensorflow_lite/src/tensorflow/lite/kernels/internal\types.h ****     }
 193:C:/Renesas/e2studio_2021_01_workspace_RZA2M_ANPR/ANPR_RZA2M_GR_MANGO/src/tensorflow_lite/src/tensorflow/lite/kernels/internal\types.h ****     std::memcpy(DimsData(), other.DimsData(), sizeof(int32_t) * size_);
 194:C:/Renesas/e2studio_2021_01_workspace_RZA2M_ANPR/ANPR_RZA2M_GR_MANGO/src/tensorflow_lite/src/tensorflow/lite/kernels/internal\types.h ****   }
 195:C:/Renesas/e2studio_2021_01_workspace_RZA2M_ANPR/ANPR_RZA2M_GR_MANGO/src/tensorflow_lite/src/tensorflow/lite/kernels/internal\types.h **** 
 196:C:/Renesas/e2studio_2021_01_workspace_RZA2M_ANPR/ANPR_RZA2M_GR_MANGO/src/tensorflow_lite/src/tensorflow/lite/kernels/internal\types.h ****   bool operator==(const RuntimeShape& comp) const {
 197:C:/Renesas/e2studio_2021_01_workspace_RZA2M_ANPR/ANPR_RZA2M_GR_MANGO/src/tensorflow_lite/src/tensorflow/lite/kernels/internal\types.h ****     return this->size_ == comp.size_ &&
 198:C:/Renesas/e2studio_2021_01_workspace_RZA2M_ANPR/ANPR_RZA2M_GR_MANGO/src/tensorflow_lite/src/tensorflow/lite/kernels/internal\types.h ****            std::memcmp(DimsData(), comp.DimsData(), size_ * sizeof(int32_t)) ==
 199:C:/Renesas/e2studio_2021_01_workspace_RZA2M_ANPR/ANPR_RZA2M_GR_MANGO/src/tensorflow_lite/src/tensorflow/lite/kernels/internal\types.h ****                0;
 200:C:/Renesas/e2studio_2021_01_workspace_RZA2M_ANPR/ANPR_RZA2M_GR_MANGO/src/tensorflow_lite/src/tensorflow/lite/kernels/internal\types.h ****   }
 201:C:/Renesas/e2studio_2021_01_workspace_RZA2M_ANPR/ANPR_RZA2M_GR_MANGO/src/tensorflow_lite/src/tensorflow/lite/kernels/internal\types.h **** 
 202:C:/Renesas/e2studio_2021_01_workspace_RZA2M_ANPR/ANPR_RZA2M_GR_MANGO/src/tensorflow_lite/src/tensorflow/lite/kernels/internal\types.h ****   ~RuntimeShape() {
 203:C:/Renesas/e2studio_2021_01_workspace_RZA2M_ANPR/ANPR_RZA2M_GR_MANGO/src/tensorflow_lite/src/tensorflow/lite/kernels/internal\types.h ****     if (size_ > kMaxSmallSize) {
 204:C:/Renesas/e2studio_2021_01_workspace_RZA2M_ANPR/ANPR_RZA2M_GR_MANGO/src/tensorflow_lite/src/tensorflow/lite/kernels/internal\types.h **** #ifdef TF_LITE_STATIC_MEMORY
 205:C:/Renesas/e2studio_2021_01_workspace_RZA2M_ANPR/ANPR_RZA2M_GR_MANGO/src/tensorflow_lite/src/tensorflow/lite/kernels/internal\types.h ****       TFLITE_CHECK(false && "No shape resizing supported on this platform");
 206:C:/Renesas/e2studio_2021_01_workspace_RZA2M_ANPR/ANPR_RZA2M_GR_MANGO/src/tensorflow_lite/src/tensorflow/lite/kernels/internal\types.h **** #else  // TF_LITE_STATIC_MEMORY
 207:C:/Renesas/e2studio_2021_01_workspace_RZA2M_ANPR/ANPR_RZA2M_GR_MANGO/src/tensorflow_lite/src/tensorflow/lite/kernels/internal\types.h ****       delete[] dims_pointer_;
 208:C:/Renesas/e2studio_2021_01_workspace_RZA2M_ANPR/ANPR_RZA2M_GR_MANGO/src/tensorflow_lite/src/tensorflow/lite/kernels/internal\types.h **** #endif  // TF_LITE_STATIC_MEMORY
 209:C:/Renesas/e2studio_2021_01_workspace_RZA2M_ANPR/ANPR_RZA2M_GR_MANGO/src/tensorflow_lite/src/tensorflow/lite/kernels/internal\types.h ****     }
 210:C:/Renesas/e2studio_2021_01_workspace_RZA2M_ANPR/ANPR_RZA2M_GR_MANGO/src/tensorflow_lite/src/tensorflow/lite/kernels/internal\types.h ****   }
 211:C:/Renesas/e2studio_2021_01_workspace_RZA2M_ANPR/ANPR_RZA2M_GR_MANGO/src/tensorflow_lite/src/tensorflow/lite/kernels/internal\types.h **** 
 212:C:/Renesas/e2studio_2021_01_workspace_RZA2M_ANPR/ANPR_RZA2M_GR_MANGO/src/tensorflow_lite/src/tensorflow/lite/kernels/internal\types.h ****   inline int32_t DimensionsCount() const { return size_; }
 213:C:/Renesas/e2studio_2021_01_workspace_RZA2M_ANPR/ANPR_RZA2M_GR_MANGO/src/tensorflow_lite/src/tensorflow/lite/kernels/internal\types.h ****   inline int32_t Dims(int i) const {
 214:C:/Renesas/e2studio_2021_01_workspace_RZA2M_ANPR/ANPR_RZA2M_GR_MANGO/src/tensorflow_lite/src/tensorflow/lite/kernels/internal\types.h ****     TFLITE_DCHECK_GE(i, 0);
 215:C:/Renesas/e2studio_2021_01_workspace_RZA2M_ANPR/ANPR_RZA2M_GR_MANGO/src/tensorflow_lite/src/tensorflow/lite/kernels/internal\types.h ****     TFLITE_DCHECK_LT(i, size_);
 151              		.loc 3 215 0
 152 0030 020054E1 		cmp	r4, r2
 153 0034 300000DA 		ble	.L7
 216:C:/Renesas/e2studio_2021_01_workspace_RZA2M_ANPR/ANPR_RZA2M_GR_MANGO/src/tensorflow_lite/src/tensorflow/lite/kernels/internal\types.h ****     return size_ > kMaxSmallSize ? dims_pointer_[i] : dims_[i];
 154              		.loc 3 216 0
 155 0038 050054E3 		cmp	r4, #5
 156 003c A60000CA 		bgt	.L146
 157 0040 020186E0 		add	r0, r6, r2, lsl #2
 158              	.LBE196:
 159              	.LBE195:
 160              	.LBB201:
  44:C:/Renesas/e2studio_2021_01_workspace_RZA2M_ANPR/ANPR_RZA2M_GR_MANGO/src/tensorflow_lite/src/tensorflow/lite/kernels/internal/reference\arg_min_max.h ****     axis += input1_shape.DimensionsCount();
  45:C:/Renesas/e2studio_2021_01_workspace_RZA2M_ANPR/ANPR_RZA2M_GR_MANGO/src/tensorflow_lite/src/tensorflow/lite/kernels/internal/reference\arg_min_max.h ****   }
  46:C:/Renesas/e2studio_2021_01_workspace_RZA2M_ANPR/ANPR_RZA2M_GR_MANGO/src/tensorflow_lite/src/tensorflow/lite/kernels/internal/reference\arg_min_max.h ****   const int axis_size = input1_shape.Dims(axis);
  47:C:/Renesas/e2studio_2021_01_workspace_RZA2M_ANPR/ANPR_RZA2M_GR_MANGO/src/tensorflow_lite/src/tensorflow/lite/kernels/internal/reference\arg_min_max.h **** 
  48:C:/Renesas/e2studio_2021_01_workspace_RZA2M_ANPR/ANPR_RZA2M_GR_MANGO/src/tensorflow_lite/src/tensorflow/lite/kernels/internal/reference\arg_min_max.h ****   int outer_size = 1;
  49:C:/Renesas/e2studio_2021_01_workspace_RZA2M_ANPR/ANPR_RZA2M_GR_MANGO/src/tensorflow_lite/src/tensorflow/lite/kernels/internal/reference\arg_min_max.h ****   for (int i = 0; i < axis; ++i) {
 161              		.loc 2 49 0
 162 0044 000052E3 		cmp	r2, #0
 163              	.LBE201:
 164              	.LBB288:
 165              	.LBB197:
 166              		.loc 3 216 0
 167 0048 04C090E5 		ldr	ip, [r0, #4]
 168              	.LVL11:
 169              	.LBE197:
 170              	.LBE288:
 171              	.LBB289:
 172              		.loc 2 49 0
 173 004c 7801000A 		beq	.L10
 174 0050 050055E3 		cmp	r5, #5
 175 0054 290000CA 		bgt	.L14
 176              	.LVL12:
 177              	.LBB202:
 178              	.LBB203:
 215:C:/Renesas/e2studio_2021_01_workspace_RZA2M_ANPR/ANPR_RZA2M_GR_MANGO/src/tensorflow_lite/src/tensorflow/lite/kernels/internal\types.h ****     return size_ > kMaxSmallSize ? dims_pointer_[i] : dims_[i];
 179              		.loc 3 215 0
 180 0058 000055E3 		cmp	r5, #0
 181              	.LBE203:
 182              	.LBE202:
 183              	.LBB228:
 184              	.LBB229:
 185              		.loc 3 216 0
 186 005c 047096E5 		ldr	r7, [r6, #4]
 187              	.LVL13:
 188              	.LBE229:
 189              	.LBE228:
 190              	.LBB247:
 191              	.LBB204:
 215:C:/Renesas/e2studio_2021_01_workspace_RZA2M_ANPR/ANPR_RZA2M_GR_MANGO/src/tensorflow_lite/src/tensorflow/lite/kernels/internal\types.h ****     return size_ > kMaxSmallSize ? dims_pointer_[i] : dims_[i];
 192              		.loc 3 215 0
 193 0060 2500000A 		beq	.L7
 194              	.LVL14:
 195              	.LBE204:
 196              	.LBE247:
  50:C:/Renesas/e2studio_2021_01_workspace_RZA2M_ANPR/ANPR_RZA2M_GR_MANGO/src/tensorflow_lite/src/tensorflow/lite/kernels/internal/reference\arg_min_max.h ****     TFLITE_DCHECK_EQ(input1_shape.Dims(i), output_shape.Dims(i));
 197              		.loc 2 50 0
 198 0064 040093E5 		ldr	r0, [r3, #4]
 199 0068 000057E1 		cmp	r7, r0
 200 006c 2200001A 		bne	.L7
 201              	.LVL15:
  49:C:/Renesas/e2studio_2021_01_workspace_RZA2M_ANPR/ANPR_RZA2M_GR_MANGO/src/tensorflow_lite/src/tensorflow/lite/kernels/internal/reference\arg_min_max.h ****     TFLITE_DCHECK_EQ(input1_shape.Dims(i), output_shape.Dims(i));
 202              		.loc 2 49 0
 203 0070 010052E3 		cmp	r2, #1
 204 0074 3B01000A 		beq	.L15
 205              	.LVL16:
 206              	.LBB248:
 207              	.LBB230:
 215:C:/Renesas/e2studio_2021_01_workspace_RZA2M_ANPR/ANPR_RZA2M_GR_MANGO/src/tensorflow_lite/src/tensorflow/lite/kernels/internal\types.h ****     return size_ > kMaxSmallSize ? dims_pointer_[i] : dims_[i];
 208              		.loc 3 215 0
 209 0078 010054E3 		cmp	r4, #1
 210 007c 1E00000A 		beq	.L7
 211              	.LBE230:
 212              	.LBE248:
 213              	.LBB249:
 214              	.LBB205:
 215 0080 010055E3 		cmp	r5, #1
 216              	.LBE205:
 217              	.LBE249:
 218              	.LBB250:
 219              	.LBB231:
 220              		.loc 3 216 0
 221 0084 080096E5 		ldr	r0, [r6, #8]
 222              	.LVL17:
 223              	.LBE231:
 224              	.LBE250:
 225              	.LBB251:
 226              	.LBB206:
 215:C:/Renesas/e2studio_2021_01_workspace_RZA2M_ANPR/ANPR_RZA2M_GR_MANGO/src/tensorflow_lite/src/tensorflow/lite/kernels/internal\types.h ****     return size_ > kMaxSmallSize ? dims_pointer_[i] : dims_[i];
 227              		.loc 3 215 0
 228 0088 1B00000A 		beq	.L7
 229              	.LVL18:
 230              	.LBE206:
 231              	.LBE251:
 232              		.loc 2 50 0
 233 008c 08E093E5 		ldr	lr, [r3, #8]
 234 0090 0E0050E1 		cmp	r0, lr
 235 0094 1800001A 		bne	.L7
  49:C:/Renesas/e2studio_2021_01_workspace_RZA2M_ANPR/ANPR_RZA2M_GR_MANGO/src/tensorflow_lite/src/tensorflow/lite/kernels/internal/reference\arg_min_max.h ****     TFLITE_DCHECK_EQ(input1_shape.Dims(i), output_shape.Dims(i));
 236              		.loc 2 49 0
 237 0098 020052E3 		cmp	r2, #2
  51:C:/Renesas/e2studio_2021_01_workspace_RZA2M_ANPR/ANPR_RZA2M_GR_MANGO/src/tensorflow_lite/src/tensorflow/lite/kernels/internal/reference\arg_min_max.h ****     outer_size *= input1_shape.Dims(i);
 238              		.loc 2 51 0
 239 009c 900707E0 		mul	r7, r0, r7
 240              	.LVL19:
  49:C:/Renesas/e2studio_2021_01_workspace_RZA2M_ANPR/ANPR_RZA2M_GR_MANGO/src/tensorflow_lite/src/tensorflow/lite/kernels/internal/reference\arg_min_max.h ****     TFLITE_DCHECK_EQ(input1_shape.Dims(i), output_shape.Dims(i));
 241              		.loc 2 49 0
 242 00a0 3001000A 		beq	.L15
 243              	.LVL20:
 244              	.LBB252:
 245              	.LBB232:
 215:C:/Renesas/e2studio_2021_01_workspace_RZA2M_ANPR/ANPR_RZA2M_GR_MANGO/src/tensorflow_lite/src/tensorflow/lite/kernels/internal\types.h ****     return size_ > kMaxSmallSize ? dims_pointer_[i] : dims_[i];
 246              		.loc 3 215 0
 247 00a4 020054E3 		cmp	r4, #2
 248 00a8 1300000A 		beq	.L7
 249              	.LBE232:
 250              	.LBE252:
 251              	.LBB253:
 252              	.LBB207:
 253 00ac 020055E3 		cmp	r5, #2
 254              	.LBE207:
 255              	.LBE253:
 256              	.LBB254:
 257              	.LBB233:
 258              		.loc 3 216 0
 259 00b0 0C0096E5 		ldr	r0, [r6, #12]
 260              	.LVL21:
 261              	.LBE233:
 262              	.LBE254:
 263              	.LBB255:
 264              	.LBB208:
 215:C:/Renesas/e2studio_2021_01_workspace_RZA2M_ANPR/ANPR_RZA2M_GR_MANGO/src/tensorflow_lite/src/tensorflow/lite/kernels/internal\types.h ****     return size_ > kMaxSmallSize ? dims_pointer_[i] : dims_[i];
 265              		.loc 3 215 0
 266 00b4 1000000A 		beq	.L7
 267              	.LVL22:
 268              	.LBE208:
 269              	.LBE255:
  50:C:/Renesas/e2studio_2021_01_workspace_RZA2M_ANPR/ANPR_RZA2M_GR_MANGO/src/tensorflow_lite/src/tensorflow/lite/kernels/internal/reference\arg_min_max.h ****     outer_size *= input1_shape.Dims(i);
 270              		.loc 2 50 0
 271 00b8 0CE093E5 		ldr	lr, [r3, #12]
 272 00bc 0E0050E1 		cmp	r0, lr
 273 00c0 0D00001A 		bne	.L7
  49:C:/Renesas/e2studio_2021_01_workspace_RZA2M_ANPR/ANPR_RZA2M_GR_MANGO/src/tensorflow_lite/src/tensorflow/lite/kernels/internal/reference\arg_min_max.h ****     TFLITE_DCHECK_EQ(input1_shape.Dims(i), output_shape.Dims(i));
 274              		.loc 2 49 0
 275 00c4 030052E3 		cmp	r2, #3
 276              		.loc 2 51 0
 277 00c8 900707E0 		mul	r7, r0, r7
 278              	.LVL23:
  49:C:/Renesas/e2studio_2021_01_workspace_RZA2M_ANPR/ANPR_RZA2M_GR_MANGO/src/tensorflow_lite/src/tensorflow/lite/kernels/internal/reference\arg_min_max.h ****     TFLITE_DCHECK_EQ(input1_shape.Dims(i), output_shape.Dims(i));
 279              		.loc 2 49 0
 280 00cc 2501000A 		beq	.L15
 281              	.LVL24:
 282              	.LBB256:
 283              	.LBB234:
 215:C:/Renesas/e2studio_2021_01_workspace_RZA2M_ANPR/ANPR_RZA2M_GR_MANGO/src/tensorflow_lite/src/tensorflow/lite/kernels/internal\types.h ****     return size_ > kMaxSmallSize ? dims_pointer_[i] : dims_[i];
 284              		.loc 3 215 0
 285 00d0 030054E3 		cmp	r4, #3
 286 00d4 0800000A 		beq	.L7
 287              	.LBE234:
 288              	.LBE256:
 289              	.LBB257:
 290              	.LBB209:
 291 00d8 030055E3 		cmp	r5, #3
 292              	.LBE209:
 293              	.LBE257:
 294              	.LBB258:
 295              	.LBB235:
 296              		.loc 3 216 0
 297 00dc 100096E5 		ldr	r0, [r6, #16]
 298              	.LVL25:
 299              	.LBE235:
 300              	.LBE258:
 301              	.LBB259:
 302              	.LBB210:
 215:C:/Renesas/e2studio_2021_01_workspace_RZA2M_ANPR/ANPR_RZA2M_GR_MANGO/src/tensorflow_lite/src/tensorflow/lite/kernels/internal\types.h ****     return size_ > kMaxSmallSize ? dims_pointer_[i] : dims_[i];
 303              		.loc 3 215 0
 304 00e0 0500000A 		beq	.L7
 305              	.LVL26:
 306              	.LBE210:
 307              	.LBE259:
  50:C:/Renesas/e2studio_2021_01_workspace_RZA2M_ANPR/ANPR_RZA2M_GR_MANGO/src/tensorflow_lite/src/tensorflow/lite/kernels/internal/reference\arg_min_max.h ****     outer_size *= input1_shape.Dims(i);
 308              		.loc 2 50 0
 309 00e4 10E093E5 		ldr	lr, [r3, #16]
 310 00e8 0E0050E1 		cmp	r0, lr
 311 00ec 0200001A 		bne	.L7
  49:C:/Renesas/e2studio_2021_01_workspace_RZA2M_ANPR/ANPR_RZA2M_GR_MANGO/src/tensorflow_lite/src/tensorflow/lite/kernels/internal/reference\arg_min_max.h ****     TFLITE_DCHECK_EQ(input1_shape.Dims(i), output_shape.Dims(i));
 312              		.loc 2 49 0
 313 00f0 040052E3 		cmp	r2, #4
 314              		.loc 2 51 0
 315 00f4 900707E0 		mul	r7, r0, r7
 316              	.LVL27:
  49:C:/Renesas/e2studio_2021_01_workspace_RZA2M_ANPR/ANPR_RZA2M_GR_MANGO/src/tensorflow_lite/src/tensorflow/lite/kernels/internal/reference\arg_min_max.h ****     TFLITE_DCHECK_EQ(input1_shape.Dims(i), output_shape.Dims(i));
 317              		.loc 2 49 0
 318 00f8 1A01000A 		beq	.L15
 319              	.LVL28:
 320              	.L7:
 321              	.LBE289:
  39:C:/Renesas/e2studio_2021_01_workspace_RZA2M_ANPR/ANPR_RZA2M_GR_MANGO/src/tensorflow_lite/src/tensorflow/lite/kernels/internal/reference\arg_min_max.h ****   TFLITE_DCHECK_EQ(input1_shape.DimensionsCount() - 1,
 322              		.loc 2 39 0 discriminator 1
 323 00fc FEFFFFEB 		bl	abort
 324              	.LVL29:
 325              	.L14:
 326              	.LBB290:
 327              	.LBB260:
 328              	.LBB211:
 329              		.loc 3 216 0
 330 0100 040093E5 		ldr	r0, [r3, #4]
 331              	.LBE211:
 332              	.LBE260:
 333              	.LBB261:
 334              	.LBB236:
 335 0104 047096E5 		ldr	r7, [r6, #4]
 336              	.LVL30:
 337              	.LBE236:
 338              	.LBE261:
 339              	.LBB262:
 340              	.LBB212:
 341 0108 00E090E5 		ldr	lr, [r0]
 342              	.LVL31:
 343              	.LBE212:
 344              	.LBE262:
  50:C:/Renesas/e2studio_2021_01_workspace_RZA2M_ANPR/ANPR_RZA2M_GR_MANGO/src/tensorflow_lite/src/tensorflow/lite/kernels/internal/reference\arg_min_max.h ****     outer_size *= input1_shape.Dims(i);
 345              		.loc 2 50 0
 346 010c 0E0057E1 		cmp	r7, lr
 347 0110 F9FFFF1A 		bne	.L7
 348              	.LVL32:
  49:C:/Renesas/e2studio_2021_01_workspace_RZA2M_ANPR/ANPR_RZA2M_GR_MANGO/src/tensorflow_lite/src/tensorflow/lite/kernels/internal/reference\arg_min_max.h ****     TFLITE_DCHECK_EQ(input1_shape.Dims(i), output_shape.Dims(i));
 349              		.loc 2 49 0
 350 0114 010052E3 		cmp	r2, #1
 351 0118 1A00000A 		beq	.L16
 352              	.LVL33:
 353              	.LBB263:
 354              	.LBB237:
 215:C:/Renesas/e2studio_2021_01_workspace_RZA2M_ANPR/ANPR_RZA2M_GR_MANGO/src/tensorflow_lite/src/tensorflow/lite/kernels/internal\types.h ****     return size_ > kMaxSmallSize ? dims_pointer_[i] : dims_[i];
 355              		.loc 3 215 0
 356 011c 010054E3 		cmp	r4, #1
 357 0120 F5FFFF0A 		beq	.L7
 358              	.LVL34:
 359              	.LBE237:
 360              	.LBE263:
 361              	.LBB264:
 362              	.LBB213:
 363              		.loc 3 216 0
 364 0124 048090E5 		ldr	r8, [r0, #4]
 365              	.LVL35:
 366              	.LBE213:
 367              	.LBE264:
  50:C:/Renesas/e2studio_2021_01_workspace_RZA2M_ANPR/ANPR_RZA2M_GR_MANGO/src/tensorflow_lite/src/tensorflow/lite/kernels/internal/reference\arg_min_max.h ****     outer_size *= input1_shape.Dims(i);
 368              		.loc 2 50 0
 369 0128 08E096E5 		ldr	lr, [r6, #8]
 370 012c 08005EE1 		cmp	lr, r8
 371 0130 F1FFFF1A 		bne	.L7
  49:C:/Renesas/e2studio_2021_01_workspace_RZA2M_ANPR/ANPR_RZA2M_GR_MANGO/src/tensorflow_lite/src/tensorflow/lite/kernels/internal/reference\arg_min_max.h ****     TFLITE_DCHECK_EQ(input1_shape.Dims(i), output_shape.Dims(i));
 372              		.loc 2 49 0
 373 0134 020052E3 		cmp	r2, #2
 374              		.loc 2 51 0
 375 0138 9E0707E0 		mul	r7, lr, r7
 376              	.LVL36:
  49:C:/Renesas/e2studio_2021_01_workspace_RZA2M_ANPR/ANPR_RZA2M_GR_MANGO/src/tensorflow_lite/src/tensorflow/lite/kernels/internal/reference\arg_min_max.h ****     TFLITE_DCHECK_EQ(input1_shape.Dims(i), output_shape.Dims(i));
 377              		.loc 2 49 0
 378 013c 1100000A 		beq	.L16
 379              	.LVL37:
 380              	.LBB265:
 381              	.LBB238:
 215:C:/Renesas/e2studio_2021_01_workspace_RZA2M_ANPR/ANPR_RZA2M_GR_MANGO/src/tensorflow_lite/src/tensorflow/lite/kernels/internal\types.h ****     return size_ > kMaxSmallSize ? dims_pointer_[i] : dims_[i];
 382              		.loc 3 215 0
 383 0140 020054E3 		cmp	r4, #2
 384 0144 ECFFFF0A 		beq	.L7
 385              	.LVL38:
 386              	.LBE238:
 387              	.LBE265:
 388              	.LBB266:
 389              	.LBB214:
 390              		.loc 3 216 0
 391 0148 088090E5 		ldr	r8, [r0, #8]
 392              	.LVL39:
 393              	.LBE214:
 394              	.LBE266:
  50:C:/Renesas/e2studio_2021_01_workspace_RZA2M_ANPR/ANPR_RZA2M_GR_MANGO/src/tensorflow_lite/src/tensorflow/lite/kernels/internal/reference\arg_min_max.h ****     outer_size *= input1_shape.Dims(i);
 395              		.loc 2 50 0
 396 014c 0CE096E5 		ldr	lr, [r6, #12]
 397 0150 08005EE1 		cmp	lr, r8
 398 0154 E8FFFF1A 		bne	.L7
  49:C:/Renesas/e2studio_2021_01_workspace_RZA2M_ANPR/ANPR_RZA2M_GR_MANGO/src/tensorflow_lite/src/tensorflow/lite/kernels/internal/reference\arg_min_max.h ****     TFLITE_DCHECK_EQ(input1_shape.Dims(i), output_shape.Dims(i));
 399              		.loc 2 49 0
 400 0158 030052E3 		cmp	r2, #3
 401              		.loc 2 51 0
 402 015c 9E0707E0 		mul	r7, lr, r7
 403              	.LVL40:
  49:C:/Renesas/e2studio_2021_01_workspace_RZA2M_ANPR/ANPR_RZA2M_GR_MANGO/src/tensorflow_lite/src/tensorflow/lite/kernels/internal/reference\arg_min_max.h ****     TFLITE_DCHECK_EQ(input1_shape.Dims(i), output_shape.Dims(i));
 404              		.loc 2 49 0
 405 0160 0800000A 		beq	.L16
 406              	.LVL41:
 407              	.LBB267:
 408              	.LBB239:
 215:C:/Renesas/e2studio_2021_01_workspace_RZA2M_ANPR/ANPR_RZA2M_GR_MANGO/src/tensorflow_lite/src/tensorflow/lite/kernels/internal\types.h ****     return size_ > kMaxSmallSize ? dims_pointer_[i] : dims_[i];
 409              		.loc 3 215 0
 410 0164 030054E3 		cmp	r4, #3
 411 0168 E3FFFF0A 		beq	.L7
 412              	.LVL42:
 413              	.LBE239:
 414              	.LBE267:
 415              	.LBB268:
 416              	.LBB215:
 417              		.loc 3 216 0
 418 016c 0CE090E5 		ldr	lr, [r0, #12]
 419              	.LVL43:
 420              	.LBE215:
 421              	.LBE268:
  50:C:/Renesas/e2studio_2021_01_workspace_RZA2M_ANPR/ANPR_RZA2M_GR_MANGO/src/tensorflow_lite/src/tensorflow/lite/kernels/internal/reference\arg_min_max.h ****     outer_size *= input1_shape.Dims(i);
 422              		.loc 2 50 0
 423 0170 100096E5 		ldr	r0, [r6, #16]
 424 0174 0E0050E1 		cmp	r0, lr
 425 0178 DFFFFF1A 		bne	.L7
  49:C:/Renesas/e2studio_2021_01_workspace_RZA2M_ANPR/ANPR_RZA2M_GR_MANGO/src/tensorflow_lite/src/tensorflow/lite/kernels/internal/reference\arg_min_max.h ****     TFLITE_DCHECK_EQ(input1_shape.Dims(i), output_shape.Dims(i));
 426              		.loc 2 49 0
 427 017c 040052E3 		cmp	r2, #4
 428              		.loc 2 51 0
 429 0180 900707E0 		mul	r7, r0, r7
 430              	.LVL44:
  49:C:/Renesas/e2studio_2021_01_workspace_RZA2M_ANPR/ANPR_RZA2M_GR_MANGO/src/tensorflow_lite/src/tensorflow/lite/kernels/internal/reference\arg_min_max.h ****     TFLITE_DCHECK_EQ(input1_shape.Dims(i), output_shape.Dims(i));
 431              		.loc 2 49 0
 432 0184 DCFFFF1A 		bne	.L7
 433              	.LVL45:
 434              	.L16:
 435              	.LBE290:
 436              	.LBB291:
  52:C:/Renesas/e2studio_2021_01_workspace_RZA2M_ANPR/ANPR_RZA2M_GR_MANGO/src/tensorflow_lite/src/tensorflow/lite/kernels/internal/reference\arg_min_max.h ****   }
  53:C:/Renesas/e2studio_2021_01_workspace_RZA2M_ANPR/ANPR_RZA2M_GR_MANGO/src/tensorflow_lite/src/tensorflow/lite/kernels/internal/reference\arg_min_max.h **** 
  54:C:/Renesas/e2studio_2021_01_workspace_RZA2M_ANPR/ANPR_RZA2M_GR_MANGO/src/tensorflow_lite/src/tensorflow/lite/kernels/internal/reference\arg_min_max.h ****   int inner_size = 1;
  55:C:/Renesas/e2studio_2021_01_workspace_RZA2M_ANPR/ANPR_RZA2M_GR_MANGO/src/tensorflow_lite/src/tensorflow/lite/kernels/internal/reference\arg_min_max.h ****   const int dims_count = input1_shape.DimensionsCount();
  56:C:/Renesas/e2studio_2021_01_workspace_RZA2M_ANPR/ANPR_RZA2M_GR_MANGO/src/tensorflow_lite/src/tensorflow/lite/kernels/internal/reference\arg_min_max.h ****   for (int i = axis + 1; i < dims_count; ++i) {
 437              		.loc 2 56 0
 438 0188 012082E2 		add	r2, r2, #1
 439              	.LVL46:
 440 018c 040052E1 		cmp	r2, r4
 441 0190 F00000AA 		bge	.L51
 442              	.LVL47:
 443              	.L23:
  57:C:/Renesas/e2studio_2021_01_workspace_RZA2M_ANPR/ANPR_RZA2M_GR_MANGO/src/tensorflow_lite/src/tensorflow/lite/kernels/internal/reference\arg_min_max.h ****     TFLITE_DCHECK_EQ(input1_shape.Dims(i), output_shape.Dims(i - 1));
 444              		.loc 2 57 0
 445 0194 010042E2 		sub	r0, r2, #1
 446              	.LBB292:
 447              	.LBB293:
 448              		.loc 3 216 0
 449 0198 02E186E0 		add	lr, r6, r2, lsl #2
 450              	.LBE293:
 451              	.LBE292:
 452              	.LBB314:
 453              	.LBB315:
 215:C:/Renesas/e2studio_2021_01_workspace_RZA2M_ANPR/ANPR_RZA2M_GR_MANGO/src/tensorflow_lite/src/tensorflow/lite/kernels/internal\types.h ****     return size_ > kMaxSmallSize ? dims_pointer_[i] : dims_[i];
 454              		.loc 3 215 0
 455 019c 000055E1 		cmp	r5, r0
 456              	.LBE315:
 457              	.LBE314:
 458              	.LBB344:
 459              	.LBB294:
 460              		.loc 3 216 0
 461 01a0 04809EE5 		ldr	r8, [lr, #4]
 462              	.LVL48:
 463              	.LBE294:
 464              	.LBE344:
 465              	.LBB345:
 466              	.LBB316:
 215:C:/Renesas/e2studio_2021_01_workspace_RZA2M_ANPR/ANPR_RZA2M_GR_MANGO/src/tensorflow_lite/src/tensorflow/lite/kernels/internal\types.h ****     return size_ > kMaxSmallSize ? dims_pointer_[i] : dims_[i];
 467              		.loc 3 215 0
 468 01a4 D4FFFFDA 		ble	.L7
 469              		.loc 3 216 0
 470 01a8 043093E5 		ldr	r3, [r3, #4]
 471              	.LVL49:
 472 01ac 00E1A0E1 		lsl	lr, r0, #2
 473 01b0 000193E7 		ldr	r0, [r3, r0, lsl #2]
 474              	.LVL50:
 475              	.LBE316:
 476              	.LBE345:
 477              		.loc 2 57 0
 478 01b4 080050E1 		cmp	r0, r8
 479 01b8 CFFFFF1A 		bne	.L7
 480              	.LVL51:
  56:C:/Renesas/e2studio_2021_01_workspace_RZA2M_ANPR/ANPR_RZA2M_GR_MANGO/src/tensorflow_lite/src/tensorflow/lite/kernels/internal/reference\arg_min_max.h ****     TFLITE_DCHECK_EQ(input1_shape.Dims(i), output_shape.Dims(i - 1));
 481              		.loc 2 56 0
 482 01bc 019082E2 		add	r9, r2, #1
 483              	.LVL52:
 484 01c0 090054E1 		cmp	r4, r9
 485 01c4 E50000DA 		ble	.L45
 486              	.LVL53:
 487              	.LBB346:
 488              	.LBB295:
 489              		.loc 3 216 0
 490 01c8 098186E0 		add	r8, r6, r9, lsl #2
 491              	.LBE295:
 492              	.LBE346:
 493              	.LBB347:
 494              	.LBB317:
 215:C:/Renesas/e2studio_2021_01_workspace_RZA2M_ANPR/ANPR_RZA2M_GR_MANGO/src/tensorflow_lite/src/tensorflow/lite/kernels/internal\types.h ****     return size_ > kMaxSmallSize ? dims_pointer_[i] : dims_[i];
 495              		.loc 3 215 0
 496 01cc 020055E1 		cmp	r5, r2
 497              	.LBE317:
 498              	.LBE347:
 499              	.LBB348:
 500              	.LBB296:
 501              		.loc 3 216 0
 502 01d0 048098E5 		ldr	r8, [r8, #4]
 503              	.LVL54:
 504              	.LBE296:
 505              	.LBE348:
 506              	.LBB349:
 507              	.LBB318:
 215:C:/Renesas/e2studio_2021_01_workspace_RZA2M_ANPR/ANPR_RZA2M_GR_MANGO/src/tensorflow_lite/src/tensorflow/lite/kernels/internal\types.h ****     return size_ > kMaxSmallSize ? dims_pointer_[i] : dims_[i];
 508              		.loc 3 215 0
 509 01d4 C8FFFFDA 		ble	.L7
 510              		.loc 3 216 0
 511 01d8 0E3083E0 		add	r3, r3, lr
 512 01dc 04E093E5 		ldr	lr, [r3, #4]
 513              	.LVL55:
 514              	.LBE318:
 515              	.LBE349:
 516              		.loc 2 57 0
 517 01e0 08005EE1 		cmp	lr, r8
 518 01e4 C4FFFF1A 		bne	.L7
  56:C:/Renesas/e2studio_2021_01_workspace_RZA2M_ANPR/ANPR_RZA2M_GR_MANGO/src/tensorflow_lite/src/tensorflow/lite/kernels/internal/reference\arg_min_max.h ****     TFLITE_DCHECK_EQ(input1_shape.Dims(i), output_shape.Dims(i - 1));
 519              		.loc 2 56 0
 520 01e8 028082E2 		add	r8, r2, #2
  58:C:/Renesas/e2studio_2021_01_workspace_RZA2M_ANPR/ANPR_RZA2M_GR_MANGO/src/tensorflow_lite/src/tensorflow/lite/kernels/internal/reference\arg_min_max.h ****     inner_size *= input1_shape.Dims(i);
 521              		.loc 2 58 0
 522 01ec 900E0EE0 		mul	lr, r0, lr
 523              	.LVL56:
  56:C:/Renesas/e2studio_2021_01_workspace_RZA2M_ANPR/ANPR_RZA2M_GR_MANGO/src/tensorflow_lite/src/tensorflow/lite/kernels/internal/reference\arg_min_max.h ****     TFLITE_DCHECK_EQ(input1_shape.Dims(i), output_shape.Dims(i - 1));
 524              		.loc 2 56 0
 525 01f0 080054E1 		cmp	r4, r8
 526 01f4 120000DA 		ble	.L27
 527              	.LVL57:
 528              	.LBB350:
 529              	.LBB319:
 215:C:/Renesas/e2studio_2021_01_workspace_RZA2M_ANPR/ANPR_RZA2M_GR_MANGO/src/tensorflow_lite/src/tensorflow/lite/kernels/internal\types.h ****     return size_ > kMaxSmallSize ? dims_pointer_[i] : dims_[i];
 530              		.loc 3 215 0
 531 01f8 090055E1 		cmp	r5, r9
 532              	.LBE319:
 533              	.LBE350:
 534              	.LBB351:
 535              	.LBB297:
 536              		.loc 3 216 0
 537 01fc 080186E0 		add	r0, r6, r8, lsl #2
 538 0200 049090E5 		ldr	r9, [r0, #4]
 539              	.LVL58:
 540              	.LBE297:
 541              	.LBE351:
 542              	.LBB352:
 543              	.LBB320:
 215:C:/Renesas/e2studio_2021_01_workspace_RZA2M_ANPR/ANPR_RZA2M_GR_MANGO/src/tensorflow_lite/src/tensorflow/lite/kernels/internal\types.h ****     return size_ > kMaxSmallSize ? dims_pointer_[i] : dims_[i];
 544              		.loc 3 215 0
 545 0204 BCFFFFDA 		ble	.L7
 546              		.loc 3 216 0
 547 0208 080093E5 		ldr	r0, [r3, #8]
 548              	.LVL59:
 549              	.LBE320:
 550              	.LBE352:
  57:C:/Renesas/e2studio_2021_01_workspace_RZA2M_ANPR/ANPR_RZA2M_GR_MANGO/src/tensorflow_lite/src/tensorflow/lite/kernels/internal/reference\arg_min_max.h ****     inner_size *= input1_shape.Dims(i);
 551              		.loc 2 57 0
 552 020c 090050E1 		cmp	r0, r9
 553 0210 B9FFFF1A 		bne	.L7
  56:C:/Renesas/e2studio_2021_01_workspace_RZA2M_ANPR/ANPR_RZA2M_GR_MANGO/src/tensorflow_lite/src/tensorflow/lite/kernels/internal/reference\arg_min_max.h ****     TFLITE_DCHECK_EQ(input1_shape.Dims(i), output_shape.Dims(i - 1));
 554              		.loc 2 56 0
 555 0214 032082E2 		add	r2, r2, #3
 556              		.loc 2 58 0
 557 0218 900E0EE0 		mul	lr, r0, lr
 558              	.LVL60:
  56:C:/Renesas/e2studio_2021_01_workspace_RZA2M_ANPR/ANPR_RZA2M_GR_MANGO/src/tensorflow_lite/src/tensorflow/lite/kernels/internal/reference\arg_min_max.h ****     TFLITE_DCHECK_EQ(input1_shape.Dims(i), output_shape.Dims(i - 1));
 559              		.loc 2 56 0
 560 021c 020054E1 		cmp	r4, r2
 561 0220 070000DA 		ble	.L27
 562              	.LVL61:
 563              	.LBB353:
 564              	.LBB298:
 565              		.loc 3 216 0
 566 0224 022186E0 		add	r2, r6, r2, lsl #2
 567              	.LVL62:
 568              	.LBE298:
 569              	.LBE353:
 570              	.LBB354:
 571              	.LBB321:
 215:C:/Renesas/e2studio_2021_01_workspace_RZA2M_ANPR/ANPR_RZA2M_GR_MANGO/src/tensorflow_lite/src/tensorflow/lite/kernels/internal\types.h ****     return size_ > kMaxSmallSize ? dims_pointer_[i] : dims_[i];
 572              		.loc 3 215 0
 573 0228 080055E1 		cmp	r5, r8
 574              	.LBE321:
 575              	.LBE354:
 576              	.LBB355:
 577              	.LBB299:
 578              		.loc 3 216 0
 579 022c 042092E5 		ldr	r2, [r2, #4]
 580              	.LVL63:
 581              	.LBE299:
 582              	.LBE355:
 583              	.LBB356:
 584              	.LBB322:
 215:C:/Renesas/e2studio_2021_01_workspace_RZA2M_ANPR/ANPR_RZA2M_GR_MANGO/src/tensorflow_lite/src/tensorflow/lite/kernels/internal\types.h ****     return size_ > kMaxSmallSize ? dims_pointer_[i] : dims_[i];
 585              		.loc 3 215 0
 586 0230 B1FFFFDA 		ble	.L7
 587              		.loc 3 216 0
 588 0234 0C3093E5 		ldr	r3, [r3, #12]
 589              	.LVL64:
 590              	.LBE322:
 591              	.LBE356:
  57:C:/Renesas/e2studio_2021_01_workspace_RZA2M_ANPR/ANPR_RZA2M_GR_MANGO/src/tensorflow_lite/src/tensorflow/lite/kernels/internal/reference\arg_min_max.h ****     inner_size *= input1_shape.Dims(i);
 592              		.loc 2 57 0
 593 0238 020053E1 		cmp	r3, r2
 594 023c AEFFFF1A 		bne	.L7
 595              	.LVL65:
 596              	.L140:
 597              		.loc 2 58 0
 598 0240 920E0EE0 		mul	lr, r2, lr
 599              	.LVL66:
 600              	.L27:
 601              	.LBE291:
 602              	.LBB392:
  59:C:/Renesas/e2studio_2021_01_workspace_RZA2M_ANPR/ANPR_RZA2M_GR_MANGO/src/tensorflow_lite/src/tensorflow/lite/kernels/internal/reference\arg_min_max.h ****   }
  60:C:/Renesas/e2studio_2021_01_workspace_RZA2M_ANPR/ANPR_RZA2M_GR_MANGO/src/tensorflow_lite/src/tensorflow/lite/kernels/internal/reference\arg_min_max.h ****   for (int outer = 0; outer < outer_size; ++outer) {
 603              		.loc 2 60 0 discriminator 1
 604 0244 000057E3 		cmp	r7, #0
 605 0248 910000DA 		ble	.L147
 606              	.L21:
 607 024c 00005EE3 		cmp	lr, #0
 608 0250 BF0000DA 		ble	.L148
 609              	.LVL67:
 610              	.L34:
 611 0254 9C0E0BE0 		mul	fp, ip, lr
 612 0258 0E01A0E1 		lsl	r0, lr, #2
 613 025c 28909DE5 		ldr	r9, [sp, #40]
 614 0260 0180A0E1 		mov	r8, r1
 615 0264 046040E2 		sub	r6, r0, #4
 616              	.LBE392:
  54:C:/Renesas/e2studio_2021_01_workspace_RZA2M_ANPR/ANPR_RZA2M_GR_MANGO/src/tensorflow_lite/src/tensorflow/lite/kernels/internal/reference\arg_min_max.h ****   const int dims_count = input1_shape.DimensionsCount();
 617              		.loc 2 54 0 discriminator 1
 618 0268 00A0A0E3 		mov	r10, #0
 619 026c 0BB1A0E1 		lsl	fp, fp, #2
 620              	.LVL68:
 621              	.L30:
 622 0270 005088E0 		add	r5, r8, r0
 623 0274 0940A0E1 		mov	r4, r9
 624 0278 08E0A0E1 		mov	lr, r8
 625              	.LVL69:
 626              	.L29:
 627              	.LBB400:
 628              	.LBB393:
 629              	.LBB394:
 630              	.LBB395:
  61:C:/Renesas/e2studio_2021_01_workspace_RZA2M_ANPR/ANPR_RZA2M_GR_MANGO/src/tensorflow_lite/src/tensorflow/lite/kernels/internal/reference\arg_min_max.h ****     for (int inner = 0; inner < inner_size; ++inner) {
  62:C:/Renesas/e2studio_2021_01_workspace_RZA2M_ANPR/ANPR_RZA2M_GR_MANGO/src/tensorflow_lite/src/tensorflow/lite/kernels/internal/reference\arg_min_max.h ****       auto min_max_value = input1_data[outer * axis_size * inner_size + inner];
  63:C:/Renesas/e2studio_2021_01_workspace_RZA2M_ANPR/ANPR_RZA2M_GR_MANGO/src/tensorflow_lite/src/tensorflow/lite/kernels/internal/reference\arg_min_max.h ****       T2 min_max_index = 0;
  64:C:/Renesas/e2studio_2021_01_workspace_RZA2M_ANPR/ANPR_RZA2M_GR_MANGO/src/tensorflow_lite/src/tensorflow/lite/kernels/internal/reference\arg_min_max.h ****       for (int i = 1; i < axis_size; ++i) {
 631              		.loc 2 64 0
 632 027c 01005CE3 		cmp	ip, #1
 633              	.LBE395:
  62:C:/Renesas/e2studio_2021_01_workspace_RZA2M_ANPR/ANPR_RZA2M_GR_MANGO/src/tensorflow_lite/src/tensorflow/lite/kernels/internal/reference\arg_min_max.h ****       T2 min_max_index = 0;
 634              		.loc 2 62 0
 635 0280 017AFEEC 		vldmia.32	lr!, {s15}
 636              	.LVL70:
 637              	.LBB396:
 638              		.loc 2 64 0
 639 0284 AD0000DA 		ble	.L46
 640 0288 0E2086E0 		add	r2, r6, lr
 641 028c 0130A0E3 		mov	r3, #1
 642 0290 0010A0E3 		mov	r1, #0
 643              	.LVL71:
 644              	.L32:
 645 0294 007A92ED 		vldr.32	s14, [r2]
 646 0298 002082E0 		add	r2, r2, r0
 647 029c C77AF4EE 		vcmpe.f32	s15, s14
 648 02a0 10FAF1EE 		vmrs	APSR_nzcv, FPSCR
 649 02a4 0310A041 		movmi	r1, r3
 650 02a8 013083E2 		add	r3, r3, #1
 651 02ac 477AF04E 		vmovmi.f32	s15, s14
 652              	.LVL72:
 653 02b0 0C0053E1 		cmp	r3, ip
 654 02b4 F6FFFF1A 		bne	.L32
 655              	.LBE396:
 656              	.LBE394:
  61:C:/Renesas/e2studio_2021_01_workspace_RZA2M_ANPR/ANPR_RZA2M_GR_MANGO/src/tensorflow_lite/src/tensorflow/lite/kernels/internal/reference\arg_min_max.h ****     for (int inner = 0; inner < inner_size; ++inner) {
 657              		.loc 2 61 0 discriminator 2
 658 02b8 05005EE1 		cmp	lr, r5
 659              	.LBB397:
  65:C:/Renesas/e2studio_2021_01_workspace_RZA2M_ANPR/ANPR_RZA2M_GR_MANGO/src/tensorflow_lite/src/tensorflow/lite/kernels/internal/reference\arg_min_max.h ****         const auto& curr_value =
  66:C:/Renesas/e2studio_2021_01_workspace_RZA2M_ANPR/ANPR_RZA2M_GR_MANGO/src/tensorflow_lite/src/tensorflow/lite/kernels/internal/reference\arg_min_max.h ****             input1_data[(outer * axis_size + i) * inner_size + inner];
  67:C:/Renesas/e2studio_2021_01_workspace_RZA2M_ANPR/ANPR_RZA2M_GR_MANGO/src/tensorflow_lite/src/tensorflow/lite/kernels/internal/reference\arg_min_max.h ****         if (cmp(curr_value, min_max_value)) {
  68:C:/Renesas/e2studio_2021_01_workspace_RZA2M_ANPR/ANPR_RZA2M_GR_MANGO/src/tensorflow_lite/src/tensorflow/lite/kernels/internal/reference\arg_min_max.h ****           min_max_value = curr_value;
  69:C:/Renesas/e2studio_2021_01_workspace_RZA2M_ANPR/ANPR_RZA2M_GR_MANGO/src/tensorflow_lite/src/tensorflow/lite/kernels/internal/reference\arg_min_max.h ****           min_max_index = static_cast<T2>(i);
  70:C:/Renesas/e2studio_2021_01_workspace_RZA2M_ANPR/ANPR_RZA2M_GR_MANGO/src/tensorflow_lite/src/tensorflow/lite/kernels/internal/reference\arg_min_max.h ****         }
  71:C:/Renesas/e2studio_2021_01_workspace_RZA2M_ANPR/ANPR_RZA2M_GR_MANGO/src/tensorflow_lite/src/tensorflow/lite/kernels/internal/reference\arg_min_max.h ****       }
  72:C:/Renesas/e2studio_2021_01_workspace_RZA2M_ANPR/ANPR_RZA2M_GR_MANGO/src/tensorflow_lite/src/tensorflow/lite/kernels/internal/reference\arg_min_max.h ****       output_data[outer * inner_size + inner] = min_max_index;
 660              		.loc 2 72 0 discriminator 2
 661 02bc 041084E4 		str	r1, [r4], #4
 662              	.LVL73:
 663              	.LBE397:
  61:C:/Renesas/e2studio_2021_01_workspace_RZA2M_ANPR/ANPR_RZA2M_GR_MANGO/src/tensorflow_lite/src/tensorflow/lite/kernels/internal/reference\arg_min_max.h ****       auto min_max_value = input1_data[outer * axis_size * inner_size + inner];
 664              		.loc 2 61 0 discriminator 2
 665 02c0 EDFFFF1A 		bne	.L29
 666              	.LVL74:
 667              	.L149:
 668              	.LBE393:
  60:C:/Renesas/e2studio_2021_01_workspace_RZA2M_ANPR/ANPR_RZA2M_GR_MANGO/src/tensorflow_lite/src/tensorflow/lite/kernels/internal/reference\arg_min_max.h ****     for (int inner = 0; inner < inner_size; ++inner) {
 669              		.loc 2 60 0
 670 02c4 01A08AE2 		add	r10, r10, #1
 671              	.LVL75:
 672 02c8 0B8088E0 		add	r8, r8, fp
 673 02cc 07005AE1 		cmp	r10, r7
 674 02d0 009089E0 		add	r9, r9, r0
 675 02d4 E5FFFFBA 		blt	.L30
 676 02d8 F88FBDE8 		pop	{r3, r4, r5, r6, r7, r8, r9, r10, fp, pc}
 677              	.LVL76:
 678              	.L146:
 679              	.LBE400:
 680              	.LBB401:
 681              	.LBB198:
 682              		.loc 3 216 0
 683 02dc 040096E5 		ldr	r0, [r6, #4]
 684              	.LBE198:
 685              	.LBE401:
 686              	.LBB402:
  49:C:/Renesas/e2studio_2021_01_workspace_RZA2M_ANPR/ANPR_RZA2M_GR_MANGO/src/tensorflow_lite/src/tensorflow/lite/kernels/internal/reference\arg_min_max.h ****     TFLITE_DCHECK_EQ(input1_shape.Dims(i), output_shape.Dims(i));
 687              		.loc 2 49 0
 688 02e0 000052E3 		cmp	r2, #0
 689              	.LBE402:
 690              	.LBB403:
 691              	.LBB199:
 692              		.loc 3 216 0
 693 02e4 02C190E7 		ldr	ip, [r0, r2, lsl #2]
 694              	.LVL77:
 695              	.LBE199:
 696              	.LBE403:
 697              	.LBB404:
  49:C:/Renesas/e2studio_2021_01_workspace_RZA2M_ANPR/ANPR_RZA2M_GR_MANGO/src/tensorflow_lite/src/tensorflow/lite/kernels/internal/reference\arg_min_max.h ****     TFLITE_DCHECK_EQ(input1_shape.Dims(i), output_shape.Dims(i));
 698              		.loc 2 49 0
 699 02e8 D100000A 		beq	.L10
 700 02ec 050055E3 		cmp	r5, #5
 701 02f0 6B0000CA 		bgt	.L17
 702              	.LVL78:
 703              	.LBB269:
 704              	.LBB216:
 215:C:/Renesas/e2studio_2021_01_workspace_RZA2M_ANPR/ANPR_RZA2M_GR_MANGO/src/tensorflow_lite/src/tensorflow/lite/kernels/internal\types.h ****     return size_ > kMaxSmallSize ? dims_pointer_[i] : dims_[i];
 705              		.loc 3 215 0
 706 02f4 000055E3 		cmp	r5, #0
 707              	.LBE216:
 708              	.LBE269:
 709              	.LBB270:
 710              	.LBB240:
 711              		.loc 3 216 0
 712 02f8 007090E5 		ldr	r7, [r0]
 713              	.LVL79:
 714              	.LBE240:
 715              	.LBE270:
 716              	.LBB271:
 717              	.LBB217:
 215:C:/Renesas/e2studio_2021_01_workspace_RZA2M_ANPR/ANPR_RZA2M_GR_MANGO/src/tensorflow_lite/src/tensorflow/lite/kernels/internal\types.h ****     return size_ > kMaxSmallSize ? dims_pointer_[i] : dims_[i];
 718              		.loc 3 215 0
 719 02fc 7EFFFF0A 		beq	.L7
 720              	.LVL80:
 721              	.LBE217:
 722              	.LBE271:
  50:C:/Renesas/e2studio_2021_01_workspace_RZA2M_ANPR/ANPR_RZA2M_GR_MANGO/src/tensorflow_lite/src/tensorflow/lite/kernels/internal/reference\arg_min_max.h ****     outer_size *= input1_shape.Dims(i);
 723              		.loc 2 50 0
 724 0300 04E093E5 		ldr	lr, [r3, #4]
 725 0304 0E0057E1 		cmp	r7, lr
 726 0308 7BFFFF1A 		bne	.L7
 727              	.LVL81:
  49:C:/Renesas/e2studio_2021_01_workspace_RZA2M_ANPR/ANPR_RZA2M_GR_MANGO/src/tensorflow_lite/src/tensorflow/lite/kernels/internal/reference\arg_min_max.h ****     TFLITE_DCHECK_EQ(input1_shape.Dims(i), output_shape.Dims(i));
 728              		.loc 2 49 0
 729 030c 010052E3 		cmp	r2, #1
 730 0310 2300000A 		beq	.L18
 731              	.LVL82:
 732              	.LBB272:
 733              	.LBB218:
 215:C:/Renesas/e2studio_2021_01_workspace_RZA2M_ANPR/ANPR_RZA2M_GR_MANGO/src/tensorflow_lite/src/tensorflow/lite/kernels/internal\types.h ****     return size_ > kMaxSmallSize ? dims_pointer_[i] : dims_[i];
 734              		.loc 3 215 0
 735 0314 010055E3 		cmp	r5, #1
 736              	.LBE218:
 737              	.LBE272:
 738              	.LBB273:
 739              	.LBB241:
 740              		.loc 3 216 0
 741 0318 04E090E5 		ldr	lr, [r0, #4]
 742              	.LVL83:
 743              	.LBE241:
 744              	.LBE273:
 745              	.LBB274:
 746              	.LBB219:
 215:C:/Renesas/e2studio_2021_01_workspace_RZA2M_ANPR/ANPR_RZA2M_GR_MANGO/src/tensorflow_lite/src/tensorflow/lite/kernels/internal\types.h ****     return size_ > kMaxSmallSize ? dims_pointer_[i] : dims_[i];
 747              		.loc 3 215 0
 748 031c 76FFFF0A 		beq	.L7
 749              	.LVL84:
 750              	.LBE219:
 751              	.LBE274:
  50:C:/Renesas/e2studio_2021_01_workspace_RZA2M_ANPR/ANPR_RZA2M_GR_MANGO/src/tensorflow_lite/src/tensorflow/lite/kernels/internal/reference\arg_min_max.h ****     outer_size *= input1_shape.Dims(i);
 752              		.loc 2 50 0
 753 0320 088093E5 		ldr	r8, [r3, #8]
 754 0324 08005EE1 		cmp	lr, r8
 755 0328 73FFFF1A 		bne	.L7
  49:C:/Renesas/e2studio_2021_01_workspace_RZA2M_ANPR/ANPR_RZA2M_GR_MANGO/src/tensorflow_lite/src/tensorflow/lite/kernels/internal/reference\arg_min_max.h ****     TFLITE_DCHECK_EQ(input1_shape.Dims(i), output_shape.Dims(i));
 756              		.loc 2 49 0
 757 032c 020052E3 		cmp	r2, #2
  51:C:/Renesas/e2studio_2021_01_workspace_RZA2M_ANPR/ANPR_RZA2M_GR_MANGO/src/tensorflow_lite/src/tensorflow/lite/kernels/internal/reference\arg_min_max.h ****   }
 758              		.loc 2 51 0
 759 0330 9E0707E0 		mul	r7, lr, r7
 760              	.LVL85:
  49:C:/Renesas/e2studio_2021_01_workspace_RZA2M_ANPR/ANPR_RZA2M_GR_MANGO/src/tensorflow_lite/src/tensorflow/lite/kernels/internal/reference\arg_min_max.h ****     TFLITE_DCHECK_EQ(input1_shape.Dims(i), output_shape.Dims(i));
 761              		.loc 2 49 0
 762 0334 1A00000A 		beq	.L18
 763              	.LVL86:
 764              	.LBB275:
 765              	.LBB220:
 215:C:/Renesas/e2studio_2021_01_workspace_RZA2M_ANPR/ANPR_RZA2M_GR_MANGO/src/tensorflow_lite/src/tensorflow/lite/kernels/internal\types.h ****     return size_ > kMaxSmallSize ? dims_pointer_[i] : dims_[i];
 766              		.loc 3 215 0
 767 0338 020055E3 		cmp	r5, #2
 768              	.LBE220:
 769              	.LBE275:
 770              	.LBB276:
 771              	.LBB242:
 772              		.loc 3 216 0
 773 033c 08E090E5 		ldr	lr, [r0, #8]
 774              	.LVL87:
 775              	.LBE242:
 776              	.LBE276:
 777              	.LBB277:
 778              	.LBB221:
 215:C:/Renesas/e2studio_2021_01_workspace_RZA2M_ANPR/ANPR_RZA2M_GR_MANGO/src/tensorflow_lite/src/tensorflow/lite/kernels/internal\types.h ****     return size_ > kMaxSmallSize ? dims_pointer_[i] : dims_[i];
 779              		.loc 3 215 0
 780 0340 6DFFFF0A 		beq	.L7
 781              	.LVL88:
 782              	.LBE221:
 783              	.LBE277:
  50:C:/Renesas/e2studio_2021_01_workspace_RZA2M_ANPR/ANPR_RZA2M_GR_MANGO/src/tensorflow_lite/src/tensorflow/lite/kernels/internal/reference\arg_min_max.h ****     outer_size *= input1_shape.Dims(i);
 784              		.loc 2 50 0
 785 0344 0C8093E5 		ldr	r8, [r3, #12]
 786 0348 08005EE1 		cmp	lr, r8
 787 034c 6AFFFF1A 		bne	.L7
  49:C:/Renesas/e2studio_2021_01_workspace_RZA2M_ANPR/ANPR_RZA2M_GR_MANGO/src/tensorflow_lite/src/tensorflow/lite/kernels/internal/reference\arg_min_max.h ****     TFLITE_DCHECK_EQ(input1_shape.Dims(i), output_shape.Dims(i));
 788              		.loc 2 49 0
 789 0350 030052E3 		cmp	r2, #3
  51:C:/Renesas/e2studio_2021_01_workspace_RZA2M_ANPR/ANPR_RZA2M_GR_MANGO/src/tensorflow_lite/src/tensorflow/lite/kernels/internal/reference\arg_min_max.h ****   }
 790              		.loc 2 51 0
 791 0354 9E0707E0 		mul	r7, lr, r7
 792              	.LVL89:
  49:C:/Renesas/e2studio_2021_01_workspace_RZA2M_ANPR/ANPR_RZA2M_GR_MANGO/src/tensorflow_lite/src/tensorflow/lite/kernels/internal/reference\arg_min_max.h ****     TFLITE_DCHECK_EQ(input1_shape.Dims(i), output_shape.Dims(i));
 793              		.loc 2 49 0
 794 0358 1100000A 		beq	.L18
 795              	.LVL90:
 796              	.LBB278:
 797              	.LBB222:
 215:C:/Renesas/e2studio_2021_01_workspace_RZA2M_ANPR/ANPR_RZA2M_GR_MANGO/src/tensorflow_lite/src/tensorflow/lite/kernels/internal\types.h ****     return size_ > kMaxSmallSize ? dims_pointer_[i] : dims_[i];
 798              		.loc 3 215 0
 799 035c 030055E3 		cmp	r5, #3
 800              	.LBE222:
 801              	.LBE278:
 802              	.LBB279:
 803              	.LBB243:
 804              		.loc 3 216 0
 805 0360 0CE090E5 		ldr	lr, [r0, #12]
 806              	.LVL91:
 807              	.LBE243:
 808              	.LBE279:
 809              	.LBB280:
 810              	.LBB223:
 215:C:/Renesas/e2studio_2021_01_workspace_RZA2M_ANPR/ANPR_RZA2M_GR_MANGO/src/tensorflow_lite/src/tensorflow/lite/kernels/internal\types.h ****     return size_ > kMaxSmallSize ? dims_pointer_[i] : dims_[i];
 811              		.loc 3 215 0
 812 0364 64FFFF0A 		beq	.L7
 813              	.LVL92:
 814              	.LBE223:
 815              	.LBE280:
  50:C:/Renesas/e2studio_2021_01_workspace_RZA2M_ANPR/ANPR_RZA2M_GR_MANGO/src/tensorflow_lite/src/tensorflow/lite/kernels/internal/reference\arg_min_max.h ****     outer_size *= input1_shape.Dims(i);
 816              		.loc 2 50 0
 817 0368 108093E5 		ldr	r8, [r3, #16]
 818 036c 08005EE1 		cmp	lr, r8
 819 0370 61FFFF1A 		bne	.L7
  49:C:/Renesas/e2studio_2021_01_workspace_RZA2M_ANPR/ANPR_RZA2M_GR_MANGO/src/tensorflow_lite/src/tensorflow/lite/kernels/internal/reference\arg_min_max.h ****     TFLITE_DCHECK_EQ(input1_shape.Dims(i), output_shape.Dims(i));
 820              		.loc 2 49 0
 821 0374 040052E3 		cmp	r2, #4
  51:C:/Renesas/e2studio_2021_01_workspace_RZA2M_ANPR/ANPR_RZA2M_GR_MANGO/src/tensorflow_lite/src/tensorflow/lite/kernels/internal/reference\arg_min_max.h ****   }
 822              		.loc 2 51 0
 823 0378 9E0707E0 		mul	r7, lr, r7
 824              	.LVL93:
  49:C:/Renesas/e2studio_2021_01_workspace_RZA2M_ANPR/ANPR_RZA2M_GR_MANGO/src/tensorflow_lite/src/tensorflow/lite/kernels/internal/reference\arg_min_max.h ****     TFLITE_DCHECK_EQ(input1_shape.Dims(i), output_shape.Dims(i));
 825              		.loc 2 49 0
 826 037c 0800000A 		beq	.L18
 827              	.LVL94:
 828              	.LBB281:
 829              	.LBB224:
 215:C:/Renesas/e2studio_2021_01_workspace_RZA2M_ANPR/ANPR_RZA2M_GR_MANGO/src/tensorflow_lite/src/tensorflow/lite/kernels/internal\types.h ****     return size_ > kMaxSmallSize ? dims_pointer_[i] : dims_[i];
 830              		.loc 3 215 0
 831 0380 050055E3 		cmp	r5, #5
 832              	.LBE224:
 833              	.LBE281:
 834              	.LBB282:
 835              	.LBB244:
 836              		.loc 3 216 0
 837 0384 100090E5 		ldr	r0, [r0, #16]
 838              	.LVL95:
 839              	.LBE244:
 840              	.LBE282:
 841              	.LBB283:
 842              	.LBB225:
 215:C:/Renesas/e2studio_2021_01_workspace_RZA2M_ANPR/ANPR_RZA2M_GR_MANGO/src/tensorflow_lite/src/tensorflow/lite/kernels/internal\types.h ****     return size_ > kMaxSmallSize ? dims_pointer_[i] : dims_[i];
 843              		.loc 3 215 0
 844 0388 5BFFFF1A 		bne	.L7
 845              	.LVL96:
 846              	.LBE225:
 847              	.LBE283:
  50:C:/Renesas/e2studio_2021_01_workspace_RZA2M_ANPR/ANPR_RZA2M_GR_MANGO/src/tensorflow_lite/src/tensorflow/lite/kernels/internal/reference\arg_min_max.h ****     outer_size *= input1_shape.Dims(i);
 848              		.loc 2 50 0
 849 038c 14E093E5 		ldr	lr, [r3, #20]
 850 0390 0E0050E1 		cmp	r0, lr
 851 0394 58FFFF1A 		bne	.L7
  49:C:/Renesas/e2studio_2021_01_workspace_RZA2M_ANPR/ANPR_RZA2M_GR_MANGO/src/tensorflow_lite/src/tensorflow/lite/kernels/internal/reference\arg_min_max.h ****     TFLITE_DCHECK_EQ(input1_shape.Dims(i), output_shape.Dims(i));
 852              		.loc 2 49 0
 853 0398 050052E3 		cmp	r2, #5
  51:C:/Renesas/e2studio_2021_01_workspace_RZA2M_ANPR/ANPR_RZA2M_GR_MANGO/src/tensorflow_lite/src/tensorflow/lite/kernels/internal/reference\arg_min_max.h ****   }
 854              		.loc 2 51 0
 855 039c 900707E0 		mul	r7, r0, r7
 856              	.LVL97:
  49:C:/Renesas/e2studio_2021_01_workspace_RZA2M_ANPR/ANPR_RZA2M_GR_MANGO/src/tensorflow_lite/src/tensorflow/lite/kernels/internal/reference\arg_min_max.h ****     TFLITE_DCHECK_EQ(input1_shape.Dims(i), output_shape.Dims(i));
 857              		.loc 2 49 0
 858 03a0 55FFFF1A 		bne	.L7
 859              	.LVL98:
 860              	.L18:
 861              	.LBE404:
 862              	.LBB405:
  56:C:/Renesas/e2studio_2021_01_workspace_RZA2M_ANPR/ANPR_RZA2M_GR_MANGO/src/tensorflow_lite/src/tensorflow/lite/kernels/internal/reference\arg_min_max.h ****     TFLITE_DCHECK_EQ(input1_shape.Dims(i), output_shape.Dims(i - 1));
 863              		.loc 2 56 0
 864 03a4 012082E2 		add	r2, r2, #1
 865              	.LVL99:
 866 03a8 020054E1 		cmp	r4, r2
 867 03ac 690000DA 		ble	.L51
 868              	.LVL100:
 869              	.L36:
 870 03b0 046096E5 		ldr	r6, [r6, #4]
 871              	.LVL101:
  57:C:/Renesas/e2studio_2021_01_workspace_RZA2M_ANPR/ANPR_RZA2M_GR_MANGO/src/tensorflow_lite/src/tensorflow/lite/kernels/internal/reference\arg_min_max.h ****     inner_size *= input1_shape.Dims(i);
 872              		.loc 2 57 0
 873 03b4 019042E2 		sub	r9, r2, #1
 874              	.LBB357:
 875              	.LBB323:
 215:C:/Renesas/e2studio_2021_01_workspace_RZA2M_ANPR/ANPR_RZA2M_GR_MANGO/src/tensorflow_lite/src/tensorflow/lite/kernels/internal\types.h ****     return size_ > kMaxSmallSize ? dims_pointer_[i] : dims_[i];
 876              		.loc 3 215 0
 877 03b8 090055E1 		cmp	r5, r9
 878              	.LBE323:
 879              	.LBE357:
 880              	.LBB358:
 881              	.LBB300:
 882              		.loc 3 216 0
 883 03bc 0281A0E1 		lsl	r8, r2, #2
 884 03c0 020196E7 		ldr	r0, [r6, r2, lsl #2]
 885              	.LVL102:
 886              	.LBE300:
 887              	.LBE358:
 888              	.LBB359:
 889              	.LBB324:
 215:C:/Renesas/e2studio_2021_01_workspace_RZA2M_ANPR/ANPR_RZA2M_GR_MANGO/src/tensorflow_lite/src/tensorflow/lite/kernels/internal\types.h ****     return size_ > kMaxSmallSize ? dims_pointer_[i] : dims_[i];
 890              		.loc 3 215 0
 891 03c4 4CFFFFDA 		ble	.L7
 892              		.loc 3 216 0
 893 03c8 099183E0 		add	r9, r3, r9, lsl #2
 894              	.LVL103:
 895 03cc 04E099E5 		ldr	lr, [r9, #4]
 896              	.LVL104:
 897              	.LBE324:
 898              	.LBE359:
  57:C:/Renesas/e2studio_2021_01_workspace_RZA2M_ANPR/ANPR_RZA2M_GR_MANGO/src/tensorflow_lite/src/tensorflow/lite/kernels/internal/reference\arg_min_max.h ****     inner_size *= input1_shape.Dims(i);
 899              		.loc 2 57 0
 900 03d0 0E0050E1 		cmp	r0, lr
 901 03d4 48FFFF1A 		bne	.L7
 902              	.LVL105:
  56:C:/Renesas/e2studio_2021_01_workspace_RZA2M_ANPR/ANPR_RZA2M_GR_MANGO/src/tensorflow_lite/src/tensorflow/lite/kernels/internal/reference\arg_min_max.h ****     TFLITE_DCHECK_EQ(input1_shape.Dims(i), output_shape.Dims(i - 1));
 903              		.loc 2 56 0
 904 03d8 019082E2 		add	r9, r2, #1
 905              	.LVL106:
 906 03dc 090054E1 		cmp	r4, r9
 907 03e0 5E0000DA 		ble	.L45
 908              	.LVL107:
 909              	.LBB360:
 910              	.LBB325:
 215:C:/Renesas/e2studio_2021_01_workspace_RZA2M_ANPR/ANPR_RZA2M_GR_MANGO/src/tensorflow_lite/src/tensorflow/lite/kernels/internal\types.h ****     return size_ > kMaxSmallSize ? dims_pointer_[i] : dims_[i];
 911              		.loc 3 215 0
 912 03e4 020055E1 		cmp	r5, r2
 913              	.LBE325:
 914              	.LBE360:
 915              	.LBB361:
 916              	.LBB301:
 917              		.loc 3 216 0
 918 03e8 086086E0 		add	r6, r6, r8
 919 03ec 04E096E5 		ldr	lr, [r6, #4]
 920              	.LVL108:
 921              	.LBE301:
 922              	.LBE361:
 923              	.LBB362:
 924              	.LBB326:
 215:C:/Renesas/e2studio_2021_01_workspace_RZA2M_ANPR/ANPR_RZA2M_GR_MANGO/src/tensorflow_lite/src/tensorflow/lite/kernels/internal\types.h ****     return size_ > kMaxSmallSize ? dims_pointer_[i] : dims_[i];
 925              		.loc 3 215 0
 926 03f0 41FFFFDA 		ble	.L7
 927              		.loc 3 216 0
 928 03f4 088083E0 		add	r8, r3, r8
 929 03f8 048098E5 		ldr	r8, [r8, #4]
 930              	.LVL109:
 931              	.LBE326:
 932              	.LBE362:
  57:C:/Renesas/e2studio_2021_01_workspace_RZA2M_ANPR/ANPR_RZA2M_GR_MANGO/src/tensorflow_lite/src/tensorflow/lite/kernels/internal/reference\arg_min_max.h ****     inner_size *= input1_shape.Dims(i);
 933              		.loc 2 57 0
 934 03fc 08005EE1 		cmp	lr, r8
 935 0400 3DFFFF1A 		bne	.L7
  56:C:/Renesas/e2studio_2021_01_workspace_RZA2M_ANPR/ANPR_RZA2M_GR_MANGO/src/tensorflow_lite/src/tensorflow/lite/kernels/internal/reference\arg_min_max.h ****     TFLITE_DCHECK_EQ(input1_shape.Dims(i), output_shape.Dims(i - 1));
 936              		.loc 2 56 0
 937 0404 028082E2 		add	r8, r2, #2
  58:C:/Renesas/e2studio_2021_01_workspace_RZA2M_ANPR/ANPR_RZA2M_GR_MANGO/src/tensorflow_lite/src/tensorflow/lite/kernels/internal/reference\arg_min_max.h ****   }
 938              		.loc 2 58 0
 939 0408 9E000EE0 		mul	lr, lr, r0
 940              	.LVL110:
  56:C:/Renesas/e2studio_2021_01_workspace_RZA2M_ANPR/ANPR_RZA2M_GR_MANGO/src/tensorflow_lite/src/tensorflow/lite/kernels/internal/reference\arg_min_max.h ****     TFLITE_DCHECK_EQ(input1_shape.Dims(i), output_shape.Dims(i - 1));
 941              		.loc 2 56 0
 942 040c 080054E1 		cmp	r4, r8
 943 0410 8BFFFFDA 		ble	.L27
 944              	.LVL111:
 945              	.LBB363:
 946              	.LBB327:
 215:C:/Renesas/e2studio_2021_01_workspace_RZA2M_ANPR/ANPR_RZA2M_GR_MANGO/src/tensorflow_lite/src/tensorflow/lite/kernels/internal\types.h ****     return size_ > kMaxSmallSize ? dims_pointer_[i] : dims_[i];
 947              		.loc 3 215 0
 948 0414 090055E1 		cmp	r5, r9
 949              	.LBE327:
 950              	.LBE363:
 951              	.LBB364:
 952              	.LBB302:
 953              		.loc 3 216 0
 954 0418 08A096E5 		ldr	r10, [r6, #8]
 955              	.LVL112:
 956              	.LBE302:
 957              	.LBE364:
 958              	.LBB365:
 959              	.LBB328:
 215:C:/Renesas/e2studio_2021_01_workspace_RZA2M_ANPR/ANPR_RZA2M_GR_MANGO/src/tensorflow_lite/src/tensorflow/lite/kernels/internal\types.h ****     return size_ > kMaxSmallSize ? dims_pointer_[i] : dims_[i];
 960              		.loc 3 215 0
 961 041c 36FFFFDA 		ble	.L7
 962              		.loc 3 216 0
 963 0420 099183E0 		add	r9, r3, r9, lsl #2
 964              	.LVL113:
 965 0424 040099E5 		ldr	r0, [r9, #4]
 966              	.LVL114:
 967              	.LBE328:
 968              	.LBE365:
  57:C:/Renesas/e2studio_2021_01_workspace_RZA2M_ANPR/ANPR_RZA2M_GR_MANGO/src/tensorflow_lite/src/tensorflow/lite/kernels/internal/reference\arg_min_max.h ****     inner_size *= input1_shape.Dims(i);
 969              		.loc 2 57 0
 970 0428 00005AE1 		cmp	r10, r0
 971 042c 32FFFF1A 		bne	.L7
  56:C:/Renesas/e2studio_2021_01_workspace_RZA2M_ANPR/ANPR_RZA2M_GR_MANGO/src/tensorflow_lite/src/tensorflow/lite/kernels/internal/reference\arg_min_max.h ****     TFLITE_DCHECK_EQ(input1_shape.Dims(i), output_shape.Dims(i - 1));
 972              		.loc 2 56 0
 973 0430 030082E2 		add	r0, r2, #3
  58:C:/Renesas/e2studio_2021_01_workspace_RZA2M_ANPR/ANPR_RZA2M_GR_MANGO/src/tensorflow_lite/src/tensorflow/lite/kernels/internal/reference\arg_min_max.h ****   }
 974              		.loc 2 58 0
 975 0434 9A0E0EE0 		mul	lr, r10, lr
 976              	.LVL115:
  56:C:/Renesas/e2studio_2021_01_workspace_RZA2M_ANPR/ANPR_RZA2M_GR_MANGO/src/tensorflow_lite/src/tensorflow/lite/kernels/internal/reference\arg_min_max.h ****     TFLITE_DCHECK_EQ(input1_shape.Dims(i), output_shape.Dims(i - 1));
 977              		.loc 2 56 0
 978 0438 000054E1 		cmp	r4, r0
 979 043c 80FFFFDA 		ble	.L27
 980              	.LVL116:
 981              	.LBB366:
 982              	.LBB329:
 215:C:/Renesas/e2studio_2021_01_workspace_RZA2M_ANPR/ANPR_RZA2M_GR_MANGO/src/tensorflow_lite/src/tensorflow/lite/kernels/internal\types.h ****     return size_ > kMaxSmallSize ? dims_pointer_[i] : dims_[i];
 983              		.loc 3 215 0
 984 0440 080055E1 		cmp	r5, r8
 985              	.LBE329:
 986              	.LBE366:
 987              	.LBB367:
 988              	.LBB303:
 989              		.loc 3 216 0
 990 0444 0C9096E5 		ldr	r9, [r6, #12]
 991              	.LVL117:
 992              	.LBE303:
 993              	.LBE367:
 994              	.LBB368:
 995              	.LBB330:
 215:C:/Renesas/e2studio_2021_01_workspace_RZA2M_ANPR/ANPR_RZA2M_GR_MANGO/src/tensorflow_lite/src/tensorflow/lite/kernels/internal\types.h ****     return size_ > kMaxSmallSize ? dims_pointer_[i] : dims_[i];
 996              		.loc 3 215 0
 997 0448 2BFFFFDA 		ble	.L7
 998              		.loc 3 216 0
 999 044c 088183E0 		add	r8, r3, r8, lsl #2
 1000              	.LVL118:
 1001 0450 048098E5 		ldr	r8, [r8, #4]
 1002              	.LVL119:
 1003              	.LBE330:
 1004              	.LBE368:
  57:C:/Renesas/e2studio_2021_01_workspace_RZA2M_ANPR/ANPR_RZA2M_GR_MANGO/src/tensorflow_lite/src/tensorflow/lite/kernels/internal/reference\arg_min_max.h ****     inner_size *= input1_shape.Dims(i);
 1005              		.loc 2 57 0
 1006 0454 080059E1 		cmp	r9, r8
 1007 0458 27FFFF1A 		bne	.L7
  56:C:/Renesas/e2studio_2021_01_workspace_RZA2M_ANPR/ANPR_RZA2M_GR_MANGO/src/tensorflow_lite/src/tensorflow/lite/kernels/internal/reference\arg_min_max.h ****     TFLITE_DCHECK_EQ(input1_shape.Dims(i), output_shape.Dims(i - 1));
 1008              		.loc 2 56 0
 1009 045c 042082E2 		add	r2, r2, #4
  58:C:/Renesas/e2studio_2021_01_workspace_RZA2M_ANPR/ANPR_RZA2M_GR_MANGO/src/tensorflow_lite/src/tensorflow/lite/kernels/internal/reference\arg_min_max.h ****   }
 1010              		.loc 2 58 0
 1011 0460 990E0EE0 		mul	lr, r9, lr
 1012              	.LVL120:
  56:C:/Renesas/e2studio_2021_01_workspace_RZA2M_ANPR/ANPR_RZA2M_GR_MANGO/src/tensorflow_lite/src/tensorflow/lite/kernels/internal/reference\arg_min_max.h ****     TFLITE_DCHECK_EQ(input1_shape.Dims(i), output_shape.Dims(i - 1));
 1013              		.loc 2 56 0
 1014 0464 020054E1 		cmp	r4, r2
 1015 0468 75FFFFDA 		ble	.L27
 1016              	.LVL121:
 1017              	.LBB369:
 1018              	.LBB331:
 215:C:/Renesas/e2studio_2021_01_workspace_RZA2M_ANPR/ANPR_RZA2M_GR_MANGO/src/tensorflow_lite/src/tensorflow/lite/kernels/internal\types.h ****     return size_ > kMaxSmallSize ? dims_pointer_[i] : dims_[i];
 1019              		.loc 3 215 0
 1020 046c 050050E1 		cmp	r0, r5
 1021              	.LBE331:
 1022              	.LBE369:
 1023              	.LBB370:
 1024              	.LBB304:
 1025              		.loc 3 216 0
 1026 0470 102096E5 		ldr	r2, [r6, #16]
 1027              	.LVL122:
 1028              	.LBE304:
 1029              	.LBE370:
 1030              	.LBB371:
 1031              	.LBB332:
 215:C:/Renesas/e2studio_2021_01_workspace_RZA2M_ANPR/ANPR_RZA2M_GR_MANGO/src/tensorflow_lite/src/tensorflow/lite/kernels/internal\types.h ****     return size_ > kMaxSmallSize ? dims_pointer_[i] : dims_[i];
 1032              		.loc 3 215 0
 1033 0474 20FFFFAA 		bge	.L7
 1034              		.loc 3 216 0
 1035 0478 003183E0 		add	r3, r3, r0, lsl #2
 1036              	.LVL123:
 1037 047c 043093E5 		ldr	r3, [r3, #4]
 1038              	.LVL124:
 1039              	.LBE332:
 1040              	.LBE371:
  57:C:/Renesas/e2studio_2021_01_workspace_RZA2M_ANPR/ANPR_RZA2M_GR_MANGO/src/tensorflow_lite/src/tensorflow/lite/kernels/internal/reference\arg_min_max.h ****     inner_size *= input1_shape.Dims(i);
 1041              		.loc 2 57 0
 1042 0480 020053E1 		cmp	r3, r2
 1043 0484 1CFFFF1A 		bne	.L7
 1044              	.LBE405:
 1045              	.LBB406:
  60:C:/Renesas/e2studio_2021_01_workspace_RZA2M_ANPR/ANPR_RZA2M_GR_MANGO/src/tensorflow_lite/src/tensorflow/lite/kernels/internal/reference\arg_min_max.h ****     for (int inner = 0; inner < inner_size; ++inner) {
 1046              		.loc 2 60 0
 1047 0488 000057E3 		cmp	r7, #0
 1048              	.LBE406:
 1049              	.LBB407:
  58:C:/Renesas/e2studio_2021_01_workspace_RZA2M_ANPR/ANPR_RZA2M_GR_MANGO/src/tensorflow_lite/src/tensorflow/lite/kernels/internal/reference\arg_min_max.h ****   }
 1050              		.loc 2 58 0
 1051 048c 930E0EE0 		mul	lr, r3, lr
 1052              	.LVL125:
 1053              	.LBE407:
 1054              	.LBB408:
  60:C:/Renesas/e2studio_2021_01_workspace_RZA2M_ANPR/ANPR_RZA2M_GR_MANGO/src/tensorflow_lite/src/tensorflow/lite/kernels/internal/reference\arg_min_max.h ****     for (int inner = 0; inner < inner_size; ++inner) {
 1055              		.loc 2 60 0
 1056 0490 6DFFFFCA 		bgt	.L21
 1057              	.LVL126:
 1058              	.L147:
 1059 0494 F88FBDE8 		pop	{r3, r4, r5, r6, r7, r8, r9, r10, fp, pc}
 1060              	.LVL127:
 1061              	.L145:
 1062              	.LBE408:
 1063              	.LBB409:
 1064              	.LBB200:
 214:C:/Renesas/e2studio_2021_01_workspace_RZA2M_ANPR/ANPR_RZA2M_GR_MANGO/src/tensorflow_lite/src/tensorflow/lite/kernels/internal\types.h ****     TFLITE_DCHECK_LT(i, size_);
 1065              		.loc 3 214 0
 1066 0498 042092E0 		adds	r2, r2, r4
 1067              	.LVL128:
 1068 049c E3FEFF5A 		bpl	.L8
 1069 04a0 15FFFFEA 		b	.L7
 1070              	.LVL129:
 1071              	.L17:
 1072 04a4 04E040E2 		sub	lr, r0, #4
 1073              	.LBE200:
 1074              	.LBE409:
 1075              	.LBB410:
  49:C:/Renesas/e2studio_2021_01_workspace_RZA2M_ANPR/ANPR_RZA2M_GR_MANGO/src/tensorflow_lite/src/tensorflow/lite/kernels/internal/reference\arg_min_max.h ****     TFLITE_DCHECK_EQ(input1_shape.Dims(i), output_shape.Dims(i));
 1076              		.loc 2 49 0
 1077 04a8 0170A0E3 		mov	r7, #1
 1078 04ac 0000A0E3 		mov	r0, #0
 1079 04b0 010000EA 		b	.L13
 1080              	.LVL130:
 1081              	.L137:
 1082              	.LBB284:
 1083              	.LBB245:
 215:C:/Renesas/e2studio_2021_01_workspace_RZA2M_ANPR/ANPR_RZA2M_GR_MANGO/src/tensorflow_lite/src/tensorflow/lite/kernels/internal\types.h ****     return size_ > kMaxSmallSize ? dims_pointer_[i] : dims_[i];
 1084              		.loc 3 215 0
 1085 04b4 040050E1 		cmp	r0, r4
 1086 04b8 0FFFFF0A 		beq	.L7
 1087              	.LVL131:
 1088              	.L13:
 1089              	.LBE245:
 1090              	.LBE284:
 1091              	.LBB285:
 1092              	.LBB226:
 1093 04bc 050050E1 		cmp	r0, r5
 1094              	.LBE226:
 1095              	.LBE285:
 1096              	.LBB286:
 1097              	.LBB246:
 1098              		.loc 3 216 0
 1099 04c0 0490BEE5 		ldr	r9, [lr, #4]!
 1100              	.LVL132:
 1101              	.LBE246:
 1102              	.LBE286:
 1103              	.LBB287:
 1104              	.LBB227:
 215:C:/Renesas/e2studio_2021_01_workspace_RZA2M_ANPR/ANPR_RZA2M_GR_MANGO/src/tensorflow_lite/src/tensorflow/lite/kernels/internal\types.h ****     return size_ > kMaxSmallSize ? dims_pointer_[i] : dims_[i];
 1105              		.loc 3 215 0
 1106 04c4 0CFFFF0A 		beq	.L7
 1107              		.loc 3 216 0
 1108 04c8 048093E5 		ldr	r8, [r3, #4]
 1109 04cc 008198E7 		ldr	r8, [r8, r0, lsl #2]
 1110              	.LVL133:
 1111              	.LBE227:
 1112              	.LBE287:
  50:C:/Renesas/e2studio_2021_01_workspace_RZA2M_ANPR/ANPR_RZA2M_GR_MANGO/src/tensorflow_lite/src/tensorflow/lite/kernels/internal/reference\arg_min_max.h ****     outer_size *= input1_shape.Dims(i);
 1113              		.loc 2 50 0
 1114 04d0 090058E1 		cmp	r8, r9
 1115 04d4 08FFFF1A 		bne	.L7
  49:C:/Renesas/e2studio_2021_01_workspace_RZA2M_ANPR/ANPR_RZA2M_GR_MANGO/src/tensorflow_lite/src/tensorflow/lite/kernels/internal/reference\arg_min_max.h ****     TFLITE_DCHECK_EQ(input1_shape.Dims(i), output_shape.Dims(i));
 1116              		.loc 2 49 0
 1117 04d8 010080E2 		add	r0, r0, #1
 1118              	.LVL134:
  51:C:/Renesas/e2studio_2021_01_workspace_RZA2M_ANPR/ANPR_RZA2M_GR_MANGO/src/tensorflow_lite/src/tensorflow/lite/kernels/internal/reference\arg_min_max.h ****   }
 1119              		.loc 2 51 0
 1120 04dc 980707E0 		mul	r7, r8, r7
 1121              	.LVL135:
  49:C:/Renesas/e2studio_2021_01_workspace_RZA2M_ANPR/ANPR_RZA2M_GR_MANGO/src/tensorflow_lite/src/tensorflow/lite/kernels/internal/reference\arg_min_max.h ****     TFLITE_DCHECK_EQ(input1_shape.Dims(i), output_shape.Dims(i));
 1122              		.loc 2 49 0
 1123 04e0 020050E1 		cmp	r0, r2
 1124 04e4 F2FFFF1A 		bne	.L137
 1125              	.LVL136:
 1126              	.LBE410:
 1127              	.LBB411:
  56:C:/Renesas/e2studio_2021_01_workspace_RZA2M_ANPR/ANPR_RZA2M_GR_MANGO/src/tensorflow_lite/src/tensorflow/lite/kernels/internal/reference\arg_min_max.h ****     TFLITE_DCHECK_EQ(input1_shape.Dims(i), output_shape.Dims(i - 1));
 1128              		.loc 2 56 0
 1129 04e8 012080E2 		add	r2, r0, #1
 1130              	.LVL137:
 1131 04ec 040052E1 		cmp	r2, r4
 1132 04f0 180000AA 		bge	.L51
 1133              	.LVL138:
 1134              	.L25:
 1135 04f4 040096E5 		ldr	r0, [r6, #4]
 1136              	.LBB372:
 1137              	.LBB333:
 1138              		.loc 3 216 0
 1139 04f8 0780E0E3 		mvn	r8, #7
 1140              	.LBE333:
 1141              	.LBE372:
 1142              	.LBE411:
  48:C:/Renesas/e2studio_2021_01_workspace_RZA2M_ANPR/ANPR_RZA2M_GR_MANGO/src/tensorflow_lite/src/tensorflow/lite/kernels/internal/reference\arg_min_max.h ****   for (int i = 0; i < axis; ++i) {
 1143              		.loc 2 48 0
 1144 04fc 01E0A0E3 		mov	lr, #1
 1145              	.LBB412:
 1146              	.LBB373:
 1147              	.LBB334:
 1148              		.loc 3 216 0
 1149 0500 008048E0 		sub	r8, r8, r0
 1150 0504 020180E0 		add	r0, r0, r2, lsl #2
 1151              	.LVL139:
 1152              	.L26:
 215:C:/Renesas/e2studio_2021_01_workspace_RZA2M_ANPR/ANPR_RZA2M_GR_MANGO/src/tensorflow_lite/src/tensorflow/lite/kernels/internal\types.h ****     return size_ > kMaxSmallSize ? dims_pointer_[i] : dims_[i];
 1153              		.loc 3 215 0
 1154 0508 016042E2 		sub	r6, r2, #1
 1155              	.LBE334:
 1156              	.LBE373:
 1157              	.LBB374:
 1158              	.LBB305:
 1159              		.loc 3 216 0
 1160 050c 049090E4 		ldr	r9, [r0], #4
 1161              	.LVL140:
 1162              	.LBE305:
 1163              	.LBE374:
 1164              	.LBB375:
 1165              	.LBB335:
 215:C:/Renesas/e2studio_2021_01_workspace_RZA2M_ANPR/ANPR_RZA2M_GR_MANGO/src/tensorflow_lite/src/tensorflow/lite/kernels/internal\types.h ****     return size_ > kMaxSmallSize ? dims_pointer_[i] : dims_[i];
 1166              		.loc 3 215 0
 1167 0510 060055E1 		cmp	r5, r6
 1168 0514 F8FEFFDA 		ble	.L7
 1169              		.loc 3 216 0
 1170 0518 046093E5 		ldr	r6, [r3, #4]
 1171              	.LVL141:
 1172 051c 006086E0 		add	r6, r6, r0
 1173 0520 086096E7 		ldr	r6, [r6, r8]
 1174              	.LVL142:
 1175              	.LBE335:
 1176              	.LBE375:
  57:C:/Renesas/e2studio_2021_01_workspace_RZA2M_ANPR/ANPR_RZA2M_GR_MANGO/src/tensorflow_lite/src/tensorflow/lite/kernels/internal/reference\arg_min_max.h ****     inner_size *= input1_shape.Dims(i);
 1177              		.loc 2 57 0
 1178 0524 090056E1 		cmp	r6, r9
 1179 0528 F3FEFF1A 		bne	.L7
  56:C:/Renesas/e2studio_2021_01_workspace_RZA2M_ANPR/ANPR_RZA2M_GR_MANGO/src/tensorflow_lite/src/tensorflow/lite/kernels/internal/reference\arg_min_max.h ****     TFLITE_DCHECK_EQ(input1_shape.Dims(i), output_shape.Dims(i - 1));
 1180              		.loc 2 56 0
 1181 052c 012082E2 		add	r2, r2, #1
 1182              	.LVL143:
  58:C:/Renesas/e2studio_2021_01_workspace_RZA2M_ANPR/ANPR_RZA2M_GR_MANGO/src/tensorflow_lite/src/tensorflow/lite/kernels/internal/reference\arg_min_max.h ****   }
 1183              		.loc 2 58 0
 1184 0530 960E0EE0 		mul	lr, r6, lr
 1185              	.LVL144:
  56:C:/Renesas/e2studio_2021_01_workspace_RZA2M_ANPR/ANPR_RZA2M_GR_MANGO/src/tensorflow_lite/src/tensorflow/lite/kernels/internal/reference\arg_min_max.h ****     TFLITE_DCHECK_EQ(input1_shape.Dims(i), output_shape.Dims(i - 1));
 1186              		.loc 2 56 0
 1187 0534 040052E1 		cmp	r2, r4
 1188 0538 F2FFFFBA 		blt	.L26
 1189 053c 40FFFFEA 		b	.L27
 1190              	.LVL145:
 1191              	.L46:
 1192              	.LBE412:
 1193              	.LBB413:
 1194              	.LBB399:
  61:C:/Renesas/e2studio_2021_01_workspace_RZA2M_ANPR/ANPR_RZA2M_GR_MANGO/src/tensorflow_lite/src/tensorflow/lite/kernels/internal/reference\arg_min_max.h ****       auto min_max_value = input1_data[outer * axis_size * inner_size + inner];
 1195              		.loc 2 61 0
 1196 0540 05005EE1 		cmp	lr, r5
 1197              	.LBB398:
  63:C:/Renesas/e2studio_2021_01_workspace_RZA2M_ANPR/ANPR_RZA2M_GR_MANGO/src/tensorflow_lite/src/tensorflow/lite/kernels/internal/reference\arg_min_max.h ****       for (int i = 1; i < axis_size; ++i) {
 1198              		.loc 2 63 0
 1199 0544 0010A0E3 		mov	r1, #0
 1200              		.loc 2 72 0
 1201 0548 041084E4 		str	r1, [r4], #4
 1202              	.LVL146:
 1203              	.LBE398:
  61:C:/Renesas/e2studio_2021_01_workspace_RZA2M_ANPR/ANPR_RZA2M_GR_MANGO/src/tensorflow_lite/src/tensorflow/lite/kernels/internal/reference\arg_min_max.h ****       auto min_max_value = input1_data[outer * axis_size * inner_size + inner];
 1204              		.loc 2 61 0
 1205 054c 4AFFFF1A 		bne	.L29
 1206 0550 5BFFFFEA 		b	.L149
 1207              	.LVL147:
 1208              	.L148:
 1209 0554 F88FBDE8 		pop	{r3, r4, r5, r6, r7, r8, r9, r10, fp, pc}
 1210              	.LVL148:
 1211              	.L51:
 1212              	.LBE399:
 1213              	.LBE413:
  54:C:/Renesas/e2studio_2021_01_workspace_RZA2M_ANPR/ANPR_RZA2M_GR_MANGO/src/tensorflow_lite/src/tensorflow/lite/kernels/internal/reference\arg_min_max.h ****   const int dims_count = input1_shape.DimensionsCount();
 1214              		.loc 2 54 0
 1215 0558 01E0A0E3 		mov	lr, #1
 1216 055c 38FFFFEA 		b	.L27
 1217              	.LVL149:
 1218              	.L45:
 1219              	.LBB414:
  56:C:/Renesas/e2studio_2021_01_workspace_RZA2M_ANPR/ANPR_RZA2M_GR_MANGO/src/tensorflow_lite/src/tensorflow/lite/kernels/internal/reference\arg_min_max.h ****     TFLITE_DCHECK_EQ(input1_shape.Dims(i), output_shape.Dims(i - 1));
 1220              		.loc 2 56 0
 1221 0560 00E0A0E1 		mov	lr, r0
 1222 0564 36FFFFEA 		b	.L27
 1223              	.LVL150:
 1224              	.L15:
 1225 0568 012082E2 		add	r2, r2, #1
 1226              	.LVL151:
 1227 056c 040052E1 		cmp	r2, r4
 1228 0570 F8FFFFAA 		bge	.L51
 1229              	.LVL152:
 1230              	.L37:
 1231              	.LBB376:
 1232              	.LBB306:
 1233              		.loc 3 216 0
 1234 0574 0291A0E1 		lsl	r9, r2, #2
 1235              	.LBE306:
 1236              	.LBE376:
  57:C:/Renesas/e2studio_2021_01_workspace_RZA2M_ANPR/ANPR_RZA2M_GR_MANGO/src/tensorflow_lite/src/tensorflow/lite/kernels/internal/reference\arg_min_max.h ****     inner_size *= input1_shape.Dims(i);
 1237              		.loc 2 57 0
 1238 0578 010042E2 		sub	r0, r2, #1
 1239              	.LBB377:
 1240              	.LBB336:
 215:C:/Renesas/e2studio_2021_01_workspace_RZA2M_ANPR/ANPR_RZA2M_GR_MANGO/src/tensorflow_lite/src/tensorflow/lite/kernels/internal\types.h ****     return size_ > kMaxSmallSize ? dims_pointer_[i] : dims_[i];
 1241              		.loc 3 215 0
 1242 057c 000055E1 		cmp	r5, r0
 1243              	.LBE336:
 1244              	.LBE377:
 1245              	.LBB378:
 1246              	.LBB307:
 1247              		.loc 3 216 0
 1248 0580 09E086E0 		add	lr, r6, r9
 1249 0584 04E09EE5 		ldr	lr, [lr, #4]
 1250              	.LVL153:
 1251              	.LBE307:
 1252              	.LBE378:
 1253              	.LBB379:
 1254              	.LBB337:
 215:C:/Renesas/e2studio_2021_01_workspace_RZA2M_ANPR/ANPR_RZA2M_GR_MANGO/src/tensorflow_lite/src/tensorflow/lite/kernels/internal\types.h ****     return size_ > kMaxSmallSize ? dims_pointer_[i] : dims_[i];
 1255              		.loc 3 215 0
 1256 0588 DBFEFFDA 		ble	.L7
 1257              		.loc 3 216 0
 1258 058c 000183E0 		add	r0, r3, r0, lsl #2
 1259              	.LVL154:
 1260 0590 040090E5 		ldr	r0, [r0, #4]
 1261              	.LVL155:
 1262              	.LBE337:
 1263              	.LBE379:
  57:C:/Renesas/e2studio_2021_01_workspace_RZA2M_ANPR/ANPR_RZA2M_GR_MANGO/src/tensorflow_lite/src/tensorflow/lite/kernels/internal/reference\arg_min_max.h ****     inner_size *= input1_shape.Dims(i);
 1264              		.loc 2 57 0
 1265 0594 0E0050E1 		cmp	r0, lr
 1266 0598 D7FEFF1A 		bne	.L7
 1267              	.LVL156:
  56:C:/Renesas/e2studio_2021_01_workspace_RZA2M_ANPR/ANPR_RZA2M_GR_MANGO/src/tensorflow_lite/src/tensorflow/lite/kernels/internal/reference\arg_min_max.h ****     TFLITE_DCHECK_EQ(input1_shape.Dims(i), output_shape.Dims(i - 1));
 1268              		.loc 2 56 0
 1269 059c 01A082E2 		add	r10, r2, #1
 1270              	.LVL157:
 1271 05a0 0A0054E1 		cmp	r4, r10
 1272 05a4 EDFFFFDA 		ble	.L45
 1273              	.LVL158:
 1274              	.LBB380:
 1275              	.LBB308:
 1276              		.loc 3 216 0
 1277 05a8 0A81A0E1 		lsl	r8, r10, #2
 1278              	.LBE308:
 1279              	.LBE380:
 1280              	.LBB381:
 1281              	.LBB338:
 215:C:/Renesas/e2studio_2021_01_workspace_RZA2M_ANPR/ANPR_RZA2M_GR_MANGO/src/tensorflow_lite/src/tensorflow/lite/kernels/internal\types.h ****     return size_ > kMaxSmallSize ? dims_pointer_[i] : dims_[i];
 1282              		.loc 3 215 0
 1283 05ac 020055E1 		cmp	r5, r2
 1284              	.LBE338:
 1285              	.LBE381:
 1286              	.LBB382:
 1287              	.LBB309:
 1288              		.loc 3 216 0
 1289 05b0 08E086E0 		add	lr, r6, r8
 1290 05b4 04E09EE5 		ldr	lr, [lr, #4]
 1291              	.LVL159:
 1292              	.LBE309:
 1293              	.LBE382:
 1294              	.LBB383:
 1295              	.LBB339:
 215:C:/Renesas/e2studio_2021_01_workspace_RZA2M_ANPR/ANPR_RZA2M_GR_MANGO/src/tensorflow_lite/src/tensorflow/lite/kernels/internal\types.h ****     return size_ > kMaxSmallSize ? dims_pointer_[i] : dims_[i];
 1296              		.loc 3 215 0
 1297 05b8 CFFEFFDA 		ble	.L7
 1298              		.loc 3 216 0
 1299 05bc 099083E0 		add	r9, r3, r9
 1300 05c0 049099E5 		ldr	r9, [r9, #4]
 1301              	.LVL160:
 1302              	.LBE339:
 1303              	.LBE383:
  57:C:/Renesas/e2studio_2021_01_workspace_RZA2M_ANPR/ANPR_RZA2M_GR_MANGO/src/tensorflow_lite/src/tensorflow/lite/kernels/internal/reference\arg_min_max.h ****     inner_size *= input1_shape.Dims(i);
 1304              		.loc 2 57 0
 1305 05c4 09005EE1 		cmp	lr, r9
 1306 05c8 CBFEFF1A 		bne	.L7
  56:C:/Renesas/e2studio_2021_01_workspace_RZA2M_ANPR/ANPR_RZA2M_GR_MANGO/src/tensorflow_lite/src/tensorflow/lite/kernels/internal/reference\arg_min_max.h ****     TFLITE_DCHECK_EQ(input1_shape.Dims(i), output_shape.Dims(i - 1));
 1307              		.loc 2 56 0
 1308 05cc 029082E2 		add	r9, r2, #2
  58:C:/Renesas/e2studio_2021_01_workspace_RZA2M_ANPR/ANPR_RZA2M_GR_MANGO/src/tensorflow_lite/src/tensorflow/lite/kernels/internal/reference\arg_min_max.h ****   }
 1309              		.loc 2 58 0
 1310 05d0 9E000EE0 		mul	lr, lr, r0
 1311              	.LVL161:
  56:C:/Renesas/e2studio_2021_01_workspace_RZA2M_ANPR/ANPR_RZA2M_GR_MANGO/src/tensorflow_lite/src/tensorflow/lite/kernels/internal/reference\arg_min_max.h ****     TFLITE_DCHECK_EQ(input1_shape.Dims(i), output_shape.Dims(i - 1));
 1312              		.loc 2 56 0
 1313 05d4 090054E1 		cmp	r4, r9
 1314 05d8 19FFFFDA 		ble	.L27
 1315              	.LVL162:
 1316              	.LBB384:
 1317              	.LBB310:
 1318              		.loc 3 216 0
 1319 05dc 0901A0E1 		lsl	r0, r9, #2
 1320              	.LBE310:
 1321              	.LBE384:
 1322              	.LBB385:
 1323              	.LBB340:
 215:C:/Renesas/e2studio_2021_01_workspace_RZA2M_ANPR/ANPR_RZA2M_GR_MANGO/src/tensorflow_lite/src/tensorflow/lite/kernels/internal\types.h ****     return size_ > kMaxSmallSize ? dims_pointer_[i] : dims_[i];
 1324              		.loc 3 215 0
 1325 05e0 0A0055E1 		cmp	r5, r10
 1326              	.LBE340:
 1327              	.LBE385:
 1328              	.LBB386:
 1329              	.LBB311:
 1330              		.loc 3 216 0
 1331 05e4 00A086E0 		add	r10, r6, r0
 1332 05e8 04A09AE5 		ldr	r10, [r10, #4]
 1333              	.LVL163:
 1334              	.LBE311:
 1335              	.LBE386:
 1336              	.LBB387:
 1337              	.LBB341:
 215:C:/Renesas/e2studio_2021_01_workspace_RZA2M_ANPR/ANPR_RZA2M_GR_MANGO/src/tensorflow_lite/src/tensorflow/lite/kernels/internal\types.h ****     return size_ > kMaxSmallSize ? dims_pointer_[i] : dims_[i];
 1338              		.loc 3 215 0
 1339 05ec C2FEFFDA 		ble	.L7
 1340              		.loc 3 216 0
 1341 05f0 088083E0 		add	r8, r3, r8
 1342 05f4 048098E5 		ldr	r8, [r8, #4]
 1343              	.LVL164:
 1344              	.LBE341:
 1345              	.LBE387:
  57:C:/Renesas/e2studio_2021_01_workspace_RZA2M_ANPR/ANPR_RZA2M_GR_MANGO/src/tensorflow_lite/src/tensorflow/lite/kernels/internal/reference\arg_min_max.h ****     inner_size *= input1_shape.Dims(i);
 1346              		.loc 2 57 0
 1347 05f8 0A0058E1 		cmp	r8, r10
 1348 05fc BEFEFF1A 		bne	.L7
  56:C:/Renesas/e2studio_2021_01_workspace_RZA2M_ANPR/ANPR_RZA2M_GR_MANGO/src/tensorflow_lite/src/tensorflow/lite/kernels/internal/reference\arg_min_max.h ****     TFLITE_DCHECK_EQ(input1_shape.Dims(i), output_shape.Dims(i - 1));
 1349              		.loc 2 56 0
 1350 0600 032082E2 		add	r2, r2, #3
  58:C:/Renesas/e2studio_2021_01_workspace_RZA2M_ANPR/ANPR_RZA2M_GR_MANGO/src/tensorflow_lite/src/tensorflow/lite/kernels/internal/reference\arg_min_max.h ****   }
 1351              		.loc 2 58 0
 1352 0604 980E0EE0 		mul	lr, r8, lr
 1353              	.LVL165:
  56:C:/Renesas/e2studio_2021_01_workspace_RZA2M_ANPR/ANPR_RZA2M_GR_MANGO/src/tensorflow_lite/src/tensorflow/lite/kernels/internal/reference\arg_min_max.h ****     TFLITE_DCHECK_EQ(input1_shape.Dims(i), output_shape.Dims(i - 1));
 1354              		.loc 2 56 0
 1355 0608 020054E1 		cmp	r4, r2
 1356 060c 0CFFFFDA 		ble	.L27
 1357              	.LVL166:
 1358              	.LBB388:
 1359              	.LBB312:
 1360              		.loc 3 216 0
 1361 0610 022186E0 		add	r2, r6, r2, lsl #2
 1362              	.LVL167:
 1363              	.LBE312:
 1364              	.LBE388:
 1365              	.LBB389:
 1366              	.LBB342:
 215:C:/Renesas/e2studio_2021_01_workspace_RZA2M_ANPR/ANPR_RZA2M_GR_MANGO/src/tensorflow_lite/src/tensorflow/lite/kernels/internal\types.h ****     return size_ > kMaxSmallSize ? dims_pointer_[i] : dims_[i];
 1367              		.loc 3 215 0
 1368 0614 090055E1 		cmp	r5, r9
 1369              	.LBE342:
 1370              	.LBE389:
 1371              	.LBB390:
 1372              	.LBB313:
 1373              		.loc 3 216 0
 1374 0618 042092E5 		ldr	r2, [r2, #4]
 1375              	.LVL168:
 1376              	.LBE313:
 1377              	.LBE390:
 1378              	.LBB391:
 1379              	.LBB343:
 215:C:/Renesas/e2studio_2021_01_workspace_RZA2M_ANPR/ANPR_RZA2M_GR_MANGO/src/tensorflow_lite/src/tensorflow/lite/kernels/internal\types.h ****     return size_ > kMaxSmallSize ? dims_pointer_[i] : dims_[i];
 1380              		.loc 3 215 0
 1381 061c B6FEFFDA 		ble	.L7
 1382              		.loc 3 216 0
 1383 0620 003083E0 		add	r3, r3, r0
 1384              	.LVL169:
 1385 0624 043093E5 		ldr	r3, [r3, #4]
 1386              	.LVL170:
 1387              	.LBE343:
 1388              	.LBE391:
  57:C:/Renesas/e2studio_2021_01_workspace_RZA2M_ANPR/ANPR_RZA2M_GR_MANGO/src/tensorflow_lite/src/tensorflow/lite/kernels/internal/reference\arg_min_max.h ****     inner_size *= input1_shape.Dims(i);
 1389              		.loc 2 57 0
 1390 0628 020053E1 		cmp	r3, r2
 1391 062c 03FFFF0A 		beq	.L140
 1392 0630 B1FEFFEA 		b	.L7
 1393              	.LVL171:
 1394              	.L10:
  56:C:/Renesas/e2studio_2021_01_workspace_RZA2M_ANPR/ANPR_RZA2M_GR_MANGO/src/tensorflow_lite/src/tensorflow/lite/kernels/internal/reference\arg_min_max.h ****     TFLITE_DCHECK_EQ(input1_shape.Dims(i), output_shape.Dims(i - 1));
 1395              		.loc 2 56 0
 1396 0634 010054E3 		cmp	r4, #1
 1397 0638 0120A0E3 		mov	r2, #1
 1398              	.LVL172:
 1399 063c 080000DA 		ble	.L150
 1400 0640 050054E3 		cmp	r4, #5
 1401              	.LBE414:
  48:C:/Renesas/e2studio_2021_01_workspace_RZA2M_ANPR/ANPR_RZA2M_GR_MANGO/src/tensorflow_lite/src/tensorflow/lite/kernels/internal/reference\arg_min_max.h ****   for (int i = 0; i < axis; ++i) {
 1402              		.loc 2 48 0
 1403 0644 0270A0E1 		mov	r7, r2
 1404 0648 020000CA 		bgt	.L22
 1405 064c 050055E3 		cmp	r5, #5
 1406 0650 C7FFFFDA 		ble	.L37
 1407 0654 CEFEFFEA 		b	.L23
 1408              	.L22:
 1409 0658 050055E3 		cmp	r5, #5
 1410 065c 53FFFFDA 		ble	.L36
 1411 0660 A3FFFFEA 		b	.L25
 1412              	.L150:
 1413 0664 0270A0E1 		mov	r7, r2
  54:C:/Renesas/e2studio_2021_01_workspace_RZA2M_ANPR/ANPR_RZA2M_GR_MANGO/src/tensorflow_lite/src/tensorflow/lite/kernels/internal/reference\arg_min_max.h ****   const int dims_count = input1_shape.DimensionsCount();
 1414              		.loc 2 54 0
 1415 0668 02E0A0E1 		mov	lr, r2
 1416 066c F8FEFFEA 		b	.L34
 1417              		.cfi_endproc
 1418              	.LFE1976:
 1419              		.fnend
 1421              		.section	.text._ZN6tflite13reference_ops9ArgMinMaxIfllNS_3ops5micro4LessEEEvRKNS_12RuntimeShapeEPK
 1422              		.align	2
 1423              		.weak	_ZN6tflite13reference_ops9ArgMinMaxIfllNS_3ops5micro4LessEEEvRKNS_12RuntimeShapeEPKT_PKT1_S7
 1424              		.syntax unified
 1425              		.arm
 1426              		.fpu neon
 1428              	_ZN6tflite13reference_ops9ArgMinMaxIfllNS_3ops5micro4LessEEEvRKNS_12RuntimeShapeEPKT_PKT1_S7_PT0_RK
 1429              		.fnstart
 1430              	.LFB1977:
  36:C:/Renesas/e2studio_2021_01_workspace_RZA2M_ANPR/ANPR_RZA2M_GR_MANGO/src/tensorflow_lite/src/tensorflow/lite/kernels/internal/reference\arg_min_max.h ****                const T3* input2_data, const RuntimeShape& output_shape,
 1431              		.loc 2 36 0
 1432              		.cfi_startproc
 1433              		@ args = 8, pretend = 0, frame = 0
 1434              		@ frame_needed = 0, uses_anonymous_args = 0
 1435              	.LVL173:
 1436 0000 F84F2DE9 		push	{r3, r4, r5, r6, r7, r8, r9, r10, fp, lr}
 1437              		.save {r3, r4, r5, r6, r7, r8, r9, r10, fp, lr}
 1438              		.cfi_def_cfa_offset 40
 1439              		.cfi_offset 3, -40
 1440              		.cfi_offset 4, -36
 1441              		.cfi_offset 5, -32
 1442              		.cfi_offset 6, -28
 1443              		.cfi_offset 7, -24
 1444              		.cfi_offset 8, -20
 1445              		.cfi_offset 9, -16
 1446              		.cfi_offset 10, -12
 1447              		.cfi_offset 11, -8
 1448              		.cfi_offset 14, -4
 1449 0004 004090E5 		ldr	r4, [r0]
 1450              	.LVL174:
  39:C:/Renesas/e2studio_2021_01_workspace_RZA2M_ANPR/ANPR_RZA2M_GR_MANGO/src/tensorflow_lite/src/tensorflow/lite/kernels/internal/reference\arg_min_max.h ****   TFLITE_DCHECK_EQ(input1_shape.DimensionsCount() - 1,
 1451              		.loc 2 39 0
 1452 0008 000054E3 		cmp	r4, #0
 1453 000c 3A0000DA 		ble	.L153
 1454 0010 0060A0E1 		mov	r6, r0
 1455              	.LVL175:
  40:C:/Renesas/e2studio_2021_01_workspace_RZA2M_ANPR/ANPR_RZA2M_GR_MANGO/src/tensorflow_lite/src/tensorflow/lite/kernels/internal/reference\arg_min_max.h ****                    output_shape.DimensionsCount());
 1456              		.loc 2 40 0
 1457 0014 000093E5 		ldr	r0, [r3]
 1458              	.LVL176:
 1459 0018 015044E2 		sub	r5, r4, #1
 1460              	.LVL177:
 1461 001c 000055E1 		cmp	r5, r0
 1462 0020 3500001A 		bne	.L153
  42:C:/Renesas/e2studio_2021_01_workspace_RZA2M_ANPR/ANPR_RZA2M_GR_MANGO/src/tensorflow_lite/src/tensorflow/lite/kernels/internal/reference\arg_min_max.h ****   if (axis < 0) {
 1463              		.loc 2 42 0
 1464 0024 002092E5 		ldr	r2, [r2]
 1465              	.LVL178:
  43:C:/Renesas/e2studio_2021_01_workspace_RZA2M_ANPR/ANPR_RZA2M_GR_MANGO/src/tensorflow_lite/src/tensorflow/lite/kernels/internal/reference\arg_min_max.h ****     axis += input1_shape.DimensionsCount();
 1466              		.loc 2 43 0
 1467 0028 000052E3 		cmp	r2, #0
 1468 002c 190100BA 		blt	.L290
 1469              	.LVL179:
 1470              	.L154:
 1471              	.LBB436:
 1472              	.LBB437:
 215:C:/Renesas/e2studio_2021_01_workspace_RZA2M_ANPR/ANPR_RZA2M_GR_MANGO/src/tensorflow_lite/src/tensorflow/lite/kernels/internal\types.h ****     return size_ > kMaxSmallSize ? dims_pointer_[i] : dims_[i];
 1473              		.loc 3 215 0
 1474 0030 020054E1 		cmp	r4, r2
 1475 0034 300000DA 		ble	.L153
 1476              		.loc 3 216 0
 1477 0038 050054E3 		cmp	r4, #5
 1478 003c A60000CA 		bgt	.L291
 1479 0040 020186E0 		add	r0, r6, r2, lsl #2
 1480              	.LBE437:
 1481              	.LBE436:
 1482              	.LBB442:
  49:C:/Renesas/e2studio_2021_01_workspace_RZA2M_ANPR/ANPR_RZA2M_GR_MANGO/src/tensorflow_lite/src/tensorflow/lite/kernels/internal/reference\arg_min_max.h ****     TFLITE_DCHECK_EQ(input1_shape.Dims(i), output_shape.Dims(i));
 1483              		.loc 2 49 0
 1484 0044 000052E3 		cmp	r2, #0
 1485              	.LBE442:
 1486              	.LBB529:
 1487              	.LBB438:
 1488              		.loc 3 216 0
 1489 0048 04C090E5 		ldr	ip, [r0, #4]
 1490              	.LVL180:
 1491              	.LBE438:
 1492              	.LBE529:
 1493              	.LBB530:
  49:C:/Renesas/e2studio_2021_01_workspace_RZA2M_ANPR/ANPR_RZA2M_GR_MANGO/src/tensorflow_lite/src/tensorflow/lite/kernels/internal/reference\arg_min_max.h ****     TFLITE_DCHECK_EQ(input1_shape.Dims(i), output_shape.Dims(i));
 1494              		.loc 2 49 0
 1495 004c 7801000A 		beq	.L156
 1496 0050 050055E3 		cmp	r5, #5
 1497 0054 290000CA 		bgt	.L160
 1498              	.LVL181:
 1499              	.LBB443:
 1500              	.LBB444:
 215:C:/Renesas/e2studio_2021_01_workspace_RZA2M_ANPR/ANPR_RZA2M_GR_MANGO/src/tensorflow_lite/src/tensorflow/lite/kernels/internal\types.h ****     return size_ > kMaxSmallSize ? dims_pointer_[i] : dims_[i];
 1501              		.loc 3 215 0
 1502 0058 000055E3 		cmp	r5, #0
 1503              	.LBE444:
 1504              	.LBE443:
 1505              	.LBB469:
 1506              	.LBB470:
 1507              		.loc 3 216 0
 1508 005c 047096E5 		ldr	r7, [r6, #4]
 1509              	.LVL182:
 1510              	.LBE470:
 1511              	.LBE469:
 1512              	.LBB488:
 1513              	.LBB445:
 215:C:/Renesas/e2studio_2021_01_workspace_RZA2M_ANPR/ANPR_RZA2M_GR_MANGO/src/tensorflow_lite/src/tensorflow/lite/kernels/internal\types.h ****     return size_ > kMaxSmallSize ? dims_pointer_[i] : dims_[i];
 1514              		.loc 3 215 0
 1515 0060 2500000A 		beq	.L153
 1516              	.LVL183:
 1517              	.LBE445:
 1518              	.LBE488:
  50:C:/Renesas/e2studio_2021_01_workspace_RZA2M_ANPR/ANPR_RZA2M_GR_MANGO/src/tensorflow_lite/src/tensorflow/lite/kernels/internal/reference\arg_min_max.h ****     outer_size *= input1_shape.Dims(i);
 1519              		.loc 2 50 0
 1520 0064 040093E5 		ldr	r0, [r3, #4]
 1521 0068 000057E1 		cmp	r7, r0
 1522 006c 2200001A 		bne	.L153
 1523              	.LVL184:
  49:C:/Renesas/e2studio_2021_01_workspace_RZA2M_ANPR/ANPR_RZA2M_GR_MANGO/src/tensorflow_lite/src/tensorflow/lite/kernels/internal/reference\arg_min_max.h ****     TFLITE_DCHECK_EQ(input1_shape.Dims(i), output_shape.Dims(i));
 1524              		.loc 2 49 0
 1525 0070 010052E3 		cmp	r2, #1
 1526 0074 3B01000A 		beq	.L161
 1527              	.LVL185:
 1528              	.LBB489:
 1529              	.LBB471:
 215:C:/Renesas/e2studio_2021_01_workspace_RZA2M_ANPR/ANPR_RZA2M_GR_MANGO/src/tensorflow_lite/src/tensorflow/lite/kernels/internal\types.h ****     return size_ > kMaxSmallSize ? dims_pointer_[i] : dims_[i];
 1530              		.loc 3 215 0
 1531 0078 010054E3 		cmp	r4, #1
 1532 007c 1E00000A 		beq	.L153
 1533              	.LBE471:
 1534              	.LBE489:
 1535              	.LBB490:
 1536              	.LBB446:
 1537 0080 010055E3 		cmp	r5, #1
 1538              	.LBE446:
 1539              	.LBE490:
 1540              	.LBB491:
 1541              	.LBB472:
 1542              		.loc 3 216 0
 1543 0084 080096E5 		ldr	r0, [r6, #8]
 1544              	.LVL186:
 1545              	.LBE472:
 1546              	.LBE491:
 1547              	.LBB492:
 1548              	.LBB447:
 215:C:/Renesas/e2studio_2021_01_workspace_RZA2M_ANPR/ANPR_RZA2M_GR_MANGO/src/tensorflow_lite/src/tensorflow/lite/kernels/internal\types.h ****     return size_ > kMaxSmallSize ? dims_pointer_[i] : dims_[i];
 1549              		.loc 3 215 0
 1550 0088 1B00000A 		beq	.L153
 1551              	.LVL187:
 1552              	.LBE447:
 1553              	.LBE492:
  50:C:/Renesas/e2studio_2021_01_workspace_RZA2M_ANPR/ANPR_RZA2M_GR_MANGO/src/tensorflow_lite/src/tensorflow/lite/kernels/internal/reference\arg_min_max.h ****     outer_size *= input1_shape.Dims(i);
 1554              		.loc 2 50 0
 1555 008c 08E093E5 		ldr	lr, [r3, #8]
 1556 0090 0E0050E1 		cmp	r0, lr
 1557 0094 1800001A 		bne	.L153
  49:C:/Renesas/e2studio_2021_01_workspace_RZA2M_ANPR/ANPR_RZA2M_GR_MANGO/src/tensorflow_lite/src/tensorflow/lite/kernels/internal/reference\arg_min_max.h ****     TFLITE_DCHECK_EQ(input1_shape.Dims(i), output_shape.Dims(i));
 1558              		.loc 2 49 0
 1559 0098 020052E3 		cmp	r2, #2
  51:C:/Renesas/e2studio_2021_01_workspace_RZA2M_ANPR/ANPR_RZA2M_GR_MANGO/src/tensorflow_lite/src/tensorflow/lite/kernels/internal/reference\arg_min_max.h ****   }
 1560              		.loc 2 51 0
 1561 009c 900707E0 		mul	r7, r0, r7
 1562              	.LVL188:
  49:C:/Renesas/e2studio_2021_01_workspace_RZA2M_ANPR/ANPR_RZA2M_GR_MANGO/src/tensorflow_lite/src/tensorflow/lite/kernels/internal/reference\arg_min_max.h ****     TFLITE_DCHECK_EQ(input1_shape.Dims(i), output_shape.Dims(i));
 1563              		.loc 2 49 0
 1564 00a0 3001000A 		beq	.L161
 1565              	.LVL189:
 1566              	.LBB493:
 1567              	.LBB473:
 215:C:/Renesas/e2studio_2021_01_workspace_RZA2M_ANPR/ANPR_RZA2M_GR_MANGO/src/tensorflow_lite/src/tensorflow/lite/kernels/internal\types.h ****     return size_ > kMaxSmallSize ? dims_pointer_[i] : dims_[i];
 1568              		.loc 3 215 0
 1569 00a4 020054E3 		cmp	r4, #2
 1570 00a8 1300000A 		beq	.L153
 1571              	.LBE473:
 1572              	.LBE493:
 1573              	.LBB494:
 1574              	.LBB448:
 1575 00ac 020055E3 		cmp	r5, #2
 1576              	.LBE448:
 1577              	.LBE494:
 1578              	.LBB495:
 1579              	.LBB474:
 1580              		.loc 3 216 0
 1581 00b0 0C0096E5 		ldr	r0, [r6, #12]
 1582              	.LVL190:
 1583              	.LBE474:
 1584              	.LBE495:
 1585              	.LBB496:
 1586              	.LBB449:
 215:C:/Renesas/e2studio_2021_01_workspace_RZA2M_ANPR/ANPR_RZA2M_GR_MANGO/src/tensorflow_lite/src/tensorflow/lite/kernels/internal\types.h ****     return size_ > kMaxSmallSize ? dims_pointer_[i] : dims_[i];
 1587              		.loc 3 215 0
 1588 00b4 1000000A 		beq	.L153
 1589              	.LVL191:
 1590              	.LBE449:
 1591              	.LBE496:
  50:C:/Renesas/e2studio_2021_01_workspace_RZA2M_ANPR/ANPR_RZA2M_GR_MANGO/src/tensorflow_lite/src/tensorflow/lite/kernels/internal/reference\arg_min_max.h ****     outer_size *= input1_shape.Dims(i);
 1592              		.loc 2 50 0
 1593 00b8 0CE093E5 		ldr	lr, [r3, #12]
 1594 00bc 0E0050E1 		cmp	r0, lr
 1595 00c0 0D00001A 		bne	.L153
  49:C:/Renesas/e2studio_2021_01_workspace_RZA2M_ANPR/ANPR_RZA2M_GR_MANGO/src/tensorflow_lite/src/tensorflow/lite/kernels/internal/reference\arg_min_max.h ****     TFLITE_DCHECK_EQ(input1_shape.Dims(i), output_shape.Dims(i));
 1596              		.loc 2 49 0
 1597 00c4 030052E3 		cmp	r2, #3
  51:C:/Renesas/e2studio_2021_01_workspace_RZA2M_ANPR/ANPR_RZA2M_GR_MANGO/src/tensorflow_lite/src/tensorflow/lite/kernels/internal/reference\arg_min_max.h ****   }
 1598              		.loc 2 51 0
 1599 00c8 900707E0 		mul	r7, r0, r7
 1600              	.LVL192:
  49:C:/Renesas/e2studio_2021_01_workspace_RZA2M_ANPR/ANPR_RZA2M_GR_MANGO/src/tensorflow_lite/src/tensorflow/lite/kernels/internal/reference\arg_min_max.h ****     TFLITE_DCHECK_EQ(input1_shape.Dims(i), output_shape.Dims(i));
 1601              		.loc 2 49 0
 1602 00cc 2501000A 		beq	.L161
 1603              	.LVL193:
 1604              	.LBB497:
 1605              	.LBB475:
 215:C:/Renesas/e2studio_2021_01_workspace_RZA2M_ANPR/ANPR_RZA2M_GR_MANGO/src/tensorflow_lite/src/tensorflow/lite/kernels/internal\types.h ****     return size_ > kMaxSmallSize ? dims_pointer_[i] : dims_[i];
 1606              		.loc 3 215 0
 1607 00d0 030054E3 		cmp	r4, #3
 1608 00d4 0800000A 		beq	.L153
 1609              	.LBE475:
 1610              	.LBE497:
 1611              	.LBB498:
 1612              	.LBB450:
 1613 00d8 030055E3 		cmp	r5, #3
 1614              	.LBE450:
 1615              	.LBE498:
 1616              	.LBB499:
 1617              	.LBB476:
 1618              		.loc 3 216 0
 1619 00dc 100096E5 		ldr	r0, [r6, #16]
 1620              	.LVL194:
 1621              	.LBE476:
 1622              	.LBE499:
 1623              	.LBB500:
 1624              	.LBB451:
 215:C:/Renesas/e2studio_2021_01_workspace_RZA2M_ANPR/ANPR_RZA2M_GR_MANGO/src/tensorflow_lite/src/tensorflow/lite/kernels/internal\types.h ****     return size_ > kMaxSmallSize ? dims_pointer_[i] : dims_[i];
 1625              		.loc 3 215 0
 1626 00e0 0500000A 		beq	.L153
 1627              	.LVL195:
 1628              	.LBE451:
 1629              	.LBE500:
  50:C:/Renesas/e2studio_2021_01_workspace_RZA2M_ANPR/ANPR_RZA2M_GR_MANGO/src/tensorflow_lite/src/tensorflow/lite/kernels/internal/reference\arg_min_max.h ****     outer_size *= input1_shape.Dims(i);
 1630              		.loc 2 50 0
 1631 00e4 10E093E5 		ldr	lr, [r3, #16]
 1632 00e8 0E0050E1 		cmp	r0, lr
 1633 00ec 0200001A 		bne	.L153
  49:C:/Renesas/e2studio_2021_01_workspace_RZA2M_ANPR/ANPR_RZA2M_GR_MANGO/src/tensorflow_lite/src/tensorflow/lite/kernels/internal/reference\arg_min_max.h ****     TFLITE_DCHECK_EQ(input1_shape.Dims(i), output_shape.Dims(i));
 1634              		.loc 2 49 0
 1635 00f0 040052E3 		cmp	r2, #4
  51:C:/Renesas/e2studio_2021_01_workspace_RZA2M_ANPR/ANPR_RZA2M_GR_MANGO/src/tensorflow_lite/src/tensorflow/lite/kernels/internal/reference\arg_min_max.h ****   }
 1636              		.loc 2 51 0
 1637 00f4 900707E0 		mul	r7, r0, r7
 1638              	.LVL196:
  49:C:/Renesas/e2studio_2021_01_workspace_RZA2M_ANPR/ANPR_RZA2M_GR_MANGO/src/tensorflow_lite/src/tensorflow/lite/kernels/internal/reference\arg_min_max.h ****     TFLITE_DCHECK_EQ(input1_shape.Dims(i), output_shape.Dims(i));
 1639              		.loc 2 49 0
 1640 00f8 1A01000A 		beq	.L161
 1641              	.LVL197:
 1642              	.L153:
 1643              	.LBE530:
  39:C:/Renesas/e2studio_2021_01_workspace_RZA2M_ANPR/ANPR_RZA2M_GR_MANGO/src/tensorflow_lite/src/tensorflow/lite/kernels/internal/reference\arg_min_max.h ****   TFLITE_DCHECK_EQ(input1_shape.DimensionsCount() - 1,
 1644              		.loc 2 39 0 discriminator 1
 1645 00fc FEFFFFEB 		bl	abort
 1646              	.LVL198:
 1647              	.L160:
 1648              	.LBB531:
 1649              	.LBB501:
 1650              	.LBB452:
 1651              		.loc 3 216 0
 1652 0100 040093E5 		ldr	r0, [r3, #4]
 1653              	.LBE452:
 1654              	.LBE501:
 1655              	.LBB502:
 1656              	.LBB477:
 1657 0104 047096E5 		ldr	r7, [r6, #4]
 1658              	.LVL199:
 1659              	.LBE477:
 1660              	.LBE502:
 1661              	.LBB503:
 1662              	.LBB453:
 1663 0108 00E090E5 		ldr	lr, [r0]
 1664              	.LVL200:
 1665              	.LBE453:
 1666              	.LBE503:
  50:C:/Renesas/e2studio_2021_01_workspace_RZA2M_ANPR/ANPR_RZA2M_GR_MANGO/src/tensorflow_lite/src/tensorflow/lite/kernels/internal/reference\arg_min_max.h ****     outer_size *= input1_shape.Dims(i);
 1667              		.loc 2 50 0
 1668 010c 0E0057E1 		cmp	r7, lr
 1669 0110 F9FFFF1A 		bne	.L153
 1670              	.LVL201:
  49:C:/Renesas/e2studio_2021_01_workspace_RZA2M_ANPR/ANPR_RZA2M_GR_MANGO/src/tensorflow_lite/src/tensorflow/lite/kernels/internal/reference\arg_min_max.h ****     TFLITE_DCHECK_EQ(input1_shape.Dims(i), output_shape.Dims(i));
 1671              		.loc 2 49 0
 1672 0114 010052E3 		cmp	r2, #1
 1673 0118 1A00000A 		beq	.L162
 1674              	.LVL202:
 1675              	.LBB504:
 1676              	.LBB478:
 215:C:/Renesas/e2studio_2021_01_workspace_RZA2M_ANPR/ANPR_RZA2M_GR_MANGO/src/tensorflow_lite/src/tensorflow/lite/kernels/internal\types.h ****     return size_ > kMaxSmallSize ? dims_pointer_[i] : dims_[i];
 1677              		.loc 3 215 0
 1678 011c 010054E3 		cmp	r4, #1
 1679 0120 F5FFFF0A 		beq	.L153
 1680              	.LVL203:
 1681              	.LBE478:
 1682              	.LBE504:
 1683              	.LBB505:
 1684              	.LBB454:
 1685              		.loc 3 216 0
 1686 0124 048090E5 		ldr	r8, [r0, #4]
 1687              	.LVL204:
 1688              	.LBE454:
 1689              	.LBE505:
  50:C:/Renesas/e2studio_2021_01_workspace_RZA2M_ANPR/ANPR_RZA2M_GR_MANGO/src/tensorflow_lite/src/tensorflow/lite/kernels/internal/reference\arg_min_max.h ****     outer_size *= input1_shape.Dims(i);
 1690              		.loc 2 50 0
 1691 0128 08E096E5 		ldr	lr, [r6, #8]
 1692 012c 08005EE1 		cmp	lr, r8
 1693 0130 F1FFFF1A 		bne	.L153
  49:C:/Renesas/e2studio_2021_01_workspace_RZA2M_ANPR/ANPR_RZA2M_GR_MANGO/src/tensorflow_lite/src/tensorflow/lite/kernels/internal/reference\arg_min_max.h ****     TFLITE_DCHECK_EQ(input1_shape.Dims(i), output_shape.Dims(i));
 1694              		.loc 2 49 0
 1695 0134 020052E3 		cmp	r2, #2
  51:C:/Renesas/e2studio_2021_01_workspace_RZA2M_ANPR/ANPR_RZA2M_GR_MANGO/src/tensorflow_lite/src/tensorflow/lite/kernels/internal/reference\arg_min_max.h ****   }
 1696              		.loc 2 51 0
 1697 0138 9E0707E0 		mul	r7, lr, r7
 1698              	.LVL205:
  49:C:/Renesas/e2studio_2021_01_workspace_RZA2M_ANPR/ANPR_RZA2M_GR_MANGO/src/tensorflow_lite/src/tensorflow/lite/kernels/internal/reference\arg_min_max.h ****     TFLITE_DCHECK_EQ(input1_shape.Dims(i), output_shape.Dims(i));
 1699              		.loc 2 49 0
 1700 013c 1100000A 		beq	.L162
 1701              	.LVL206:
 1702              	.LBB506:
 1703              	.LBB479:
 215:C:/Renesas/e2studio_2021_01_workspace_RZA2M_ANPR/ANPR_RZA2M_GR_MANGO/src/tensorflow_lite/src/tensorflow/lite/kernels/internal\types.h ****     return size_ > kMaxSmallSize ? dims_pointer_[i] : dims_[i];
 1704              		.loc 3 215 0
 1705 0140 020054E3 		cmp	r4, #2
 1706 0144 ECFFFF0A 		beq	.L153
 1707              	.LVL207:
 1708              	.LBE479:
 1709              	.LBE506:
 1710              	.LBB507:
 1711              	.LBB455:
 1712              		.loc 3 216 0
 1713 0148 088090E5 		ldr	r8, [r0, #8]
 1714              	.LVL208:
 1715              	.LBE455:
 1716              	.LBE507:
  50:C:/Renesas/e2studio_2021_01_workspace_RZA2M_ANPR/ANPR_RZA2M_GR_MANGO/src/tensorflow_lite/src/tensorflow/lite/kernels/internal/reference\arg_min_max.h ****     outer_size *= input1_shape.Dims(i);
 1717              		.loc 2 50 0
 1718 014c 0CE096E5 		ldr	lr, [r6, #12]
 1719 0150 08005EE1 		cmp	lr, r8
 1720 0154 E8FFFF1A 		bne	.L153
  49:C:/Renesas/e2studio_2021_01_workspace_RZA2M_ANPR/ANPR_RZA2M_GR_MANGO/src/tensorflow_lite/src/tensorflow/lite/kernels/internal/reference\arg_min_max.h ****     TFLITE_DCHECK_EQ(input1_shape.Dims(i), output_shape.Dims(i));
 1721              		.loc 2 49 0
 1722 0158 030052E3 		cmp	r2, #3
  51:C:/Renesas/e2studio_2021_01_workspace_RZA2M_ANPR/ANPR_RZA2M_GR_MANGO/src/tensorflow_lite/src/tensorflow/lite/kernels/internal/reference\arg_min_max.h ****   }
 1723              		.loc 2 51 0
 1724 015c 9E0707E0 		mul	r7, lr, r7
 1725              	.LVL209:
  49:C:/Renesas/e2studio_2021_01_workspace_RZA2M_ANPR/ANPR_RZA2M_GR_MANGO/src/tensorflow_lite/src/tensorflow/lite/kernels/internal/reference\arg_min_max.h ****     TFLITE_DCHECK_EQ(input1_shape.Dims(i), output_shape.Dims(i));
 1726              		.loc 2 49 0
 1727 0160 0800000A 		beq	.L162
 1728              	.LVL210:
 1729              	.LBB508:
 1730              	.LBB480:
 215:C:/Renesas/e2studio_2021_01_workspace_RZA2M_ANPR/ANPR_RZA2M_GR_MANGO/src/tensorflow_lite/src/tensorflow/lite/kernels/internal\types.h ****     return size_ > kMaxSmallSize ? dims_pointer_[i] : dims_[i];
 1731              		.loc 3 215 0
 1732 0164 030054E3 		cmp	r4, #3
 1733 0168 E3FFFF0A 		beq	.L153
 1734              	.LVL211:
 1735              	.LBE480:
 1736              	.LBE508:
 1737              	.LBB509:
 1738              	.LBB456:
 1739              		.loc 3 216 0
 1740 016c 0CE090E5 		ldr	lr, [r0, #12]
 1741              	.LVL212:
 1742              	.LBE456:
 1743              	.LBE509:
  50:C:/Renesas/e2studio_2021_01_workspace_RZA2M_ANPR/ANPR_RZA2M_GR_MANGO/src/tensorflow_lite/src/tensorflow/lite/kernels/internal/reference\arg_min_max.h ****     outer_size *= input1_shape.Dims(i);
 1744              		.loc 2 50 0
 1745 0170 100096E5 		ldr	r0, [r6, #16]
 1746 0174 0E0050E1 		cmp	r0, lr
 1747 0178 DFFFFF1A 		bne	.L153
  49:C:/Renesas/e2studio_2021_01_workspace_RZA2M_ANPR/ANPR_RZA2M_GR_MANGO/src/tensorflow_lite/src/tensorflow/lite/kernels/internal/reference\arg_min_max.h ****     TFLITE_DCHECK_EQ(input1_shape.Dims(i), output_shape.Dims(i));
 1748              		.loc 2 49 0
 1749 017c 040052E3 		cmp	r2, #4
  51:C:/Renesas/e2studio_2021_01_workspace_RZA2M_ANPR/ANPR_RZA2M_GR_MANGO/src/tensorflow_lite/src/tensorflow/lite/kernels/internal/reference\arg_min_max.h ****   }
 1750              		.loc 2 51 0
 1751 0180 900707E0 		mul	r7, r0, r7
 1752              	.LVL213:
  49:C:/Renesas/e2studio_2021_01_workspace_RZA2M_ANPR/ANPR_RZA2M_GR_MANGO/src/tensorflow_lite/src/tensorflow/lite/kernels/internal/reference\arg_min_max.h ****     TFLITE_DCHECK_EQ(input1_shape.Dims(i), output_shape.Dims(i));
 1753              		.loc 2 49 0
 1754 0184 DCFFFF1A 		bne	.L153
 1755              	.LVL214:
 1756              	.L162:
 1757              	.LBE531:
 1758              	.LBB532:
  56:C:/Renesas/e2studio_2021_01_workspace_RZA2M_ANPR/ANPR_RZA2M_GR_MANGO/src/tensorflow_lite/src/tensorflow/lite/kernels/internal/reference\arg_min_max.h ****     TFLITE_DCHECK_EQ(input1_shape.Dims(i), output_shape.Dims(i - 1));
 1759              		.loc 2 56 0
 1760 0188 012082E2 		add	r2, r2, #1
 1761              	.LVL215:
 1762 018c 040052E1 		cmp	r2, r4
 1763 0190 F00000AA 		bge	.L197
 1764              	.LVL216:
 1765              	.L169:
  57:C:/Renesas/e2studio_2021_01_workspace_RZA2M_ANPR/ANPR_RZA2M_GR_MANGO/src/tensorflow_lite/src/tensorflow/lite/kernels/internal/reference\arg_min_max.h ****     inner_size *= input1_shape.Dims(i);
 1766              		.loc 2 57 0
 1767 0194 010042E2 		sub	r0, r2, #1
 1768              	.LBB533:
 1769              	.LBB534:
 1770              		.loc 3 216 0
 1771 0198 02E186E0 		add	lr, r6, r2, lsl #2
 1772              	.LBE534:
 1773              	.LBE533:
 1774              	.LBB555:
 1775              	.LBB556:
 215:C:/Renesas/e2studio_2021_01_workspace_RZA2M_ANPR/ANPR_RZA2M_GR_MANGO/src/tensorflow_lite/src/tensorflow/lite/kernels/internal\types.h ****     return size_ > kMaxSmallSize ? dims_pointer_[i] : dims_[i];
 1776              		.loc 3 215 0
 1777 019c 000055E1 		cmp	r5, r0
 1778              	.LBE556:
 1779              	.LBE555:
 1780              	.LBB585:
 1781              	.LBB535:
 1782              		.loc 3 216 0
 1783 01a0 04809EE5 		ldr	r8, [lr, #4]
 1784              	.LVL217:
 1785              	.LBE535:
 1786              	.LBE585:
 1787              	.LBB586:
 1788              	.LBB557:
 215:C:/Renesas/e2studio_2021_01_workspace_RZA2M_ANPR/ANPR_RZA2M_GR_MANGO/src/tensorflow_lite/src/tensorflow/lite/kernels/internal\types.h ****     return size_ > kMaxSmallSize ? dims_pointer_[i] : dims_[i];
 1789              		.loc 3 215 0
 1790 01a4 D4FFFFDA 		ble	.L153
 1791              		.loc 3 216 0
 1792 01a8 043093E5 		ldr	r3, [r3, #4]
 1793              	.LVL218:
 1794 01ac 00E1A0E1 		lsl	lr, r0, #2
 1795 01b0 000193E7 		ldr	r0, [r3, r0, lsl #2]
 1796              	.LVL219:
 1797              	.LBE557:
 1798              	.LBE586:
  57:C:/Renesas/e2studio_2021_01_workspace_RZA2M_ANPR/ANPR_RZA2M_GR_MANGO/src/tensorflow_lite/src/tensorflow/lite/kernels/internal/reference\arg_min_max.h ****     inner_size *= input1_shape.Dims(i);
 1799              		.loc 2 57 0
 1800 01b4 080050E1 		cmp	r0, r8
 1801 01b8 CFFFFF1A 		bne	.L153
 1802              	.LVL220:
  56:C:/Renesas/e2studio_2021_01_workspace_RZA2M_ANPR/ANPR_RZA2M_GR_MANGO/src/tensorflow_lite/src/tensorflow/lite/kernels/internal/reference\arg_min_max.h ****     TFLITE_DCHECK_EQ(input1_shape.Dims(i), output_shape.Dims(i - 1));
 1803              		.loc 2 56 0
 1804 01bc 019082E2 		add	r9, r2, #1
 1805              	.LVL221:
 1806 01c0 090054E1 		cmp	r4, r9
 1807 01c4 E50000DA 		ble	.L191
 1808              	.LVL222:
 1809              	.LBB587:
 1810              	.LBB536:
 1811              		.loc 3 216 0
 1812 01c8 098186E0 		add	r8, r6, r9, lsl #2
 1813              	.LBE536:
 1814              	.LBE587:
 1815              	.LBB588:
 1816              	.LBB558:
 215:C:/Renesas/e2studio_2021_01_workspace_RZA2M_ANPR/ANPR_RZA2M_GR_MANGO/src/tensorflow_lite/src/tensorflow/lite/kernels/internal\types.h ****     return size_ > kMaxSmallSize ? dims_pointer_[i] : dims_[i];
 1817              		.loc 3 215 0
 1818 01cc 020055E1 		cmp	r5, r2
 1819              	.LBE558:
 1820              	.LBE588:
 1821              	.LBB589:
 1822              	.LBB537:
 1823              		.loc 3 216 0
 1824 01d0 048098E5 		ldr	r8, [r8, #4]
 1825              	.LVL223:
 1826              	.LBE537:
 1827              	.LBE589:
 1828              	.LBB590:
 1829              	.LBB559:
 215:C:/Renesas/e2studio_2021_01_workspace_RZA2M_ANPR/ANPR_RZA2M_GR_MANGO/src/tensorflow_lite/src/tensorflow/lite/kernels/internal\types.h ****     return size_ > kMaxSmallSize ? dims_pointer_[i] : dims_[i];
 1830              		.loc 3 215 0
 1831 01d4 C8FFFFDA 		ble	.L153
 1832              		.loc 3 216 0
 1833 01d8 0E3083E0 		add	r3, r3, lr
 1834 01dc 04E093E5 		ldr	lr, [r3, #4]
 1835              	.LVL224:
 1836              	.LBE559:
 1837              	.LBE590:
  57:C:/Renesas/e2studio_2021_01_workspace_RZA2M_ANPR/ANPR_RZA2M_GR_MANGO/src/tensorflow_lite/src/tensorflow/lite/kernels/internal/reference\arg_min_max.h ****     inner_size *= input1_shape.Dims(i);
 1838              		.loc 2 57 0
 1839 01e0 08005EE1 		cmp	lr, r8
 1840 01e4 C4FFFF1A 		bne	.L153
  56:C:/Renesas/e2studio_2021_01_workspace_RZA2M_ANPR/ANPR_RZA2M_GR_MANGO/src/tensorflow_lite/src/tensorflow/lite/kernels/internal/reference\arg_min_max.h ****     TFLITE_DCHECK_EQ(input1_shape.Dims(i), output_shape.Dims(i - 1));
 1841              		.loc 2 56 0
 1842 01e8 028082E2 		add	r8, r2, #2
  58:C:/Renesas/e2studio_2021_01_workspace_RZA2M_ANPR/ANPR_RZA2M_GR_MANGO/src/tensorflow_lite/src/tensorflow/lite/kernels/internal/reference\arg_min_max.h ****   }
 1843              		.loc 2 58 0
 1844 01ec 900E0EE0 		mul	lr, r0, lr
 1845              	.LVL225:
  56:C:/Renesas/e2studio_2021_01_workspace_RZA2M_ANPR/ANPR_RZA2M_GR_MANGO/src/tensorflow_lite/src/tensorflow/lite/kernels/internal/reference\arg_min_max.h ****     TFLITE_DCHECK_EQ(input1_shape.Dims(i), output_shape.Dims(i - 1));
 1846              		.loc 2 56 0
 1847 01f0 080054E1 		cmp	r4, r8
 1848 01f4 120000DA 		ble	.L173
 1849              	.LVL226:
 1850              	.LBB591:
 1851              	.LBB560:
 215:C:/Renesas/e2studio_2021_01_workspace_RZA2M_ANPR/ANPR_RZA2M_GR_MANGO/src/tensorflow_lite/src/tensorflow/lite/kernels/internal\types.h ****     return size_ > kMaxSmallSize ? dims_pointer_[i] : dims_[i];
 1852              		.loc 3 215 0
 1853 01f8 090055E1 		cmp	r5, r9
 1854              	.LBE560:
 1855              	.LBE591:
 1856              	.LBB592:
 1857              	.LBB538:
 1858              		.loc 3 216 0
 1859 01fc 080186E0 		add	r0, r6, r8, lsl #2
 1860 0200 049090E5 		ldr	r9, [r0, #4]
 1861              	.LVL227:
 1862              	.LBE538:
 1863              	.LBE592:
 1864              	.LBB593:
 1865              	.LBB561:
 215:C:/Renesas/e2studio_2021_01_workspace_RZA2M_ANPR/ANPR_RZA2M_GR_MANGO/src/tensorflow_lite/src/tensorflow/lite/kernels/internal\types.h ****     return size_ > kMaxSmallSize ? dims_pointer_[i] : dims_[i];
 1866              		.loc 3 215 0
 1867 0204 BCFFFFDA 		ble	.L153
 1868              		.loc 3 216 0
 1869 0208 080093E5 		ldr	r0, [r3, #8]
 1870              	.LVL228:
 1871              	.LBE561:
 1872              	.LBE593:
  57:C:/Renesas/e2studio_2021_01_workspace_RZA2M_ANPR/ANPR_RZA2M_GR_MANGO/src/tensorflow_lite/src/tensorflow/lite/kernels/internal/reference\arg_min_max.h ****     inner_size *= input1_shape.Dims(i);
 1873              		.loc 2 57 0
 1874 020c 090050E1 		cmp	r0, r9
 1875 0210 B9FFFF1A 		bne	.L153
  56:C:/Renesas/e2studio_2021_01_workspace_RZA2M_ANPR/ANPR_RZA2M_GR_MANGO/src/tensorflow_lite/src/tensorflow/lite/kernels/internal/reference\arg_min_max.h ****     TFLITE_DCHECK_EQ(input1_shape.Dims(i), output_shape.Dims(i - 1));
 1876              		.loc 2 56 0
 1877 0214 032082E2 		add	r2, r2, #3
  58:C:/Renesas/e2studio_2021_01_workspace_RZA2M_ANPR/ANPR_RZA2M_GR_MANGO/src/tensorflow_lite/src/tensorflow/lite/kernels/internal/reference\arg_min_max.h ****   }
 1878              		.loc 2 58 0
 1879 0218 900E0EE0 		mul	lr, r0, lr
 1880              	.LVL229:
  56:C:/Renesas/e2studio_2021_01_workspace_RZA2M_ANPR/ANPR_RZA2M_GR_MANGO/src/tensorflow_lite/src/tensorflow/lite/kernels/internal/reference\arg_min_max.h ****     TFLITE_DCHECK_EQ(input1_shape.Dims(i), output_shape.Dims(i - 1));
 1881              		.loc 2 56 0
 1882 021c 020054E1 		cmp	r4, r2
 1883 0220 070000DA 		ble	.L173
 1884              	.LVL230:
 1885              	.LBB594:
 1886              	.LBB539:
 1887              		.loc 3 216 0
 1888 0224 022186E0 		add	r2, r6, r2, lsl #2
 1889              	.LVL231:
 1890              	.LBE539:
 1891              	.LBE594:
 1892              	.LBB595:
 1893              	.LBB562:
 215:C:/Renesas/e2studio_2021_01_workspace_RZA2M_ANPR/ANPR_RZA2M_GR_MANGO/src/tensorflow_lite/src/tensorflow/lite/kernels/internal\types.h ****     return size_ > kMaxSmallSize ? dims_pointer_[i] : dims_[i];
 1894              		.loc 3 215 0
 1895 0228 080055E1 		cmp	r5, r8
 1896              	.LBE562:
 1897              	.LBE595:
 1898              	.LBB596:
 1899              	.LBB540:
 1900              		.loc 3 216 0
 1901 022c 042092E5 		ldr	r2, [r2, #4]
 1902              	.LVL232:
 1903              	.LBE540:
 1904              	.LBE596:
 1905              	.LBB597:
 1906              	.LBB563:
 215:C:/Renesas/e2studio_2021_01_workspace_RZA2M_ANPR/ANPR_RZA2M_GR_MANGO/src/tensorflow_lite/src/tensorflow/lite/kernels/internal\types.h ****     return size_ > kMaxSmallSize ? dims_pointer_[i] : dims_[i];
 1907              		.loc 3 215 0
 1908 0230 B1FFFFDA 		ble	.L153
 1909              		.loc 3 216 0
 1910 0234 0C3093E5 		ldr	r3, [r3, #12]
 1911              	.LVL233:
 1912              	.LBE563:
 1913              	.LBE597:
  57:C:/Renesas/e2studio_2021_01_workspace_RZA2M_ANPR/ANPR_RZA2M_GR_MANGO/src/tensorflow_lite/src/tensorflow/lite/kernels/internal/reference\arg_min_max.h ****     inner_size *= input1_shape.Dims(i);
 1914              		.loc 2 57 0
 1915 0238 020053E1 		cmp	r3, r2
 1916 023c AEFFFF1A 		bne	.L153
 1917              	.LVL234:
 1918              	.L286:
  58:C:/Renesas/e2studio_2021_01_workspace_RZA2M_ANPR/ANPR_RZA2M_GR_MANGO/src/tensorflow_lite/src/tensorflow/lite/kernels/internal/reference\arg_min_max.h ****   }
 1919              		.loc 2 58 0
 1920 0240 920E0EE0 		mul	lr, r2, lr
 1921              	.LVL235:
 1922              	.L173:
 1923              	.LBE532:
 1924              	.LBB633:
  60:C:/Renesas/e2studio_2021_01_workspace_RZA2M_ANPR/ANPR_RZA2M_GR_MANGO/src/tensorflow_lite/src/tensorflow/lite/kernels/internal/reference\arg_min_max.h ****     for (int inner = 0; inner < inner_size; ++inner) {
 1925              		.loc 2 60 0 discriminator 1
 1926 0244 000057E3 		cmp	r7, #0
 1927 0248 910000DA 		ble	.L292
 1928              	.L167:
 1929 024c 00005EE3 		cmp	lr, #0
 1930 0250 BF0000DA 		ble	.L293
 1931              	.LVL236:
 1932              	.L180:
 1933 0254 9C0E0BE0 		mul	fp, ip, lr
 1934 0258 0E01A0E1 		lsl	r0, lr, #2
 1935 025c 28909DE5 		ldr	r9, [sp, #40]
 1936 0260 0180A0E1 		mov	r8, r1
 1937 0264 046040E2 		sub	r6, r0, #4
 1938              	.LBE633:
  54:C:/Renesas/e2studio_2021_01_workspace_RZA2M_ANPR/ANPR_RZA2M_GR_MANGO/src/tensorflow_lite/src/tensorflow/lite/kernels/internal/reference\arg_min_max.h ****   const int dims_count = input1_shape.DimensionsCount();
 1939              		.loc 2 54 0 discriminator 1
 1940 0268 00A0A0E3 		mov	r10, #0
 1941 026c 0BB1A0E1 		lsl	fp, fp, #2
 1942              	.LVL237:
 1943              	.L176:
 1944 0270 005088E0 		add	r5, r8, r0
 1945 0274 0940A0E1 		mov	r4, r9
 1946 0278 08E0A0E1 		mov	lr, r8
 1947              	.LVL238:
 1948              	.L175:
 1949              	.LBB641:
 1950              	.LBB634:
 1951              	.LBB635:
 1952              	.LBB636:
  64:C:/Renesas/e2studio_2021_01_workspace_RZA2M_ANPR/ANPR_RZA2M_GR_MANGO/src/tensorflow_lite/src/tensorflow/lite/kernels/internal/reference\arg_min_max.h ****         const auto& curr_value =
 1953              		.loc 2 64 0
 1954 027c 01005CE3 		cmp	ip, #1
 1955              	.LBE636:
  62:C:/Renesas/e2studio_2021_01_workspace_RZA2M_ANPR/ANPR_RZA2M_GR_MANGO/src/tensorflow_lite/src/tensorflow/lite/kernels/internal/reference\arg_min_max.h ****       T2 min_max_index = 0;
 1956              		.loc 2 62 0
 1957 0280 017AFEEC 		vldmia.32	lr!, {s15}
 1958              	.LVL239:
 1959              	.LBB637:
  64:C:/Renesas/e2studio_2021_01_workspace_RZA2M_ANPR/ANPR_RZA2M_GR_MANGO/src/tensorflow_lite/src/tensorflow/lite/kernels/internal/reference\arg_min_max.h ****         const auto& curr_value =
 1960              		.loc 2 64 0
 1961 0284 AD0000DA 		ble	.L192
 1962 0288 0E2086E0 		add	r2, r6, lr
 1963 028c 0130A0E3 		mov	r3, #1
 1964 0290 0010A0E3 		mov	r1, #0
 1965              	.LVL240:
 1966              	.L178:
 1967 0294 007A92ED 		vldr.32	s14, [r2]
 1968 0298 002082E0 		add	r2, r2, r0
 1969 029c C77AF4EE 		vcmpe.f32	s15, s14
 1970 02a0 10FAF1EE 		vmrs	APSR_nzcv, FPSCR
 1971 02a4 0310A0C1 		movgt	r1, r3
 1972 02a8 013083E2 		add	r3, r3, #1
 1973 02ac 477AF0CE 		vmovgt.f32	s15, s14
 1974              	.LVL241:
 1975 02b0 0C0053E1 		cmp	r3, ip
 1976 02b4 F6FFFF1A 		bne	.L178
 1977              	.LBE637:
 1978              	.LBE635:
  61:C:/Renesas/e2studio_2021_01_workspace_RZA2M_ANPR/ANPR_RZA2M_GR_MANGO/src/tensorflow_lite/src/tensorflow/lite/kernels/internal/reference\arg_min_max.h ****       auto min_max_value = input1_data[outer * axis_size * inner_size + inner];
 1979              		.loc 2 61 0 discriminator 2
 1980 02b8 05005EE1 		cmp	lr, r5
 1981              	.LBB638:
 1982              		.loc 2 72 0 discriminator 2
 1983 02bc 041084E4 		str	r1, [r4], #4
 1984              	.LVL242:
 1985              	.LBE638:
  61:C:/Renesas/e2studio_2021_01_workspace_RZA2M_ANPR/ANPR_RZA2M_GR_MANGO/src/tensorflow_lite/src/tensorflow/lite/kernels/internal/reference\arg_min_max.h ****       auto min_max_value = input1_data[outer * axis_size * inner_size + inner];
 1986              		.loc 2 61 0 discriminator 2
 1987 02c0 EDFFFF1A 		bne	.L175
 1988              	.LVL243:
 1989              	.L294:
 1990              	.LBE634:
  60:C:/Renesas/e2studio_2021_01_workspace_RZA2M_ANPR/ANPR_RZA2M_GR_MANGO/src/tensorflow_lite/src/tensorflow/lite/kernels/internal/reference\arg_min_max.h ****     for (int inner = 0; inner < inner_size; ++inner) {
 1991              		.loc 2 60 0
 1992 02c4 01A08AE2 		add	r10, r10, #1
 1993              	.LVL244:
 1994 02c8 0B8088E0 		add	r8, r8, fp
 1995 02cc 07005AE1 		cmp	r10, r7
 1996 02d0 009089E0 		add	r9, r9, r0
 1997 02d4 E5FFFFBA 		blt	.L176
 1998 02d8 F88FBDE8 		pop	{r3, r4, r5, r6, r7, r8, r9, r10, fp, pc}
 1999              	.LVL245:
 2000              	.L291:
 2001              	.LBE641:
 2002              	.LBB642:
 2003              	.LBB439:
 2004              		.loc 3 216 0
 2005 02dc 040096E5 		ldr	r0, [r6, #4]
 2006              	.LBE439:
 2007              	.LBE642:
 2008              	.LBB643:
  49:C:/Renesas/e2studio_2021_01_workspace_RZA2M_ANPR/ANPR_RZA2M_GR_MANGO/src/tensorflow_lite/src/tensorflow/lite/kernels/internal/reference\arg_min_max.h ****     TFLITE_DCHECK_EQ(input1_shape.Dims(i), output_shape.Dims(i));
 2009              		.loc 2 49 0
 2010 02e0 000052E3 		cmp	r2, #0
 2011              	.LBE643:
 2012              	.LBB644:
 2013              	.LBB440:
 2014              		.loc 3 216 0
 2015 02e4 02C190E7 		ldr	ip, [r0, r2, lsl #2]
 2016              	.LVL246:
 2017              	.LBE440:
 2018              	.LBE644:
 2019              	.LBB645:
  49:C:/Renesas/e2studio_2021_01_workspace_RZA2M_ANPR/ANPR_RZA2M_GR_MANGO/src/tensorflow_lite/src/tensorflow/lite/kernels/internal/reference\arg_min_max.h ****     TFLITE_DCHECK_EQ(input1_shape.Dims(i), output_shape.Dims(i));
 2020              		.loc 2 49 0
 2021 02e8 D100000A 		beq	.L156
 2022 02ec 050055E3 		cmp	r5, #5
 2023 02f0 6B0000CA 		bgt	.L163
 2024              	.LVL247:
 2025              	.LBB510:
 2026              	.LBB457:
 215:C:/Renesas/e2studio_2021_01_workspace_RZA2M_ANPR/ANPR_RZA2M_GR_MANGO/src/tensorflow_lite/src/tensorflow/lite/kernels/internal\types.h ****     return size_ > kMaxSmallSize ? dims_pointer_[i] : dims_[i];
 2027              		.loc 3 215 0
 2028 02f4 000055E3 		cmp	r5, #0
 2029              	.LBE457:
 2030              	.LBE510:
 2031              	.LBB511:
 2032              	.LBB481:
 2033              		.loc 3 216 0
 2034 02f8 007090E5 		ldr	r7, [r0]
 2035              	.LVL248:
 2036              	.LBE481:
 2037              	.LBE511:
 2038              	.LBB512:
 2039              	.LBB458:
 215:C:/Renesas/e2studio_2021_01_workspace_RZA2M_ANPR/ANPR_RZA2M_GR_MANGO/src/tensorflow_lite/src/tensorflow/lite/kernels/internal\types.h ****     return size_ > kMaxSmallSize ? dims_pointer_[i] : dims_[i];
 2040              		.loc 3 215 0
 2041 02fc 7EFFFF0A 		beq	.L153
 2042              	.LVL249:
 2043              	.LBE458:
 2044              	.LBE512:
  50:C:/Renesas/e2studio_2021_01_workspace_RZA2M_ANPR/ANPR_RZA2M_GR_MANGO/src/tensorflow_lite/src/tensorflow/lite/kernels/internal/reference\arg_min_max.h ****     outer_size *= input1_shape.Dims(i);
 2045              		.loc 2 50 0
 2046 0300 04E093E5 		ldr	lr, [r3, #4]
 2047 0304 0E0057E1 		cmp	r7, lr
 2048 0308 7BFFFF1A 		bne	.L153
 2049              	.LVL250:
  49:C:/Renesas/e2studio_2021_01_workspace_RZA2M_ANPR/ANPR_RZA2M_GR_MANGO/src/tensorflow_lite/src/tensorflow/lite/kernels/internal/reference\arg_min_max.h ****     TFLITE_DCHECK_EQ(input1_shape.Dims(i), output_shape.Dims(i));
 2050              		.loc 2 49 0
 2051 030c 010052E3 		cmp	r2, #1
 2052 0310 2300000A 		beq	.L164
 2053              	.LVL251:
 2054              	.LBB513:
 2055              	.LBB459:
 215:C:/Renesas/e2studio_2021_01_workspace_RZA2M_ANPR/ANPR_RZA2M_GR_MANGO/src/tensorflow_lite/src/tensorflow/lite/kernels/internal\types.h ****     return size_ > kMaxSmallSize ? dims_pointer_[i] : dims_[i];
 2056              		.loc 3 215 0
 2057 0314 010055E3 		cmp	r5, #1
 2058              	.LBE459:
 2059              	.LBE513:
 2060              	.LBB514:
 2061              	.LBB482:
 2062              		.loc 3 216 0
 2063 0318 04E090E5 		ldr	lr, [r0, #4]
 2064              	.LVL252:
 2065              	.LBE482:
 2066              	.LBE514:
 2067              	.LBB515:
 2068              	.LBB460:
 215:C:/Renesas/e2studio_2021_01_workspace_RZA2M_ANPR/ANPR_RZA2M_GR_MANGO/src/tensorflow_lite/src/tensorflow/lite/kernels/internal\types.h ****     return size_ > kMaxSmallSize ? dims_pointer_[i] : dims_[i];
 2069              		.loc 3 215 0
 2070 031c 76FFFF0A 		beq	.L153
 2071              	.LVL253:
 2072              	.LBE460:
 2073              	.LBE515:
  50:C:/Renesas/e2studio_2021_01_workspace_RZA2M_ANPR/ANPR_RZA2M_GR_MANGO/src/tensorflow_lite/src/tensorflow/lite/kernels/internal/reference\arg_min_max.h ****     outer_size *= input1_shape.Dims(i);
 2074              		.loc 2 50 0
 2075 0320 088093E5 		ldr	r8, [r3, #8]
 2076 0324 08005EE1 		cmp	lr, r8
 2077 0328 73FFFF1A 		bne	.L153
  49:C:/Renesas/e2studio_2021_01_workspace_RZA2M_ANPR/ANPR_RZA2M_GR_MANGO/src/tensorflow_lite/src/tensorflow/lite/kernels/internal/reference\arg_min_max.h ****     TFLITE_DCHECK_EQ(input1_shape.Dims(i), output_shape.Dims(i));
 2078              		.loc 2 49 0
 2079 032c 020052E3 		cmp	r2, #2
  51:C:/Renesas/e2studio_2021_01_workspace_RZA2M_ANPR/ANPR_RZA2M_GR_MANGO/src/tensorflow_lite/src/tensorflow/lite/kernels/internal/reference\arg_min_max.h ****   }
 2080              		.loc 2 51 0
 2081 0330 9E0707E0 		mul	r7, lr, r7
 2082              	.LVL254:
  49:C:/Renesas/e2studio_2021_01_workspace_RZA2M_ANPR/ANPR_RZA2M_GR_MANGO/src/tensorflow_lite/src/tensorflow/lite/kernels/internal/reference\arg_min_max.h ****     TFLITE_DCHECK_EQ(input1_shape.Dims(i), output_shape.Dims(i));
 2083              		.loc 2 49 0
 2084 0334 1A00000A 		beq	.L164
 2085              	.LVL255:
 2086              	.LBB516:
 2087              	.LBB461:
 215:C:/Renesas/e2studio_2021_01_workspace_RZA2M_ANPR/ANPR_RZA2M_GR_MANGO/src/tensorflow_lite/src/tensorflow/lite/kernels/internal\types.h ****     return size_ > kMaxSmallSize ? dims_pointer_[i] : dims_[i];
 2088              		.loc 3 215 0
 2089 0338 020055E3 		cmp	r5, #2
 2090              	.LBE461:
 2091              	.LBE516:
 2092              	.LBB517:
 2093              	.LBB483:
 2094              		.loc 3 216 0
 2095 033c 08E090E5 		ldr	lr, [r0, #8]
 2096              	.LVL256:
 2097              	.LBE483:
 2098              	.LBE517:
 2099              	.LBB518:
 2100              	.LBB462:
 215:C:/Renesas/e2studio_2021_01_workspace_RZA2M_ANPR/ANPR_RZA2M_GR_MANGO/src/tensorflow_lite/src/tensorflow/lite/kernels/internal\types.h ****     return size_ > kMaxSmallSize ? dims_pointer_[i] : dims_[i];
 2101              		.loc 3 215 0
 2102 0340 6DFFFF0A 		beq	.L153
 2103              	.LVL257:
 2104              	.LBE462:
 2105              	.LBE518:
  50:C:/Renesas/e2studio_2021_01_workspace_RZA2M_ANPR/ANPR_RZA2M_GR_MANGO/src/tensorflow_lite/src/tensorflow/lite/kernels/internal/reference\arg_min_max.h ****     outer_size *= input1_shape.Dims(i);
 2106              		.loc 2 50 0
 2107 0344 0C8093E5 		ldr	r8, [r3, #12]
 2108 0348 08005EE1 		cmp	lr, r8
 2109 034c 6AFFFF1A 		bne	.L153
  49:C:/Renesas/e2studio_2021_01_workspace_RZA2M_ANPR/ANPR_RZA2M_GR_MANGO/src/tensorflow_lite/src/tensorflow/lite/kernels/internal/reference\arg_min_max.h ****     TFLITE_DCHECK_EQ(input1_shape.Dims(i), output_shape.Dims(i));
 2110              		.loc 2 49 0
 2111 0350 030052E3 		cmp	r2, #3
  51:C:/Renesas/e2studio_2021_01_workspace_RZA2M_ANPR/ANPR_RZA2M_GR_MANGO/src/tensorflow_lite/src/tensorflow/lite/kernels/internal/reference\arg_min_max.h ****   }
 2112              		.loc 2 51 0
 2113 0354 9E0707E0 		mul	r7, lr, r7
 2114              	.LVL258:
  49:C:/Renesas/e2studio_2021_01_workspace_RZA2M_ANPR/ANPR_RZA2M_GR_MANGO/src/tensorflow_lite/src/tensorflow/lite/kernels/internal/reference\arg_min_max.h ****     TFLITE_DCHECK_EQ(input1_shape.Dims(i), output_shape.Dims(i));
 2115              		.loc 2 49 0
 2116 0358 1100000A 		beq	.L164
 2117              	.LVL259:
 2118              	.LBB519:
 2119              	.LBB463:
 215:C:/Renesas/e2studio_2021_01_workspace_RZA2M_ANPR/ANPR_RZA2M_GR_MANGO/src/tensorflow_lite/src/tensorflow/lite/kernels/internal\types.h ****     return size_ > kMaxSmallSize ? dims_pointer_[i] : dims_[i];
 2120              		.loc 3 215 0
 2121 035c 030055E3 		cmp	r5, #3
 2122              	.LBE463:
 2123              	.LBE519:
 2124              	.LBB520:
 2125              	.LBB484:
 2126              		.loc 3 216 0
 2127 0360 0CE090E5 		ldr	lr, [r0, #12]
 2128              	.LVL260:
 2129              	.LBE484:
 2130              	.LBE520:
 2131              	.LBB521:
 2132              	.LBB464:
 215:C:/Renesas/e2studio_2021_01_workspace_RZA2M_ANPR/ANPR_RZA2M_GR_MANGO/src/tensorflow_lite/src/tensorflow/lite/kernels/internal\types.h ****     return size_ > kMaxSmallSize ? dims_pointer_[i] : dims_[i];
 2133              		.loc 3 215 0
 2134 0364 64FFFF0A 		beq	.L153
 2135              	.LVL261:
 2136              	.LBE464:
 2137              	.LBE521:
  50:C:/Renesas/e2studio_2021_01_workspace_RZA2M_ANPR/ANPR_RZA2M_GR_MANGO/src/tensorflow_lite/src/tensorflow/lite/kernels/internal/reference\arg_min_max.h ****     outer_size *= input1_shape.Dims(i);
 2138              		.loc 2 50 0
 2139 0368 108093E5 		ldr	r8, [r3, #16]
 2140 036c 08005EE1 		cmp	lr, r8
 2141 0370 61FFFF1A 		bne	.L153
  49:C:/Renesas/e2studio_2021_01_workspace_RZA2M_ANPR/ANPR_RZA2M_GR_MANGO/src/tensorflow_lite/src/tensorflow/lite/kernels/internal/reference\arg_min_max.h ****     TFLITE_DCHECK_EQ(input1_shape.Dims(i), output_shape.Dims(i));
 2142              		.loc 2 49 0
 2143 0374 040052E3 		cmp	r2, #4
  51:C:/Renesas/e2studio_2021_01_workspace_RZA2M_ANPR/ANPR_RZA2M_GR_MANGO/src/tensorflow_lite/src/tensorflow/lite/kernels/internal/reference\arg_min_max.h ****   }
 2144              		.loc 2 51 0
 2145 0378 9E0707E0 		mul	r7, lr, r7
 2146              	.LVL262:
  49:C:/Renesas/e2studio_2021_01_workspace_RZA2M_ANPR/ANPR_RZA2M_GR_MANGO/src/tensorflow_lite/src/tensorflow/lite/kernels/internal/reference\arg_min_max.h ****     TFLITE_DCHECK_EQ(input1_shape.Dims(i), output_shape.Dims(i));
 2147              		.loc 2 49 0
 2148 037c 0800000A 		beq	.L164
 2149              	.LVL263:
 2150              	.LBB522:
 2151              	.LBB465:
 215:C:/Renesas/e2studio_2021_01_workspace_RZA2M_ANPR/ANPR_RZA2M_GR_MANGO/src/tensorflow_lite/src/tensorflow/lite/kernels/internal\types.h ****     return size_ > kMaxSmallSize ? dims_pointer_[i] : dims_[i];
 2152              		.loc 3 215 0
 2153 0380 050055E3 		cmp	r5, #5
 2154              	.LBE465:
 2155              	.LBE522:
 2156              	.LBB523:
 2157              	.LBB485:
 2158              		.loc 3 216 0
 2159 0384 100090E5 		ldr	r0, [r0, #16]
 2160              	.LVL264:
 2161              	.LBE485:
 2162              	.LBE523:
 2163              	.LBB524:
 2164              	.LBB466:
 215:C:/Renesas/e2studio_2021_01_workspace_RZA2M_ANPR/ANPR_RZA2M_GR_MANGO/src/tensorflow_lite/src/tensorflow/lite/kernels/internal\types.h ****     return size_ > kMaxSmallSize ? dims_pointer_[i] : dims_[i];
 2165              		.loc 3 215 0
 2166 0388 5BFFFF1A 		bne	.L153
 2167              	.LVL265:
 2168              	.LBE466:
 2169              	.LBE524:
  50:C:/Renesas/e2studio_2021_01_workspace_RZA2M_ANPR/ANPR_RZA2M_GR_MANGO/src/tensorflow_lite/src/tensorflow/lite/kernels/internal/reference\arg_min_max.h ****     outer_size *= input1_shape.Dims(i);
 2170              		.loc 2 50 0
 2171 038c 14E093E5 		ldr	lr, [r3, #20]
 2172 0390 0E0050E1 		cmp	r0, lr
 2173 0394 58FFFF1A 		bne	.L153
  49:C:/Renesas/e2studio_2021_01_workspace_RZA2M_ANPR/ANPR_RZA2M_GR_MANGO/src/tensorflow_lite/src/tensorflow/lite/kernels/internal/reference\arg_min_max.h ****     TFLITE_DCHECK_EQ(input1_shape.Dims(i), output_shape.Dims(i));
 2174              		.loc 2 49 0
 2175 0398 050052E3 		cmp	r2, #5
  51:C:/Renesas/e2studio_2021_01_workspace_RZA2M_ANPR/ANPR_RZA2M_GR_MANGO/src/tensorflow_lite/src/tensorflow/lite/kernels/internal/reference\arg_min_max.h ****   }
 2176              		.loc 2 51 0
 2177 039c 900707E0 		mul	r7, r0, r7
 2178              	.LVL266:
  49:C:/Renesas/e2studio_2021_01_workspace_RZA2M_ANPR/ANPR_RZA2M_GR_MANGO/src/tensorflow_lite/src/tensorflow/lite/kernels/internal/reference\arg_min_max.h ****     TFLITE_DCHECK_EQ(input1_shape.Dims(i), output_shape.Dims(i));
 2179              		.loc 2 49 0
 2180 03a0 55FFFF1A 		bne	.L153
 2181              	.LVL267:
 2182              	.L164:
 2183              	.LBE645:
 2184              	.LBB646:
  56:C:/Renesas/e2studio_2021_01_workspace_RZA2M_ANPR/ANPR_RZA2M_GR_MANGO/src/tensorflow_lite/src/tensorflow/lite/kernels/internal/reference\arg_min_max.h ****     TFLITE_DCHECK_EQ(input1_shape.Dims(i), output_shape.Dims(i - 1));
 2185              		.loc 2 56 0
 2186 03a4 012082E2 		add	r2, r2, #1
 2187              	.LVL268:
 2188 03a8 020054E1 		cmp	r4, r2
 2189 03ac 690000DA 		ble	.L197
 2190              	.LVL269:
 2191              	.L182:
 2192 03b0 046096E5 		ldr	r6, [r6, #4]
 2193              	.LVL270:
  57:C:/Renesas/e2studio_2021_01_workspace_RZA2M_ANPR/ANPR_RZA2M_GR_MANGO/src/tensorflow_lite/src/tensorflow/lite/kernels/internal/reference\arg_min_max.h ****     inner_size *= input1_shape.Dims(i);
 2194              		.loc 2 57 0
 2195 03b4 019042E2 		sub	r9, r2, #1
 2196              	.LBB598:
 2197              	.LBB564:
 215:C:/Renesas/e2studio_2021_01_workspace_RZA2M_ANPR/ANPR_RZA2M_GR_MANGO/src/tensorflow_lite/src/tensorflow/lite/kernels/internal\types.h ****     return size_ > kMaxSmallSize ? dims_pointer_[i] : dims_[i];
 2198              		.loc 3 215 0
 2199 03b8 090055E1 		cmp	r5, r9
 2200              	.LBE564:
 2201              	.LBE598:
 2202              	.LBB599:
 2203              	.LBB541:
 2204              		.loc 3 216 0
 2205 03bc 0281A0E1 		lsl	r8, r2, #2
 2206 03c0 020196E7 		ldr	r0, [r6, r2, lsl #2]
 2207              	.LVL271:
 2208              	.LBE541:
 2209              	.LBE599:
 2210              	.LBB600:
 2211              	.LBB565:
 215:C:/Renesas/e2studio_2021_01_workspace_RZA2M_ANPR/ANPR_RZA2M_GR_MANGO/src/tensorflow_lite/src/tensorflow/lite/kernels/internal\types.h ****     return size_ > kMaxSmallSize ? dims_pointer_[i] : dims_[i];
 2212              		.loc 3 215 0
 2213 03c4 4CFFFFDA 		ble	.L153
 2214              		.loc 3 216 0
 2215 03c8 099183E0 		add	r9, r3, r9, lsl #2
 2216              	.LVL272:
 2217 03cc 04E099E5 		ldr	lr, [r9, #4]
 2218              	.LVL273:
 2219              	.LBE565:
 2220              	.LBE600:
  57:C:/Renesas/e2studio_2021_01_workspace_RZA2M_ANPR/ANPR_RZA2M_GR_MANGO/src/tensorflow_lite/src/tensorflow/lite/kernels/internal/reference\arg_min_max.h ****     inner_size *= input1_shape.Dims(i);
 2221              		.loc 2 57 0
 2222 03d0 0E0050E1 		cmp	r0, lr
 2223 03d4 48FFFF1A 		bne	.L153
 2224              	.LVL274:
  56:C:/Renesas/e2studio_2021_01_workspace_RZA2M_ANPR/ANPR_RZA2M_GR_MANGO/src/tensorflow_lite/src/tensorflow/lite/kernels/internal/reference\arg_min_max.h ****     TFLITE_DCHECK_EQ(input1_shape.Dims(i), output_shape.Dims(i - 1));
 2225              		.loc 2 56 0
 2226 03d8 019082E2 		add	r9, r2, #1
 2227              	.LVL275:
 2228 03dc 090054E1 		cmp	r4, r9
 2229 03e0 5E0000DA 		ble	.L191
 2230              	.LVL276:
 2231              	.LBB601:
 2232              	.LBB566:
 215:C:/Renesas/e2studio_2021_01_workspace_RZA2M_ANPR/ANPR_RZA2M_GR_MANGO/src/tensorflow_lite/src/tensorflow/lite/kernels/internal\types.h ****     return size_ > kMaxSmallSize ? dims_pointer_[i] : dims_[i];
 2233              		.loc 3 215 0
 2234 03e4 020055E1 		cmp	r5, r2
 2235              	.LBE566:
 2236              	.LBE601:
 2237              	.LBB602:
 2238              	.LBB542:
 2239              		.loc 3 216 0
 2240 03e8 086086E0 		add	r6, r6, r8
 2241 03ec 04E096E5 		ldr	lr, [r6, #4]
 2242              	.LVL277:
 2243              	.LBE542:
 2244              	.LBE602:
 2245              	.LBB603:
 2246              	.LBB567:
 215:C:/Renesas/e2studio_2021_01_workspace_RZA2M_ANPR/ANPR_RZA2M_GR_MANGO/src/tensorflow_lite/src/tensorflow/lite/kernels/internal\types.h ****     return size_ > kMaxSmallSize ? dims_pointer_[i] : dims_[i];
 2247              		.loc 3 215 0
 2248 03f0 41FFFFDA 		ble	.L153
 2249              		.loc 3 216 0
 2250 03f4 088083E0 		add	r8, r3, r8
 2251 03f8 048098E5 		ldr	r8, [r8, #4]
 2252              	.LVL278:
 2253              	.LBE567:
 2254              	.LBE603:
  57:C:/Renesas/e2studio_2021_01_workspace_RZA2M_ANPR/ANPR_RZA2M_GR_MANGO/src/tensorflow_lite/src/tensorflow/lite/kernels/internal/reference\arg_min_max.h ****     inner_size *= input1_shape.Dims(i);
 2255              		.loc 2 57 0
 2256 03fc 08005EE1 		cmp	lr, r8
 2257 0400 3DFFFF1A 		bne	.L153
  56:C:/Renesas/e2studio_2021_01_workspace_RZA2M_ANPR/ANPR_RZA2M_GR_MANGO/src/tensorflow_lite/src/tensorflow/lite/kernels/internal/reference\arg_min_max.h ****     TFLITE_DCHECK_EQ(input1_shape.Dims(i), output_shape.Dims(i - 1));
 2258              		.loc 2 56 0
 2259 0404 028082E2 		add	r8, r2, #2
  58:C:/Renesas/e2studio_2021_01_workspace_RZA2M_ANPR/ANPR_RZA2M_GR_MANGO/src/tensorflow_lite/src/tensorflow/lite/kernels/internal/reference\arg_min_max.h ****   }
 2260              		.loc 2 58 0
 2261 0408 9E000EE0 		mul	lr, lr, r0
 2262              	.LVL279:
  56:C:/Renesas/e2studio_2021_01_workspace_RZA2M_ANPR/ANPR_RZA2M_GR_MANGO/src/tensorflow_lite/src/tensorflow/lite/kernels/internal/reference\arg_min_max.h ****     TFLITE_DCHECK_EQ(input1_shape.Dims(i), output_shape.Dims(i - 1));
 2263              		.loc 2 56 0
 2264 040c 080054E1 		cmp	r4, r8
 2265 0410 8BFFFFDA 		ble	.L173
 2266              	.LVL280:
 2267              	.LBB604:
 2268              	.LBB568:
 215:C:/Renesas/e2studio_2021_01_workspace_RZA2M_ANPR/ANPR_RZA2M_GR_MANGO/src/tensorflow_lite/src/tensorflow/lite/kernels/internal\types.h ****     return size_ > kMaxSmallSize ? dims_pointer_[i] : dims_[i];
 2269              		.loc 3 215 0
 2270 0414 090055E1 		cmp	r5, r9
 2271              	.LBE568:
 2272              	.LBE604:
 2273              	.LBB605:
 2274              	.LBB543:
 2275              		.loc 3 216 0
 2276 0418 08A096E5 		ldr	r10, [r6, #8]
 2277              	.LVL281:
 2278              	.LBE543:
 2279              	.LBE605:
 2280              	.LBB606:
 2281              	.LBB569:
 215:C:/Renesas/e2studio_2021_01_workspace_RZA2M_ANPR/ANPR_RZA2M_GR_MANGO/src/tensorflow_lite/src/tensorflow/lite/kernels/internal\types.h ****     return size_ > kMaxSmallSize ? dims_pointer_[i] : dims_[i];
 2282              		.loc 3 215 0
 2283 041c 36FFFFDA 		ble	.L153
 2284              		.loc 3 216 0
 2285 0420 099183E0 		add	r9, r3, r9, lsl #2
 2286              	.LVL282:
 2287 0424 040099E5 		ldr	r0, [r9, #4]
 2288              	.LVL283:
 2289              	.LBE569:
 2290              	.LBE606:
  57:C:/Renesas/e2studio_2021_01_workspace_RZA2M_ANPR/ANPR_RZA2M_GR_MANGO/src/tensorflow_lite/src/tensorflow/lite/kernels/internal/reference\arg_min_max.h ****     inner_size *= input1_shape.Dims(i);
 2291              		.loc 2 57 0
 2292 0428 00005AE1 		cmp	r10, r0
 2293 042c 32FFFF1A 		bne	.L153
  56:C:/Renesas/e2studio_2021_01_workspace_RZA2M_ANPR/ANPR_RZA2M_GR_MANGO/src/tensorflow_lite/src/tensorflow/lite/kernels/internal/reference\arg_min_max.h ****     TFLITE_DCHECK_EQ(input1_shape.Dims(i), output_shape.Dims(i - 1));
 2294              		.loc 2 56 0
 2295 0430 030082E2 		add	r0, r2, #3
  58:C:/Renesas/e2studio_2021_01_workspace_RZA2M_ANPR/ANPR_RZA2M_GR_MANGO/src/tensorflow_lite/src/tensorflow/lite/kernels/internal/reference\arg_min_max.h ****   }
 2296              		.loc 2 58 0
 2297 0434 9A0E0EE0 		mul	lr, r10, lr
 2298              	.LVL284:
  56:C:/Renesas/e2studio_2021_01_workspace_RZA2M_ANPR/ANPR_RZA2M_GR_MANGO/src/tensorflow_lite/src/tensorflow/lite/kernels/internal/reference\arg_min_max.h ****     TFLITE_DCHECK_EQ(input1_shape.Dims(i), output_shape.Dims(i - 1));
 2299              		.loc 2 56 0
 2300 0438 000054E1 		cmp	r4, r0
 2301 043c 80FFFFDA 		ble	.L173
 2302              	.LVL285:
 2303              	.LBB607:
 2304              	.LBB570:
 215:C:/Renesas/e2studio_2021_01_workspace_RZA2M_ANPR/ANPR_RZA2M_GR_MANGO/src/tensorflow_lite/src/tensorflow/lite/kernels/internal\types.h ****     return size_ > kMaxSmallSize ? dims_pointer_[i] : dims_[i];
 2305              		.loc 3 215 0
 2306 0440 080055E1 		cmp	r5, r8
 2307              	.LBE570:
 2308              	.LBE607:
 2309              	.LBB608:
 2310              	.LBB544:
 2311              		.loc 3 216 0
 2312 0444 0C9096E5 		ldr	r9, [r6, #12]
 2313              	.LVL286:
 2314              	.LBE544:
 2315              	.LBE608:
 2316              	.LBB609:
 2317              	.LBB571:
 215:C:/Renesas/e2studio_2021_01_workspace_RZA2M_ANPR/ANPR_RZA2M_GR_MANGO/src/tensorflow_lite/src/tensorflow/lite/kernels/internal\types.h ****     return size_ > kMaxSmallSize ? dims_pointer_[i] : dims_[i];
 2318              		.loc 3 215 0
 2319 0448 2BFFFFDA 		ble	.L153
 2320              		.loc 3 216 0
 2321 044c 088183E0 		add	r8, r3, r8, lsl #2
 2322              	.LVL287:
 2323 0450 048098E5 		ldr	r8, [r8, #4]
 2324              	.LVL288:
 2325              	.LBE571:
 2326              	.LBE609:
  57:C:/Renesas/e2studio_2021_01_workspace_RZA2M_ANPR/ANPR_RZA2M_GR_MANGO/src/tensorflow_lite/src/tensorflow/lite/kernels/internal/reference\arg_min_max.h ****     inner_size *= input1_shape.Dims(i);
 2327              		.loc 2 57 0
 2328 0454 080059E1 		cmp	r9, r8
 2329 0458 27FFFF1A 		bne	.L153
  56:C:/Renesas/e2studio_2021_01_workspace_RZA2M_ANPR/ANPR_RZA2M_GR_MANGO/src/tensorflow_lite/src/tensorflow/lite/kernels/internal/reference\arg_min_max.h ****     TFLITE_DCHECK_EQ(input1_shape.Dims(i), output_shape.Dims(i - 1));
 2330              		.loc 2 56 0
 2331 045c 042082E2 		add	r2, r2, #4
  58:C:/Renesas/e2studio_2021_01_workspace_RZA2M_ANPR/ANPR_RZA2M_GR_MANGO/src/tensorflow_lite/src/tensorflow/lite/kernels/internal/reference\arg_min_max.h ****   }
 2332              		.loc 2 58 0
 2333 0460 990E0EE0 		mul	lr, r9, lr
 2334              	.LVL289:
  56:C:/Renesas/e2studio_2021_01_workspace_RZA2M_ANPR/ANPR_RZA2M_GR_MANGO/src/tensorflow_lite/src/tensorflow/lite/kernels/internal/reference\arg_min_max.h ****     TFLITE_DCHECK_EQ(input1_shape.Dims(i), output_shape.Dims(i - 1));
 2335              		.loc 2 56 0
 2336 0464 020054E1 		cmp	r4, r2
 2337 0468 75FFFFDA 		ble	.L173
 2338              	.LVL290:
 2339              	.LBB610:
 2340              	.LBB572:
 215:C:/Renesas/e2studio_2021_01_workspace_RZA2M_ANPR/ANPR_RZA2M_GR_MANGO/src/tensorflow_lite/src/tensorflow/lite/kernels/internal\types.h ****     return size_ > kMaxSmallSize ? dims_pointer_[i] : dims_[i];
 2341              		.loc 3 215 0
 2342 046c 050050E1 		cmp	r0, r5
 2343              	.LBE572:
 2344              	.LBE610:
 2345              	.LBB611:
 2346              	.LBB545:
 2347              		.loc 3 216 0
 2348 0470 102096E5 		ldr	r2, [r6, #16]
 2349              	.LVL291:
 2350              	.LBE545:
 2351              	.LBE611:
 2352              	.LBB612:
 2353              	.LBB573:
 215:C:/Renesas/e2studio_2021_01_workspace_RZA2M_ANPR/ANPR_RZA2M_GR_MANGO/src/tensorflow_lite/src/tensorflow/lite/kernels/internal\types.h ****     return size_ > kMaxSmallSize ? dims_pointer_[i] : dims_[i];
 2354              		.loc 3 215 0
 2355 0474 20FFFFAA 		bge	.L153
 2356              		.loc 3 216 0
 2357 0478 003183E0 		add	r3, r3, r0, lsl #2
 2358              	.LVL292:
 2359 047c 043093E5 		ldr	r3, [r3, #4]
 2360              	.LVL293:
 2361              	.LBE573:
 2362              	.LBE612:
  57:C:/Renesas/e2studio_2021_01_workspace_RZA2M_ANPR/ANPR_RZA2M_GR_MANGO/src/tensorflow_lite/src/tensorflow/lite/kernels/internal/reference\arg_min_max.h ****     inner_size *= input1_shape.Dims(i);
 2363              		.loc 2 57 0
 2364 0480 020053E1 		cmp	r3, r2
 2365 0484 1CFFFF1A 		bne	.L153
 2366              	.LBE646:
 2367              	.LBB647:
  60:C:/Renesas/e2studio_2021_01_workspace_RZA2M_ANPR/ANPR_RZA2M_GR_MANGO/src/tensorflow_lite/src/tensorflow/lite/kernels/internal/reference\arg_min_max.h ****     for (int inner = 0; inner < inner_size; ++inner) {
 2368              		.loc 2 60 0
 2369 0488 000057E3 		cmp	r7, #0
 2370              	.LBE647:
 2371              	.LBB648:
  58:C:/Renesas/e2studio_2021_01_workspace_RZA2M_ANPR/ANPR_RZA2M_GR_MANGO/src/tensorflow_lite/src/tensorflow/lite/kernels/internal/reference\arg_min_max.h ****   }
 2372              		.loc 2 58 0
 2373 048c 930E0EE0 		mul	lr, r3, lr
 2374              	.LVL294:
 2375              	.LBE648:
 2376              	.LBB649:
  60:C:/Renesas/e2studio_2021_01_workspace_RZA2M_ANPR/ANPR_RZA2M_GR_MANGO/src/tensorflow_lite/src/tensorflow/lite/kernels/internal/reference\arg_min_max.h ****     for (int inner = 0; inner < inner_size; ++inner) {
 2377              		.loc 2 60 0
 2378 0490 6DFFFFCA 		bgt	.L167
 2379              	.LVL295:
 2380              	.L292:
 2381 0494 F88FBDE8 		pop	{r3, r4, r5, r6, r7, r8, r9, r10, fp, pc}
 2382              	.LVL296:
 2383              	.L290:
 2384              	.LBE649:
 2385              	.LBB650:
 2386              	.LBB441:
 214:C:/Renesas/e2studio_2021_01_workspace_RZA2M_ANPR/ANPR_RZA2M_GR_MANGO/src/tensorflow_lite/src/tensorflow/lite/kernels/internal\types.h ****     TFLITE_DCHECK_LT(i, size_);
 2387              		.loc 3 214 0
 2388 0498 042092E0 		adds	r2, r2, r4
 2389              	.LVL297:
 2390 049c E3FEFF5A 		bpl	.L154
 2391 04a0 15FFFFEA 		b	.L153
 2392              	.LVL298:
 2393              	.L163:
 2394 04a4 04E040E2 		sub	lr, r0, #4
 2395              	.LBE441:
 2396              	.LBE650:
 2397              	.LBB651:
  49:C:/Renesas/e2studio_2021_01_workspace_RZA2M_ANPR/ANPR_RZA2M_GR_MANGO/src/tensorflow_lite/src/tensorflow/lite/kernels/internal/reference\arg_min_max.h ****     TFLITE_DCHECK_EQ(input1_shape.Dims(i), output_shape.Dims(i));
 2398              		.loc 2 49 0
 2399 04a8 0170A0E3 		mov	r7, #1
 2400 04ac 0000A0E3 		mov	r0, #0
 2401 04b0 010000EA 		b	.L159
 2402              	.LVL299:
 2403              	.L283:
 2404              	.LBB525:
 2405              	.LBB486:
 215:C:/Renesas/e2studio_2021_01_workspace_RZA2M_ANPR/ANPR_RZA2M_GR_MANGO/src/tensorflow_lite/src/tensorflow/lite/kernels/internal\types.h ****     return size_ > kMaxSmallSize ? dims_pointer_[i] : dims_[i];
 2406              		.loc 3 215 0
 2407 04b4 040050E1 		cmp	r0, r4
 2408 04b8 0FFFFF0A 		beq	.L153
 2409              	.LVL300:
 2410              	.L159:
 2411              	.LBE486:
 2412              	.LBE525:
 2413              	.LBB526:
 2414              	.LBB467:
 2415 04bc 050050E1 		cmp	r0, r5
 2416              	.LBE467:
 2417              	.LBE526:
 2418              	.LBB527:
 2419              	.LBB487:
 2420              		.loc 3 216 0
 2421 04c0 0490BEE5 		ldr	r9, [lr, #4]!
 2422              	.LVL301:
 2423              	.LBE487:
 2424              	.LBE527:
 2425              	.LBB528:
 2426              	.LBB468:
 215:C:/Renesas/e2studio_2021_01_workspace_RZA2M_ANPR/ANPR_RZA2M_GR_MANGO/src/tensorflow_lite/src/tensorflow/lite/kernels/internal\types.h ****     return size_ > kMaxSmallSize ? dims_pointer_[i] : dims_[i];
 2427              		.loc 3 215 0
 2428 04c4 0CFFFF0A 		beq	.L153
 2429              		.loc 3 216 0
 2430 04c8 048093E5 		ldr	r8, [r3, #4]
 2431 04cc 008198E7 		ldr	r8, [r8, r0, lsl #2]
 2432              	.LVL302:
 2433              	.LBE468:
 2434              	.LBE528:
  50:C:/Renesas/e2studio_2021_01_workspace_RZA2M_ANPR/ANPR_RZA2M_GR_MANGO/src/tensorflow_lite/src/tensorflow/lite/kernels/internal/reference\arg_min_max.h ****     outer_size *= input1_shape.Dims(i);
 2435              		.loc 2 50 0
 2436 04d0 090058E1 		cmp	r8, r9
 2437 04d4 08FFFF1A 		bne	.L153
  49:C:/Renesas/e2studio_2021_01_workspace_RZA2M_ANPR/ANPR_RZA2M_GR_MANGO/src/tensorflow_lite/src/tensorflow/lite/kernels/internal/reference\arg_min_max.h ****     TFLITE_DCHECK_EQ(input1_shape.Dims(i), output_shape.Dims(i));
 2438              		.loc 2 49 0
 2439 04d8 010080E2 		add	r0, r0, #1
 2440              	.LVL303:
  51:C:/Renesas/e2studio_2021_01_workspace_RZA2M_ANPR/ANPR_RZA2M_GR_MANGO/src/tensorflow_lite/src/tensorflow/lite/kernels/internal/reference\arg_min_max.h ****   }
 2441              		.loc 2 51 0
 2442 04dc 980707E0 		mul	r7, r8, r7
 2443              	.LVL304:
  49:C:/Renesas/e2studio_2021_01_workspace_RZA2M_ANPR/ANPR_RZA2M_GR_MANGO/src/tensorflow_lite/src/tensorflow/lite/kernels/internal/reference\arg_min_max.h ****     TFLITE_DCHECK_EQ(input1_shape.Dims(i), output_shape.Dims(i));
 2444              		.loc 2 49 0
 2445 04e0 020050E1 		cmp	r0, r2
 2446 04e4 F2FFFF1A 		bne	.L283
 2447              	.LVL305:
 2448              	.LBE651:
 2449              	.LBB652:
  56:C:/Renesas/e2studio_2021_01_workspace_RZA2M_ANPR/ANPR_RZA2M_GR_MANGO/src/tensorflow_lite/src/tensorflow/lite/kernels/internal/reference\arg_min_max.h ****     TFLITE_DCHECK_EQ(input1_shape.Dims(i), output_shape.Dims(i - 1));
 2450              		.loc 2 56 0
 2451 04e8 012080E2 		add	r2, r0, #1
 2452              	.LVL306:
 2453 04ec 040052E1 		cmp	r2, r4
 2454 04f0 180000AA 		bge	.L197
 2455              	.LVL307:
 2456              	.L171:
 2457 04f4 040096E5 		ldr	r0, [r6, #4]
 2458              	.LBB613:
 2459              	.LBB574:
 2460              		.loc 3 216 0
 2461 04f8 0780E0E3 		mvn	r8, #7
 2462              	.LBE574:
 2463              	.LBE613:
 2464              	.LBE652:
  48:C:/Renesas/e2studio_2021_01_workspace_RZA2M_ANPR/ANPR_RZA2M_GR_MANGO/src/tensorflow_lite/src/tensorflow/lite/kernels/internal/reference\arg_min_max.h ****   for (int i = 0; i < axis; ++i) {
 2465              		.loc 2 48 0
 2466 04fc 01E0A0E3 		mov	lr, #1
 2467              	.LBB653:
 2468              	.LBB614:
 2469              	.LBB575:
 2470              		.loc 3 216 0
 2471 0500 008048E0 		sub	r8, r8, r0
 2472 0504 020180E0 		add	r0, r0, r2, lsl #2
 2473              	.LVL308:
 2474              	.L172:
 215:C:/Renesas/e2studio_2021_01_workspace_RZA2M_ANPR/ANPR_RZA2M_GR_MANGO/src/tensorflow_lite/src/tensorflow/lite/kernels/internal\types.h ****     return size_ > kMaxSmallSize ? dims_pointer_[i] : dims_[i];
 2475              		.loc 3 215 0
 2476 0508 016042E2 		sub	r6, r2, #1
 2477              	.LBE575:
 2478              	.LBE614:
 2479              	.LBB615:
 2480              	.LBB546:
 2481              		.loc 3 216 0
 2482 050c 049090E4 		ldr	r9, [r0], #4
 2483              	.LVL309:
 2484              	.LBE546:
 2485              	.LBE615:
 2486              	.LBB616:
 2487              	.LBB576:
 215:C:/Renesas/e2studio_2021_01_workspace_RZA2M_ANPR/ANPR_RZA2M_GR_MANGO/src/tensorflow_lite/src/tensorflow/lite/kernels/internal\types.h ****     return size_ > kMaxSmallSize ? dims_pointer_[i] : dims_[i];
 2488              		.loc 3 215 0
 2489 0510 060055E1 		cmp	r5, r6
 2490 0514 F8FEFFDA 		ble	.L153
 2491              		.loc 3 216 0
 2492 0518 046093E5 		ldr	r6, [r3, #4]
 2493              	.LVL310:
 2494 051c 006086E0 		add	r6, r6, r0
 2495 0520 086096E7 		ldr	r6, [r6, r8]
 2496              	.LVL311:
 2497              	.LBE576:
 2498              	.LBE616:
  57:C:/Renesas/e2studio_2021_01_workspace_RZA2M_ANPR/ANPR_RZA2M_GR_MANGO/src/tensorflow_lite/src/tensorflow/lite/kernels/internal/reference\arg_min_max.h ****     inner_size *= input1_shape.Dims(i);
 2499              		.loc 2 57 0
 2500 0524 090056E1 		cmp	r6, r9
 2501 0528 F3FEFF1A 		bne	.L153
  56:C:/Renesas/e2studio_2021_01_workspace_RZA2M_ANPR/ANPR_RZA2M_GR_MANGO/src/tensorflow_lite/src/tensorflow/lite/kernels/internal/reference\arg_min_max.h ****     TFLITE_DCHECK_EQ(input1_shape.Dims(i), output_shape.Dims(i - 1));
 2502              		.loc 2 56 0
 2503 052c 012082E2 		add	r2, r2, #1
 2504              	.LVL312:
  58:C:/Renesas/e2studio_2021_01_workspace_RZA2M_ANPR/ANPR_RZA2M_GR_MANGO/src/tensorflow_lite/src/tensorflow/lite/kernels/internal/reference\arg_min_max.h ****   }
 2505              		.loc 2 58 0
 2506 0530 960E0EE0 		mul	lr, r6, lr
 2507              	.LVL313:
  56:C:/Renesas/e2studio_2021_01_workspace_RZA2M_ANPR/ANPR_RZA2M_GR_MANGO/src/tensorflow_lite/src/tensorflow/lite/kernels/internal/reference\arg_min_max.h ****     TFLITE_DCHECK_EQ(input1_shape.Dims(i), output_shape.Dims(i - 1));
 2508              		.loc 2 56 0
 2509 0534 040052E1 		cmp	r2, r4
 2510 0538 F2FFFFBA 		blt	.L172
 2511 053c 40FFFFEA 		b	.L173
 2512              	.LVL314:
 2513              	.L192:
 2514              	.LBE653:
 2515              	.LBB654:
 2516              	.LBB640:
  61:C:/Renesas/e2studio_2021_01_workspace_RZA2M_ANPR/ANPR_RZA2M_GR_MANGO/src/tensorflow_lite/src/tensorflow/lite/kernels/internal/reference\arg_min_max.h ****       auto min_max_value = input1_data[outer * axis_size * inner_size + inner];
 2517              		.loc 2 61 0
 2518 0540 05005EE1 		cmp	lr, r5
 2519              	.LBB639:
  63:C:/Renesas/e2studio_2021_01_workspace_RZA2M_ANPR/ANPR_RZA2M_GR_MANGO/src/tensorflow_lite/src/tensorflow/lite/kernels/internal/reference\arg_min_max.h ****       for (int i = 1; i < axis_size; ++i) {
 2520              		.loc 2 63 0
 2521 0544 0010A0E3 		mov	r1, #0
 2522              		.loc 2 72 0
 2523 0548 041084E4 		str	r1, [r4], #4
 2524              	.LVL315:
 2525              	.LBE639:
  61:C:/Renesas/e2studio_2021_01_workspace_RZA2M_ANPR/ANPR_RZA2M_GR_MANGO/src/tensorflow_lite/src/tensorflow/lite/kernels/internal/reference\arg_min_max.h ****       auto min_max_value = input1_data[outer * axis_size * inner_size + inner];
 2526              		.loc 2 61 0
 2527 054c 4AFFFF1A 		bne	.L175
 2528 0550 5BFFFFEA 		b	.L294
 2529              	.LVL316:
 2530              	.L293:
 2531 0554 F88FBDE8 		pop	{r3, r4, r5, r6, r7, r8, r9, r10, fp, pc}
 2532              	.LVL317:
 2533              	.L197:
 2534              	.LBE640:
 2535              	.LBE654:
  54:C:/Renesas/e2studio_2021_01_workspace_RZA2M_ANPR/ANPR_RZA2M_GR_MANGO/src/tensorflow_lite/src/tensorflow/lite/kernels/internal/reference\arg_min_max.h ****   const int dims_count = input1_shape.DimensionsCount();
 2536              		.loc 2 54 0
 2537 0558 01E0A0E3 		mov	lr, #1
 2538 055c 38FFFFEA 		b	.L173
 2539              	.LVL318:
 2540              	.L191:
 2541              	.LBB655:
  56:C:/Renesas/e2studio_2021_01_workspace_RZA2M_ANPR/ANPR_RZA2M_GR_MANGO/src/tensorflow_lite/src/tensorflow/lite/kernels/internal/reference\arg_min_max.h ****     TFLITE_DCHECK_EQ(input1_shape.Dims(i), output_shape.Dims(i - 1));
 2542              		.loc 2 56 0
 2543 0560 00E0A0E1 		mov	lr, r0
 2544 0564 36FFFFEA 		b	.L173
 2545              	.LVL319:
 2546              	.L161:
 2547 0568 012082E2 		add	r2, r2, #1
 2548              	.LVL320:
 2549 056c 040052E1 		cmp	r2, r4
 2550 0570 F8FFFFAA 		bge	.L197
 2551              	.LVL321:
 2552              	.L183:
 2553              	.LBB617:
 2554              	.LBB547:
 2555              		.loc 3 216 0
 2556 0574 0291A0E1 		lsl	r9, r2, #2
 2557              	.LBE547:
 2558              	.LBE617:
  57:C:/Renesas/e2studio_2021_01_workspace_RZA2M_ANPR/ANPR_RZA2M_GR_MANGO/src/tensorflow_lite/src/tensorflow/lite/kernels/internal/reference\arg_min_max.h ****     inner_size *= input1_shape.Dims(i);
 2559              		.loc 2 57 0
 2560 0578 010042E2 		sub	r0, r2, #1
 2561              	.LBB618:
 2562              	.LBB577:
 215:C:/Renesas/e2studio_2021_01_workspace_RZA2M_ANPR/ANPR_RZA2M_GR_MANGO/src/tensorflow_lite/src/tensorflow/lite/kernels/internal\types.h ****     return size_ > kMaxSmallSize ? dims_pointer_[i] : dims_[i];
 2563              		.loc 3 215 0
 2564 057c 000055E1 		cmp	r5, r0
 2565              	.LBE577:
 2566              	.LBE618:
 2567              	.LBB619:
 2568              	.LBB548:
 2569              		.loc 3 216 0
 2570 0580 09E086E0 		add	lr, r6, r9
 2571 0584 04E09EE5 		ldr	lr, [lr, #4]
 2572              	.LVL322:
 2573              	.LBE548:
 2574              	.LBE619:
 2575              	.LBB620:
 2576              	.LBB578:
 215:C:/Renesas/e2studio_2021_01_workspace_RZA2M_ANPR/ANPR_RZA2M_GR_MANGO/src/tensorflow_lite/src/tensorflow/lite/kernels/internal\types.h ****     return size_ > kMaxSmallSize ? dims_pointer_[i] : dims_[i];
 2577              		.loc 3 215 0
 2578 0588 DBFEFFDA 		ble	.L153
 2579              		.loc 3 216 0
 2580 058c 000183E0 		add	r0, r3, r0, lsl #2
 2581              	.LVL323:
 2582 0590 040090E5 		ldr	r0, [r0, #4]
 2583              	.LVL324:
 2584              	.LBE578:
 2585              	.LBE620:
  57:C:/Renesas/e2studio_2021_01_workspace_RZA2M_ANPR/ANPR_RZA2M_GR_MANGO/src/tensorflow_lite/src/tensorflow/lite/kernels/internal/reference\arg_min_max.h ****     inner_size *= input1_shape.Dims(i);
 2586              		.loc 2 57 0
 2587 0594 0E0050E1 		cmp	r0, lr
 2588 0598 D7FEFF1A 		bne	.L153
 2589              	.LVL325:
  56:C:/Renesas/e2studio_2021_01_workspace_RZA2M_ANPR/ANPR_RZA2M_GR_MANGO/src/tensorflow_lite/src/tensorflow/lite/kernels/internal/reference\arg_min_max.h ****     TFLITE_DCHECK_EQ(input1_shape.Dims(i), output_shape.Dims(i - 1));
 2590              		.loc 2 56 0
 2591 059c 01A082E2 		add	r10, r2, #1
 2592              	.LVL326:
 2593 05a0 0A0054E1 		cmp	r4, r10
 2594 05a4 EDFFFFDA 		ble	.L191
 2595              	.LVL327:
 2596              	.LBB621:
 2597              	.LBB549:
 2598              		.loc 3 216 0
 2599 05a8 0A81A0E1 		lsl	r8, r10, #2
 2600              	.LBE549:
 2601              	.LBE621:
 2602              	.LBB622:
 2603              	.LBB579:
 215:C:/Renesas/e2studio_2021_01_workspace_RZA2M_ANPR/ANPR_RZA2M_GR_MANGO/src/tensorflow_lite/src/tensorflow/lite/kernels/internal\types.h ****     return size_ > kMaxSmallSize ? dims_pointer_[i] : dims_[i];
 2604              		.loc 3 215 0
 2605 05ac 020055E1 		cmp	r5, r2
 2606              	.LBE579:
 2607              	.LBE622:
 2608              	.LBB623:
 2609              	.LBB550:
 2610              		.loc 3 216 0
 2611 05b0 08E086E0 		add	lr, r6, r8
 2612 05b4 04E09EE5 		ldr	lr, [lr, #4]
 2613              	.LVL328:
 2614              	.LBE550:
 2615              	.LBE623:
 2616              	.LBB624:
 2617              	.LBB580:
 215:C:/Renesas/e2studio_2021_01_workspace_RZA2M_ANPR/ANPR_RZA2M_GR_MANGO/src/tensorflow_lite/src/tensorflow/lite/kernels/internal\types.h ****     return size_ > kMaxSmallSize ? dims_pointer_[i] : dims_[i];
 2618              		.loc 3 215 0
 2619 05b8 CFFEFFDA 		ble	.L153
 2620              		.loc 3 216 0
 2621 05bc 099083E0 		add	r9, r3, r9
 2622 05c0 049099E5 		ldr	r9, [r9, #4]
 2623              	.LVL329:
 2624              	.LBE580:
 2625              	.LBE624:
  57:C:/Renesas/e2studio_2021_01_workspace_RZA2M_ANPR/ANPR_RZA2M_GR_MANGO/src/tensorflow_lite/src/tensorflow/lite/kernels/internal/reference\arg_min_max.h ****     inner_size *= input1_shape.Dims(i);
 2626              		.loc 2 57 0
 2627 05c4 09005EE1 		cmp	lr, r9
 2628 05c8 CBFEFF1A 		bne	.L153
  56:C:/Renesas/e2studio_2021_01_workspace_RZA2M_ANPR/ANPR_RZA2M_GR_MANGO/src/tensorflow_lite/src/tensorflow/lite/kernels/internal/reference\arg_min_max.h ****     TFLITE_DCHECK_EQ(input1_shape.Dims(i), output_shape.Dims(i - 1));
 2629              		.loc 2 56 0
 2630 05cc 029082E2 		add	r9, r2, #2
  58:C:/Renesas/e2studio_2021_01_workspace_RZA2M_ANPR/ANPR_RZA2M_GR_MANGO/src/tensorflow_lite/src/tensorflow/lite/kernels/internal/reference\arg_min_max.h ****   }
 2631              		.loc 2 58 0
 2632 05d0 9E000EE0 		mul	lr, lr, r0
 2633              	.LVL330:
  56:C:/Renesas/e2studio_2021_01_workspace_RZA2M_ANPR/ANPR_RZA2M_GR_MANGO/src/tensorflow_lite/src/tensorflow/lite/kernels/internal/reference\arg_min_max.h ****     TFLITE_DCHECK_EQ(input1_shape.Dims(i), output_shape.Dims(i - 1));
 2634              		.loc 2 56 0
 2635 05d4 090054E1 		cmp	r4, r9
 2636 05d8 19FFFFDA 		ble	.L173
 2637              	.LVL331:
 2638              	.LBB625:
 2639              	.LBB551:
 2640              		.loc 3 216 0
 2641 05dc 0901A0E1 		lsl	r0, r9, #2
 2642              	.LBE551:
 2643              	.LBE625:
 2644              	.LBB626:
 2645              	.LBB581:
 215:C:/Renesas/e2studio_2021_01_workspace_RZA2M_ANPR/ANPR_RZA2M_GR_MANGO/src/tensorflow_lite/src/tensorflow/lite/kernels/internal\types.h ****     return size_ > kMaxSmallSize ? dims_pointer_[i] : dims_[i];
 2646              		.loc 3 215 0
 2647 05e0 0A0055E1 		cmp	r5, r10
 2648              	.LBE581:
 2649              	.LBE626:
 2650              	.LBB627:
 2651              	.LBB552:
 2652              		.loc 3 216 0
 2653 05e4 00A086E0 		add	r10, r6, r0
 2654 05e8 04A09AE5 		ldr	r10, [r10, #4]
 2655              	.LVL332:
 2656              	.LBE552:
 2657              	.LBE627:
 2658              	.LBB628:
 2659              	.LBB582:
 215:C:/Renesas/e2studio_2021_01_workspace_RZA2M_ANPR/ANPR_RZA2M_GR_MANGO/src/tensorflow_lite/src/tensorflow/lite/kernels/internal\types.h ****     return size_ > kMaxSmallSize ? dims_pointer_[i] : dims_[i];
 2660              		.loc 3 215 0
 2661 05ec C2FEFFDA 		ble	.L153
 2662              		.loc 3 216 0
 2663 05f0 088083E0 		add	r8, r3, r8
 2664 05f4 048098E5 		ldr	r8, [r8, #4]
 2665              	.LVL333:
 2666              	.LBE582:
 2667              	.LBE628:
  57:C:/Renesas/e2studio_2021_01_workspace_RZA2M_ANPR/ANPR_RZA2M_GR_MANGO/src/tensorflow_lite/src/tensorflow/lite/kernels/internal/reference\arg_min_max.h ****     inner_size *= input1_shape.Dims(i);
 2668              		.loc 2 57 0
 2669 05f8 0A0058E1 		cmp	r8, r10
 2670 05fc BEFEFF1A 		bne	.L153
  56:C:/Renesas/e2studio_2021_01_workspace_RZA2M_ANPR/ANPR_RZA2M_GR_MANGO/src/tensorflow_lite/src/tensorflow/lite/kernels/internal/reference\arg_min_max.h ****     TFLITE_DCHECK_EQ(input1_shape.Dims(i), output_shape.Dims(i - 1));
 2671              		.loc 2 56 0
 2672 0600 032082E2 		add	r2, r2, #3
  58:C:/Renesas/e2studio_2021_01_workspace_RZA2M_ANPR/ANPR_RZA2M_GR_MANGO/src/tensorflow_lite/src/tensorflow/lite/kernels/internal/reference\arg_min_max.h ****   }
 2673              		.loc 2 58 0
 2674 0604 980E0EE0 		mul	lr, r8, lr
 2675              	.LVL334:
  56:C:/Renesas/e2studio_2021_01_workspace_RZA2M_ANPR/ANPR_RZA2M_GR_MANGO/src/tensorflow_lite/src/tensorflow/lite/kernels/internal/reference\arg_min_max.h ****     TFLITE_DCHECK_EQ(input1_shape.Dims(i), output_shape.Dims(i - 1));
 2676              		.loc 2 56 0
 2677 0608 020054E1 		cmp	r4, r2
 2678 060c 0CFFFFDA 		ble	.L173
 2679              	.LVL335:
 2680              	.LBB629:
 2681              	.LBB553:
 2682              		.loc 3 216 0
 2683 0610 022186E0 		add	r2, r6, r2, lsl #2
 2684              	.LVL336:
 2685              	.LBE553:
 2686              	.LBE629:
 2687              	.LBB630:
 2688              	.LBB583:
 215:C:/Renesas/e2studio_2021_01_workspace_RZA2M_ANPR/ANPR_RZA2M_GR_MANGO/src/tensorflow_lite/src/tensorflow/lite/kernels/internal\types.h ****     return size_ > kMaxSmallSize ? dims_pointer_[i] : dims_[i];
 2689              		.loc 3 215 0
 2690 0614 090055E1 		cmp	r5, r9
 2691              	.LBE583:
 2692              	.LBE630:
 2693              	.LBB631:
 2694              	.LBB554:
 2695              		.loc 3 216 0
 2696 0618 042092E5 		ldr	r2, [r2, #4]
 2697              	.LVL337:
 2698              	.LBE554:
 2699              	.LBE631:
 2700              	.LBB632:
 2701              	.LBB584:
 215:C:/Renesas/e2studio_2021_01_workspace_RZA2M_ANPR/ANPR_RZA2M_GR_MANGO/src/tensorflow_lite/src/tensorflow/lite/kernels/internal\types.h ****     return size_ > kMaxSmallSize ? dims_pointer_[i] : dims_[i];
 2702              		.loc 3 215 0
 2703 061c B6FEFFDA 		ble	.L153
 2704              		.loc 3 216 0
 2705 0620 003083E0 		add	r3, r3, r0
 2706              	.LVL338:
 2707 0624 043093E5 		ldr	r3, [r3, #4]
 2708              	.LVL339:
 2709              	.LBE584:
 2710              	.LBE632:
  57:C:/Renesas/e2studio_2021_01_workspace_RZA2M_ANPR/ANPR_RZA2M_GR_MANGO/src/tensorflow_lite/src/tensorflow/lite/kernels/internal/reference\arg_min_max.h ****     inner_size *= input1_shape.Dims(i);
 2711              		.loc 2 57 0
 2712 0628 020053E1 		cmp	r3, r2
 2713 062c 03FFFF0A 		beq	.L286
 2714 0630 B1FEFFEA 		b	.L153
 2715              	.LVL340:
 2716              	.L156:
  56:C:/Renesas/e2studio_2021_01_workspace_RZA2M_ANPR/ANPR_RZA2M_GR_MANGO/src/tensorflow_lite/src/tensorflow/lite/kernels/internal/reference\arg_min_max.h ****     TFLITE_DCHECK_EQ(input1_shape.Dims(i), output_shape.Dims(i - 1));
 2717              		.loc 2 56 0
 2718 0634 010054E3 		cmp	r4, #1
 2719 0638 0120A0E3 		mov	r2, #1
 2720              	.LVL341:
 2721 063c 080000DA 		ble	.L295
 2722 0640 050054E3 		cmp	r4, #5
 2723              	.LBE655:
  48:C:/Renesas/e2studio_2021_01_workspace_RZA2M_ANPR/ANPR_RZA2M_GR_MANGO/src/tensorflow_lite/src/tensorflow/lite/kernels/internal/reference\arg_min_max.h ****   for (int i = 0; i < axis; ++i) {
 2724              		.loc 2 48 0
 2725 0644 0270A0E1 		mov	r7, r2
 2726 0648 020000CA 		bgt	.L168
 2727 064c 050055E3 		cmp	r5, #5
 2728 0650 C7FFFFDA 		ble	.L183
 2729 0654 CEFEFFEA 		b	.L169
 2730              	.L168:
 2731 0658 050055E3 		cmp	r5, #5
 2732 065c 53FFFFDA 		ble	.L182
 2733 0660 A3FFFFEA 		b	.L171
 2734              	.L295:
 2735 0664 0270A0E1 		mov	r7, r2
  54:C:/Renesas/e2studio_2021_01_workspace_RZA2M_ANPR/ANPR_RZA2M_GR_MANGO/src/tensorflow_lite/src/tensorflow/lite/kernels/internal/reference\arg_min_max.h ****   const int dims_count = input1_shape.DimensionsCount();
 2736              		.loc 2 54 0
 2737 0668 02E0A0E1 		mov	lr, r2
 2738 066c F8FEFFEA 		b	.L180
 2739              		.cfi_endproc
 2740              	.LFE1977:
 2741              		.fnend
 2743              		.section	.text._ZN6tflite13reference_ops9ArgMinMaxIhllNS_3ops5micro7GreaterEEEvRKNS_12RuntimeShape
 2744              		.align	2
 2745              		.weak	_ZN6tflite13reference_ops9ArgMinMaxIhllNS_3ops5micro7GreaterEEEvRKNS_12RuntimeShapeEPKT_PKT1
 2746              		.syntax unified
 2747              		.arm
 2748              		.fpu neon
 2750              	_ZN6tflite13reference_ops9ArgMinMaxIhllNS_3ops5micro7GreaterEEEvRKNS_12RuntimeShapeEPKT_PKT1_S7_PT0
 2751              		.fnstart
 2752              	.LFB1978:
  36:C:/Renesas/e2studio_2021_01_workspace_RZA2M_ANPR/ANPR_RZA2M_GR_MANGO/src/tensorflow_lite/src/tensorflow/lite/kernels/internal/reference\arg_min_max.h ****                const T3* input2_data, const RuntimeShape& output_shape,
 2753              		.loc 2 36 0
 2754              		.cfi_startproc
 2755              		@ args = 8, pretend = 0, frame = 8
 2756              		@ frame_needed = 0, uses_anonymous_args = 0
 2757              	.LVL342:
 2758 0000 00C090E5 		ldr	ip, [r0]
 2759              	.LVL343:
 2760 0004 F04F2DE9 		push	{r4, r5, r6, r7, r8, r9, r10, fp, lr}
 2761              		.save {r4, r5, r6, r7, r8, r9, r10, fp, lr}
 2762              		.cfi_def_cfa_offset 36
 2763              		.cfi_offset 4, -36
 2764              		.cfi_offset 5, -32
 2765              		.cfi_offset 6, -28
 2766              		.cfi_offset 7, -24
 2767              		.cfi_offset 8, -20
 2768              		.cfi_offset 9, -16
 2769              		.cfi_offset 10, -12
 2770              		.cfi_offset 11, -8
 2771              		.cfi_offset 14, -4
 2772              		.pad #12
 2773 0008 0CD04DE2 		sub	sp, sp, #12
 2774              		.cfi_def_cfa_offset 48
  39:C:/Renesas/e2studio_2021_01_workspace_RZA2M_ANPR/ANPR_RZA2M_GR_MANGO/src/tensorflow_lite/src/tensorflow/lite/kernels/internal/reference\arg_min_max.h ****   TFLITE_DCHECK_EQ(input1_shape.DimensionsCount() - 1,
 2775              		.loc 2 39 0
 2776 000c 00005CE3 		cmp	ip, #0
 2777 0010 390000DA 		ble	.L298
 2778              	.LVL344:
  40:C:/Renesas/e2studio_2021_01_workspace_RZA2M_ANPR/ANPR_RZA2M_GR_MANGO/src/tensorflow_lite/src/tensorflow/lite/kernels/internal/reference\arg_min_max.h ****                    output_shape.DimensionsCount());
 2779              		.loc 2 40 0
 2780 0014 00E093E5 		ldr	lr, [r3]
 2781 0018 01404CE2 		sub	r4, ip, #1
 2782              	.LVL345:
 2783 001c 0E0054E1 		cmp	r4, lr
 2784 0020 3500001A 		bne	.L298
  42:C:/Renesas/e2studio_2021_01_workspace_RZA2M_ANPR/ANPR_RZA2M_GR_MANGO/src/tensorflow_lite/src/tensorflow/lite/kernels/internal/reference\arg_min_max.h ****   if (axis < 0) {
 2785              		.loc 2 42 0
 2786 0024 002092E5 		ldr	r2, [r2]
 2787              	.LVL346:
  43:C:/Renesas/e2studio_2021_01_workspace_RZA2M_ANPR/ANPR_RZA2M_GR_MANGO/src/tensorflow_lite/src/tensorflow/lite/kernels/internal/reference\arg_min_max.h ****     axis += input1_shape.DimensionsCount();
 2788              		.loc 2 43 0
 2789 0028 000052E3 		cmp	r2, #0
 2790 002c 180100BA 		blt	.L435
 2791              	.LVL347:
 2792              	.L299:
 2793              	.LBB679:
 2794              	.LBB680:
 215:C:/Renesas/e2studio_2021_01_workspace_RZA2M_ANPR/ANPR_RZA2M_GR_MANGO/src/tensorflow_lite/src/tensorflow/lite/kernels/internal\types.h ****     return size_ > kMaxSmallSize ? dims_pointer_[i] : dims_[i];
 2795              		.loc 3 215 0
 2796 0030 02005CE1 		cmp	ip, r2
 2797 0034 300000DA 		ble	.L298
 2798              		.loc 3 216 0
 2799 0038 05005CE3 		cmp	ip, #5
 2800 003c A70000CA 		bgt	.L436
 2801 0040 02E180E0 		add	lr, r0, r2, lsl #2
 2802              	.LBE680:
 2803              	.LBE679:
 2804              	.LBB685:
  49:C:/Renesas/e2studio_2021_01_workspace_RZA2M_ANPR/ANPR_RZA2M_GR_MANGO/src/tensorflow_lite/src/tensorflow/lite/kernels/internal/reference\arg_min_max.h ****     TFLITE_DCHECK_EQ(input1_shape.Dims(i), output_shape.Dims(i));
 2805              		.loc 2 49 0
 2806 0044 000052E3 		cmp	r2, #0
 2807              	.LBE685:
 2808              	.LBB772:
 2809              	.LBB681:
 2810              		.loc 3 216 0
 2811 0048 04E09EE5 		ldr	lr, [lr, #4]
 2812              	.LVL348:
 2813              	.LBE681:
 2814              	.LBE772:
 2815              	.LBB773:
  49:C:/Renesas/e2studio_2021_01_workspace_RZA2M_ANPR/ANPR_RZA2M_GR_MANGO/src/tensorflow_lite/src/tensorflow/lite/kernels/internal/reference\arg_min_max.h ****     TFLITE_DCHECK_EQ(input1_shape.Dims(i), output_shape.Dims(i));
 2816              		.loc 2 49 0
 2817 004c 7401000A 		beq	.L301
 2818 0050 050054E3 		cmp	r4, #5
 2819 0054 290000CA 		bgt	.L305
 2820              	.LVL349:
 2821              	.LBB686:
 2822              	.LBB687:
 215:C:/Renesas/e2studio_2021_01_workspace_RZA2M_ANPR/ANPR_RZA2M_GR_MANGO/src/tensorflow_lite/src/tensorflow/lite/kernels/internal\types.h ****     return size_ > kMaxSmallSize ? dims_pointer_[i] : dims_[i];
 2823              		.loc 3 215 0
 2824 0058 000054E3 		cmp	r4, #0
 2825              	.LBE687:
 2826              	.LBE686:
 2827              	.LBB712:
 2828              	.LBB713:
 2829              		.loc 3 216 0
 2830 005c 049090E5 		ldr	r9, [r0, #4]
 2831              	.LVL350:
 2832              	.LBE713:
 2833              	.LBE712:
 2834              	.LBB731:
 2835              	.LBB688:
 215:C:/Renesas/e2studio_2021_01_workspace_RZA2M_ANPR/ANPR_RZA2M_GR_MANGO/src/tensorflow_lite/src/tensorflow/lite/kernels/internal\types.h ****     return size_ > kMaxSmallSize ? dims_pointer_[i] : dims_[i];
 2836              		.loc 3 215 0
 2837 0060 2500000A 		beq	.L298
 2838              	.LVL351:
 2839              	.LBE688:
 2840              	.LBE731:
  50:C:/Renesas/e2studio_2021_01_workspace_RZA2M_ANPR/ANPR_RZA2M_GR_MANGO/src/tensorflow_lite/src/tensorflow/lite/kernels/internal/reference\arg_min_max.h ****     outer_size *= input1_shape.Dims(i);
 2841              		.loc 2 50 0
 2842 0064 045093E5 		ldr	r5, [r3, #4]
 2843 0068 050059E1 		cmp	r9, r5
 2844 006c 2200001A 		bne	.L298
 2845              	.LVL352:
  49:C:/Renesas/e2studio_2021_01_workspace_RZA2M_ANPR/ANPR_RZA2M_GR_MANGO/src/tensorflow_lite/src/tensorflow/lite/kernels/internal/reference\arg_min_max.h ****     TFLITE_DCHECK_EQ(input1_shape.Dims(i), output_shape.Dims(i));
 2846              		.loc 2 49 0
 2847 0070 010052E3 		cmp	r2, #1
 2848 0074 3701000A 		beq	.L306
 2849              	.LVL353:
 2850              	.LBB732:
 2851              	.LBB714:
 215:C:/Renesas/e2studio_2021_01_workspace_RZA2M_ANPR/ANPR_RZA2M_GR_MANGO/src/tensorflow_lite/src/tensorflow/lite/kernels/internal\types.h ****     return size_ > kMaxSmallSize ? dims_pointer_[i] : dims_[i];
 2852              		.loc 3 215 0
 2853 0078 01005CE3 		cmp	ip, #1
 2854 007c 1E00000A 		beq	.L298
 2855              	.LBE714:
 2856              	.LBE732:
 2857              	.LBB733:
 2858              	.LBB689:
 2859 0080 010054E3 		cmp	r4, #1
 2860              	.LBE689:
 2861              	.LBE733:
 2862              	.LBB734:
 2863              	.LBB715:
 2864              		.loc 3 216 0
 2865 0084 085090E5 		ldr	r5, [r0, #8]
 2866              	.LVL354:
 2867              	.LBE715:
 2868              	.LBE734:
 2869              	.LBB735:
 2870              	.LBB690:
 215:C:/Renesas/e2studio_2021_01_workspace_RZA2M_ANPR/ANPR_RZA2M_GR_MANGO/src/tensorflow_lite/src/tensorflow/lite/kernels/internal\types.h ****     return size_ > kMaxSmallSize ? dims_pointer_[i] : dims_[i];
 2871              		.loc 3 215 0
 2872 0088 1B00000A 		beq	.L298
 2873              	.LVL355:
 2874              	.LBE690:
 2875              	.LBE735:
  50:C:/Renesas/e2studio_2021_01_workspace_RZA2M_ANPR/ANPR_RZA2M_GR_MANGO/src/tensorflow_lite/src/tensorflow/lite/kernels/internal/reference\arg_min_max.h ****     outer_size *= input1_shape.Dims(i);
 2876              		.loc 2 50 0
 2877 008c 086093E5 		ldr	r6, [r3, #8]
 2878 0090 060055E1 		cmp	r5, r6
 2879 0094 1800001A 		bne	.L298
  49:C:/Renesas/e2studio_2021_01_workspace_RZA2M_ANPR/ANPR_RZA2M_GR_MANGO/src/tensorflow_lite/src/tensorflow/lite/kernels/internal/reference\arg_min_max.h ****     TFLITE_DCHECK_EQ(input1_shape.Dims(i), output_shape.Dims(i));
 2880              		.loc 2 49 0
 2881 0098 020052E3 		cmp	r2, #2
  51:C:/Renesas/e2studio_2021_01_workspace_RZA2M_ANPR/ANPR_RZA2M_GR_MANGO/src/tensorflow_lite/src/tensorflow/lite/kernels/internal/reference\arg_min_max.h ****   }
 2882              		.loc 2 51 0
 2883 009c 950909E0 		mul	r9, r5, r9
 2884              	.LVL356:
  49:C:/Renesas/e2studio_2021_01_workspace_RZA2M_ANPR/ANPR_RZA2M_GR_MANGO/src/tensorflow_lite/src/tensorflow/lite/kernels/internal/reference\arg_min_max.h ****     TFLITE_DCHECK_EQ(input1_shape.Dims(i), output_shape.Dims(i));
 2885              		.loc 2 49 0
 2886 00a0 2C01000A 		beq	.L306
 2887              	.LVL357:
 2888              	.LBB736:
 2889              	.LBB716:
 215:C:/Renesas/e2studio_2021_01_workspace_RZA2M_ANPR/ANPR_RZA2M_GR_MANGO/src/tensorflow_lite/src/tensorflow/lite/kernels/internal\types.h ****     return size_ > kMaxSmallSize ? dims_pointer_[i] : dims_[i];
 2890              		.loc 3 215 0
 2891 00a4 02005CE3 		cmp	ip, #2
 2892 00a8 1300000A 		beq	.L298
 2893              	.LBE716:
 2894              	.LBE736:
 2895              	.LBB737:
 2896              	.LBB691:
 2897 00ac 020054E3 		cmp	r4, #2
 2898              	.LBE691:
 2899              	.LBE737:
 2900              	.LBB738:
 2901              	.LBB717:
 2902              		.loc 3 216 0
 2903 00b0 0C5090E5 		ldr	r5, [r0, #12]
 2904              	.LVL358:
 2905              	.LBE717:
 2906              	.LBE738:
 2907              	.LBB739:
 2908              	.LBB692:
 215:C:/Renesas/e2studio_2021_01_workspace_RZA2M_ANPR/ANPR_RZA2M_GR_MANGO/src/tensorflow_lite/src/tensorflow/lite/kernels/internal\types.h ****     return size_ > kMaxSmallSize ? dims_pointer_[i] : dims_[i];
 2909              		.loc 3 215 0
 2910 00b4 1000000A 		beq	.L298
 2911              	.LVL359:
 2912              	.LBE692:
 2913              	.LBE739:
  50:C:/Renesas/e2studio_2021_01_workspace_RZA2M_ANPR/ANPR_RZA2M_GR_MANGO/src/tensorflow_lite/src/tensorflow/lite/kernels/internal/reference\arg_min_max.h ****     outer_size *= input1_shape.Dims(i);
 2914              		.loc 2 50 0
 2915 00b8 0C6093E5 		ldr	r6, [r3, #12]
 2916 00bc 060055E1 		cmp	r5, r6
 2917 00c0 0D00001A 		bne	.L298
  49:C:/Renesas/e2studio_2021_01_workspace_RZA2M_ANPR/ANPR_RZA2M_GR_MANGO/src/tensorflow_lite/src/tensorflow/lite/kernels/internal/reference\arg_min_max.h ****     TFLITE_DCHECK_EQ(input1_shape.Dims(i), output_shape.Dims(i));
 2918              		.loc 2 49 0
 2919 00c4 030052E3 		cmp	r2, #3
  51:C:/Renesas/e2studio_2021_01_workspace_RZA2M_ANPR/ANPR_RZA2M_GR_MANGO/src/tensorflow_lite/src/tensorflow/lite/kernels/internal/reference\arg_min_max.h ****   }
 2920              		.loc 2 51 0
 2921 00c8 950909E0 		mul	r9, r5, r9
 2922              	.LVL360:
  49:C:/Renesas/e2studio_2021_01_workspace_RZA2M_ANPR/ANPR_RZA2M_GR_MANGO/src/tensorflow_lite/src/tensorflow/lite/kernels/internal/reference\arg_min_max.h ****     TFLITE_DCHECK_EQ(input1_shape.Dims(i), output_shape.Dims(i));
 2923              		.loc 2 49 0
 2924 00cc 2101000A 		beq	.L306
 2925              	.LVL361:
 2926              	.LBB740:
 2927              	.LBB718:
 215:C:/Renesas/e2studio_2021_01_workspace_RZA2M_ANPR/ANPR_RZA2M_GR_MANGO/src/tensorflow_lite/src/tensorflow/lite/kernels/internal\types.h ****     return size_ > kMaxSmallSize ? dims_pointer_[i] : dims_[i];
 2928              		.loc 3 215 0
 2929 00d0 03005CE3 		cmp	ip, #3
 2930 00d4 0800000A 		beq	.L298
 2931              	.LBE718:
 2932              	.LBE740:
 2933              	.LBB741:
 2934              	.LBB693:
 2935 00d8 030054E3 		cmp	r4, #3
 2936              	.LBE693:
 2937              	.LBE741:
 2938              	.LBB742:
 2939              	.LBB719:
 2940              		.loc 3 216 0
 2941 00dc 105090E5 		ldr	r5, [r0, #16]
 2942              	.LVL362:
 2943              	.LBE719:
 2944              	.LBE742:
 2945              	.LBB743:
 2946              	.LBB694:
 215:C:/Renesas/e2studio_2021_01_workspace_RZA2M_ANPR/ANPR_RZA2M_GR_MANGO/src/tensorflow_lite/src/tensorflow/lite/kernels/internal\types.h ****     return size_ > kMaxSmallSize ? dims_pointer_[i] : dims_[i];
 2947              		.loc 3 215 0
 2948 00e0 0500000A 		beq	.L298
 2949              	.LVL363:
 2950              	.LBE694:
 2951              	.LBE743:
  50:C:/Renesas/e2studio_2021_01_workspace_RZA2M_ANPR/ANPR_RZA2M_GR_MANGO/src/tensorflow_lite/src/tensorflow/lite/kernels/internal/reference\arg_min_max.h ****     outer_size *= input1_shape.Dims(i);
 2952              		.loc 2 50 0
 2953 00e4 106093E5 		ldr	r6, [r3, #16]
 2954 00e8 060055E1 		cmp	r5, r6
 2955 00ec 0200001A 		bne	.L298
  49:C:/Renesas/e2studio_2021_01_workspace_RZA2M_ANPR/ANPR_RZA2M_GR_MANGO/src/tensorflow_lite/src/tensorflow/lite/kernels/internal/reference\arg_min_max.h ****     TFLITE_DCHECK_EQ(input1_shape.Dims(i), output_shape.Dims(i));
 2956              		.loc 2 49 0
 2957 00f0 040052E3 		cmp	r2, #4
  51:C:/Renesas/e2studio_2021_01_workspace_RZA2M_ANPR/ANPR_RZA2M_GR_MANGO/src/tensorflow_lite/src/tensorflow/lite/kernels/internal/reference\arg_min_max.h ****   }
 2958              		.loc 2 51 0
 2959 00f4 950909E0 		mul	r9, r5, r9
 2960              	.LVL364:
  49:C:/Renesas/e2studio_2021_01_workspace_RZA2M_ANPR/ANPR_RZA2M_GR_MANGO/src/tensorflow_lite/src/tensorflow/lite/kernels/internal/reference\arg_min_max.h ****     TFLITE_DCHECK_EQ(input1_shape.Dims(i), output_shape.Dims(i));
 2961              		.loc 2 49 0
 2962 00f8 1601000A 		beq	.L306
 2963              	.LVL365:
 2964              	.L298:
 2965              	.LBE773:
  39:C:/Renesas/e2studio_2021_01_workspace_RZA2M_ANPR/ANPR_RZA2M_GR_MANGO/src/tensorflow_lite/src/tensorflow/lite/kernels/internal/reference\arg_min_max.h ****   TFLITE_DCHECK_EQ(input1_shape.DimensionsCount() - 1,
 2966              		.loc 2 39 0 discriminator 1
 2967 00fc FEFFFFEB 		bl	abort
 2968              	.LVL366:
 2969              	.L305:
 2970              	.LBB774:
 2971              	.LBB744:
 2972              	.LBB695:
 2973              		.loc 3 216 0
 2974 0100 045093E5 		ldr	r5, [r3, #4]
 2975              	.LBE695:
 2976              	.LBE744:
 2977              	.LBB745:
 2978              	.LBB720:
 2979 0104 049090E5 		ldr	r9, [r0, #4]
 2980              	.LVL367:
 2981              	.LBE720:
 2982              	.LBE745:
 2983              	.LBB746:
 2984              	.LBB696:
 2985 0108 006095E5 		ldr	r6, [r5]
 2986              	.LVL368:
 2987              	.LBE696:
 2988              	.LBE746:
  50:C:/Renesas/e2studio_2021_01_workspace_RZA2M_ANPR/ANPR_RZA2M_GR_MANGO/src/tensorflow_lite/src/tensorflow/lite/kernels/internal/reference\arg_min_max.h ****     outer_size *= input1_shape.Dims(i);
 2989              		.loc 2 50 0
 2990 010c 060059E1 		cmp	r9, r6
 2991 0110 F9FFFF1A 		bne	.L298
 2992              	.LVL369:
  49:C:/Renesas/e2studio_2021_01_workspace_RZA2M_ANPR/ANPR_RZA2M_GR_MANGO/src/tensorflow_lite/src/tensorflow/lite/kernels/internal/reference\arg_min_max.h ****     TFLITE_DCHECK_EQ(input1_shape.Dims(i), output_shape.Dims(i));
 2993              		.loc 2 49 0
 2994 0114 010052E3 		cmp	r2, #1
 2995 0118 1A00000A 		beq	.L307
 2996              	.LVL370:
 2997              	.LBB747:
 2998              	.LBB721:
 215:C:/Renesas/e2studio_2021_01_workspace_RZA2M_ANPR/ANPR_RZA2M_GR_MANGO/src/tensorflow_lite/src/tensorflow/lite/kernels/internal\types.h ****     return size_ > kMaxSmallSize ? dims_pointer_[i] : dims_[i];
 2999              		.loc 3 215 0
 3000 011c 01005CE3 		cmp	ip, #1
 3001 0120 F5FFFF0A 		beq	.L298
 3002              	.LVL371:
 3003              	.LBE721:
 3004              	.LBE747:
 3005              	.LBB748:
 3006              	.LBB697:
 3007              		.loc 3 216 0
 3008 0124 047095E5 		ldr	r7, [r5, #4]
 3009              	.LVL372:
 3010              	.LBE697:
 3011              	.LBE748:
  50:C:/Renesas/e2studio_2021_01_workspace_RZA2M_ANPR/ANPR_RZA2M_GR_MANGO/src/tensorflow_lite/src/tensorflow/lite/kernels/internal/reference\arg_min_max.h ****     outer_size *= input1_shape.Dims(i);
 3012              		.loc 2 50 0
 3013 0128 086090E5 		ldr	r6, [r0, #8]
 3014 012c 070056E1 		cmp	r6, r7
 3015 0130 F1FFFF1A 		bne	.L298
  49:C:/Renesas/e2studio_2021_01_workspace_RZA2M_ANPR/ANPR_RZA2M_GR_MANGO/src/tensorflow_lite/src/tensorflow/lite/kernels/internal/reference\arg_min_max.h ****     TFLITE_DCHECK_EQ(input1_shape.Dims(i), output_shape.Dims(i));
 3016              		.loc 2 49 0
 3017 0134 020052E3 		cmp	r2, #2
  51:C:/Renesas/e2studio_2021_01_workspace_RZA2M_ANPR/ANPR_RZA2M_GR_MANGO/src/tensorflow_lite/src/tensorflow/lite/kernels/internal/reference\arg_min_max.h ****   }
 3018              		.loc 2 51 0
 3019 0138 960909E0 		mul	r9, r6, r9
 3020              	.LVL373:
  49:C:/Renesas/e2studio_2021_01_workspace_RZA2M_ANPR/ANPR_RZA2M_GR_MANGO/src/tensorflow_lite/src/tensorflow/lite/kernels/internal/reference\arg_min_max.h ****     TFLITE_DCHECK_EQ(input1_shape.Dims(i), output_shape.Dims(i));
 3021              		.loc 2 49 0
 3022 013c 1100000A 		beq	.L307
 3023              	.LVL374:
 3024              	.LBB749:
 3025              	.LBB722:
 215:C:/Renesas/e2studio_2021_01_workspace_RZA2M_ANPR/ANPR_RZA2M_GR_MANGO/src/tensorflow_lite/src/tensorflow/lite/kernels/internal\types.h ****     return size_ > kMaxSmallSize ? dims_pointer_[i] : dims_[i];
 3026              		.loc 3 215 0
 3027 0140 02005CE3 		cmp	ip, #2
 3028 0144 ECFFFF0A 		beq	.L298
 3029              	.LVL375:
 3030              	.LBE722:
 3031              	.LBE749:
 3032              	.LBB750:
 3033              	.LBB698:
 3034              		.loc 3 216 0
 3035 0148 087095E5 		ldr	r7, [r5, #8]
 3036              	.LVL376:
 3037              	.LBE698:
 3038              	.LBE750:
  50:C:/Renesas/e2studio_2021_01_workspace_RZA2M_ANPR/ANPR_RZA2M_GR_MANGO/src/tensorflow_lite/src/tensorflow/lite/kernels/internal/reference\arg_min_max.h ****     outer_size *= input1_shape.Dims(i);
 3039              		.loc 2 50 0
 3040 014c 0C6090E5 		ldr	r6, [r0, #12]
 3041 0150 070056E1 		cmp	r6, r7
 3042 0154 E8FFFF1A 		bne	.L298
  49:C:/Renesas/e2studio_2021_01_workspace_RZA2M_ANPR/ANPR_RZA2M_GR_MANGO/src/tensorflow_lite/src/tensorflow/lite/kernels/internal/reference\arg_min_max.h ****     TFLITE_DCHECK_EQ(input1_shape.Dims(i), output_shape.Dims(i));
 3043              		.loc 2 49 0
 3044 0158 030052E3 		cmp	r2, #3
  51:C:/Renesas/e2studio_2021_01_workspace_RZA2M_ANPR/ANPR_RZA2M_GR_MANGO/src/tensorflow_lite/src/tensorflow/lite/kernels/internal/reference\arg_min_max.h ****   }
 3045              		.loc 2 51 0
 3046 015c 960909E0 		mul	r9, r6, r9
 3047              	.LVL377:
  49:C:/Renesas/e2studio_2021_01_workspace_RZA2M_ANPR/ANPR_RZA2M_GR_MANGO/src/tensorflow_lite/src/tensorflow/lite/kernels/internal/reference\arg_min_max.h ****     TFLITE_DCHECK_EQ(input1_shape.Dims(i), output_shape.Dims(i));
 3048              		.loc 2 49 0
 3049 0160 0800000A 		beq	.L307
 3050              	.LVL378:
 3051              	.LBB751:
 3052              	.LBB723:
 215:C:/Renesas/e2studio_2021_01_workspace_RZA2M_ANPR/ANPR_RZA2M_GR_MANGO/src/tensorflow_lite/src/tensorflow/lite/kernels/internal\types.h ****     return size_ > kMaxSmallSize ? dims_pointer_[i] : dims_[i];
 3053              		.loc 3 215 0
 3054 0164 03005CE3 		cmp	ip, #3
 3055 0168 E3FFFF0A 		beq	.L298
 3056              	.LVL379:
 3057              	.LBE723:
 3058              	.LBE751:
 3059              	.LBB752:
 3060              	.LBB699:
 3061              		.loc 3 216 0
 3062 016c 0C6095E5 		ldr	r6, [r5, #12]
 3063              	.LVL380:
 3064              	.LBE699:
 3065              	.LBE752:
  50:C:/Renesas/e2studio_2021_01_workspace_RZA2M_ANPR/ANPR_RZA2M_GR_MANGO/src/tensorflow_lite/src/tensorflow/lite/kernels/internal/reference\arg_min_max.h ****     outer_size *= input1_shape.Dims(i);
 3066              		.loc 2 50 0
 3067 0170 105090E5 		ldr	r5, [r0, #16]
 3068 0174 060055E1 		cmp	r5, r6
 3069 0178 DFFFFF1A 		bne	.L298
  49:C:/Renesas/e2studio_2021_01_workspace_RZA2M_ANPR/ANPR_RZA2M_GR_MANGO/src/tensorflow_lite/src/tensorflow/lite/kernels/internal/reference\arg_min_max.h ****     TFLITE_DCHECK_EQ(input1_shape.Dims(i), output_shape.Dims(i));
 3070              		.loc 2 49 0
 3071 017c 040052E3 		cmp	r2, #4
  51:C:/Renesas/e2studio_2021_01_workspace_RZA2M_ANPR/ANPR_RZA2M_GR_MANGO/src/tensorflow_lite/src/tensorflow/lite/kernels/internal/reference\arg_min_max.h ****   }
 3072              		.loc 2 51 0
 3073 0180 950909E0 		mul	r9, r5, r9
 3074              	.LVL381:
  49:C:/Renesas/e2studio_2021_01_workspace_RZA2M_ANPR/ANPR_RZA2M_GR_MANGO/src/tensorflow_lite/src/tensorflow/lite/kernels/internal/reference\arg_min_max.h ****     TFLITE_DCHECK_EQ(input1_shape.Dims(i), output_shape.Dims(i));
 3075              		.loc 2 49 0
 3076 0184 DCFFFF1A 		bne	.L298
 3077              	.LVL382:
 3078              	.L307:
 3079              	.LBE774:
 3080              	.LBB775:
  56:C:/Renesas/e2studio_2021_01_workspace_RZA2M_ANPR/ANPR_RZA2M_GR_MANGO/src/tensorflow_lite/src/tensorflow/lite/kernels/internal/reference\arg_min_max.h ****     TFLITE_DCHECK_EQ(input1_shape.Dims(i), output_shape.Dims(i - 1));
 3081              		.loc 2 56 0
 3082 0188 012082E2 		add	r2, r2, #1
 3083              	.LVL383:
 3084 018c 02005CE1 		cmp	ip, r2
 3085 0190 EE0000DA 		ble	.L342
 3086              	.LVL384:
 3087              	.L314:
  57:C:/Renesas/e2studio_2021_01_workspace_RZA2M_ANPR/ANPR_RZA2M_GR_MANGO/src/tensorflow_lite/src/tensorflow/lite/kernels/internal/reference\arg_min_max.h ****     inner_size *= input1_shape.Dims(i);
 3088              		.loc 2 57 0
 3089 0194 015042E2 		sub	r5, r2, #1
 3090              	.LBB776:
 3091              	.LBB777:
 3092              		.loc 3 216 0
 3093 0198 026180E0 		add	r6, r0, r2, lsl #2
 3094              	.LBE777:
 3095              	.LBE776:
 3096              	.LBB798:
 3097              	.LBB799:
 215:C:/Renesas/e2studio_2021_01_workspace_RZA2M_ANPR/ANPR_RZA2M_GR_MANGO/src/tensorflow_lite/src/tensorflow/lite/kernels/internal\types.h ****     return size_ > kMaxSmallSize ? dims_pointer_[i] : dims_[i];
 3098              		.loc 3 215 0
 3099 019c 050054E1 		cmp	r4, r5
 3100              	.LBE799:
 3101              	.LBE798:
 3102              	.LBB828:
 3103              	.LBB778:
 3104              		.loc 3 216 0
 3105 01a0 046096E5 		ldr	r6, [r6, #4]
 3106              	.LVL385:
 3107              	.LBE778:
 3108              	.LBE828:
 3109              	.LBB829:
 3110              	.LBB800:
 215:C:/Renesas/e2studio_2021_01_workspace_RZA2M_ANPR/ANPR_RZA2M_GR_MANGO/src/tensorflow_lite/src/tensorflow/lite/kernels/internal\types.h ****     return size_ > kMaxSmallSize ? dims_pointer_[i] : dims_[i];
 3111              		.loc 3 215 0
 3112 01a4 D4FFFFDA 		ble	.L298
 3113              		.loc 3 216 0
 3114 01a8 043093E5 		ldr	r3, [r3, #4]
 3115              	.LVL386:
 3116 01ac 0571A0E1 		lsl	r7, r5, #2
 3117 01b0 058193E7 		ldr	r8, [r3, r5, lsl #2]
 3118              	.LVL387:
 3119              	.LBE800:
 3120              	.LBE829:
  57:C:/Renesas/e2studio_2021_01_workspace_RZA2M_ANPR/ANPR_RZA2M_GR_MANGO/src/tensorflow_lite/src/tensorflow/lite/kernels/internal/reference\arg_min_max.h ****     inner_size *= input1_shape.Dims(i);
 3121              		.loc 2 57 0
 3122 01b4 060058E1 		cmp	r8, r6
 3123 01b8 CFFFFF1A 		bne	.L298
 3124              	.LVL388:
  56:C:/Renesas/e2studio_2021_01_workspace_RZA2M_ANPR/ANPR_RZA2M_GR_MANGO/src/tensorflow_lite/src/tensorflow/lite/kernels/internal/reference\arg_min_max.h ****     TFLITE_DCHECK_EQ(input1_shape.Dims(i), output_shape.Dims(i - 1));
 3125              		.loc 2 56 0
 3126 01bc 016082E2 		add	r6, r2, #1
 3127              	.LVL389:
 3128 01c0 06005CE1 		cmp	ip, r6
 3129 01c4 1E0000DA 		ble	.L318
 3130              	.LVL390:
 3131              	.LBB830:
 3132              	.LBB779:
 3133              		.loc 3 216 0
 3134 01c8 065180E0 		add	r5, r0, r6, lsl #2
 3135              	.LBE779:
 3136              	.LBE830:
 3137              	.LBB831:
 3138              	.LBB801:
 215:C:/Renesas/e2studio_2021_01_workspace_RZA2M_ANPR/ANPR_RZA2M_GR_MANGO/src/tensorflow_lite/src/tensorflow/lite/kernels/internal\types.h ****     return size_ > kMaxSmallSize ? dims_pointer_[i] : dims_[i];
 3139              		.loc 3 215 0
 3140 01cc 020054E1 		cmp	r4, r2
 3141              	.LBE801:
 3142              	.LBE831:
 3143              	.LBB832:
 3144              	.LBB780:
 3145              		.loc 3 216 0
 3146 01d0 045095E5 		ldr	r5, [r5, #4]
 3147              	.LVL391:
 3148              	.LBE780:
 3149              	.LBE832:
 3150              	.LBB833:
 3151              	.LBB802:
 215:C:/Renesas/e2studio_2021_01_workspace_RZA2M_ANPR/ANPR_RZA2M_GR_MANGO/src/tensorflow_lite/src/tensorflow/lite/kernels/internal\types.h ****     return size_ > kMaxSmallSize ? dims_pointer_[i] : dims_[i];
 3152              		.loc 3 215 0
 3153 01d4 C8FFFFDA 		ble	.L298
 3154              		.loc 3 216 0
 3155 01d8 073083E0 		add	r3, r3, r7
 3156 01dc 047093E5 		ldr	r7, [r3, #4]
 3157              	.LVL392:
 3158              	.LBE802:
 3159              	.LBE833:
  57:C:/Renesas/e2studio_2021_01_workspace_RZA2M_ANPR/ANPR_RZA2M_GR_MANGO/src/tensorflow_lite/src/tensorflow/lite/kernels/internal/reference\arg_min_max.h ****     inner_size *= input1_shape.Dims(i);
 3160              		.loc 2 57 0
 3161 01e0 050057E1 		cmp	r7, r5
 3162 01e4 C4FFFF1A 		bne	.L298
  56:C:/Renesas/e2studio_2021_01_workspace_RZA2M_ANPR/ANPR_RZA2M_GR_MANGO/src/tensorflow_lite/src/tensorflow/lite/kernels/internal/reference\arg_min_max.h ****     TFLITE_DCHECK_EQ(input1_shape.Dims(i), output_shape.Dims(i - 1));
 3163              		.loc 2 56 0
 3164 01e8 025082E2 		add	r5, r2, #2
  58:C:/Renesas/e2studio_2021_01_workspace_RZA2M_ANPR/ANPR_RZA2M_GR_MANGO/src/tensorflow_lite/src/tensorflow/lite/kernels/internal/reference\arg_min_max.h ****   }
 3165              		.loc 2 58 0
 3166 01ec 980708E0 		mul	r8, r8, r7
 3167              	.LVL393:
  56:C:/Renesas/e2studio_2021_01_workspace_RZA2M_ANPR/ANPR_RZA2M_GR_MANGO/src/tensorflow_lite/src/tensorflow/lite/kernels/internal/reference\arg_min_max.h ****     TFLITE_DCHECK_EQ(input1_shape.Dims(i), output_shape.Dims(i - 1));
 3168              		.loc 2 56 0
 3169 01f0 05005CE1 		cmp	ip, r5
 3170 01f4 120000DA 		ble	.L318
 3171              	.LVL394:
 3172              	.LBB834:
 3173              	.LBB803:
 215:C:/Renesas/e2studio_2021_01_workspace_RZA2M_ANPR/ANPR_RZA2M_GR_MANGO/src/tensorflow_lite/src/tensorflow/lite/kernels/internal\types.h ****     return size_ > kMaxSmallSize ? dims_pointer_[i] : dims_[i];
 3174              		.loc 3 215 0
 3175 01f8 060054E1 		cmp	r4, r6
 3176              	.LBE803:
 3177              	.LBE834:
 3178              	.LBB835:
 3179              	.LBB781:
 3180              		.loc 3 216 0
 3181 01fc 056180E0 		add	r6, r0, r5, lsl #2
 3182 0200 047096E5 		ldr	r7, [r6, #4]
 3183              	.LVL395:
 3184              	.LBE781:
 3185              	.LBE835:
 3186              	.LBB836:
 3187              	.LBB804:
 215:C:/Renesas/e2studio_2021_01_workspace_RZA2M_ANPR/ANPR_RZA2M_GR_MANGO/src/tensorflow_lite/src/tensorflow/lite/kernels/internal\types.h ****     return size_ > kMaxSmallSize ? dims_pointer_[i] : dims_[i];
 3188              		.loc 3 215 0
 3189 0204 BCFFFFDA 		ble	.L298
 3190              		.loc 3 216 0
 3191 0208 086093E5 		ldr	r6, [r3, #8]
 3192              	.LVL396:
 3193              	.LBE804:
 3194              	.LBE836:
  57:C:/Renesas/e2studio_2021_01_workspace_RZA2M_ANPR/ANPR_RZA2M_GR_MANGO/src/tensorflow_lite/src/tensorflow/lite/kernels/internal/reference\arg_min_max.h ****     inner_size *= input1_shape.Dims(i);
 3195              		.loc 2 57 0
 3196 020c 070056E1 		cmp	r6, r7
 3197 0210 B9FFFF1A 		bne	.L298
 3198              	.LVL397:
  56:C:/Renesas/e2studio_2021_01_workspace_RZA2M_ANPR/ANPR_RZA2M_GR_MANGO/src/tensorflow_lite/src/tensorflow/lite/kernels/internal/reference\arg_min_max.h ****     TFLITE_DCHECK_EQ(input1_shape.Dims(i), output_shape.Dims(i - 1));
 3199              		.loc 2 56 0
 3200 0214 032082E2 		add	r2, r2, #3
  58:C:/Renesas/e2studio_2021_01_workspace_RZA2M_ANPR/ANPR_RZA2M_GR_MANGO/src/tensorflow_lite/src/tensorflow/lite/kernels/internal/reference\arg_min_max.h ****   }
 3201              		.loc 2 58 0
 3202 0218 960808E0 		mul	r8, r6, r8
 3203              	.LVL398:
  56:C:/Renesas/e2studio_2021_01_workspace_RZA2M_ANPR/ANPR_RZA2M_GR_MANGO/src/tensorflow_lite/src/tensorflow/lite/kernels/internal/reference\arg_min_max.h ****     TFLITE_DCHECK_EQ(input1_shape.Dims(i), output_shape.Dims(i - 1));
 3204              		.loc 2 56 0
 3205 021c 02005CE1 		cmp	ip, r2
 3206 0220 070000DA 		ble	.L318
 3207              	.LVL399:
 3208              	.LBB837:
 3209              	.LBB782:
 3210              		.loc 3 216 0
 3211 0224 022180E0 		add	r2, r0, r2, lsl #2
 3212              	.LVL400:
 3213              	.LBE782:
 3214              	.LBE837:
 3215              	.LBB838:
 3216              	.LBB805:
 215:C:/Renesas/e2studio_2021_01_workspace_RZA2M_ANPR/ANPR_RZA2M_GR_MANGO/src/tensorflow_lite/src/tensorflow/lite/kernels/internal\types.h ****     return size_ > kMaxSmallSize ? dims_pointer_[i] : dims_[i];
 3217              		.loc 3 215 0
 3218 0228 050054E1 		cmp	r4, r5
 3219              	.LBE805:
 3220              	.LBE838:
 3221              	.LBB839:
 3222              	.LBB783:
 3223              		.loc 3 216 0
 3224 022c 042092E5 		ldr	r2, [r2, #4]
 3225              	.LVL401:
 3226              	.LBE783:
 3227              	.LBE839:
 3228              	.LBB840:
 3229              	.LBB806:
 215:C:/Renesas/e2studio_2021_01_workspace_RZA2M_ANPR/ANPR_RZA2M_GR_MANGO/src/tensorflow_lite/src/tensorflow/lite/kernels/internal\types.h ****     return size_ > kMaxSmallSize ? dims_pointer_[i] : dims_[i];
 3230              		.loc 3 215 0
 3231 0230 B1FFFFDA 		ble	.L298
 3232              		.loc 3 216 0
 3233 0234 0C3093E5 		ldr	r3, [r3, #12]
 3234              	.LVL402:
 3235              	.LBE806:
 3236              	.LBE840:
  57:C:/Renesas/e2studio_2021_01_workspace_RZA2M_ANPR/ANPR_RZA2M_GR_MANGO/src/tensorflow_lite/src/tensorflow/lite/kernels/internal/reference\arg_min_max.h ****     inner_size *= input1_shape.Dims(i);
 3237              		.loc 2 57 0
 3238 0238 020053E1 		cmp	r3, r2
 3239 023c AEFFFF1A 		bne	.L298
 3240              	.LVL403:
 3241              	.L431:
  58:C:/Renesas/e2studio_2021_01_workspace_RZA2M_ANPR/ANPR_RZA2M_GR_MANGO/src/tensorflow_lite/src/tensorflow/lite/kernels/internal/reference\arg_min_max.h ****   }
 3242              		.loc 2 58 0
 3243 0240 920808E0 		mul	r8, r2, r8
 3244              	.LVL404:
 3245              	.L318:
 3246              	.LBE775:
 3247              	.LBB876:
  60:C:/Renesas/e2studio_2021_01_workspace_RZA2M_ANPR/ANPR_RZA2M_GR_MANGO/src/tensorflow_lite/src/tensorflow/lite/kernels/internal/reference\arg_min_max.h ****     for (int inner = 0; inner < inner_size; ++inner) {
 3248              		.loc 2 60 0 discriminator 1
 3249 0244 000059E3 		cmp	r9, #0
 3250 0248 220000DA 		ble	.L296
 3251 024c 000058E3 		cmp	r8, #0
 3252 0250 200000DA 		ble	.L296
 3253              	.LVL405:
 3254              	.L325:
 3255 0254 9E0803E0 		mul	r3, lr, r8
 3256 0258 30A09DE5 		ldr	r10, [sp, #48]
 3257 025c 086081E0 		add	r6, r1, r8
 3258              	.LBE876:
  54:C:/Renesas/e2studio_2021_01_workspace_RZA2M_ANPR/ANPR_RZA2M_GR_MANGO/src/tensorflow_lite/src/tensorflow/lite/kernels/internal/reference\arg_min_max.h ****   const int dims_count = input1_shape.DimensionsCount();
 3259              		.loc 2 54 0 discriminator 1
 3260 0260 00B0A0E3 		mov	fp, #0
 3261 0264 017048E2 		sub	r7, r8, #1
 3262 0268 00308DE5 		str	r3, [sp]
 3263 026c 0831A0E1 		lsl	r3, r8, #2
 3264 0270 04308DE5 		str	r3, [sp, #4]
 3265              	.LVL406:
 3266              	.L321:
 3267 0274 084046E0 		sub	r4, r6, r8
 3268 0278 0A50A0E1 		mov	r5, r10
 3269              	.LVL407:
 3270              	.L320:
 3271              	.LBB884:
 3272              	.LBB877:
 3273              	.LBB878:
 3274              	.LBB879:
  64:C:/Renesas/e2studio_2021_01_workspace_RZA2M_ANPR/ANPR_RZA2M_GR_MANGO/src/tensorflow_lite/src/tensorflow/lite/kernels/internal/reference\arg_min_max.h ****         const auto& curr_value =
 3275              		.loc 2 64 0
 3276 027c 01005EE3 		cmp	lr, #1
 3277              	.LBE879:
  62:C:/Renesas/e2studio_2021_01_workspace_RZA2M_ANPR/ANPR_RZA2M_GR_MANGO/src/tensorflow_lite/src/tensorflow/lite/kernels/internal/reference\arg_min_max.h ****       T2 min_max_index = 0;
 3278              		.loc 2 62 0
 3279 0280 0120D4E4 		ldrb	r2, [r4], #1	@ zero_extendqisi2
 3280              	.LVL408:
 3281              	.LBB880:
  64:C:/Renesas/e2studio_2021_01_workspace_RZA2M_ANPR/ANPR_RZA2M_GR_MANGO/src/tensorflow_lite/src/tensorflow/lite/kernels/internal/reference\arg_min_max.h ****         const auto& curr_value =
 3282              		.loc 2 64 0
 3283 0284 AC0000DA 		ble	.L337
 3284 0288 04C087E0 		add	ip, r7, r4
 3285 028c 0130A0E3 		mov	r3, #1
 3286 0290 0000A0E3 		mov	r0, #0
 3287              	.LVL409:
 3288              	.L323:
 3289 0294 0810DCE6 		ldrb	r1, [ip], r8	@ zero_extendqisi2
 3290 0298 020051E1 		cmp	r1, r2
 3291 029c 0300A0C1 		movgt	r0, r3
 3292 02a0 013083E2 		add	r3, r3, #1
 3293 02a4 0120A0C1 		movgt	r2, r1
 3294              	.LVL410:
 3295 02a8 0E0053E1 		cmp	r3, lr
 3296 02ac F8FFFF1A 		bne	.L323
 3297              	.LBE880:
 3298              	.LBE878:
  61:C:/Renesas/e2studio_2021_01_workspace_RZA2M_ANPR/ANPR_RZA2M_GR_MANGO/src/tensorflow_lite/src/tensorflow/lite/kernels/internal/reference\arg_min_max.h ****       auto min_max_value = input1_data[outer * axis_size * inner_size + inner];
 3299              		.loc 2 61 0 discriminator 2
 3300 02b0 060054E1 		cmp	r4, r6
 3301              	.LBB881:
 3302              		.loc 2 72 0 discriminator 2
 3303 02b4 040085E4 		str	r0, [r5], #4
 3304              	.LVL411:
 3305              	.LBE881:
  61:C:/Renesas/e2studio_2021_01_workspace_RZA2M_ANPR/ANPR_RZA2M_GR_MANGO/src/tensorflow_lite/src/tensorflow/lite/kernels/internal/reference\arg_min_max.h ****       auto min_max_value = input1_data[outer * axis_size * inner_size + inner];
 3306              		.loc 2 61 0 discriminator 2
 3307 02b8 EFFFFF1A 		bne	.L320
 3308              	.LVL412:
 3309              	.L437:
 3310 02bc 00309DE5 		ldr	r3, [sp]
 3311              	.LBE877:
  60:C:/Renesas/e2studio_2021_01_workspace_RZA2M_ANPR/ANPR_RZA2M_GR_MANGO/src/tensorflow_lite/src/tensorflow/lite/kernels/internal/reference\arg_min_max.h ****     for (int inner = 0; inner < inner_size; ++inner) {
 3312              		.loc 2 60 0
 3313 02c0 01B08BE2 		add	fp, fp, #1
 3314              	.LVL413:
 3315 02c4 09005BE1 		cmp	fp, r9
 3316 02c8 036086E0 		add	r6, r6, r3
 3317 02cc 04309DE5 		ldr	r3, [sp, #4]
 3318 02d0 03A08AE0 		add	r10, r10, r3
 3319 02d4 E6FFFFBA 		blt	.L321
 3320              	.LVL414:
 3321              	.L296:
 3322              	.LBE884:
  73:C:/Renesas/e2studio_2021_01_workspace_RZA2M_ANPR/ANPR_RZA2M_GR_MANGO/src/tensorflow_lite/src/tensorflow/lite/kernels/internal/reference\arg_min_max.h ****     }
  74:C:/Renesas/e2studio_2021_01_workspace_RZA2M_ANPR/ANPR_RZA2M_GR_MANGO/src/tensorflow_lite/src/tensorflow/lite/kernels/internal/reference\arg_min_max.h ****   }
  75:C:/Renesas/e2studio_2021_01_workspace_RZA2M_ANPR/ANPR_RZA2M_GR_MANGO/src/tensorflow_lite/src/tensorflow/lite/kernels/internal/reference\arg_min_max.h **** }
 3323              		.loc 2 75 0
 3324 02d8 0CD08DE2 		add	sp, sp, #12
 3325              		.cfi_remember_state
 3326              		.cfi_def_cfa_offset 36
 3327              		@ sp needed
 3328 02dc F08FBDE8 		pop	{r4, r5, r6, r7, r8, r9, r10, fp, pc}
 3329              	.LVL415:
 3330              	.L436:
 3331              		.cfi_restore_state
 3332              	.LBB885:
 3333              	.LBB682:
 3334              		.loc 3 216 0
 3335 02e0 045090E5 		ldr	r5, [r0, #4]
 3336              	.LBE682:
 3337              	.LBE885:
 3338              	.LBB886:
  49:C:/Renesas/e2studio_2021_01_workspace_RZA2M_ANPR/ANPR_RZA2M_GR_MANGO/src/tensorflow_lite/src/tensorflow/lite/kernels/internal/reference\arg_min_max.h ****     TFLITE_DCHECK_EQ(input1_shape.Dims(i), output_shape.Dims(i));
 3339              		.loc 2 49 0
 3340 02e4 000052E3 		cmp	r2, #0
 3341              	.LBE886:
 3342              	.LBB887:
 3343              	.LBB683:
 3344              		.loc 3 216 0
 3345 02e8 02E195E7 		ldr	lr, [r5, r2, lsl #2]
 3346              	.LVL416:
 3347              	.LBE683:
 3348              	.LBE887:
 3349              	.LBB888:
  49:C:/Renesas/e2studio_2021_01_workspace_RZA2M_ANPR/ANPR_RZA2M_GR_MANGO/src/tensorflow_lite/src/tensorflow/lite/kernels/internal/reference\arg_min_max.h ****     TFLITE_DCHECK_EQ(input1_shape.Dims(i), output_shape.Dims(i));
 3350              		.loc 2 49 0
 3351 02ec CC00000A 		beq	.L301
 3352 02f0 050054E3 		cmp	r4, #5
 3353 02f4 690000CA 		bgt	.L308
 3354              	.LVL417:
 3355              	.LBB753:
 3356              	.LBB700:
 215:C:/Renesas/e2studio_2021_01_workspace_RZA2M_ANPR/ANPR_RZA2M_GR_MANGO/src/tensorflow_lite/src/tensorflow/lite/kernels/internal\types.h ****     return size_ > kMaxSmallSize ? dims_pointer_[i] : dims_[i];
 3357              		.loc 3 215 0
 3358 02f8 000054E3 		cmp	r4, #0
 3359              	.LBE700:
 3360              	.LBE753:
 3361              	.LBB754:
 3362              	.LBB724:
 3363              		.loc 3 216 0
 3364 02fc 009095E5 		ldr	r9, [r5]
 3365              	.LVL418:
 3366              	.LBE724:
 3367              	.LBE754:
 3368              	.LBB755:
 3369              	.LBB701:
 215:C:/Renesas/e2studio_2021_01_workspace_RZA2M_ANPR/ANPR_RZA2M_GR_MANGO/src/tensorflow_lite/src/tensorflow/lite/kernels/internal\types.h ****     return size_ > kMaxSmallSize ? dims_pointer_[i] : dims_[i];
 3370              		.loc 3 215 0
 3371 0300 7DFFFF0A 		beq	.L298
 3372              	.LVL419:
 3373              	.LBE701:
 3374              	.LBE755:
  50:C:/Renesas/e2studio_2021_01_workspace_RZA2M_ANPR/ANPR_RZA2M_GR_MANGO/src/tensorflow_lite/src/tensorflow/lite/kernels/internal/reference\arg_min_max.h ****     outer_size *= input1_shape.Dims(i);
 3375              		.loc 2 50 0
 3376 0304 046093E5 		ldr	r6, [r3, #4]
 3377 0308 060059E1 		cmp	r9, r6
 3378 030c 7AFFFF1A 		bne	.L298
 3379              	.LVL420:
  49:C:/Renesas/e2studio_2021_01_workspace_RZA2M_ANPR/ANPR_RZA2M_GR_MANGO/src/tensorflow_lite/src/tensorflow/lite/kernels/internal/reference\arg_min_max.h ****     TFLITE_DCHECK_EQ(input1_shape.Dims(i), output_shape.Dims(i));
 3380              		.loc 2 49 0
 3381 0310 010052E3 		cmp	r2, #1
 3382 0314 2300000A 		beq	.L309
 3383              	.LVL421:
 3384              	.LBB756:
 3385              	.LBB702:
 215:C:/Renesas/e2studio_2021_01_workspace_RZA2M_ANPR/ANPR_RZA2M_GR_MANGO/src/tensorflow_lite/src/tensorflow/lite/kernels/internal\types.h ****     return size_ > kMaxSmallSize ? dims_pointer_[i] : dims_[i];
 3386              		.loc 3 215 0
 3387 0318 010054E3 		cmp	r4, #1
 3388              	.LBE702:
 3389              	.LBE756:
 3390              	.LBB757:
 3391              	.LBB725:
 3392              		.loc 3 216 0
 3393 031c 046095E5 		ldr	r6, [r5, #4]
 3394              	.LVL422:
 3395              	.LBE725:
 3396              	.LBE757:
 3397              	.LBB758:
 3398              	.LBB703:
 215:C:/Renesas/e2studio_2021_01_workspace_RZA2M_ANPR/ANPR_RZA2M_GR_MANGO/src/tensorflow_lite/src/tensorflow/lite/kernels/internal\types.h ****     return size_ > kMaxSmallSize ? dims_pointer_[i] : dims_[i];
 3399              		.loc 3 215 0
 3400 0320 75FFFF0A 		beq	.L298
 3401              	.LVL423:
 3402              	.LBE703:
 3403              	.LBE758:
  50:C:/Renesas/e2studio_2021_01_workspace_RZA2M_ANPR/ANPR_RZA2M_GR_MANGO/src/tensorflow_lite/src/tensorflow/lite/kernels/internal/reference\arg_min_max.h ****     outer_size *= input1_shape.Dims(i);
 3404              		.loc 2 50 0
 3405 0324 087093E5 		ldr	r7, [r3, #8]
 3406 0328 070056E1 		cmp	r6, r7
 3407 032c 72FFFF1A 		bne	.L298
  49:C:/Renesas/e2studio_2021_01_workspace_RZA2M_ANPR/ANPR_RZA2M_GR_MANGO/src/tensorflow_lite/src/tensorflow/lite/kernels/internal/reference\arg_min_max.h ****     TFLITE_DCHECK_EQ(input1_shape.Dims(i), output_shape.Dims(i));
 3408              		.loc 2 49 0
 3409 0330 020052E3 		cmp	r2, #2
  51:C:/Renesas/e2studio_2021_01_workspace_RZA2M_ANPR/ANPR_RZA2M_GR_MANGO/src/tensorflow_lite/src/tensorflow/lite/kernels/internal/reference\arg_min_max.h ****   }
 3410              		.loc 2 51 0
 3411 0334 960909E0 		mul	r9, r6, r9
 3412              	.LVL424:
  49:C:/Renesas/e2studio_2021_01_workspace_RZA2M_ANPR/ANPR_RZA2M_GR_MANGO/src/tensorflow_lite/src/tensorflow/lite/kernels/internal/reference\arg_min_max.h ****     TFLITE_DCHECK_EQ(input1_shape.Dims(i), output_shape.Dims(i));
 3413              		.loc 2 49 0
 3414 0338 1A00000A 		beq	.L309
 3415              	.LVL425:
 3416              	.LBB759:
 3417              	.LBB704:
 215:C:/Renesas/e2studio_2021_01_workspace_RZA2M_ANPR/ANPR_RZA2M_GR_MANGO/src/tensorflow_lite/src/tensorflow/lite/kernels/internal\types.h ****     return size_ > kMaxSmallSize ? dims_pointer_[i] : dims_[i];
 3418              		.loc 3 215 0
 3419 033c 020054E3 		cmp	r4, #2
 3420              	.LBE704:
 3421              	.LBE759:
 3422              	.LBB760:
 3423              	.LBB726:
 3424              		.loc 3 216 0
 3425 0340 086095E5 		ldr	r6, [r5, #8]
 3426              	.LVL426:
 3427              	.LBE726:
 3428              	.LBE760:
 3429              	.LBB761:
 3430              	.LBB705:
 215:C:/Renesas/e2studio_2021_01_workspace_RZA2M_ANPR/ANPR_RZA2M_GR_MANGO/src/tensorflow_lite/src/tensorflow/lite/kernels/internal\types.h ****     return size_ > kMaxSmallSize ? dims_pointer_[i] : dims_[i];
 3431              		.loc 3 215 0
 3432 0344 6CFFFF0A 		beq	.L298
 3433              	.LVL427:
 3434              	.LBE705:
 3435              	.LBE761:
  50:C:/Renesas/e2studio_2021_01_workspace_RZA2M_ANPR/ANPR_RZA2M_GR_MANGO/src/tensorflow_lite/src/tensorflow/lite/kernels/internal/reference\arg_min_max.h ****     outer_size *= input1_shape.Dims(i);
 3436              		.loc 2 50 0
 3437 0348 0C7093E5 		ldr	r7, [r3, #12]
 3438 034c 070056E1 		cmp	r6, r7
 3439 0350 69FFFF1A 		bne	.L298
  49:C:/Renesas/e2studio_2021_01_workspace_RZA2M_ANPR/ANPR_RZA2M_GR_MANGO/src/tensorflow_lite/src/tensorflow/lite/kernels/internal/reference\arg_min_max.h ****     TFLITE_DCHECK_EQ(input1_shape.Dims(i), output_shape.Dims(i));
 3440              		.loc 2 49 0
 3441 0354 030052E3 		cmp	r2, #3
  51:C:/Renesas/e2studio_2021_01_workspace_RZA2M_ANPR/ANPR_RZA2M_GR_MANGO/src/tensorflow_lite/src/tensorflow/lite/kernels/internal/reference\arg_min_max.h ****   }
 3442              		.loc 2 51 0
 3443 0358 960909E0 		mul	r9, r6, r9
 3444              	.LVL428:
  49:C:/Renesas/e2studio_2021_01_workspace_RZA2M_ANPR/ANPR_RZA2M_GR_MANGO/src/tensorflow_lite/src/tensorflow/lite/kernels/internal/reference\arg_min_max.h ****     TFLITE_DCHECK_EQ(input1_shape.Dims(i), output_shape.Dims(i));
 3445              		.loc 2 49 0
 3446 035c 1100000A 		beq	.L309
 3447              	.LVL429:
 3448              	.LBB762:
 3449              	.LBB706:
 215:C:/Renesas/e2studio_2021_01_workspace_RZA2M_ANPR/ANPR_RZA2M_GR_MANGO/src/tensorflow_lite/src/tensorflow/lite/kernels/internal\types.h ****     return size_ > kMaxSmallSize ? dims_pointer_[i] : dims_[i];
 3450              		.loc 3 215 0
 3451 0360 030054E3 		cmp	r4, #3
 3452              	.LBE706:
 3453              	.LBE762:
 3454              	.LBB763:
 3455              	.LBB727:
 3456              		.loc 3 216 0
 3457 0364 0C6095E5 		ldr	r6, [r5, #12]
 3458              	.LVL430:
 3459              	.LBE727:
 3460              	.LBE763:
 3461              	.LBB764:
 3462              	.LBB707:
 215:C:/Renesas/e2studio_2021_01_workspace_RZA2M_ANPR/ANPR_RZA2M_GR_MANGO/src/tensorflow_lite/src/tensorflow/lite/kernels/internal\types.h ****     return size_ > kMaxSmallSize ? dims_pointer_[i] : dims_[i];
 3463              		.loc 3 215 0
 3464 0368 63FFFF0A 		beq	.L298
 3465              	.LVL431:
 3466              	.LBE707:
 3467              	.LBE764:
  50:C:/Renesas/e2studio_2021_01_workspace_RZA2M_ANPR/ANPR_RZA2M_GR_MANGO/src/tensorflow_lite/src/tensorflow/lite/kernels/internal/reference\arg_min_max.h ****     outer_size *= input1_shape.Dims(i);
 3468              		.loc 2 50 0
 3469 036c 107093E5 		ldr	r7, [r3, #16]
 3470 0370 070056E1 		cmp	r6, r7
 3471 0374 60FFFF1A 		bne	.L298
  49:C:/Renesas/e2studio_2021_01_workspace_RZA2M_ANPR/ANPR_RZA2M_GR_MANGO/src/tensorflow_lite/src/tensorflow/lite/kernels/internal/reference\arg_min_max.h ****     TFLITE_DCHECK_EQ(input1_shape.Dims(i), output_shape.Dims(i));
 3472              		.loc 2 49 0
 3473 0378 040052E3 		cmp	r2, #4
  51:C:/Renesas/e2studio_2021_01_workspace_RZA2M_ANPR/ANPR_RZA2M_GR_MANGO/src/tensorflow_lite/src/tensorflow/lite/kernels/internal/reference\arg_min_max.h ****   }
 3474              		.loc 2 51 0
 3475 037c 960909E0 		mul	r9, r6, r9
 3476              	.LVL432:
  49:C:/Renesas/e2studio_2021_01_workspace_RZA2M_ANPR/ANPR_RZA2M_GR_MANGO/src/tensorflow_lite/src/tensorflow/lite/kernels/internal/reference\arg_min_max.h ****     TFLITE_DCHECK_EQ(input1_shape.Dims(i), output_shape.Dims(i));
 3477              		.loc 2 49 0
 3478 0380 0800000A 		beq	.L309
 3479              	.LVL433:
 3480              	.LBB765:
 3481              	.LBB708:
 215:C:/Renesas/e2studio_2021_01_workspace_RZA2M_ANPR/ANPR_RZA2M_GR_MANGO/src/tensorflow_lite/src/tensorflow/lite/kernels/internal\types.h ****     return size_ > kMaxSmallSize ? dims_pointer_[i] : dims_[i];
 3482              		.loc 3 215 0
 3483 0384 050054E3 		cmp	r4, #5
 3484              	.LBE708:
 3485              	.LBE765:
 3486              	.LBB766:
 3487              	.LBB728:
 3488              		.loc 3 216 0
 3489 0388 105095E5 		ldr	r5, [r5, #16]
 3490              	.LVL434:
 3491              	.LBE728:
 3492              	.LBE766:
 3493              	.LBB767:
 3494              	.LBB709:
 215:C:/Renesas/e2studio_2021_01_workspace_RZA2M_ANPR/ANPR_RZA2M_GR_MANGO/src/tensorflow_lite/src/tensorflow/lite/kernels/internal\types.h ****     return size_ > kMaxSmallSize ? dims_pointer_[i] : dims_[i];
 3495              		.loc 3 215 0
 3496 038c 5AFFFF1A 		bne	.L298
 3497              	.LVL435:
 3498              	.LBE709:
 3499              	.LBE767:
  50:C:/Renesas/e2studio_2021_01_workspace_RZA2M_ANPR/ANPR_RZA2M_GR_MANGO/src/tensorflow_lite/src/tensorflow/lite/kernels/internal/reference\arg_min_max.h ****     outer_size *= input1_shape.Dims(i);
 3500              		.loc 2 50 0
 3501 0390 146093E5 		ldr	r6, [r3, #20]
 3502 0394 060055E1 		cmp	r5, r6
 3503 0398 57FFFF1A 		bne	.L298
  49:C:/Renesas/e2studio_2021_01_workspace_RZA2M_ANPR/ANPR_RZA2M_GR_MANGO/src/tensorflow_lite/src/tensorflow/lite/kernels/internal/reference\arg_min_max.h ****     TFLITE_DCHECK_EQ(input1_shape.Dims(i), output_shape.Dims(i));
 3504              		.loc 2 49 0
 3505 039c 050052E3 		cmp	r2, #5
  51:C:/Renesas/e2studio_2021_01_workspace_RZA2M_ANPR/ANPR_RZA2M_GR_MANGO/src/tensorflow_lite/src/tensorflow/lite/kernels/internal/reference\arg_min_max.h ****   }
 3506              		.loc 2 51 0
 3507 03a0 950909E0 		mul	r9, r5, r9
 3508              	.LVL436:
  49:C:/Renesas/e2studio_2021_01_workspace_RZA2M_ANPR/ANPR_RZA2M_GR_MANGO/src/tensorflow_lite/src/tensorflow/lite/kernels/internal/reference\arg_min_max.h ****     TFLITE_DCHECK_EQ(input1_shape.Dims(i), output_shape.Dims(i));
 3509              		.loc 2 49 0
 3510 03a4 54FFFF1A 		bne	.L298
 3511              	.LVL437:
 3512              	.L309:
 3513              	.LBE888:
 3514              	.LBB889:
  56:C:/Renesas/e2studio_2021_01_workspace_RZA2M_ANPR/ANPR_RZA2M_GR_MANGO/src/tensorflow_lite/src/tensorflow/lite/kernels/internal/reference\arg_min_max.h ****     TFLITE_DCHECK_EQ(input1_shape.Dims(i), output_shape.Dims(i - 1));
 3515              		.loc 2 56 0
 3516 03a8 012082E2 		add	r2, r2, #1
 3517              	.LVL438:
 3518 03ac 0C0052E1 		cmp	r2, ip
 3519 03b0 660000AA 		bge	.L342
 3520              	.LVL439:
 3521              	.L327:
 3522 03b4 040090E5 		ldr	r0, [r0, #4]
 3523              	.LVL440:
  57:C:/Renesas/e2studio_2021_01_workspace_RZA2M_ANPR/ANPR_RZA2M_GR_MANGO/src/tensorflow_lite/src/tensorflow/lite/kernels/internal/reference\arg_min_max.h ****     inner_size *= input1_shape.Dims(i);
 3524              		.loc 2 57 0
 3525 03b8 015042E2 		sub	r5, r2, #1
 3526              	.LBB841:
 3527              	.LBB807:
 215:C:/Renesas/e2studio_2021_01_workspace_RZA2M_ANPR/ANPR_RZA2M_GR_MANGO/src/tensorflow_lite/src/tensorflow/lite/kernels/internal\types.h ****     return size_ > kMaxSmallSize ? dims_pointer_[i] : dims_[i];
 3528              		.loc 3 215 0
 3529 03bc 050054E1 		cmp	r4, r5
 3530              	.LBE807:
 3531              	.LBE841:
 3532              	.LBB842:
 3533              	.LBB784:
 3534              		.loc 3 216 0
 3535 03c0 0261A0E1 		lsl	r6, r2, #2
 3536 03c4 028190E7 		ldr	r8, [r0, r2, lsl #2]
 3537              	.LVL441:
 3538              	.LBE784:
 3539              	.LBE842:
 3540              	.LBB843:
 3541              	.LBB808:
 215:C:/Renesas/e2studio_2021_01_workspace_RZA2M_ANPR/ANPR_RZA2M_GR_MANGO/src/tensorflow_lite/src/tensorflow/lite/kernels/internal\types.h ****     return size_ > kMaxSmallSize ? dims_pointer_[i] : dims_[i];
 3542              		.loc 3 215 0
 3543 03c8 4BFFFFDA 		ble	.L298
 3544              		.loc 3 216 0
 3545 03cc 055183E0 		add	r5, r3, r5, lsl #2
 3546              	.LVL442:
 3547 03d0 045095E5 		ldr	r5, [r5, #4]
 3548              	.LVL443:
 3549              	.LBE808:
 3550              	.LBE843:
  57:C:/Renesas/e2studio_2021_01_workspace_RZA2M_ANPR/ANPR_RZA2M_GR_MANGO/src/tensorflow_lite/src/tensorflow/lite/kernels/internal/reference\arg_min_max.h ****     inner_size *= input1_shape.Dims(i);
 3551              		.loc 2 57 0
 3552 03d4 050058E1 		cmp	r8, r5
 3553 03d8 47FFFF1A 		bne	.L298
 3554              	.LVL444:
  56:C:/Renesas/e2studio_2021_01_workspace_RZA2M_ANPR/ANPR_RZA2M_GR_MANGO/src/tensorflow_lite/src/tensorflow/lite/kernels/internal/reference\arg_min_max.h ****     TFLITE_DCHECK_EQ(input1_shape.Dims(i), output_shape.Dims(i - 1));
 3555              		.loc 2 56 0
 3556 03dc 015082E2 		add	r5, r2, #1
 3557              	.LVL445:
 3558 03e0 05005CE1 		cmp	ip, r5
 3559 03e4 96FFFFDA 		ble	.L318
 3560              	.LVL446:
 3561              	.LBB844:
 3562              	.LBB809:
 215:C:/Renesas/e2studio_2021_01_workspace_RZA2M_ANPR/ANPR_RZA2M_GR_MANGO/src/tensorflow_lite/src/tensorflow/lite/kernels/internal\types.h ****     return size_ > kMaxSmallSize ? dims_pointer_[i] : dims_[i];
 3563              		.loc 3 215 0
 3564 03e8 020054E1 		cmp	r4, r2
 3565              	.LBE809:
 3566              	.LBE844:
 3567              	.LBB845:
 3568              	.LBB785:
 3569              		.loc 3 216 0
 3570 03ec 060080E0 		add	r0, r0, r6
 3571 03f0 047090E5 		ldr	r7, [r0, #4]
 3572              	.LVL447:
 3573              	.LBE785:
 3574              	.LBE845:
 3575              	.LBB846:
 3576              	.LBB810:
 215:C:/Renesas/e2studio_2021_01_workspace_RZA2M_ANPR/ANPR_RZA2M_GR_MANGO/src/tensorflow_lite/src/tensorflow/lite/kernels/internal\types.h ****     return size_ > kMaxSmallSize ? dims_pointer_[i] : dims_[i];
 3577              		.loc 3 215 0
 3578 03f4 40FFFFDA 		ble	.L298
 3579              		.loc 3 216 0
 3580 03f8 066083E0 		add	r6, r3, r6
 3581 03fc 046096E5 		ldr	r6, [r6, #4]
 3582              	.LVL448:
 3583              	.LBE810:
 3584              	.LBE846:
  57:C:/Renesas/e2studio_2021_01_workspace_RZA2M_ANPR/ANPR_RZA2M_GR_MANGO/src/tensorflow_lite/src/tensorflow/lite/kernels/internal/reference\arg_min_max.h ****     inner_size *= input1_shape.Dims(i);
 3585              		.loc 2 57 0
 3586 0400 060057E1 		cmp	r7, r6
 3587 0404 3CFFFF1A 		bne	.L298
  56:C:/Renesas/e2studio_2021_01_workspace_RZA2M_ANPR/ANPR_RZA2M_GR_MANGO/src/tensorflow_lite/src/tensorflow/lite/kernels/internal/reference\arg_min_max.h ****     TFLITE_DCHECK_EQ(input1_shape.Dims(i), output_shape.Dims(i - 1));
 3588              		.loc 2 56 0
 3589 0408 026082E2 		add	r6, r2, #2
  58:C:/Renesas/e2studio_2021_01_workspace_RZA2M_ANPR/ANPR_RZA2M_GR_MANGO/src/tensorflow_lite/src/tensorflow/lite/kernels/internal/reference\arg_min_max.h ****   }
 3590              		.loc 2 58 0
 3591 040c 970808E0 		mul	r8, r7, r8
 3592              	.LVL449:
  56:C:/Renesas/e2studio_2021_01_workspace_RZA2M_ANPR/ANPR_RZA2M_GR_MANGO/src/tensorflow_lite/src/tensorflow/lite/kernels/internal/reference\arg_min_max.h ****     TFLITE_DCHECK_EQ(input1_shape.Dims(i), output_shape.Dims(i - 1));
 3593              		.loc 2 56 0
 3594 0410 06005CE1 		cmp	ip, r6
 3595 0414 8AFFFFDA 		ble	.L318
 3596              	.LVL450:
 3597              	.LBB847:
 3598              	.LBB811:
 215:C:/Renesas/e2studio_2021_01_workspace_RZA2M_ANPR/ANPR_RZA2M_GR_MANGO/src/tensorflow_lite/src/tensorflow/lite/kernels/internal\types.h ****     return size_ > kMaxSmallSize ? dims_pointer_[i] : dims_[i];
 3599              		.loc 3 215 0
 3600 0418 050054E1 		cmp	r4, r5
 3601              	.LBE811:
 3602              	.LBE847:
 3603              	.LBB848:
 3604              	.LBB786:
 3605              		.loc 3 216 0
 3606 041c 087090E5 		ldr	r7, [r0, #8]
 3607              	.LVL451:
 3608              	.LBE786:
 3609              	.LBE848:
 3610              	.LBB849:
 3611              	.LBB812:
 215:C:/Renesas/e2studio_2021_01_workspace_RZA2M_ANPR/ANPR_RZA2M_GR_MANGO/src/tensorflow_lite/src/tensorflow/lite/kernels/internal\types.h ****     return size_ > kMaxSmallSize ? dims_pointer_[i] : dims_[i];
 3612              		.loc 3 215 0
 3613 0420 35FFFFDA 		ble	.L298
 3614              		.loc 3 216 0
 3615 0424 055183E0 		add	r5, r3, r5, lsl #2
 3616              	.LVL452:
 3617 0428 045095E5 		ldr	r5, [r5, #4]
 3618              	.LVL453:
 3619              	.LBE812:
 3620              	.LBE849:
  57:C:/Renesas/e2studio_2021_01_workspace_RZA2M_ANPR/ANPR_RZA2M_GR_MANGO/src/tensorflow_lite/src/tensorflow/lite/kernels/internal/reference\arg_min_max.h ****     inner_size *= input1_shape.Dims(i);
 3621              		.loc 2 57 0
 3622 042c 050057E1 		cmp	r7, r5
 3623 0430 31FFFF1A 		bne	.L298
 3624              	.LVL454:
  56:C:/Renesas/e2studio_2021_01_workspace_RZA2M_ANPR/ANPR_RZA2M_GR_MANGO/src/tensorflow_lite/src/tensorflow/lite/kernels/internal/reference\arg_min_max.h ****     TFLITE_DCHECK_EQ(input1_shape.Dims(i), output_shape.Dims(i - 1));
 3625              		.loc 2 56 0
 3626 0434 035082E2 		add	r5, r2, #3
  58:C:/Renesas/e2studio_2021_01_workspace_RZA2M_ANPR/ANPR_RZA2M_GR_MANGO/src/tensorflow_lite/src/tensorflow/lite/kernels/internal/reference\arg_min_max.h ****   }
 3627              		.loc 2 58 0
 3628 0438 970808E0 		mul	r8, r7, r8
 3629              	.LVL455:
  56:C:/Renesas/e2studio_2021_01_workspace_RZA2M_ANPR/ANPR_RZA2M_GR_MANGO/src/tensorflow_lite/src/tensorflow/lite/kernels/internal/reference\arg_min_max.h ****     TFLITE_DCHECK_EQ(input1_shape.Dims(i), output_shape.Dims(i - 1));
 3630              		.loc 2 56 0
 3631 043c 05005CE1 		cmp	ip, r5
 3632 0440 7FFFFFDA 		ble	.L318
 3633              	.LVL456:
 3634              	.LBB850:
 3635              	.LBB813:
 215:C:/Renesas/e2studio_2021_01_workspace_RZA2M_ANPR/ANPR_RZA2M_GR_MANGO/src/tensorflow_lite/src/tensorflow/lite/kernels/internal\types.h ****     return size_ > kMaxSmallSize ? dims_pointer_[i] : dims_[i];
 3636              		.loc 3 215 0
 3637 0444 060054E1 		cmp	r4, r6
 3638              	.LBE813:
 3639              	.LBE850:
 3640              	.LBB851:
 3641              	.LBB787:
 3642              		.loc 3 216 0
 3643 0448 0C7090E5 		ldr	r7, [r0, #12]
 3644              	.LVL457:
 3645              	.LBE787:
 3646              	.LBE851:
 3647              	.LBB852:
 3648              	.LBB814:
 215:C:/Renesas/e2studio_2021_01_workspace_RZA2M_ANPR/ANPR_RZA2M_GR_MANGO/src/tensorflow_lite/src/tensorflow/lite/kernels/internal\types.h ****     return size_ > kMaxSmallSize ? dims_pointer_[i] : dims_[i];
 3649              		.loc 3 215 0
 3650 044c 2AFFFFDA 		ble	.L298
 3651              		.loc 3 216 0
 3652 0450 066183E0 		add	r6, r3, r6, lsl #2
 3653              	.LVL458:
 3654 0454 046096E5 		ldr	r6, [r6, #4]
 3655              	.LVL459:
 3656              	.LBE814:
 3657              	.LBE852:
  57:C:/Renesas/e2studio_2021_01_workspace_RZA2M_ANPR/ANPR_RZA2M_GR_MANGO/src/tensorflow_lite/src/tensorflow/lite/kernels/internal/reference\arg_min_max.h ****     inner_size *= input1_shape.Dims(i);
 3658              		.loc 2 57 0
 3659 0458 060057E1 		cmp	r7, r6
 3660 045c 26FFFF1A 		bne	.L298
 3661              	.LVL460:
  56:C:/Renesas/e2studio_2021_01_workspace_RZA2M_ANPR/ANPR_RZA2M_GR_MANGO/src/tensorflow_lite/src/tensorflow/lite/kernels/internal/reference\arg_min_max.h ****     TFLITE_DCHECK_EQ(input1_shape.Dims(i), output_shape.Dims(i - 1));
 3662              		.loc 2 56 0
 3663 0460 042082E2 		add	r2, r2, #4
  58:C:/Renesas/e2studio_2021_01_workspace_RZA2M_ANPR/ANPR_RZA2M_GR_MANGO/src/tensorflow_lite/src/tensorflow/lite/kernels/internal/reference\arg_min_max.h ****   }
 3664              		.loc 2 58 0
 3665 0464 970808E0 		mul	r8, r7, r8
 3666              	.LVL461:
  56:C:/Renesas/e2studio_2021_01_workspace_RZA2M_ANPR/ANPR_RZA2M_GR_MANGO/src/tensorflow_lite/src/tensorflow/lite/kernels/internal/reference\arg_min_max.h ****     TFLITE_DCHECK_EQ(input1_shape.Dims(i), output_shape.Dims(i - 1));
 3667              		.loc 2 56 0
 3668 0468 02005CE1 		cmp	ip, r2
 3669 046c 74FFFFDA 		ble	.L318
 3670              	.LVL462:
 3671              	.LBB853:
 3672              	.LBB815:
 215:C:/Renesas/e2studio_2021_01_workspace_RZA2M_ANPR/ANPR_RZA2M_GR_MANGO/src/tensorflow_lite/src/tensorflow/lite/kernels/internal\types.h ****     return size_ > kMaxSmallSize ? dims_pointer_[i] : dims_[i];
 3673              		.loc 3 215 0
 3674 0470 040055E1 		cmp	r5, r4
 3675              	.LBE815:
 3676              	.LBE853:
 3677              	.LBB854:
 3678              	.LBB788:
 3679              		.loc 3 216 0
 3680 0474 102090E5 		ldr	r2, [r0, #16]
 3681              	.LVL463:
 3682              	.LBE788:
 3683              	.LBE854:
 3684              	.LBB855:
 3685              	.LBB816:
 215:C:/Renesas/e2studio_2021_01_workspace_RZA2M_ANPR/ANPR_RZA2M_GR_MANGO/src/tensorflow_lite/src/tensorflow/lite/kernels/internal\types.h ****     return size_ > kMaxSmallSize ? dims_pointer_[i] : dims_[i];
 3686              		.loc 3 215 0
 3687 0478 1FFFFFAA 		bge	.L298
 3688              		.loc 3 216 0
 3689 047c 053183E0 		add	r3, r3, r5, lsl #2
 3690              	.LVL464:
 3691 0480 043093E5 		ldr	r3, [r3, #4]
 3692              	.LVL465:
 3693              	.LBE816:
 3694              	.LBE855:
  57:C:/Renesas/e2studio_2021_01_workspace_RZA2M_ANPR/ANPR_RZA2M_GR_MANGO/src/tensorflow_lite/src/tensorflow/lite/kernels/internal/reference\arg_min_max.h ****     inner_size *= input1_shape.Dims(i);
 3695              		.loc 2 57 0
 3696 0484 020053E1 		cmp	r3, r2
 3697 0488 1BFFFF1A 		bne	.L298
 3698              	.LVL466:
  58:C:/Renesas/e2studio_2021_01_workspace_RZA2M_ANPR/ANPR_RZA2M_GR_MANGO/src/tensorflow_lite/src/tensorflow/lite/kernels/internal/reference\arg_min_max.h ****   }
 3699              		.loc 2 58 0
 3700 048c 930808E0 		mul	r8, r3, r8
 3701              	.LVL467:
 3702 0490 6BFFFFEA 		b	.L318
 3703              	.LVL468:
 3704              	.L435:
 3705              	.LBE889:
 3706              	.LBB890:
 3707              	.LBB684:
 214:C:/Renesas/e2studio_2021_01_workspace_RZA2M_ANPR/ANPR_RZA2M_GR_MANGO/src/tensorflow_lite/src/tensorflow/lite/kernels/internal\types.h ****     TFLITE_DCHECK_LT(i, size_);
 3708              		.loc 3 214 0
 3709 0494 0C2092E0 		adds	r2, r2, ip
 3710              	.LVL469:
 3711 0498 E4FEFF5A 		bpl	.L299
 3712 049c 16FFFFEA 		b	.L298
 3713              	.LVL470:
 3714              	.L308:
 3715 04a0 046045E2 		sub	r6, r5, #4
 3716              	.LBE684:
 3717              	.LBE890:
 3718              	.LBB891:
  49:C:/Renesas/e2studio_2021_01_workspace_RZA2M_ANPR/ANPR_RZA2M_GR_MANGO/src/tensorflow_lite/src/tensorflow/lite/kernels/internal/reference\arg_min_max.h ****     TFLITE_DCHECK_EQ(input1_shape.Dims(i), output_shape.Dims(i));
 3719              		.loc 2 49 0
 3720 04a4 0190A0E3 		mov	r9, #1
 3721 04a8 0050A0E3 		mov	r5, #0
 3722 04ac 010000EA 		b	.L304
 3723              	.LVL471:
 3724              	.L428:
 3725              	.LBB768:
 3726              	.LBB729:
 215:C:/Renesas/e2studio_2021_01_workspace_RZA2M_ANPR/ANPR_RZA2M_GR_MANGO/src/tensorflow_lite/src/tensorflow/lite/kernels/internal\types.h ****     return size_ > kMaxSmallSize ? dims_pointer_[i] : dims_[i];
 3727              		.loc 3 215 0
 3728 04b0 0C0055E1 		cmp	r5, ip
 3729 04b4 10FFFF0A 		beq	.L298
 3730              	.LVL472:
 3731              	.L304:
 3732              	.LBE729:
 3733              	.LBE768:
 3734              	.LBB769:
 3735              	.LBB710:
 3736 04b8 040055E1 		cmp	r5, r4
 3737              	.LBE710:
 3738              	.LBE769:
 3739              	.LBB770:
 3740              	.LBB730:
 3741              		.loc 3 216 0
 3742 04bc 0480B6E5 		ldr	r8, [r6, #4]!
 3743              	.LVL473:
 3744              	.LBE730:
 3745              	.LBE770:
 3746              	.LBB771:
 3747              	.LBB711:
 215:C:/Renesas/e2studio_2021_01_workspace_RZA2M_ANPR/ANPR_RZA2M_GR_MANGO/src/tensorflow_lite/src/tensorflow/lite/kernels/internal\types.h ****     return size_ > kMaxSmallSize ? dims_pointer_[i] : dims_[i];
 3748              		.loc 3 215 0
 3749 04c0 0DFFFF0A 		beq	.L298
 3750              		.loc 3 216 0
 3751 04c4 047093E5 		ldr	r7, [r3, #4]
 3752 04c8 057197E7 		ldr	r7, [r7, r5, lsl #2]
 3753              	.LVL474:
 3754              	.LBE711:
 3755              	.LBE771:
  50:C:/Renesas/e2studio_2021_01_workspace_RZA2M_ANPR/ANPR_RZA2M_GR_MANGO/src/tensorflow_lite/src/tensorflow/lite/kernels/internal/reference\arg_min_max.h ****     outer_size *= input1_shape.Dims(i);
 3756              		.loc 2 50 0
 3757 04cc 080057E1 		cmp	r7, r8
 3758 04d0 09FFFF1A 		bne	.L298
  49:C:/Renesas/e2studio_2021_01_workspace_RZA2M_ANPR/ANPR_RZA2M_GR_MANGO/src/tensorflow_lite/src/tensorflow/lite/kernels/internal/reference\arg_min_max.h ****     TFLITE_DCHECK_EQ(input1_shape.Dims(i), output_shape.Dims(i));
 3759              		.loc 2 49 0
 3760 04d4 015085E2 		add	r5, r5, #1
 3761              	.LVL475:
  51:C:/Renesas/e2studio_2021_01_workspace_RZA2M_ANPR/ANPR_RZA2M_GR_MANGO/src/tensorflow_lite/src/tensorflow/lite/kernels/internal/reference\arg_min_max.h ****   }
 3762              		.loc 2 51 0
 3763 04d8 970909E0 		mul	r9, r7, r9
 3764              	.LVL476:
  49:C:/Renesas/e2studio_2021_01_workspace_RZA2M_ANPR/ANPR_RZA2M_GR_MANGO/src/tensorflow_lite/src/tensorflow/lite/kernels/internal/reference\arg_min_max.h ****     TFLITE_DCHECK_EQ(input1_shape.Dims(i), output_shape.Dims(i));
 3765              		.loc 2 49 0
 3766 04dc 020055E1 		cmp	r5, r2
 3767 04e0 F2FFFF1A 		bne	.L428
 3768              	.LVL477:
 3769              	.LBE891:
 3770              	.LBB892:
  56:C:/Renesas/e2studio_2021_01_workspace_RZA2M_ANPR/ANPR_RZA2M_GR_MANGO/src/tensorflow_lite/src/tensorflow/lite/kernels/internal/reference\arg_min_max.h ****     TFLITE_DCHECK_EQ(input1_shape.Dims(i), output_shape.Dims(i - 1));
 3771              		.loc 2 56 0
 3772 04e4 012085E2 		add	r2, r5, #1
 3773              	.LVL478:
 3774 04e8 0C0052E1 		cmp	r2, ip
 3775 04ec 170000AA 		bge	.L342
 3776              	.LVL479:
 3777              	.L316:
 3778 04f0 040090E5 		ldr	r0, [r0, #4]
 3779              	.LVL480:
 3780              	.LBB856:
 3781              	.LBB817:
 3782              		.loc 3 216 0
 3783 04f4 0760E0E3 		mvn	r6, #7
 3784              	.LBE817:
 3785              	.LBE856:
 3786              	.LBE892:
  48:C:/Renesas/e2studio_2021_01_workspace_RZA2M_ANPR/ANPR_RZA2M_GR_MANGO/src/tensorflow_lite/src/tensorflow/lite/kernels/internal/reference\arg_min_max.h ****   for (int i = 0; i < axis; ++i) {
 3787              		.loc 2 48 0
 3788 04f8 0180A0E3 		mov	r8, #1
 3789              	.LBB893:
 3790              	.LBB857:
 3791              	.LBB818:
 3792              		.loc 3 216 0
 3793 04fc 006046E0 		sub	r6, r6, r0
 3794 0500 020180E0 		add	r0, r0, r2, lsl #2
 3795              	.LVL481:
 3796              	.L317:
 215:C:/Renesas/e2studio_2021_01_workspace_RZA2M_ANPR/ANPR_RZA2M_GR_MANGO/src/tensorflow_lite/src/tensorflow/lite/kernels/internal\types.h ****     return size_ > kMaxSmallSize ? dims_pointer_[i] : dims_[i];
 3797              		.loc 3 215 0
 3798 0504 015042E2 		sub	r5, r2, #1
 3799              	.LBE818:
 3800              	.LBE857:
 3801              	.LBB858:
 3802              	.LBB789:
 3803              		.loc 3 216 0
 3804 0508 047090E4 		ldr	r7, [r0], #4
 3805              	.LVL482:
 3806              	.LBE789:
 3807              	.LBE858:
 3808              	.LBB859:
 3809              	.LBB819:
 215:C:/Renesas/e2studio_2021_01_workspace_RZA2M_ANPR/ANPR_RZA2M_GR_MANGO/src/tensorflow_lite/src/tensorflow/lite/kernels/internal\types.h ****     return size_ > kMaxSmallSize ? dims_pointer_[i] : dims_[i];
 3810              		.loc 3 215 0
 3811 050c 050054E1 		cmp	r4, r5
 3812 0510 F9FEFFDA 		ble	.L298
 3813              		.loc 3 216 0
 3814 0514 045093E5 		ldr	r5, [r3, #4]
 3815              	.LVL483:
 3816 0518 005085E0 		add	r5, r5, r0
 3817 051c 065095E7 		ldr	r5, [r5, r6]
 3818              	.LVL484:
 3819              	.LBE819:
 3820              	.LBE859:
  57:C:/Renesas/e2studio_2021_01_workspace_RZA2M_ANPR/ANPR_RZA2M_GR_MANGO/src/tensorflow_lite/src/tensorflow/lite/kernels/internal/reference\arg_min_max.h ****     inner_size *= input1_shape.Dims(i);
 3821              		.loc 2 57 0
 3822 0520 070055E1 		cmp	r5, r7
 3823 0524 F4FEFF1A 		bne	.L298
 3824              	.LVL485:
  56:C:/Renesas/e2studio_2021_01_workspace_RZA2M_ANPR/ANPR_RZA2M_GR_MANGO/src/tensorflow_lite/src/tensorflow/lite/kernels/internal/reference\arg_min_max.h ****     TFLITE_DCHECK_EQ(input1_shape.Dims(i), output_shape.Dims(i - 1));
 3825              		.loc 2 56 0
 3826 0528 012082E2 		add	r2, r2, #1
 3827              	.LVL486:
  58:C:/Renesas/e2studio_2021_01_workspace_RZA2M_ANPR/ANPR_RZA2M_GR_MANGO/src/tensorflow_lite/src/tensorflow/lite/kernels/internal/reference\arg_min_max.h ****   }
 3828              		.loc 2 58 0
 3829 052c 950808E0 		mul	r8, r5, r8
 3830              	.LVL487:
  56:C:/Renesas/e2studio_2021_01_workspace_RZA2M_ANPR/ANPR_RZA2M_GR_MANGO/src/tensorflow_lite/src/tensorflow/lite/kernels/internal/reference\arg_min_max.h ****     TFLITE_DCHECK_EQ(input1_shape.Dims(i), output_shape.Dims(i - 1));
 3831              		.loc 2 56 0
 3832 0530 0C0052E1 		cmp	r2, ip
 3833 0534 F2FFFFBA 		blt	.L317
 3834 0538 41FFFFEA 		b	.L318
 3835              	.LVL488:
 3836              	.L337:
 3837              	.LBE893:
 3838              	.LBB894:
 3839              	.LBB883:
  61:C:/Renesas/e2studio_2021_01_workspace_RZA2M_ANPR/ANPR_RZA2M_GR_MANGO/src/tensorflow_lite/src/tensorflow/lite/kernels/internal/reference\arg_min_max.h ****       auto min_max_value = input1_data[outer * axis_size * inner_size + inner];
 3840              		.loc 2 61 0
 3841 053c 060054E1 		cmp	r4, r6
 3842              	.LBB882:
  63:C:/Renesas/e2studio_2021_01_workspace_RZA2M_ANPR/ANPR_RZA2M_GR_MANGO/src/tensorflow_lite/src/tensorflow/lite/kernels/internal/reference\arg_min_max.h ****       for (int i = 1; i < axis_size; ++i) {
 3843              		.loc 2 63 0
 3844 0540 0000A0E3 		mov	r0, #0
  72:C:/Renesas/e2studio_2021_01_workspace_RZA2M_ANPR/ANPR_RZA2M_GR_MANGO/src/tensorflow_lite/src/tensorflow/lite/kernels/internal/reference\arg_min_max.h ****     }
 3845              		.loc 2 72 0
 3846 0544 040085E4 		str	r0, [r5], #4
 3847              	.LVL489:
 3848              	.LBE882:
  61:C:/Renesas/e2studio_2021_01_workspace_RZA2M_ANPR/ANPR_RZA2M_GR_MANGO/src/tensorflow_lite/src/tensorflow/lite/kernels/internal/reference\arg_min_max.h ****       auto min_max_value = input1_data[outer * axis_size * inner_size + inner];
 3849              		.loc 2 61 0
 3850 0548 4BFFFF1A 		bne	.L320
 3851 054c 5AFFFFEA 		b	.L437
 3852              	.LVL490:
 3853              	.L342:
 3854              	.LBE883:
 3855              	.LBE894:
  54:C:/Renesas/e2studio_2021_01_workspace_RZA2M_ANPR/ANPR_RZA2M_GR_MANGO/src/tensorflow_lite/src/tensorflow/lite/kernels/internal/reference\arg_min_max.h ****   const int dims_count = input1_shape.DimensionsCount();
 3856              		.loc 2 54 0
 3857 0550 0180A0E3 		mov	r8, #1
 3858 0554 3AFFFFEA 		b	.L318
 3859              	.LVL491:
 3860              	.L306:
 3861              	.LBB895:
  56:C:/Renesas/e2studio_2021_01_workspace_RZA2M_ANPR/ANPR_RZA2M_GR_MANGO/src/tensorflow_lite/src/tensorflow/lite/kernels/internal/reference\arg_min_max.h ****     TFLITE_DCHECK_EQ(input1_shape.Dims(i), output_shape.Dims(i - 1));
 3862              		.loc 2 56 0
 3863 0558 012082E2 		add	r2, r2, #1
 3864              	.LVL492:
 3865 055c 02005CE1 		cmp	ip, r2
 3866 0560 FAFFFFDA 		ble	.L342
 3867              	.LVL493:
 3868              	.L328:
 3869              	.LBB860:
 3870              	.LBB790:
 3871              		.loc 3 216 0
 3872 0564 0251A0E1 		lsl	r5, r2, #2
 3873              	.LBE790:
 3874              	.LBE860:
  57:C:/Renesas/e2studio_2021_01_workspace_RZA2M_ANPR/ANPR_RZA2M_GR_MANGO/src/tensorflow_lite/src/tensorflow/lite/kernels/internal/reference\arg_min_max.h ****     inner_size *= input1_shape.Dims(i);
 3875              		.loc 2 57 0
 3876 0568 016042E2 		sub	r6, r2, #1
 3877              	.LBB861:
 3878              	.LBB820:
 215:C:/Renesas/e2studio_2021_01_workspace_RZA2M_ANPR/ANPR_RZA2M_GR_MANGO/src/tensorflow_lite/src/tensorflow/lite/kernels/internal\types.h ****     return size_ > kMaxSmallSize ? dims_pointer_[i] : dims_[i];
 3879              		.loc 3 215 0
 3880 056c 060054E1 		cmp	r4, r6
 3881              	.LBE820:
 3882              	.LBE861:
 3883              	.LBB862:
 3884              	.LBB791:
 3885              		.loc 3 216 0
 3886 0570 057080E0 		add	r7, r0, r5
 3887 0574 047097E5 		ldr	r7, [r7, #4]
 3888              	.LVL494:
 3889              	.LBE791:
 3890              	.LBE862:
 3891              	.LBB863:
 3892              	.LBB821:
 215:C:/Renesas/e2studio_2021_01_workspace_RZA2M_ANPR/ANPR_RZA2M_GR_MANGO/src/tensorflow_lite/src/tensorflow/lite/kernels/internal\types.h ****     return size_ > kMaxSmallSize ? dims_pointer_[i] : dims_[i];
 3893              		.loc 3 215 0
 3894 0578 DFFEFFDA 		ble	.L298
 3895              		.loc 3 216 0
 3896 057c 066183E0 		add	r6, r3, r6, lsl #2
 3897              	.LVL495:
 3898 0580 048096E5 		ldr	r8, [r6, #4]
 3899              	.LVL496:
 3900              	.LBE821:
 3901              	.LBE863:
  57:C:/Renesas/e2studio_2021_01_workspace_RZA2M_ANPR/ANPR_RZA2M_GR_MANGO/src/tensorflow_lite/src/tensorflow/lite/kernels/internal/reference\arg_min_max.h ****     inner_size *= input1_shape.Dims(i);
 3902              		.loc 2 57 0
 3903 0584 070058E1 		cmp	r8, r7
 3904 0588 DBFEFF1A 		bne	.L298
 3905              	.LVL497:
  56:C:/Renesas/e2studio_2021_01_workspace_RZA2M_ANPR/ANPR_RZA2M_GR_MANGO/src/tensorflow_lite/src/tensorflow/lite/kernels/internal/reference\arg_min_max.h ****     TFLITE_DCHECK_EQ(input1_shape.Dims(i), output_shape.Dims(i - 1));
 3906              		.loc 2 56 0
 3907 058c 01A082E2 		add	r10, r2, #1
 3908              	.LVL498:
 3909 0590 0A005CE1 		cmp	ip, r10
 3910 0594 2AFFFFDA 		ble	.L318
 3911              	.LVL499:
 3912              	.LBB864:
 3913              	.LBB792:
 3914              		.loc 3 216 0
 3915 0598 0A61A0E1 		lsl	r6, r10, #2
 3916              	.LBE792:
 3917              	.LBE864:
 3918              	.LBB865:
 3919              	.LBB822:
 215:C:/Renesas/e2studio_2021_01_workspace_RZA2M_ANPR/ANPR_RZA2M_GR_MANGO/src/tensorflow_lite/src/tensorflow/lite/kernels/internal\types.h ****     return size_ > kMaxSmallSize ? dims_pointer_[i] : dims_[i];
 3920              		.loc 3 215 0
 3921 059c 020054E1 		cmp	r4, r2
 3922              	.LBE822:
 3923              	.LBE865:
 3924              	.LBB866:
 3925              	.LBB793:
 3926              		.loc 3 216 0
 3927 05a0 067080E0 		add	r7, r0, r6
 3928 05a4 04B097E5 		ldr	fp, [r7, #4]
 3929              	.LVL500:
 3930              	.LBE793:
 3931              	.LBE866:
 3932              	.LBB867:
 3933              	.LBB823:
 215:C:/Renesas/e2studio_2021_01_workspace_RZA2M_ANPR/ANPR_RZA2M_GR_MANGO/src/tensorflow_lite/src/tensorflow/lite/kernels/internal\types.h ****     return size_ > kMaxSmallSize ? dims_pointer_[i] : dims_[i];
 3934              		.loc 3 215 0
 3935 05a8 D3FEFFDA 		ble	.L298
 3936              		.loc 3 216 0
 3937 05ac 055083E0 		add	r5, r3, r5
 3938 05b0 045095E5 		ldr	r5, [r5, #4]
 3939              	.LVL501:
 3940              	.LBE823:
 3941              	.LBE867:
  57:C:/Renesas/e2studio_2021_01_workspace_RZA2M_ANPR/ANPR_RZA2M_GR_MANGO/src/tensorflow_lite/src/tensorflow/lite/kernels/internal/reference\arg_min_max.h ****     inner_size *= input1_shape.Dims(i);
 3942              		.loc 2 57 0
 3943 05b4 05005BE1 		cmp	fp, r5
 3944 05b8 CFFEFF1A 		bne	.L298
  56:C:/Renesas/e2studio_2021_01_workspace_RZA2M_ANPR/ANPR_RZA2M_GR_MANGO/src/tensorflow_lite/src/tensorflow/lite/kernels/internal/reference\arg_min_max.h ****     TFLITE_DCHECK_EQ(input1_shape.Dims(i), output_shape.Dims(i - 1));
 3945              		.loc 2 56 0
 3946 05bc 027082E2 		add	r7, r2, #2
  58:C:/Renesas/e2studio_2021_01_workspace_RZA2M_ANPR/ANPR_RZA2M_GR_MANGO/src/tensorflow_lite/src/tensorflow/lite/kernels/internal/reference\arg_min_max.h ****   }
 3947              		.loc 2 58 0
 3948 05c0 9B0808E0 		mul	r8, fp, r8
 3949              	.LVL502:
  56:C:/Renesas/e2studio_2021_01_workspace_RZA2M_ANPR/ANPR_RZA2M_GR_MANGO/src/tensorflow_lite/src/tensorflow/lite/kernels/internal/reference\arg_min_max.h ****     TFLITE_DCHECK_EQ(input1_shape.Dims(i), output_shape.Dims(i - 1));
 3950              		.loc 2 56 0
 3951 05c4 07005CE1 		cmp	ip, r7
 3952 05c8 1DFFFFDA 		ble	.L318
 3953              	.LVL503:
 3954              	.LBB868:
 3955              	.LBB794:
 3956              		.loc 3 216 0
 3957 05cc 0751A0E1 		lsl	r5, r7, #2
 3958              	.LBE794:
 3959              	.LBE868:
 3960              	.LBB869:
 3961              	.LBB824:
 215:C:/Renesas/e2studio_2021_01_workspace_RZA2M_ANPR/ANPR_RZA2M_GR_MANGO/src/tensorflow_lite/src/tensorflow/lite/kernels/internal\types.h ****     return size_ > kMaxSmallSize ? dims_pointer_[i] : dims_[i];
 3962              		.loc 3 215 0
 3963 05d0 0A0054E1 		cmp	r4, r10
 3964              	.LBE824:
 3965              	.LBE869:
 3966              	.LBB870:
 3967              	.LBB795:
 3968              		.loc 3 216 0
 3969 05d4 05A080E0 		add	r10, r0, r5
 3970 05d8 04A09AE5 		ldr	r10, [r10, #4]
 3971              	.LVL504:
 3972              	.LBE795:
 3973              	.LBE870:
 3974              	.LBB871:
 3975              	.LBB825:
 215:C:/Renesas/e2studio_2021_01_workspace_RZA2M_ANPR/ANPR_RZA2M_GR_MANGO/src/tensorflow_lite/src/tensorflow/lite/kernels/internal\types.h ****     return size_ > kMaxSmallSize ? dims_pointer_[i] : dims_[i];
 3976              		.loc 3 215 0
 3977 05dc C6FEFFDA 		ble	.L298
 3978              		.loc 3 216 0
 3979 05e0 066083E0 		add	r6, r3, r6
 3980 05e4 046096E5 		ldr	r6, [r6, #4]
 3981              	.LVL505:
 3982              	.LBE825:
 3983              	.LBE871:
  57:C:/Renesas/e2studio_2021_01_workspace_RZA2M_ANPR/ANPR_RZA2M_GR_MANGO/src/tensorflow_lite/src/tensorflow/lite/kernels/internal/reference\arg_min_max.h ****     inner_size *= input1_shape.Dims(i);
 3984              		.loc 2 57 0
 3985 05e8 0A0056E1 		cmp	r6, r10
 3986 05ec C2FEFF1A 		bne	.L298
 3987              	.LVL506:
  56:C:/Renesas/e2studio_2021_01_workspace_RZA2M_ANPR/ANPR_RZA2M_GR_MANGO/src/tensorflow_lite/src/tensorflow/lite/kernels/internal/reference\arg_min_max.h ****     TFLITE_DCHECK_EQ(input1_shape.Dims(i), output_shape.Dims(i - 1));
 3988              		.loc 2 56 0
 3989 05f0 032082E2 		add	r2, r2, #3
  58:C:/Renesas/e2studio_2021_01_workspace_RZA2M_ANPR/ANPR_RZA2M_GR_MANGO/src/tensorflow_lite/src/tensorflow/lite/kernels/internal/reference\arg_min_max.h ****   }
 3990              		.loc 2 58 0
 3991 05f4 960808E0 		mul	r8, r6, r8
 3992              	.LVL507:
  56:C:/Renesas/e2studio_2021_01_workspace_RZA2M_ANPR/ANPR_RZA2M_GR_MANGO/src/tensorflow_lite/src/tensorflow/lite/kernels/internal/reference\arg_min_max.h ****     TFLITE_DCHECK_EQ(input1_shape.Dims(i), output_shape.Dims(i - 1));
 3993              		.loc 2 56 0
 3994 05f8 02005CE1 		cmp	ip, r2
 3995 05fc 10FFFFDA 		ble	.L318
 3996              	.LVL508:
 3997              	.LBB872:
 3998              	.LBB796:
 3999              		.loc 3 216 0
 4000 0600 022180E0 		add	r2, r0, r2, lsl #2
 4001              	.LVL509:
 4002              	.LBE796:
 4003              	.LBE872:
 4004              	.LBB873:
 4005              	.LBB826:
 215:C:/Renesas/e2studio_2021_01_workspace_RZA2M_ANPR/ANPR_RZA2M_GR_MANGO/src/tensorflow_lite/src/tensorflow/lite/kernels/internal\types.h ****     return size_ > kMaxSmallSize ? dims_pointer_[i] : dims_[i];
 4006              		.loc 3 215 0
 4007 0604 070054E1 		cmp	r4, r7
 4008              	.LBE826:
 4009              	.LBE873:
 4010              	.LBB874:
 4011              	.LBB797:
 4012              		.loc 3 216 0
 4013 0608 042092E5 		ldr	r2, [r2, #4]
 4014              	.LVL510:
 4015              	.LBE797:
 4016              	.LBE874:
 4017              	.LBB875:
 4018              	.LBB827:
 215:C:/Renesas/e2studio_2021_01_workspace_RZA2M_ANPR/ANPR_RZA2M_GR_MANGO/src/tensorflow_lite/src/tensorflow/lite/kernels/internal\types.h ****     return size_ > kMaxSmallSize ? dims_pointer_[i] : dims_[i];
 4019              		.loc 3 215 0
 4020 060c BAFEFFDA 		ble	.L298
 4021              		.loc 3 216 0
 4022 0610 053083E0 		add	r3, r3, r5
 4023              	.LVL511:
 4024 0614 043093E5 		ldr	r3, [r3, #4]
 4025              	.LVL512:
 4026              	.LBE827:
 4027              	.LBE875:
  57:C:/Renesas/e2studio_2021_01_workspace_RZA2M_ANPR/ANPR_RZA2M_GR_MANGO/src/tensorflow_lite/src/tensorflow/lite/kernels/internal/reference\arg_min_max.h ****     inner_size *= input1_shape.Dims(i);
 4028              		.loc 2 57 0
 4029 0618 020053E1 		cmp	r3, r2
 4030 061c 07FFFF0A 		beq	.L431
 4031 0620 B5FEFFEA 		b	.L298
 4032              	.LVL513:
 4033              	.L301:
  56:C:/Renesas/e2studio_2021_01_workspace_RZA2M_ANPR/ANPR_RZA2M_GR_MANGO/src/tensorflow_lite/src/tensorflow/lite/kernels/internal/reference\arg_min_max.h ****     TFLITE_DCHECK_EQ(input1_shape.Dims(i), output_shape.Dims(i - 1));
 4034              		.loc 2 56 0
 4035 0624 01005CE3 		cmp	ip, #1
 4036 0628 0120A0E3 		mov	r2, #1
 4037              	.LVL514:
 4038 062c 080000DA 		ble	.L438
 4039 0630 05005CE3 		cmp	ip, #5
 4040              	.LBE895:
  48:C:/Renesas/e2studio_2021_01_workspace_RZA2M_ANPR/ANPR_RZA2M_GR_MANGO/src/tensorflow_lite/src/tensorflow/lite/kernels/internal/reference\arg_min_max.h ****   for (int i = 0; i < axis; ++i) {
 4041              		.loc 2 48 0
 4042 0634 0290A0E1 		mov	r9, r2
 4043 0638 020000CA 		bgt	.L313
 4044 063c 050054E3 		cmp	r4, #5
 4045 0640 C7FFFFDA 		ble	.L328
 4046 0644 D2FEFFEA 		b	.L314
 4047              	.L313:
 4048 0648 050054E3 		cmp	r4, #5
 4049 064c 58FFFFDA 		ble	.L327
 4050 0650 A6FFFFEA 		b	.L316
 4051              	.L438:
 4052 0654 0290A0E1 		mov	r9, r2
  54:C:/Renesas/e2studio_2021_01_workspace_RZA2M_ANPR/ANPR_RZA2M_GR_MANGO/src/tensorflow_lite/src/tensorflow/lite/kernels/internal/reference\arg_min_max.h ****   const int dims_count = input1_shape.DimensionsCount();
 4053              		.loc 2 54 0
 4054 0658 0280A0E1 		mov	r8, r2
 4055 065c FCFEFFEA 		b	.L325
 4056              		.cfi_endproc
 4057              	.LFE1978:
 4058              		.fnend
 4060              		.section	.text._ZN6tflite13reference_ops9ArgMinMaxIhllNS_3ops5micro4LessEEEvRKNS_12RuntimeShapeEPK
 4061              		.align	2
 4062              		.weak	_ZN6tflite13reference_ops9ArgMinMaxIhllNS_3ops5micro4LessEEEvRKNS_12RuntimeShapeEPKT_PKT1_S7
 4063              		.syntax unified
 4064              		.arm
 4065              		.fpu neon
 4067              	_ZN6tflite13reference_ops9ArgMinMaxIhllNS_3ops5micro4LessEEEvRKNS_12RuntimeShapeEPKT_PKT1_S7_PT0_RK
 4068              		.fnstart
 4069              	.LFB1979:
  36:C:/Renesas/e2studio_2021_01_workspace_RZA2M_ANPR/ANPR_RZA2M_GR_MANGO/src/tensorflow_lite/src/tensorflow/lite/kernels/internal/reference\arg_min_max.h ****                const T3* input2_data, const RuntimeShape& output_shape,
 4070              		.loc 2 36 0
 4071              		.cfi_startproc
 4072              		@ args = 8, pretend = 0, frame = 8
 4073              		@ frame_needed = 0, uses_anonymous_args = 0
 4074              	.LVL515:
 4075 0000 00C090E5 		ldr	ip, [r0]
 4076              	.LVL516:
 4077 0004 F04F2DE9 		push	{r4, r5, r6, r7, r8, r9, r10, fp, lr}
 4078              		.save {r4, r5, r6, r7, r8, r9, r10, fp, lr}
 4079              		.cfi_def_cfa_offset 36
 4080              		.cfi_offset 4, -36
 4081              		.cfi_offset 5, -32
 4082              		.cfi_offset 6, -28
 4083              		.cfi_offset 7, -24
 4084              		.cfi_offset 8, -20
 4085              		.cfi_offset 9, -16
 4086              		.cfi_offset 10, -12
 4087              		.cfi_offset 11, -8
 4088              		.cfi_offset 14, -4
 4089              		.pad #12
 4090 0008 0CD04DE2 		sub	sp, sp, #12
 4091              		.cfi_def_cfa_offset 48
  39:C:/Renesas/e2studio_2021_01_workspace_RZA2M_ANPR/ANPR_RZA2M_GR_MANGO/src/tensorflow_lite/src/tensorflow/lite/kernels/internal/reference\arg_min_max.h ****   TFLITE_DCHECK_EQ(input1_shape.DimensionsCount() - 1,
 4092              		.loc 2 39 0
 4093 000c 00005CE3 		cmp	ip, #0
 4094 0010 390000DA 		ble	.L441
 4095              	.LVL517:
  40:C:/Renesas/e2studio_2021_01_workspace_RZA2M_ANPR/ANPR_RZA2M_GR_MANGO/src/tensorflow_lite/src/tensorflow/lite/kernels/internal/reference\arg_min_max.h ****                    output_shape.DimensionsCount());
 4096              		.loc 2 40 0
 4097 0014 00E093E5 		ldr	lr, [r3]
 4098 0018 01404CE2 		sub	r4, ip, #1
 4099              	.LVL518:
 4100 001c 0E0054E1 		cmp	r4, lr
 4101 0020 3500001A 		bne	.L441
  42:C:/Renesas/e2studio_2021_01_workspace_RZA2M_ANPR/ANPR_RZA2M_GR_MANGO/src/tensorflow_lite/src/tensorflow/lite/kernels/internal/reference\arg_min_max.h ****   if (axis < 0) {
 4102              		.loc 2 42 0
 4103 0024 002092E5 		ldr	r2, [r2]
 4104              	.LVL519:
  43:C:/Renesas/e2studio_2021_01_workspace_RZA2M_ANPR/ANPR_RZA2M_GR_MANGO/src/tensorflow_lite/src/tensorflow/lite/kernels/internal/reference\arg_min_max.h ****     axis += input1_shape.DimensionsCount();
 4105              		.loc 2 43 0
 4106 0028 000052E3 		cmp	r2, #0
 4107 002c 180100BA 		blt	.L578
 4108              	.LVL520:
 4109              	.L442:
 4110              	.LBB919:
 4111              	.LBB920:
 215:C:/Renesas/e2studio_2021_01_workspace_RZA2M_ANPR/ANPR_RZA2M_GR_MANGO/src/tensorflow_lite/src/tensorflow/lite/kernels/internal\types.h ****     return size_ > kMaxSmallSize ? dims_pointer_[i] : dims_[i];
 4112              		.loc 3 215 0
 4113 0030 02005CE1 		cmp	ip, r2
 4114 0034 300000DA 		ble	.L441
 4115              		.loc 3 216 0
 4116 0038 05005CE3 		cmp	ip, #5
 4117 003c A70000CA 		bgt	.L579
 4118 0040 02E180E0 		add	lr, r0, r2, lsl #2
 4119              	.LBE920:
 4120              	.LBE919:
 4121              	.LBB925:
  49:C:/Renesas/e2studio_2021_01_workspace_RZA2M_ANPR/ANPR_RZA2M_GR_MANGO/src/tensorflow_lite/src/tensorflow/lite/kernels/internal/reference\arg_min_max.h ****     TFLITE_DCHECK_EQ(input1_shape.Dims(i), output_shape.Dims(i));
 4122              		.loc 2 49 0
 4123 0044 000052E3 		cmp	r2, #0
 4124              	.LBE925:
 4125              	.LBB1012:
 4126              	.LBB921:
 4127              		.loc 3 216 0
 4128 0048 04E09EE5 		ldr	lr, [lr, #4]
 4129              	.LVL521:
 4130              	.LBE921:
 4131              	.LBE1012:
 4132              	.LBB1013:
  49:C:/Renesas/e2studio_2021_01_workspace_RZA2M_ANPR/ANPR_RZA2M_GR_MANGO/src/tensorflow_lite/src/tensorflow/lite/kernels/internal/reference\arg_min_max.h ****     TFLITE_DCHECK_EQ(input1_shape.Dims(i), output_shape.Dims(i));
 4133              		.loc 2 49 0
 4134 004c 7401000A 		beq	.L444
 4135 0050 050054E3 		cmp	r4, #5
 4136 0054 290000CA 		bgt	.L448
 4137              	.LVL522:
 4138              	.LBB926:
 4139              	.LBB927:
 215:C:/Renesas/e2studio_2021_01_workspace_RZA2M_ANPR/ANPR_RZA2M_GR_MANGO/src/tensorflow_lite/src/tensorflow/lite/kernels/internal\types.h ****     return size_ > kMaxSmallSize ? dims_pointer_[i] : dims_[i];
 4140              		.loc 3 215 0
 4141 0058 000054E3 		cmp	r4, #0
 4142              	.LBE927:
 4143              	.LBE926:
 4144              	.LBB952:
 4145              	.LBB953:
 4146              		.loc 3 216 0
 4147 005c 049090E5 		ldr	r9, [r0, #4]
 4148              	.LVL523:
 4149              	.LBE953:
 4150              	.LBE952:
 4151              	.LBB971:
 4152              	.LBB928:
 215:C:/Renesas/e2studio_2021_01_workspace_RZA2M_ANPR/ANPR_RZA2M_GR_MANGO/src/tensorflow_lite/src/tensorflow/lite/kernels/internal\types.h ****     return size_ > kMaxSmallSize ? dims_pointer_[i] : dims_[i];
 4153              		.loc 3 215 0
 4154 0060 2500000A 		beq	.L441
 4155              	.LVL524:
 4156              	.LBE928:
 4157              	.LBE971:
  50:C:/Renesas/e2studio_2021_01_workspace_RZA2M_ANPR/ANPR_RZA2M_GR_MANGO/src/tensorflow_lite/src/tensorflow/lite/kernels/internal/reference\arg_min_max.h ****     outer_size *= input1_shape.Dims(i);
 4158              		.loc 2 50 0
 4159 0064 045093E5 		ldr	r5, [r3, #4]
 4160 0068 050059E1 		cmp	r9, r5
 4161 006c 2200001A 		bne	.L441
 4162              	.LVL525:
  49:C:/Renesas/e2studio_2021_01_workspace_RZA2M_ANPR/ANPR_RZA2M_GR_MANGO/src/tensorflow_lite/src/tensorflow/lite/kernels/internal/reference\arg_min_max.h ****     TFLITE_DCHECK_EQ(input1_shape.Dims(i), output_shape.Dims(i));
 4163              		.loc 2 49 0
 4164 0070 010052E3 		cmp	r2, #1
 4165 0074 3701000A 		beq	.L449
 4166              	.LVL526:
 4167              	.LBB972:
 4168              	.LBB954:
 215:C:/Renesas/e2studio_2021_01_workspace_RZA2M_ANPR/ANPR_RZA2M_GR_MANGO/src/tensorflow_lite/src/tensorflow/lite/kernels/internal\types.h ****     return size_ > kMaxSmallSize ? dims_pointer_[i] : dims_[i];
 4169              		.loc 3 215 0
 4170 0078 01005CE3 		cmp	ip, #1
 4171 007c 1E00000A 		beq	.L441
 4172              	.LBE954:
 4173              	.LBE972:
 4174              	.LBB973:
 4175              	.LBB929:
 4176 0080 010054E3 		cmp	r4, #1
 4177              	.LBE929:
 4178              	.LBE973:
 4179              	.LBB974:
 4180              	.LBB955:
 4181              		.loc 3 216 0
 4182 0084 085090E5 		ldr	r5, [r0, #8]
 4183              	.LVL527:
 4184              	.LBE955:
 4185              	.LBE974:
 4186              	.LBB975:
 4187              	.LBB930:
 215:C:/Renesas/e2studio_2021_01_workspace_RZA2M_ANPR/ANPR_RZA2M_GR_MANGO/src/tensorflow_lite/src/tensorflow/lite/kernels/internal\types.h ****     return size_ > kMaxSmallSize ? dims_pointer_[i] : dims_[i];
 4188              		.loc 3 215 0
 4189 0088 1B00000A 		beq	.L441
 4190              	.LVL528:
 4191              	.LBE930:
 4192              	.LBE975:
  50:C:/Renesas/e2studio_2021_01_workspace_RZA2M_ANPR/ANPR_RZA2M_GR_MANGO/src/tensorflow_lite/src/tensorflow/lite/kernels/internal/reference\arg_min_max.h ****     outer_size *= input1_shape.Dims(i);
 4193              		.loc 2 50 0
 4194 008c 086093E5 		ldr	r6, [r3, #8]
 4195 0090 060055E1 		cmp	r5, r6
 4196 0094 1800001A 		bne	.L441
  49:C:/Renesas/e2studio_2021_01_workspace_RZA2M_ANPR/ANPR_RZA2M_GR_MANGO/src/tensorflow_lite/src/tensorflow/lite/kernels/internal/reference\arg_min_max.h ****     TFLITE_DCHECK_EQ(input1_shape.Dims(i), output_shape.Dims(i));
 4197              		.loc 2 49 0
 4198 0098 020052E3 		cmp	r2, #2
  51:C:/Renesas/e2studio_2021_01_workspace_RZA2M_ANPR/ANPR_RZA2M_GR_MANGO/src/tensorflow_lite/src/tensorflow/lite/kernels/internal/reference\arg_min_max.h ****   }
 4199              		.loc 2 51 0
 4200 009c 950909E0 		mul	r9, r5, r9
 4201              	.LVL529:
  49:C:/Renesas/e2studio_2021_01_workspace_RZA2M_ANPR/ANPR_RZA2M_GR_MANGO/src/tensorflow_lite/src/tensorflow/lite/kernels/internal/reference\arg_min_max.h ****     TFLITE_DCHECK_EQ(input1_shape.Dims(i), output_shape.Dims(i));
 4202              		.loc 2 49 0
 4203 00a0 2C01000A 		beq	.L449
 4204              	.LVL530:
 4205              	.LBB976:
 4206              	.LBB956:
 215:C:/Renesas/e2studio_2021_01_workspace_RZA2M_ANPR/ANPR_RZA2M_GR_MANGO/src/tensorflow_lite/src/tensorflow/lite/kernels/internal\types.h ****     return size_ > kMaxSmallSize ? dims_pointer_[i] : dims_[i];
 4207              		.loc 3 215 0
 4208 00a4 02005CE3 		cmp	ip, #2
 4209 00a8 1300000A 		beq	.L441
 4210              	.LBE956:
 4211              	.LBE976:
 4212              	.LBB977:
 4213              	.LBB931:
 4214 00ac 020054E3 		cmp	r4, #2
 4215              	.LBE931:
 4216              	.LBE977:
 4217              	.LBB978:
 4218              	.LBB957:
 4219              		.loc 3 216 0
 4220 00b0 0C5090E5 		ldr	r5, [r0, #12]
 4221              	.LVL531:
 4222              	.LBE957:
 4223              	.LBE978:
 4224              	.LBB979:
 4225              	.LBB932:
 215:C:/Renesas/e2studio_2021_01_workspace_RZA2M_ANPR/ANPR_RZA2M_GR_MANGO/src/tensorflow_lite/src/tensorflow/lite/kernels/internal\types.h ****     return size_ > kMaxSmallSize ? dims_pointer_[i] : dims_[i];
 4226              		.loc 3 215 0
 4227 00b4 1000000A 		beq	.L441
 4228              	.LVL532:
 4229              	.LBE932:
 4230              	.LBE979:
  50:C:/Renesas/e2studio_2021_01_workspace_RZA2M_ANPR/ANPR_RZA2M_GR_MANGO/src/tensorflow_lite/src/tensorflow/lite/kernels/internal/reference\arg_min_max.h ****     outer_size *= input1_shape.Dims(i);
 4231              		.loc 2 50 0
 4232 00b8 0C6093E5 		ldr	r6, [r3, #12]
 4233 00bc 060055E1 		cmp	r5, r6
 4234 00c0 0D00001A 		bne	.L441
  49:C:/Renesas/e2studio_2021_01_workspace_RZA2M_ANPR/ANPR_RZA2M_GR_MANGO/src/tensorflow_lite/src/tensorflow/lite/kernels/internal/reference\arg_min_max.h ****     TFLITE_DCHECK_EQ(input1_shape.Dims(i), output_shape.Dims(i));
 4235              		.loc 2 49 0
 4236 00c4 030052E3 		cmp	r2, #3
  51:C:/Renesas/e2studio_2021_01_workspace_RZA2M_ANPR/ANPR_RZA2M_GR_MANGO/src/tensorflow_lite/src/tensorflow/lite/kernels/internal/reference\arg_min_max.h ****   }
 4237              		.loc 2 51 0
 4238 00c8 950909E0 		mul	r9, r5, r9
 4239              	.LVL533:
  49:C:/Renesas/e2studio_2021_01_workspace_RZA2M_ANPR/ANPR_RZA2M_GR_MANGO/src/tensorflow_lite/src/tensorflow/lite/kernels/internal/reference\arg_min_max.h ****     TFLITE_DCHECK_EQ(input1_shape.Dims(i), output_shape.Dims(i));
 4240              		.loc 2 49 0
 4241 00cc 2101000A 		beq	.L449
 4242              	.LVL534:
 4243              	.LBB980:
 4244              	.LBB958:
 215:C:/Renesas/e2studio_2021_01_workspace_RZA2M_ANPR/ANPR_RZA2M_GR_MANGO/src/tensorflow_lite/src/tensorflow/lite/kernels/internal\types.h ****     return size_ > kMaxSmallSize ? dims_pointer_[i] : dims_[i];
 4245              		.loc 3 215 0
 4246 00d0 03005CE3 		cmp	ip, #3
 4247 00d4 0800000A 		beq	.L441
 4248              	.LBE958:
 4249              	.LBE980:
 4250              	.LBB981:
 4251              	.LBB933:
 4252 00d8 030054E3 		cmp	r4, #3
 4253              	.LBE933:
 4254              	.LBE981:
 4255              	.LBB982:
 4256              	.LBB959:
 4257              		.loc 3 216 0
 4258 00dc 105090E5 		ldr	r5, [r0, #16]
 4259              	.LVL535:
 4260              	.LBE959:
 4261              	.LBE982:
 4262              	.LBB983:
 4263              	.LBB934:
 215:C:/Renesas/e2studio_2021_01_workspace_RZA2M_ANPR/ANPR_RZA2M_GR_MANGO/src/tensorflow_lite/src/tensorflow/lite/kernels/internal\types.h ****     return size_ > kMaxSmallSize ? dims_pointer_[i] : dims_[i];
 4264              		.loc 3 215 0
 4265 00e0 0500000A 		beq	.L441
 4266              	.LVL536:
 4267              	.LBE934:
 4268              	.LBE983:
  50:C:/Renesas/e2studio_2021_01_workspace_RZA2M_ANPR/ANPR_RZA2M_GR_MANGO/src/tensorflow_lite/src/tensorflow/lite/kernels/internal/reference\arg_min_max.h ****     outer_size *= input1_shape.Dims(i);
 4269              		.loc 2 50 0
 4270 00e4 106093E5 		ldr	r6, [r3, #16]
 4271 00e8 060055E1 		cmp	r5, r6
 4272 00ec 0200001A 		bne	.L441
  49:C:/Renesas/e2studio_2021_01_workspace_RZA2M_ANPR/ANPR_RZA2M_GR_MANGO/src/tensorflow_lite/src/tensorflow/lite/kernels/internal/reference\arg_min_max.h ****     TFLITE_DCHECK_EQ(input1_shape.Dims(i), output_shape.Dims(i));
 4273              		.loc 2 49 0
 4274 00f0 040052E3 		cmp	r2, #4
  51:C:/Renesas/e2studio_2021_01_workspace_RZA2M_ANPR/ANPR_RZA2M_GR_MANGO/src/tensorflow_lite/src/tensorflow/lite/kernels/internal/reference\arg_min_max.h ****   }
 4275              		.loc 2 51 0
 4276 00f4 950909E0 		mul	r9, r5, r9
 4277              	.LVL537:
  49:C:/Renesas/e2studio_2021_01_workspace_RZA2M_ANPR/ANPR_RZA2M_GR_MANGO/src/tensorflow_lite/src/tensorflow/lite/kernels/internal/reference\arg_min_max.h ****     TFLITE_DCHECK_EQ(input1_shape.Dims(i), output_shape.Dims(i));
 4278              		.loc 2 49 0
 4279 00f8 1601000A 		beq	.L449
 4280              	.LVL538:
 4281              	.L441:
 4282              	.LBE1013:
  39:C:/Renesas/e2studio_2021_01_workspace_RZA2M_ANPR/ANPR_RZA2M_GR_MANGO/src/tensorflow_lite/src/tensorflow/lite/kernels/internal/reference\arg_min_max.h ****   TFLITE_DCHECK_EQ(input1_shape.DimensionsCount() - 1,
 4283              		.loc 2 39 0 discriminator 1
 4284 00fc FEFFFFEB 		bl	abort
 4285              	.LVL539:
 4286              	.L448:
 4287              	.LBB1014:
 4288              	.LBB984:
 4289              	.LBB935:
 4290              		.loc 3 216 0
 4291 0100 045093E5 		ldr	r5, [r3, #4]
 4292              	.LBE935:
 4293              	.LBE984:
 4294              	.LBB985:
 4295              	.LBB960:
 4296 0104 049090E5 		ldr	r9, [r0, #4]
 4297              	.LVL540:
 4298              	.LBE960:
 4299              	.LBE985:
 4300              	.LBB986:
 4301              	.LBB936:
 4302 0108 006095E5 		ldr	r6, [r5]
 4303              	.LVL541:
 4304              	.LBE936:
 4305              	.LBE986:
  50:C:/Renesas/e2studio_2021_01_workspace_RZA2M_ANPR/ANPR_RZA2M_GR_MANGO/src/tensorflow_lite/src/tensorflow/lite/kernels/internal/reference\arg_min_max.h ****     outer_size *= input1_shape.Dims(i);
 4306              		.loc 2 50 0
 4307 010c 060059E1 		cmp	r9, r6
 4308 0110 F9FFFF1A 		bne	.L441
 4309              	.LVL542:
  49:C:/Renesas/e2studio_2021_01_workspace_RZA2M_ANPR/ANPR_RZA2M_GR_MANGO/src/tensorflow_lite/src/tensorflow/lite/kernels/internal/reference\arg_min_max.h ****     TFLITE_DCHECK_EQ(input1_shape.Dims(i), output_shape.Dims(i));
 4310              		.loc 2 49 0
 4311 0114 010052E3 		cmp	r2, #1
 4312 0118 1A00000A 		beq	.L450
 4313              	.LVL543:
 4314              	.LBB987:
 4315              	.LBB961:
 215:C:/Renesas/e2studio_2021_01_workspace_RZA2M_ANPR/ANPR_RZA2M_GR_MANGO/src/tensorflow_lite/src/tensorflow/lite/kernels/internal\types.h ****     return size_ > kMaxSmallSize ? dims_pointer_[i] : dims_[i];
 4316              		.loc 3 215 0
 4317 011c 01005CE3 		cmp	ip, #1
 4318 0120 F5FFFF0A 		beq	.L441
 4319              	.LVL544:
 4320              	.LBE961:
 4321              	.LBE987:
 4322              	.LBB988:
 4323              	.LBB937:
 4324              		.loc 3 216 0
 4325 0124 047095E5 		ldr	r7, [r5, #4]
 4326              	.LVL545:
 4327              	.LBE937:
 4328              	.LBE988:
  50:C:/Renesas/e2studio_2021_01_workspace_RZA2M_ANPR/ANPR_RZA2M_GR_MANGO/src/tensorflow_lite/src/tensorflow/lite/kernels/internal/reference\arg_min_max.h ****     outer_size *= input1_shape.Dims(i);
 4329              		.loc 2 50 0
 4330 0128 086090E5 		ldr	r6, [r0, #8]
 4331 012c 070056E1 		cmp	r6, r7
 4332 0130 F1FFFF1A 		bne	.L441
  49:C:/Renesas/e2studio_2021_01_workspace_RZA2M_ANPR/ANPR_RZA2M_GR_MANGO/src/tensorflow_lite/src/tensorflow/lite/kernels/internal/reference\arg_min_max.h ****     TFLITE_DCHECK_EQ(input1_shape.Dims(i), output_shape.Dims(i));
 4333              		.loc 2 49 0
 4334 0134 020052E3 		cmp	r2, #2
  51:C:/Renesas/e2studio_2021_01_workspace_RZA2M_ANPR/ANPR_RZA2M_GR_MANGO/src/tensorflow_lite/src/tensorflow/lite/kernels/internal/reference\arg_min_max.h ****   }
 4335              		.loc 2 51 0
 4336 0138 960909E0 		mul	r9, r6, r9
 4337              	.LVL546:
  49:C:/Renesas/e2studio_2021_01_workspace_RZA2M_ANPR/ANPR_RZA2M_GR_MANGO/src/tensorflow_lite/src/tensorflow/lite/kernels/internal/reference\arg_min_max.h ****     TFLITE_DCHECK_EQ(input1_shape.Dims(i), output_shape.Dims(i));
 4338              		.loc 2 49 0
 4339 013c 1100000A 		beq	.L450
 4340              	.LVL547:
 4341              	.LBB989:
 4342              	.LBB962:
 215:C:/Renesas/e2studio_2021_01_workspace_RZA2M_ANPR/ANPR_RZA2M_GR_MANGO/src/tensorflow_lite/src/tensorflow/lite/kernels/internal\types.h ****     return size_ > kMaxSmallSize ? dims_pointer_[i] : dims_[i];
 4343              		.loc 3 215 0
 4344 0140 02005CE3 		cmp	ip, #2
 4345 0144 ECFFFF0A 		beq	.L441
 4346              	.LVL548:
 4347              	.LBE962:
 4348              	.LBE989:
 4349              	.LBB990:
 4350              	.LBB938:
 4351              		.loc 3 216 0
 4352 0148 087095E5 		ldr	r7, [r5, #8]
 4353              	.LVL549:
 4354              	.LBE938:
 4355              	.LBE990:
  50:C:/Renesas/e2studio_2021_01_workspace_RZA2M_ANPR/ANPR_RZA2M_GR_MANGO/src/tensorflow_lite/src/tensorflow/lite/kernels/internal/reference\arg_min_max.h ****     outer_size *= input1_shape.Dims(i);
 4356              		.loc 2 50 0
 4357 014c 0C6090E5 		ldr	r6, [r0, #12]
 4358 0150 070056E1 		cmp	r6, r7
 4359 0154 E8FFFF1A 		bne	.L441
  49:C:/Renesas/e2studio_2021_01_workspace_RZA2M_ANPR/ANPR_RZA2M_GR_MANGO/src/tensorflow_lite/src/tensorflow/lite/kernels/internal/reference\arg_min_max.h ****     TFLITE_DCHECK_EQ(input1_shape.Dims(i), output_shape.Dims(i));
 4360              		.loc 2 49 0
 4361 0158 030052E3 		cmp	r2, #3
  51:C:/Renesas/e2studio_2021_01_workspace_RZA2M_ANPR/ANPR_RZA2M_GR_MANGO/src/tensorflow_lite/src/tensorflow/lite/kernels/internal/reference\arg_min_max.h ****   }
 4362              		.loc 2 51 0
 4363 015c 960909E0 		mul	r9, r6, r9
 4364              	.LVL550:
  49:C:/Renesas/e2studio_2021_01_workspace_RZA2M_ANPR/ANPR_RZA2M_GR_MANGO/src/tensorflow_lite/src/tensorflow/lite/kernels/internal/reference\arg_min_max.h ****     TFLITE_DCHECK_EQ(input1_shape.Dims(i), output_shape.Dims(i));
 4365              		.loc 2 49 0
 4366 0160 0800000A 		beq	.L450
 4367              	.LVL551:
 4368              	.LBB991:
 4369              	.LBB963:
 215:C:/Renesas/e2studio_2021_01_workspace_RZA2M_ANPR/ANPR_RZA2M_GR_MANGO/src/tensorflow_lite/src/tensorflow/lite/kernels/internal\types.h ****     return size_ > kMaxSmallSize ? dims_pointer_[i] : dims_[i];
 4370              		.loc 3 215 0
 4371 0164 03005CE3 		cmp	ip, #3
 4372 0168 E3FFFF0A 		beq	.L441
 4373              	.LVL552:
 4374              	.LBE963:
 4375              	.LBE991:
 4376              	.LBB992:
 4377              	.LBB939:
 4378              		.loc 3 216 0
 4379 016c 0C6095E5 		ldr	r6, [r5, #12]
 4380              	.LVL553:
 4381              	.LBE939:
 4382              	.LBE992:
  50:C:/Renesas/e2studio_2021_01_workspace_RZA2M_ANPR/ANPR_RZA2M_GR_MANGO/src/tensorflow_lite/src/tensorflow/lite/kernels/internal/reference\arg_min_max.h ****     outer_size *= input1_shape.Dims(i);
 4383              		.loc 2 50 0
 4384 0170 105090E5 		ldr	r5, [r0, #16]
 4385 0174 060055E1 		cmp	r5, r6
 4386 0178 DFFFFF1A 		bne	.L441
  49:C:/Renesas/e2studio_2021_01_workspace_RZA2M_ANPR/ANPR_RZA2M_GR_MANGO/src/tensorflow_lite/src/tensorflow/lite/kernels/internal/reference\arg_min_max.h ****     TFLITE_DCHECK_EQ(input1_shape.Dims(i), output_shape.Dims(i));
 4387              		.loc 2 49 0
 4388 017c 040052E3 		cmp	r2, #4
  51:C:/Renesas/e2studio_2021_01_workspace_RZA2M_ANPR/ANPR_RZA2M_GR_MANGO/src/tensorflow_lite/src/tensorflow/lite/kernels/internal/reference\arg_min_max.h ****   }
 4389              		.loc 2 51 0
 4390 0180 950909E0 		mul	r9, r5, r9
 4391              	.LVL554:
  49:C:/Renesas/e2studio_2021_01_workspace_RZA2M_ANPR/ANPR_RZA2M_GR_MANGO/src/tensorflow_lite/src/tensorflow/lite/kernels/internal/reference\arg_min_max.h ****     TFLITE_DCHECK_EQ(input1_shape.Dims(i), output_shape.Dims(i));
 4392              		.loc 2 49 0
 4393 0184 DCFFFF1A 		bne	.L441
 4394              	.LVL555:
 4395              	.L450:
 4396              	.LBE1014:
 4397              	.LBB1015:
  56:C:/Renesas/e2studio_2021_01_workspace_RZA2M_ANPR/ANPR_RZA2M_GR_MANGO/src/tensorflow_lite/src/tensorflow/lite/kernels/internal/reference\arg_min_max.h ****     TFLITE_DCHECK_EQ(input1_shape.Dims(i), output_shape.Dims(i - 1));
 4398              		.loc 2 56 0
 4399 0188 012082E2 		add	r2, r2, #1
 4400              	.LVL556:
 4401 018c 02005CE1 		cmp	ip, r2
 4402 0190 EE0000DA 		ble	.L485
 4403              	.LVL557:
 4404              	.L457:
  57:C:/Renesas/e2studio_2021_01_workspace_RZA2M_ANPR/ANPR_RZA2M_GR_MANGO/src/tensorflow_lite/src/tensorflow/lite/kernels/internal/reference\arg_min_max.h ****     inner_size *= input1_shape.Dims(i);
 4405              		.loc 2 57 0
 4406 0194 015042E2 		sub	r5, r2, #1
 4407              	.LBB1016:
 4408              	.LBB1017:
 4409              		.loc 3 216 0
 4410 0198 026180E0 		add	r6, r0, r2, lsl #2
 4411              	.LBE1017:
 4412              	.LBE1016:
 4413              	.LBB1038:
 4414              	.LBB1039:
 215:C:/Renesas/e2studio_2021_01_workspace_RZA2M_ANPR/ANPR_RZA2M_GR_MANGO/src/tensorflow_lite/src/tensorflow/lite/kernels/internal\types.h ****     return size_ > kMaxSmallSize ? dims_pointer_[i] : dims_[i];
 4415              		.loc 3 215 0
 4416 019c 050054E1 		cmp	r4, r5
 4417              	.LBE1039:
 4418              	.LBE1038:
 4419              	.LBB1068:
 4420              	.LBB1018:
 4421              		.loc 3 216 0
 4422 01a0 046096E5 		ldr	r6, [r6, #4]
 4423              	.LVL558:
 4424              	.LBE1018:
 4425              	.LBE1068:
 4426              	.LBB1069:
 4427              	.LBB1040:
 215:C:/Renesas/e2studio_2021_01_workspace_RZA2M_ANPR/ANPR_RZA2M_GR_MANGO/src/tensorflow_lite/src/tensorflow/lite/kernels/internal\types.h ****     return size_ > kMaxSmallSize ? dims_pointer_[i] : dims_[i];
 4428              		.loc 3 215 0
 4429 01a4 D4FFFFDA 		ble	.L441
 4430              		.loc 3 216 0
 4431 01a8 043093E5 		ldr	r3, [r3, #4]
 4432              	.LVL559:
 4433 01ac 0571A0E1 		lsl	r7, r5, #2
 4434 01b0 058193E7 		ldr	r8, [r3, r5, lsl #2]
 4435              	.LVL560:
 4436              	.LBE1040:
 4437              	.LBE1069:
  57:C:/Renesas/e2studio_2021_01_workspace_RZA2M_ANPR/ANPR_RZA2M_GR_MANGO/src/tensorflow_lite/src/tensorflow/lite/kernels/internal/reference\arg_min_max.h ****     inner_size *= input1_shape.Dims(i);
 4438              		.loc 2 57 0
 4439 01b4 060058E1 		cmp	r8, r6
 4440 01b8 CFFFFF1A 		bne	.L441
 4441              	.LVL561:
  56:C:/Renesas/e2studio_2021_01_workspace_RZA2M_ANPR/ANPR_RZA2M_GR_MANGO/src/tensorflow_lite/src/tensorflow/lite/kernels/internal/reference\arg_min_max.h ****     TFLITE_DCHECK_EQ(input1_shape.Dims(i), output_shape.Dims(i - 1));
 4442              		.loc 2 56 0
 4443 01bc 016082E2 		add	r6, r2, #1
 4444              	.LVL562:
 4445 01c0 06005CE1 		cmp	ip, r6
 4446 01c4 1E0000DA 		ble	.L461
 4447              	.LVL563:
 4448              	.LBB1070:
 4449              	.LBB1019:
 4450              		.loc 3 216 0
 4451 01c8 065180E0 		add	r5, r0, r6, lsl #2
 4452              	.LBE1019:
 4453              	.LBE1070:
 4454              	.LBB1071:
 4455              	.LBB1041:
 215:C:/Renesas/e2studio_2021_01_workspace_RZA2M_ANPR/ANPR_RZA2M_GR_MANGO/src/tensorflow_lite/src/tensorflow/lite/kernels/internal\types.h ****     return size_ > kMaxSmallSize ? dims_pointer_[i] : dims_[i];
 4456              		.loc 3 215 0
 4457 01cc 020054E1 		cmp	r4, r2
 4458              	.LBE1041:
 4459              	.LBE1071:
 4460              	.LBB1072:
 4461              	.LBB1020:
 4462              		.loc 3 216 0
 4463 01d0 045095E5 		ldr	r5, [r5, #4]
 4464              	.LVL564:
 4465              	.LBE1020:
 4466              	.LBE1072:
 4467              	.LBB1073:
 4468              	.LBB1042:
 215:C:/Renesas/e2studio_2021_01_workspace_RZA2M_ANPR/ANPR_RZA2M_GR_MANGO/src/tensorflow_lite/src/tensorflow/lite/kernels/internal\types.h ****     return size_ > kMaxSmallSize ? dims_pointer_[i] : dims_[i];
 4469              		.loc 3 215 0
 4470 01d4 C8FFFFDA 		ble	.L441
 4471              		.loc 3 216 0
 4472 01d8 073083E0 		add	r3, r3, r7
 4473 01dc 047093E5 		ldr	r7, [r3, #4]
 4474              	.LVL565:
 4475              	.LBE1042:
 4476              	.LBE1073:
  57:C:/Renesas/e2studio_2021_01_workspace_RZA2M_ANPR/ANPR_RZA2M_GR_MANGO/src/tensorflow_lite/src/tensorflow/lite/kernels/internal/reference\arg_min_max.h ****     inner_size *= input1_shape.Dims(i);
 4477              		.loc 2 57 0
 4478 01e0 050057E1 		cmp	r7, r5
 4479 01e4 C4FFFF1A 		bne	.L441
  56:C:/Renesas/e2studio_2021_01_workspace_RZA2M_ANPR/ANPR_RZA2M_GR_MANGO/src/tensorflow_lite/src/tensorflow/lite/kernels/internal/reference\arg_min_max.h ****     TFLITE_DCHECK_EQ(input1_shape.Dims(i), output_shape.Dims(i - 1));
 4480              		.loc 2 56 0
 4481 01e8 025082E2 		add	r5, r2, #2
  58:C:/Renesas/e2studio_2021_01_workspace_RZA2M_ANPR/ANPR_RZA2M_GR_MANGO/src/tensorflow_lite/src/tensorflow/lite/kernels/internal/reference\arg_min_max.h ****   }
 4482              		.loc 2 58 0
 4483 01ec 980708E0 		mul	r8, r8, r7
 4484              	.LVL566:
  56:C:/Renesas/e2studio_2021_01_workspace_RZA2M_ANPR/ANPR_RZA2M_GR_MANGO/src/tensorflow_lite/src/tensorflow/lite/kernels/internal/reference\arg_min_max.h ****     TFLITE_DCHECK_EQ(input1_shape.Dims(i), output_shape.Dims(i - 1));
 4485              		.loc 2 56 0
 4486 01f0 05005CE1 		cmp	ip, r5
 4487 01f4 120000DA 		ble	.L461
 4488              	.LVL567:
 4489              	.LBB1074:
 4490              	.LBB1043:
 215:C:/Renesas/e2studio_2021_01_workspace_RZA2M_ANPR/ANPR_RZA2M_GR_MANGO/src/tensorflow_lite/src/tensorflow/lite/kernels/internal\types.h ****     return size_ > kMaxSmallSize ? dims_pointer_[i] : dims_[i];
 4491              		.loc 3 215 0
 4492 01f8 060054E1 		cmp	r4, r6
 4493              	.LBE1043:
 4494              	.LBE1074:
 4495              	.LBB1075:
 4496              	.LBB1021:
 4497              		.loc 3 216 0
 4498 01fc 056180E0 		add	r6, r0, r5, lsl #2
 4499 0200 047096E5 		ldr	r7, [r6, #4]
 4500              	.LVL568:
 4501              	.LBE1021:
 4502              	.LBE1075:
 4503              	.LBB1076:
 4504              	.LBB1044:
 215:C:/Renesas/e2studio_2021_01_workspace_RZA2M_ANPR/ANPR_RZA2M_GR_MANGO/src/tensorflow_lite/src/tensorflow/lite/kernels/internal\types.h ****     return size_ > kMaxSmallSize ? dims_pointer_[i] : dims_[i];
 4505              		.loc 3 215 0
 4506 0204 BCFFFFDA 		ble	.L441
 4507              		.loc 3 216 0
 4508 0208 086093E5 		ldr	r6, [r3, #8]
 4509              	.LVL569:
 4510              	.LBE1044:
 4511              	.LBE1076:
  57:C:/Renesas/e2studio_2021_01_workspace_RZA2M_ANPR/ANPR_RZA2M_GR_MANGO/src/tensorflow_lite/src/tensorflow/lite/kernels/internal/reference\arg_min_max.h ****     inner_size *= input1_shape.Dims(i);
 4512              		.loc 2 57 0
 4513 020c 070056E1 		cmp	r6, r7
 4514 0210 B9FFFF1A 		bne	.L441
 4515              	.LVL570:
  56:C:/Renesas/e2studio_2021_01_workspace_RZA2M_ANPR/ANPR_RZA2M_GR_MANGO/src/tensorflow_lite/src/tensorflow/lite/kernels/internal/reference\arg_min_max.h ****     TFLITE_DCHECK_EQ(input1_shape.Dims(i), output_shape.Dims(i - 1));
 4516              		.loc 2 56 0
 4517 0214 032082E2 		add	r2, r2, #3
  58:C:/Renesas/e2studio_2021_01_workspace_RZA2M_ANPR/ANPR_RZA2M_GR_MANGO/src/tensorflow_lite/src/tensorflow/lite/kernels/internal/reference\arg_min_max.h ****   }
 4518              		.loc 2 58 0
 4519 0218 960808E0 		mul	r8, r6, r8
 4520              	.LVL571:
  56:C:/Renesas/e2studio_2021_01_workspace_RZA2M_ANPR/ANPR_RZA2M_GR_MANGO/src/tensorflow_lite/src/tensorflow/lite/kernels/internal/reference\arg_min_max.h ****     TFLITE_DCHECK_EQ(input1_shape.Dims(i), output_shape.Dims(i - 1));
 4521              		.loc 2 56 0
 4522 021c 02005CE1 		cmp	ip, r2
 4523 0220 070000DA 		ble	.L461
 4524              	.LVL572:
 4525              	.LBB1077:
 4526              	.LBB1022:
 4527              		.loc 3 216 0
 4528 0224 022180E0 		add	r2, r0, r2, lsl #2
 4529              	.LVL573:
 4530              	.LBE1022:
 4531              	.LBE1077:
 4532              	.LBB1078:
 4533              	.LBB1045:
 215:C:/Renesas/e2studio_2021_01_workspace_RZA2M_ANPR/ANPR_RZA2M_GR_MANGO/src/tensorflow_lite/src/tensorflow/lite/kernels/internal\types.h ****     return size_ > kMaxSmallSize ? dims_pointer_[i] : dims_[i];
 4534              		.loc 3 215 0
 4535 0228 050054E1 		cmp	r4, r5
 4536              	.LBE1045:
 4537              	.LBE1078:
 4538              	.LBB1079:
 4539              	.LBB1023:
 4540              		.loc 3 216 0
 4541 022c 042092E5 		ldr	r2, [r2, #4]
 4542              	.LVL574:
 4543              	.LBE1023:
 4544              	.LBE1079:
 4545              	.LBB1080:
 4546              	.LBB1046:
 215:C:/Renesas/e2studio_2021_01_workspace_RZA2M_ANPR/ANPR_RZA2M_GR_MANGO/src/tensorflow_lite/src/tensorflow/lite/kernels/internal\types.h ****     return size_ > kMaxSmallSize ? dims_pointer_[i] : dims_[i];
 4547              		.loc 3 215 0
 4548 0230 B1FFFFDA 		ble	.L441
 4549              		.loc 3 216 0
 4550 0234 0C3093E5 		ldr	r3, [r3, #12]
 4551              	.LVL575:
 4552              	.LBE1046:
 4553              	.LBE1080:
  57:C:/Renesas/e2studio_2021_01_workspace_RZA2M_ANPR/ANPR_RZA2M_GR_MANGO/src/tensorflow_lite/src/tensorflow/lite/kernels/internal/reference\arg_min_max.h ****     inner_size *= input1_shape.Dims(i);
 4554              		.loc 2 57 0
 4555 0238 020053E1 		cmp	r3, r2
 4556 023c AEFFFF1A 		bne	.L441
 4557              	.LVL576:
 4558              	.L574:
  58:C:/Renesas/e2studio_2021_01_workspace_RZA2M_ANPR/ANPR_RZA2M_GR_MANGO/src/tensorflow_lite/src/tensorflow/lite/kernels/internal/reference\arg_min_max.h ****   }
 4559              		.loc 2 58 0
 4560 0240 920808E0 		mul	r8, r2, r8
 4561              	.LVL577:
 4562              	.L461:
 4563              	.LBE1015:
 4564              	.LBB1116:
  60:C:/Renesas/e2studio_2021_01_workspace_RZA2M_ANPR/ANPR_RZA2M_GR_MANGO/src/tensorflow_lite/src/tensorflow/lite/kernels/internal/reference\arg_min_max.h ****     for (int inner = 0; inner < inner_size; ++inner) {
 4565              		.loc 2 60 0 discriminator 1
 4566 0244 000059E3 		cmp	r9, #0
 4567 0248 220000DA 		ble	.L439
 4568 024c 000058E3 		cmp	r8, #0
 4569 0250 200000DA 		ble	.L439
 4570              	.LVL578:
 4571              	.L468:
 4572 0254 9E0803E0 		mul	r3, lr, r8
 4573 0258 30A09DE5 		ldr	r10, [sp, #48]
 4574 025c 086081E0 		add	r6, r1, r8
 4575              	.LBE1116:
  54:C:/Renesas/e2studio_2021_01_workspace_RZA2M_ANPR/ANPR_RZA2M_GR_MANGO/src/tensorflow_lite/src/tensorflow/lite/kernels/internal/reference\arg_min_max.h ****   const int dims_count = input1_shape.DimensionsCount();
 4576              		.loc 2 54 0 discriminator 1
 4577 0260 00B0A0E3 		mov	fp, #0
 4578 0264 017048E2 		sub	r7, r8, #1
 4579 0268 00308DE5 		str	r3, [sp]
 4580 026c 0831A0E1 		lsl	r3, r8, #2
 4581 0270 04308DE5 		str	r3, [sp, #4]
 4582              	.LVL579:
 4583              	.L464:
 4584 0274 084046E0 		sub	r4, r6, r8
 4585 0278 0A50A0E1 		mov	r5, r10
 4586              	.LVL580:
 4587              	.L463:
 4588              	.LBB1124:
 4589              	.LBB1117:
 4590              	.LBB1118:
 4591              	.LBB1119:
  64:C:/Renesas/e2studio_2021_01_workspace_RZA2M_ANPR/ANPR_RZA2M_GR_MANGO/src/tensorflow_lite/src/tensorflow/lite/kernels/internal/reference\arg_min_max.h ****         const auto& curr_value =
 4592              		.loc 2 64 0
 4593 027c 01005EE3 		cmp	lr, #1
 4594              	.LBE1119:
  62:C:/Renesas/e2studio_2021_01_workspace_RZA2M_ANPR/ANPR_RZA2M_GR_MANGO/src/tensorflow_lite/src/tensorflow/lite/kernels/internal/reference\arg_min_max.h ****       T2 min_max_index = 0;
 4595              		.loc 2 62 0
 4596 0280 0120D4E4 		ldrb	r2, [r4], #1	@ zero_extendqisi2
 4597              	.LVL581:
 4598              	.LBB1120:
  64:C:/Renesas/e2studio_2021_01_workspace_RZA2M_ANPR/ANPR_RZA2M_GR_MANGO/src/tensorflow_lite/src/tensorflow/lite/kernels/internal/reference\arg_min_max.h ****         const auto& curr_value =
 4599              		.loc 2 64 0
 4600 0284 AC0000DA 		ble	.L480
 4601 0288 04C087E0 		add	ip, r7, r4
 4602 028c 0130A0E3 		mov	r3, #1
 4603 0290 0000A0E3 		mov	r0, #0
 4604              	.LVL582:
 4605              	.L466:
 4606 0294 0810DCE6 		ldrb	r1, [ip], r8	@ zero_extendqisi2
 4607 0298 020051E1 		cmp	r1, r2
 4608 029c 0300A0B1 		movlt	r0, r3
 4609 02a0 013083E2 		add	r3, r3, #1
 4610 02a4 0120A0B1 		movlt	r2, r1
 4611              	.LVL583:
 4612 02a8 0E0053E1 		cmp	r3, lr
 4613 02ac F8FFFF1A 		bne	.L466
 4614              	.LBE1120:
 4615              	.LBE1118:
  61:C:/Renesas/e2studio_2021_01_workspace_RZA2M_ANPR/ANPR_RZA2M_GR_MANGO/src/tensorflow_lite/src/tensorflow/lite/kernels/internal/reference\arg_min_max.h ****       auto min_max_value = input1_data[outer * axis_size * inner_size + inner];
 4616              		.loc 2 61 0 discriminator 2
 4617 02b0 060054E1 		cmp	r4, r6
 4618              	.LBB1121:
  72:C:/Renesas/e2studio_2021_01_workspace_RZA2M_ANPR/ANPR_RZA2M_GR_MANGO/src/tensorflow_lite/src/tensorflow/lite/kernels/internal/reference\arg_min_max.h ****     }
 4619              		.loc 2 72 0 discriminator 2
 4620 02b4 040085E4 		str	r0, [r5], #4
 4621              	.LVL584:
 4622              	.LBE1121:
  61:C:/Renesas/e2studio_2021_01_workspace_RZA2M_ANPR/ANPR_RZA2M_GR_MANGO/src/tensorflow_lite/src/tensorflow/lite/kernels/internal/reference\arg_min_max.h ****       auto min_max_value = input1_data[outer * axis_size * inner_size + inner];
 4623              		.loc 2 61 0 discriminator 2
 4624 02b8 EFFFFF1A 		bne	.L463
 4625              	.LVL585:
 4626              	.L580:
 4627 02bc 00309DE5 		ldr	r3, [sp]
 4628              	.LBE1117:
  60:C:/Renesas/e2studio_2021_01_workspace_RZA2M_ANPR/ANPR_RZA2M_GR_MANGO/src/tensorflow_lite/src/tensorflow/lite/kernels/internal/reference\arg_min_max.h ****     for (int inner = 0; inner < inner_size; ++inner) {
 4629              		.loc 2 60 0
 4630 02c0 01B08BE2 		add	fp, fp, #1
 4631              	.LVL586:
 4632 02c4 09005BE1 		cmp	fp, r9
 4633 02c8 036086E0 		add	r6, r6, r3
 4634 02cc 04309DE5 		ldr	r3, [sp, #4]
 4635 02d0 03A08AE0 		add	r10, r10, r3
 4636 02d4 E6FFFFBA 		blt	.L464
 4637              	.LVL587:
 4638              	.L439:
 4639              	.LBE1124:
 4640              		.loc 2 75 0
 4641 02d8 0CD08DE2 		add	sp, sp, #12
 4642              		.cfi_remember_state
 4643              		.cfi_def_cfa_offset 36
 4644              		@ sp needed
 4645 02dc F08FBDE8 		pop	{r4, r5, r6, r7, r8, r9, r10, fp, pc}
 4646              	.LVL588:
 4647              	.L579:
 4648              		.cfi_restore_state
 4649              	.LBB1125:
 4650              	.LBB922:
 4651              		.loc 3 216 0
 4652 02e0 045090E5 		ldr	r5, [r0, #4]
 4653              	.LBE922:
 4654              	.LBE1125:
 4655              	.LBB1126:
  49:C:/Renesas/e2studio_2021_01_workspace_RZA2M_ANPR/ANPR_RZA2M_GR_MANGO/src/tensorflow_lite/src/tensorflow/lite/kernels/internal/reference\arg_min_max.h ****     TFLITE_DCHECK_EQ(input1_shape.Dims(i), output_shape.Dims(i));
 4656              		.loc 2 49 0
 4657 02e4 000052E3 		cmp	r2, #0
 4658              	.LBE1126:
 4659              	.LBB1127:
 4660              	.LBB923:
 4661              		.loc 3 216 0
 4662 02e8 02E195E7 		ldr	lr, [r5, r2, lsl #2]
 4663              	.LVL589:
 4664              	.LBE923:
 4665              	.LBE1127:
 4666              	.LBB1128:
  49:C:/Renesas/e2studio_2021_01_workspace_RZA2M_ANPR/ANPR_RZA2M_GR_MANGO/src/tensorflow_lite/src/tensorflow/lite/kernels/internal/reference\arg_min_max.h ****     TFLITE_DCHECK_EQ(input1_shape.Dims(i), output_shape.Dims(i));
 4667              		.loc 2 49 0
 4668 02ec CC00000A 		beq	.L444
 4669 02f0 050054E3 		cmp	r4, #5
 4670 02f4 690000CA 		bgt	.L451
 4671              	.LVL590:
 4672              	.LBB993:
 4673              	.LBB940:
 215:C:/Renesas/e2studio_2021_01_workspace_RZA2M_ANPR/ANPR_RZA2M_GR_MANGO/src/tensorflow_lite/src/tensorflow/lite/kernels/internal\types.h ****     return size_ > kMaxSmallSize ? dims_pointer_[i] : dims_[i];
 4674              		.loc 3 215 0
 4675 02f8 000054E3 		cmp	r4, #0
 4676              	.LBE940:
 4677              	.LBE993:
 4678              	.LBB994:
 4679              	.LBB964:
 4680              		.loc 3 216 0
 4681 02fc 009095E5 		ldr	r9, [r5]
 4682              	.LVL591:
 4683              	.LBE964:
 4684              	.LBE994:
 4685              	.LBB995:
 4686              	.LBB941:
 215:C:/Renesas/e2studio_2021_01_workspace_RZA2M_ANPR/ANPR_RZA2M_GR_MANGO/src/tensorflow_lite/src/tensorflow/lite/kernels/internal\types.h ****     return size_ > kMaxSmallSize ? dims_pointer_[i] : dims_[i];
 4687              		.loc 3 215 0
 4688 0300 7DFFFF0A 		beq	.L441
 4689              	.LVL592:
 4690              	.LBE941:
 4691              	.LBE995:
  50:C:/Renesas/e2studio_2021_01_workspace_RZA2M_ANPR/ANPR_RZA2M_GR_MANGO/src/tensorflow_lite/src/tensorflow/lite/kernels/internal/reference\arg_min_max.h ****     outer_size *= input1_shape.Dims(i);
 4692              		.loc 2 50 0
 4693 0304 046093E5 		ldr	r6, [r3, #4]
 4694 0308 060059E1 		cmp	r9, r6
 4695 030c 7AFFFF1A 		bne	.L441
 4696              	.LVL593:
  49:C:/Renesas/e2studio_2021_01_workspace_RZA2M_ANPR/ANPR_RZA2M_GR_MANGO/src/tensorflow_lite/src/tensorflow/lite/kernels/internal/reference\arg_min_max.h ****     TFLITE_DCHECK_EQ(input1_shape.Dims(i), output_shape.Dims(i));
 4697              		.loc 2 49 0
 4698 0310 010052E3 		cmp	r2, #1
 4699 0314 2300000A 		beq	.L452
 4700              	.LVL594:
 4701              	.LBB996:
 4702              	.LBB942:
 215:C:/Renesas/e2studio_2021_01_workspace_RZA2M_ANPR/ANPR_RZA2M_GR_MANGO/src/tensorflow_lite/src/tensorflow/lite/kernels/internal\types.h ****     return size_ > kMaxSmallSize ? dims_pointer_[i] : dims_[i];
 4703              		.loc 3 215 0
 4704 0318 010054E3 		cmp	r4, #1
 4705              	.LBE942:
 4706              	.LBE996:
 4707              	.LBB997:
 4708              	.LBB965:
 4709              		.loc 3 216 0
 4710 031c 046095E5 		ldr	r6, [r5, #4]
 4711              	.LVL595:
 4712              	.LBE965:
 4713              	.LBE997:
 4714              	.LBB998:
 4715              	.LBB943:
 215:C:/Renesas/e2studio_2021_01_workspace_RZA2M_ANPR/ANPR_RZA2M_GR_MANGO/src/tensorflow_lite/src/tensorflow/lite/kernels/internal\types.h ****     return size_ > kMaxSmallSize ? dims_pointer_[i] : dims_[i];
 4716              		.loc 3 215 0
 4717 0320 75FFFF0A 		beq	.L441
 4718              	.LVL596:
 4719              	.LBE943:
 4720              	.LBE998:
  50:C:/Renesas/e2studio_2021_01_workspace_RZA2M_ANPR/ANPR_RZA2M_GR_MANGO/src/tensorflow_lite/src/tensorflow/lite/kernels/internal/reference\arg_min_max.h ****     outer_size *= input1_shape.Dims(i);
 4721              		.loc 2 50 0
 4722 0324 087093E5 		ldr	r7, [r3, #8]
 4723 0328 070056E1 		cmp	r6, r7
 4724 032c 72FFFF1A 		bne	.L441
  49:C:/Renesas/e2studio_2021_01_workspace_RZA2M_ANPR/ANPR_RZA2M_GR_MANGO/src/tensorflow_lite/src/tensorflow/lite/kernels/internal/reference\arg_min_max.h ****     TFLITE_DCHECK_EQ(input1_shape.Dims(i), output_shape.Dims(i));
 4725              		.loc 2 49 0
 4726 0330 020052E3 		cmp	r2, #2
  51:C:/Renesas/e2studio_2021_01_workspace_RZA2M_ANPR/ANPR_RZA2M_GR_MANGO/src/tensorflow_lite/src/tensorflow/lite/kernels/internal/reference\arg_min_max.h ****   }
 4727              		.loc 2 51 0
 4728 0334 960909E0 		mul	r9, r6, r9
 4729              	.LVL597:
  49:C:/Renesas/e2studio_2021_01_workspace_RZA2M_ANPR/ANPR_RZA2M_GR_MANGO/src/tensorflow_lite/src/tensorflow/lite/kernels/internal/reference\arg_min_max.h ****     TFLITE_DCHECK_EQ(input1_shape.Dims(i), output_shape.Dims(i));
 4730              		.loc 2 49 0
 4731 0338 1A00000A 		beq	.L452
 4732              	.LVL598:
 4733              	.LBB999:
 4734              	.LBB944:
 215:C:/Renesas/e2studio_2021_01_workspace_RZA2M_ANPR/ANPR_RZA2M_GR_MANGO/src/tensorflow_lite/src/tensorflow/lite/kernels/internal\types.h ****     return size_ > kMaxSmallSize ? dims_pointer_[i] : dims_[i];
 4735              		.loc 3 215 0
 4736 033c 020054E3 		cmp	r4, #2
 4737              	.LBE944:
 4738              	.LBE999:
 4739              	.LBB1000:
 4740              	.LBB966:
 4741              		.loc 3 216 0
 4742 0340 086095E5 		ldr	r6, [r5, #8]
 4743              	.LVL599:
 4744              	.LBE966:
 4745              	.LBE1000:
 4746              	.LBB1001:
 4747              	.LBB945:
 215:C:/Renesas/e2studio_2021_01_workspace_RZA2M_ANPR/ANPR_RZA2M_GR_MANGO/src/tensorflow_lite/src/tensorflow/lite/kernels/internal\types.h ****     return size_ > kMaxSmallSize ? dims_pointer_[i] : dims_[i];
 4748              		.loc 3 215 0
 4749 0344 6CFFFF0A 		beq	.L441
 4750              	.LVL600:
 4751              	.LBE945:
 4752              	.LBE1001:
  50:C:/Renesas/e2studio_2021_01_workspace_RZA2M_ANPR/ANPR_RZA2M_GR_MANGO/src/tensorflow_lite/src/tensorflow/lite/kernels/internal/reference\arg_min_max.h ****     outer_size *= input1_shape.Dims(i);
 4753              		.loc 2 50 0
 4754 0348 0C7093E5 		ldr	r7, [r3, #12]
 4755 034c 070056E1 		cmp	r6, r7
 4756 0350 69FFFF1A 		bne	.L441
  49:C:/Renesas/e2studio_2021_01_workspace_RZA2M_ANPR/ANPR_RZA2M_GR_MANGO/src/tensorflow_lite/src/tensorflow/lite/kernels/internal/reference\arg_min_max.h ****     TFLITE_DCHECK_EQ(input1_shape.Dims(i), output_shape.Dims(i));
 4757              		.loc 2 49 0
 4758 0354 030052E3 		cmp	r2, #3
  51:C:/Renesas/e2studio_2021_01_workspace_RZA2M_ANPR/ANPR_RZA2M_GR_MANGO/src/tensorflow_lite/src/tensorflow/lite/kernels/internal/reference\arg_min_max.h ****   }
 4759              		.loc 2 51 0
 4760 0358 960909E0 		mul	r9, r6, r9
 4761              	.LVL601:
  49:C:/Renesas/e2studio_2021_01_workspace_RZA2M_ANPR/ANPR_RZA2M_GR_MANGO/src/tensorflow_lite/src/tensorflow/lite/kernels/internal/reference\arg_min_max.h ****     TFLITE_DCHECK_EQ(input1_shape.Dims(i), output_shape.Dims(i));
 4762              		.loc 2 49 0
 4763 035c 1100000A 		beq	.L452
 4764              	.LVL602:
 4765              	.LBB1002:
 4766              	.LBB946:
 215:C:/Renesas/e2studio_2021_01_workspace_RZA2M_ANPR/ANPR_RZA2M_GR_MANGO/src/tensorflow_lite/src/tensorflow/lite/kernels/internal\types.h ****     return size_ > kMaxSmallSize ? dims_pointer_[i] : dims_[i];
 4767              		.loc 3 215 0
 4768 0360 030054E3 		cmp	r4, #3
 4769              	.LBE946:
 4770              	.LBE1002:
 4771              	.LBB1003:
 4772              	.LBB967:
 4773              		.loc 3 216 0
 4774 0364 0C6095E5 		ldr	r6, [r5, #12]
 4775              	.LVL603:
 4776              	.LBE967:
 4777              	.LBE1003:
 4778              	.LBB1004:
 4779              	.LBB947:
 215:C:/Renesas/e2studio_2021_01_workspace_RZA2M_ANPR/ANPR_RZA2M_GR_MANGO/src/tensorflow_lite/src/tensorflow/lite/kernels/internal\types.h ****     return size_ > kMaxSmallSize ? dims_pointer_[i] : dims_[i];
 4780              		.loc 3 215 0
 4781 0368 63FFFF0A 		beq	.L441
 4782              	.LVL604:
 4783              	.LBE947:
 4784              	.LBE1004:
  50:C:/Renesas/e2studio_2021_01_workspace_RZA2M_ANPR/ANPR_RZA2M_GR_MANGO/src/tensorflow_lite/src/tensorflow/lite/kernels/internal/reference\arg_min_max.h ****     outer_size *= input1_shape.Dims(i);
 4785              		.loc 2 50 0
 4786 036c 107093E5 		ldr	r7, [r3, #16]
 4787 0370 070056E1 		cmp	r6, r7
 4788 0374 60FFFF1A 		bne	.L441
  49:C:/Renesas/e2studio_2021_01_workspace_RZA2M_ANPR/ANPR_RZA2M_GR_MANGO/src/tensorflow_lite/src/tensorflow/lite/kernels/internal/reference\arg_min_max.h ****     TFLITE_DCHECK_EQ(input1_shape.Dims(i), output_shape.Dims(i));
 4789              		.loc 2 49 0
 4790 0378 040052E3 		cmp	r2, #4
  51:C:/Renesas/e2studio_2021_01_workspace_RZA2M_ANPR/ANPR_RZA2M_GR_MANGO/src/tensorflow_lite/src/tensorflow/lite/kernels/internal/reference\arg_min_max.h ****   }
 4791              		.loc 2 51 0
 4792 037c 960909E0 		mul	r9, r6, r9
 4793              	.LVL605:
  49:C:/Renesas/e2studio_2021_01_workspace_RZA2M_ANPR/ANPR_RZA2M_GR_MANGO/src/tensorflow_lite/src/tensorflow/lite/kernels/internal/reference\arg_min_max.h ****     TFLITE_DCHECK_EQ(input1_shape.Dims(i), output_shape.Dims(i));
 4794              		.loc 2 49 0
 4795 0380 0800000A 		beq	.L452
 4796              	.LVL606:
 4797              	.LBB1005:
 4798              	.LBB948:
 215:C:/Renesas/e2studio_2021_01_workspace_RZA2M_ANPR/ANPR_RZA2M_GR_MANGO/src/tensorflow_lite/src/tensorflow/lite/kernels/internal\types.h ****     return size_ > kMaxSmallSize ? dims_pointer_[i] : dims_[i];
 4799              		.loc 3 215 0
 4800 0384 050054E3 		cmp	r4, #5
 4801              	.LBE948:
 4802              	.LBE1005:
 4803              	.LBB1006:
 4804              	.LBB968:
 4805              		.loc 3 216 0
 4806 0388 105095E5 		ldr	r5, [r5, #16]
 4807              	.LVL607:
 4808              	.LBE968:
 4809              	.LBE1006:
 4810              	.LBB1007:
 4811              	.LBB949:
 215:C:/Renesas/e2studio_2021_01_workspace_RZA2M_ANPR/ANPR_RZA2M_GR_MANGO/src/tensorflow_lite/src/tensorflow/lite/kernels/internal\types.h ****     return size_ > kMaxSmallSize ? dims_pointer_[i] : dims_[i];
 4812              		.loc 3 215 0
 4813 038c 5AFFFF1A 		bne	.L441
 4814              	.LVL608:
 4815              	.LBE949:
 4816              	.LBE1007:
  50:C:/Renesas/e2studio_2021_01_workspace_RZA2M_ANPR/ANPR_RZA2M_GR_MANGO/src/tensorflow_lite/src/tensorflow/lite/kernels/internal/reference\arg_min_max.h ****     outer_size *= input1_shape.Dims(i);
 4817              		.loc 2 50 0
 4818 0390 146093E5 		ldr	r6, [r3, #20]
 4819 0394 060055E1 		cmp	r5, r6
 4820 0398 57FFFF1A 		bne	.L441
  49:C:/Renesas/e2studio_2021_01_workspace_RZA2M_ANPR/ANPR_RZA2M_GR_MANGO/src/tensorflow_lite/src/tensorflow/lite/kernels/internal/reference\arg_min_max.h ****     TFLITE_DCHECK_EQ(input1_shape.Dims(i), output_shape.Dims(i));
 4821              		.loc 2 49 0
 4822 039c 050052E3 		cmp	r2, #5
  51:C:/Renesas/e2studio_2021_01_workspace_RZA2M_ANPR/ANPR_RZA2M_GR_MANGO/src/tensorflow_lite/src/tensorflow/lite/kernels/internal/reference\arg_min_max.h ****   }
 4823              		.loc 2 51 0
 4824 03a0 950909E0 		mul	r9, r5, r9
 4825              	.LVL609:
  49:C:/Renesas/e2studio_2021_01_workspace_RZA2M_ANPR/ANPR_RZA2M_GR_MANGO/src/tensorflow_lite/src/tensorflow/lite/kernels/internal/reference\arg_min_max.h ****     TFLITE_DCHECK_EQ(input1_shape.Dims(i), output_shape.Dims(i));
 4826              		.loc 2 49 0
 4827 03a4 54FFFF1A 		bne	.L441
 4828              	.LVL610:
 4829              	.L452:
 4830              	.LBE1128:
 4831              	.LBB1129:
  56:C:/Renesas/e2studio_2021_01_workspace_RZA2M_ANPR/ANPR_RZA2M_GR_MANGO/src/tensorflow_lite/src/tensorflow/lite/kernels/internal/reference\arg_min_max.h ****     TFLITE_DCHECK_EQ(input1_shape.Dims(i), output_shape.Dims(i - 1));
 4832              		.loc 2 56 0
 4833 03a8 012082E2 		add	r2, r2, #1
 4834              	.LVL611:
 4835 03ac 0C0052E1 		cmp	r2, ip
 4836 03b0 660000AA 		bge	.L485
 4837              	.LVL612:
 4838              	.L470:
 4839 03b4 040090E5 		ldr	r0, [r0, #4]
 4840              	.LVL613:
  57:C:/Renesas/e2studio_2021_01_workspace_RZA2M_ANPR/ANPR_RZA2M_GR_MANGO/src/tensorflow_lite/src/tensorflow/lite/kernels/internal/reference\arg_min_max.h ****     inner_size *= input1_shape.Dims(i);
 4841              		.loc 2 57 0
 4842 03b8 015042E2 		sub	r5, r2, #1
 4843              	.LBB1081:
 4844              	.LBB1047:
 215:C:/Renesas/e2studio_2021_01_workspace_RZA2M_ANPR/ANPR_RZA2M_GR_MANGO/src/tensorflow_lite/src/tensorflow/lite/kernels/internal\types.h ****     return size_ > kMaxSmallSize ? dims_pointer_[i] : dims_[i];
 4845              		.loc 3 215 0
 4846 03bc 050054E1 		cmp	r4, r5
 4847              	.LBE1047:
 4848              	.LBE1081:
 4849              	.LBB1082:
 4850              	.LBB1024:
 4851              		.loc 3 216 0
 4852 03c0 0261A0E1 		lsl	r6, r2, #2
 4853 03c4 028190E7 		ldr	r8, [r0, r2, lsl #2]
 4854              	.LVL614:
 4855              	.LBE1024:
 4856              	.LBE1082:
 4857              	.LBB1083:
 4858              	.LBB1048:
 215:C:/Renesas/e2studio_2021_01_workspace_RZA2M_ANPR/ANPR_RZA2M_GR_MANGO/src/tensorflow_lite/src/tensorflow/lite/kernels/internal\types.h ****     return size_ > kMaxSmallSize ? dims_pointer_[i] : dims_[i];
 4859              		.loc 3 215 0
 4860 03c8 4BFFFFDA 		ble	.L441
 4861              		.loc 3 216 0
 4862 03cc 055183E0 		add	r5, r3, r5, lsl #2
 4863              	.LVL615:
 4864 03d0 045095E5 		ldr	r5, [r5, #4]
 4865              	.LVL616:
 4866              	.LBE1048:
 4867              	.LBE1083:
  57:C:/Renesas/e2studio_2021_01_workspace_RZA2M_ANPR/ANPR_RZA2M_GR_MANGO/src/tensorflow_lite/src/tensorflow/lite/kernels/internal/reference\arg_min_max.h ****     inner_size *= input1_shape.Dims(i);
 4868              		.loc 2 57 0
 4869 03d4 050058E1 		cmp	r8, r5
 4870 03d8 47FFFF1A 		bne	.L441
 4871              	.LVL617:
  56:C:/Renesas/e2studio_2021_01_workspace_RZA2M_ANPR/ANPR_RZA2M_GR_MANGO/src/tensorflow_lite/src/tensorflow/lite/kernels/internal/reference\arg_min_max.h ****     TFLITE_DCHECK_EQ(input1_shape.Dims(i), output_shape.Dims(i - 1));
 4872              		.loc 2 56 0
 4873 03dc 015082E2 		add	r5, r2, #1
 4874              	.LVL618:
 4875 03e0 05005CE1 		cmp	ip, r5
 4876 03e4 96FFFFDA 		ble	.L461
 4877              	.LVL619:
 4878              	.LBB1084:
 4879              	.LBB1049:
 215:C:/Renesas/e2studio_2021_01_workspace_RZA2M_ANPR/ANPR_RZA2M_GR_MANGO/src/tensorflow_lite/src/tensorflow/lite/kernels/internal\types.h ****     return size_ > kMaxSmallSize ? dims_pointer_[i] : dims_[i];
 4880              		.loc 3 215 0
 4881 03e8 020054E1 		cmp	r4, r2
 4882              	.LBE1049:
 4883              	.LBE1084:
 4884              	.LBB1085:
 4885              	.LBB1025:
 4886              		.loc 3 216 0
 4887 03ec 060080E0 		add	r0, r0, r6
 4888 03f0 047090E5 		ldr	r7, [r0, #4]
 4889              	.LVL620:
 4890              	.LBE1025:
 4891              	.LBE1085:
 4892              	.LBB1086:
 4893              	.LBB1050:
 215:C:/Renesas/e2studio_2021_01_workspace_RZA2M_ANPR/ANPR_RZA2M_GR_MANGO/src/tensorflow_lite/src/tensorflow/lite/kernels/internal\types.h ****     return size_ > kMaxSmallSize ? dims_pointer_[i] : dims_[i];
 4894              		.loc 3 215 0
 4895 03f4 40FFFFDA 		ble	.L441
 4896              		.loc 3 216 0
 4897 03f8 066083E0 		add	r6, r3, r6
 4898 03fc 046096E5 		ldr	r6, [r6, #4]
 4899              	.LVL621:
 4900              	.LBE1050:
 4901              	.LBE1086:
  57:C:/Renesas/e2studio_2021_01_workspace_RZA2M_ANPR/ANPR_RZA2M_GR_MANGO/src/tensorflow_lite/src/tensorflow/lite/kernels/internal/reference\arg_min_max.h ****     inner_size *= input1_shape.Dims(i);
 4902              		.loc 2 57 0
 4903 0400 060057E1 		cmp	r7, r6
 4904 0404 3CFFFF1A 		bne	.L441
  56:C:/Renesas/e2studio_2021_01_workspace_RZA2M_ANPR/ANPR_RZA2M_GR_MANGO/src/tensorflow_lite/src/tensorflow/lite/kernels/internal/reference\arg_min_max.h ****     TFLITE_DCHECK_EQ(input1_shape.Dims(i), output_shape.Dims(i - 1));
 4905              		.loc 2 56 0
 4906 0408 026082E2 		add	r6, r2, #2
  58:C:/Renesas/e2studio_2021_01_workspace_RZA2M_ANPR/ANPR_RZA2M_GR_MANGO/src/tensorflow_lite/src/tensorflow/lite/kernels/internal/reference\arg_min_max.h ****   }
 4907              		.loc 2 58 0
 4908 040c 970808E0 		mul	r8, r7, r8
 4909              	.LVL622:
  56:C:/Renesas/e2studio_2021_01_workspace_RZA2M_ANPR/ANPR_RZA2M_GR_MANGO/src/tensorflow_lite/src/tensorflow/lite/kernels/internal/reference\arg_min_max.h ****     TFLITE_DCHECK_EQ(input1_shape.Dims(i), output_shape.Dims(i - 1));
 4910              		.loc 2 56 0
 4911 0410 06005CE1 		cmp	ip, r6
 4912 0414 8AFFFFDA 		ble	.L461
 4913              	.LVL623:
 4914              	.LBB1087:
 4915              	.LBB1051:
 215:C:/Renesas/e2studio_2021_01_workspace_RZA2M_ANPR/ANPR_RZA2M_GR_MANGO/src/tensorflow_lite/src/tensorflow/lite/kernels/internal\types.h ****     return size_ > kMaxSmallSize ? dims_pointer_[i] : dims_[i];
 4916              		.loc 3 215 0
 4917 0418 050054E1 		cmp	r4, r5
 4918              	.LBE1051:
 4919              	.LBE1087:
 4920              	.LBB1088:
 4921              	.LBB1026:
 4922              		.loc 3 216 0
 4923 041c 087090E5 		ldr	r7, [r0, #8]
 4924              	.LVL624:
 4925              	.LBE1026:
 4926              	.LBE1088:
 4927              	.LBB1089:
 4928              	.LBB1052:
 215:C:/Renesas/e2studio_2021_01_workspace_RZA2M_ANPR/ANPR_RZA2M_GR_MANGO/src/tensorflow_lite/src/tensorflow/lite/kernels/internal\types.h ****     return size_ > kMaxSmallSize ? dims_pointer_[i] : dims_[i];
 4929              		.loc 3 215 0
 4930 0420 35FFFFDA 		ble	.L441
 4931              		.loc 3 216 0
 4932 0424 055183E0 		add	r5, r3, r5, lsl #2
 4933              	.LVL625:
 4934 0428 045095E5 		ldr	r5, [r5, #4]
 4935              	.LVL626:
 4936              	.LBE1052:
 4937              	.LBE1089:
  57:C:/Renesas/e2studio_2021_01_workspace_RZA2M_ANPR/ANPR_RZA2M_GR_MANGO/src/tensorflow_lite/src/tensorflow/lite/kernels/internal/reference\arg_min_max.h ****     inner_size *= input1_shape.Dims(i);
 4938              		.loc 2 57 0
 4939 042c 050057E1 		cmp	r7, r5
 4940 0430 31FFFF1A 		bne	.L441
 4941              	.LVL627:
  56:C:/Renesas/e2studio_2021_01_workspace_RZA2M_ANPR/ANPR_RZA2M_GR_MANGO/src/tensorflow_lite/src/tensorflow/lite/kernels/internal/reference\arg_min_max.h ****     TFLITE_DCHECK_EQ(input1_shape.Dims(i), output_shape.Dims(i - 1));
 4942              		.loc 2 56 0
 4943 0434 035082E2 		add	r5, r2, #3
  58:C:/Renesas/e2studio_2021_01_workspace_RZA2M_ANPR/ANPR_RZA2M_GR_MANGO/src/tensorflow_lite/src/tensorflow/lite/kernels/internal/reference\arg_min_max.h ****   }
 4944              		.loc 2 58 0
 4945 0438 970808E0 		mul	r8, r7, r8
 4946              	.LVL628:
  56:C:/Renesas/e2studio_2021_01_workspace_RZA2M_ANPR/ANPR_RZA2M_GR_MANGO/src/tensorflow_lite/src/tensorflow/lite/kernels/internal/reference\arg_min_max.h ****     TFLITE_DCHECK_EQ(input1_shape.Dims(i), output_shape.Dims(i - 1));
 4947              		.loc 2 56 0
 4948 043c 05005CE1 		cmp	ip, r5
 4949 0440 7FFFFFDA 		ble	.L461
 4950              	.LVL629:
 4951              	.LBB1090:
 4952              	.LBB1053:
 215:C:/Renesas/e2studio_2021_01_workspace_RZA2M_ANPR/ANPR_RZA2M_GR_MANGO/src/tensorflow_lite/src/tensorflow/lite/kernels/internal\types.h ****     return size_ > kMaxSmallSize ? dims_pointer_[i] : dims_[i];
 4953              		.loc 3 215 0
 4954 0444 060054E1 		cmp	r4, r6
 4955              	.LBE1053:
 4956              	.LBE1090:
 4957              	.LBB1091:
 4958              	.LBB1027:
 4959              		.loc 3 216 0
 4960 0448 0C7090E5 		ldr	r7, [r0, #12]
 4961              	.LVL630:
 4962              	.LBE1027:
 4963              	.LBE1091:
 4964              	.LBB1092:
 4965              	.LBB1054:
 215:C:/Renesas/e2studio_2021_01_workspace_RZA2M_ANPR/ANPR_RZA2M_GR_MANGO/src/tensorflow_lite/src/tensorflow/lite/kernels/internal\types.h ****     return size_ > kMaxSmallSize ? dims_pointer_[i] : dims_[i];
 4966              		.loc 3 215 0
 4967 044c 2AFFFFDA 		ble	.L441
 4968              		.loc 3 216 0
 4969 0450 066183E0 		add	r6, r3, r6, lsl #2
 4970              	.LVL631:
 4971 0454 046096E5 		ldr	r6, [r6, #4]
 4972              	.LVL632:
 4973              	.LBE1054:
 4974              	.LBE1092:
  57:C:/Renesas/e2studio_2021_01_workspace_RZA2M_ANPR/ANPR_RZA2M_GR_MANGO/src/tensorflow_lite/src/tensorflow/lite/kernels/internal/reference\arg_min_max.h ****     inner_size *= input1_shape.Dims(i);
 4975              		.loc 2 57 0
 4976 0458 060057E1 		cmp	r7, r6
 4977 045c 26FFFF1A 		bne	.L441
 4978              	.LVL633:
  56:C:/Renesas/e2studio_2021_01_workspace_RZA2M_ANPR/ANPR_RZA2M_GR_MANGO/src/tensorflow_lite/src/tensorflow/lite/kernels/internal/reference\arg_min_max.h ****     TFLITE_DCHECK_EQ(input1_shape.Dims(i), output_shape.Dims(i - 1));
 4979              		.loc 2 56 0
 4980 0460 042082E2 		add	r2, r2, #4
  58:C:/Renesas/e2studio_2021_01_workspace_RZA2M_ANPR/ANPR_RZA2M_GR_MANGO/src/tensorflow_lite/src/tensorflow/lite/kernels/internal/reference\arg_min_max.h ****   }
 4981              		.loc 2 58 0
 4982 0464 970808E0 		mul	r8, r7, r8
 4983              	.LVL634:
  56:C:/Renesas/e2studio_2021_01_workspace_RZA2M_ANPR/ANPR_RZA2M_GR_MANGO/src/tensorflow_lite/src/tensorflow/lite/kernels/internal/reference\arg_min_max.h ****     TFLITE_DCHECK_EQ(input1_shape.Dims(i), output_shape.Dims(i - 1));
 4984              		.loc 2 56 0
 4985 0468 02005CE1 		cmp	ip, r2
 4986 046c 74FFFFDA 		ble	.L461
 4987              	.LVL635:
 4988              	.LBB1093:
 4989              	.LBB1055:
 215:C:/Renesas/e2studio_2021_01_workspace_RZA2M_ANPR/ANPR_RZA2M_GR_MANGO/src/tensorflow_lite/src/tensorflow/lite/kernels/internal\types.h ****     return size_ > kMaxSmallSize ? dims_pointer_[i] : dims_[i];
 4990              		.loc 3 215 0
 4991 0470 040055E1 		cmp	r5, r4
 4992              	.LBE1055:
 4993              	.LBE1093:
 4994              	.LBB1094:
 4995              	.LBB1028:
 4996              		.loc 3 216 0
 4997 0474 102090E5 		ldr	r2, [r0, #16]
 4998              	.LVL636:
 4999              	.LBE1028:
 5000              	.LBE1094:
 5001              	.LBB1095:
 5002              	.LBB1056:
 215:C:/Renesas/e2studio_2021_01_workspace_RZA2M_ANPR/ANPR_RZA2M_GR_MANGO/src/tensorflow_lite/src/tensorflow/lite/kernels/internal\types.h ****     return size_ > kMaxSmallSize ? dims_pointer_[i] : dims_[i];
 5003              		.loc 3 215 0
 5004 0478 1FFFFFAA 		bge	.L441
 5005              		.loc 3 216 0
 5006 047c 053183E0 		add	r3, r3, r5, lsl #2
 5007              	.LVL637:
 5008 0480 043093E5 		ldr	r3, [r3, #4]
 5009              	.LVL638:
 5010              	.LBE1056:
 5011              	.LBE1095:
  57:C:/Renesas/e2studio_2021_01_workspace_RZA2M_ANPR/ANPR_RZA2M_GR_MANGO/src/tensorflow_lite/src/tensorflow/lite/kernels/internal/reference\arg_min_max.h ****     inner_size *= input1_shape.Dims(i);
 5012              		.loc 2 57 0
 5013 0484 020053E1 		cmp	r3, r2
 5014 0488 1BFFFF1A 		bne	.L441
 5015              	.LVL639:
  58:C:/Renesas/e2studio_2021_01_workspace_RZA2M_ANPR/ANPR_RZA2M_GR_MANGO/src/tensorflow_lite/src/tensorflow/lite/kernels/internal/reference\arg_min_max.h ****   }
 5016              		.loc 2 58 0
 5017 048c 930808E0 		mul	r8, r3, r8
 5018              	.LVL640:
 5019 0490 6BFFFFEA 		b	.L461
 5020              	.LVL641:
 5021              	.L578:
 5022              	.LBE1129:
 5023              	.LBB1130:
 5024              	.LBB924:
 214:C:/Renesas/e2studio_2021_01_workspace_RZA2M_ANPR/ANPR_RZA2M_GR_MANGO/src/tensorflow_lite/src/tensorflow/lite/kernels/internal\types.h ****     TFLITE_DCHECK_LT(i, size_);
 5025              		.loc 3 214 0
 5026 0494 0C2092E0 		adds	r2, r2, ip
 5027              	.LVL642:
 5028 0498 E4FEFF5A 		bpl	.L442
 5029 049c 16FFFFEA 		b	.L441
 5030              	.LVL643:
 5031              	.L451:
 5032 04a0 046045E2 		sub	r6, r5, #4
 5033              	.LBE924:
 5034              	.LBE1130:
 5035              	.LBB1131:
  49:C:/Renesas/e2studio_2021_01_workspace_RZA2M_ANPR/ANPR_RZA2M_GR_MANGO/src/tensorflow_lite/src/tensorflow/lite/kernels/internal/reference\arg_min_max.h ****     TFLITE_DCHECK_EQ(input1_shape.Dims(i), output_shape.Dims(i));
 5036              		.loc 2 49 0
 5037 04a4 0190A0E3 		mov	r9, #1
 5038 04a8 0050A0E3 		mov	r5, #0
 5039 04ac 010000EA 		b	.L447
 5040              	.LVL644:
 5041              	.L571:
 5042              	.LBB1008:
 5043              	.LBB969:
 215:C:/Renesas/e2studio_2021_01_workspace_RZA2M_ANPR/ANPR_RZA2M_GR_MANGO/src/tensorflow_lite/src/tensorflow/lite/kernels/internal\types.h ****     return size_ > kMaxSmallSize ? dims_pointer_[i] : dims_[i];
 5044              		.loc 3 215 0
 5045 04b0 0C0055E1 		cmp	r5, ip
 5046 04b4 10FFFF0A 		beq	.L441
 5047              	.LVL645:
 5048              	.L447:
 5049              	.LBE969:
 5050              	.LBE1008:
 5051              	.LBB1009:
 5052              	.LBB950:
 5053 04b8 040055E1 		cmp	r5, r4
 5054              	.LBE950:
 5055              	.LBE1009:
 5056              	.LBB1010:
 5057              	.LBB970:
 5058              		.loc 3 216 0
 5059 04bc 0480B6E5 		ldr	r8, [r6, #4]!
 5060              	.LVL646:
 5061              	.LBE970:
 5062              	.LBE1010:
 5063              	.LBB1011:
 5064              	.LBB951:
 215:C:/Renesas/e2studio_2021_01_workspace_RZA2M_ANPR/ANPR_RZA2M_GR_MANGO/src/tensorflow_lite/src/tensorflow/lite/kernels/internal\types.h ****     return size_ > kMaxSmallSize ? dims_pointer_[i] : dims_[i];
 5065              		.loc 3 215 0
 5066 04c0 0DFFFF0A 		beq	.L441
 5067              		.loc 3 216 0
 5068 04c4 047093E5 		ldr	r7, [r3, #4]
 5069 04c8 057197E7 		ldr	r7, [r7, r5, lsl #2]
 5070              	.LVL647:
 5071              	.LBE951:
 5072              	.LBE1011:
  50:C:/Renesas/e2studio_2021_01_workspace_RZA2M_ANPR/ANPR_RZA2M_GR_MANGO/src/tensorflow_lite/src/tensorflow/lite/kernels/internal/reference\arg_min_max.h ****     outer_size *= input1_shape.Dims(i);
 5073              		.loc 2 50 0
 5074 04cc 080057E1 		cmp	r7, r8
 5075 04d0 09FFFF1A 		bne	.L441
  49:C:/Renesas/e2studio_2021_01_workspace_RZA2M_ANPR/ANPR_RZA2M_GR_MANGO/src/tensorflow_lite/src/tensorflow/lite/kernels/internal/reference\arg_min_max.h ****     TFLITE_DCHECK_EQ(input1_shape.Dims(i), output_shape.Dims(i));
 5076              		.loc 2 49 0
 5077 04d4 015085E2 		add	r5, r5, #1
 5078              	.LVL648:
  51:C:/Renesas/e2studio_2021_01_workspace_RZA2M_ANPR/ANPR_RZA2M_GR_MANGO/src/tensorflow_lite/src/tensorflow/lite/kernels/internal/reference\arg_min_max.h ****   }
 5079              		.loc 2 51 0
 5080 04d8 970909E0 		mul	r9, r7, r9
 5081              	.LVL649:
  49:C:/Renesas/e2studio_2021_01_workspace_RZA2M_ANPR/ANPR_RZA2M_GR_MANGO/src/tensorflow_lite/src/tensorflow/lite/kernels/internal/reference\arg_min_max.h ****     TFLITE_DCHECK_EQ(input1_shape.Dims(i), output_shape.Dims(i));
 5082              		.loc 2 49 0
 5083 04dc 020055E1 		cmp	r5, r2
 5084 04e0 F2FFFF1A 		bne	.L571
 5085              	.LVL650:
 5086              	.LBE1131:
 5087              	.LBB1132:
  56:C:/Renesas/e2studio_2021_01_workspace_RZA2M_ANPR/ANPR_RZA2M_GR_MANGO/src/tensorflow_lite/src/tensorflow/lite/kernels/internal/reference\arg_min_max.h ****     TFLITE_DCHECK_EQ(input1_shape.Dims(i), output_shape.Dims(i - 1));
 5088              		.loc 2 56 0
 5089 04e4 012085E2 		add	r2, r5, #1
 5090              	.LVL651:
 5091 04e8 0C0052E1 		cmp	r2, ip
 5092 04ec 170000AA 		bge	.L485
 5093              	.LVL652:
 5094              	.L459:
 5095 04f0 040090E5 		ldr	r0, [r0, #4]
 5096              	.LVL653:
 5097              	.LBB1096:
 5098              	.LBB1057:
 5099              		.loc 3 216 0
 5100 04f4 0760E0E3 		mvn	r6, #7
 5101              	.LBE1057:
 5102              	.LBE1096:
 5103              	.LBE1132:
  48:C:/Renesas/e2studio_2021_01_workspace_RZA2M_ANPR/ANPR_RZA2M_GR_MANGO/src/tensorflow_lite/src/tensorflow/lite/kernels/internal/reference\arg_min_max.h ****   for (int i = 0; i < axis; ++i) {
 5104              		.loc 2 48 0
 5105 04f8 0180A0E3 		mov	r8, #1
 5106              	.LBB1133:
 5107              	.LBB1097:
 5108              	.LBB1058:
 5109              		.loc 3 216 0
 5110 04fc 006046E0 		sub	r6, r6, r0
 5111 0500 020180E0 		add	r0, r0, r2, lsl #2
 5112              	.LVL654:
 5113              	.L460:
 215:C:/Renesas/e2studio_2021_01_workspace_RZA2M_ANPR/ANPR_RZA2M_GR_MANGO/src/tensorflow_lite/src/tensorflow/lite/kernels/internal\types.h ****     return size_ > kMaxSmallSize ? dims_pointer_[i] : dims_[i];
 5114              		.loc 3 215 0
 5115 0504 015042E2 		sub	r5, r2, #1
 5116              	.LBE1058:
 5117              	.LBE1097:
 5118              	.LBB1098:
 5119              	.LBB1029:
 5120              		.loc 3 216 0
 5121 0508 047090E4 		ldr	r7, [r0], #4
 5122              	.LVL655:
 5123              	.LBE1029:
 5124              	.LBE1098:
 5125              	.LBB1099:
 5126              	.LBB1059:
 215:C:/Renesas/e2studio_2021_01_workspace_RZA2M_ANPR/ANPR_RZA2M_GR_MANGO/src/tensorflow_lite/src/tensorflow/lite/kernels/internal\types.h ****     return size_ > kMaxSmallSize ? dims_pointer_[i] : dims_[i];
 5127              		.loc 3 215 0
 5128 050c 050054E1 		cmp	r4, r5
 5129 0510 F9FEFFDA 		ble	.L441
 5130              		.loc 3 216 0
 5131 0514 045093E5 		ldr	r5, [r3, #4]
 5132              	.LVL656:
 5133 0518 005085E0 		add	r5, r5, r0
 5134 051c 065095E7 		ldr	r5, [r5, r6]
 5135              	.LVL657:
 5136              	.LBE1059:
 5137              	.LBE1099:
  57:C:/Renesas/e2studio_2021_01_workspace_RZA2M_ANPR/ANPR_RZA2M_GR_MANGO/src/tensorflow_lite/src/tensorflow/lite/kernels/internal/reference\arg_min_max.h ****     inner_size *= input1_shape.Dims(i);
 5138              		.loc 2 57 0
 5139 0520 070055E1 		cmp	r5, r7
 5140 0524 F4FEFF1A 		bne	.L441
 5141              	.LVL658:
  56:C:/Renesas/e2studio_2021_01_workspace_RZA2M_ANPR/ANPR_RZA2M_GR_MANGO/src/tensorflow_lite/src/tensorflow/lite/kernels/internal/reference\arg_min_max.h ****     TFLITE_DCHECK_EQ(input1_shape.Dims(i), output_shape.Dims(i - 1));
 5142              		.loc 2 56 0
 5143 0528 012082E2 		add	r2, r2, #1
 5144              	.LVL659:
  58:C:/Renesas/e2studio_2021_01_workspace_RZA2M_ANPR/ANPR_RZA2M_GR_MANGO/src/tensorflow_lite/src/tensorflow/lite/kernels/internal/reference\arg_min_max.h ****   }
 5145              		.loc 2 58 0
 5146 052c 950808E0 		mul	r8, r5, r8
 5147              	.LVL660:
  56:C:/Renesas/e2studio_2021_01_workspace_RZA2M_ANPR/ANPR_RZA2M_GR_MANGO/src/tensorflow_lite/src/tensorflow/lite/kernels/internal/reference\arg_min_max.h ****     TFLITE_DCHECK_EQ(input1_shape.Dims(i), output_shape.Dims(i - 1));
 5148              		.loc 2 56 0
 5149 0530 0C0052E1 		cmp	r2, ip
 5150 0534 F2FFFFBA 		blt	.L460
 5151 0538 41FFFFEA 		b	.L461
 5152              	.LVL661:
 5153              	.L480:
 5154              	.LBE1133:
 5155              	.LBB1134:
 5156              	.LBB1123:
  61:C:/Renesas/e2studio_2021_01_workspace_RZA2M_ANPR/ANPR_RZA2M_GR_MANGO/src/tensorflow_lite/src/tensorflow/lite/kernels/internal/reference\arg_min_max.h ****       auto min_max_value = input1_data[outer * axis_size * inner_size + inner];
 5157              		.loc 2 61 0
 5158 053c 060054E1 		cmp	r4, r6
 5159              	.LBB1122:
  63:C:/Renesas/e2studio_2021_01_workspace_RZA2M_ANPR/ANPR_RZA2M_GR_MANGO/src/tensorflow_lite/src/tensorflow/lite/kernels/internal/reference\arg_min_max.h ****       for (int i = 1; i < axis_size; ++i) {
 5160              		.loc 2 63 0
 5161 0540 0000A0E3 		mov	r0, #0
  72:C:/Renesas/e2studio_2021_01_workspace_RZA2M_ANPR/ANPR_RZA2M_GR_MANGO/src/tensorflow_lite/src/tensorflow/lite/kernels/internal/reference\arg_min_max.h ****     }
 5162              		.loc 2 72 0
 5163 0544 040085E4 		str	r0, [r5], #4
 5164              	.LVL662:
 5165              	.LBE1122:
  61:C:/Renesas/e2studio_2021_01_workspace_RZA2M_ANPR/ANPR_RZA2M_GR_MANGO/src/tensorflow_lite/src/tensorflow/lite/kernels/internal/reference\arg_min_max.h ****       auto min_max_value = input1_data[outer * axis_size * inner_size + inner];
 5166              		.loc 2 61 0
 5167 0548 4BFFFF1A 		bne	.L463
 5168 054c 5AFFFFEA 		b	.L580
 5169              	.LVL663:
 5170              	.L485:
 5171              	.LBE1123:
 5172              	.LBE1134:
  54:C:/Renesas/e2studio_2021_01_workspace_RZA2M_ANPR/ANPR_RZA2M_GR_MANGO/src/tensorflow_lite/src/tensorflow/lite/kernels/internal/reference\arg_min_max.h ****   const int dims_count = input1_shape.DimensionsCount();
 5173              		.loc 2 54 0
 5174 0550 0180A0E3 		mov	r8, #1
 5175 0554 3AFFFFEA 		b	.L461
 5176              	.LVL664:
 5177              	.L449:
 5178              	.LBB1135:
  56:C:/Renesas/e2studio_2021_01_workspace_RZA2M_ANPR/ANPR_RZA2M_GR_MANGO/src/tensorflow_lite/src/tensorflow/lite/kernels/internal/reference\arg_min_max.h ****     TFLITE_DCHECK_EQ(input1_shape.Dims(i), output_shape.Dims(i - 1));
 5179              		.loc 2 56 0
 5180 0558 012082E2 		add	r2, r2, #1
 5181              	.LVL665:
 5182 055c 02005CE1 		cmp	ip, r2
 5183 0560 FAFFFFDA 		ble	.L485
 5184              	.LVL666:
 5185              	.L471:
 5186              	.LBB1100:
 5187              	.LBB1030:
 5188              		.loc 3 216 0
 5189 0564 0251A0E1 		lsl	r5, r2, #2
 5190              	.LBE1030:
 5191              	.LBE1100:
  57:C:/Renesas/e2studio_2021_01_workspace_RZA2M_ANPR/ANPR_RZA2M_GR_MANGO/src/tensorflow_lite/src/tensorflow/lite/kernels/internal/reference\arg_min_max.h ****     inner_size *= input1_shape.Dims(i);
 5192              		.loc 2 57 0
 5193 0568 016042E2 		sub	r6, r2, #1
 5194              	.LBB1101:
 5195              	.LBB1060:
 215:C:/Renesas/e2studio_2021_01_workspace_RZA2M_ANPR/ANPR_RZA2M_GR_MANGO/src/tensorflow_lite/src/tensorflow/lite/kernels/internal\types.h ****     return size_ > kMaxSmallSize ? dims_pointer_[i] : dims_[i];
 5196              		.loc 3 215 0
 5197 056c 060054E1 		cmp	r4, r6
 5198              	.LBE1060:
 5199              	.LBE1101:
 5200              	.LBB1102:
 5201              	.LBB1031:
 5202              		.loc 3 216 0
 5203 0570 057080E0 		add	r7, r0, r5
 5204 0574 047097E5 		ldr	r7, [r7, #4]
 5205              	.LVL667:
 5206              	.LBE1031:
 5207              	.LBE1102:
 5208              	.LBB1103:
 5209              	.LBB1061:
 215:C:/Renesas/e2studio_2021_01_workspace_RZA2M_ANPR/ANPR_RZA2M_GR_MANGO/src/tensorflow_lite/src/tensorflow/lite/kernels/internal\types.h ****     return size_ > kMaxSmallSize ? dims_pointer_[i] : dims_[i];
 5210              		.loc 3 215 0
 5211 0578 DFFEFFDA 		ble	.L441
 5212              		.loc 3 216 0
 5213 057c 066183E0 		add	r6, r3, r6, lsl #2
 5214              	.LVL668:
 5215 0580 048096E5 		ldr	r8, [r6, #4]
 5216              	.LVL669:
 5217              	.LBE1061:
 5218              	.LBE1103:
  57:C:/Renesas/e2studio_2021_01_workspace_RZA2M_ANPR/ANPR_RZA2M_GR_MANGO/src/tensorflow_lite/src/tensorflow/lite/kernels/internal/reference\arg_min_max.h ****     inner_size *= input1_shape.Dims(i);
 5219              		.loc 2 57 0
 5220 0584 070058E1 		cmp	r8, r7
 5221 0588 DBFEFF1A 		bne	.L441
 5222              	.LVL670:
  56:C:/Renesas/e2studio_2021_01_workspace_RZA2M_ANPR/ANPR_RZA2M_GR_MANGO/src/tensorflow_lite/src/tensorflow/lite/kernels/internal/reference\arg_min_max.h ****     TFLITE_DCHECK_EQ(input1_shape.Dims(i), output_shape.Dims(i - 1));
 5223              		.loc 2 56 0
 5224 058c 01A082E2 		add	r10, r2, #1
 5225              	.LVL671:
 5226 0590 0A005CE1 		cmp	ip, r10
 5227 0594 2AFFFFDA 		ble	.L461
 5228              	.LVL672:
 5229              	.LBB1104:
 5230              	.LBB1032:
 5231              		.loc 3 216 0
 5232 0598 0A61A0E1 		lsl	r6, r10, #2
 5233              	.LBE1032:
 5234              	.LBE1104:
 5235              	.LBB1105:
 5236              	.LBB1062:
 215:C:/Renesas/e2studio_2021_01_workspace_RZA2M_ANPR/ANPR_RZA2M_GR_MANGO/src/tensorflow_lite/src/tensorflow/lite/kernels/internal\types.h ****     return size_ > kMaxSmallSize ? dims_pointer_[i] : dims_[i];
 5237              		.loc 3 215 0
 5238 059c 020054E1 		cmp	r4, r2
 5239              	.LBE1062:
 5240              	.LBE1105:
 5241              	.LBB1106:
 5242              	.LBB1033:
 5243              		.loc 3 216 0
 5244 05a0 067080E0 		add	r7, r0, r6
 5245 05a4 04B097E5 		ldr	fp, [r7, #4]
 5246              	.LVL673:
 5247              	.LBE1033:
 5248              	.LBE1106:
 5249              	.LBB1107:
 5250              	.LBB1063:
 215:C:/Renesas/e2studio_2021_01_workspace_RZA2M_ANPR/ANPR_RZA2M_GR_MANGO/src/tensorflow_lite/src/tensorflow/lite/kernels/internal\types.h ****     return size_ > kMaxSmallSize ? dims_pointer_[i] : dims_[i];
 5251              		.loc 3 215 0
 5252 05a8 D3FEFFDA 		ble	.L441
 5253              		.loc 3 216 0
 5254 05ac 055083E0 		add	r5, r3, r5
 5255 05b0 045095E5 		ldr	r5, [r5, #4]
 5256              	.LVL674:
 5257              	.LBE1063:
 5258              	.LBE1107:
  57:C:/Renesas/e2studio_2021_01_workspace_RZA2M_ANPR/ANPR_RZA2M_GR_MANGO/src/tensorflow_lite/src/tensorflow/lite/kernels/internal/reference\arg_min_max.h ****     inner_size *= input1_shape.Dims(i);
 5259              		.loc 2 57 0
 5260 05b4 05005BE1 		cmp	fp, r5
 5261 05b8 CFFEFF1A 		bne	.L441
  56:C:/Renesas/e2studio_2021_01_workspace_RZA2M_ANPR/ANPR_RZA2M_GR_MANGO/src/tensorflow_lite/src/tensorflow/lite/kernels/internal/reference\arg_min_max.h ****     TFLITE_DCHECK_EQ(input1_shape.Dims(i), output_shape.Dims(i - 1));
 5262              		.loc 2 56 0
 5263 05bc 027082E2 		add	r7, r2, #2
  58:C:/Renesas/e2studio_2021_01_workspace_RZA2M_ANPR/ANPR_RZA2M_GR_MANGO/src/tensorflow_lite/src/tensorflow/lite/kernels/internal/reference\arg_min_max.h ****   }
 5264              		.loc 2 58 0
 5265 05c0 9B0808E0 		mul	r8, fp, r8
 5266              	.LVL675:
  56:C:/Renesas/e2studio_2021_01_workspace_RZA2M_ANPR/ANPR_RZA2M_GR_MANGO/src/tensorflow_lite/src/tensorflow/lite/kernels/internal/reference\arg_min_max.h ****     TFLITE_DCHECK_EQ(input1_shape.Dims(i), output_shape.Dims(i - 1));
 5267              		.loc 2 56 0
 5268 05c4 07005CE1 		cmp	ip, r7
 5269 05c8 1DFFFFDA 		ble	.L461
 5270              	.LVL676:
 5271              	.LBB1108:
 5272              	.LBB1034:
 5273              		.loc 3 216 0
 5274 05cc 0751A0E1 		lsl	r5, r7, #2
 5275              	.LBE1034:
 5276              	.LBE1108:
 5277              	.LBB1109:
 5278              	.LBB1064:
 215:C:/Renesas/e2studio_2021_01_workspace_RZA2M_ANPR/ANPR_RZA2M_GR_MANGO/src/tensorflow_lite/src/tensorflow/lite/kernels/internal\types.h ****     return size_ > kMaxSmallSize ? dims_pointer_[i] : dims_[i];
 5279              		.loc 3 215 0
 5280 05d0 0A0054E1 		cmp	r4, r10
 5281              	.LBE1064:
 5282              	.LBE1109:
 5283              	.LBB1110:
 5284              	.LBB1035:
 5285              		.loc 3 216 0
 5286 05d4 05A080E0 		add	r10, r0, r5
 5287 05d8 04A09AE5 		ldr	r10, [r10, #4]
 5288              	.LVL677:
 5289              	.LBE1035:
 5290              	.LBE1110:
 5291              	.LBB1111:
 5292              	.LBB1065:
 215:C:/Renesas/e2studio_2021_01_workspace_RZA2M_ANPR/ANPR_RZA2M_GR_MANGO/src/tensorflow_lite/src/tensorflow/lite/kernels/internal\types.h ****     return size_ > kMaxSmallSize ? dims_pointer_[i] : dims_[i];
 5293              		.loc 3 215 0
 5294 05dc C6FEFFDA 		ble	.L441
 5295              		.loc 3 216 0
 5296 05e0 066083E0 		add	r6, r3, r6
 5297 05e4 046096E5 		ldr	r6, [r6, #4]
 5298              	.LVL678:
 5299              	.LBE1065:
 5300              	.LBE1111:
  57:C:/Renesas/e2studio_2021_01_workspace_RZA2M_ANPR/ANPR_RZA2M_GR_MANGO/src/tensorflow_lite/src/tensorflow/lite/kernels/internal/reference\arg_min_max.h ****     inner_size *= input1_shape.Dims(i);
 5301              		.loc 2 57 0
 5302 05e8 0A0056E1 		cmp	r6, r10
 5303 05ec C2FEFF1A 		bne	.L441
 5304              	.LVL679:
  56:C:/Renesas/e2studio_2021_01_workspace_RZA2M_ANPR/ANPR_RZA2M_GR_MANGO/src/tensorflow_lite/src/tensorflow/lite/kernels/internal/reference\arg_min_max.h ****     TFLITE_DCHECK_EQ(input1_shape.Dims(i), output_shape.Dims(i - 1));
 5305              		.loc 2 56 0
 5306 05f0 032082E2 		add	r2, r2, #3
  58:C:/Renesas/e2studio_2021_01_workspace_RZA2M_ANPR/ANPR_RZA2M_GR_MANGO/src/tensorflow_lite/src/tensorflow/lite/kernels/internal/reference\arg_min_max.h ****   }
 5307              		.loc 2 58 0
 5308 05f4 960808E0 		mul	r8, r6, r8
 5309              	.LVL680:
  56:C:/Renesas/e2studio_2021_01_workspace_RZA2M_ANPR/ANPR_RZA2M_GR_MANGO/src/tensorflow_lite/src/tensorflow/lite/kernels/internal/reference\arg_min_max.h ****     TFLITE_DCHECK_EQ(input1_shape.Dims(i), output_shape.Dims(i - 1));
 5310              		.loc 2 56 0
 5311 05f8 02005CE1 		cmp	ip, r2
 5312 05fc 10FFFFDA 		ble	.L461
 5313              	.LVL681:
 5314              	.LBB1112:
 5315              	.LBB1036:
 5316              		.loc 3 216 0
 5317 0600 022180E0 		add	r2, r0, r2, lsl #2
 5318              	.LVL682:
 5319              	.LBE1036:
 5320              	.LBE1112:
 5321              	.LBB1113:
 5322              	.LBB1066:
 215:C:/Renesas/e2studio_2021_01_workspace_RZA2M_ANPR/ANPR_RZA2M_GR_MANGO/src/tensorflow_lite/src/tensorflow/lite/kernels/internal\types.h ****     return size_ > kMaxSmallSize ? dims_pointer_[i] : dims_[i];
 5323              		.loc 3 215 0
 5324 0604 070054E1 		cmp	r4, r7
 5325              	.LBE1066:
 5326              	.LBE1113:
 5327              	.LBB1114:
 5328              	.LBB1037:
 5329              		.loc 3 216 0
 5330 0608 042092E5 		ldr	r2, [r2, #4]
 5331              	.LVL683:
 5332              	.LBE1037:
 5333              	.LBE1114:
 5334              	.LBB1115:
 5335              	.LBB1067:
 215:C:/Renesas/e2studio_2021_01_workspace_RZA2M_ANPR/ANPR_RZA2M_GR_MANGO/src/tensorflow_lite/src/tensorflow/lite/kernels/internal\types.h ****     return size_ > kMaxSmallSize ? dims_pointer_[i] : dims_[i];
 5336              		.loc 3 215 0
 5337 060c BAFEFFDA 		ble	.L441
 5338              		.loc 3 216 0
 5339 0610 053083E0 		add	r3, r3, r5
 5340              	.LVL684:
 5341 0614 043093E5 		ldr	r3, [r3, #4]
 5342              	.LVL685:
 5343              	.LBE1067:
 5344              	.LBE1115:
  57:C:/Renesas/e2studio_2021_01_workspace_RZA2M_ANPR/ANPR_RZA2M_GR_MANGO/src/tensorflow_lite/src/tensorflow/lite/kernels/internal/reference\arg_min_max.h ****     inner_size *= input1_shape.Dims(i);
 5345              		.loc 2 57 0
 5346 0618 020053E1 		cmp	r3, r2
 5347 061c 07FFFF0A 		beq	.L574
 5348 0620 B5FEFFEA 		b	.L441
 5349              	.LVL686:
 5350              	.L444:
  56:C:/Renesas/e2studio_2021_01_workspace_RZA2M_ANPR/ANPR_RZA2M_GR_MANGO/src/tensorflow_lite/src/tensorflow/lite/kernels/internal/reference\arg_min_max.h ****     TFLITE_DCHECK_EQ(input1_shape.Dims(i), output_shape.Dims(i - 1));
 5351              		.loc 2 56 0
 5352 0624 01005CE3 		cmp	ip, #1
 5353 0628 0120A0E3 		mov	r2, #1
 5354              	.LVL687:
 5355 062c 080000DA 		ble	.L581
 5356 0630 05005CE3 		cmp	ip, #5
 5357              	.LBE1135:
  48:C:/Renesas/e2studio_2021_01_workspace_RZA2M_ANPR/ANPR_RZA2M_GR_MANGO/src/tensorflow_lite/src/tensorflow/lite/kernels/internal/reference\arg_min_max.h ****   for (int i = 0; i < axis; ++i) {
 5358              		.loc 2 48 0
 5359 0634 0290A0E1 		mov	r9, r2
 5360 0638 020000CA 		bgt	.L456
 5361 063c 050054E3 		cmp	r4, #5
 5362 0640 C7FFFFDA 		ble	.L471
 5363 0644 D2FEFFEA 		b	.L457
 5364              	.L456:
 5365 0648 050054E3 		cmp	r4, #5
 5366 064c 58FFFFDA 		ble	.L470
 5367 0650 A6FFFFEA 		b	.L459
 5368              	.L581:
 5369 0654 0290A0E1 		mov	r9, r2
  54:C:/Renesas/e2studio_2021_01_workspace_RZA2M_ANPR/ANPR_RZA2M_GR_MANGO/src/tensorflow_lite/src/tensorflow/lite/kernels/internal/reference\arg_min_max.h ****   const int dims_count = input1_shape.DimensionsCount();
 5370              		.loc 2 54 0
 5371 0658 0280A0E1 		mov	r8, r2
 5372 065c FCFEFFEA 		b	.L468
 5373              		.cfi_endproc
 5374              	.LFE1979:
 5375              		.fnend
 5377              		.section	.text._ZN6tflite13reference_ops9ArgMinMaxIallNS_3ops5micro7GreaterEEEvRKNS_12RuntimeShape
 5378              		.align	2
 5379              		.weak	_ZN6tflite13reference_ops9ArgMinMaxIallNS_3ops5micro7GreaterEEEvRKNS_12RuntimeShapeEPKT_PKT1
 5380              		.syntax unified
 5381              		.arm
 5382              		.fpu neon
 5384              	_ZN6tflite13reference_ops9ArgMinMaxIallNS_3ops5micro7GreaterEEEvRKNS_12RuntimeShapeEPKT_PKT1_S7_PT0
 5385              		.fnstart
 5386              	.LFB1980:
  36:C:/Renesas/e2studio_2021_01_workspace_RZA2M_ANPR/ANPR_RZA2M_GR_MANGO/src/tensorflow_lite/src/tensorflow/lite/kernels/internal/reference\arg_min_max.h ****                const T3* input2_data, const RuntimeShape& output_shape,
 5387              		.loc 2 36 0
 5388              		.cfi_startproc
 5389              		@ args = 8, pretend = 0, frame = 8
 5390              		@ frame_needed = 0, uses_anonymous_args = 0
 5391              	.LVL688:
 5392 0000 00C090E5 		ldr	ip, [r0]
 5393              	.LVL689:
 5394 0004 F04F2DE9 		push	{r4, r5, r6, r7, r8, r9, r10, fp, lr}
 5395              		.save {r4, r5, r6, r7, r8, r9, r10, fp, lr}
 5396              		.cfi_def_cfa_offset 36
 5397              		.cfi_offset 4, -36
 5398              		.cfi_offset 5, -32
 5399              		.cfi_offset 6, -28
 5400              		.cfi_offset 7, -24
 5401              		.cfi_offset 8, -20
 5402              		.cfi_offset 9, -16
 5403              		.cfi_offset 10, -12
 5404              		.cfi_offset 11, -8
 5405              		.cfi_offset 14, -4
 5406              		.pad #12
 5407 0008 0CD04DE2 		sub	sp, sp, #12
 5408              		.cfi_def_cfa_offset 48
  39:C:/Renesas/e2studio_2021_01_workspace_RZA2M_ANPR/ANPR_RZA2M_GR_MANGO/src/tensorflow_lite/src/tensorflow/lite/kernels/internal/reference\arg_min_max.h ****   TFLITE_DCHECK_EQ(input1_shape.DimensionsCount() - 1,
 5409              		.loc 2 39 0
 5410 000c 00005CE3 		cmp	ip, #0
 5411 0010 390000DA 		ble	.L584
 5412              	.LVL690:
  40:C:/Renesas/e2studio_2021_01_workspace_RZA2M_ANPR/ANPR_RZA2M_GR_MANGO/src/tensorflow_lite/src/tensorflow/lite/kernels/internal/reference\arg_min_max.h ****                    output_shape.DimensionsCount());
 5413              		.loc 2 40 0
 5414 0014 00E093E5 		ldr	lr, [r3]
 5415 0018 01404CE2 		sub	r4, ip, #1
 5416              	.LVL691:
 5417 001c 0E0054E1 		cmp	r4, lr
 5418 0020 3500001A 		bne	.L584
  42:C:/Renesas/e2studio_2021_01_workspace_RZA2M_ANPR/ANPR_RZA2M_GR_MANGO/src/tensorflow_lite/src/tensorflow/lite/kernels/internal/reference\arg_min_max.h ****   if (axis < 0) {
 5419              		.loc 2 42 0
 5420 0024 002092E5 		ldr	r2, [r2]
 5421              	.LVL692:
  43:C:/Renesas/e2studio_2021_01_workspace_RZA2M_ANPR/ANPR_RZA2M_GR_MANGO/src/tensorflow_lite/src/tensorflow/lite/kernels/internal/reference\arg_min_max.h ****     axis += input1_shape.DimensionsCount();
 5422              		.loc 2 43 0
 5423 0028 000052E3 		cmp	r2, #0
 5424 002c 190100BA 		blt	.L721
 5425              	.LVL693:
 5426              	.L585:
 5427              	.LBB1157:
 5428              	.LBB1158:
 215:C:/Renesas/e2studio_2021_01_workspace_RZA2M_ANPR/ANPR_RZA2M_GR_MANGO/src/tensorflow_lite/src/tensorflow/lite/kernels/internal\types.h ****     return size_ > kMaxSmallSize ? dims_pointer_[i] : dims_[i];
 5429              		.loc 3 215 0
 5430 0030 02005CE1 		cmp	ip, r2
 5431 0034 300000DA 		ble	.L584
 5432              		.loc 3 216 0
 5433 0038 05005CE3 		cmp	ip, #5
 5434 003c A80000CA 		bgt	.L722
 5435 0040 02E180E0 		add	lr, r0, r2, lsl #2
 5436              	.LBE1158:
 5437              	.LBE1157:
 5438              	.LBB1163:
  49:C:/Renesas/e2studio_2021_01_workspace_RZA2M_ANPR/ANPR_RZA2M_GR_MANGO/src/tensorflow_lite/src/tensorflow/lite/kernels/internal/reference\arg_min_max.h ****     TFLITE_DCHECK_EQ(input1_shape.Dims(i), output_shape.Dims(i));
 5439              		.loc 2 49 0
 5440 0044 000052E3 		cmp	r2, #0
 5441              	.LBE1163:
 5442              	.LBB1244:
 5443              	.LBB1159:
 5444              		.loc 3 216 0
 5445 0048 04E09EE5 		ldr	lr, [lr, #4]
 5446              	.LVL694:
 5447              	.LBE1159:
 5448              	.LBE1244:
 5449              	.LBB1245:
  49:C:/Renesas/e2studio_2021_01_workspace_RZA2M_ANPR/ANPR_RZA2M_GR_MANGO/src/tensorflow_lite/src/tensorflow/lite/kernels/internal/reference\arg_min_max.h ****     TFLITE_DCHECK_EQ(input1_shape.Dims(i), output_shape.Dims(i));
 5450              		.loc 2 49 0
 5451 004c 7501000A 		beq	.L587
 5452 0050 050054E3 		cmp	r4, #5
 5453 0054 290000CA 		bgt	.L591
 5454              	.LVL695:
 5455              	.LBB1164:
 5456              	.LBB1165:
 215:C:/Renesas/e2studio_2021_01_workspace_RZA2M_ANPR/ANPR_RZA2M_GR_MANGO/src/tensorflow_lite/src/tensorflow/lite/kernels/internal\types.h ****     return size_ > kMaxSmallSize ? dims_pointer_[i] : dims_[i];
 5457              		.loc 3 215 0
 5458 0058 000054E3 		cmp	r4, #0
 5459              	.LBE1165:
 5460              	.LBE1164:
 5461              	.LBB1186:
 5462              	.LBB1187:
 5463              		.loc 3 216 0
 5464 005c 049090E5 		ldr	r9, [r0, #4]
 5465              	.LVL696:
 5466              	.LBE1187:
 5467              	.LBE1186:
 5468              	.LBB1206:
 5469              	.LBB1166:
 215:C:/Renesas/e2studio_2021_01_workspace_RZA2M_ANPR/ANPR_RZA2M_GR_MANGO/src/tensorflow_lite/src/tensorflow/lite/kernels/internal\types.h ****     return size_ > kMaxSmallSize ? dims_pointer_[i] : dims_[i];
 5470              		.loc 3 215 0
 5471 0060 2500000A 		beq	.L584
 5472              	.LVL697:
 5473              	.LBE1166:
 5474              	.LBE1206:
  50:C:/Renesas/e2studio_2021_01_workspace_RZA2M_ANPR/ANPR_RZA2M_GR_MANGO/src/tensorflow_lite/src/tensorflow/lite/kernels/internal/reference\arg_min_max.h ****     outer_size *= input1_shape.Dims(i);
 5475              		.loc 2 50 0
 5476 0064 045093E5 		ldr	r5, [r3, #4]
 5477 0068 050059E1 		cmp	r9, r5
 5478 006c 2200001A 		bne	.L584
 5479              	.LVL698:
  49:C:/Renesas/e2studio_2021_01_workspace_RZA2M_ANPR/ANPR_RZA2M_GR_MANGO/src/tensorflow_lite/src/tensorflow/lite/kernels/internal/reference\arg_min_max.h ****     TFLITE_DCHECK_EQ(input1_shape.Dims(i), output_shape.Dims(i));
 5480              		.loc 2 49 0
 5481 0070 010052E3 		cmp	r2, #1
 5482 0074 3801000A 		beq	.L592
 5483              	.LVL699:
 5484              	.LBB1207:
 5485              	.LBB1188:
 215:C:/Renesas/e2studio_2021_01_workspace_RZA2M_ANPR/ANPR_RZA2M_GR_MANGO/src/tensorflow_lite/src/tensorflow/lite/kernels/internal\types.h ****     return size_ > kMaxSmallSize ? dims_pointer_[i] : dims_[i];
 5486              		.loc 3 215 0
 5487 0078 01005CE3 		cmp	ip, #1
 5488 007c 1E00000A 		beq	.L584
 5489              	.LBE1188:
 5490              	.LBE1207:
 5491              	.LBB1208:
 5492              	.LBB1167:
 5493 0080 010054E3 		cmp	r4, #1
 5494              	.LBE1167:
 5495              	.LBE1208:
 5496              	.LBB1209:
 5497              	.LBB1189:
 5498              		.loc 3 216 0
 5499 0084 085090E5 		ldr	r5, [r0, #8]
 5500              	.LVL700:
 5501              	.LBE1189:
 5502              	.LBE1209:
 5503              	.LBB1210:
 5504              	.LBB1168:
 215:C:/Renesas/e2studio_2021_01_workspace_RZA2M_ANPR/ANPR_RZA2M_GR_MANGO/src/tensorflow_lite/src/tensorflow/lite/kernels/internal\types.h ****     return size_ > kMaxSmallSize ? dims_pointer_[i] : dims_[i];
 5505              		.loc 3 215 0
 5506 0088 1B00000A 		beq	.L584
 5507              	.LVL701:
 5508              	.LBE1168:
 5509              	.LBE1210:
  50:C:/Renesas/e2studio_2021_01_workspace_RZA2M_ANPR/ANPR_RZA2M_GR_MANGO/src/tensorflow_lite/src/tensorflow/lite/kernels/internal/reference\arg_min_max.h ****     outer_size *= input1_shape.Dims(i);
 5510              		.loc 2 50 0
 5511 008c 086093E5 		ldr	r6, [r3, #8]
 5512 0090 060055E1 		cmp	r5, r6
 5513 0094 1800001A 		bne	.L584
  49:C:/Renesas/e2studio_2021_01_workspace_RZA2M_ANPR/ANPR_RZA2M_GR_MANGO/src/tensorflow_lite/src/tensorflow/lite/kernels/internal/reference\arg_min_max.h ****     TFLITE_DCHECK_EQ(input1_shape.Dims(i), output_shape.Dims(i));
 5514              		.loc 2 49 0
 5515 0098 020052E3 		cmp	r2, #2
  51:C:/Renesas/e2studio_2021_01_workspace_RZA2M_ANPR/ANPR_RZA2M_GR_MANGO/src/tensorflow_lite/src/tensorflow/lite/kernels/internal/reference\arg_min_max.h ****   }
 5516              		.loc 2 51 0
 5517 009c 950909E0 		mul	r9, r5, r9
 5518              	.LVL702:
  49:C:/Renesas/e2studio_2021_01_workspace_RZA2M_ANPR/ANPR_RZA2M_GR_MANGO/src/tensorflow_lite/src/tensorflow/lite/kernels/internal/reference\arg_min_max.h ****     TFLITE_DCHECK_EQ(input1_shape.Dims(i), output_shape.Dims(i));
 5519              		.loc 2 49 0
 5520 00a0 2D01000A 		beq	.L592
 5521              	.LVL703:
 5522              	.LBB1211:
 5523              	.LBB1190:
 215:C:/Renesas/e2studio_2021_01_workspace_RZA2M_ANPR/ANPR_RZA2M_GR_MANGO/src/tensorflow_lite/src/tensorflow/lite/kernels/internal\types.h ****     return size_ > kMaxSmallSize ? dims_pointer_[i] : dims_[i];
 5524              		.loc 3 215 0
 5525 00a4 02005CE3 		cmp	ip, #2
 5526 00a8 1300000A 		beq	.L584
 5527              	.LBE1190:
 5528              	.LBE1211:
 5529              	.LBB1212:
 5530              	.LBB1169:
 5531 00ac 020054E3 		cmp	r4, #2
 5532              	.LBE1169:
 5533              	.LBE1212:
 5534              	.LBB1213:
 5535              	.LBB1191:
 5536              		.loc 3 216 0
 5537 00b0 0C5090E5 		ldr	r5, [r0, #12]
 5538              	.LVL704:
 5539              	.LBE1191:
 5540              	.LBE1213:
 5541              	.LBB1214:
 5542              	.LBB1170:
 215:C:/Renesas/e2studio_2021_01_workspace_RZA2M_ANPR/ANPR_RZA2M_GR_MANGO/src/tensorflow_lite/src/tensorflow/lite/kernels/internal\types.h ****     return size_ > kMaxSmallSize ? dims_pointer_[i] : dims_[i];
 5543              		.loc 3 215 0
 5544 00b4 1000000A 		beq	.L584
 5545              	.LVL705:
 5546              	.LBE1170:
 5547              	.LBE1214:
  50:C:/Renesas/e2studio_2021_01_workspace_RZA2M_ANPR/ANPR_RZA2M_GR_MANGO/src/tensorflow_lite/src/tensorflow/lite/kernels/internal/reference\arg_min_max.h ****     outer_size *= input1_shape.Dims(i);
 5548              		.loc 2 50 0
 5549 00b8 0C6093E5 		ldr	r6, [r3, #12]
 5550 00bc 060055E1 		cmp	r5, r6
 5551 00c0 0D00001A 		bne	.L584
  49:C:/Renesas/e2studio_2021_01_workspace_RZA2M_ANPR/ANPR_RZA2M_GR_MANGO/src/tensorflow_lite/src/tensorflow/lite/kernels/internal/reference\arg_min_max.h ****     TFLITE_DCHECK_EQ(input1_shape.Dims(i), output_shape.Dims(i));
 5552              		.loc 2 49 0
 5553 00c4 030052E3 		cmp	r2, #3
  51:C:/Renesas/e2studio_2021_01_workspace_RZA2M_ANPR/ANPR_RZA2M_GR_MANGO/src/tensorflow_lite/src/tensorflow/lite/kernels/internal/reference\arg_min_max.h ****   }
 5554              		.loc 2 51 0
 5555 00c8 950909E0 		mul	r9, r5, r9
 5556              	.LVL706:
  49:C:/Renesas/e2studio_2021_01_workspace_RZA2M_ANPR/ANPR_RZA2M_GR_MANGO/src/tensorflow_lite/src/tensorflow/lite/kernels/internal/reference\arg_min_max.h ****     TFLITE_DCHECK_EQ(input1_shape.Dims(i), output_shape.Dims(i));
 5557              		.loc 2 49 0
 5558 00cc 2201000A 		beq	.L592
 5559              	.LVL707:
 5560              	.LBB1215:
 5561              	.LBB1192:
 215:C:/Renesas/e2studio_2021_01_workspace_RZA2M_ANPR/ANPR_RZA2M_GR_MANGO/src/tensorflow_lite/src/tensorflow/lite/kernels/internal\types.h ****     return size_ > kMaxSmallSize ? dims_pointer_[i] : dims_[i];
 5562              		.loc 3 215 0
 5563 00d0 03005CE3 		cmp	ip, #3
 5564 00d4 0800000A 		beq	.L584
 5565              	.LBE1192:
 5566              	.LBE1215:
 5567              	.LBB1216:
 5568              	.LBB1171:
 5569 00d8 030054E3 		cmp	r4, #3
 5570              	.LBE1171:
 5571              	.LBE1216:
 5572              	.LBB1217:
 5573              	.LBB1193:
 5574              		.loc 3 216 0
 5575 00dc 105090E5 		ldr	r5, [r0, #16]
 5576              	.LVL708:
 5577              	.LBE1193:
 5578              	.LBE1217:
 5579              	.LBB1218:
 5580              	.LBB1172:
 215:C:/Renesas/e2studio_2021_01_workspace_RZA2M_ANPR/ANPR_RZA2M_GR_MANGO/src/tensorflow_lite/src/tensorflow/lite/kernels/internal\types.h ****     return size_ > kMaxSmallSize ? dims_pointer_[i] : dims_[i];
 5581              		.loc 3 215 0
 5582 00e0 0500000A 		beq	.L584
 5583              	.LVL709:
 5584              	.LBE1172:
 5585              	.LBE1218:
  50:C:/Renesas/e2studio_2021_01_workspace_RZA2M_ANPR/ANPR_RZA2M_GR_MANGO/src/tensorflow_lite/src/tensorflow/lite/kernels/internal/reference\arg_min_max.h ****     outer_size *= input1_shape.Dims(i);
 5586              		.loc 2 50 0
 5587 00e4 106093E5 		ldr	r6, [r3, #16]
 5588 00e8 060055E1 		cmp	r5, r6
 5589 00ec 0200001A 		bne	.L584
  49:C:/Renesas/e2studio_2021_01_workspace_RZA2M_ANPR/ANPR_RZA2M_GR_MANGO/src/tensorflow_lite/src/tensorflow/lite/kernels/internal/reference\arg_min_max.h ****     TFLITE_DCHECK_EQ(input1_shape.Dims(i), output_shape.Dims(i));
 5590              		.loc 2 49 0
 5591 00f0 040052E3 		cmp	r2, #4
  51:C:/Renesas/e2studio_2021_01_workspace_RZA2M_ANPR/ANPR_RZA2M_GR_MANGO/src/tensorflow_lite/src/tensorflow/lite/kernels/internal/reference\arg_min_max.h ****   }
 5592              		.loc 2 51 0
 5593 00f4 950909E0 		mul	r9, r5, r9
 5594              	.LVL710:
  49:C:/Renesas/e2studio_2021_01_workspace_RZA2M_ANPR/ANPR_RZA2M_GR_MANGO/src/tensorflow_lite/src/tensorflow/lite/kernels/internal/reference\arg_min_max.h ****     TFLITE_DCHECK_EQ(input1_shape.Dims(i), output_shape.Dims(i));
 5595              		.loc 2 49 0
 5596 00f8 1701000A 		beq	.L592
 5597              	.LVL711:
 5598              	.L584:
 5599              	.LBE1245:
  39:C:/Renesas/e2studio_2021_01_workspace_RZA2M_ANPR/ANPR_RZA2M_GR_MANGO/src/tensorflow_lite/src/tensorflow/lite/kernels/internal/reference\arg_min_max.h ****   TFLITE_DCHECK_EQ(input1_shape.DimensionsCount() - 1,
 5600              		.loc 2 39 0 discriminator 1
 5601 00fc FEFFFFEB 		bl	abort
 5602              	.LVL712:
 5603              	.L591:
 5604              	.LBB1246:
 5605              	.LBB1219:
 5606              	.LBB1173:
 5607              		.loc 3 216 0
 5608 0100 045093E5 		ldr	r5, [r3, #4]
 5609              	.LBE1173:
 5610              	.LBE1219:
 5611              	.LBB1220:
 5612              	.LBB1194:
 5613 0104 049090E5 		ldr	r9, [r0, #4]
 5614              	.LVL713:
 5615              	.LBE1194:
 5616              	.LBE1220:
  50:C:/Renesas/e2studio_2021_01_workspace_RZA2M_ANPR/ANPR_RZA2M_GR_MANGO/src/tensorflow_lite/src/tensorflow/lite/kernels/internal/reference\arg_min_max.h ****     outer_size *= input1_shape.Dims(i);
 5617              		.loc 2 50 0
 5618 0108 006095E5 		ldr	r6, [r5]
 5619 010c 060059E1 		cmp	r9, r6
 5620 0110 F9FFFF1A 		bne	.L584
 5621              	.LVL714:
  49:C:/Renesas/e2studio_2021_01_workspace_RZA2M_ANPR/ANPR_RZA2M_GR_MANGO/src/tensorflow_lite/src/tensorflow/lite/kernels/internal/reference\arg_min_max.h ****     TFLITE_DCHECK_EQ(input1_shape.Dims(i), output_shape.Dims(i));
 5622              		.loc 2 49 0
 5623 0114 010052E3 		cmp	r2, #1
 5624 0118 1A00000A 		beq	.L593
 5625              	.LVL715:
 5626              	.LBB1221:
 5627              	.LBB1195:
 215:C:/Renesas/e2studio_2021_01_workspace_RZA2M_ANPR/ANPR_RZA2M_GR_MANGO/src/tensorflow_lite/src/tensorflow/lite/kernels/internal\types.h ****     return size_ > kMaxSmallSize ? dims_pointer_[i] : dims_[i];
 5628              		.loc 3 215 0
 5629 011c 01005CE3 		cmp	ip, #1
 5630 0120 F5FFFF0A 		beq	.L584
 5631              		.loc 3 216 0
 5632 0124 086090E5 		ldr	r6, [r0, #8]
 5633              	.LVL716:
 5634              	.LBE1195:
 5635              	.LBE1221:
  50:C:/Renesas/e2studio_2021_01_workspace_RZA2M_ANPR/ANPR_RZA2M_GR_MANGO/src/tensorflow_lite/src/tensorflow/lite/kernels/internal/reference\arg_min_max.h ****     outer_size *= input1_shape.Dims(i);
 5636              		.loc 2 50 0
 5637 0128 047095E5 		ldr	r7, [r5, #4]
 5638 012c 070056E1 		cmp	r6, r7
 5639 0130 F1FFFF1A 		bne	.L584
  49:C:/Renesas/e2studio_2021_01_workspace_RZA2M_ANPR/ANPR_RZA2M_GR_MANGO/src/tensorflow_lite/src/tensorflow/lite/kernels/internal/reference\arg_min_max.h ****     TFLITE_DCHECK_EQ(input1_shape.Dims(i), output_shape.Dims(i));
 5640              		.loc 2 49 0
 5641 0134 020052E3 		cmp	r2, #2
  51:C:/Renesas/e2studio_2021_01_workspace_RZA2M_ANPR/ANPR_RZA2M_GR_MANGO/src/tensorflow_lite/src/tensorflow/lite/kernels/internal/reference\arg_min_max.h ****   }
 5642              		.loc 2 51 0
 5643 0138 960909E0 		mul	r9, r6, r9
 5644              	.LVL717:
  49:C:/Renesas/e2studio_2021_01_workspace_RZA2M_ANPR/ANPR_RZA2M_GR_MANGO/src/tensorflow_lite/src/tensorflow/lite/kernels/internal/reference\arg_min_max.h ****     TFLITE_DCHECK_EQ(input1_shape.Dims(i), output_shape.Dims(i));
 5645              		.loc 2 49 0
 5646 013c 1100000A 		beq	.L593
 5647              	.LVL718:
 5648              	.LBB1222:
 5649              	.LBB1196:
 215:C:/Renesas/e2studio_2021_01_workspace_RZA2M_ANPR/ANPR_RZA2M_GR_MANGO/src/tensorflow_lite/src/tensorflow/lite/kernels/internal\types.h ****     return size_ > kMaxSmallSize ? dims_pointer_[i] : dims_[i];
 5650              		.loc 3 215 0
 5651 0140 02005CE3 		cmp	ip, #2
 5652 0144 ECFFFF0A 		beq	.L584
 5653              		.loc 3 216 0
 5654 0148 0C6090E5 		ldr	r6, [r0, #12]
 5655              	.LVL719:
 5656              	.LBE1196:
 5657              	.LBE1222:
  50:C:/Renesas/e2studio_2021_01_workspace_RZA2M_ANPR/ANPR_RZA2M_GR_MANGO/src/tensorflow_lite/src/tensorflow/lite/kernels/internal/reference\arg_min_max.h ****     outer_size *= input1_shape.Dims(i);
 5658              		.loc 2 50 0
 5659 014c 087095E5 		ldr	r7, [r5, #8]
 5660 0150 070056E1 		cmp	r6, r7
 5661 0154 E8FFFF1A 		bne	.L584
  49:C:/Renesas/e2studio_2021_01_workspace_RZA2M_ANPR/ANPR_RZA2M_GR_MANGO/src/tensorflow_lite/src/tensorflow/lite/kernels/internal/reference\arg_min_max.h ****     TFLITE_DCHECK_EQ(input1_shape.Dims(i), output_shape.Dims(i));
 5662              		.loc 2 49 0
 5663 0158 030052E3 		cmp	r2, #3
  51:C:/Renesas/e2studio_2021_01_workspace_RZA2M_ANPR/ANPR_RZA2M_GR_MANGO/src/tensorflow_lite/src/tensorflow/lite/kernels/internal/reference\arg_min_max.h ****   }
 5664              		.loc 2 51 0
 5665 015c 960909E0 		mul	r9, r6, r9
 5666              	.LVL720:
  49:C:/Renesas/e2studio_2021_01_workspace_RZA2M_ANPR/ANPR_RZA2M_GR_MANGO/src/tensorflow_lite/src/tensorflow/lite/kernels/internal/reference\arg_min_max.h ****     TFLITE_DCHECK_EQ(input1_shape.Dims(i), output_shape.Dims(i));
 5667              		.loc 2 49 0
 5668 0160 0800000A 		beq	.L593
 5669              	.LVL721:
 5670              	.LBB1223:
 5671              	.LBB1197:
 215:C:/Renesas/e2studio_2021_01_workspace_RZA2M_ANPR/ANPR_RZA2M_GR_MANGO/src/tensorflow_lite/src/tensorflow/lite/kernels/internal\types.h ****     return size_ > kMaxSmallSize ? dims_pointer_[i] : dims_[i];
 5672              		.loc 3 215 0
 5673 0164 03005CE3 		cmp	ip, #3
 5674 0168 E3FFFF0A 		beq	.L584
 5675              	.LBE1197:
 5676              	.LBE1223:
  50:C:/Renesas/e2studio_2021_01_workspace_RZA2M_ANPR/ANPR_RZA2M_GR_MANGO/src/tensorflow_lite/src/tensorflow/lite/kernels/internal/reference\arg_min_max.h ****     outer_size *= input1_shape.Dims(i);
 5677              		.loc 2 50 0
 5678 016c 0C6095E5 		ldr	r6, [r5, #12]
 5679              	.LBB1224:
 5680              	.LBB1198:
 5681              		.loc 3 216 0
 5682 0170 105090E5 		ldr	r5, [r0, #16]
 5683              	.LVL722:
 5684              	.LBE1198:
 5685              	.LBE1224:
  50:C:/Renesas/e2studio_2021_01_workspace_RZA2M_ANPR/ANPR_RZA2M_GR_MANGO/src/tensorflow_lite/src/tensorflow/lite/kernels/internal/reference\arg_min_max.h ****     outer_size *= input1_shape.Dims(i);
 5686              		.loc 2 50 0
 5687 0174 060055E1 		cmp	r5, r6
 5688 0178 DFFFFF1A 		bne	.L584
  49:C:/Renesas/e2studio_2021_01_workspace_RZA2M_ANPR/ANPR_RZA2M_GR_MANGO/src/tensorflow_lite/src/tensorflow/lite/kernels/internal/reference\arg_min_max.h ****     TFLITE_DCHECK_EQ(input1_shape.Dims(i), output_shape.Dims(i));
 5689              		.loc 2 49 0
 5690 017c 040052E3 		cmp	r2, #4
  51:C:/Renesas/e2studio_2021_01_workspace_RZA2M_ANPR/ANPR_RZA2M_GR_MANGO/src/tensorflow_lite/src/tensorflow/lite/kernels/internal/reference\arg_min_max.h ****   }
 5691              		.loc 2 51 0
 5692 0180 950909E0 		mul	r9, r5, r9
 5693              	.LVL723:
  49:C:/Renesas/e2studio_2021_01_workspace_RZA2M_ANPR/ANPR_RZA2M_GR_MANGO/src/tensorflow_lite/src/tensorflow/lite/kernels/internal/reference\arg_min_max.h ****     TFLITE_DCHECK_EQ(input1_shape.Dims(i), output_shape.Dims(i));
 5694              		.loc 2 49 0
 5695 0184 DCFFFF1A 		bne	.L584
 5696              	.LVL724:
 5697              	.L593:
 5698              	.LBE1246:
 5699              	.LBB1247:
  56:C:/Renesas/e2studio_2021_01_workspace_RZA2M_ANPR/ANPR_RZA2M_GR_MANGO/src/tensorflow_lite/src/tensorflow/lite/kernels/internal/reference\arg_min_max.h ****     TFLITE_DCHECK_EQ(input1_shape.Dims(i), output_shape.Dims(i - 1));
 5700              		.loc 2 56 0
 5701 0188 012082E2 		add	r2, r2, #1
 5702              	.LVL725:
 5703 018c 02005CE1 		cmp	ip, r2
 5704 0190 EF0000DA 		ble	.L628
 5705              	.LVL726:
 5706              	.L600:
  57:C:/Renesas/e2studio_2021_01_workspace_RZA2M_ANPR/ANPR_RZA2M_GR_MANGO/src/tensorflow_lite/src/tensorflow/lite/kernels/internal/reference\arg_min_max.h ****     inner_size *= input1_shape.Dims(i);
 5707              		.loc 2 57 0
 5708 0194 015042E2 		sub	r5, r2, #1
 5709              	.LBB1248:
 5710              	.LBB1249:
 5711              		.loc 3 216 0
 5712 0198 026180E0 		add	r6, r0, r2, lsl #2
 5713              	.LBE1249:
 5714              	.LBE1248:
 5715              	.LBB1270:
 5716              	.LBB1271:
 215:C:/Renesas/e2studio_2021_01_workspace_RZA2M_ANPR/ANPR_RZA2M_GR_MANGO/src/tensorflow_lite/src/tensorflow/lite/kernels/internal\types.h ****     return size_ > kMaxSmallSize ? dims_pointer_[i] : dims_[i];
 5717              		.loc 3 215 0
 5718 019c 050054E1 		cmp	r4, r5
 5719              	.LBE1271:
 5720              	.LBE1270:
 5721              	.LBB1300:
 5722              	.LBB1250:
 5723              		.loc 3 216 0
 5724 01a0 046096E5 		ldr	r6, [r6, #4]
 5725              	.LVL727:
 5726              	.LBE1250:
 5727              	.LBE1300:
 5728              	.LBB1301:
 5729              	.LBB1272:
 215:C:/Renesas/e2studio_2021_01_workspace_RZA2M_ANPR/ANPR_RZA2M_GR_MANGO/src/tensorflow_lite/src/tensorflow/lite/kernels/internal\types.h ****     return size_ > kMaxSmallSize ? dims_pointer_[i] : dims_[i];
 5730              		.loc 3 215 0
 5731 01a4 D4FFFFDA 		ble	.L584
 5732              		.loc 3 216 0
 5733 01a8 043093E5 		ldr	r3, [r3, #4]
 5734              	.LVL728:
 5735 01ac 0571A0E1 		lsl	r7, r5, #2
 5736 01b0 058193E7 		ldr	r8, [r3, r5, lsl #2]
 5737              	.LVL729:
 5738              	.LBE1272:
 5739              	.LBE1301:
  57:C:/Renesas/e2studio_2021_01_workspace_RZA2M_ANPR/ANPR_RZA2M_GR_MANGO/src/tensorflow_lite/src/tensorflow/lite/kernels/internal/reference\arg_min_max.h ****     inner_size *= input1_shape.Dims(i);
 5740              		.loc 2 57 0
 5741 01b4 060058E1 		cmp	r8, r6
 5742 01b8 CFFFFF1A 		bne	.L584
 5743              	.LVL730:
  56:C:/Renesas/e2studio_2021_01_workspace_RZA2M_ANPR/ANPR_RZA2M_GR_MANGO/src/tensorflow_lite/src/tensorflow/lite/kernels/internal/reference\arg_min_max.h ****     TFLITE_DCHECK_EQ(input1_shape.Dims(i), output_shape.Dims(i - 1));
 5744              		.loc 2 56 0
 5745 01bc 016082E2 		add	r6, r2, #1
 5746              	.LVL731:
 5747 01c0 06005CE1 		cmp	ip, r6
 5748 01c4 1E0000DA 		ble	.L604
 5749              	.LVL732:
 5750              	.LBB1302:
 5751              	.LBB1251:
 5752              		.loc 3 216 0
 5753 01c8 065180E0 		add	r5, r0, r6, lsl #2
 5754              	.LBE1251:
 5755              	.LBE1302:
 5756              	.LBB1303:
 5757              	.LBB1273:
 215:C:/Renesas/e2studio_2021_01_workspace_RZA2M_ANPR/ANPR_RZA2M_GR_MANGO/src/tensorflow_lite/src/tensorflow/lite/kernels/internal\types.h ****     return size_ > kMaxSmallSize ? dims_pointer_[i] : dims_[i];
 5758              		.loc 3 215 0
 5759 01cc 020054E1 		cmp	r4, r2
 5760              	.LBE1273:
 5761              	.LBE1303:
 5762              	.LBB1304:
 5763              	.LBB1252:
 5764              		.loc 3 216 0
 5765 01d0 045095E5 		ldr	r5, [r5, #4]
 5766              	.LVL733:
 5767              	.LBE1252:
 5768              	.LBE1304:
 5769              	.LBB1305:
 5770              	.LBB1274:
 215:C:/Renesas/e2studio_2021_01_workspace_RZA2M_ANPR/ANPR_RZA2M_GR_MANGO/src/tensorflow_lite/src/tensorflow/lite/kernels/internal\types.h ****     return size_ > kMaxSmallSize ? dims_pointer_[i] : dims_[i];
 5771              		.loc 3 215 0
 5772 01d4 C8FFFFDA 		ble	.L584
 5773              		.loc 3 216 0
 5774 01d8 073083E0 		add	r3, r3, r7
 5775 01dc 047093E5 		ldr	r7, [r3, #4]
 5776              	.LVL734:
 5777              	.LBE1274:
 5778              	.LBE1305:
  57:C:/Renesas/e2studio_2021_01_workspace_RZA2M_ANPR/ANPR_RZA2M_GR_MANGO/src/tensorflow_lite/src/tensorflow/lite/kernels/internal/reference\arg_min_max.h ****     inner_size *= input1_shape.Dims(i);
 5779              		.loc 2 57 0
 5780 01e0 050057E1 		cmp	r7, r5
 5781 01e4 C4FFFF1A 		bne	.L584
  56:C:/Renesas/e2studio_2021_01_workspace_RZA2M_ANPR/ANPR_RZA2M_GR_MANGO/src/tensorflow_lite/src/tensorflow/lite/kernels/internal/reference\arg_min_max.h ****     TFLITE_DCHECK_EQ(input1_shape.Dims(i), output_shape.Dims(i - 1));
 5782              		.loc 2 56 0
 5783 01e8 025082E2 		add	r5, r2, #2
  58:C:/Renesas/e2studio_2021_01_workspace_RZA2M_ANPR/ANPR_RZA2M_GR_MANGO/src/tensorflow_lite/src/tensorflow/lite/kernels/internal/reference\arg_min_max.h ****   }
 5784              		.loc 2 58 0
 5785 01ec 980708E0 		mul	r8, r8, r7
 5786              	.LVL735:
  56:C:/Renesas/e2studio_2021_01_workspace_RZA2M_ANPR/ANPR_RZA2M_GR_MANGO/src/tensorflow_lite/src/tensorflow/lite/kernels/internal/reference\arg_min_max.h ****     TFLITE_DCHECK_EQ(input1_shape.Dims(i), output_shape.Dims(i - 1));
 5787              		.loc 2 56 0
 5788 01f0 05005CE1 		cmp	ip, r5
 5789 01f4 120000DA 		ble	.L604
 5790              	.LVL736:
 5791              	.LBB1306:
 5792              	.LBB1275:
 215:C:/Renesas/e2studio_2021_01_workspace_RZA2M_ANPR/ANPR_RZA2M_GR_MANGO/src/tensorflow_lite/src/tensorflow/lite/kernels/internal\types.h ****     return size_ > kMaxSmallSize ? dims_pointer_[i] : dims_[i];
 5793              		.loc 3 215 0
 5794 01f8 060054E1 		cmp	r4, r6
 5795              	.LBE1275:
 5796              	.LBE1306:
 5797              	.LBB1307:
 5798              	.LBB1253:
 5799              		.loc 3 216 0
 5800 01fc 056180E0 		add	r6, r0, r5, lsl #2
 5801 0200 046096E5 		ldr	r6, [r6, #4]
 5802              	.LVL737:
 5803              	.LBE1253:
 5804              	.LBE1307:
 5805              	.LBB1308:
 5806              	.LBB1276:
 215:C:/Renesas/e2studio_2021_01_workspace_RZA2M_ANPR/ANPR_RZA2M_GR_MANGO/src/tensorflow_lite/src/tensorflow/lite/kernels/internal\types.h ****     return size_ > kMaxSmallSize ? dims_pointer_[i] : dims_[i];
 5807              		.loc 3 215 0
 5808 0204 BCFFFFDA 		ble	.L584
 5809              		.loc 3 216 0
 5810 0208 087093E5 		ldr	r7, [r3, #8]
 5811              	.LVL738:
 5812              	.LBE1276:
 5813              	.LBE1308:
  57:C:/Renesas/e2studio_2021_01_workspace_RZA2M_ANPR/ANPR_RZA2M_GR_MANGO/src/tensorflow_lite/src/tensorflow/lite/kernels/internal/reference\arg_min_max.h ****     inner_size *= input1_shape.Dims(i);
 5814              		.loc 2 57 0
 5815 020c 070056E1 		cmp	r6, r7
 5816 0210 B9FFFF1A 		bne	.L584
 5817              	.LVL739:
  56:C:/Renesas/e2studio_2021_01_workspace_RZA2M_ANPR/ANPR_RZA2M_GR_MANGO/src/tensorflow_lite/src/tensorflow/lite/kernels/internal/reference\arg_min_max.h ****     TFLITE_DCHECK_EQ(input1_shape.Dims(i), output_shape.Dims(i - 1));
 5818              		.loc 2 56 0
 5819 0214 032082E2 		add	r2, r2, #3
  58:C:/Renesas/e2studio_2021_01_workspace_RZA2M_ANPR/ANPR_RZA2M_GR_MANGO/src/tensorflow_lite/src/tensorflow/lite/kernels/internal/reference\arg_min_max.h ****   }
 5820              		.loc 2 58 0
 5821 0218 960808E0 		mul	r8, r6, r8
 5822              	.LVL740:
  56:C:/Renesas/e2studio_2021_01_workspace_RZA2M_ANPR/ANPR_RZA2M_GR_MANGO/src/tensorflow_lite/src/tensorflow/lite/kernels/internal/reference\arg_min_max.h ****     TFLITE_DCHECK_EQ(input1_shape.Dims(i), output_shape.Dims(i - 1));
 5823              		.loc 2 56 0
 5824 021c 02005CE1 		cmp	ip, r2
 5825 0220 070000DA 		ble	.L604
 5826              	.LVL741:
 5827              	.LBB1309:
 5828              	.LBB1254:
 5829              		.loc 3 216 0
 5830 0224 022180E0 		add	r2, r0, r2, lsl #2
 5831              	.LVL742:
 5832              	.LBE1254:
 5833              	.LBE1309:
 5834              	.LBB1310:
 5835              	.LBB1277:
 215:C:/Renesas/e2studio_2021_01_workspace_RZA2M_ANPR/ANPR_RZA2M_GR_MANGO/src/tensorflow_lite/src/tensorflow/lite/kernels/internal\types.h ****     return size_ > kMaxSmallSize ? dims_pointer_[i] : dims_[i];
 5836              		.loc 3 215 0
 5837 0228 050054E1 		cmp	r4, r5
 5838              	.LBE1277:
 5839              	.LBE1310:
 5840              	.LBB1311:
 5841              	.LBB1255:
 5842              		.loc 3 216 0
 5843 022c 042092E5 		ldr	r2, [r2, #4]
 5844              	.LVL743:
 5845              	.LBE1255:
 5846              	.LBE1311:
 5847              	.LBB1312:
 5848              	.LBB1278:
 215:C:/Renesas/e2studio_2021_01_workspace_RZA2M_ANPR/ANPR_RZA2M_GR_MANGO/src/tensorflow_lite/src/tensorflow/lite/kernels/internal\types.h ****     return size_ > kMaxSmallSize ? dims_pointer_[i] : dims_[i];
 5849              		.loc 3 215 0
 5850 0230 B1FFFFDA 		ble	.L584
 5851              		.loc 3 216 0
 5852 0234 0C3093E5 		ldr	r3, [r3, #12]
 5853              	.LVL744:
 5854              	.LBE1278:
 5855              	.LBE1312:
  57:C:/Renesas/e2studio_2021_01_workspace_RZA2M_ANPR/ANPR_RZA2M_GR_MANGO/src/tensorflow_lite/src/tensorflow/lite/kernels/internal/reference\arg_min_max.h ****     inner_size *= input1_shape.Dims(i);
 5856              		.loc 2 57 0
 5857 0238 020053E1 		cmp	r3, r2
 5858 023c AEFFFF1A 		bne	.L584
 5859              	.LVL745:
 5860              	.L717:
  58:C:/Renesas/e2studio_2021_01_workspace_RZA2M_ANPR/ANPR_RZA2M_GR_MANGO/src/tensorflow_lite/src/tensorflow/lite/kernels/internal/reference\arg_min_max.h ****   }
 5861              		.loc 2 58 0
 5862 0240 920808E0 		mul	r8, r2, r8
 5863              	.LVL746:
 5864              	.L604:
 5865              	.LBE1247:
 5866              	.LBB1348:
  60:C:/Renesas/e2studio_2021_01_workspace_RZA2M_ANPR/ANPR_RZA2M_GR_MANGO/src/tensorflow_lite/src/tensorflow/lite/kernels/internal/reference\arg_min_max.h ****     for (int inner = 0; inner < inner_size; ++inner) {
 5867              		.loc 2 60 0 discriminator 1
 5868 0244 000059E3 		cmp	r9, #0
 5869 0248 230000DA 		ble	.L582
 5870 024c 000058E3 		cmp	r8, #0
 5871 0250 210000DA 		ble	.L582
 5872              	.LVL747:
 5873              	.L611:
 5874 0254 9E0803E0 		mul	r3, lr, r8
 5875 0258 30A09DE5 		ldr	r10, [sp, #48]
 5876 025c 086081E0 		add	r6, r1, r8
 5877              	.LBE1348:
  54:C:/Renesas/e2studio_2021_01_workspace_RZA2M_ANPR/ANPR_RZA2M_GR_MANGO/src/tensorflow_lite/src/tensorflow/lite/kernels/internal/reference\arg_min_max.h ****   const int dims_count = input1_shape.DimensionsCount();
 5878              		.loc 2 54 0 discriminator 1
 5879 0260 00B0A0E3 		mov	fp, #0
 5880 0264 017048E2 		sub	r7, r8, #1
 5881 0268 00308DE5 		str	r3, [sp]
 5882 026c 0831A0E1 		lsl	r3, r8, #2
 5883 0270 04308DE5 		str	r3, [sp, #4]
 5884              	.LVL748:
 5885              	.L607:
 5886 0274 084046E0 		sub	r4, r6, r8
 5887 0278 0A50A0E1 		mov	r5, r10
 5888              	.LVL749:
 5889              	.L606:
 5890              	.LBB1356:
 5891              	.LBB1349:
 5892              	.LBB1350:
 5893              	.LBB1351:
  64:C:/Renesas/e2studio_2021_01_workspace_RZA2M_ANPR/ANPR_RZA2M_GR_MANGO/src/tensorflow_lite/src/tensorflow/lite/kernels/internal/reference\arg_min_max.h ****         const auto& curr_value =
 5894              		.loc 2 64 0
 5895 027c 01005EE3 		cmp	lr, #1
 5896              	.LBE1351:
  62:C:/Renesas/e2studio_2021_01_workspace_RZA2M_ANPR/ANPR_RZA2M_GR_MANGO/src/tensorflow_lite/src/tensorflow/lite/kernels/internal/reference\arg_min_max.h ****       T2 min_max_index = 0;
 5897              		.loc 2 62 0
 5898 0280 D130D4E0 		ldrsb	r3, [r4], #1
 5899              	.LVL750:
 5900              	.LBB1352:
  64:C:/Renesas/e2studio_2021_01_workspace_RZA2M_ANPR/ANPR_RZA2M_GR_MANGO/src/tensorflow_lite/src/tensorflow/lite/kernels/internal/reference\arg_min_max.h ****         const auto& curr_value =
 5901              		.loc 2 64 0
 5902 0284 AD0000DA 		ble	.L623
 5903 0288 04C087E0 		add	ip, r7, r4
 5904 028c 0120A0E3 		mov	r2, #1
 5905 0290 0000A0E3 		mov	r0, #0
 5906              	.LVL751:
 5907              	.L609:
 5908 0294 D8109CE0 		ldrsb	r1, [ip], r8
 5909 0298 010053E1 		cmp	r3, r1
 5910 029c 0200A0B1 		movlt	r0, r2
 5911 02a0 010053E1 		cmp	r3, r1
 5912 02a4 012082E2 		add	r2, r2, #1
 5913 02a8 0130A0B1 		movlt	r3, r1
 5914              	.LVL752:
 5915 02ac 0E0052E1 		cmp	r2, lr
 5916 02b0 F7FFFF1A 		bne	.L609
 5917              	.LBE1352:
 5918              	.LBE1350:
  61:C:/Renesas/e2studio_2021_01_workspace_RZA2M_ANPR/ANPR_RZA2M_GR_MANGO/src/tensorflow_lite/src/tensorflow/lite/kernels/internal/reference\arg_min_max.h ****       auto min_max_value = input1_data[outer * axis_size * inner_size + inner];
 5919              		.loc 2 61 0 discriminator 2
 5920 02b4 060054E1 		cmp	r4, r6
 5921              	.LBB1353:
  72:C:/Renesas/e2studio_2021_01_workspace_RZA2M_ANPR/ANPR_RZA2M_GR_MANGO/src/tensorflow_lite/src/tensorflow/lite/kernels/internal/reference\arg_min_max.h ****     }
 5922              		.loc 2 72 0 discriminator 2
 5923 02b8 040085E4 		str	r0, [r5], #4
 5924              	.LVL753:
 5925              	.LBE1353:
  61:C:/Renesas/e2studio_2021_01_workspace_RZA2M_ANPR/ANPR_RZA2M_GR_MANGO/src/tensorflow_lite/src/tensorflow/lite/kernels/internal/reference\arg_min_max.h ****       auto min_max_value = input1_data[outer * axis_size * inner_size + inner];
 5926              		.loc 2 61 0 discriminator 2
 5927 02bc EEFFFF1A 		bne	.L606
 5928              	.LVL754:
 5929              	.L723:
 5930 02c0 00309DE5 		ldr	r3, [sp]
 5931              	.LBE1349:
  60:C:/Renesas/e2studio_2021_01_workspace_RZA2M_ANPR/ANPR_RZA2M_GR_MANGO/src/tensorflow_lite/src/tensorflow/lite/kernels/internal/reference\arg_min_max.h ****     for (int inner = 0; inner < inner_size; ++inner) {
 5932              		.loc 2 60 0
 5933 02c4 01B08BE2 		add	fp, fp, #1
 5934              	.LVL755:
 5935 02c8 09005BE1 		cmp	fp, r9
 5936 02cc 036086E0 		add	r6, r6, r3
 5937 02d0 04309DE5 		ldr	r3, [sp, #4]
 5938 02d4 03A08AE0 		add	r10, r10, r3
 5939 02d8 E5FFFFBA 		blt	.L607
 5940              	.LVL756:
 5941              	.L582:
 5942              	.LBE1356:
 5943              		.loc 2 75 0
 5944 02dc 0CD08DE2 		add	sp, sp, #12
 5945              		.cfi_remember_state
 5946              		.cfi_def_cfa_offset 36
 5947              		@ sp needed
 5948 02e0 F08FBDE8 		pop	{r4, r5, r6, r7, r8, r9, r10, fp, pc}
 5949              	.LVL757:
 5950              	.L722:
 5951              		.cfi_restore_state
 5952              	.LBB1357:
 5953              	.LBB1160:
 5954              		.loc 3 216 0
 5955 02e4 045090E5 		ldr	r5, [r0, #4]
 5956              	.LBE1160:
 5957              	.LBE1357:
 5958              	.LBB1358:
  49:C:/Renesas/e2studio_2021_01_workspace_RZA2M_ANPR/ANPR_RZA2M_GR_MANGO/src/tensorflow_lite/src/tensorflow/lite/kernels/internal/reference\arg_min_max.h ****     TFLITE_DCHECK_EQ(input1_shape.Dims(i), output_shape.Dims(i));
 5959              		.loc 2 49 0
 5960 02e8 000052E3 		cmp	r2, #0
 5961              	.LBE1358:
 5962              	.LBB1359:
 5963              	.LBB1161:
 5964              		.loc 3 216 0
 5965 02ec 02E195E7 		ldr	lr, [r5, r2, lsl #2]
 5966              	.LVL758:
 5967              	.LBE1161:
 5968              	.LBE1359:
 5969              	.LBB1360:
  49:C:/Renesas/e2studio_2021_01_workspace_RZA2M_ANPR/ANPR_RZA2M_GR_MANGO/src/tensorflow_lite/src/tensorflow/lite/kernels/internal/reference\arg_min_max.h ****     TFLITE_DCHECK_EQ(input1_shape.Dims(i), output_shape.Dims(i));
 5970              		.loc 2 49 0
 5971 02f0 CC00000A 		beq	.L587
 5972 02f4 050054E3 		cmp	r4, #5
 5973 02f8 690000CA 		bgt	.L594
 5974              	.LVL759:
 5975              	.LBB1225:
 5976              	.LBB1174:
 215:C:/Renesas/e2studio_2021_01_workspace_RZA2M_ANPR/ANPR_RZA2M_GR_MANGO/src/tensorflow_lite/src/tensorflow/lite/kernels/internal\types.h ****     return size_ > kMaxSmallSize ? dims_pointer_[i] : dims_[i];
 5977              		.loc 3 215 0
 5978 02fc 000054E3 		cmp	r4, #0
 5979              	.LBE1174:
 5980              	.LBE1225:
 5981              	.LBB1226:
 5982              	.LBB1199:
 5983              		.loc 3 216 0
 5984 0300 009095E5 		ldr	r9, [r5]
 5985              	.LVL760:
 5986              	.LBE1199:
 5987              	.LBE1226:
 5988              	.LBB1227:
 5989              	.LBB1175:
 215:C:/Renesas/e2studio_2021_01_workspace_RZA2M_ANPR/ANPR_RZA2M_GR_MANGO/src/tensorflow_lite/src/tensorflow/lite/kernels/internal\types.h ****     return size_ > kMaxSmallSize ? dims_pointer_[i] : dims_[i];
 5990              		.loc 3 215 0
 5991 0304 7CFFFF0A 		beq	.L584
 5992              	.LVL761:
 5993              	.LBE1175:
 5994              	.LBE1227:
  50:C:/Renesas/e2studio_2021_01_workspace_RZA2M_ANPR/ANPR_RZA2M_GR_MANGO/src/tensorflow_lite/src/tensorflow/lite/kernels/internal/reference\arg_min_max.h ****     outer_size *= input1_shape.Dims(i);
 5995              		.loc 2 50 0
 5996 0308 046093E5 		ldr	r6, [r3, #4]
 5997 030c 060059E1 		cmp	r9, r6
 5998 0310 79FFFF1A 		bne	.L584
 5999              	.LVL762:
  49:C:/Renesas/e2studio_2021_01_workspace_RZA2M_ANPR/ANPR_RZA2M_GR_MANGO/src/tensorflow_lite/src/tensorflow/lite/kernels/internal/reference\arg_min_max.h ****     TFLITE_DCHECK_EQ(input1_shape.Dims(i), output_shape.Dims(i));
 6000              		.loc 2 49 0
 6001 0314 010052E3 		cmp	r2, #1
 6002 0318 2300000A 		beq	.L595
 6003              	.LVL763:
 6004              	.LBB1228:
 6005              	.LBB1176:
 215:C:/Renesas/e2studio_2021_01_workspace_RZA2M_ANPR/ANPR_RZA2M_GR_MANGO/src/tensorflow_lite/src/tensorflow/lite/kernels/internal\types.h ****     return size_ > kMaxSmallSize ? dims_pointer_[i] : dims_[i];
 6006              		.loc 3 215 0
 6007 031c 010054E3 		cmp	r4, #1
 6008              	.LBE1176:
 6009              	.LBE1228:
 6010              	.LBB1229:
 6011              	.LBB1200:
 6012              		.loc 3 216 0
 6013 0320 046095E5 		ldr	r6, [r5, #4]
 6014              	.LVL764:
 6015              	.LBE1200:
 6016              	.LBE1229:
 6017              	.LBB1230:
 6018              	.LBB1177:
 215:C:/Renesas/e2studio_2021_01_workspace_RZA2M_ANPR/ANPR_RZA2M_GR_MANGO/src/tensorflow_lite/src/tensorflow/lite/kernels/internal\types.h ****     return size_ > kMaxSmallSize ? dims_pointer_[i] : dims_[i];
 6019              		.loc 3 215 0
 6020 0324 74FFFF0A 		beq	.L584
 6021              	.LVL765:
 6022              	.LBE1177:
 6023              	.LBE1230:
  50:C:/Renesas/e2studio_2021_01_workspace_RZA2M_ANPR/ANPR_RZA2M_GR_MANGO/src/tensorflow_lite/src/tensorflow/lite/kernels/internal/reference\arg_min_max.h ****     outer_size *= input1_shape.Dims(i);
 6024              		.loc 2 50 0
 6025 0328 087093E5 		ldr	r7, [r3, #8]
 6026 032c 070056E1 		cmp	r6, r7
 6027 0330 71FFFF1A 		bne	.L584
  49:C:/Renesas/e2studio_2021_01_workspace_RZA2M_ANPR/ANPR_RZA2M_GR_MANGO/src/tensorflow_lite/src/tensorflow/lite/kernels/internal/reference\arg_min_max.h ****     TFLITE_DCHECK_EQ(input1_shape.Dims(i), output_shape.Dims(i));
 6028              		.loc 2 49 0
 6029 0334 020052E3 		cmp	r2, #2
  51:C:/Renesas/e2studio_2021_01_workspace_RZA2M_ANPR/ANPR_RZA2M_GR_MANGO/src/tensorflow_lite/src/tensorflow/lite/kernels/internal/reference\arg_min_max.h ****   }
 6030              		.loc 2 51 0
 6031 0338 960909E0 		mul	r9, r6, r9
 6032              	.LVL766:
  49:C:/Renesas/e2studio_2021_01_workspace_RZA2M_ANPR/ANPR_RZA2M_GR_MANGO/src/tensorflow_lite/src/tensorflow/lite/kernels/internal/reference\arg_min_max.h ****     TFLITE_DCHECK_EQ(input1_shape.Dims(i), output_shape.Dims(i));
 6033              		.loc 2 49 0
 6034 033c 1A00000A 		beq	.L595
 6035              	.LVL767:
 6036              	.LBB1231:
 6037              	.LBB1178:
 215:C:/Renesas/e2studio_2021_01_workspace_RZA2M_ANPR/ANPR_RZA2M_GR_MANGO/src/tensorflow_lite/src/tensorflow/lite/kernels/internal\types.h ****     return size_ > kMaxSmallSize ? dims_pointer_[i] : dims_[i];
 6038              		.loc 3 215 0
 6039 0340 020054E3 		cmp	r4, #2
 6040              	.LBE1178:
 6041              	.LBE1231:
 6042              	.LBB1232:
 6043              	.LBB1201:
 6044              		.loc 3 216 0
 6045 0344 086095E5 		ldr	r6, [r5, #8]
 6046              	.LVL768:
 6047              	.LBE1201:
 6048              	.LBE1232:
 6049              	.LBB1233:
 6050              	.LBB1179:
 215:C:/Renesas/e2studio_2021_01_workspace_RZA2M_ANPR/ANPR_RZA2M_GR_MANGO/src/tensorflow_lite/src/tensorflow/lite/kernels/internal\types.h ****     return size_ > kMaxSmallSize ? dims_pointer_[i] : dims_[i];
 6051              		.loc 3 215 0
 6052 0348 6BFFFF0A 		beq	.L584
 6053              	.LVL769:
 6054              	.LBE1179:
 6055              	.LBE1233:
  50:C:/Renesas/e2studio_2021_01_workspace_RZA2M_ANPR/ANPR_RZA2M_GR_MANGO/src/tensorflow_lite/src/tensorflow/lite/kernels/internal/reference\arg_min_max.h ****     outer_size *= input1_shape.Dims(i);
 6056              		.loc 2 50 0
 6057 034c 0C7093E5 		ldr	r7, [r3, #12]
 6058 0350 070056E1 		cmp	r6, r7
 6059 0354 68FFFF1A 		bne	.L584
  49:C:/Renesas/e2studio_2021_01_workspace_RZA2M_ANPR/ANPR_RZA2M_GR_MANGO/src/tensorflow_lite/src/tensorflow/lite/kernels/internal/reference\arg_min_max.h ****     TFLITE_DCHECK_EQ(input1_shape.Dims(i), output_shape.Dims(i));
 6060              		.loc 2 49 0
 6061 0358 030052E3 		cmp	r2, #3
  51:C:/Renesas/e2studio_2021_01_workspace_RZA2M_ANPR/ANPR_RZA2M_GR_MANGO/src/tensorflow_lite/src/tensorflow/lite/kernels/internal/reference\arg_min_max.h ****   }
 6062              		.loc 2 51 0
 6063 035c 960909E0 		mul	r9, r6, r9
 6064              	.LVL770:
  49:C:/Renesas/e2studio_2021_01_workspace_RZA2M_ANPR/ANPR_RZA2M_GR_MANGO/src/tensorflow_lite/src/tensorflow/lite/kernels/internal/reference\arg_min_max.h ****     TFLITE_DCHECK_EQ(input1_shape.Dims(i), output_shape.Dims(i));
 6065              		.loc 2 49 0
 6066 0360 1100000A 		beq	.L595
 6067              	.LVL771:
 6068              	.LBB1234:
 6069              	.LBB1180:
 215:C:/Renesas/e2studio_2021_01_workspace_RZA2M_ANPR/ANPR_RZA2M_GR_MANGO/src/tensorflow_lite/src/tensorflow/lite/kernels/internal\types.h ****     return size_ > kMaxSmallSize ? dims_pointer_[i] : dims_[i];
 6070              		.loc 3 215 0
 6071 0364 030054E3 		cmp	r4, #3
 6072              	.LBE1180:
 6073              	.LBE1234:
 6074              	.LBB1235:
 6075              	.LBB1202:
 6076              		.loc 3 216 0
 6077 0368 0C6095E5 		ldr	r6, [r5, #12]
 6078              	.LVL772:
 6079              	.LBE1202:
 6080              	.LBE1235:
 6081              	.LBB1236:
 6082              	.LBB1181:
 215:C:/Renesas/e2studio_2021_01_workspace_RZA2M_ANPR/ANPR_RZA2M_GR_MANGO/src/tensorflow_lite/src/tensorflow/lite/kernels/internal\types.h ****     return size_ > kMaxSmallSize ? dims_pointer_[i] : dims_[i];
 6083              		.loc 3 215 0
 6084 036c 62FFFF0A 		beq	.L584
 6085              	.LVL773:
 6086              	.LBE1181:
 6087              	.LBE1236:
  50:C:/Renesas/e2studio_2021_01_workspace_RZA2M_ANPR/ANPR_RZA2M_GR_MANGO/src/tensorflow_lite/src/tensorflow/lite/kernels/internal/reference\arg_min_max.h ****     outer_size *= input1_shape.Dims(i);
 6088              		.loc 2 50 0
 6089 0370 107093E5 		ldr	r7, [r3, #16]
 6090 0374 070056E1 		cmp	r6, r7
 6091 0378 5FFFFF1A 		bne	.L584
  49:C:/Renesas/e2studio_2021_01_workspace_RZA2M_ANPR/ANPR_RZA2M_GR_MANGO/src/tensorflow_lite/src/tensorflow/lite/kernels/internal/reference\arg_min_max.h ****     TFLITE_DCHECK_EQ(input1_shape.Dims(i), output_shape.Dims(i));
 6092              		.loc 2 49 0
 6093 037c 040052E3 		cmp	r2, #4
  51:C:/Renesas/e2studio_2021_01_workspace_RZA2M_ANPR/ANPR_RZA2M_GR_MANGO/src/tensorflow_lite/src/tensorflow/lite/kernels/internal/reference\arg_min_max.h ****   }
 6094              		.loc 2 51 0
 6095 0380 960909E0 		mul	r9, r6, r9
 6096              	.LVL774:
  49:C:/Renesas/e2studio_2021_01_workspace_RZA2M_ANPR/ANPR_RZA2M_GR_MANGO/src/tensorflow_lite/src/tensorflow/lite/kernels/internal/reference\arg_min_max.h ****     TFLITE_DCHECK_EQ(input1_shape.Dims(i), output_shape.Dims(i));
 6097              		.loc 2 49 0
 6098 0384 0800000A 		beq	.L595
 6099              	.LVL775:
 6100              	.LBB1237:
 6101              	.LBB1182:
 215:C:/Renesas/e2studio_2021_01_workspace_RZA2M_ANPR/ANPR_RZA2M_GR_MANGO/src/tensorflow_lite/src/tensorflow/lite/kernels/internal\types.h ****     return size_ > kMaxSmallSize ? dims_pointer_[i] : dims_[i];
 6102              		.loc 3 215 0
 6103 0388 050054E3 		cmp	r4, #5
 6104              	.LBE1182:
 6105              	.LBE1237:
 6106              	.LBB1238:
 6107              	.LBB1203:
 6108              		.loc 3 216 0
 6109 038c 105095E5 		ldr	r5, [r5, #16]
 6110              	.LVL776:
 6111              	.LBE1203:
 6112              	.LBE1238:
 6113              	.LBB1239:
 6114              	.LBB1183:
 215:C:/Renesas/e2studio_2021_01_workspace_RZA2M_ANPR/ANPR_RZA2M_GR_MANGO/src/tensorflow_lite/src/tensorflow/lite/kernels/internal\types.h ****     return size_ > kMaxSmallSize ? dims_pointer_[i] : dims_[i];
 6115              		.loc 3 215 0
 6116 0390 59FFFF1A 		bne	.L584
 6117              	.LVL777:
 6118              	.LBE1183:
 6119              	.LBE1239:
  50:C:/Renesas/e2studio_2021_01_workspace_RZA2M_ANPR/ANPR_RZA2M_GR_MANGO/src/tensorflow_lite/src/tensorflow/lite/kernels/internal/reference\arg_min_max.h ****     outer_size *= input1_shape.Dims(i);
 6120              		.loc 2 50 0
 6121 0394 146093E5 		ldr	r6, [r3, #20]
 6122 0398 060055E1 		cmp	r5, r6
 6123 039c 56FFFF1A 		bne	.L584
  49:C:/Renesas/e2studio_2021_01_workspace_RZA2M_ANPR/ANPR_RZA2M_GR_MANGO/src/tensorflow_lite/src/tensorflow/lite/kernels/internal/reference\arg_min_max.h ****     TFLITE_DCHECK_EQ(input1_shape.Dims(i), output_shape.Dims(i));
 6124              		.loc 2 49 0
 6125 03a0 050052E3 		cmp	r2, #5
  51:C:/Renesas/e2studio_2021_01_workspace_RZA2M_ANPR/ANPR_RZA2M_GR_MANGO/src/tensorflow_lite/src/tensorflow/lite/kernels/internal/reference\arg_min_max.h ****   }
 6126              		.loc 2 51 0
 6127 03a4 950909E0 		mul	r9, r5, r9
 6128              	.LVL778:
  49:C:/Renesas/e2studio_2021_01_workspace_RZA2M_ANPR/ANPR_RZA2M_GR_MANGO/src/tensorflow_lite/src/tensorflow/lite/kernels/internal/reference\arg_min_max.h ****     TFLITE_DCHECK_EQ(input1_shape.Dims(i), output_shape.Dims(i));
 6129              		.loc 2 49 0
 6130 03a8 53FFFF1A 		bne	.L584
 6131              	.LVL779:
 6132              	.L595:
 6133              	.LBE1360:
 6134              	.LBB1361:
  56:C:/Renesas/e2studio_2021_01_workspace_RZA2M_ANPR/ANPR_RZA2M_GR_MANGO/src/tensorflow_lite/src/tensorflow/lite/kernels/internal/reference\arg_min_max.h ****     TFLITE_DCHECK_EQ(input1_shape.Dims(i), output_shape.Dims(i - 1));
 6135              		.loc 2 56 0
 6136 03ac 012082E2 		add	r2, r2, #1
 6137              	.LVL780:
 6138 03b0 0C0052E1 		cmp	r2, ip
 6139 03b4 660000AA 		bge	.L628
 6140              	.LVL781:
 6141              	.L613:
 6142 03b8 040090E5 		ldr	r0, [r0, #4]
 6143              	.LVL782:
  57:C:/Renesas/e2studio_2021_01_workspace_RZA2M_ANPR/ANPR_RZA2M_GR_MANGO/src/tensorflow_lite/src/tensorflow/lite/kernels/internal/reference\arg_min_max.h ****     inner_size *= input1_shape.Dims(i);
 6144              		.loc 2 57 0
 6145 03bc 015042E2 		sub	r5, r2, #1
 6146              	.LBB1313:
 6147              	.LBB1279:
 215:C:/Renesas/e2studio_2021_01_workspace_RZA2M_ANPR/ANPR_RZA2M_GR_MANGO/src/tensorflow_lite/src/tensorflow/lite/kernels/internal\types.h ****     return size_ > kMaxSmallSize ? dims_pointer_[i] : dims_[i];
 6148              		.loc 3 215 0
 6149 03c0 050054E1 		cmp	r4, r5
 6150              	.LBE1279:
 6151              	.LBE1313:
 6152              	.LBB1314:
 6153              	.LBB1256:
 6154              		.loc 3 216 0
 6155 03c4 0261A0E1 		lsl	r6, r2, #2
 6156 03c8 028190E7 		ldr	r8, [r0, r2, lsl #2]
 6157              	.LVL783:
 6158              	.LBE1256:
 6159              	.LBE1314:
 6160              	.LBB1315:
 6161              	.LBB1280:
 215:C:/Renesas/e2studio_2021_01_workspace_RZA2M_ANPR/ANPR_RZA2M_GR_MANGO/src/tensorflow_lite/src/tensorflow/lite/kernels/internal\types.h ****     return size_ > kMaxSmallSize ? dims_pointer_[i] : dims_[i];
 6162              		.loc 3 215 0
 6163 03cc 4AFFFFDA 		ble	.L584
 6164              		.loc 3 216 0
 6165 03d0 055183E0 		add	r5, r3, r5, lsl #2
 6166              	.LVL784:
 6167 03d4 045095E5 		ldr	r5, [r5, #4]
 6168              	.LVL785:
 6169              	.LBE1280:
 6170              	.LBE1315:
  57:C:/Renesas/e2studio_2021_01_workspace_RZA2M_ANPR/ANPR_RZA2M_GR_MANGO/src/tensorflow_lite/src/tensorflow/lite/kernels/internal/reference\arg_min_max.h ****     inner_size *= input1_shape.Dims(i);
 6171              		.loc 2 57 0
 6172 03d8 050058E1 		cmp	r8, r5
 6173 03dc 46FFFF1A 		bne	.L584
 6174              	.LVL786:
  56:C:/Renesas/e2studio_2021_01_workspace_RZA2M_ANPR/ANPR_RZA2M_GR_MANGO/src/tensorflow_lite/src/tensorflow/lite/kernels/internal/reference\arg_min_max.h ****     TFLITE_DCHECK_EQ(input1_shape.Dims(i), output_shape.Dims(i - 1));
 6175              		.loc 2 56 0
 6176 03e0 015082E2 		add	r5, r2, #1
 6177              	.LVL787:
 6178 03e4 05005CE1 		cmp	ip, r5
 6179 03e8 95FFFFDA 		ble	.L604
 6180              	.LVL788:
 6181              	.LBB1316:
 6182              	.LBB1281:
 215:C:/Renesas/e2studio_2021_01_workspace_RZA2M_ANPR/ANPR_RZA2M_GR_MANGO/src/tensorflow_lite/src/tensorflow/lite/kernels/internal\types.h ****     return size_ > kMaxSmallSize ? dims_pointer_[i] : dims_[i];
 6183              		.loc 3 215 0
 6184 03ec 020054E1 		cmp	r4, r2
 6185              	.LBE1281:
 6186              	.LBE1316:
 6187              	.LBB1317:
 6188              	.LBB1257:
 6189              		.loc 3 216 0
 6190 03f0 060080E0 		add	r0, r0, r6
 6191 03f4 047090E5 		ldr	r7, [r0, #4]
 6192              	.LVL789:
 6193              	.LBE1257:
 6194              	.LBE1317:
 6195              	.LBB1318:
 6196              	.LBB1282:
 215:C:/Renesas/e2studio_2021_01_workspace_RZA2M_ANPR/ANPR_RZA2M_GR_MANGO/src/tensorflow_lite/src/tensorflow/lite/kernels/internal\types.h ****     return size_ > kMaxSmallSize ? dims_pointer_[i] : dims_[i];
 6197              		.loc 3 215 0
 6198 03f8 3FFFFFDA 		ble	.L584
 6199              		.loc 3 216 0
 6200 03fc 066083E0 		add	r6, r3, r6
 6201 0400 046096E5 		ldr	r6, [r6, #4]
 6202              	.LVL790:
 6203              	.LBE1282:
 6204              	.LBE1318:
  57:C:/Renesas/e2studio_2021_01_workspace_RZA2M_ANPR/ANPR_RZA2M_GR_MANGO/src/tensorflow_lite/src/tensorflow/lite/kernels/internal/reference\arg_min_max.h ****     inner_size *= input1_shape.Dims(i);
 6205              		.loc 2 57 0
 6206 0404 060057E1 		cmp	r7, r6
 6207 0408 3BFFFF1A 		bne	.L584
  56:C:/Renesas/e2studio_2021_01_workspace_RZA2M_ANPR/ANPR_RZA2M_GR_MANGO/src/tensorflow_lite/src/tensorflow/lite/kernels/internal/reference\arg_min_max.h ****     TFLITE_DCHECK_EQ(input1_shape.Dims(i), output_shape.Dims(i - 1));
 6208              		.loc 2 56 0
 6209 040c 026082E2 		add	r6, r2, #2
  58:C:/Renesas/e2studio_2021_01_workspace_RZA2M_ANPR/ANPR_RZA2M_GR_MANGO/src/tensorflow_lite/src/tensorflow/lite/kernels/internal/reference\arg_min_max.h ****   }
 6210              		.loc 2 58 0
 6211 0410 970808E0 		mul	r8, r7, r8
 6212              	.LVL791:
  56:C:/Renesas/e2studio_2021_01_workspace_RZA2M_ANPR/ANPR_RZA2M_GR_MANGO/src/tensorflow_lite/src/tensorflow/lite/kernels/internal/reference\arg_min_max.h ****     TFLITE_DCHECK_EQ(input1_shape.Dims(i), output_shape.Dims(i - 1));
 6213              		.loc 2 56 0
 6214 0414 06005CE1 		cmp	ip, r6
 6215 0418 89FFFFDA 		ble	.L604
 6216              	.LVL792:
 6217              	.LBB1319:
 6218              	.LBB1283:
 215:C:/Renesas/e2studio_2021_01_workspace_RZA2M_ANPR/ANPR_RZA2M_GR_MANGO/src/tensorflow_lite/src/tensorflow/lite/kernels/internal\types.h ****     return size_ > kMaxSmallSize ? dims_pointer_[i] : dims_[i];
 6219              		.loc 3 215 0
 6220 041c 050054E1 		cmp	r4, r5
 6221              	.LBE1283:
 6222              	.LBE1319:
 6223              	.LBB1320:
 6224              	.LBB1258:
 6225              		.loc 3 216 0
 6226 0420 087090E5 		ldr	r7, [r0, #8]
 6227              	.LVL793:
 6228              	.LBE1258:
 6229              	.LBE1320:
 6230              	.LBB1321:
 6231              	.LBB1284:
 215:C:/Renesas/e2studio_2021_01_workspace_RZA2M_ANPR/ANPR_RZA2M_GR_MANGO/src/tensorflow_lite/src/tensorflow/lite/kernels/internal\types.h ****     return size_ > kMaxSmallSize ? dims_pointer_[i] : dims_[i];
 6232              		.loc 3 215 0
 6233 0424 34FFFFDA 		ble	.L584
 6234              		.loc 3 216 0
 6235 0428 055183E0 		add	r5, r3, r5, lsl #2
 6236              	.LVL794:
 6237 042c 045095E5 		ldr	r5, [r5, #4]
 6238              	.LVL795:
 6239              	.LBE1284:
 6240              	.LBE1321:
  57:C:/Renesas/e2studio_2021_01_workspace_RZA2M_ANPR/ANPR_RZA2M_GR_MANGO/src/tensorflow_lite/src/tensorflow/lite/kernels/internal/reference\arg_min_max.h ****     inner_size *= input1_shape.Dims(i);
 6241              		.loc 2 57 0
 6242 0430 050057E1 		cmp	r7, r5
 6243 0434 30FFFF1A 		bne	.L584
 6244              	.LVL796:
  56:C:/Renesas/e2studio_2021_01_workspace_RZA2M_ANPR/ANPR_RZA2M_GR_MANGO/src/tensorflow_lite/src/tensorflow/lite/kernels/internal/reference\arg_min_max.h ****     TFLITE_DCHECK_EQ(input1_shape.Dims(i), output_shape.Dims(i - 1));
 6245              		.loc 2 56 0
 6246 0438 035082E2 		add	r5, r2, #3
  58:C:/Renesas/e2studio_2021_01_workspace_RZA2M_ANPR/ANPR_RZA2M_GR_MANGO/src/tensorflow_lite/src/tensorflow/lite/kernels/internal/reference\arg_min_max.h ****   }
 6247              		.loc 2 58 0
 6248 043c 970808E0 		mul	r8, r7, r8
 6249              	.LVL797:
  56:C:/Renesas/e2studio_2021_01_workspace_RZA2M_ANPR/ANPR_RZA2M_GR_MANGO/src/tensorflow_lite/src/tensorflow/lite/kernels/internal/reference\arg_min_max.h ****     TFLITE_DCHECK_EQ(input1_shape.Dims(i), output_shape.Dims(i - 1));
 6250              		.loc 2 56 0
 6251 0440 05005CE1 		cmp	ip, r5
 6252 0444 7EFFFFDA 		ble	.L604
 6253              	.LVL798:
 6254              	.LBB1322:
 6255              	.LBB1285:
 215:C:/Renesas/e2studio_2021_01_workspace_RZA2M_ANPR/ANPR_RZA2M_GR_MANGO/src/tensorflow_lite/src/tensorflow/lite/kernels/internal\types.h ****     return size_ > kMaxSmallSize ? dims_pointer_[i] : dims_[i];
 6256              		.loc 3 215 0
 6257 0448 060054E1 		cmp	r4, r6
 6258              	.LBE1285:
 6259              	.LBE1322:
 6260              	.LBB1323:
 6261              	.LBB1259:
 6262              		.loc 3 216 0
 6263 044c 0C7090E5 		ldr	r7, [r0, #12]
 6264              	.LVL799:
 6265              	.LBE1259:
 6266              	.LBE1323:
 6267              	.LBB1324:
 6268              	.LBB1286:
 215:C:/Renesas/e2studio_2021_01_workspace_RZA2M_ANPR/ANPR_RZA2M_GR_MANGO/src/tensorflow_lite/src/tensorflow/lite/kernels/internal\types.h ****     return size_ > kMaxSmallSize ? dims_pointer_[i] : dims_[i];
 6269              		.loc 3 215 0
 6270 0450 29FFFFDA 		ble	.L584
 6271              		.loc 3 216 0
 6272 0454 066183E0 		add	r6, r3, r6, lsl #2
 6273              	.LVL800:
 6274 0458 046096E5 		ldr	r6, [r6, #4]
 6275              	.LVL801:
 6276              	.LBE1286:
 6277              	.LBE1324:
  57:C:/Renesas/e2studio_2021_01_workspace_RZA2M_ANPR/ANPR_RZA2M_GR_MANGO/src/tensorflow_lite/src/tensorflow/lite/kernels/internal/reference\arg_min_max.h ****     inner_size *= input1_shape.Dims(i);
 6278              		.loc 2 57 0
 6279 045c 060057E1 		cmp	r7, r6
 6280 0460 25FFFF1A 		bne	.L584
 6281              	.LVL802:
  56:C:/Renesas/e2studio_2021_01_workspace_RZA2M_ANPR/ANPR_RZA2M_GR_MANGO/src/tensorflow_lite/src/tensorflow/lite/kernels/internal/reference\arg_min_max.h ****     TFLITE_DCHECK_EQ(input1_shape.Dims(i), output_shape.Dims(i - 1));
 6282              		.loc 2 56 0
 6283 0464 042082E2 		add	r2, r2, #4
  58:C:/Renesas/e2studio_2021_01_workspace_RZA2M_ANPR/ANPR_RZA2M_GR_MANGO/src/tensorflow_lite/src/tensorflow/lite/kernels/internal/reference\arg_min_max.h ****   }
 6284              		.loc 2 58 0
 6285 0468 970808E0 		mul	r8, r7, r8
 6286              	.LVL803:
  56:C:/Renesas/e2studio_2021_01_workspace_RZA2M_ANPR/ANPR_RZA2M_GR_MANGO/src/tensorflow_lite/src/tensorflow/lite/kernels/internal/reference\arg_min_max.h ****     TFLITE_DCHECK_EQ(input1_shape.Dims(i), output_shape.Dims(i - 1));
 6287              		.loc 2 56 0
 6288 046c 02005CE1 		cmp	ip, r2
 6289 0470 73FFFFDA 		ble	.L604
 6290              	.LVL804:
 6291              	.LBB1325:
 6292              	.LBB1287:
 215:C:/Renesas/e2studio_2021_01_workspace_RZA2M_ANPR/ANPR_RZA2M_GR_MANGO/src/tensorflow_lite/src/tensorflow/lite/kernels/internal\types.h ****     return size_ > kMaxSmallSize ? dims_pointer_[i] : dims_[i];
 6293              		.loc 3 215 0
 6294 0474 040055E1 		cmp	r5, r4
 6295              	.LBE1287:
 6296              	.LBE1325:
 6297              	.LBB1326:
 6298              	.LBB1260:
 6299              		.loc 3 216 0
 6300 0478 102090E5 		ldr	r2, [r0, #16]
 6301              	.LVL805:
 6302              	.LBE1260:
 6303              	.LBE1326:
 6304              	.LBB1327:
 6305              	.LBB1288:
 215:C:/Renesas/e2studio_2021_01_workspace_RZA2M_ANPR/ANPR_RZA2M_GR_MANGO/src/tensorflow_lite/src/tensorflow/lite/kernels/internal\types.h ****     return size_ > kMaxSmallSize ? dims_pointer_[i] : dims_[i];
 6306              		.loc 3 215 0
 6307 047c 1EFFFFAA 		bge	.L584
 6308              		.loc 3 216 0
 6309 0480 053183E0 		add	r3, r3, r5, lsl #2
 6310              	.LVL806:
 6311 0484 043093E5 		ldr	r3, [r3, #4]
 6312              	.LVL807:
 6313              	.LBE1288:
 6314              	.LBE1327:
  57:C:/Renesas/e2studio_2021_01_workspace_RZA2M_ANPR/ANPR_RZA2M_GR_MANGO/src/tensorflow_lite/src/tensorflow/lite/kernels/internal/reference\arg_min_max.h ****     inner_size *= input1_shape.Dims(i);
 6315              		.loc 2 57 0
 6316 0488 020053E1 		cmp	r3, r2
 6317 048c 1AFFFF1A 		bne	.L584
 6318              	.LVL808:
  58:C:/Renesas/e2studio_2021_01_workspace_RZA2M_ANPR/ANPR_RZA2M_GR_MANGO/src/tensorflow_lite/src/tensorflow/lite/kernels/internal/reference\arg_min_max.h ****   }
 6319              		.loc 2 58 0
 6320 0490 930808E0 		mul	r8, r3, r8
 6321              	.LVL809:
 6322 0494 6AFFFFEA 		b	.L604
 6323              	.LVL810:
 6324              	.L721:
 6325              	.LBE1361:
 6326              	.LBB1362:
 6327              	.LBB1162:
 214:C:/Renesas/e2studio_2021_01_workspace_RZA2M_ANPR/ANPR_RZA2M_GR_MANGO/src/tensorflow_lite/src/tensorflow/lite/kernels/internal\types.h ****     TFLITE_DCHECK_LT(i, size_);
 6328              		.loc 3 214 0
 6329 0498 0C2092E0 		adds	r2, r2, ip
 6330              	.LVL811:
 6331 049c E3FEFF5A 		bpl	.L585
 6332 04a0 15FFFFEA 		b	.L584
 6333              	.LVL812:
 6334              	.L594:
 6335 04a4 046045E2 		sub	r6, r5, #4
 6336              	.LBE1162:
 6337              	.LBE1362:
 6338              	.LBB1363:
  49:C:/Renesas/e2studio_2021_01_workspace_RZA2M_ANPR/ANPR_RZA2M_GR_MANGO/src/tensorflow_lite/src/tensorflow/lite/kernels/internal/reference\arg_min_max.h ****     TFLITE_DCHECK_EQ(input1_shape.Dims(i), output_shape.Dims(i));
 6339              		.loc 2 49 0
 6340 04a8 0190A0E3 		mov	r9, #1
 6341 04ac 0050A0E3 		mov	r5, #0
 6342 04b0 010000EA 		b	.L590
 6343              	.LVL813:
 6344              	.L714:
 6345              	.LBB1240:
 6346              	.LBB1204:
 215:C:/Renesas/e2studio_2021_01_workspace_RZA2M_ANPR/ANPR_RZA2M_GR_MANGO/src/tensorflow_lite/src/tensorflow/lite/kernels/internal\types.h ****     return size_ > kMaxSmallSize ? dims_pointer_[i] : dims_[i];
 6347              		.loc 3 215 0
 6348 04b4 0C0055E1 		cmp	r5, ip
 6349 04b8 0FFFFF0A 		beq	.L584
 6350              	.LVL814:
 6351              	.L590:
 6352              	.LBE1204:
 6353              	.LBE1240:
 6354              	.LBB1241:
 6355              	.LBB1184:
 6356 04bc 040055E1 		cmp	r5, r4
 6357              	.LBE1184:
 6358              	.LBE1241:
 6359              	.LBB1242:
 6360              	.LBB1205:
 6361              		.loc 3 216 0
 6362 04c0 0480B6E5 		ldr	r8, [r6, #4]!
 6363              	.LVL815:
 6364              	.LBE1205:
 6365              	.LBE1242:
 6366              	.LBB1243:
 6367              	.LBB1185:
 215:C:/Renesas/e2studio_2021_01_workspace_RZA2M_ANPR/ANPR_RZA2M_GR_MANGO/src/tensorflow_lite/src/tensorflow/lite/kernels/internal\types.h ****     return size_ > kMaxSmallSize ? dims_pointer_[i] : dims_[i];
 6368              		.loc 3 215 0
 6369 04c4 0CFFFF0A 		beq	.L584
 6370              		.loc 3 216 0
 6371 04c8 047093E5 		ldr	r7, [r3, #4]
 6372 04cc 057197E7 		ldr	r7, [r7, r5, lsl #2]
 6373              	.LVL816:
 6374              	.LBE1185:
 6375              	.LBE1243:
  50:C:/Renesas/e2studio_2021_01_workspace_RZA2M_ANPR/ANPR_RZA2M_GR_MANGO/src/tensorflow_lite/src/tensorflow/lite/kernels/internal/reference\arg_min_max.h ****     outer_size *= input1_shape.Dims(i);
 6376              		.loc 2 50 0
 6377 04d0 080057E1 		cmp	r7, r8
 6378 04d4 08FFFF1A 		bne	.L584
  49:C:/Renesas/e2studio_2021_01_workspace_RZA2M_ANPR/ANPR_RZA2M_GR_MANGO/src/tensorflow_lite/src/tensorflow/lite/kernels/internal/reference\arg_min_max.h ****     TFLITE_DCHECK_EQ(input1_shape.Dims(i), output_shape.Dims(i));
 6379              		.loc 2 49 0
 6380 04d8 015085E2 		add	r5, r5, #1
 6381              	.LVL817:
  51:C:/Renesas/e2studio_2021_01_workspace_RZA2M_ANPR/ANPR_RZA2M_GR_MANGO/src/tensorflow_lite/src/tensorflow/lite/kernels/internal/reference\arg_min_max.h ****   }
 6382              		.loc 2 51 0
 6383 04dc 970909E0 		mul	r9, r7, r9
 6384              	.LVL818:
  49:C:/Renesas/e2studio_2021_01_workspace_RZA2M_ANPR/ANPR_RZA2M_GR_MANGO/src/tensorflow_lite/src/tensorflow/lite/kernels/internal/reference\arg_min_max.h ****     TFLITE_DCHECK_EQ(input1_shape.Dims(i), output_shape.Dims(i));
 6385              		.loc 2 49 0
 6386 04e0 020055E1 		cmp	r5, r2
 6387 04e4 F2FFFF1A 		bne	.L714
 6388              	.LVL819:
 6389              	.LBE1363:
 6390              	.LBB1364:
  56:C:/Renesas/e2studio_2021_01_workspace_RZA2M_ANPR/ANPR_RZA2M_GR_MANGO/src/tensorflow_lite/src/tensorflow/lite/kernels/internal/reference\arg_min_max.h ****     TFLITE_DCHECK_EQ(input1_shape.Dims(i), output_shape.Dims(i - 1));
 6391              		.loc 2 56 0
 6392 04e8 012085E2 		add	r2, r5, #1
 6393              	.LVL820:
 6394 04ec 0C0052E1 		cmp	r2, ip
 6395 04f0 170000AA 		bge	.L628
 6396              	.LVL821:
 6397              	.L602:
 6398 04f4 040090E5 		ldr	r0, [r0, #4]
 6399              	.LVL822:
 6400              	.LBB1328:
 6401              	.LBB1289:
 6402              		.loc 3 216 0
 6403 04f8 0760E0E3 		mvn	r6, #7
 6404              	.LBE1289:
 6405              	.LBE1328:
 6406              	.LBE1364:
  48:C:/Renesas/e2studio_2021_01_workspace_RZA2M_ANPR/ANPR_RZA2M_GR_MANGO/src/tensorflow_lite/src/tensorflow/lite/kernels/internal/reference\arg_min_max.h ****   for (int i = 0; i < axis; ++i) {
 6407              		.loc 2 48 0
 6408 04fc 0180A0E3 		mov	r8, #1
 6409              	.LBB1365:
 6410              	.LBB1329:
 6411              	.LBB1290:
 6412              		.loc 3 216 0
 6413 0500 006046E0 		sub	r6, r6, r0
 6414 0504 020180E0 		add	r0, r0, r2, lsl #2
 6415              	.LVL823:
 6416              	.L603:
 215:C:/Renesas/e2studio_2021_01_workspace_RZA2M_ANPR/ANPR_RZA2M_GR_MANGO/src/tensorflow_lite/src/tensorflow/lite/kernels/internal\types.h ****     return size_ > kMaxSmallSize ? dims_pointer_[i] : dims_[i];
 6417              		.loc 3 215 0
 6418 0508 015042E2 		sub	r5, r2, #1
 6419              	.LBE1290:
 6420              	.LBE1329:
 6421              	.LBB1330:
 6422              	.LBB1261:
 6423              		.loc 3 216 0
 6424 050c 047090E4 		ldr	r7, [r0], #4
 6425              	.LVL824:
 6426              	.LBE1261:
 6427              	.LBE1330:
 6428              	.LBB1331:
 6429              	.LBB1291:
 215:C:/Renesas/e2studio_2021_01_workspace_RZA2M_ANPR/ANPR_RZA2M_GR_MANGO/src/tensorflow_lite/src/tensorflow/lite/kernels/internal\types.h ****     return size_ > kMaxSmallSize ? dims_pointer_[i] : dims_[i];
 6430              		.loc 3 215 0
 6431 0510 050054E1 		cmp	r4, r5
 6432 0514 F8FEFFDA 		ble	.L584
 6433              		.loc 3 216 0
 6434 0518 045093E5 		ldr	r5, [r3, #4]
 6435              	.LVL825:
 6436 051c 005085E0 		add	r5, r5, r0
 6437 0520 065095E7 		ldr	r5, [r5, r6]
 6438              	.LVL826:
 6439              	.LBE1291:
 6440              	.LBE1331:
  57:C:/Renesas/e2studio_2021_01_workspace_RZA2M_ANPR/ANPR_RZA2M_GR_MANGO/src/tensorflow_lite/src/tensorflow/lite/kernels/internal/reference\arg_min_max.h ****     inner_size *= input1_shape.Dims(i);
 6441              		.loc 2 57 0
 6442 0524 070055E1 		cmp	r5, r7
 6443 0528 F3FEFF1A 		bne	.L584
 6444              	.LVL827:
  56:C:/Renesas/e2studio_2021_01_workspace_RZA2M_ANPR/ANPR_RZA2M_GR_MANGO/src/tensorflow_lite/src/tensorflow/lite/kernels/internal/reference\arg_min_max.h ****     TFLITE_DCHECK_EQ(input1_shape.Dims(i), output_shape.Dims(i - 1));
 6445              		.loc 2 56 0
 6446 052c 012082E2 		add	r2, r2, #1
 6447              	.LVL828:
  58:C:/Renesas/e2studio_2021_01_workspace_RZA2M_ANPR/ANPR_RZA2M_GR_MANGO/src/tensorflow_lite/src/tensorflow/lite/kernels/internal/reference\arg_min_max.h ****   }
 6448              		.loc 2 58 0
 6449 0530 950808E0 		mul	r8, r5, r8
 6450              	.LVL829:
  56:C:/Renesas/e2studio_2021_01_workspace_RZA2M_ANPR/ANPR_RZA2M_GR_MANGO/src/tensorflow_lite/src/tensorflow/lite/kernels/internal/reference\arg_min_max.h ****     TFLITE_DCHECK_EQ(input1_shape.Dims(i), output_shape.Dims(i - 1));
 6451              		.loc 2 56 0
 6452 0534 0C0052E1 		cmp	r2, ip
 6453 0538 F2FFFFBA 		blt	.L603
 6454 053c 40FFFFEA 		b	.L604
 6455              	.LVL830:
 6456              	.L623:
 6457              	.LBE1365:
 6458              	.LBB1366:
 6459              	.LBB1355:
  61:C:/Renesas/e2studio_2021_01_workspace_RZA2M_ANPR/ANPR_RZA2M_GR_MANGO/src/tensorflow_lite/src/tensorflow/lite/kernels/internal/reference\arg_min_max.h ****       auto min_max_value = input1_data[outer * axis_size * inner_size + inner];
 6460              		.loc 2 61 0
 6461 0540 060054E1 		cmp	r4, r6
 6462              	.LBB1354:
  63:C:/Renesas/e2studio_2021_01_workspace_RZA2M_ANPR/ANPR_RZA2M_GR_MANGO/src/tensorflow_lite/src/tensorflow/lite/kernels/internal/reference\arg_min_max.h ****       for (int i = 1; i < axis_size; ++i) {
 6463              		.loc 2 63 0
 6464 0544 0000A0E3 		mov	r0, #0
  72:C:/Renesas/e2studio_2021_01_workspace_RZA2M_ANPR/ANPR_RZA2M_GR_MANGO/src/tensorflow_lite/src/tensorflow/lite/kernels/internal/reference\arg_min_max.h ****     }
 6465              		.loc 2 72 0
 6466 0548 040085E4 		str	r0, [r5], #4
 6467              	.LVL831:
 6468              	.LBE1354:
  61:C:/Renesas/e2studio_2021_01_workspace_RZA2M_ANPR/ANPR_RZA2M_GR_MANGO/src/tensorflow_lite/src/tensorflow/lite/kernels/internal/reference\arg_min_max.h ****       auto min_max_value = input1_data[outer * axis_size * inner_size + inner];
 6469              		.loc 2 61 0
 6470 054c 4AFFFF1A 		bne	.L606
 6471 0550 5AFFFFEA 		b	.L723
 6472              	.LVL832:
 6473              	.L628:
 6474              	.LBE1355:
 6475              	.LBE1366:
  54:C:/Renesas/e2studio_2021_01_workspace_RZA2M_ANPR/ANPR_RZA2M_GR_MANGO/src/tensorflow_lite/src/tensorflow/lite/kernels/internal/reference\arg_min_max.h ****   const int dims_count = input1_shape.DimensionsCount();
 6476              		.loc 2 54 0
 6477 0554 0180A0E3 		mov	r8, #1
 6478 0558 39FFFFEA 		b	.L604
 6479              	.LVL833:
 6480              	.L592:
 6481              	.LBB1367:
  56:C:/Renesas/e2studio_2021_01_workspace_RZA2M_ANPR/ANPR_RZA2M_GR_MANGO/src/tensorflow_lite/src/tensorflow/lite/kernels/internal/reference\arg_min_max.h ****     TFLITE_DCHECK_EQ(input1_shape.Dims(i), output_shape.Dims(i - 1));
 6482              		.loc 2 56 0
 6483 055c 012082E2 		add	r2, r2, #1
 6484              	.LVL834:
 6485 0560 02005CE1 		cmp	ip, r2
 6486 0564 FAFFFFDA 		ble	.L628
 6487              	.LVL835:
 6488              	.L614:
 6489              	.LBB1332:
 6490              	.LBB1262:
 6491              		.loc 3 216 0
 6492 0568 0251A0E1 		lsl	r5, r2, #2
 6493              	.LBE1262:
 6494              	.LBE1332:
  57:C:/Renesas/e2studio_2021_01_workspace_RZA2M_ANPR/ANPR_RZA2M_GR_MANGO/src/tensorflow_lite/src/tensorflow/lite/kernels/internal/reference\arg_min_max.h ****     inner_size *= input1_shape.Dims(i);
 6495              		.loc 2 57 0
 6496 056c 016042E2 		sub	r6, r2, #1
 6497              	.LBB1333:
 6498              	.LBB1292:
 215:C:/Renesas/e2studio_2021_01_workspace_RZA2M_ANPR/ANPR_RZA2M_GR_MANGO/src/tensorflow_lite/src/tensorflow/lite/kernels/internal\types.h ****     return size_ > kMaxSmallSize ? dims_pointer_[i] : dims_[i];
 6499              		.loc 3 215 0
 6500 0570 060054E1 		cmp	r4, r6
 6501              	.LBE1292:
 6502              	.LBE1333:
 6503              	.LBB1334:
 6504              	.LBB1263:
 6505              		.loc 3 216 0
 6506 0574 057080E0 		add	r7, r0, r5
 6507 0578 047097E5 		ldr	r7, [r7, #4]
 6508              	.LVL836:
 6509              	.LBE1263:
 6510              	.LBE1334:
 6511              	.LBB1335:
 6512              	.LBB1293:
 215:C:/Renesas/e2studio_2021_01_workspace_RZA2M_ANPR/ANPR_RZA2M_GR_MANGO/src/tensorflow_lite/src/tensorflow/lite/kernels/internal\types.h ****     return size_ > kMaxSmallSize ? dims_pointer_[i] : dims_[i];
 6513              		.loc 3 215 0
 6514 057c DEFEFFDA 		ble	.L584
 6515              		.loc 3 216 0
 6516 0580 066183E0 		add	r6, r3, r6, lsl #2
 6517              	.LVL837:
 6518 0584 048096E5 		ldr	r8, [r6, #4]
 6519              	.LVL838:
 6520              	.LBE1293:
 6521              	.LBE1335:
  57:C:/Renesas/e2studio_2021_01_workspace_RZA2M_ANPR/ANPR_RZA2M_GR_MANGO/src/tensorflow_lite/src/tensorflow/lite/kernels/internal/reference\arg_min_max.h ****     inner_size *= input1_shape.Dims(i);
 6522              		.loc 2 57 0
 6523 0588 070058E1 		cmp	r8, r7
 6524 058c DAFEFF1A 		bne	.L584
 6525              	.LVL839:
  56:C:/Renesas/e2studio_2021_01_workspace_RZA2M_ANPR/ANPR_RZA2M_GR_MANGO/src/tensorflow_lite/src/tensorflow/lite/kernels/internal/reference\arg_min_max.h ****     TFLITE_DCHECK_EQ(input1_shape.Dims(i), output_shape.Dims(i - 1));
 6526              		.loc 2 56 0
 6527 0590 01A082E2 		add	r10, r2, #1
 6528              	.LVL840:
 6529 0594 0A005CE1 		cmp	ip, r10
 6530 0598 29FFFFDA 		ble	.L604
 6531              	.LVL841:
 6532              	.LBB1336:
 6533              	.LBB1264:
 6534              		.loc 3 216 0
 6535 059c 0A61A0E1 		lsl	r6, r10, #2
 6536              	.LBE1264:
 6537              	.LBE1336:
 6538              	.LBB1337:
 6539              	.LBB1294:
 215:C:/Renesas/e2studio_2021_01_workspace_RZA2M_ANPR/ANPR_RZA2M_GR_MANGO/src/tensorflow_lite/src/tensorflow/lite/kernels/internal\types.h ****     return size_ > kMaxSmallSize ? dims_pointer_[i] : dims_[i];
 6540              		.loc 3 215 0
 6541 05a0 020054E1 		cmp	r4, r2
 6542              	.LBE1294:
 6543              	.LBE1337:
 6544              	.LBB1338:
 6545              	.LBB1265:
 6546              		.loc 3 216 0
 6547 05a4 067080E0 		add	r7, r0, r6
 6548 05a8 04B097E5 		ldr	fp, [r7, #4]
 6549              	.LVL842:
 6550              	.LBE1265:
 6551              	.LBE1338:
 6552              	.LBB1339:
 6553              	.LBB1295:
 215:C:/Renesas/e2studio_2021_01_workspace_RZA2M_ANPR/ANPR_RZA2M_GR_MANGO/src/tensorflow_lite/src/tensorflow/lite/kernels/internal\types.h ****     return size_ > kMaxSmallSize ? dims_pointer_[i] : dims_[i];
 6554              		.loc 3 215 0
 6555 05ac D2FEFFDA 		ble	.L584
 6556              		.loc 3 216 0
 6557 05b0 055083E0 		add	r5, r3, r5
 6558 05b4 045095E5 		ldr	r5, [r5, #4]
 6559              	.LVL843:
 6560              	.LBE1295:
 6561              	.LBE1339:
  57:C:/Renesas/e2studio_2021_01_workspace_RZA2M_ANPR/ANPR_RZA2M_GR_MANGO/src/tensorflow_lite/src/tensorflow/lite/kernels/internal/reference\arg_min_max.h ****     inner_size *= input1_shape.Dims(i);
 6562              		.loc 2 57 0
 6563 05b8 05005BE1 		cmp	fp, r5
 6564 05bc CEFEFF1A 		bne	.L584
  56:C:/Renesas/e2studio_2021_01_workspace_RZA2M_ANPR/ANPR_RZA2M_GR_MANGO/src/tensorflow_lite/src/tensorflow/lite/kernels/internal/reference\arg_min_max.h ****     TFLITE_DCHECK_EQ(input1_shape.Dims(i), output_shape.Dims(i - 1));
 6565              		.loc 2 56 0
 6566 05c0 027082E2 		add	r7, r2, #2
  58:C:/Renesas/e2studio_2021_01_workspace_RZA2M_ANPR/ANPR_RZA2M_GR_MANGO/src/tensorflow_lite/src/tensorflow/lite/kernels/internal/reference\arg_min_max.h ****   }
 6567              		.loc 2 58 0
 6568 05c4 9B0808E0 		mul	r8, fp, r8
 6569              	.LVL844:
  56:C:/Renesas/e2studio_2021_01_workspace_RZA2M_ANPR/ANPR_RZA2M_GR_MANGO/src/tensorflow_lite/src/tensorflow/lite/kernels/internal/reference\arg_min_max.h ****     TFLITE_DCHECK_EQ(input1_shape.Dims(i), output_shape.Dims(i - 1));
 6570              		.loc 2 56 0
 6571 05c8 07005CE1 		cmp	ip, r7
 6572 05cc 1CFFFFDA 		ble	.L604
 6573              	.LVL845:
 6574              	.LBB1340:
 6575              	.LBB1266:
 6576              		.loc 3 216 0
 6577 05d0 0751A0E1 		lsl	r5, r7, #2
 6578              	.LBE1266:
 6579              	.LBE1340:
 6580              	.LBB1341:
 6581              	.LBB1296:
 215:C:/Renesas/e2studio_2021_01_workspace_RZA2M_ANPR/ANPR_RZA2M_GR_MANGO/src/tensorflow_lite/src/tensorflow/lite/kernels/internal\types.h ****     return size_ > kMaxSmallSize ? dims_pointer_[i] : dims_[i];
 6582              		.loc 3 215 0
 6583 05d4 0A0054E1 		cmp	r4, r10
 6584              	.LBE1296:
 6585              	.LBE1341:
 6586              	.LBB1342:
 6587              	.LBB1267:
 6588              		.loc 3 216 0
 6589 05d8 05A080E0 		add	r10, r0, r5
 6590 05dc 04A09AE5 		ldr	r10, [r10, #4]
 6591              	.LVL846:
 6592              	.LBE1267:
 6593              	.LBE1342:
 6594              	.LBB1343:
 6595              	.LBB1297:
 215:C:/Renesas/e2studio_2021_01_workspace_RZA2M_ANPR/ANPR_RZA2M_GR_MANGO/src/tensorflow_lite/src/tensorflow/lite/kernels/internal\types.h ****     return size_ > kMaxSmallSize ? dims_pointer_[i] : dims_[i];
 6596              		.loc 3 215 0
 6597 05e0 C5FEFFDA 		ble	.L584
 6598              		.loc 3 216 0
 6599 05e4 066083E0 		add	r6, r3, r6
 6600 05e8 046096E5 		ldr	r6, [r6, #4]
 6601              	.LVL847:
 6602              	.LBE1297:
 6603              	.LBE1343:
  57:C:/Renesas/e2studio_2021_01_workspace_RZA2M_ANPR/ANPR_RZA2M_GR_MANGO/src/tensorflow_lite/src/tensorflow/lite/kernels/internal/reference\arg_min_max.h ****     inner_size *= input1_shape.Dims(i);
 6604              		.loc 2 57 0
 6605 05ec 0A0056E1 		cmp	r6, r10
 6606 05f0 C1FEFF1A 		bne	.L584
 6607              	.LVL848:
  56:C:/Renesas/e2studio_2021_01_workspace_RZA2M_ANPR/ANPR_RZA2M_GR_MANGO/src/tensorflow_lite/src/tensorflow/lite/kernels/internal/reference\arg_min_max.h ****     TFLITE_DCHECK_EQ(input1_shape.Dims(i), output_shape.Dims(i - 1));
 6608              		.loc 2 56 0
 6609 05f4 032082E2 		add	r2, r2, #3
  58:C:/Renesas/e2studio_2021_01_workspace_RZA2M_ANPR/ANPR_RZA2M_GR_MANGO/src/tensorflow_lite/src/tensorflow/lite/kernels/internal/reference\arg_min_max.h ****   }
 6610              		.loc 2 58 0
 6611 05f8 960808E0 		mul	r8, r6, r8
 6612              	.LVL849:
  56:C:/Renesas/e2studio_2021_01_workspace_RZA2M_ANPR/ANPR_RZA2M_GR_MANGO/src/tensorflow_lite/src/tensorflow/lite/kernels/internal/reference\arg_min_max.h ****     TFLITE_DCHECK_EQ(input1_shape.Dims(i), output_shape.Dims(i - 1));
 6613              		.loc 2 56 0
 6614 05fc 02005CE1 		cmp	ip, r2
 6615 0600 0FFFFFDA 		ble	.L604
 6616              	.LVL850:
 6617              	.LBB1344:
 6618              	.LBB1268:
 6619              		.loc 3 216 0
 6620 0604 022180E0 		add	r2, r0, r2, lsl #2
 6621              	.LVL851:
 6622              	.LBE1268:
 6623              	.LBE1344:
 6624              	.LBB1345:
 6625              	.LBB1298:
 215:C:/Renesas/e2studio_2021_01_workspace_RZA2M_ANPR/ANPR_RZA2M_GR_MANGO/src/tensorflow_lite/src/tensorflow/lite/kernels/internal\types.h ****     return size_ > kMaxSmallSize ? dims_pointer_[i] : dims_[i];
 6626              		.loc 3 215 0
 6627 0608 070054E1 		cmp	r4, r7
 6628              	.LBE1298:
 6629              	.LBE1345:
 6630              	.LBB1346:
 6631              	.LBB1269:
 6632              		.loc 3 216 0
 6633 060c 042092E5 		ldr	r2, [r2, #4]
 6634              	.LVL852:
 6635              	.LBE1269:
 6636              	.LBE1346:
 6637              	.LBB1347:
 6638              	.LBB1299:
 215:C:/Renesas/e2studio_2021_01_workspace_RZA2M_ANPR/ANPR_RZA2M_GR_MANGO/src/tensorflow_lite/src/tensorflow/lite/kernels/internal\types.h ****     return size_ > kMaxSmallSize ? dims_pointer_[i] : dims_[i];
 6639              		.loc 3 215 0
 6640 0610 B9FEFFDA 		ble	.L584
 6641              		.loc 3 216 0
 6642 0614 053083E0 		add	r3, r3, r5
 6643              	.LVL853:
 6644 0618 043093E5 		ldr	r3, [r3, #4]
 6645              	.LVL854:
 6646              	.LBE1299:
 6647              	.LBE1347:
  57:C:/Renesas/e2studio_2021_01_workspace_RZA2M_ANPR/ANPR_RZA2M_GR_MANGO/src/tensorflow_lite/src/tensorflow/lite/kernels/internal/reference\arg_min_max.h ****     inner_size *= input1_shape.Dims(i);
 6648              		.loc 2 57 0
 6649 061c 020053E1 		cmp	r3, r2
 6650 0620 06FFFF0A 		beq	.L717
 6651 0624 B4FEFFEA 		b	.L584
 6652              	.LVL855:
 6653              	.L587:
  56:C:/Renesas/e2studio_2021_01_workspace_RZA2M_ANPR/ANPR_RZA2M_GR_MANGO/src/tensorflow_lite/src/tensorflow/lite/kernels/internal/reference\arg_min_max.h ****     TFLITE_DCHECK_EQ(input1_shape.Dims(i), output_shape.Dims(i - 1));
 6654              		.loc 2 56 0
 6655 0628 01005CE3 		cmp	ip, #1
 6656 062c 0120A0E3 		mov	r2, #1
 6657              	.LVL856:
 6658 0630 080000DA 		ble	.L724
 6659 0634 05005CE3 		cmp	ip, #5
 6660              	.LBE1367:
  48:C:/Renesas/e2studio_2021_01_workspace_RZA2M_ANPR/ANPR_RZA2M_GR_MANGO/src/tensorflow_lite/src/tensorflow/lite/kernels/internal/reference\arg_min_max.h ****   for (int i = 0; i < axis; ++i) {
 6661              		.loc 2 48 0
 6662 0638 0290A0E1 		mov	r9, r2
 6663 063c 020000CA 		bgt	.L599
 6664 0640 050054E3 		cmp	r4, #5
 6665 0644 C7FFFFDA 		ble	.L614
 6666 0648 D1FEFFEA 		b	.L600
 6667              	.L599:
 6668 064c 050054E3 		cmp	r4, #5
 6669 0650 58FFFFDA 		ble	.L613
 6670 0654 A6FFFFEA 		b	.L602
 6671              	.L724:
 6672 0658 0290A0E1 		mov	r9, r2
  54:C:/Renesas/e2studio_2021_01_workspace_RZA2M_ANPR/ANPR_RZA2M_GR_MANGO/src/tensorflow_lite/src/tensorflow/lite/kernels/internal/reference\arg_min_max.h ****   const int dims_count = input1_shape.DimensionsCount();
 6673              		.loc 2 54 0
 6674 065c 0280A0E1 		mov	r8, r2
 6675 0660 FBFEFFEA 		b	.L611
 6676              		.cfi_endproc
 6677              	.LFE1980:
 6678              		.fnend
 6680              		.section	.text._ZN6tflite3ops5micro11arg_min_max10ArgMaxEvalEP13TfLiteContextP10TfLiteNode,"ax",%p
 6681              		.align	2
 6682              		.global	_ZN6tflite3ops5micro11arg_min_max10ArgMaxEvalEP13TfLiteContextP10TfLiteNode
 6683              		.syntax unified
 6684              		.arm
 6685              		.fpu neon
 6687              	_ZN6tflite3ops5micro11arg_min_max10ArgMaxEvalEP13TfLiteContextP10TfLiteNode:
 6688              		.fnstart
 6689              	.LFB1768:
 103:../src/tensorflow_lite/src/tensorflow/lite/micro/kernels/arg_min_max.cpp ****   return Eval(context, node, true);
 6690              		.loc 1 103 0
 6691              		.cfi_startproc
 6692              		.cfi_personality 0,__gxx_personality_v0
 6693              		.cfi_lsda 0,.LLSDA1768
 6694              		@ args = 0, pretend = 0, frame = 56
 6695              		@ frame_needed = 0, uses_anonymous_args = 0
 6696              	.LVL857:
 6697 0000 F0412DE9 		push	{r4, r5, r6, r7, r8, lr}
 6698              		.save {r4, r5, r6, r7, r8, lr}
 6699              		.cfi_def_cfa_offset 24
 6700              		.cfi_offset 4, -24
 6701              		.cfi_offset 5, -20
 6702              		.cfi_offset 6, -16
 6703              		.cfi_offset 7, -12
 6704              		.cfi_offset 8, -8
 6705              		.cfi_offset 14, -4
 6706              	.LBB1428:
 6707              	.LBB1429:
 6708              	.LBB1430:
 6709              	.LBB1431:
 6710              	.LBB1432:
 6711              		.file 4 "C:/Renesas/e2studio_2021_01_workspace_RZA2M_ANPR/ANPR_RZA2M_GR_MANGO/src/tensorflow_lite/
   1:C:/Renesas/e2studio_2021_01_workspace_RZA2M_ANPR/ANPR_RZA2M_GR_MANGO/src/tensorflow_lite/src/tensorflow/lite/micro/kernels\kernel_util.h **** /* Copyright 2020 The TensorFlow Authors. All Rights Reserved.
   2:C:/Renesas/e2studio_2021_01_workspace_RZA2M_ANPR/ANPR_RZA2M_GR_MANGO/src/tensorflow_lite/src/tensorflow/lite/micro/kernels\kernel_util.h **** 
   3:C:/Renesas/e2studio_2021_01_workspace_RZA2M_ANPR/ANPR_RZA2M_GR_MANGO/src/tensorflow_lite/src/tensorflow/lite/micro/kernels\kernel_util.h **** Licensed under the Apache License, Version 2.0 (the "License");
   4:C:/Renesas/e2studio_2021_01_workspace_RZA2M_ANPR/ANPR_RZA2M_GR_MANGO/src/tensorflow_lite/src/tensorflow/lite/micro/kernels\kernel_util.h **** you may not use this file except in compliance with the License.
   5:C:/Renesas/e2studio_2021_01_workspace_RZA2M_ANPR/ANPR_RZA2M_GR_MANGO/src/tensorflow_lite/src/tensorflow/lite/micro/kernels\kernel_util.h **** You may obtain a copy of the License at
   6:C:/Renesas/e2studio_2021_01_workspace_RZA2M_ANPR/ANPR_RZA2M_GR_MANGO/src/tensorflow_lite/src/tensorflow/lite/micro/kernels\kernel_util.h **** 
   7:C:/Renesas/e2studio_2021_01_workspace_RZA2M_ANPR/ANPR_RZA2M_GR_MANGO/src/tensorflow_lite/src/tensorflow/lite/micro/kernels\kernel_util.h ****     http://www.apache.org/licenses/LICENSE-2.0
   8:C:/Renesas/e2studio_2021_01_workspace_RZA2M_ANPR/ANPR_RZA2M_GR_MANGO/src/tensorflow_lite/src/tensorflow/lite/micro/kernels\kernel_util.h **** 
   9:C:/Renesas/e2studio_2021_01_workspace_RZA2M_ANPR/ANPR_RZA2M_GR_MANGO/src/tensorflow_lite/src/tensorflow/lite/micro/kernels\kernel_util.h **** Unless required by applicable law or agreed to in writing, software
  10:C:/Renesas/e2studio_2021_01_workspace_RZA2M_ANPR/ANPR_RZA2M_GR_MANGO/src/tensorflow_lite/src/tensorflow/lite/micro/kernels\kernel_util.h **** distributed under the License is distributed on an "AS IS" BASIS,
  11:C:/Renesas/e2studio_2021_01_workspace_RZA2M_ANPR/ANPR_RZA2M_GR_MANGO/src/tensorflow_lite/src/tensorflow/lite/micro/kernels\kernel_util.h **** WITHOUT WARRANTIES OR CONDITIONS OF ANY KIND, either express or implied.
  12:C:/Renesas/e2studio_2021_01_workspace_RZA2M_ANPR/ANPR_RZA2M_GR_MANGO/src/tensorflow_lite/src/tensorflow/lite/micro/kernels\kernel_util.h **** See the License for the specific language governing permissions and
  13:C:/Renesas/e2studio_2021_01_workspace_RZA2M_ANPR/ANPR_RZA2M_GR_MANGO/src/tensorflow_lite/src/tensorflow/lite/micro/kernels\kernel_util.h **** limitations under the License.
  14:C:/Renesas/e2studio_2021_01_workspace_RZA2M_ANPR/ANPR_RZA2M_GR_MANGO/src/tensorflow_lite/src/tensorflow/lite/micro/kernels\kernel_util.h **** ==============================================================================*/
  15:C:/Renesas/e2studio_2021_01_workspace_RZA2M_ANPR/ANPR_RZA2M_GR_MANGO/src/tensorflow_lite/src/tensorflow/lite/micro/kernels\kernel_util.h **** 
  16:C:/Renesas/e2studio_2021_01_workspace_RZA2M_ANPR/ANPR_RZA2M_GR_MANGO/src/tensorflow_lite/src/tensorflow/lite/micro/kernels\kernel_util.h **** #ifndef TENSORFLOW_LITE_MICRO_KERNELS_KERNEL_UTIL_H_
  17:C:/Renesas/e2studio_2021_01_workspace_RZA2M_ANPR/ANPR_RZA2M_GR_MANGO/src/tensorflow_lite/src/tensorflow/lite/micro/kernels\kernel_util.h **** #define TENSORFLOW_LITE_MICRO_KERNELS_KERNEL_UTIL_H_
  18:C:/Renesas/e2studio_2021_01_workspace_RZA2M_ANPR/ANPR_RZA2M_GR_MANGO/src/tensorflow_lite/src/tensorflow/lite/micro/kernels\kernel_util.h **** 
  19:C:/Renesas/e2studio_2021_01_workspace_RZA2M_ANPR/ANPR_RZA2M_GR_MANGO/src/tensorflow_lite/src/tensorflow/lite/micro/kernels\kernel_util.h **** #include <cstdint>
  20:C:/Renesas/e2studio_2021_01_workspace_RZA2M_ANPR/ANPR_RZA2M_GR_MANGO/src/tensorflow_lite/src/tensorflow/lite/micro/kernels\kernel_util.h **** 
  21:C:/Renesas/e2studio_2021_01_workspace_RZA2M_ANPR/ANPR_RZA2M_GR_MANGO/src/tensorflow_lite/src/tensorflow/lite/micro/kernels\kernel_util.h **** #include "tensorflow/lite/c/builtin_op_data.h"
  22:C:/Renesas/e2studio_2021_01_workspace_RZA2M_ANPR/ANPR_RZA2M_GR_MANGO/src/tensorflow_lite/src/tensorflow/lite/micro/kernels\kernel_util.h **** #include "tensorflow/lite/c/common.h"
  23:C:/Renesas/e2studio_2021_01_workspace_RZA2M_ANPR/ANPR_RZA2M_GR_MANGO/src/tensorflow_lite/src/tensorflow/lite/micro/kernels\kernel_util.h **** #include "tensorflow/lite/kernels/internal/compatibility.h"
  24:C:/Renesas/e2studio_2021_01_workspace_RZA2M_ANPR/ANPR_RZA2M_GR_MANGO/src/tensorflow_lite/src/tensorflow/lite/micro/kernels\kernel_util.h **** #include "tensorflow/lite/kernels/internal/types.h"
  25:C:/Renesas/e2studio_2021_01_workspace_RZA2M_ANPR/ANPR_RZA2M_GR_MANGO/src/tensorflow_lite/src/tensorflow/lite/micro/kernels\kernel_util.h **** 
  26:C:/Renesas/e2studio_2021_01_workspace_RZA2M_ANPR/ANPR_RZA2M_GR_MANGO/src/tensorflow_lite/src/tensorflow/lite/micro/kernels\kernel_util.h **** namespace tflite {
  27:C:/Renesas/e2studio_2021_01_workspace_RZA2M_ANPR/ANPR_RZA2M_GR_MANGO/src/tensorflow_lite/src/tensorflow/lite/micro/kernels\kernel_util.h **** namespace micro {
  28:C:/Renesas/e2studio_2021_01_workspace_RZA2M_ANPR/ANPR_RZA2M_GR_MANGO/src/tensorflow_lite/src/tensorflow/lite/micro/kernels\kernel_util.h **** 
  29:C:/Renesas/e2studio_2021_01_workspace_RZA2M_ANPR/ANPR_RZA2M_GR_MANGO/src/tensorflow_lite/src/tensorflow/lite/micro/kernels\kernel_util.h **** // Returns a mutable tensor for a given input index. is_variable must be checked
  30:C:/Renesas/e2studio_2021_01_workspace_RZA2M_ANPR/ANPR_RZA2M_GR_MANGO/src/tensorflow_lite/src/tensorflow/lite/micro/kernels\kernel_util.h **** // during prepare when the full TfLiteTensor is available.
  31:C:/Renesas/e2studio_2021_01_workspace_RZA2M_ANPR/ANPR_RZA2M_GR_MANGO/src/tensorflow_lite/src/tensorflow/lite/micro/kernels\kernel_util.h **** inline TfLiteEvalTensor* GetMutableEvalInput(const TfLiteContext* context,
  32:C:/Renesas/e2studio_2021_01_workspace_RZA2M_ANPR/ANPR_RZA2M_GR_MANGO/src/tensorflow_lite/src/tensorflow/lite/micro/kernels\kernel_util.h ****                                              const TfLiteNode* node,
  33:C:/Renesas/e2studio_2021_01_workspace_RZA2M_ANPR/ANPR_RZA2M_GR_MANGO/src/tensorflow_lite/src/tensorflow/lite/micro/kernels\kernel_util.h ****                                              int index) {
  34:C:/Renesas/e2studio_2021_01_workspace_RZA2M_ANPR/ANPR_RZA2M_GR_MANGO/src/tensorflow_lite/src/tensorflow/lite/micro/kernels\kernel_util.h ****   TFLITE_DCHECK(context != nullptr);
 6712              		.loc 4 34 0
 6713 0004 004050E2 		subs	r4, r0, #0
 6714              	.LVL858:
 6715              	.LBE1432:
 6716              	.LBE1431:
 6717              	.LBE1430:
 6718              	.LBE1429:
 6719              	.LBE1428:
 103:../src/tensorflow_lite/src/tensorflow/lite/micro/kernels/arg_min_max.cpp ****   return Eval(context, node, true);
 6720              		.loc 1 103 0
 6721              		.pad #64
 6722 0008 40D04DE2 		sub	sp, sp, #64
 6723              		.cfi_def_cfa_offset 88
 6724              	.LBB1484:
 6725              	.LBB1481:
 6726              	.LBB1439:
 6727              	.LBB1436:
 6728              	.LBB1433:
 6729              		.loc 4 34 0
 6730 000c 7F00000A 		beq	.L727
  35:C:/Renesas/e2studio_2021_01_workspace_RZA2M_ANPR/ANPR_RZA2M_GR_MANGO/src/tensorflow_lite/src/tensorflow/lite/micro/kernels\kernel_util.h ****   TFLITE_DCHECK(node != nullptr);
 6731              		.loc 4 35 0
 6732 0010 000051E3 		cmp	r1, #0
 6733 0014 0150A0E1 		mov	r5, r1
 6734 0018 7C00000A 		beq	.L727
  36:C:/Renesas/e2studio_2021_01_workspace_RZA2M_ANPR/ANPR_RZA2M_GR_MANGO/src/tensorflow_lite/src/tensorflow/lite/micro/kernels\kernel_util.h ****   return context->GetEvalTensor(context, node->inputs->data[index]);
 6735              		.loc 4 36 0
 6736 001c 002091E5 		ldr	r2, [r1]
 6737 0020 543094E5 		ldr	r3, [r4, #84]
 6738 0024 041092E5 		ldr	r1, [r2, #4]
 6739              	.LVL859:
 6740              	.LEHB0:
 6741 0028 33FF2FE1 		blx	r3
 6742              	.LVL860:
 6743              	.LBE1433:
 6744              	.LBE1436:
 6745              	.LBE1439:
 6746              	.LBB1440:
 6747              	.LBB1441:
 6748              	.LBB1442:
 6749 002c 002095E5 		ldr	r2, [r5]
 6750              	.LBE1442:
 6751              	.LBE1441:
 6752              	.LBE1440:
 6753              	.LBB1447:
 6754              	.LBB1437:
 6755              	.LBB1434:
 6756 0030 0070A0E1 		mov	r7, r0
 6757              	.LVL861:
 6758              	.LBE1434:
 6759              	.LBE1437:
 6760              	.LBE1447:
 6761              	.LBB1448:
 6762              	.LBB1445:
 6763              	.LBB1443:
 6764 0034 543094E5 		ldr	r3, [r4, #84]
 6765 0038 0400A0E1 		mov	r0, r4
 6766 003c 081092E5 		ldr	r1, [r2, #8]
 6767 0040 33FF2FE1 		blx	r3
 6768              	.LVL862:
 6769              	.LBE1443:
 6770              	.LBE1445:
 6771              	.LBE1448:
 6772              	.LBB1449:
 6773              	.LBB1450:
  37:C:/Renesas/e2studio_2021_01_workspace_RZA2M_ANPR/ANPR_RZA2M_GR_MANGO/src/tensorflow_lite/src/tensorflow/lite/micro/kernels\kernel_util.h **** }
  38:C:/Renesas/e2studio_2021_01_workspace_RZA2M_ANPR/ANPR_RZA2M_GR_MANGO/src/tensorflow_lite/src/tensorflow/lite/micro/kernels\kernel_util.h **** 
  39:C:/Renesas/e2studio_2021_01_workspace_RZA2M_ANPR/ANPR_RZA2M_GR_MANGO/src/tensorflow_lite/src/tensorflow/lite/micro/kernels\kernel_util.h **** // Returns the TfLiteEvalTensor struct for a given input index in a node.
  40:C:/Renesas/e2studio_2021_01_workspace_RZA2M_ANPR/ANPR_RZA2M_GR_MANGO/src/tensorflow_lite/src/tensorflow/lite/micro/kernels\kernel_util.h **** inline const TfLiteEvalTensor* GetEvalInput(const TfLiteContext* context,
  41:C:/Renesas/e2studio_2021_01_workspace_RZA2M_ANPR/ANPR_RZA2M_GR_MANGO/src/tensorflow_lite/src/tensorflow/lite/micro/kernels\kernel_util.h ****                                             const TfLiteNode* node, int index) {
  42:C:/Renesas/e2studio_2021_01_workspace_RZA2M_ANPR/ANPR_RZA2M_GR_MANGO/src/tensorflow_lite/src/tensorflow/lite/micro/kernels\kernel_util.h ****   return GetMutableEvalInput(context, node, index);
  43:C:/Renesas/e2studio_2021_01_workspace_RZA2M_ANPR/ANPR_RZA2M_GR_MANGO/src/tensorflow_lite/src/tensorflow/lite/micro/kernels\kernel_util.h **** }
  44:C:/Renesas/e2studio_2021_01_workspace_RZA2M_ANPR/ANPR_RZA2M_GR_MANGO/src/tensorflow_lite/src/tensorflow/lite/micro/kernels\kernel_util.h **** 
  45:C:/Renesas/e2studio_2021_01_workspace_RZA2M_ANPR/ANPR_RZA2M_GR_MANGO/src/tensorflow_lite/src/tensorflow/lite/micro/kernels\kernel_util.h **** // Returns the TfLiteEvalTensor struct for a given output index in a node.
  46:C:/Renesas/e2studio_2021_01_workspace_RZA2M_ANPR/ANPR_RZA2M_GR_MANGO/src/tensorflow_lite/src/tensorflow/lite/micro/kernels\kernel_util.h **** inline TfLiteEvalTensor* GetEvalOutput(const TfLiteContext* context,
  47:C:/Renesas/e2studio_2021_01_workspace_RZA2M_ANPR/ANPR_RZA2M_GR_MANGO/src/tensorflow_lite/src/tensorflow/lite/micro/kernels\kernel_util.h ****                                        const TfLiteNode* node, int index) {
  48:C:/Renesas/e2studio_2021_01_workspace_RZA2M_ANPR/ANPR_RZA2M_GR_MANGO/src/tensorflow_lite/src/tensorflow/lite/micro/kernels\kernel_util.h ****   TFLITE_DCHECK(context != nullptr);
  49:C:/Renesas/e2studio_2021_01_workspace_RZA2M_ANPR/ANPR_RZA2M_GR_MANGO/src/tensorflow_lite/src/tensorflow/lite/micro/kernels\kernel_util.h ****   TFLITE_DCHECK(node != nullptr);
  50:C:/Renesas/e2studio_2021_01_workspace_RZA2M_ANPR/ANPR_RZA2M_GR_MANGO/src/tensorflow_lite/src/tensorflow/lite/micro/kernels\kernel_util.h ****   return context->GetEvalTensor(context, node->outputs->data[index]);
 6774              		.loc 4 50 0
 6775 0044 042095E5 		ldr	r2, [r5, #4]
 6776              	.LBE1450:
 6777              	.LBE1449:
 6778              	.LBB1452:
 6779              	.LBB1446:
 6780              	.LBB1444:
  36:C:/Renesas/e2studio_2021_01_workspace_RZA2M_ANPR/ANPR_RZA2M_GR_MANGO/src/tensorflow_lite/src/tensorflow/lite/micro/kernels\kernel_util.h ****   return context->GetEvalTensor(context, node->inputs->data[index]);
 6781              		.loc 4 36 0
 6782 0048 0060A0E1 		mov	r6, r0
 6783              	.LVL863:
 6784              	.LBE1444:
 6785              	.LBE1446:
 6786              	.LBE1452:
 6787              	.LBB1453:
 6788              	.LBB1451:
 6789              		.loc 4 50 0
 6790 004c 543094E5 		ldr	r3, [r4, #84]
 6791 0050 0400A0E1 		mov	r0, r4
 6792 0054 041092E5 		ldr	r1, [r2, #4]
 6793 0058 33FF2FE1 		blx	r3
 6794              	.LVL864:
 6795 005c 0050A0E1 		mov	r5, r0
 6796              	.LVL865:
 6797              	.LBE1451:
 6798              	.LBE1453:
  63:../src/tensorflow_lite/src/tensorflow/lite/micro/kernels/arg_min_max.cpp ****     if (output->type == kTfLiteInt32) {
 6799              		.loc 1 63 0
 6800 0060 0800D6E5 		ldrb	r0, [r6, #8]	@ zero_extendqisi2
 6801 0064 020050E3 		cmp	r0, #2
 6802 0068 0900000A 		beq	.L827
 6803              	.L728:
  89:../src/tensorflow_lite/src/tensorflow/lite/micro/kernels/arg_min_max.cpp ****                        TfLiteTypeGetName(axis->type));
 6804              		.loc 1 89 0
 6805 006c 145094E5 		ldr	r5, [r4, #20]
 6806 0070 FEFFFFEB 		bl	TfLiteTypeGetName
 6807              	.LVL866:
 6808 0074 001000E3 		movw	r1, #:lower16:.LC1
 6809 0078 0020A0E1 		mov	r2, r0
 6810 007c 001040E3 		movt	r1, #:upper16:.LC1
 6811 0080 0400A0E1 		mov	r0, r4
 6812 0084 35FF2FE1 		blx	r5
 6813              	.LVL867:
  91:../src/tensorflow_lite/src/tensorflow/lite/micro/kernels/arg_min_max.cpp ****   }
 6814              		.loc 1 91 0
 6815 0088 0100A0E3 		mov	r0, #1
 6816              	.LVL868:
 6817              	.L799:
 6818              	.LBE1481:
 6819              	.LBE1484:
 105:../src/tensorflow_lite/src/tensorflow/lite/micro/kernels/arg_min_max.cpp **** 
 6820              		.loc 1 105 0
 6821 008c 40D08DE2 		add	sp, sp, #64
 6822              		.cfi_remember_state
 6823              		.cfi_def_cfa_offset 24
 6824              		@ sp needed
 6825 0090 F081BDE8 		pop	{r4, r5, r6, r7, r8, pc}
 6826              	.LVL869:
 6827              	.L827:
 6828              		.cfi_restore_state
 6829              	.LBB1485:
 6830              	.LBB1482:
  64:../src/tensorflow_lite/src/tensorflow/lite/micro/kernels/arg_min_max.cpp ****       switch (input->type) {
 6831              		.loc 1 64 0
 6832 0094 0800D5E5 		ldrb	r0, [r5, #8]	@ zero_extendqisi2
 6833 0098 020050E3 		cmp	r0, #2
 6834 009c F2FFFF1A 		bne	.L728
  65:../src/tensorflow_lite/src/tensorflow/lite/micro/kernels/arg_min_max.cpp ****         case kTfLiteFloat32:
 6835              		.loc 1 65 0
 6836 00a0 0800D7E5 		ldrb	r0, [r7, #8]	@ zero_extendqisi2
 6837 00a4 030050E3 		cmp	r0, #3
 6838 00a8 4400000A 		beq	.L731
 6839 00ac 090050E3 		cmp	r0, #9
 6840 00b0 0A00000A 		beq	.L732
 6841 00b4 010050E3 		cmp	r0, #1
 6842 00b8 2C00000A 		beq	.L828
  76:../src/tensorflow_lite/src/tensorflow/lite/micro/kernels/arg_min_max.cpp ****                              "Only float32, uint8_t and int8_t are "
 6843              		.loc 1 76 0
 6844 00bc 145094E5 		ldr	r5, [r4, #20]
 6845 00c0 FEFFFFEB 		bl	TfLiteTypeGetName
 6846              	.LVL870:
 6847 00c4 001000E3 		movw	r1, #:lower16:.LC0
 6848 00c8 0020A0E1 		mov	r2, r0
 6849 00cc 001040E3 		movt	r1, #:upper16:.LC0
 6850 00d0 0400A0E1 		mov	r0, r4
 6851 00d4 35FF2FE1 		blx	r5
 6852              	.LVL871:
  80:../src/tensorflow_lite/src/tensorflow/lite/micro/kernels/arg_min_max.cpp ****       }
 6853              		.loc 1 80 0
 6854 00d8 0100A0E3 		mov	r0, #1
 6855 00dc EAFFFFEA 		b	.L799
 6856              	.L732:
  73:../src/tensorflow_lite/src/tensorflow/lite/micro/kernels/arg_min_max.cpp ****           break;
 6857              		.loc 1 73 0
 6858 00e0 28408DE2 		add	r4, sp, #40
 6859              	.LVL872:
 6860 00e4 0710A0E1 		mov	r1, r7
 6861 00e8 0400A0E1 		mov	r0, r4
 6862 00ec 10808DE2 		add	r8, sp, #16
 6863 00f0 FEFFFFEB 		bl	_ZN6tflite5micro14GetTensorShapeEPK16TfLiteEvalTensor
 6864              	.LVL873:
 6865              	.LEHE0:
 6866 00f4 0800A0E1 		mov	r0, r8
 6867 00f8 0510A0E1 		mov	r1, r5
 6868              	.LBB1454:
 6869              	.LBB1455:
  51:C:/Renesas/e2studio_2021_01_workspace_RZA2M_ANPR/ANPR_RZA2M_GR_MANGO/src/tensorflow_lite/src/tensorflow/lite/micro/kernels\kernel_util.h **** }
  52:C:/Renesas/e2studio_2021_01_workspace_RZA2M_ANPR/ANPR_RZA2M_GR_MANGO/src/tensorflow_lite/src/tensorflow/lite/micro/kernels\kernel_util.h **** 
  53:C:/Renesas/e2studio_2021_01_workspace_RZA2M_ANPR/ANPR_RZA2M_GR_MANGO/src/tensorflow_lite/src/tensorflow/lite/micro/kernels\kernel_util.h **** // Returns data for a TfLiteEvalTensor struct.
  54:C:/Renesas/e2studio_2021_01_workspace_RZA2M_ANPR/ANPR_RZA2M_GR_MANGO/src/tensorflow_lite/src/tensorflow/lite/micro/kernels\kernel_util.h **** template <typename T>
  55:C:/Renesas/e2studio_2021_01_workspace_RZA2M_ANPR/ANPR_RZA2M_GR_MANGO/src/tensorflow_lite/src/tensorflow/lite/micro/kernels\kernel_util.h **** T* GetTensorData(TfLiteEvalTensor* tensor) {
  56:C:/Renesas/e2studio_2021_01_workspace_RZA2M_ANPR/ANPR_RZA2M_GR_MANGO/src/tensorflow_lite/src/tensorflow/lite/micro/kernels\kernel_util.h ****   return tensor != nullptr ? reinterpret_cast<T*>(tensor->data.raw) : nullptr;
  57:C:/Renesas/e2studio_2021_01_workspace_RZA2M_ANPR/ANPR_RZA2M_GR_MANGO/src/tensorflow_lite/src/tensorflow/lite/micro/kernels\kernel_util.h **** }
  58:C:/Renesas/e2studio_2021_01_workspace_RZA2M_ANPR/ANPR_RZA2M_GR_MANGO/src/tensorflow_lite/src/tensorflow/lite/micro/kernels\kernel_util.h **** 
  59:C:/Renesas/e2studio_2021_01_workspace_RZA2M_ANPR/ANPR_RZA2M_GR_MANGO/src/tensorflow_lite/src/tensorflow/lite/micro/kernels\kernel_util.h **** // Returns const data for a TfLiteEvalTensor struct.
  60:C:/Renesas/e2studio_2021_01_workspace_RZA2M_ANPR/ANPR_RZA2M_GR_MANGO/src/tensorflow_lite/src/tensorflow/lite/micro/kernels\kernel_util.h **** template <typename T>
  61:C:/Renesas/e2studio_2021_01_workspace_RZA2M_ANPR/ANPR_RZA2M_GR_MANGO/src/tensorflow_lite/src/tensorflow/lite/micro/kernels\kernel_util.h **** const T* GetTensorData(const TfLiteEvalTensor* tensor) {
  62:C:/Renesas/e2studio_2021_01_workspace_RZA2M_ANPR/ANPR_RZA2M_GR_MANGO/src/tensorflow_lite/src/tensorflow/lite/micro/kernels\kernel_util.h ****   TFLITE_DCHECK(tensor != nullptr);
  63:C:/Renesas/e2studio_2021_01_workspace_RZA2M_ANPR/ANPR_RZA2M_GR_MANGO/src/tensorflow_lite/src/tensorflow/lite/micro/kernels\kernel_util.h ****   return reinterpret_cast<const T*>(tensor->data.raw);
 6870              		.loc 4 63 0
 6871 00fc 007097E5 		ldr	r7, [r7]
 6872              	.LBE1455:
 6873              	.LBE1454:
 6874              	.LBB1456:
 6875              	.LBB1457:
 6876 0100 006096E5 		ldr	r6, [r6]
 6877              	.LEHB1:
 6878              	.LBE1457:
 6879              	.LBE1456:
  73:../src/tensorflow_lite/src/tensorflow/lite/micro/kernels/arg_min_max.cpp ****           break;
 6880              		.loc 1 73 0
 6881 0104 FEFFFFEB 		bl	_ZN6tflite5micro14GetTensorShapeEPK16TfLiteEvalTensor
 6882              	.LVL874:
 6883              	.LEHE1:
 6884              	.LBB1458:
 6885              	.LBB1459:
  40:../src/tensorflow_lite/src/tensorflow/lite/micro/kernels/arg_min_max.cpp ****                              output_shape, output_data, micro::Greater());
 6886              		.loc 1 40 0
 6887 0108 0C208DE2 		add	r2, sp, #12
 6888 010c 0830A0E1 		mov	r3, r8
 6889 0110 04208DE5 		str	r2, [sp, #4]
 6890              	.LVL875:
 6891 0114 0710A0E1 		mov	r1, r7
 6892 0118 00C095E5 		ldr	ip, [r5]
 6893 011c 0620A0E1 		mov	r2, r6
 6894 0120 0400A0E1 		mov	r0, r4
 6895 0124 00C08DE5 		str	ip, [sp]
 6896              	.LEHB2:
 6897 0128 FEFFFFEB 		bl	_ZN6tflite13reference_ops9ArgMinMaxIallNS_3ops5micro7GreaterEEEvRKNS_12RuntimeShapeEPKT_PKT1_S7
 6898              	.LVL876:
 6899              	.LEHE2:
 6900              	.L822:
 6901              	.LBE1459:
 6902              	.LBE1458:
 6903              	.LBB1460:
 6904              	.LBB1461:
 203:C:/Renesas/e2studio_2021_01_workspace_RZA2M_ANPR/ANPR_RZA2M_GR_MANGO/src/tensorflow_lite/src/tensorflow/lite/kernels/internal\types.h **** #ifdef TF_LITE_STATIC_MEMORY
 6905              		.loc 3 203 0
 6906 012c 10309DE5 		ldr	r3, [sp, #16]
 6907 0130 050053E3 		cmp	r3, #5
 6908 0134 030000DA 		ble	.L739
 207:C:/Renesas/e2studio_2021_01_workspace_RZA2M_ANPR/ANPR_RZA2M_GR_MANGO/src/tensorflow_lite/src/tensorflow/lite/kernels/internal\types.h **** #endif  // TF_LITE_STATIC_MEMORY
 6909              		.loc 3 207 0
 6910 0138 14009DE5 		ldr	r0, [sp, #20]
 6911 013c 000050E3 		cmp	r0, #0
 6912 0140 0000000A 		beq	.L739
 6913 0144 FEFFFFEB 		bl	_ZdaPv
 6914              	.LVL877:
 6915              	.L739:
 6916              	.LBE1461:
 6917              	.LBE1460:
 6918              	.LBB1462:
 6919              	.LBB1463:
 203:C:/Renesas/e2studio_2021_01_workspace_RZA2M_ANPR/ANPR_RZA2M_GR_MANGO/src/tensorflow_lite/src/tensorflow/lite/kernels/internal\types.h **** #ifdef TF_LITE_STATIC_MEMORY
 6920              		.loc 3 203 0
 6921 0148 28309DE5 		ldr	r3, [sp, #40]
 6922 014c 050053E3 		cmp	r3, #5
 6923 0150 030000DA 		ble	.L740
 207:C:/Renesas/e2studio_2021_01_workspace_RZA2M_ANPR/ANPR_RZA2M_GR_MANGO/src/tensorflow_lite/src/tensorflow/lite/kernels/internal\types.h **** #endif  // TF_LITE_STATIC_MEMORY
 6924              		.loc 3 207 0
 6925 0154 2C009DE5 		ldr	r0, [sp, #44]
 6926 0158 000050E3 		cmp	r0, #0
 6927 015c 0000000A 		beq	.L740
 6928 0160 FEFFFFEB 		bl	_ZdaPv
 6929              	.LVL878:
 6930              	.L740:
 6931              	.LBE1463:
 6932              	.LBE1462:
  96:../src/tensorflow_lite/src/tensorflow/lite/micro/kernels/arg_min_max.cpp **** }
 6933              		.loc 1 96 0
 6934 0164 0000A0E3 		mov	r0, #0
 6935              	.LBE1482:
 6936              	.LBE1485:
 105:../src/tensorflow_lite/src/tensorflow/lite/micro/kernels/arg_min_max.cpp **** 
 6937              		.loc 1 105 0
 6938 0168 40D08DE2 		add	sp, sp, #64
 6939              		.cfi_remember_state
 6940              		.cfi_def_cfa_offset 24
 6941              		@ sp needed
 6942 016c F081BDE8 		pop	{r4, r5, r6, r7, r8, pc}
 6943              	.LVL879:
 6944              	.L828:
 6945              		.cfi_restore_state
 6946              	.LBB1486:
 6947              	.LBB1483:
  67:../src/tensorflow_lite/src/tensorflow/lite/micro/kernels/arg_min_max.cpp ****           break;
 6948              		.loc 1 67 0
 6949 0170 28408DE2 		add	r4, sp, #40
 6950              	.LVL880:
 6951 0174 0710A0E1 		mov	r1, r7
 6952 0178 0400A0E1 		mov	r0, r4
 6953 017c 10808DE2 		add	r8, sp, #16
 6954              	.LEHB3:
 6955 0180 FEFFFFEB 		bl	_ZN6tflite5micro14GetTensorShapeEPK16TfLiteEvalTensor
 6956              	.LVL881:
 6957              	.LEHE3:
 6958 0184 0800A0E1 		mov	r0, r8
 6959 0188 0510A0E1 		mov	r1, r5
 6960              	.LBB1464:
 6961              	.LBB1465:
 6962              		.loc 4 63 0
 6963 018c 007097E5 		ldr	r7, [r7]
 6964              	.LBE1465:
 6965              	.LBE1464:
 6966              	.LBB1466:
 6967              	.LBB1467:
 6968 0190 006096E5 		ldr	r6, [r6]
 6969              	.LEHB4:
 6970              	.LBE1467:
 6971              	.LBE1466:
  67:../src/tensorflow_lite/src/tensorflow/lite/micro/kernels/arg_min_max.cpp ****           break;
 6972              		.loc 1 67 0
 6973 0194 FEFFFFEB 		bl	_ZN6tflite5micro14GetTensorShapeEPK16TfLiteEvalTensor
 6974              	.LVL882:
 6975              	.LEHE4:
 6976              	.LBB1468:
 6977              	.LBB1469:
  40:../src/tensorflow_lite/src/tensorflow/lite/micro/kernels/arg_min_max.cpp ****                              output_shape, output_data, micro::Greater());
 6978              		.loc 1 40 0
 6979 0198 0C208DE2 		add	r2, sp, #12
 6980 019c 0830A0E1 		mov	r3, r8
 6981 01a0 04208DE5 		str	r2, [sp, #4]
 6982              	.LVL883:
 6983 01a4 0710A0E1 		mov	r1, r7
 6984 01a8 00C095E5 		ldr	ip, [r5]
 6985 01ac 0620A0E1 		mov	r2, r6
 6986 01b0 0400A0E1 		mov	r0, r4
 6987 01b4 00C08DE5 		str	ip, [sp]
 6988              	.LEHB5:
 6989 01b8 FEFFFFEB 		bl	_ZN6tflite13reference_ops9ArgMinMaxIfllNS_3ops5micro7GreaterEEEvRKNS_12RuntimeShapeEPKT_PKT1_S7
 6990              	.LVL884:
 6991              	.LEHE5:
 6992 01bc DAFFFFEA 		b	.L822
 6993              	.LVL885:
 6994              	.L731:
 6995              	.LBE1469:
 6996              	.LBE1468:
  70:../src/tensorflow_lite/src/tensorflow/lite/micro/kernels/arg_min_max.cpp ****           break;
 6997              		.loc 1 70 0
 6998 01c0 28408DE2 		add	r4, sp, #40
 6999              	.LVL886:
 7000 01c4 0710A0E1 		mov	r1, r7
 7001 01c8 0400A0E1 		mov	r0, r4
 7002 01cc 10808DE2 		add	r8, sp, #16
 7003              	.LEHB6:
 7004 01d0 FEFFFFEB 		bl	_ZN6tflite5micro14GetTensorShapeEPK16TfLiteEvalTensor
 7005              	.LVL887:
 7006              	.LEHE6:
 7007 01d4 0800A0E1 		mov	r0, r8
 7008 01d8 0510A0E1 		mov	r1, r5
 7009              	.LBB1470:
 7010              	.LBB1471:
 7011              		.loc 4 63 0
 7012 01dc 007097E5 		ldr	r7, [r7]
 7013              	.LBE1471:
 7014              	.LBE1470:
 7015              	.LBB1472:
 7016              	.LBB1473:
 7017 01e0 006096E5 		ldr	r6, [r6]
 7018              	.LEHB7:
 7019              	.LBE1473:
 7020              	.LBE1472:
  70:../src/tensorflow_lite/src/tensorflow/lite/micro/kernels/arg_min_max.cpp ****           break;
 7021              		.loc 1 70 0
 7022 01e4 FEFFFFEB 		bl	_ZN6tflite5micro14GetTensorShapeEPK16TfLiteEvalTensor
 7023              	.LVL888:
 7024              	.LEHE7:
 7025              	.LBB1474:
 7026              	.LBB1475:
  40:../src/tensorflow_lite/src/tensorflow/lite/micro/kernels/arg_min_max.cpp ****                              output_shape, output_data, micro::Greater());
 7027              		.loc 1 40 0
 7028 01e8 0C208DE2 		add	r2, sp, #12
 7029 01ec 0830A0E1 		mov	r3, r8
 7030 01f0 04208DE5 		str	r2, [sp, #4]
 7031              	.LVL889:
 7032 01f4 0710A0E1 		mov	r1, r7
 7033 01f8 00C095E5 		ldr	ip, [r5]
 7034 01fc 0620A0E1 		mov	r2, r6
 7035 0200 0400A0E1 		mov	r0, r4
 7036 0204 00C08DE5 		str	ip, [sp]
 7037              	.LEHB8:
 7038 0208 FEFFFFEB 		bl	_ZN6tflite13reference_ops9ArgMinMaxIhllNS_3ops5micro7GreaterEEEvRKNS_12RuntimeShapeEPKT_PKT1_S7
 7039              	.LVL890:
 7040              	.LEHE8:
 7041 020c C6FFFFEA 		b	.L822
 7042              	.LVL891:
 7043              	.L727:
 7044              	.LEHB9:
 7045              	.LBE1475:
 7046              	.LBE1474:
 7047              	.LBB1476:
 7048              	.LBB1438:
 7049              	.LBB1435:
  34:C:/Renesas/e2studio_2021_01_workspace_RZA2M_ANPR/ANPR_RZA2M_GR_MANGO/src/tensorflow_lite/src/tensorflow/lite/micro/kernels\kernel_util.h ****   TFLITE_DCHECK(node != nullptr);
 7050              		.loc 4 34 0
 7051 0210 FEFFFFEB 		bl	abort
 7052              	.LVL892:
 7053              	.L756:
 7054              	.L825:
 7055              	.LBE1435:
 7056              	.LBE1438:
 7057              	.LBE1476:
 7058              	.LBB1477:
 7059              	.LBB1478:
 203:C:/Renesas/e2studio_2021_01_workspace_RZA2M_ANPR/ANPR_RZA2M_GR_MANGO/src/tensorflow_lite/src/tensorflow/lite/kernels/internal\types.h **** #ifdef TF_LITE_STATIC_MEMORY
 7060              		.loc 3 203 0
 7061 0214 10309DE5 		ldr	r3, [sp, #16]
 7062 0218 050053E3 		cmp	r3, #5
 7063 021c 030000DA 		ble	.L751
 207:C:/Renesas/e2studio_2021_01_workspace_RZA2M_ANPR/ANPR_RZA2M_GR_MANGO/src/tensorflow_lite/src/tensorflow/lite/kernels/internal\types.h **** #endif  // TF_LITE_STATIC_MEMORY
 7064              		.loc 3 207 0
 7065 0220 14009DE5 		ldr	r0, [sp, #20]
 7066 0224 000050E3 		cmp	r0, #0
 7067 0228 0000000A 		beq	.L751
 7068 022c FEFFFFEB 		bl	_ZdaPv
 7069              	.LVL893:
 7070              	.L751:
 7071              	.LBE1478:
 7072              	.LBE1477:
 7073              	.LBB1479:
 7074              	.LBB1480:
 203:C:/Renesas/e2studio_2021_01_workspace_RZA2M_ANPR/ANPR_RZA2M_GR_MANGO/src/tensorflow_lite/src/tensorflow/lite/kernels/internal\types.h **** #ifdef TF_LITE_STATIC_MEMORY
 7075              		.loc 3 203 0
 7076 0230 28309DE5 		ldr	r3, [sp, #40]
 7077 0234 050053E3 		cmp	r3, #5
 7078 0238 030000DA 		ble	.L752
 207:C:/Renesas/e2studio_2021_01_workspace_RZA2M_ANPR/ANPR_RZA2M_GR_MANGO/src/tensorflow_lite/src/tensorflow/lite/kernels/internal\types.h **** #endif  // TF_LITE_STATIC_MEMORY
 7079              		.loc 3 207 0
 7080 023c 2C009DE5 		ldr	r0, [sp, #44]
 7081 0240 000050E3 		cmp	r0, #0
 7082 0244 0000000A 		beq	.L752
 7083 0248 FEFFFFEB 		bl	_ZdaPv
 7084              	.LVL894:
 7085              	.L752:
 7086 024c FEFFFFEB 		bl	__cxa_end_cleanup
 7087              	.LVL895:
 7088              	.LEHE9:
 7089              	.L755:
 7090 0250 F6FFFFEA 		b	.L751
 7091              	.LVL896:
 7092              	.L758:
 7093 0254 EEFFFFEA 		b	.L825
 7094              	.LVL897:
 7095              	.L757:
 7096 0258 F4FFFFEA 		b	.L751
 7097              	.LVL898:
 7098              	.L754:
 7099 025c ECFFFFEA 		b	.L825
 7100              	.LVL899:
 7101              	.L753:
 7102 0260 F2FFFFEA 		b	.L751
 7103              	.LBE1480:
 7104              	.LBE1479:
 7105              	.LBE1483:
 7106              	.LBE1486:
 7107              		.cfi_endproc
 7108              	.LFE1768:
 7109              		.global	__gxx_personality_v0
 7110              		.personality	__gxx_personality_v0
 7111              		.handlerdata
 7112              	.LLSDA1768:
 7113 0008 FF       		.byte	0xff
 7114 0009 FF       		.byte	0xff
 7115 000a 01       		.byte	0x1
 7116 000b 38       		.uleb128 .LLSDACSE1768-.LLSDACSB1768
 7117              	.LLSDACSB1768:
 7118 000c 28       		.uleb128 .LEHB0-.LFB1768
 7119 000d CC01     		.uleb128 .LEHE0-.LEHB0
 7120 000f 00       		.uleb128 0
 7121 0010 00       		.uleb128 0
 7122 0011 8402     		.uleb128 .LEHB1-.LFB1768
 7123 0013 04       		.uleb128 .LEHE1-.LEHB1
 7124 0014 E004     		.uleb128 .L753-.LFB1768
 7125 0016 00       		.uleb128 0
 7126 0017 A802     		.uleb128 .LEHB2-.LFB1768
 7127 0019 04       		.uleb128 .LEHE2-.LEHB2
 7128 001a DC04     		.uleb128 .L754-.LFB1768
 7129 001c 00       		.uleb128 0
 7130 001d 8003     		.uleb128 .LEHB3-.LFB1768
 7131 001f 04       		.uleb128 .LEHE3-.LEHB3
 7132 0020 00       		.uleb128 0
 7133 0021 00       		.uleb128 0
 7134 0022 9403     		.uleb128 .LEHB4-.LFB1768
 7135 0024 04       		.uleb128 .LEHE4-.LEHB4
 7136 0025 D804     		.uleb128 .L757-.LFB1768
 7137 0027 00       		.uleb128 0
 7138 0028 B803     		.uleb128 .LEHB5-.LFB1768
 7139 002a 04       		.uleb128 .LEHE5-.LEHB5
 7140 002b D404     		.uleb128 .L758-.LFB1768
 7141 002d 00       		.uleb128 0
 7142 002e D003     		.uleb128 .LEHB6-.LFB1768
 7143 0030 04       		.uleb128 .LEHE6-.LEHB6
 7144 0031 00       		.uleb128 0
 7145 0032 00       		.uleb128 0
 7146 0033 E403     		.uleb128 .LEHB7-.LFB1768
 7147 0035 04       		.uleb128 .LEHE7-.LEHB7
 7148 0036 D004     		.uleb128 .L755-.LFB1768
 7149 0038 00       		.uleb128 0
 7150 0039 8804     		.uleb128 .LEHB8-.LFB1768
 7151 003b 04       		.uleb128 .LEHE8-.LEHB8
 7152 003c 9404     		.uleb128 .L756-.LFB1768
 7153 003e 00       		.uleb128 0
 7154 003f 9004     		.uleb128 .LEHB9-.LFB1768
 7155 0041 40       		.uleb128 .LEHE9-.LEHB9
 7156 0042 00       		.uleb128 0
 7157 0043 00       		.uleb128 0
 7158              	.LLSDACSE1768:
 7159              		.section	.text._ZN6tflite3ops5micro11arg_min_max10ArgMaxEvalEP13TfLiteContextP10TfLiteNode
 7160              		.fnend
 7162              		.section	.text._ZN6tflite13reference_ops9ArgMinMaxIallNS_3ops5micro4LessEEEvRKNS_12RuntimeShapeEPK
 7163              		.align	2
 7164              		.weak	_ZN6tflite13reference_ops9ArgMinMaxIallNS_3ops5micro4LessEEEvRKNS_12RuntimeShapeEPKT_PKT1_S7
 7165              		.syntax unified
 7166              		.arm
 7167              		.fpu neon
 7169              	_ZN6tflite13reference_ops9ArgMinMaxIallNS_3ops5micro4LessEEEvRKNS_12RuntimeShapeEPKT_PKT1_S7_PT0_RK
 7170              		.fnstart
 7171              	.LFB1981:
  36:C:/Renesas/e2studio_2021_01_workspace_RZA2M_ANPR/ANPR_RZA2M_GR_MANGO/src/tensorflow_lite/src/tensorflow/lite/kernels/internal/reference\arg_min_max.h ****                const T3* input2_data, const RuntimeShape& output_shape,
 7172              		.loc 2 36 0
 7173              		.cfi_startproc
 7174              		@ args = 8, pretend = 0, frame = 8
 7175              		@ frame_needed = 0, uses_anonymous_args = 0
 7176              	.LVL900:
 7177 0000 00C090E5 		ldr	ip, [r0]
 7178              	.LVL901:
 7179 0004 F04F2DE9 		push	{r4, r5, r6, r7, r8, r9, r10, fp, lr}
 7180              		.save {r4, r5, r6, r7, r8, r9, r10, fp, lr}
 7181              		.cfi_def_cfa_offset 36
 7182              		.cfi_offset 4, -36
 7183              		.cfi_offset 5, -32
 7184              		.cfi_offset 6, -28
 7185              		.cfi_offset 7, -24
 7186              		.cfi_offset 8, -20
 7187              		.cfi_offset 9, -16
 7188              		.cfi_offset 10, -12
 7189              		.cfi_offset 11, -8
 7190              		.cfi_offset 14, -4
 7191              		.pad #12
 7192 0008 0CD04DE2 		sub	sp, sp, #12
 7193              		.cfi_def_cfa_offset 48
  39:C:/Renesas/e2studio_2021_01_workspace_RZA2M_ANPR/ANPR_RZA2M_GR_MANGO/src/tensorflow_lite/src/tensorflow/lite/kernels/internal/reference\arg_min_max.h ****   TFLITE_DCHECK_EQ(input1_shape.DimensionsCount() - 1,
 7194              		.loc 2 39 0
 7195 000c 00005CE3 		cmp	ip, #0
 7196 0010 390000DA 		ble	.L831
 7197              	.LVL902:
  40:C:/Renesas/e2studio_2021_01_workspace_RZA2M_ANPR/ANPR_RZA2M_GR_MANGO/src/tensorflow_lite/src/tensorflow/lite/kernels/internal/reference\arg_min_max.h ****                    output_shape.DimensionsCount());
 7198              		.loc 2 40 0
 7199 0014 00E093E5 		ldr	lr, [r3]
 7200 0018 01404CE2 		sub	r4, ip, #1
 7201              	.LVL903:
 7202 001c 0E0054E1 		cmp	r4, lr
 7203 0020 3500001A 		bne	.L831
  42:C:/Renesas/e2studio_2021_01_workspace_RZA2M_ANPR/ANPR_RZA2M_GR_MANGO/src/tensorflow_lite/src/tensorflow/lite/kernels/internal/reference\arg_min_max.h ****   if (axis < 0) {
 7204              		.loc 2 42 0
 7205 0024 002092E5 		ldr	r2, [r2]
 7206              	.LVL904:
  43:C:/Renesas/e2studio_2021_01_workspace_RZA2M_ANPR/ANPR_RZA2M_GR_MANGO/src/tensorflow_lite/src/tensorflow/lite/kernels/internal/reference\arg_min_max.h ****     axis += input1_shape.DimensionsCount();
 7207              		.loc 2 43 0
 7208 0028 000052E3 		cmp	r2, #0
 7209 002c 190100BA 		blt	.L968
 7210              	.LVL905:
 7211              	.L832:
 7212              	.LBB1508:
 7213              	.LBB1509:
 215:C:/Renesas/e2studio_2021_01_workspace_RZA2M_ANPR/ANPR_RZA2M_GR_MANGO/src/tensorflow_lite/src/tensorflow/lite/kernels/internal\types.h ****     return size_ > kMaxSmallSize ? dims_pointer_[i] : dims_[i];
 7214              		.loc 3 215 0
 7215 0030 02005CE1 		cmp	ip, r2
 7216 0034 300000DA 		ble	.L831
 7217              		.loc 3 216 0
 7218 0038 05005CE3 		cmp	ip, #5
 7219 003c A80000CA 		bgt	.L969
 7220 0040 02E180E0 		add	lr, r0, r2, lsl #2
 7221              	.LBE1509:
 7222              	.LBE1508:
 7223              	.LBB1514:
  49:C:/Renesas/e2studio_2021_01_workspace_RZA2M_ANPR/ANPR_RZA2M_GR_MANGO/src/tensorflow_lite/src/tensorflow/lite/kernels/internal/reference\arg_min_max.h ****     TFLITE_DCHECK_EQ(input1_shape.Dims(i), output_shape.Dims(i));
 7224              		.loc 2 49 0
 7225 0044 000052E3 		cmp	r2, #0
 7226              	.LBE1514:
 7227              	.LBB1595:
 7228              	.LBB1510:
 7229              		.loc 3 216 0
 7230 0048 04E09EE5 		ldr	lr, [lr, #4]
 7231              	.LVL906:
 7232              	.LBE1510:
 7233              	.LBE1595:
 7234              	.LBB1596:
  49:C:/Renesas/e2studio_2021_01_workspace_RZA2M_ANPR/ANPR_RZA2M_GR_MANGO/src/tensorflow_lite/src/tensorflow/lite/kernels/internal/reference\arg_min_max.h ****     TFLITE_DCHECK_EQ(input1_shape.Dims(i), output_shape.Dims(i));
 7235              		.loc 2 49 0
 7236 004c 7501000A 		beq	.L834
 7237 0050 050054E3 		cmp	r4, #5
 7238 0054 290000CA 		bgt	.L838
 7239              	.LVL907:
 7240              	.LBB1515:
 7241              	.LBB1516:
 215:C:/Renesas/e2studio_2021_01_workspace_RZA2M_ANPR/ANPR_RZA2M_GR_MANGO/src/tensorflow_lite/src/tensorflow/lite/kernels/internal\types.h ****     return size_ > kMaxSmallSize ? dims_pointer_[i] : dims_[i];
 7242              		.loc 3 215 0
 7243 0058 000054E3 		cmp	r4, #0
 7244              	.LBE1516:
 7245              	.LBE1515:
 7246              	.LBB1537:
 7247              	.LBB1538:
 7248              		.loc 3 216 0
 7249 005c 049090E5 		ldr	r9, [r0, #4]
 7250              	.LVL908:
 7251              	.LBE1538:
 7252              	.LBE1537:
 7253              	.LBB1557:
 7254              	.LBB1517:
 215:C:/Renesas/e2studio_2021_01_workspace_RZA2M_ANPR/ANPR_RZA2M_GR_MANGO/src/tensorflow_lite/src/tensorflow/lite/kernels/internal\types.h ****     return size_ > kMaxSmallSize ? dims_pointer_[i] : dims_[i];
 7255              		.loc 3 215 0
 7256 0060 2500000A 		beq	.L831
 7257              	.LVL909:
 7258              	.LBE1517:
 7259              	.LBE1557:
  50:C:/Renesas/e2studio_2021_01_workspace_RZA2M_ANPR/ANPR_RZA2M_GR_MANGO/src/tensorflow_lite/src/tensorflow/lite/kernels/internal/reference\arg_min_max.h ****     outer_size *= input1_shape.Dims(i);
 7260              		.loc 2 50 0
 7261 0064 045093E5 		ldr	r5, [r3, #4]
 7262 0068 050059E1 		cmp	r9, r5
 7263 006c 2200001A 		bne	.L831
 7264              	.LVL910:
  49:C:/Renesas/e2studio_2021_01_workspace_RZA2M_ANPR/ANPR_RZA2M_GR_MANGO/src/tensorflow_lite/src/tensorflow/lite/kernels/internal/reference\arg_min_max.h ****     TFLITE_DCHECK_EQ(input1_shape.Dims(i), output_shape.Dims(i));
 7265              		.loc 2 49 0
 7266 0070 010052E3 		cmp	r2, #1
 7267 0074 3801000A 		beq	.L839
 7268              	.LVL911:
 7269              	.LBB1558:
 7270              	.LBB1539:
 215:C:/Renesas/e2studio_2021_01_workspace_RZA2M_ANPR/ANPR_RZA2M_GR_MANGO/src/tensorflow_lite/src/tensorflow/lite/kernels/internal\types.h ****     return size_ > kMaxSmallSize ? dims_pointer_[i] : dims_[i];
 7271              		.loc 3 215 0
 7272 0078 01005CE3 		cmp	ip, #1
 7273 007c 1E00000A 		beq	.L831
 7274              	.LBE1539:
 7275              	.LBE1558:
 7276              	.LBB1559:
 7277              	.LBB1518:
 7278 0080 010054E3 		cmp	r4, #1
 7279              	.LBE1518:
 7280              	.LBE1559:
 7281              	.LBB1560:
 7282              	.LBB1540:
 7283              		.loc 3 216 0
 7284 0084 085090E5 		ldr	r5, [r0, #8]
 7285              	.LVL912:
 7286              	.LBE1540:
 7287              	.LBE1560:
 7288              	.LBB1561:
 7289              	.LBB1519:
 215:C:/Renesas/e2studio_2021_01_workspace_RZA2M_ANPR/ANPR_RZA2M_GR_MANGO/src/tensorflow_lite/src/tensorflow/lite/kernels/internal\types.h ****     return size_ > kMaxSmallSize ? dims_pointer_[i] : dims_[i];
 7290              		.loc 3 215 0
 7291 0088 1B00000A 		beq	.L831
 7292              	.LVL913:
 7293              	.LBE1519:
 7294              	.LBE1561:
  50:C:/Renesas/e2studio_2021_01_workspace_RZA2M_ANPR/ANPR_RZA2M_GR_MANGO/src/tensorflow_lite/src/tensorflow/lite/kernels/internal/reference\arg_min_max.h ****     outer_size *= input1_shape.Dims(i);
 7295              		.loc 2 50 0
 7296 008c 086093E5 		ldr	r6, [r3, #8]
 7297 0090 060055E1 		cmp	r5, r6
 7298 0094 1800001A 		bne	.L831
  49:C:/Renesas/e2studio_2021_01_workspace_RZA2M_ANPR/ANPR_RZA2M_GR_MANGO/src/tensorflow_lite/src/tensorflow/lite/kernels/internal/reference\arg_min_max.h ****     TFLITE_DCHECK_EQ(input1_shape.Dims(i), output_shape.Dims(i));
 7299              		.loc 2 49 0
 7300 0098 020052E3 		cmp	r2, #2
  51:C:/Renesas/e2studio_2021_01_workspace_RZA2M_ANPR/ANPR_RZA2M_GR_MANGO/src/tensorflow_lite/src/tensorflow/lite/kernels/internal/reference\arg_min_max.h ****   }
 7301              		.loc 2 51 0
 7302 009c 950909E0 		mul	r9, r5, r9
 7303              	.LVL914:
  49:C:/Renesas/e2studio_2021_01_workspace_RZA2M_ANPR/ANPR_RZA2M_GR_MANGO/src/tensorflow_lite/src/tensorflow/lite/kernels/internal/reference\arg_min_max.h ****     TFLITE_DCHECK_EQ(input1_shape.Dims(i), output_shape.Dims(i));
 7304              		.loc 2 49 0
 7305 00a0 2D01000A 		beq	.L839
 7306              	.LVL915:
 7307              	.LBB1562:
 7308              	.LBB1541:
 215:C:/Renesas/e2studio_2021_01_workspace_RZA2M_ANPR/ANPR_RZA2M_GR_MANGO/src/tensorflow_lite/src/tensorflow/lite/kernels/internal\types.h ****     return size_ > kMaxSmallSize ? dims_pointer_[i] : dims_[i];
 7309              		.loc 3 215 0
 7310 00a4 02005CE3 		cmp	ip, #2
 7311 00a8 1300000A 		beq	.L831
 7312              	.LBE1541:
 7313              	.LBE1562:
 7314              	.LBB1563:
 7315              	.LBB1520:
 7316 00ac 020054E3 		cmp	r4, #2
 7317              	.LBE1520:
 7318              	.LBE1563:
 7319              	.LBB1564:
 7320              	.LBB1542:
 7321              		.loc 3 216 0
 7322 00b0 0C5090E5 		ldr	r5, [r0, #12]
 7323              	.LVL916:
 7324              	.LBE1542:
 7325              	.LBE1564:
 7326              	.LBB1565:
 7327              	.LBB1521:
 215:C:/Renesas/e2studio_2021_01_workspace_RZA2M_ANPR/ANPR_RZA2M_GR_MANGO/src/tensorflow_lite/src/tensorflow/lite/kernels/internal\types.h ****     return size_ > kMaxSmallSize ? dims_pointer_[i] : dims_[i];
 7328              		.loc 3 215 0
 7329 00b4 1000000A 		beq	.L831
 7330              	.LVL917:
 7331              	.LBE1521:
 7332              	.LBE1565:
  50:C:/Renesas/e2studio_2021_01_workspace_RZA2M_ANPR/ANPR_RZA2M_GR_MANGO/src/tensorflow_lite/src/tensorflow/lite/kernels/internal/reference\arg_min_max.h ****     outer_size *= input1_shape.Dims(i);
 7333              		.loc 2 50 0
 7334 00b8 0C6093E5 		ldr	r6, [r3, #12]
 7335 00bc 060055E1 		cmp	r5, r6
 7336 00c0 0D00001A 		bne	.L831
  49:C:/Renesas/e2studio_2021_01_workspace_RZA2M_ANPR/ANPR_RZA2M_GR_MANGO/src/tensorflow_lite/src/tensorflow/lite/kernels/internal/reference\arg_min_max.h ****     TFLITE_DCHECK_EQ(input1_shape.Dims(i), output_shape.Dims(i));
 7337              		.loc 2 49 0
 7338 00c4 030052E3 		cmp	r2, #3
  51:C:/Renesas/e2studio_2021_01_workspace_RZA2M_ANPR/ANPR_RZA2M_GR_MANGO/src/tensorflow_lite/src/tensorflow/lite/kernels/internal/reference\arg_min_max.h ****   }
 7339              		.loc 2 51 0
 7340 00c8 950909E0 		mul	r9, r5, r9
 7341              	.LVL918:
  49:C:/Renesas/e2studio_2021_01_workspace_RZA2M_ANPR/ANPR_RZA2M_GR_MANGO/src/tensorflow_lite/src/tensorflow/lite/kernels/internal/reference\arg_min_max.h ****     TFLITE_DCHECK_EQ(input1_shape.Dims(i), output_shape.Dims(i));
 7342              		.loc 2 49 0
 7343 00cc 2201000A 		beq	.L839
 7344              	.LVL919:
 7345              	.LBB1566:
 7346              	.LBB1543:
 215:C:/Renesas/e2studio_2021_01_workspace_RZA2M_ANPR/ANPR_RZA2M_GR_MANGO/src/tensorflow_lite/src/tensorflow/lite/kernels/internal\types.h ****     return size_ > kMaxSmallSize ? dims_pointer_[i] : dims_[i];
 7347              		.loc 3 215 0
 7348 00d0 03005CE3 		cmp	ip, #3
 7349 00d4 0800000A 		beq	.L831
 7350              	.LBE1543:
 7351              	.LBE1566:
 7352              	.LBB1567:
 7353              	.LBB1522:
 7354 00d8 030054E3 		cmp	r4, #3
 7355              	.LBE1522:
 7356              	.LBE1567:
 7357              	.LBB1568:
 7358              	.LBB1544:
 7359              		.loc 3 216 0
 7360 00dc 105090E5 		ldr	r5, [r0, #16]
 7361              	.LVL920:
 7362              	.LBE1544:
 7363              	.LBE1568:
 7364              	.LBB1569:
 7365              	.LBB1523:
 215:C:/Renesas/e2studio_2021_01_workspace_RZA2M_ANPR/ANPR_RZA2M_GR_MANGO/src/tensorflow_lite/src/tensorflow/lite/kernels/internal\types.h ****     return size_ > kMaxSmallSize ? dims_pointer_[i] : dims_[i];
 7366              		.loc 3 215 0
 7367 00e0 0500000A 		beq	.L831
 7368              	.LVL921:
 7369              	.LBE1523:
 7370              	.LBE1569:
  50:C:/Renesas/e2studio_2021_01_workspace_RZA2M_ANPR/ANPR_RZA2M_GR_MANGO/src/tensorflow_lite/src/tensorflow/lite/kernels/internal/reference\arg_min_max.h ****     outer_size *= input1_shape.Dims(i);
 7371              		.loc 2 50 0
 7372 00e4 106093E5 		ldr	r6, [r3, #16]
 7373 00e8 060055E1 		cmp	r5, r6
 7374 00ec 0200001A 		bne	.L831
  49:C:/Renesas/e2studio_2021_01_workspace_RZA2M_ANPR/ANPR_RZA2M_GR_MANGO/src/tensorflow_lite/src/tensorflow/lite/kernels/internal/reference\arg_min_max.h ****     TFLITE_DCHECK_EQ(input1_shape.Dims(i), output_shape.Dims(i));
 7375              		.loc 2 49 0
 7376 00f0 040052E3 		cmp	r2, #4
  51:C:/Renesas/e2studio_2021_01_workspace_RZA2M_ANPR/ANPR_RZA2M_GR_MANGO/src/tensorflow_lite/src/tensorflow/lite/kernels/internal/reference\arg_min_max.h ****   }
 7377              		.loc 2 51 0
 7378 00f4 950909E0 		mul	r9, r5, r9
 7379              	.LVL922:
  49:C:/Renesas/e2studio_2021_01_workspace_RZA2M_ANPR/ANPR_RZA2M_GR_MANGO/src/tensorflow_lite/src/tensorflow/lite/kernels/internal/reference\arg_min_max.h ****     TFLITE_DCHECK_EQ(input1_shape.Dims(i), output_shape.Dims(i));
 7380              		.loc 2 49 0
 7381 00f8 1701000A 		beq	.L839
 7382              	.LVL923:
 7383              	.L831:
 7384              	.LBE1596:
  39:C:/Renesas/e2studio_2021_01_workspace_RZA2M_ANPR/ANPR_RZA2M_GR_MANGO/src/tensorflow_lite/src/tensorflow/lite/kernels/internal/reference\arg_min_max.h ****   TFLITE_DCHECK_EQ(input1_shape.DimensionsCount() - 1,
 7385              		.loc 2 39 0 discriminator 1
 7386 00fc FEFFFFEB 		bl	abort
 7387              	.LVL924:
 7388              	.L838:
 7389              	.LBB1597:
 7390              	.LBB1570:
 7391              	.LBB1524:
 7392              		.loc 3 216 0
 7393 0100 045093E5 		ldr	r5, [r3, #4]
 7394              	.LBE1524:
 7395              	.LBE1570:
 7396              	.LBB1571:
 7397              	.LBB1545:
 7398 0104 049090E5 		ldr	r9, [r0, #4]
 7399              	.LVL925:
 7400              	.LBE1545:
 7401              	.LBE1571:
  50:C:/Renesas/e2studio_2021_01_workspace_RZA2M_ANPR/ANPR_RZA2M_GR_MANGO/src/tensorflow_lite/src/tensorflow/lite/kernels/internal/reference\arg_min_max.h ****     outer_size *= input1_shape.Dims(i);
 7402              		.loc 2 50 0
 7403 0108 006095E5 		ldr	r6, [r5]
 7404 010c 060059E1 		cmp	r9, r6
 7405 0110 F9FFFF1A 		bne	.L831
 7406              	.LVL926:
  49:C:/Renesas/e2studio_2021_01_workspace_RZA2M_ANPR/ANPR_RZA2M_GR_MANGO/src/tensorflow_lite/src/tensorflow/lite/kernels/internal/reference\arg_min_max.h ****     TFLITE_DCHECK_EQ(input1_shape.Dims(i), output_shape.Dims(i));
 7407              		.loc 2 49 0
 7408 0114 010052E3 		cmp	r2, #1
 7409 0118 1A00000A 		beq	.L840
 7410              	.LVL927:
 7411              	.LBB1572:
 7412              	.LBB1546:
 215:C:/Renesas/e2studio_2021_01_workspace_RZA2M_ANPR/ANPR_RZA2M_GR_MANGO/src/tensorflow_lite/src/tensorflow/lite/kernels/internal\types.h ****     return size_ > kMaxSmallSize ? dims_pointer_[i] : dims_[i];
 7413              		.loc 3 215 0
 7414 011c 01005CE3 		cmp	ip, #1
 7415 0120 F5FFFF0A 		beq	.L831
 7416              		.loc 3 216 0
 7417 0124 086090E5 		ldr	r6, [r0, #8]
 7418              	.LVL928:
 7419              	.LBE1546:
 7420              	.LBE1572:
  50:C:/Renesas/e2studio_2021_01_workspace_RZA2M_ANPR/ANPR_RZA2M_GR_MANGO/src/tensorflow_lite/src/tensorflow/lite/kernels/internal/reference\arg_min_max.h ****     outer_size *= input1_shape.Dims(i);
 7421              		.loc 2 50 0
 7422 0128 047095E5 		ldr	r7, [r5, #4]
 7423 012c 070056E1 		cmp	r6, r7
 7424 0130 F1FFFF1A 		bne	.L831
  49:C:/Renesas/e2studio_2021_01_workspace_RZA2M_ANPR/ANPR_RZA2M_GR_MANGO/src/tensorflow_lite/src/tensorflow/lite/kernels/internal/reference\arg_min_max.h ****     TFLITE_DCHECK_EQ(input1_shape.Dims(i), output_shape.Dims(i));
 7425              		.loc 2 49 0
 7426 0134 020052E3 		cmp	r2, #2
  51:C:/Renesas/e2studio_2021_01_workspace_RZA2M_ANPR/ANPR_RZA2M_GR_MANGO/src/tensorflow_lite/src/tensorflow/lite/kernels/internal/reference\arg_min_max.h ****   }
 7427              		.loc 2 51 0
 7428 0138 960909E0 		mul	r9, r6, r9
 7429              	.LVL929:
  49:C:/Renesas/e2studio_2021_01_workspace_RZA2M_ANPR/ANPR_RZA2M_GR_MANGO/src/tensorflow_lite/src/tensorflow/lite/kernels/internal/reference\arg_min_max.h ****     TFLITE_DCHECK_EQ(input1_shape.Dims(i), output_shape.Dims(i));
 7430              		.loc 2 49 0
 7431 013c 1100000A 		beq	.L840
 7432              	.LVL930:
 7433              	.LBB1573:
 7434              	.LBB1547:
 215:C:/Renesas/e2studio_2021_01_workspace_RZA2M_ANPR/ANPR_RZA2M_GR_MANGO/src/tensorflow_lite/src/tensorflow/lite/kernels/internal\types.h ****     return size_ > kMaxSmallSize ? dims_pointer_[i] : dims_[i];
 7435              		.loc 3 215 0
 7436 0140 02005CE3 		cmp	ip, #2
 7437 0144 ECFFFF0A 		beq	.L831
 7438              		.loc 3 216 0
 7439 0148 0C6090E5 		ldr	r6, [r0, #12]
 7440              	.LVL931:
 7441              	.LBE1547:
 7442              	.LBE1573:
  50:C:/Renesas/e2studio_2021_01_workspace_RZA2M_ANPR/ANPR_RZA2M_GR_MANGO/src/tensorflow_lite/src/tensorflow/lite/kernels/internal/reference\arg_min_max.h ****     outer_size *= input1_shape.Dims(i);
 7443              		.loc 2 50 0
 7444 014c 087095E5 		ldr	r7, [r5, #8]
 7445 0150 070056E1 		cmp	r6, r7
 7446 0154 E8FFFF1A 		bne	.L831
  49:C:/Renesas/e2studio_2021_01_workspace_RZA2M_ANPR/ANPR_RZA2M_GR_MANGO/src/tensorflow_lite/src/tensorflow/lite/kernels/internal/reference\arg_min_max.h ****     TFLITE_DCHECK_EQ(input1_shape.Dims(i), output_shape.Dims(i));
 7447              		.loc 2 49 0
 7448 0158 030052E3 		cmp	r2, #3
  51:C:/Renesas/e2studio_2021_01_workspace_RZA2M_ANPR/ANPR_RZA2M_GR_MANGO/src/tensorflow_lite/src/tensorflow/lite/kernels/internal/reference\arg_min_max.h ****   }
 7449              		.loc 2 51 0
 7450 015c 960909E0 		mul	r9, r6, r9
 7451              	.LVL932:
  49:C:/Renesas/e2studio_2021_01_workspace_RZA2M_ANPR/ANPR_RZA2M_GR_MANGO/src/tensorflow_lite/src/tensorflow/lite/kernels/internal/reference\arg_min_max.h ****     TFLITE_DCHECK_EQ(input1_shape.Dims(i), output_shape.Dims(i));
 7452              		.loc 2 49 0
 7453 0160 0800000A 		beq	.L840
 7454              	.LVL933:
 7455              	.LBB1574:
 7456              	.LBB1548:
 215:C:/Renesas/e2studio_2021_01_workspace_RZA2M_ANPR/ANPR_RZA2M_GR_MANGO/src/tensorflow_lite/src/tensorflow/lite/kernels/internal\types.h ****     return size_ > kMaxSmallSize ? dims_pointer_[i] : dims_[i];
 7457              		.loc 3 215 0
 7458 0164 03005CE3 		cmp	ip, #3
 7459 0168 E3FFFF0A 		beq	.L831
 7460              	.LBE1548:
 7461              	.LBE1574:
  50:C:/Renesas/e2studio_2021_01_workspace_RZA2M_ANPR/ANPR_RZA2M_GR_MANGO/src/tensorflow_lite/src/tensorflow/lite/kernels/internal/reference\arg_min_max.h ****     outer_size *= input1_shape.Dims(i);
 7462              		.loc 2 50 0
 7463 016c 0C6095E5 		ldr	r6, [r5, #12]
 7464              	.LBB1575:
 7465              	.LBB1549:
 7466              		.loc 3 216 0
 7467 0170 105090E5 		ldr	r5, [r0, #16]
 7468              	.LVL934:
 7469              	.LBE1549:
 7470              	.LBE1575:
  50:C:/Renesas/e2studio_2021_01_workspace_RZA2M_ANPR/ANPR_RZA2M_GR_MANGO/src/tensorflow_lite/src/tensorflow/lite/kernels/internal/reference\arg_min_max.h ****     outer_size *= input1_shape.Dims(i);
 7471              		.loc 2 50 0
 7472 0174 060055E1 		cmp	r5, r6
 7473 0178 DFFFFF1A 		bne	.L831
  49:C:/Renesas/e2studio_2021_01_workspace_RZA2M_ANPR/ANPR_RZA2M_GR_MANGO/src/tensorflow_lite/src/tensorflow/lite/kernels/internal/reference\arg_min_max.h ****     TFLITE_DCHECK_EQ(input1_shape.Dims(i), output_shape.Dims(i));
 7474              		.loc 2 49 0
 7475 017c 040052E3 		cmp	r2, #4
  51:C:/Renesas/e2studio_2021_01_workspace_RZA2M_ANPR/ANPR_RZA2M_GR_MANGO/src/tensorflow_lite/src/tensorflow/lite/kernels/internal/reference\arg_min_max.h ****   }
 7476              		.loc 2 51 0
 7477 0180 950909E0 		mul	r9, r5, r9
 7478              	.LVL935:
  49:C:/Renesas/e2studio_2021_01_workspace_RZA2M_ANPR/ANPR_RZA2M_GR_MANGO/src/tensorflow_lite/src/tensorflow/lite/kernels/internal/reference\arg_min_max.h ****     TFLITE_DCHECK_EQ(input1_shape.Dims(i), output_shape.Dims(i));
 7479              		.loc 2 49 0
 7480 0184 DCFFFF1A 		bne	.L831
 7481              	.LVL936:
 7482              	.L840:
 7483              	.LBE1597:
 7484              	.LBB1598:
  56:C:/Renesas/e2studio_2021_01_workspace_RZA2M_ANPR/ANPR_RZA2M_GR_MANGO/src/tensorflow_lite/src/tensorflow/lite/kernels/internal/reference\arg_min_max.h ****     TFLITE_DCHECK_EQ(input1_shape.Dims(i), output_shape.Dims(i - 1));
 7485              		.loc 2 56 0
 7486 0188 012082E2 		add	r2, r2, #1
 7487              	.LVL937:
 7488 018c 02005CE1 		cmp	ip, r2
 7489 0190 EF0000DA 		ble	.L875
 7490              	.LVL938:
 7491              	.L847:
  57:C:/Renesas/e2studio_2021_01_workspace_RZA2M_ANPR/ANPR_RZA2M_GR_MANGO/src/tensorflow_lite/src/tensorflow/lite/kernels/internal/reference\arg_min_max.h ****     inner_size *= input1_shape.Dims(i);
 7492              		.loc 2 57 0
 7493 0194 015042E2 		sub	r5, r2, #1
 7494              	.LBB1599:
 7495              	.LBB1600:
 7496              		.loc 3 216 0
 7497 0198 026180E0 		add	r6, r0, r2, lsl #2
 7498              	.LBE1600:
 7499              	.LBE1599:
 7500              	.LBB1621:
 7501              	.LBB1622:
 215:C:/Renesas/e2studio_2021_01_workspace_RZA2M_ANPR/ANPR_RZA2M_GR_MANGO/src/tensorflow_lite/src/tensorflow/lite/kernels/internal\types.h ****     return size_ > kMaxSmallSize ? dims_pointer_[i] : dims_[i];
 7502              		.loc 3 215 0
 7503 019c 050054E1 		cmp	r4, r5
 7504              	.LBE1622:
 7505              	.LBE1621:
 7506              	.LBB1651:
 7507              	.LBB1601:
 7508              		.loc 3 216 0
 7509 01a0 046096E5 		ldr	r6, [r6, #4]
 7510              	.LVL939:
 7511              	.LBE1601:
 7512              	.LBE1651:
 7513              	.LBB1652:
 7514              	.LBB1623:
 215:C:/Renesas/e2studio_2021_01_workspace_RZA2M_ANPR/ANPR_RZA2M_GR_MANGO/src/tensorflow_lite/src/tensorflow/lite/kernels/internal\types.h ****     return size_ > kMaxSmallSize ? dims_pointer_[i] : dims_[i];
 7515              		.loc 3 215 0
 7516 01a4 D4FFFFDA 		ble	.L831
 7517              		.loc 3 216 0
 7518 01a8 043093E5 		ldr	r3, [r3, #4]
 7519              	.LVL940:
 7520 01ac 0571A0E1 		lsl	r7, r5, #2
 7521 01b0 058193E7 		ldr	r8, [r3, r5, lsl #2]
 7522              	.LVL941:
 7523              	.LBE1623:
 7524              	.LBE1652:
  57:C:/Renesas/e2studio_2021_01_workspace_RZA2M_ANPR/ANPR_RZA2M_GR_MANGO/src/tensorflow_lite/src/tensorflow/lite/kernels/internal/reference\arg_min_max.h ****     inner_size *= input1_shape.Dims(i);
 7525              		.loc 2 57 0
 7526 01b4 060058E1 		cmp	r8, r6
 7527 01b8 CFFFFF1A 		bne	.L831
 7528              	.LVL942:
  56:C:/Renesas/e2studio_2021_01_workspace_RZA2M_ANPR/ANPR_RZA2M_GR_MANGO/src/tensorflow_lite/src/tensorflow/lite/kernels/internal/reference\arg_min_max.h ****     TFLITE_DCHECK_EQ(input1_shape.Dims(i), output_shape.Dims(i - 1));
 7529              		.loc 2 56 0
 7530 01bc 016082E2 		add	r6, r2, #1
 7531              	.LVL943:
 7532 01c0 06005CE1 		cmp	ip, r6
 7533 01c4 1E0000DA 		ble	.L851
 7534              	.LVL944:
 7535              	.LBB1653:
 7536              	.LBB1602:
 7537              		.loc 3 216 0
 7538 01c8 065180E0 		add	r5, r0, r6, lsl #2
 7539              	.LBE1602:
 7540              	.LBE1653:
 7541              	.LBB1654:
 7542              	.LBB1624:
 215:C:/Renesas/e2studio_2021_01_workspace_RZA2M_ANPR/ANPR_RZA2M_GR_MANGO/src/tensorflow_lite/src/tensorflow/lite/kernels/internal\types.h ****     return size_ > kMaxSmallSize ? dims_pointer_[i] : dims_[i];
 7543              		.loc 3 215 0
 7544 01cc 020054E1 		cmp	r4, r2
 7545              	.LBE1624:
 7546              	.LBE1654:
 7547              	.LBB1655:
 7548              	.LBB1603:
 7549              		.loc 3 216 0
 7550 01d0 045095E5 		ldr	r5, [r5, #4]
 7551              	.LVL945:
 7552              	.LBE1603:
 7553              	.LBE1655:
 7554              	.LBB1656:
 7555              	.LBB1625:
 215:C:/Renesas/e2studio_2021_01_workspace_RZA2M_ANPR/ANPR_RZA2M_GR_MANGO/src/tensorflow_lite/src/tensorflow/lite/kernels/internal\types.h ****     return size_ > kMaxSmallSize ? dims_pointer_[i] : dims_[i];
 7556              		.loc 3 215 0
 7557 01d4 C8FFFFDA 		ble	.L831
 7558              		.loc 3 216 0
 7559 01d8 073083E0 		add	r3, r3, r7
 7560 01dc 047093E5 		ldr	r7, [r3, #4]
 7561              	.LVL946:
 7562              	.LBE1625:
 7563              	.LBE1656:
  57:C:/Renesas/e2studio_2021_01_workspace_RZA2M_ANPR/ANPR_RZA2M_GR_MANGO/src/tensorflow_lite/src/tensorflow/lite/kernels/internal/reference\arg_min_max.h ****     inner_size *= input1_shape.Dims(i);
 7564              		.loc 2 57 0
 7565 01e0 050057E1 		cmp	r7, r5
 7566 01e4 C4FFFF1A 		bne	.L831
  56:C:/Renesas/e2studio_2021_01_workspace_RZA2M_ANPR/ANPR_RZA2M_GR_MANGO/src/tensorflow_lite/src/tensorflow/lite/kernels/internal/reference\arg_min_max.h ****     TFLITE_DCHECK_EQ(input1_shape.Dims(i), output_shape.Dims(i - 1));
 7567              		.loc 2 56 0
 7568 01e8 025082E2 		add	r5, r2, #2
  58:C:/Renesas/e2studio_2021_01_workspace_RZA2M_ANPR/ANPR_RZA2M_GR_MANGO/src/tensorflow_lite/src/tensorflow/lite/kernels/internal/reference\arg_min_max.h ****   }
 7569              		.loc 2 58 0
 7570 01ec 980708E0 		mul	r8, r8, r7
 7571              	.LVL947:
  56:C:/Renesas/e2studio_2021_01_workspace_RZA2M_ANPR/ANPR_RZA2M_GR_MANGO/src/tensorflow_lite/src/tensorflow/lite/kernels/internal/reference\arg_min_max.h ****     TFLITE_DCHECK_EQ(input1_shape.Dims(i), output_shape.Dims(i - 1));
 7572              		.loc 2 56 0
 7573 01f0 05005CE1 		cmp	ip, r5
 7574 01f4 120000DA 		ble	.L851
 7575              	.LVL948:
 7576              	.LBB1657:
 7577              	.LBB1626:
 215:C:/Renesas/e2studio_2021_01_workspace_RZA2M_ANPR/ANPR_RZA2M_GR_MANGO/src/tensorflow_lite/src/tensorflow/lite/kernels/internal\types.h ****     return size_ > kMaxSmallSize ? dims_pointer_[i] : dims_[i];
 7578              		.loc 3 215 0
 7579 01f8 060054E1 		cmp	r4, r6
 7580              	.LBE1626:
 7581              	.LBE1657:
 7582              	.LBB1658:
 7583              	.LBB1604:
 7584              		.loc 3 216 0
 7585 01fc 056180E0 		add	r6, r0, r5, lsl #2
 7586 0200 046096E5 		ldr	r6, [r6, #4]
 7587              	.LVL949:
 7588              	.LBE1604:
 7589              	.LBE1658:
 7590              	.LBB1659:
 7591              	.LBB1627:
 215:C:/Renesas/e2studio_2021_01_workspace_RZA2M_ANPR/ANPR_RZA2M_GR_MANGO/src/tensorflow_lite/src/tensorflow/lite/kernels/internal\types.h ****     return size_ > kMaxSmallSize ? dims_pointer_[i] : dims_[i];
 7592              		.loc 3 215 0
 7593 0204 BCFFFFDA 		ble	.L831
 7594              		.loc 3 216 0
 7595 0208 087093E5 		ldr	r7, [r3, #8]
 7596              	.LVL950:
 7597              	.LBE1627:
 7598              	.LBE1659:
  57:C:/Renesas/e2studio_2021_01_workspace_RZA2M_ANPR/ANPR_RZA2M_GR_MANGO/src/tensorflow_lite/src/tensorflow/lite/kernels/internal/reference\arg_min_max.h ****     inner_size *= input1_shape.Dims(i);
 7599              		.loc 2 57 0
 7600 020c 070056E1 		cmp	r6, r7
 7601 0210 B9FFFF1A 		bne	.L831
 7602              	.LVL951:
  56:C:/Renesas/e2studio_2021_01_workspace_RZA2M_ANPR/ANPR_RZA2M_GR_MANGO/src/tensorflow_lite/src/tensorflow/lite/kernels/internal/reference\arg_min_max.h ****     TFLITE_DCHECK_EQ(input1_shape.Dims(i), output_shape.Dims(i - 1));
 7603              		.loc 2 56 0
 7604 0214 032082E2 		add	r2, r2, #3
  58:C:/Renesas/e2studio_2021_01_workspace_RZA2M_ANPR/ANPR_RZA2M_GR_MANGO/src/tensorflow_lite/src/tensorflow/lite/kernels/internal/reference\arg_min_max.h ****   }
 7605              		.loc 2 58 0
 7606 0218 960808E0 		mul	r8, r6, r8
 7607              	.LVL952:
  56:C:/Renesas/e2studio_2021_01_workspace_RZA2M_ANPR/ANPR_RZA2M_GR_MANGO/src/tensorflow_lite/src/tensorflow/lite/kernels/internal/reference\arg_min_max.h ****     TFLITE_DCHECK_EQ(input1_shape.Dims(i), output_shape.Dims(i - 1));
 7608              		.loc 2 56 0
 7609 021c 02005CE1 		cmp	ip, r2
 7610 0220 070000DA 		ble	.L851
 7611              	.LVL953:
 7612              	.LBB1660:
 7613              	.LBB1605:
 7614              		.loc 3 216 0
 7615 0224 022180E0 		add	r2, r0, r2, lsl #2
 7616              	.LVL954:
 7617              	.LBE1605:
 7618              	.LBE1660:
 7619              	.LBB1661:
 7620              	.LBB1628:
 215:C:/Renesas/e2studio_2021_01_workspace_RZA2M_ANPR/ANPR_RZA2M_GR_MANGO/src/tensorflow_lite/src/tensorflow/lite/kernels/internal\types.h ****     return size_ > kMaxSmallSize ? dims_pointer_[i] : dims_[i];
 7621              		.loc 3 215 0
 7622 0228 050054E1 		cmp	r4, r5
 7623              	.LBE1628:
 7624              	.LBE1661:
 7625              	.LBB1662:
 7626              	.LBB1606:
 7627              		.loc 3 216 0
 7628 022c 042092E5 		ldr	r2, [r2, #4]
 7629              	.LVL955:
 7630              	.LBE1606:
 7631              	.LBE1662:
 7632              	.LBB1663:
 7633              	.LBB1629:
 215:C:/Renesas/e2studio_2021_01_workspace_RZA2M_ANPR/ANPR_RZA2M_GR_MANGO/src/tensorflow_lite/src/tensorflow/lite/kernels/internal\types.h ****     return size_ > kMaxSmallSize ? dims_pointer_[i] : dims_[i];
 7634              		.loc 3 215 0
 7635 0230 B1FFFFDA 		ble	.L831
 7636              		.loc 3 216 0
 7637 0234 0C3093E5 		ldr	r3, [r3, #12]
 7638              	.LVL956:
 7639              	.LBE1629:
 7640              	.LBE1663:
  57:C:/Renesas/e2studio_2021_01_workspace_RZA2M_ANPR/ANPR_RZA2M_GR_MANGO/src/tensorflow_lite/src/tensorflow/lite/kernels/internal/reference\arg_min_max.h ****     inner_size *= input1_shape.Dims(i);
 7641              		.loc 2 57 0
 7642 0238 020053E1 		cmp	r3, r2
 7643 023c AEFFFF1A 		bne	.L831
 7644              	.LVL957:
 7645              	.L964:
  58:C:/Renesas/e2studio_2021_01_workspace_RZA2M_ANPR/ANPR_RZA2M_GR_MANGO/src/tensorflow_lite/src/tensorflow/lite/kernels/internal/reference\arg_min_max.h ****   }
 7646              		.loc 2 58 0
 7647 0240 920808E0 		mul	r8, r2, r8
 7648              	.LVL958:
 7649              	.L851:
 7650              	.LBE1598:
 7651              	.LBB1699:
  60:C:/Renesas/e2studio_2021_01_workspace_RZA2M_ANPR/ANPR_RZA2M_GR_MANGO/src/tensorflow_lite/src/tensorflow/lite/kernels/internal/reference\arg_min_max.h ****     for (int inner = 0; inner < inner_size; ++inner) {
 7652              		.loc 2 60 0 discriminator 1
 7653 0244 000059E3 		cmp	r9, #0
 7654 0248 230000DA 		ble	.L829
 7655 024c 000058E3 		cmp	r8, #0
 7656 0250 210000DA 		ble	.L829
 7657              	.LVL959:
 7658              	.L858:
 7659 0254 9E0803E0 		mul	r3, lr, r8
 7660 0258 30A09DE5 		ldr	r10, [sp, #48]
 7661 025c 086081E0 		add	r6, r1, r8
 7662              	.LBE1699:
  54:C:/Renesas/e2studio_2021_01_workspace_RZA2M_ANPR/ANPR_RZA2M_GR_MANGO/src/tensorflow_lite/src/tensorflow/lite/kernels/internal/reference\arg_min_max.h ****   const int dims_count = input1_shape.DimensionsCount();
 7663              		.loc 2 54 0 discriminator 1
 7664 0260 00B0A0E3 		mov	fp, #0
 7665 0264 017048E2 		sub	r7, r8, #1
 7666 0268 00308DE5 		str	r3, [sp]
 7667 026c 0831A0E1 		lsl	r3, r8, #2
 7668 0270 04308DE5 		str	r3, [sp, #4]
 7669              	.LVL960:
 7670              	.L854:
 7671 0274 084046E0 		sub	r4, r6, r8
 7672 0278 0A50A0E1 		mov	r5, r10
 7673              	.LVL961:
 7674              	.L853:
 7675              	.LBB1707:
 7676              	.LBB1700:
 7677              	.LBB1701:
 7678              	.LBB1702:
  64:C:/Renesas/e2studio_2021_01_workspace_RZA2M_ANPR/ANPR_RZA2M_GR_MANGO/src/tensorflow_lite/src/tensorflow/lite/kernels/internal/reference\arg_min_max.h ****         const auto& curr_value =
 7679              		.loc 2 64 0
 7680 027c 01005EE3 		cmp	lr, #1
 7681              	.LBE1702:
  62:C:/Renesas/e2studio_2021_01_workspace_RZA2M_ANPR/ANPR_RZA2M_GR_MANGO/src/tensorflow_lite/src/tensorflow/lite/kernels/internal/reference\arg_min_max.h ****       T2 min_max_index = 0;
 7682              		.loc 2 62 0
 7683 0280 D130D4E0 		ldrsb	r3, [r4], #1
 7684              	.LVL962:
 7685              	.LBB1703:
  64:C:/Renesas/e2studio_2021_01_workspace_RZA2M_ANPR/ANPR_RZA2M_GR_MANGO/src/tensorflow_lite/src/tensorflow/lite/kernels/internal/reference\arg_min_max.h ****         const auto& curr_value =
 7686              		.loc 2 64 0
 7687 0284 AD0000DA 		ble	.L870
 7688 0288 04C087E0 		add	ip, r7, r4
 7689 028c 0120A0E3 		mov	r2, #1
 7690 0290 0000A0E3 		mov	r0, #0
 7691              	.LVL963:
 7692              	.L856:
 7693 0294 D8109CE0 		ldrsb	r1, [ip], r8
 7694 0298 010053E1 		cmp	r3, r1
 7695 029c 0200A0C1 		movgt	r0, r2
 7696 02a0 010053E1 		cmp	r3, r1
 7697 02a4 012082E2 		add	r2, r2, #1
 7698 02a8 0130A0A1 		movge	r3, r1
 7699              	.LVL964:
 7700 02ac 0E0052E1 		cmp	r2, lr
 7701 02b0 F7FFFF1A 		bne	.L856
 7702              	.LBE1703:
 7703              	.LBE1701:
  61:C:/Renesas/e2studio_2021_01_workspace_RZA2M_ANPR/ANPR_RZA2M_GR_MANGO/src/tensorflow_lite/src/tensorflow/lite/kernels/internal/reference\arg_min_max.h ****       auto min_max_value = input1_data[outer * axis_size * inner_size + inner];
 7704              		.loc 2 61 0 discriminator 2
 7705 02b4 060054E1 		cmp	r4, r6
 7706              	.LBB1704:
  72:C:/Renesas/e2studio_2021_01_workspace_RZA2M_ANPR/ANPR_RZA2M_GR_MANGO/src/tensorflow_lite/src/tensorflow/lite/kernels/internal/reference\arg_min_max.h ****     }
 7707              		.loc 2 72 0 discriminator 2
 7708 02b8 040085E4 		str	r0, [r5], #4
 7709              	.LVL965:
 7710              	.LBE1704:
  61:C:/Renesas/e2studio_2021_01_workspace_RZA2M_ANPR/ANPR_RZA2M_GR_MANGO/src/tensorflow_lite/src/tensorflow/lite/kernels/internal/reference\arg_min_max.h ****       auto min_max_value = input1_data[outer * axis_size * inner_size + inner];
 7711              		.loc 2 61 0 discriminator 2
 7712 02bc EEFFFF1A 		bne	.L853
 7713              	.LVL966:
 7714              	.L970:
 7715 02c0 00309DE5 		ldr	r3, [sp]
 7716              	.LBE1700:
  60:C:/Renesas/e2studio_2021_01_workspace_RZA2M_ANPR/ANPR_RZA2M_GR_MANGO/src/tensorflow_lite/src/tensorflow/lite/kernels/internal/reference\arg_min_max.h ****     for (int inner = 0; inner < inner_size; ++inner) {
 7717              		.loc 2 60 0
 7718 02c4 01B08BE2 		add	fp, fp, #1
 7719              	.LVL967:
 7720 02c8 09005BE1 		cmp	fp, r9
 7721 02cc 036086E0 		add	r6, r6, r3
 7722 02d0 04309DE5 		ldr	r3, [sp, #4]
 7723 02d4 03A08AE0 		add	r10, r10, r3
 7724 02d8 E5FFFFBA 		blt	.L854
 7725              	.LVL968:
 7726              	.L829:
 7727              	.LBE1707:
 7728              		.loc 2 75 0
 7729 02dc 0CD08DE2 		add	sp, sp, #12
 7730              		.cfi_remember_state
 7731              		.cfi_def_cfa_offset 36
 7732              		@ sp needed
 7733 02e0 F08FBDE8 		pop	{r4, r5, r6, r7, r8, r9, r10, fp, pc}
 7734              	.LVL969:
 7735              	.L969:
 7736              		.cfi_restore_state
 7737              	.LBB1708:
 7738              	.LBB1511:
 7739              		.loc 3 216 0
 7740 02e4 045090E5 		ldr	r5, [r0, #4]
 7741              	.LBE1511:
 7742              	.LBE1708:
 7743              	.LBB1709:
  49:C:/Renesas/e2studio_2021_01_workspace_RZA2M_ANPR/ANPR_RZA2M_GR_MANGO/src/tensorflow_lite/src/tensorflow/lite/kernels/internal/reference\arg_min_max.h ****     TFLITE_DCHECK_EQ(input1_shape.Dims(i), output_shape.Dims(i));
 7744              		.loc 2 49 0
 7745 02e8 000052E3 		cmp	r2, #0
 7746              	.LBE1709:
 7747              	.LBB1710:
 7748              	.LBB1512:
 7749              		.loc 3 216 0
 7750 02ec 02E195E7 		ldr	lr, [r5, r2, lsl #2]
 7751              	.LVL970:
 7752              	.LBE1512:
 7753              	.LBE1710:
 7754              	.LBB1711:
  49:C:/Renesas/e2studio_2021_01_workspace_RZA2M_ANPR/ANPR_RZA2M_GR_MANGO/src/tensorflow_lite/src/tensorflow/lite/kernels/internal/reference\arg_min_max.h ****     TFLITE_DCHECK_EQ(input1_shape.Dims(i), output_shape.Dims(i));
 7755              		.loc 2 49 0
 7756 02f0 CC00000A 		beq	.L834
 7757 02f4 050054E3 		cmp	r4, #5
 7758 02f8 690000CA 		bgt	.L841
 7759              	.LVL971:
 7760              	.LBB1576:
 7761              	.LBB1525:
 215:C:/Renesas/e2studio_2021_01_workspace_RZA2M_ANPR/ANPR_RZA2M_GR_MANGO/src/tensorflow_lite/src/tensorflow/lite/kernels/internal\types.h ****     return size_ > kMaxSmallSize ? dims_pointer_[i] : dims_[i];
 7762              		.loc 3 215 0
 7763 02fc 000054E3 		cmp	r4, #0
 7764              	.LBE1525:
 7765              	.LBE1576:
 7766              	.LBB1577:
 7767              	.LBB1550:
 7768              		.loc 3 216 0
 7769 0300 009095E5 		ldr	r9, [r5]
 7770              	.LVL972:
 7771              	.LBE1550:
 7772              	.LBE1577:
 7773              	.LBB1578:
 7774              	.LBB1526:
 215:C:/Renesas/e2studio_2021_01_workspace_RZA2M_ANPR/ANPR_RZA2M_GR_MANGO/src/tensorflow_lite/src/tensorflow/lite/kernels/internal\types.h ****     return size_ > kMaxSmallSize ? dims_pointer_[i] : dims_[i];
 7775              		.loc 3 215 0
 7776 0304 7CFFFF0A 		beq	.L831
 7777              	.LVL973:
 7778              	.LBE1526:
 7779              	.LBE1578:
  50:C:/Renesas/e2studio_2021_01_workspace_RZA2M_ANPR/ANPR_RZA2M_GR_MANGO/src/tensorflow_lite/src/tensorflow/lite/kernels/internal/reference\arg_min_max.h ****     outer_size *= input1_shape.Dims(i);
 7780              		.loc 2 50 0
 7781 0308 046093E5 		ldr	r6, [r3, #4]
 7782 030c 060059E1 		cmp	r9, r6
 7783 0310 79FFFF1A 		bne	.L831
 7784              	.LVL974:
  49:C:/Renesas/e2studio_2021_01_workspace_RZA2M_ANPR/ANPR_RZA2M_GR_MANGO/src/tensorflow_lite/src/tensorflow/lite/kernels/internal/reference\arg_min_max.h ****     TFLITE_DCHECK_EQ(input1_shape.Dims(i), output_shape.Dims(i));
 7785              		.loc 2 49 0
 7786 0314 010052E3 		cmp	r2, #1
 7787 0318 2300000A 		beq	.L842
 7788              	.LVL975:
 7789              	.LBB1579:
 7790              	.LBB1527:
 215:C:/Renesas/e2studio_2021_01_workspace_RZA2M_ANPR/ANPR_RZA2M_GR_MANGO/src/tensorflow_lite/src/tensorflow/lite/kernels/internal\types.h ****     return size_ > kMaxSmallSize ? dims_pointer_[i] : dims_[i];
 7791              		.loc 3 215 0
 7792 031c 010054E3 		cmp	r4, #1
 7793              	.LBE1527:
 7794              	.LBE1579:
 7795              	.LBB1580:
 7796              	.LBB1551:
 7797              		.loc 3 216 0
 7798 0320 046095E5 		ldr	r6, [r5, #4]
 7799              	.LVL976:
 7800              	.LBE1551:
 7801              	.LBE1580:
 7802              	.LBB1581:
 7803              	.LBB1528:
 215:C:/Renesas/e2studio_2021_01_workspace_RZA2M_ANPR/ANPR_RZA2M_GR_MANGO/src/tensorflow_lite/src/tensorflow/lite/kernels/internal\types.h ****     return size_ > kMaxSmallSize ? dims_pointer_[i] : dims_[i];
 7804              		.loc 3 215 0
 7805 0324 74FFFF0A 		beq	.L831
 7806              	.LVL977:
 7807              	.LBE1528:
 7808              	.LBE1581:
  50:C:/Renesas/e2studio_2021_01_workspace_RZA2M_ANPR/ANPR_RZA2M_GR_MANGO/src/tensorflow_lite/src/tensorflow/lite/kernels/internal/reference\arg_min_max.h ****     outer_size *= input1_shape.Dims(i);
 7809              		.loc 2 50 0
 7810 0328 087093E5 		ldr	r7, [r3, #8]
 7811 032c 070056E1 		cmp	r6, r7
 7812 0330 71FFFF1A 		bne	.L831
  49:C:/Renesas/e2studio_2021_01_workspace_RZA2M_ANPR/ANPR_RZA2M_GR_MANGO/src/tensorflow_lite/src/tensorflow/lite/kernels/internal/reference\arg_min_max.h ****     TFLITE_DCHECK_EQ(input1_shape.Dims(i), output_shape.Dims(i));
 7813              		.loc 2 49 0
 7814 0334 020052E3 		cmp	r2, #2
  51:C:/Renesas/e2studio_2021_01_workspace_RZA2M_ANPR/ANPR_RZA2M_GR_MANGO/src/tensorflow_lite/src/tensorflow/lite/kernels/internal/reference\arg_min_max.h ****   }
 7815              		.loc 2 51 0
 7816 0338 960909E0 		mul	r9, r6, r9
 7817              	.LVL978:
  49:C:/Renesas/e2studio_2021_01_workspace_RZA2M_ANPR/ANPR_RZA2M_GR_MANGO/src/tensorflow_lite/src/tensorflow/lite/kernels/internal/reference\arg_min_max.h ****     TFLITE_DCHECK_EQ(input1_shape.Dims(i), output_shape.Dims(i));
 7818              		.loc 2 49 0
 7819 033c 1A00000A 		beq	.L842
 7820              	.LVL979:
 7821              	.LBB1582:
 7822              	.LBB1529:
 215:C:/Renesas/e2studio_2021_01_workspace_RZA2M_ANPR/ANPR_RZA2M_GR_MANGO/src/tensorflow_lite/src/tensorflow/lite/kernels/internal\types.h ****     return size_ > kMaxSmallSize ? dims_pointer_[i] : dims_[i];
 7823              		.loc 3 215 0
 7824 0340 020054E3 		cmp	r4, #2
 7825              	.LBE1529:
 7826              	.LBE1582:
 7827              	.LBB1583:
 7828              	.LBB1552:
 7829              		.loc 3 216 0
 7830 0344 086095E5 		ldr	r6, [r5, #8]
 7831              	.LVL980:
 7832              	.LBE1552:
 7833              	.LBE1583:
 7834              	.LBB1584:
 7835              	.LBB1530:
 215:C:/Renesas/e2studio_2021_01_workspace_RZA2M_ANPR/ANPR_RZA2M_GR_MANGO/src/tensorflow_lite/src/tensorflow/lite/kernels/internal\types.h ****     return size_ > kMaxSmallSize ? dims_pointer_[i] : dims_[i];
 7836              		.loc 3 215 0
 7837 0348 6BFFFF0A 		beq	.L831
 7838              	.LVL981:
 7839              	.LBE1530:
 7840              	.LBE1584:
  50:C:/Renesas/e2studio_2021_01_workspace_RZA2M_ANPR/ANPR_RZA2M_GR_MANGO/src/tensorflow_lite/src/tensorflow/lite/kernels/internal/reference\arg_min_max.h ****     outer_size *= input1_shape.Dims(i);
 7841              		.loc 2 50 0
 7842 034c 0C7093E5 		ldr	r7, [r3, #12]
 7843 0350 070056E1 		cmp	r6, r7
 7844 0354 68FFFF1A 		bne	.L831
  49:C:/Renesas/e2studio_2021_01_workspace_RZA2M_ANPR/ANPR_RZA2M_GR_MANGO/src/tensorflow_lite/src/tensorflow/lite/kernels/internal/reference\arg_min_max.h ****     TFLITE_DCHECK_EQ(input1_shape.Dims(i), output_shape.Dims(i));
 7845              		.loc 2 49 0
 7846 0358 030052E3 		cmp	r2, #3
  51:C:/Renesas/e2studio_2021_01_workspace_RZA2M_ANPR/ANPR_RZA2M_GR_MANGO/src/tensorflow_lite/src/tensorflow/lite/kernels/internal/reference\arg_min_max.h ****   }
 7847              		.loc 2 51 0
 7848 035c 960909E0 		mul	r9, r6, r9
 7849              	.LVL982:
  49:C:/Renesas/e2studio_2021_01_workspace_RZA2M_ANPR/ANPR_RZA2M_GR_MANGO/src/tensorflow_lite/src/tensorflow/lite/kernels/internal/reference\arg_min_max.h ****     TFLITE_DCHECK_EQ(input1_shape.Dims(i), output_shape.Dims(i));
 7850              		.loc 2 49 0
 7851 0360 1100000A 		beq	.L842
 7852              	.LVL983:
 7853              	.LBB1585:
 7854              	.LBB1531:
 215:C:/Renesas/e2studio_2021_01_workspace_RZA2M_ANPR/ANPR_RZA2M_GR_MANGO/src/tensorflow_lite/src/tensorflow/lite/kernels/internal\types.h ****     return size_ > kMaxSmallSize ? dims_pointer_[i] : dims_[i];
 7855              		.loc 3 215 0
 7856 0364 030054E3 		cmp	r4, #3
 7857              	.LBE1531:
 7858              	.LBE1585:
 7859              	.LBB1586:
 7860              	.LBB1553:
 7861              		.loc 3 216 0
 7862 0368 0C6095E5 		ldr	r6, [r5, #12]
 7863              	.LVL984:
 7864              	.LBE1553:
 7865              	.LBE1586:
 7866              	.LBB1587:
 7867              	.LBB1532:
 215:C:/Renesas/e2studio_2021_01_workspace_RZA2M_ANPR/ANPR_RZA2M_GR_MANGO/src/tensorflow_lite/src/tensorflow/lite/kernels/internal\types.h ****     return size_ > kMaxSmallSize ? dims_pointer_[i] : dims_[i];
 7868              		.loc 3 215 0
 7869 036c 62FFFF0A 		beq	.L831
 7870              	.LVL985:
 7871              	.LBE1532:
 7872              	.LBE1587:
  50:C:/Renesas/e2studio_2021_01_workspace_RZA2M_ANPR/ANPR_RZA2M_GR_MANGO/src/tensorflow_lite/src/tensorflow/lite/kernels/internal/reference\arg_min_max.h ****     outer_size *= input1_shape.Dims(i);
 7873              		.loc 2 50 0
 7874 0370 107093E5 		ldr	r7, [r3, #16]
 7875 0374 070056E1 		cmp	r6, r7
 7876 0378 5FFFFF1A 		bne	.L831
  49:C:/Renesas/e2studio_2021_01_workspace_RZA2M_ANPR/ANPR_RZA2M_GR_MANGO/src/tensorflow_lite/src/tensorflow/lite/kernels/internal/reference\arg_min_max.h ****     TFLITE_DCHECK_EQ(input1_shape.Dims(i), output_shape.Dims(i));
 7877              		.loc 2 49 0
 7878 037c 040052E3 		cmp	r2, #4
  51:C:/Renesas/e2studio_2021_01_workspace_RZA2M_ANPR/ANPR_RZA2M_GR_MANGO/src/tensorflow_lite/src/tensorflow/lite/kernels/internal/reference\arg_min_max.h ****   }
 7879              		.loc 2 51 0
 7880 0380 960909E0 		mul	r9, r6, r9
 7881              	.LVL986:
  49:C:/Renesas/e2studio_2021_01_workspace_RZA2M_ANPR/ANPR_RZA2M_GR_MANGO/src/tensorflow_lite/src/tensorflow/lite/kernels/internal/reference\arg_min_max.h ****     TFLITE_DCHECK_EQ(input1_shape.Dims(i), output_shape.Dims(i));
 7882              		.loc 2 49 0
 7883 0384 0800000A 		beq	.L842
 7884              	.LVL987:
 7885              	.LBB1588:
 7886              	.LBB1533:
 215:C:/Renesas/e2studio_2021_01_workspace_RZA2M_ANPR/ANPR_RZA2M_GR_MANGO/src/tensorflow_lite/src/tensorflow/lite/kernels/internal\types.h ****     return size_ > kMaxSmallSize ? dims_pointer_[i] : dims_[i];
 7887              		.loc 3 215 0
 7888 0388 050054E3 		cmp	r4, #5
 7889              	.LBE1533:
 7890              	.LBE1588:
 7891              	.LBB1589:
 7892              	.LBB1554:
 7893              		.loc 3 216 0
 7894 038c 105095E5 		ldr	r5, [r5, #16]
 7895              	.LVL988:
 7896              	.LBE1554:
 7897              	.LBE1589:
 7898              	.LBB1590:
 7899              	.LBB1534:
 215:C:/Renesas/e2studio_2021_01_workspace_RZA2M_ANPR/ANPR_RZA2M_GR_MANGO/src/tensorflow_lite/src/tensorflow/lite/kernels/internal\types.h ****     return size_ > kMaxSmallSize ? dims_pointer_[i] : dims_[i];
 7900              		.loc 3 215 0
 7901 0390 59FFFF1A 		bne	.L831
 7902              	.LVL989:
 7903              	.LBE1534:
 7904              	.LBE1590:
  50:C:/Renesas/e2studio_2021_01_workspace_RZA2M_ANPR/ANPR_RZA2M_GR_MANGO/src/tensorflow_lite/src/tensorflow/lite/kernels/internal/reference\arg_min_max.h ****     outer_size *= input1_shape.Dims(i);
 7905              		.loc 2 50 0
 7906 0394 146093E5 		ldr	r6, [r3, #20]
 7907 0398 060055E1 		cmp	r5, r6
 7908 039c 56FFFF1A 		bne	.L831
  49:C:/Renesas/e2studio_2021_01_workspace_RZA2M_ANPR/ANPR_RZA2M_GR_MANGO/src/tensorflow_lite/src/tensorflow/lite/kernels/internal/reference\arg_min_max.h ****     TFLITE_DCHECK_EQ(input1_shape.Dims(i), output_shape.Dims(i));
 7909              		.loc 2 49 0
 7910 03a0 050052E3 		cmp	r2, #5
  51:C:/Renesas/e2studio_2021_01_workspace_RZA2M_ANPR/ANPR_RZA2M_GR_MANGO/src/tensorflow_lite/src/tensorflow/lite/kernels/internal/reference\arg_min_max.h ****   }
 7911              		.loc 2 51 0
 7912 03a4 950909E0 		mul	r9, r5, r9
 7913              	.LVL990:
  49:C:/Renesas/e2studio_2021_01_workspace_RZA2M_ANPR/ANPR_RZA2M_GR_MANGO/src/tensorflow_lite/src/tensorflow/lite/kernels/internal/reference\arg_min_max.h ****     TFLITE_DCHECK_EQ(input1_shape.Dims(i), output_shape.Dims(i));
 7914              		.loc 2 49 0
 7915 03a8 53FFFF1A 		bne	.L831
 7916              	.LVL991:
 7917              	.L842:
 7918              	.LBE1711:
 7919              	.LBB1712:
  56:C:/Renesas/e2studio_2021_01_workspace_RZA2M_ANPR/ANPR_RZA2M_GR_MANGO/src/tensorflow_lite/src/tensorflow/lite/kernels/internal/reference\arg_min_max.h ****     TFLITE_DCHECK_EQ(input1_shape.Dims(i), output_shape.Dims(i - 1));
 7920              		.loc 2 56 0
 7921 03ac 012082E2 		add	r2, r2, #1
 7922              	.LVL992:
 7923 03b0 0C0052E1 		cmp	r2, ip
 7924 03b4 660000AA 		bge	.L875
 7925              	.LVL993:
 7926              	.L860:
 7927 03b8 040090E5 		ldr	r0, [r0, #4]
 7928              	.LVL994:
  57:C:/Renesas/e2studio_2021_01_workspace_RZA2M_ANPR/ANPR_RZA2M_GR_MANGO/src/tensorflow_lite/src/tensorflow/lite/kernels/internal/reference\arg_min_max.h ****     inner_size *= input1_shape.Dims(i);
 7929              		.loc 2 57 0
 7930 03bc 015042E2 		sub	r5, r2, #1
 7931              	.LBB1664:
 7932              	.LBB1630:
 215:C:/Renesas/e2studio_2021_01_workspace_RZA2M_ANPR/ANPR_RZA2M_GR_MANGO/src/tensorflow_lite/src/tensorflow/lite/kernels/internal\types.h ****     return size_ > kMaxSmallSize ? dims_pointer_[i] : dims_[i];
 7933              		.loc 3 215 0
 7934 03c0 050054E1 		cmp	r4, r5
 7935              	.LBE1630:
 7936              	.LBE1664:
 7937              	.LBB1665:
 7938              	.LBB1607:
 7939              		.loc 3 216 0
 7940 03c4 0261A0E1 		lsl	r6, r2, #2
 7941 03c8 028190E7 		ldr	r8, [r0, r2, lsl #2]
 7942              	.LVL995:
 7943              	.LBE1607:
 7944              	.LBE1665:
 7945              	.LBB1666:
 7946              	.LBB1631:
 215:C:/Renesas/e2studio_2021_01_workspace_RZA2M_ANPR/ANPR_RZA2M_GR_MANGO/src/tensorflow_lite/src/tensorflow/lite/kernels/internal\types.h ****     return size_ > kMaxSmallSize ? dims_pointer_[i] : dims_[i];
 7947              		.loc 3 215 0
 7948 03cc 4AFFFFDA 		ble	.L831
 7949              		.loc 3 216 0
 7950 03d0 055183E0 		add	r5, r3, r5, lsl #2
 7951              	.LVL996:
 7952 03d4 045095E5 		ldr	r5, [r5, #4]
 7953              	.LVL997:
 7954              	.LBE1631:
 7955              	.LBE1666:
  57:C:/Renesas/e2studio_2021_01_workspace_RZA2M_ANPR/ANPR_RZA2M_GR_MANGO/src/tensorflow_lite/src/tensorflow/lite/kernels/internal/reference\arg_min_max.h ****     inner_size *= input1_shape.Dims(i);
 7956              		.loc 2 57 0
 7957 03d8 050058E1 		cmp	r8, r5
 7958 03dc 46FFFF1A 		bne	.L831
 7959              	.LVL998:
  56:C:/Renesas/e2studio_2021_01_workspace_RZA2M_ANPR/ANPR_RZA2M_GR_MANGO/src/tensorflow_lite/src/tensorflow/lite/kernels/internal/reference\arg_min_max.h ****     TFLITE_DCHECK_EQ(input1_shape.Dims(i), output_shape.Dims(i - 1));
 7960              		.loc 2 56 0
 7961 03e0 015082E2 		add	r5, r2, #1
 7962              	.LVL999:
 7963 03e4 05005CE1 		cmp	ip, r5
 7964 03e8 95FFFFDA 		ble	.L851
 7965              	.LVL1000:
 7966              	.LBB1667:
 7967              	.LBB1632:
 215:C:/Renesas/e2studio_2021_01_workspace_RZA2M_ANPR/ANPR_RZA2M_GR_MANGO/src/tensorflow_lite/src/tensorflow/lite/kernels/internal\types.h ****     return size_ > kMaxSmallSize ? dims_pointer_[i] : dims_[i];
 7968              		.loc 3 215 0
 7969 03ec 020054E1 		cmp	r4, r2
 7970              	.LBE1632:
 7971              	.LBE1667:
 7972              	.LBB1668:
 7973              	.LBB1608:
 7974              		.loc 3 216 0
 7975 03f0 060080E0 		add	r0, r0, r6
 7976 03f4 047090E5 		ldr	r7, [r0, #4]
 7977              	.LVL1001:
 7978              	.LBE1608:
 7979              	.LBE1668:
 7980              	.LBB1669:
 7981              	.LBB1633:
 215:C:/Renesas/e2studio_2021_01_workspace_RZA2M_ANPR/ANPR_RZA2M_GR_MANGO/src/tensorflow_lite/src/tensorflow/lite/kernels/internal\types.h ****     return size_ > kMaxSmallSize ? dims_pointer_[i] : dims_[i];
 7982              		.loc 3 215 0
 7983 03f8 3FFFFFDA 		ble	.L831
 7984              		.loc 3 216 0
 7985 03fc 066083E0 		add	r6, r3, r6
 7986 0400 046096E5 		ldr	r6, [r6, #4]
 7987              	.LVL1002:
 7988              	.LBE1633:
 7989              	.LBE1669:
  57:C:/Renesas/e2studio_2021_01_workspace_RZA2M_ANPR/ANPR_RZA2M_GR_MANGO/src/tensorflow_lite/src/tensorflow/lite/kernels/internal/reference\arg_min_max.h ****     inner_size *= input1_shape.Dims(i);
 7990              		.loc 2 57 0
 7991 0404 060057E1 		cmp	r7, r6
 7992 0408 3BFFFF1A 		bne	.L831
  56:C:/Renesas/e2studio_2021_01_workspace_RZA2M_ANPR/ANPR_RZA2M_GR_MANGO/src/tensorflow_lite/src/tensorflow/lite/kernels/internal/reference\arg_min_max.h ****     TFLITE_DCHECK_EQ(input1_shape.Dims(i), output_shape.Dims(i - 1));
 7993              		.loc 2 56 0
 7994 040c 026082E2 		add	r6, r2, #2
  58:C:/Renesas/e2studio_2021_01_workspace_RZA2M_ANPR/ANPR_RZA2M_GR_MANGO/src/tensorflow_lite/src/tensorflow/lite/kernels/internal/reference\arg_min_max.h ****   }
 7995              		.loc 2 58 0
 7996 0410 970808E0 		mul	r8, r7, r8
 7997              	.LVL1003:
  56:C:/Renesas/e2studio_2021_01_workspace_RZA2M_ANPR/ANPR_RZA2M_GR_MANGO/src/tensorflow_lite/src/tensorflow/lite/kernels/internal/reference\arg_min_max.h ****     TFLITE_DCHECK_EQ(input1_shape.Dims(i), output_shape.Dims(i - 1));
 7998              		.loc 2 56 0
 7999 0414 06005CE1 		cmp	ip, r6
 8000 0418 89FFFFDA 		ble	.L851
 8001              	.LVL1004:
 8002              	.LBB1670:
 8003              	.LBB1634:
 215:C:/Renesas/e2studio_2021_01_workspace_RZA2M_ANPR/ANPR_RZA2M_GR_MANGO/src/tensorflow_lite/src/tensorflow/lite/kernels/internal\types.h ****     return size_ > kMaxSmallSize ? dims_pointer_[i] : dims_[i];
 8004              		.loc 3 215 0
 8005 041c 050054E1 		cmp	r4, r5
 8006              	.LBE1634:
 8007              	.LBE1670:
 8008              	.LBB1671:
 8009              	.LBB1609:
 8010              		.loc 3 216 0
 8011 0420 087090E5 		ldr	r7, [r0, #8]
 8012              	.LVL1005:
 8013              	.LBE1609:
 8014              	.LBE1671:
 8015              	.LBB1672:
 8016              	.LBB1635:
 215:C:/Renesas/e2studio_2021_01_workspace_RZA2M_ANPR/ANPR_RZA2M_GR_MANGO/src/tensorflow_lite/src/tensorflow/lite/kernels/internal\types.h ****     return size_ > kMaxSmallSize ? dims_pointer_[i] : dims_[i];
 8017              		.loc 3 215 0
 8018 0424 34FFFFDA 		ble	.L831
 8019              		.loc 3 216 0
 8020 0428 055183E0 		add	r5, r3, r5, lsl #2
 8021              	.LVL1006:
 8022 042c 045095E5 		ldr	r5, [r5, #4]
 8023              	.LVL1007:
 8024              	.LBE1635:
 8025              	.LBE1672:
  57:C:/Renesas/e2studio_2021_01_workspace_RZA2M_ANPR/ANPR_RZA2M_GR_MANGO/src/tensorflow_lite/src/tensorflow/lite/kernels/internal/reference\arg_min_max.h ****     inner_size *= input1_shape.Dims(i);
 8026              		.loc 2 57 0
 8027 0430 050057E1 		cmp	r7, r5
 8028 0434 30FFFF1A 		bne	.L831
 8029              	.LVL1008:
  56:C:/Renesas/e2studio_2021_01_workspace_RZA2M_ANPR/ANPR_RZA2M_GR_MANGO/src/tensorflow_lite/src/tensorflow/lite/kernels/internal/reference\arg_min_max.h ****     TFLITE_DCHECK_EQ(input1_shape.Dims(i), output_shape.Dims(i - 1));
 8030              		.loc 2 56 0
 8031 0438 035082E2 		add	r5, r2, #3
  58:C:/Renesas/e2studio_2021_01_workspace_RZA2M_ANPR/ANPR_RZA2M_GR_MANGO/src/tensorflow_lite/src/tensorflow/lite/kernels/internal/reference\arg_min_max.h ****   }
 8032              		.loc 2 58 0
 8033 043c 970808E0 		mul	r8, r7, r8
 8034              	.LVL1009:
  56:C:/Renesas/e2studio_2021_01_workspace_RZA2M_ANPR/ANPR_RZA2M_GR_MANGO/src/tensorflow_lite/src/tensorflow/lite/kernels/internal/reference\arg_min_max.h ****     TFLITE_DCHECK_EQ(input1_shape.Dims(i), output_shape.Dims(i - 1));
 8035              		.loc 2 56 0
 8036 0440 05005CE1 		cmp	ip, r5
 8037 0444 7EFFFFDA 		ble	.L851
 8038              	.LVL1010:
 8039              	.LBB1673:
 8040              	.LBB1636:
 215:C:/Renesas/e2studio_2021_01_workspace_RZA2M_ANPR/ANPR_RZA2M_GR_MANGO/src/tensorflow_lite/src/tensorflow/lite/kernels/internal\types.h ****     return size_ > kMaxSmallSize ? dims_pointer_[i] : dims_[i];
 8041              		.loc 3 215 0
 8042 0448 060054E1 		cmp	r4, r6
 8043              	.LBE1636:
 8044              	.LBE1673:
 8045              	.LBB1674:
 8046              	.LBB1610:
 8047              		.loc 3 216 0
 8048 044c 0C7090E5 		ldr	r7, [r0, #12]
 8049              	.LVL1011:
 8050              	.LBE1610:
 8051              	.LBE1674:
 8052              	.LBB1675:
 8053              	.LBB1637:
 215:C:/Renesas/e2studio_2021_01_workspace_RZA2M_ANPR/ANPR_RZA2M_GR_MANGO/src/tensorflow_lite/src/tensorflow/lite/kernels/internal\types.h ****     return size_ > kMaxSmallSize ? dims_pointer_[i] : dims_[i];
 8054              		.loc 3 215 0
 8055 0450 29FFFFDA 		ble	.L831
 8056              		.loc 3 216 0
 8057 0454 066183E0 		add	r6, r3, r6, lsl #2
 8058              	.LVL1012:
 8059 0458 046096E5 		ldr	r6, [r6, #4]
 8060              	.LVL1013:
 8061              	.LBE1637:
 8062              	.LBE1675:
  57:C:/Renesas/e2studio_2021_01_workspace_RZA2M_ANPR/ANPR_RZA2M_GR_MANGO/src/tensorflow_lite/src/tensorflow/lite/kernels/internal/reference\arg_min_max.h ****     inner_size *= input1_shape.Dims(i);
 8063              		.loc 2 57 0
 8064 045c 060057E1 		cmp	r7, r6
 8065 0460 25FFFF1A 		bne	.L831
 8066              	.LVL1014:
  56:C:/Renesas/e2studio_2021_01_workspace_RZA2M_ANPR/ANPR_RZA2M_GR_MANGO/src/tensorflow_lite/src/tensorflow/lite/kernels/internal/reference\arg_min_max.h ****     TFLITE_DCHECK_EQ(input1_shape.Dims(i), output_shape.Dims(i - 1));
 8067              		.loc 2 56 0
 8068 0464 042082E2 		add	r2, r2, #4
  58:C:/Renesas/e2studio_2021_01_workspace_RZA2M_ANPR/ANPR_RZA2M_GR_MANGO/src/tensorflow_lite/src/tensorflow/lite/kernels/internal/reference\arg_min_max.h ****   }
 8069              		.loc 2 58 0
 8070 0468 970808E0 		mul	r8, r7, r8
 8071              	.LVL1015:
  56:C:/Renesas/e2studio_2021_01_workspace_RZA2M_ANPR/ANPR_RZA2M_GR_MANGO/src/tensorflow_lite/src/tensorflow/lite/kernels/internal/reference\arg_min_max.h ****     TFLITE_DCHECK_EQ(input1_shape.Dims(i), output_shape.Dims(i - 1));
 8072              		.loc 2 56 0
 8073 046c 02005CE1 		cmp	ip, r2
 8074 0470 73FFFFDA 		ble	.L851
 8075              	.LVL1016:
 8076              	.LBB1676:
 8077              	.LBB1638:
 215:C:/Renesas/e2studio_2021_01_workspace_RZA2M_ANPR/ANPR_RZA2M_GR_MANGO/src/tensorflow_lite/src/tensorflow/lite/kernels/internal\types.h ****     return size_ > kMaxSmallSize ? dims_pointer_[i] : dims_[i];
 8078              		.loc 3 215 0
 8079 0474 040055E1 		cmp	r5, r4
 8080              	.LBE1638:
 8081              	.LBE1676:
 8082              	.LBB1677:
 8083              	.LBB1611:
 8084              		.loc 3 216 0
 8085 0478 102090E5 		ldr	r2, [r0, #16]
 8086              	.LVL1017:
 8087              	.LBE1611:
 8088              	.LBE1677:
 8089              	.LBB1678:
 8090              	.LBB1639:
 215:C:/Renesas/e2studio_2021_01_workspace_RZA2M_ANPR/ANPR_RZA2M_GR_MANGO/src/tensorflow_lite/src/tensorflow/lite/kernels/internal\types.h ****     return size_ > kMaxSmallSize ? dims_pointer_[i] : dims_[i];
 8091              		.loc 3 215 0
 8092 047c 1EFFFFAA 		bge	.L831
 8093              		.loc 3 216 0
 8094 0480 053183E0 		add	r3, r3, r5, lsl #2
 8095              	.LVL1018:
 8096 0484 043093E5 		ldr	r3, [r3, #4]
 8097              	.LVL1019:
 8098              	.LBE1639:
 8099              	.LBE1678:
  57:C:/Renesas/e2studio_2021_01_workspace_RZA2M_ANPR/ANPR_RZA2M_GR_MANGO/src/tensorflow_lite/src/tensorflow/lite/kernels/internal/reference\arg_min_max.h ****     inner_size *= input1_shape.Dims(i);
 8100              		.loc 2 57 0
 8101 0488 020053E1 		cmp	r3, r2
 8102 048c 1AFFFF1A 		bne	.L831
 8103              	.LVL1020:
  58:C:/Renesas/e2studio_2021_01_workspace_RZA2M_ANPR/ANPR_RZA2M_GR_MANGO/src/tensorflow_lite/src/tensorflow/lite/kernels/internal/reference\arg_min_max.h ****   }
 8104              		.loc 2 58 0
 8105 0490 930808E0 		mul	r8, r3, r8
 8106              	.LVL1021:
 8107 0494 6AFFFFEA 		b	.L851
 8108              	.LVL1022:
 8109              	.L968:
 8110              	.LBE1712:
 8111              	.LBB1713:
 8112              	.LBB1513:
 214:C:/Renesas/e2studio_2021_01_workspace_RZA2M_ANPR/ANPR_RZA2M_GR_MANGO/src/tensorflow_lite/src/tensorflow/lite/kernels/internal\types.h ****     TFLITE_DCHECK_LT(i, size_);
 8113              		.loc 3 214 0
 8114 0498 0C2092E0 		adds	r2, r2, ip
 8115              	.LVL1023:
 8116 049c E3FEFF5A 		bpl	.L832
 8117 04a0 15FFFFEA 		b	.L831
 8118              	.LVL1024:
 8119              	.L841:
 8120 04a4 046045E2 		sub	r6, r5, #4
 8121              	.LBE1513:
 8122              	.LBE1713:
 8123              	.LBB1714:
  49:C:/Renesas/e2studio_2021_01_workspace_RZA2M_ANPR/ANPR_RZA2M_GR_MANGO/src/tensorflow_lite/src/tensorflow/lite/kernels/internal/reference\arg_min_max.h ****     TFLITE_DCHECK_EQ(input1_shape.Dims(i), output_shape.Dims(i));
 8124              		.loc 2 49 0
 8125 04a8 0190A0E3 		mov	r9, #1
 8126 04ac 0050A0E3 		mov	r5, #0
 8127 04b0 010000EA 		b	.L837
 8128              	.LVL1025:
 8129              	.L961:
 8130              	.LBB1591:
 8131              	.LBB1555:
 215:C:/Renesas/e2studio_2021_01_workspace_RZA2M_ANPR/ANPR_RZA2M_GR_MANGO/src/tensorflow_lite/src/tensorflow/lite/kernels/internal\types.h ****     return size_ > kMaxSmallSize ? dims_pointer_[i] : dims_[i];
 8132              		.loc 3 215 0
 8133 04b4 0C0055E1 		cmp	r5, ip
 8134 04b8 0FFFFF0A 		beq	.L831
 8135              	.LVL1026:
 8136              	.L837:
 8137              	.LBE1555:
 8138              	.LBE1591:
 8139              	.LBB1592:
 8140              	.LBB1535:
 8141 04bc 040055E1 		cmp	r5, r4
 8142              	.LBE1535:
 8143              	.LBE1592:
 8144              	.LBB1593:
 8145              	.LBB1556:
 8146              		.loc 3 216 0
 8147 04c0 0480B6E5 		ldr	r8, [r6, #4]!
 8148              	.LVL1027:
 8149              	.LBE1556:
 8150              	.LBE1593:
 8151              	.LBB1594:
 8152              	.LBB1536:
 215:C:/Renesas/e2studio_2021_01_workspace_RZA2M_ANPR/ANPR_RZA2M_GR_MANGO/src/tensorflow_lite/src/tensorflow/lite/kernels/internal\types.h ****     return size_ > kMaxSmallSize ? dims_pointer_[i] : dims_[i];
 8153              		.loc 3 215 0
 8154 04c4 0CFFFF0A 		beq	.L831
 8155              		.loc 3 216 0
 8156 04c8 047093E5 		ldr	r7, [r3, #4]
 8157 04cc 057197E7 		ldr	r7, [r7, r5, lsl #2]
 8158              	.LVL1028:
 8159              	.LBE1536:
 8160              	.LBE1594:
  50:C:/Renesas/e2studio_2021_01_workspace_RZA2M_ANPR/ANPR_RZA2M_GR_MANGO/src/tensorflow_lite/src/tensorflow/lite/kernels/internal/reference\arg_min_max.h ****     outer_size *= input1_shape.Dims(i);
 8161              		.loc 2 50 0
 8162 04d0 080057E1 		cmp	r7, r8
 8163 04d4 08FFFF1A 		bne	.L831
  49:C:/Renesas/e2studio_2021_01_workspace_RZA2M_ANPR/ANPR_RZA2M_GR_MANGO/src/tensorflow_lite/src/tensorflow/lite/kernels/internal/reference\arg_min_max.h ****     TFLITE_DCHECK_EQ(input1_shape.Dims(i), output_shape.Dims(i));
 8164              		.loc 2 49 0
 8165 04d8 015085E2 		add	r5, r5, #1
 8166              	.LVL1029:
  51:C:/Renesas/e2studio_2021_01_workspace_RZA2M_ANPR/ANPR_RZA2M_GR_MANGO/src/tensorflow_lite/src/tensorflow/lite/kernels/internal/reference\arg_min_max.h ****   }
 8167              		.loc 2 51 0
 8168 04dc 970909E0 		mul	r9, r7, r9
 8169              	.LVL1030:
  49:C:/Renesas/e2studio_2021_01_workspace_RZA2M_ANPR/ANPR_RZA2M_GR_MANGO/src/tensorflow_lite/src/tensorflow/lite/kernels/internal/reference\arg_min_max.h ****     TFLITE_DCHECK_EQ(input1_shape.Dims(i), output_shape.Dims(i));
 8170              		.loc 2 49 0
 8171 04e0 020055E1 		cmp	r5, r2
 8172 04e4 F2FFFF1A 		bne	.L961
 8173              	.LVL1031:
 8174              	.LBE1714:
 8175              	.LBB1715:
  56:C:/Renesas/e2studio_2021_01_workspace_RZA2M_ANPR/ANPR_RZA2M_GR_MANGO/src/tensorflow_lite/src/tensorflow/lite/kernels/internal/reference\arg_min_max.h ****     TFLITE_DCHECK_EQ(input1_shape.Dims(i), output_shape.Dims(i - 1));
 8176              		.loc 2 56 0
 8177 04e8 012085E2 		add	r2, r5, #1
 8178              	.LVL1032:
 8179 04ec 0C0052E1 		cmp	r2, ip
 8180 04f0 170000AA 		bge	.L875
 8181              	.LVL1033:
 8182              	.L849:
 8183 04f4 040090E5 		ldr	r0, [r0, #4]
 8184              	.LVL1034:
 8185              	.LBB1679:
 8186              	.LBB1640:
 8187              		.loc 3 216 0
 8188 04f8 0760E0E3 		mvn	r6, #7
 8189              	.LBE1640:
 8190              	.LBE1679:
 8191              	.LBE1715:
  48:C:/Renesas/e2studio_2021_01_workspace_RZA2M_ANPR/ANPR_RZA2M_GR_MANGO/src/tensorflow_lite/src/tensorflow/lite/kernels/internal/reference\arg_min_max.h ****   for (int i = 0; i < axis; ++i) {
 8192              		.loc 2 48 0
 8193 04fc 0180A0E3 		mov	r8, #1
 8194              	.LBB1716:
 8195              	.LBB1680:
 8196              	.LBB1641:
 8197              		.loc 3 216 0
 8198 0500 006046E0 		sub	r6, r6, r0
 8199 0504 020180E0 		add	r0, r0, r2, lsl #2
 8200              	.LVL1035:
 8201              	.L850:
 215:C:/Renesas/e2studio_2021_01_workspace_RZA2M_ANPR/ANPR_RZA2M_GR_MANGO/src/tensorflow_lite/src/tensorflow/lite/kernels/internal\types.h ****     return size_ > kMaxSmallSize ? dims_pointer_[i] : dims_[i];
 8202              		.loc 3 215 0
 8203 0508 015042E2 		sub	r5, r2, #1
 8204              	.LBE1641:
 8205              	.LBE1680:
 8206              	.LBB1681:
 8207              	.LBB1612:
 8208              		.loc 3 216 0
 8209 050c 047090E4 		ldr	r7, [r0], #4
 8210              	.LVL1036:
 8211              	.LBE1612:
 8212              	.LBE1681:
 8213              	.LBB1682:
 8214              	.LBB1642:
 215:C:/Renesas/e2studio_2021_01_workspace_RZA2M_ANPR/ANPR_RZA2M_GR_MANGO/src/tensorflow_lite/src/tensorflow/lite/kernels/internal\types.h ****     return size_ > kMaxSmallSize ? dims_pointer_[i] : dims_[i];
 8215              		.loc 3 215 0
 8216 0510 050054E1 		cmp	r4, r5
 8217 0514 F8FEFFDA 		ble	.L831
 8218              		.loc 3 216 0
 8219 0518 045093E5 		ldr	r5, [r3, #4]
 8220              	.LVL1037:
 8221 051c 005085E0 		add	r5, r5, r0
 8222 0520 065095E7 		ldr	r5, [r5, r6]
 8223              	.LVL1038:
 8224              	.LBE1642:
 8225              	.LBE1682:
  57:C:/Renesas/e2studio_2021_01_workspace_RZA2M_ANPR/ANPR_RZA2M_GR_MANGO/src/tensorflow_lite/src/tensorflow/lite/kernels/internal/reference\arg_min_max.h ****     inner_size *= input1_shape.Dims(i);
 8226              		.loc 2 57 0
 8227 0524 070055E1 		cmp	r5, r7
 8228 0528 F3FEFF1A 		bne	.L831
 8229              	.LVL1039:
  56:C:/Renesas/e2studio_2021_01_workspace_RZA2M_ANPR/ANPR_RZA2M_GR_MANGO/src/tensorflow_lite/src/tensorflow/lite/kernels/internal/reference\arg_min_max.h ****     TFLITE_DCHECK_EQ(input1_shape.Dims(i), output_shape.Dims(i - 1));
 8230              		.loc 2 56 0
 8231 052c 012082E2 		add	r2, r2, #1
 8232              	.LVL1040:
  58:C:/Renesas/e2studio_2021_01_workspace_RZA2M_ANPR/ANPR_RZA2M_GR_MANGO/src/tensorflow_lite/src/tensorflow/lite/kernels/internal/reference\arg_min_max.h ****   }
 8233              		.loc 2 58 0
 8234 0530 950808E0 		mul	r8, r5, r8
 8235              	.LVL1041:
  56:C:/Renesas/e2studio_2021_01_workspace_RZA2M_ANPR/ANPR_RZA2M_GR_MANGO/src/tensorflow_lite/src/tensorflow/lite/kernels/internal/reference\arg_min_max.h ****     TFLITE_DCHECK_EQ(input1_shape.Dims(i), output_shape.Dims(i - 1));
 8236              		.loc 2 56 0
 8237 0534 0C0052E1 		cmp	r2, ip
 8238 0538 F2FFFFBA 		blt	.L850
 8239 053c 40FFFFEA 		b	.L851
 8240              	.LVL1042:
 8241              	.L870:
 8242              	.LBE1716:
 8243              	.LBB1717:
 8244              	.LBB1706:
  61:C:/Renesas/e2studio_2021_01_workspace_RZA2M_ANPR/ANPR_RZA2M_GR_MANGO/src/tensorflow_lite/src/tensorflow/lite/kernels/internal/reference\arg_min_max.h ****       auto min_max_value = input1_data[outer * axis_size * inner_size + inner];
 8245              		.loc 2 61 0
 8246 0540 060054E1 		cmp	r4, r6
 8247              	.LBB1705:
  63:C:/Renesas/e2studio_2021_01_workspace_RZA2M_ANPR/ANPR_RZA2M_GR_MANGO/src/tensorflow_lite/src/tensorflow/lite/kernels/internal/reference\arg_min_max.h ****       for (int i = 1; i < axis_size; ++i) {
 8248              		.loc 2 63 0
 8249 0544 0000A0E3 		mov	r0, #0
  72:C:/Renesas/e2studio_2021_01_workspace_RZA2M_ANPR/ANPR_RZA2M_GR_MANGO/src/tensorflow_lite/src/tensorflow/lite/kernels/internal/reference\arg_min_max.h ****     }
 8250              		.loc 2 72 0
 8251 0548 040085E4 		str	r0, [r5], #4
 8252              	.LVL1043:
 8253              	.LBE1705:
  61:C:/Renesas/e2studio_2021_01_workspace_RZA2M_ANPR/ANPR_RZA2M_GR_MANGO/src/tensorflow_lite/src/tensorflow/lite/kernels/internal/reference\arg_min_max.h ****       auto min_max_value = input1_data[outer * axis_size * inner_size + inner];
 8254              		.loc 2 61 0
 8255 054c 4AFFFF1A 		bne	.L853
 8256 0550 5AFFFFEA 		b	.L970
 8257              	.LVL1044:
 8258              	.L875:
 8259              	.LBE1706:
 8260              	.LBE1717:
  54:C:/Renesas/e2studio_2021_01_workspace_RZA2M_ANPR/ANPR_RZA2M_GR_MANGO/src/tensorflow_lite/src/tensorflow/lite/kernels/internal/reference\arg_min_max.h ****   const int dims_count = input1_shape.DimensionsCount();
 8261              		.loc 2 54 0
 8262 0554 0180A0E3 		mov	r8, #1
 8263 0558 39FFFFEA 		b	.L851
 8264              	.LVL1045:
 8265              	.L839:
 8266              	.LBB1718:
  56:C:/Renesas/e2studio_2021_01_workspace_RZA2M_ANPR/ANPR_RZA2M_GR_MANGO/src/tensorflow_lite/src/tensorflow/lite/kernels/internal/reference\arg_min_max.h ****     TFLITE_DCHECK_EQ(input1_shape.Dims(i), output_shape.Dims(i - 1));
 8267              		.loc 2 56 0
 8268 055c 012082E2 		add	r2, r2, #1
 8269              	.LVL1046:
 8270 0560 02005CE1 		cmp	ip, r2
 8271 0564 FAFFFFDA 		ble	.L875
 8272              	.LVL1047:
 8273              	.L861:
 8274              	.LBB1683:
 8275              	.LBB1613:
 8276              		.loc 3 216 0
 8277 0568 0251A0E1 		lsl	r5, r2, #2
 8278              	.LBE1613:
 8279              	.LBE1683:
  57:C:/Renesas/e2studio_2021_01_workspace_RZA2M_ANPR/ANPR_RZA2M_GR_MANGO/src/tensorflow_lite/src/tensorflow/lite/kernels/internal/reference\arg_min_max.h ****     inner_size *= input1_shape.Dims(i);
 8280              		.loc 2 57 0
 8281 056c 016042E2 		sub	r6, r2, #1
 8282              	.LBB1684:
 8283              	.LBB1643:
 215:C:/Renesas/e2studio_2021_01_workspace_RZA2M_ANPR/ANPR_RZA2M_GR_MANGO/src/tensorflow_lite/src/tensorflow/lite/kernels/internal\types.h ****     return size_ > kMaxSmallSize ? dims_pointer_[i] : dims_[i];
 8284              		.loc 3 215 0
 8285 0570 060054E1 		cmp	r4, r6
 8286              	.LBE1643:
 8287              	.LBE1684:
 8288              	.LBB1685:
 8289              	.LBB1614:
 8290              		.loc 3 216 0
 8291 0574 057080E0 		add	r7, r0, r5
 8292 0578 047097E5 		ldr	r7, [r7, #4]
 8293              	.LVL1048:
 8294              	.LBE1614:
 8295              	.LBE1685:
 8296              	.LBB1686:
 8297              	.LBB1644:
 215:C:/Renesas/e2studio_2021_01_workspace_RZA2M_ANPR/ANPR_RZA2M_GR_MANGO/src/tensorflow_lite/src/tensorflow/lite/kernels/internal\types.h ****     return size_ > kMaxSmallSize ? dims_pointer_[i] : dims_[i];
 8298              		.loc 3 215 0
 8299 057c DEFEFFDA 		ble	.L831
 8300              		.loc 3 216 0
 8301 0580 066183E0 		add	r6, r3, r6, lsl #2
 8302              	.LVL1049:
 8303 0584 048096E5 		ldr	r8, [r6, #4]
 8304              	.LVL1050:
 8305              	.LBE1644:
 8306              	.LBE1686:
  57:C:/Renesas/e2studio_2021_01_workspace_RZA2M_ANPR/ANPR_RZA2M_GR_MANGO/src/tensorflow_lite/src/tensorflow/lite/kernels/internal/reference\arg_min_max.h ****     inner_size *= input1_shape.Dims(i);
 8307              		.loc 2 57 0
 8308 0588 070058E1 		cmp	r8, r7
 8309 058c DAFEFF1A 		bne	.L831
 8310              	.LVL1051:
  56:C:/Renesas/e2studio_2021_01_workspace_RZA2M_ANPR/ANPR_RZA2M_GR_MANGO/src/tensorflow_lite/src/tensorflow/lite/kernels/internal/reference\arg_min_max.h ****     TFLITE_DCHECK_EQ(input1_shape.Dims(i), output_shape.Dims(i - 1));
 8311              		.loc 2 56 0
 8312 0590 01A082E2 		add	r10, r2, #1
 8313              	.LVL1052:
 8314 0594 0A005CE1 		cmp	ip, r10
 8315 0598 29FFFFDA 		ble	.L851
 8316              	.LVL1053:
 8317              	.LBB1687:
 8318              	.LBB1615:
 8319              		.loc 3 216 0
 8320 059c 0A61A0E1 		lsl	r6, r10, #2
 8321              	.LBE1615:
 8322              	.LBE1687:
 8323              	.LBB1688:
 8324              	.LBB1645:
 215:C:/Renesas/e2studio_2021_01_workspace_RZA2M_ANPR/ANPR_RZA2M_GR_MANGO/src/tensorflow_lite/src/tensorflow/lite/kernels/internal\types.h ****     return size_ > kMaxSmallSize ? dims_pointer_[i] : dims_[i];
 8325              		.loc 3 215 0
 8326 05a0 020054E1 		cmp	r4, r2
 8327              	.LBE1645:
 8328              	.LBE1688:
 8329              	.LBB1689:
 8330              	.LBB1616:
 8331              		.loc 3 216 0
 8332 05a4 067080E0 		add	r7, r0, r6
 8333 05a8 04B097E5 		ldr	fp, [r7, #4]
 8334              	.LVL1054:
 8335              	.LBE1616:
 8336              	.LBE1689:
 8337              	.LBB1690:
 8338              	.LBB1646:
 215:C:/Renesas/e2studio_2021_01_workspace_RZA2M_ANPR/ANPR_RZA2M_GR_MANGO/src/tensorflow_lite/src/tensorflow/lite/kernels/internal\types.h ****     return size_ > kMaxSmallSize ? dims_pointer_[i] : dims_[i];
 8339              		.loc 3 215 0
 8340 05ac D2FEFFDA 		ble	.L831
 8341              		.loc 3 216 0
 8342 05b0 055083E0 		add	r5, r3, r5
 8343 05b4 045095E5 		ldr	r5, [r5, #4]
 8344              	.LVL1055:
 8345              	.LBE1646:
 8346              	.LBE1690:
  57:C:/Renesas/e2studio_2021_01_workspace_RZA2M_ANPR/ANPR_RZA2M_GR_MANGO/src/tensorflow_lite/src/tensorflow/lite/kernels/internal/reference\arg_min_max.h ****     inner_size *= input1_shape.Dims(i);
 8347              		.loc 2 57 0
 8348 05b8 05005BE1 		cmp	fp, r5
 8349 05bc CEFEFF1A 		bne	.L831
  56:C:/Renesas/e2studio_2021_01_workspace_RZA2M_ANPR/ANPR_RZA2M_GR_MANGO/src/tensorflow_lite/src/tensorflow/lite/kernels/internal/reference\arg_min_max.h ****     TFLITE_DCHECK_EQ(input1_shape.Dims(i), output_shape.Dims(i - 1));
 8350              		.loc 2 56 0
 8351 05c0 027082E2 		add	r7, r2, #2
  58:C:/Renesas/e2studio_2021_01_workspace_RZA2M_ANPR/ANPR_RZA2M_GR_MANGO/src/tensorflow_lite/src/tensorflow/lite/kernels/internal/reference\arg_min_max.h ****   }
 8352              		.loc 2 58 0
 8353 05c4 9B0808E0 		mul	r8, fp, r8
 8354              	.LVL1056:
  56:C:/Renesas/e2studio_2021_01_workspace_RZA2M_ANPR/ANPR_RZA2M_GR_MANGO/src/tensorflow_lite/src/tensorflow/lite/kernels/internal/reference\arg_min_max.h ****     TFLITE_DCHECK_EQ(input1_shape.Dims(i), output_shape.Dims(i - 1));
 8355              		.loc 2 56 0
 8356 05c8 07005CE1 		cmp	ip, r7
 8357 05cc 1CFFFFDA 		ble	.L851
 8358              	.LVL1057:
 8359              	.LBB1691:
 8360              	.LBB1617:
 8361              		.loc 3 216 0
 8362 05d0 0751A0E1 		lsl	r5, r7, #2
 8363              	.LBE1617:
 8364              	.LBE1691:
 8365              	.LBB1692:
 8366              	.LBB1647:
 215:C:/Renesas/e2studio_2021_01_workspace_RZA2M_ANPR/ANPR_RZA2M_GR_MANGO/src/tensorflow_lite/src/tensorflow/lite/kernels/internal\types.h ****     return size_ > kMaxSmallSize ? dims_pointer_[i] : dims_[i];
 8367              		.loc 3 215 0
 8368 05d4 0A0054E1 		cmp	r4, r10
 8369              	.LBE1647:
 8370              	.LBE1692:
 8371              	.LBB1693:
 8372              	.LBB1618:
 8373              		.loc 3 216 0
 8374 05d8 05A080E0 		add	r10, r0, r5
 8375 05dc 04A09AE5 		ldr	r10, [r10, #4]
 8376              	.LVL1058:
 8377              	.LBE1618:
 8378              	.LBE1693:
 8379              	.LBB1694:
 8380              	.LBB1648:
 215:C:/Renesas/e2studio_2021_01_workspace_RZA2M_ANPR/ANPR_RZA2M_GR_MANGO/src/tensorflow_lite/src/tensorflow/lite/kernels/internal\types.h ****     return size_ > kMaxSmallSize ? dims_pointer_[i] : dims_[i];
 8381              		.loc 3 215 0
 8382 05e0 C5FEFFDA 		ble	.L831
 8383              		.loc 3 216 0
 8384 05e4 066083E0 		add	r6, r3, r6
 8385 05e8 046096E5 		ldr	r6, [r6, #4]
 8386              	.LVL1059:
 8387              	.LBE1648:
 8388              	.LBE1694:
  57:C:/Renesas/e2studio_2021_01_workspace_RZA2M_ANPR/ANPR_RZA2M_GR_MANGO/src/tensorflow_lite/src/tensorflow/lite/kernels/internal/reference\arg_min_max.h ****     inner_size *= input1_shape.Dims(i);
 8389              		.loc 2 57 0
 8390 05ec 0A0056E1 		cmp	r6, r10
 8391 05f0 C1FEFF1A 		bne	.L831
 8392              	.LVL1060:
  56:C:/Renesas/e2studio_2021_01_workspace_RZA2M_ANPR/ANPR_RZA2M_GR_MANGO/src/tensorflow_lite/src/tensorflow/lite/kernels/internal/reference\arg_min_max.h ****     TFLITE_DCHECK_EQ(input1_shape.Dims(i), output_shape.Dims(i - 1));
 8393              		.loc 2 56 0
 8394 05f4 032082E2 		add	r2, r2, #3
  58:C:/Renesas/e2studio_2021_01_workspace_RZA2M_ANPR/ANPR_RZA2M_GR_MANGO/src/tensorflow_lite/src/tensorflow/lite/kernels/internal/reference\arg_min_max.h ****   }
 8395              		.loc 2 58 0
 8396 05f8 960808E0 		mul	r8, r6, r8
 8397              	.LVL1061:
  56:C:/Renesas/e2studio_2021_01_workspace_RZA2M_ANPR/ANPR_RZA2M_GR_MANGO/src/tensorflow_lite/src/tensorflow/lite/kernels/internal/reference\arg_min_max.h ****     TFLITE_DCHECK_EQ(input1_shape.Dims(i), output_shape.Dims(i - 1));
 8398              		.loc 2 56 0
 8399 05fc 02005CE1 		cmp	ip, r2
 8400 0600 0FFFFFDA 		ble	.L851
 8401              	.LVL1062:
 8402              	.LBB1695:
 8403              	.LBB1619:
 8404              		.loc 3 216 0
 8405 0604 022180E0 		add	r2, r0, r2, lsl #2
 8406              	.LVL1063:
 8407              	.LBE1619:
 8408              	.LBE1695:
 8409              	.LBB1696:
 8410              	.LBB1649:
 215:C:/Renesas/e2studio_2021_01_workspace_RZA2M_ANPR/ANPR_RZA2M_GR_MANGO/src/tensorflow_lite/src/tensorflow/lite/kernels/internal\types.h ****     return size_ > kMaxSmallSize ? dims_pointer_[i] : dims_[i];
 8411              		.loc 3 215 0
 8412 0608 070054E1 		cmp	r4, r7
 8413              	.LBE1649:
 8414              	.LBE1696:
 8415              	.LBB1697:
 8416              	.LBB1620:
 8417              		.loc 3 216 0
 8418 060c 042092E5 		ldr	r2, [r2, #4]
 8419              	.LVL1064:
 8420              	.LBE1620:
 8421              	.LBE1697:
 8422              	.LBB1698:
 8423              	.LBB1650:
 215:C:/Renesas/e2studio_2021_01_workspace_RZA2M_ANPR/ANPR_RZA2M_GR_MANGO/src/tensorflow_lite/src/tensorflow/lite/kernels/internal\types.h ****     return size_ > kMaxSmallSize ? dims_pointer_[i] : dims_[i];
 8424              		.loc 3 215 0
 8425 0610 B9FEFFDA 		ble	.L831
 8426              		.loc 3 216 0
 8427 0614 053083E0 		add	r3, r3, r5
 8428              	.LVL1065:
 8429 0618 043093E5 		ldr	r3, [r3, #4]
 8430              	.LVL1066:
 8431              	.LBE1650:
 8432              	.LBE1698:
  57:C:/Renesas/e2studio_2021_01_workspace_RZA2M_ANPR/ANPR_RZA2M_GR_MANGO/src/tensorflow_lite/src/tensorflow/lite/kernels/internal/reference\arg_min_max.h ****     inner_size *= input1_shape.Dims(i);
 8433              		.loc 2 57 0
 8434 061c 020053E1 		cmp	r3, r2
 8435 0620 06FFFF0A 		beq	.L964
 8436 0624 B4FEFFEA 		b	.L831
 8437              	.LVL1067:
 8438              	.L834:
  56:C:/Renesas/e2studio_2021_01_workspace_RZA2M_ANPR/ANPR_RZA2M_GR_MANGO/src/tensorflow_lite/src/tensorflow/lite/kernels/internal/reference\arg_min_max.h ****     TFLITE_DCHECK_EQ(input1_shape.Dims(i), output_shape.Dims(i - 1));
 8439              		.loc 2 56 0
 8440 0628 01005CE3 		cmp	ip, #1
 8441 062c 0120A0E3 		mov	r2, #1
 8442              	.LVL1068:
 8443 0630 080000DA 		ble	.L971
 8444 0634 05005CE3 		cmp	ip, #5
 8445              	.LBE1718:
  48:C:/Renesas/e2studio_2021_01_workspace_RZA2M_ANPR/ANPR_RZA2M_GR_MANGO/src/tensorflow_lite/src/tensorflow/lite/kernels/internal/reference\arg_min_max.h ****   for (int i = 0; i < axis; ++i) {
 8446              		.loc 2 48 0
 8447 0638 0290A0E1 		mov	r9, r2
 8448 063c 020000CA 		bgt	.L846
 8449 0640 050054E3 		cmp	r4, #5
 8450 0644 C7FFFFDA 		ble	.L861
 8451 0648 D1FEFFEA 		b	.L847
 8452              	.L846:
 8453 064c 050054E3 		cmp	r4, #5
 8454 0650 58FFFFDA 		ble	.L860
 8455 0654 A6FFFFEA 		b	.L849
 8456              	.L971:
 8457 0658 0290A0E1 		mov	r9, r2
  54:C:/Renesas/e2studio_2021_01_workspace_RZA2M_ANPR/ANPR_RZA2M_GR_MANGO/src/tensorflow_lite/src/tensorflow/lite/kernels/internal/reference\arg_min_max.h ****   const int dims_count = input1_shape.DimensionsCount();
 8458              		.loc 2 54 0
 8459 065c 0280A0E1 		mov	r8, r2
 8460 0660 FBFEFFEA 		b	.L858
 8461              		.cfi_endproc
 8462              	.LFE1981:
 8463              		.fnend
 8465              		.section	.text._ZN6tflite3ops5micro11arg_min_max4EvalEP13TfLiteContextP10TfLiteNodeb,"ax",%progbit
 8466              		.align	2
 8467              		.global	_ZN6tflite3ops5micro11arg_min_max4EvalEP13TfLiteContextP10TfLiteNodeb
 8468              		.syntax unified
 8469              		.arm
 8470              		.fpu neon
 8472              	_ZN6tflite3ops5micro11arg_min_max4EvalEP13TfLiteContextP10TfLiteNodeb:
 8473              		.fnstart
 8474              	.LFB1766:
  48:../src/tensorflow_lite/src/tensorflow/lite/micro/kernels/arg_min_max.cpp ****   const TfLiteEvalTensor* input =
 8475              		.loc 1 48 0
 8476              		.cfi_startproc
 8477              		.cfi_personality 0,__gxx_personality_v0
 8478              		.cfi_lsda 0,.LLSDA1766
 8479              		@ args = 0, pretend = 0, frame = 56
 8480              		@ frame_needed = 0, uses_anonymous_args = 0
 8481              	.LVL1069:
 8482 0000 F0432DE9 		push	{r4, r5, r6, r7, r8, r9, lr}
 8483              		.save {r4, r5, r6, r7, r8, r9, lr}
 8484              		.cfi_def_cfa_offset 28
 8485              		.cfi_offset 4, -28
 8486              		.cfi_offset 5, -24
 8487              		.cfi_offset 6, -20
 8488              		.cfi_offset 7, -16
 8489              		.cfi_offset 8, -12
 8490              		.cfi_offset 9, -8
 8491              		.cfi_offset 14, -4
 8492              	.LBB1823:
 8493              	.LBB1824:
 8494              	.LBB1825:
  34:C:/Renesas/e2studio_2021_01_workspace_RZA2M_ANPR/ANPR_RZA2M_GR_MANGO/src/tensorflow_lite/src/tensorflow/lite/micro/kernels\kernel_util.h ****   TFLITE_DCHECK(node != nullptr);
 8495              		.loc 4 34 0
 8496 0004 004050E2 		subs	r4, r0, #0
 8497              	.LVL1070:
 8498              	.LBE1825:
 8499              	.LBE1824:
 8500              	.LBE1823:
  48:../src/tensorflow_lite/src/tensorflow/lite/micro/kernels/arg_min_max.cpp ****   const TfLiteEvalTensor* input =
 8501              		.loc 1 48 0
 8502              		.pad #68
 8503 0008 44D04DE2 		sub	sp, sp, #68
 8504              		.cfi_def_cfa_offset 96
 8505              	.LBB1832:
 8506              	.LBB1829:
 8507              	.LBB1826:
  34:C:/Renesas/e2studio_2021_01_workspace_RZA2M_ANPR/ANPR_RZA2M_GR_MANGO/src/tensorflow_lite/src/tensorflow/lite/micro/kernels\kernel_util.h ****   TFLITE_DCHECK(node != nullptr);
 8508              		.loc 4 34 0
 8509 000c A100000A 		beq	.L974
  35:C:/Renesas/e2studio_2021_01_workspace_RZA2M_ANPR/ANPR_RZA2M_GR_MANGO/src/tensorflow_lite/src/tensorflow/lite/micro/kernels\kernel_util.h ****   return context->GetEvalTensor(context, node->inputs->data[index]);
 8510              		.loc 4 35 0
 8511 0010 000051E3 		cmp	r1, #0
 8512 0014 0150A0E1 		mov	r5, r1
 8513 0018 9E00000A 		beq	.L974
 8514 001c 0280A0E1 		mov	r8, r2
  36:C:/Renesas/e2studio_2021_01_workspace_RZA2M_ANPR/ANPR_RZA2M_GR_MANGO/src/tensorflow_lite/src/tensorflow/lite/micro/kernels\kernel_util.h **** }
 8515              		.loc 4 36 0
 8516 0020 002091E5 		ldr	r2, [r1]
 8517              	.LVL1071:
 8518 0024 543094E5 		ldr	r3, [r4, #84]
 8519 0028 041092E5 		ldr	r1, [r2, #4]
 8520              	.LVL1072:
 8521              	.LEHB10:
 8522 002c 33FF2FE1 		blx	r3
 8523              	.LVL1073:
 8524              	.LBE1826:
 8525              	.LBE1829:
 8526              	.LBE1832:
 8527              	.LBB1833:
 8528              	.LBB1834:
 8529              	.LBB1835:
 8530 0030 002095E5 		ldr	r2, [r5]
 8531              	.LBE1835:
 8532              	.LBE1834:
 8533              	.LBE1833:
 8534              	.LBB1840:
 8535              	.LBB1830:
 8536              	.LBB1827:
 8537 0034 0070A0E1 		mov	r7, r0
 8538              	.LVL1074:
 8539              	.LBE1827:
 8540              	.LBE1830:
 8541              	.LBE1840:
 8542              	.LBB1841:
 8543              	.LBB1838:
 8544              	.LBB1836:
 8545 0038 543094E5 		ldr	r3, [r4, #84]
 8546 003c 0400A0E1 		mov	r0, r4
 8547 0040 081092E5 		ldr	r1, [r2, #8]
 8548 0044 33FF2FE1 		blx	r3
 8549              	.LVL1075:
 8550              	.LBE1836:
 8551              	.LBE1838:
 8552              	.LBE1841:
 8553              	.LBB1842:
 8554              	.LBB1843:
  50:C:/Renesas/e2studio_2021_01_workspace_RZA2M_ANPR/ANPR_RZA2M_GR_MANGO/src/tensorflow_lite/src/tensorflow/lite/micro/kernels\kernel_util.h **** }
 8555              		.loc 4 50 0
 8556 0048 042095E5 		ldr	r2, [r5, #4]
 8557              	.LBE1843:
 8558              	.LBE1842:
 8559              	.LBB1845:
 8560              	.LBB1839:
 8561              	.LBB1837:
  36:C:/Renesas/e2studio_2021_01_workspace_RZA2M_ANPR/ANPR_RZA2M_GR_MANGO/src/tensorflow_lite/src/tensorflow/lite/micro/kernels\kernel_util.h **** }
 8562              		.loc 4 36 0
 8563 004c 0060A0E1 		mov	r6, r0
 8564              	.LVL1076:
 8565              	.LBE1837:
 8566              	.LBE1839:
 8567              	.LBE1845:
 8568              	.LBB1846:
 8569              	.LBB1844:
  50:C:/Renesas/e2studio_2021_01_workspace_RZA2M_ANPR/ANPR_RZA2M_GR_MANGO/src/tensorflow_lite/src/tensorflow/lite/micro/kernels\kernel_util.h **** }
 8570              		.loc 4 50 0
 8571 0050 543094E5 		ldr	r3, [r4, #84]
 8572 0054 0400A0E1 		mov	r0, r4
 8573 0058 041092E5 		ldr	r1, [r2, #4]
 8574 005c 33FF2FE1 		blx	r3
 8575              	.LVL1077:
 8576 0060 0050A0E1 		mov	r5, r0
 8577              	.LVL1078:
 8578              	.LBE1844:
 8579              	.LBE1846:
  63:../src/tensorflow_lite/src/tensorflow/lite/micro/kernels/arg_min_max.cpp ****     if (output->type == kTfLiteInt32) {
 8580              		.loc 1 63 0
 8581 0064 0800D6E5 		ldrb	r0, [r6, #8]	@ zero_extendqisi2
 8582 0068 020050E3 		cmp	r0, #2
 8583 006c 0900000A 		beq	.L1079
 8584              	.L975:
  89:../src/tensorflow_lite/src/tensorflow/lite/micro/kernels/arg_min_max.cpp ****                        TfLiteTypeGetName(axis->type));
 8585              		.loc 1 89 0
 8586 0070 145094E5 		ldr	r5, [r4, #20]
 8587 0074 FEFFFFEB 		bl	TfLiteTypeGetName
 8588              	.LVL1079:
 8589 0078 001000E3 		movw	r1, #:lower16:.LC1
 8590 007c 0020A0E1 		mov	r2, r0
 8591 0080 001040E3 		movt	r1, #:upper16:.LC1
 8592 0084 0400A0E1 		mov	r0, r4
 8593 0088 35FF2FE1 		blx	r5
 8594              	.LVL1080:
  91:../src/tensorflow_lite/src/tensorflow/lite/micro/kernels/arg_min_max.cpp ****   }
 8595              		.loc 1 91 0
 8596 008c 0100A0E3 		mov	r0, #1
 8597              	.L1052:
  97:../src/tensorflow_lite/src/tensorflow/lite/micro/kernels/arg_min_max.cpp **** 
 8598              		.loc 1 97 0
 8599 0090 44D08DE2 		add	sp, sp, #68
 8600              		.cfi_remember_state
 8601              		.cfi_def_cfa_offset 28
 8602              		@ sp needed
 8603 0094 F083BDE8 		pop	{r4, r5, r6, r7, r8, r9, pc}
 8604              	.LVL1081:
 8605              	.L1079:
 8606              		.cfi_restore_state
  64:../src/tensorflow_lite/src/tensorflow/lite/micro/kernels/arg_min_max.cpp ****       switch (input->type) {
 8607              		.loc 1 64 0
 8608 0098 0800D5E5 		ldrb	r0, [r5, #8]	@ zero_extendqisi2
 8609 009c 020050E3 		cmp	r0, #2
 8610 00a0 F2FFFF1A 		bne	.L975
  65:../src/tensorflow_lite/src/tensorflow/lite/micro/kernels/arg_min_max.cpp ****         case kTfLiteFloat32:
 8611              		.loc 1 65 0
 8612 00a4 0800D7E5 		ldrb	r0, [r7, #8]	@ zero_extendqisi2
 8613 00a8 030050E3 		cmp	r0, #3
 8614 00ac 3800000A 		beq	.L978
 8615 00b0 090050E3 		cmp	r0, #9
 8616 00b4 0A00000A 		beq	.L979
 8617 00b8 010050E3 		cmp	r0, #1
 8618 00bc 1E00000A 		beq	.L1080
  76:../src/tensorflow_lite/src/tensorflow/lite/micro/kernels/arg_min_max.cpp ****                              "Only float32, uint8_t and int8_t are "
 8619              		.loc 1 76 0
 8620 00c0 145094E5 		ldr	r5, [r4, #20]
 8621 00c4 FEFFFFEB 		bl	TfLiteTypeGetName
 8622              	.LVL1082:
 8623 00c8 001000E3 		movw	r1, #:lower16:.LC0
 8624 00cc 0020A0E1 		mov	r2, r0
 8625 00d0 001040E3 		movt	r1, #:upper16:.LC0
 8626 00d4 0400A0E1 		mov	r0, r4
 8627 00d8 35FF2FE1 		blx	r5
 8628              	.LVL1083:
  80:../src/tensorflow_lite/src/tensorflow/lite/micro/kernels/arg_min_max.cpp ****       }
 8629              		.loc 1 80 0
 8630 00dc 0100A0E3 		mov	r0, #1
 8631 00e0 EAFFFFEA 		b	.L1052
 8632              	.L979:
  73:../src/tensorflow_lite/src/tensorflow/lite/micro/kernels/arg_min_max.cpp ****           break;
 8633              		.loc 1 73 0
 8634 00e4 10408DE2 		add	r4, sp, #16
 8635              	.LVL1084:
 8636 00e8 0710A0E1 		mov	r1, r7
 8637 00ec 0400A0E1 		mov	r0, r4
 8638 00f0 28908DE2 		add	r9, sp, #40
 8639 00f4 FEFFFFEB 		bl	_ZN6tflite5micro14GetTensorShapeEPK16TfLiteEvalTensor
 8640              	.LVL1085:
 8641              	.LEHE10:
 8642 00f8 0900A0E1 		mov	r0, r9
 8643 00fc 0510A0E1 		mov	r1, r5
 8644              	.LBB1847:
 8645              	.LBB1848:
 8646              		.loc 4 63 0
 8647 0100 007097E5 		ldr	r7, [r7]
 8648              	.LBE1848:
 8649              	.LBE1847:
 8650              	.LBB1849:
 8651              	.LBB1850:
 8652 0104 006096E5 		ldr	r6, [r6]
 8653              	.LEHB11:
 8654              	.LBE1850:
 8655              	.LBE1849:
  73:../src/tensorflow_lite/src/tensorflow/lite/micro/kernels/arg_min_max.cpp ****           break;
 8656              		.loc 1 73 0
 8657 0108 FEFFFFEB 		bl	_ZN6tflite5micro14GetTensorShapeEPK16TfLiteEvalTensor
 8658              	.LVL1086:
 8659              	.LEHE11:
 8660              	.LBB1851:
 8661              	.LBB1852:
  39:../src/tensorflow_lite/src/tensorflow/lite/micro/kernels/arg_min_max.cpp ****     reference_ops::ArgMinMax(input1_shape, input1_data, input2_data,
 8662              		.loc 1 39 0
 8663 010c 000058E3 		cmp	r8, #0
 8664              	.LBE1852:
 8665              	.LBE1851:
 8666              	.LBB1855:
 8667              	.LBB1856:
  56:C:/Renesas/e2studio_2021_01_workspace_RZA2M_ANPR/ANPR_RZA2M_GR_MANGO/src/tensorflow_lite/src/tensorflow/lite/micro/kernels\kernel_util.h **** }
 8668              		.loc 4 56 0
 8669 0110 003095E5 		ldr	r3, [r5]
 8670              	.LVL1087:
 8671              	.LBE1856:
 8672              	.LBE1855:
 8673              	.LBB1857:
 8674              	.LBB1853:
  39:../src/tensorflow_lite/src/tensorflow/lite/micro/kernels/arg_min_max.cpp ****     reference_ops::ArgMinMax(input1_shape, input1_data, input2_data,
 8675              		.loc 1 39 0
 8676 0114 4D00001A 		bne	.L1081
  43:../src/tensorflow_lite/src/tensorflow/lite/micro/kernels/arg_min_max.cpp ****                              output_shape, output_data, micro::Less());
 8677              		.loc 1 43 0
 8678 0118 08C08DE2 		add	ip, sp, #8
 8679 011c 00308DE5 		str	r3, [sp]
 8680 0120 0620A0E1 		mov	r2, r6
 8681 0124 0930A0E1 		mov	r3, r9
 8682              	.LVL1088:
 8683 0128 0710A0E1 		mov	r1, r7
 8684 012c 0400A0E1 		mov	r0, r4
 8685 0130 04C08DE5 		str	ip, [sp, #4]
 8686              	.LEHB12:
 8687 0134 FEFFFFEB 		bl	_ZN6tflite13reference_ops9ArgMinMaxIallNS_3ops5micro4LessEEEvRKNS_12RuntimeShapeEPKT_PKT1_S7_PT
 8688              	.LVL1089:
 8689              	.LEHE12:
 8690 0138 2A0000EA 		b	.L991
 8691              	.LVL1090:
 8692              	.L1080:
 8693              	.LBE1853:
 8694              	.LBE1857:
  67:../src/tensorflow_lite/src/tensorflow/lite/micro/kernels/arg_min_max.cpp ****           break;
 8695              		.loc 1 67 0
 8696 013c 10408DE2 		add	r4, sp, #16
 8697              	.LVL1091:
 8698 0140 0710A0E1 		mov	r1, r7
 8699 0144 0400A0E1 		mov	r0, r4
 8700 0148 28908DE2 		add	r9, sp, #40
 8701              	.LEHB13:
 8702 014c FEFFFFEB 		bl	_ZN6tflite5micro14GetTensorShapeEPK16TfLiteEvalTensor
 8703              	.LVL1092:
 8704              	.LEHE13:
 8705 0150 0900A0E1 		mov	r0, r9
 8706 0154 0510A0E1 		mov	r1, r5
 8707              	.LBB1858:
 8708              	.LBB1859:
 8709              		.loc 4 63 0
 8710 0158 007097E5 		ldr	r7, [r7]
 8711              	.LBE1859:
 8712              	.LBE1858:
 8713              	.LBB1860:
 8714              	.LBB1861:
 8715 015c 006096E5 		ldr	r6, [r6]
 8716              	.LEHB14:
 8717              	.LBE1861:
 8718              	.LBE1860:
  67:../src/tensorflow_lite/src/tensorflow/lite/micro/kernels/arg_min_max.cpp ****           break;
 8719              		.loc 1 67 0
 8720 0160 FEFFFFEB 		bl	_ZN6tflite5micro14GetTensorShapeEPK16TfLiteEvalTensor
 8721              	.LVL1093:
 8722              	.LEHE14:
 8723              	.LBB1862:
 8724              	.LBB1863:
  39:../src/tensorflow_lite/src/tensorflow/lite/micro/kernels/arg_min_max.cpp ****     reference_ops::ArgMinMax(input1_shape, input1_data, input2_data,
 8725              		.loc 1 39 0
 8726 0164 000058E3 		cmp	r8, #0
 8727              	.LBE1863:
 8728              	.LBE1862:
 8729              	.LBB1866:
 8730              	.LBB1867:
  56:C:/Renesas/e2studio_2021_01_workspace_RZA2M_ANPR/ANPR_RZA2M_GR_MANGO/src/tensorflow_lite/src/tensorflow/lite/micro/kernels\kernel_util.h **** }
 8731              		.loc 4 56 0
 8732 0168 003095E5 		ldr	r3, [r5]
 8733              	.LVL1094:
 8734              	.LBE1867:
 8735              	.LBE1866:
 8736              	.LBB1868:
 8737              	.LBB1864:
  39:../src/tensorflow_lite/src/tensorflow/lite/micro/kernels/arg_min_max.cpp ****     reference_ops::ArgMinMax(input1_shape, input1_data, input2_data,
 8738              		.loc 1 39 0
 8739 016c 4000001A 		bne	.L1082
  43:../src/tensorflow_lite/src/tensorflow/lite/micro/kernels/arg_min_max.cpp ****                              output_shape, output_data, micro::Less());
 8740              		.loc 1 43 0
 8741 0170 08C08DE2 		add	ip, sp, #8
 8742 0174 00308DE5 		str	r3, [sp]
 8743 0178 0620A0E1 		mov	r2, r6
 8744 017c 0930A0E1 		mov	r3, r9
 8745              	.LVL1095:
 8746 0180 0710A0E1 		mov	r1, r7
 8747 0184 0400A0E1 		mov	r0, r4
 8748 0188 04C08DE5 		str	ip, [sp, #4]
 8749              	.LEHB15:
 8750 018c FEFFFFEB 		bl	_ZN6tflite13reference_ops9ArgMinMaxIfllNS_3ops5micro4LessEEEvRKNS_12RuntimeShapeEPKT_PKT1_S7_PT
 8751              	.LVL1096:
 8752              	.LEHE15:
 8753 0190 140000EA 		b	.L991
 8754              	.LVL1097:
 8755              	.L978:
 8756              	.LBE1864:
 8757              	.LBE1868:
  70:../src/tensorflow_lite/src/tensorflow/lite/micro/kernels/arg_min_max.cpp ****           break;
 8758              		.loc 1 70 0
 8759 0194 10408DE2 		add	r4, sp, #16
 8760              	.LVL1098:
 8761 0198 0710A0E1 		mov	r1, r7
 8762 019c 0400A0E1 		mov	r0, r4
 8763 01a0 28908DE2 		add	r9, sp, #40
 8764              	.LEHB16:
 8765 01a4 FEFFFFEB 		bl	_ZN6tflite5micro14GetTensorShapeEPK16TfLiteEvalTensor
 8766              	.LVL1099:
 8767              	.LEHE16:
 8768 01a8 0900A0E1 		mov	r0, r9
 8769 01ac 0510A0E1 		mov	r1, r5
 8770              	.LBB1869:
 8771              	.LBB1870:
 8772              		.loc 4 63 0
 8773 01b0 007097E5 		ldr	r7, [r7]
 8774              	.LBE1870:
 8775              	.LBE1869:
 8776              	.LBB1871:
 8777              	.LBB1872:
 8778 01b4 006096E5 		ldr	r6, [r6]
 8779              	.LEHB17:
 8780              	.LBE1872:
 8781              	.LBE1871:
  70:../src/tensorflow_lite/src/tensorflow/lite/micro/kernels/arg_min_max.cpp ****           break;
 8782              		.loc 1 70 0
 8783 01b8 FEFFFFEB 		bl	_ZN6tflite5micro14GetTensorShapeEPK16TfLiteEvalTensor
 8784              	.LVL1100:
 8785              	.LEHE17:
 8786              	.LBB1873:
 8787              	.LBB1874:
  39:../src/tensorflow_lite/src/tensorflow/lite/micro/kernels/arg_min_max.cpp ****     reference_ops::ArgMinMax(input1_shape, input1_data, input2_data,
 8788              		.loc 1 39 0
 8789 01bc 000058E3 		cmp	r8, #0
 8790              	.LBE1874:
 8791              	.LBE1873:
 8792              	.LBB1877:
 8793              	.LBB1878:
  56:C:/Renesas/e2studio_2021_01_workspace_RZA2M_ANPR/ANPR_RZA2M_GR_MANGO/src/tensorflow_lite/src/tensorflow/lite/micro/kernels\kernel_util.h **** }
 8794              		.loc 4 56 0
 8795 01c0 003095E5 		ldr	r3, [r5]
 8796              	.LVL1101:
 8797              	.LBE1878:
 8798              	.LBE1877:
 8799              	.LBB1879:
 8800              	.LBB1875:
  39:../src/tensorflow_lite/src/tensorflow/lite/micro/kernels/arg_min_max.cpp ****     reference_ops::ArgMinMax(input1_shape, input1_data, input2_data,
 8801              		.loc 1 39 0
 8802 01c4 1800001A 		bne	.L1083
  43:../src/tensorflow_lite/src/tensorflow/lite/micro/kernels/arg_min_max.cpp ****                              output_shape, output_data, micro::Less());
 8803              		.loc 1 43 0
 8804 01c8 08C08DE2 		add	ip, sp, #8
 8805 01cc 00308DE5 		str	r3, [sp]
 8806 01d0 0620A0E1 		mov	r2, r6
 8807 01d4 0930A0E1 		mov	r3, r9
 8808              	.LVL1102:
 8809 01d8 0710A0E1 		mov	r1, r7
 8810 01dc 0400A0E1 		mov	r0, r4
 8811 01e0 04C08DE5 		str	ip, [sp, #4]
 8812              	.LEHB18:
 8813 01e4 FEFFFFEB 		bl	_ZN6tflite13reference_ops9ArgMinMaxIhllNS_3ops5micro4LessEEEvRKNS_12RuntimeShapeEPKT_PKT1_S7_PT
 8814              	.LVL1103:
 8815              	.L991:
 8816              	.LBE1875:
 8817              	.LBE1879:
 8818              	.LBB1880:
 8819              	.LBB1881:
 203:C:/Renesas/e2studio_2021_01_workspace_RZA2M_ANPR/ANPR_RZA2M_GR_MANGO/src/tensorflow_lite/src/tensorflow/lite/kernels/internal\types.h **** #ifdef TF_LITE_STATIC_MEMORY
 8820              		.loc 3 203 0
 8821 01e8 28309DE5 		ldr	r3, [sp, #40]
 8822 01ec 050053E3 		cmp	r3, #5
 8823 01f0 030000DA 		ble	.L992
 207:C:/Renesas/e2studio_2021_01_workspace_RZA2M_ANPR/ANPR_RZA2M_GR_MANGO/src/tensorflow_lite/src/tensorflow/lite/kernels/internal\types.h **** #endif  // TF_LITE_STATIC_MEMORY
 8824              		.loc 3 207 0
 8825 01f4 2C009DE5 		ldr	r0, [sp, #44]
 8826 01f8 000050E3 		cmp	r0, #0
 8827 01fc 0000000A 		beq	.L992
 8828 0200 FEFFFFEB 		bl	_ZdaPv
 8829              	.LVL1104:
 8830              	.L992:
 8831              	.LBE1881:
 8832              	.LBE1880:
 8833              	.LBB1882:
 8834              	.LBB1883:
 203:C:/Renesas/e2studio_2021_01_workspace_RZA2M_ANPR/ANPR_RZA2M_GR_MANGO/src/tensorflow_lite/src/tensorflow/lite/kernels/internal\types.h **** #ifdef TF_LITE_STATIC_MEMORY
 8835              		.loc 3 203 0
 8836 0204 10309DE5 		ldr	r3, [sp, #16]
 8837 0208 050053E3 		cmp	r3, #5
 8838 020c 030000DA 		ble	.L993
 207:C:/Renesas/e2studio_2021_01_workspace_RZA2M_ANPR/ANPR_RZA2M_GR_MANGO/src/tensorflow_lite/src/tensorflow/lite/kernels/internal\types.h **** #endif  // TF_LITE_STATIC_MEMORY
 8839              		.loc 3 207 0
 8840 0210 14009DE5 		ldr	r0, [sp, #20]
 8841 0214 000050E3 		cmp	r0, #0
 8842 0218 0000000A 		beq	.L993
 8843 021c FEFFFFEB 		bl	_ZdaPv
 8844              	.LVL1105:
 8845              	.L993:
 8846              	.LBE1883:
 8847              	.LBE1882:
  96:../src/tensorflow_lite/src/tensorflow/lite/micro/kernels/arg_min_max.cpp **** }
 8848              		.loc 1 96 0
 8849 0220 0000A0E3 		mov	r0, #0
  97:../src/tensorflow_lite/src/tensorflow/lite/micro/kernels/arg_min_max.cpp **** 
 8850              		.loc 1 97 0
 8851 0224 44D08DE2 		add	sp, sp, #68
 8852              		.cfi_remember_state
 8853              		.cfi_def_cfa_offset 28
 8854              		@ sp needed
 8855 0228 F083BDE8 		pop	{r4, r5, r6, r7, r8, r9, pc}
 8856              	.LVL1106:
 8857              	.L1083:
 8858              		.cfi_restore_state
 8859              	.LBB1884:
 8860              	.LBB1876:
  40:../src/tensorflow_lite/src/tensorflow/lite/micro/kernels/arg_min_max.cpp ****                              output_shape, output_data, micro::Greater());
 8861              		.loc 1 40 0
 8862 022c 0CC08DE2 		add	ip, sp, #12
 8863 0230 00308DE5 		str	r3, [sp]
 8864 0234 0620A0E1 		mov	r2, r6
 8865 0238 0930A0E1 		mov	r3, r9
 8866              	.LVL1107:
 8867 023c 0710A0E1 		mov	r1, r7
 8868 0240 0400A0E1 		mov	r0, r4
 8869 0244 04C08DE5 		str	ip, [sp, #4]
 8870 0248 FEFFFFEB 		bl	_ZN6tflite13reference_ops9ArgMinMaxIhllNS_3ops5micro7GreaterEEEvRKNS_12RuntimeShapeEPKT_PKT1_S7
 8871              	.LVL1108:
 8872              	.LEHE18:
 8873 024c E5FFFFEA 		b	.L991
 8874              	.LVL1109:
 8875              	.L1081:
 8876              	.LBE1876:
 8877              	.LBE1884:
 8878              	.LBB1885:
 8879              	.LBB1854:
 8880 0250 0CC08DE2 		add	ip, sp, #12
 8881 0254 00308DE5 		str	r3, [sp]
 8882 0258 0620A0E1 		mov	r2, r6
 8883 025c 0930A0E1 		mov	r3, r9
 8884              	.LVL1110:
 8885 0260 0710A0E1 		mov	r1, r7
 8886 0264 0400A0E1 		mov	r0, r4
 8887 0268 04C08DE5 		str	ip, [sp, #4]
 8888              	.LEHB19:
 8889 026c FEFFFFEB 		bl	_ZN6tflite13reference_ops9ArgMinMaxIallNS_3ops5micro7GreaterEEEvRKNS_12RuntimeShapeEPKT_PKT1_S7
 8890              	.LVL1111:
 8891              	.LEHE19:
 8892 0270 DCFFFFEA 		b	.L991
 8893              	.LVL1112:
 8894              	.L1082:
 8895              	.LBE1854:
 8896              	.LBE1885:
 8897              	.LBB1886:
 8898              	.LBB1865:
 8899 0274 0CC08DE2 		add	ip, sp, #12
 8900 0278 00308DE5 		str	r3, [sp]
 8901 027c 0620A0E1 		mov	r2, r6
 8902 0280 0930A0E1 		mov	r3, r9
 8903              	.LVL1113:
 8904 0284 0710A0E1 		mov	r1, r7
 8905 0288 0400A0E1 		mov	r0, r4
 8906 028c 04C08DE5 		str	ip, [sp, #4]
 8907              	.LEHB20:
 8908 0290 FEFFFFEB 		bl	_ZN6tflite13reference_ops9ArgMinMaxIfllNS_3ops5micro7GreaterEEEvRKNS_12RuntimeShapeEPKT_PKT1_S7
 8909              	.LVL1114:
 8910              	.LEHE20:
 8911 0294 D3FFFFEA 		b	.L991
 8912              	.LVL1115:
 8913              	.L974:
 8914              	.LEHB21:
 8915              	.LBE1865:
 8916              	.LBE1886:
 8917              	.LBB1887:
 8918              	.LBB1831:
 8919              	.LBB1828:
  34:C:/Renesas/e2studio_2021_01_workspace_RZA2M_ANPR/ANPR_RZA2M_GR_MANGO/src/tensorflow_lite/src/tensorflow/lite/micro/kernels\kernel_util.h ****   TFLITE_DCHECK(node != nullptr);
 8920              		.loc 4 34 0
 8921 0298 FEFFFFEB 		bl	abort
 8922              	.LVL1116:
 8923              	.L1009:
 8924              	.L1077:
 8925              	.LBE1828:
 8926              	.LBE1831:
 8927              	.LBE1887:
 8928              	.LBB1888:
 8929              	.LBB1889:
 203:C:/Renesas/e2studio_2021_01_workspace_RZA2M_ANPR/ANPR_RZA2M_GR_MANGO/src/tensorflow_lite/src/tensorflow/lite/kernels/internal\types.h **** #ifdef TF_LITE_STATIC_MEMORY
 8930              		.loc 3 203 0
 8931 029c 28309DE5 		ldr	r3, [sp, #40]
 8932 02a0 050053E3 		cmp	r3, #5
 8933 02a4 030000DA 		ble	.L1004
 207:C:/Renesas/e2studio_2021_01_workspace_RZA2M_ANPR/ANPR_RZA2M_GR_MANGO/src/tensorflow_lite/src/tensorflow/lite/kernels/internal\types.h **** #endif  // TF_LITE_STATIC_MEMORY
 8934              		.loc 3 207 0
 8935 02a8 2C009DE5 		ldr	r0, [sp, #44]
 8936 02ac 000050E3 		cmp	r0, #0
 8937 02b0 0000000A 		beq	.L1004
 8938 02b4 FEFFFFEB 		bl	_ZdaPv
 8939              	.LVL1117:
 8940              	.L1004:
 8941              	.LBE1889:
 8942              	.LBE1888:
 8943              	.LBB1890:
 8944              	.LBB1891:
 203:C:/Renesas/e2studio_2021_01_workspace_RZA2M_ANPR/ANPR_RZA2M_GR_MANGO/src/tensorflow_lite/src/tensorflow/lite/kernels/internal\types.h **** #ifdef TF_LITE_STATIC_MEMORY
 8945              		.loc 3 203 0 discriminator 5
 8946 02b8 10309DE5 		ldr	r3, [sp, #16]
 8947 02bc 050053E3 		cmp	r3, #5
 8948 02c0 030000DA 		ble	.L1005
 207:C:/Renesas/e2studio_2021_01_workspace_RZA2M_ANPR/ANPR_RZA2M_GR_MANGO/src/tensorflow_lite/src/tensorflow/lite/kernels/internal\types.h **** #endif  // TF_LITE_STATIC_MEMORY
 8949              		.loc 3 207 0
 8950 02c4 14009DE5 		ldr	r0, [sp, #20]
 8951 02c8 000050E3 		cmp	r0, #0
 8952 02cc 0000000A 		beq	.L1005
 8953 02d0 FEFFFFEB 		bl	_ZdaPv
 8954              	.LVL1118:
 8955              	.L1005:
 8956 02d4 FEFFFFEB 		bl	__cxa_end_cleanup
 8957              	.LVL1119:
 8958              	.LEHE21:
 8959              	.L1011:
 8960 02d8 EFFFFFEA 		b	.L1077
 8961              	.LVL1120:
 8962              	.L1006:
 8963 02dc F5FFFFEA 		b	.L1004
 8964              	.LVL1121:
 8965              	.L1010:
 8966 02e0 F4FFFFEA 		b	.L1004
 8967              	.L1008:
 8968              	.LVL1122:
 8969 02e4 F3FFFFEA 		b	.L1004
 8970              	.LVL1123:
 8971              	.L1007:
 8972 02e8 EBFFFFEA 		b	.L1077
 8973              	.LBE1891:
 8974              	.LBE1890:
 8975              		.cfi_endproc
 8976              	.LFE1766:
 8977              		.personality	__gxx_personality_v0
 8978              		.handlerdata
 8979              	.LLSDA1766:
 8980 0008 FF       		.byte	0xff
 8981 0009 FF       		.byte	0xff
 8982 000a 01       		.byte	0x1
 8983 000b 44       		.uleb128 .LLSDACSE1766-.LLSDACSB1766
 8984              	.LLSDACSB1766:
 8985 000c 2C       		.uleb128 .LEHB10-.LFB1766
 8986 000d CC01     		.uleb128 .LEHE10-.LEHB10
 8987 000f 00       		.uleb128 0
 8988 0010 00       		.uleb128 0
 8989 0011 8802     		.uleb128 .LEHB11-.LFB1766
 8990 0013 04       		.uleb128 .LEHE11-.LEHB11
 8991 0014 E005     		.uleb128 .L1010-.LFB1766
 8992 0016 00       		.uleb128 0
 8993 0017 B402     		.uleb128 .LEHB12-.LFB1766
 8994 0019 04       		.uleb128 .LEHE12-.LEHB12
 8995 001a D805     		.uleb128 .L1011-.LFB1766
 8996 001c 00       		.uleb128 0
 8997 001d CC02     		.uleb128 .LEHB13-.LFB1766
 8998 001f 04       		.uleb128 .LEHE13-.LEHB13
 8999 0020 00       		.uleb128 0
 9000 0021 00       		.uleb128 0
 9001 0022 E002     		.uleb128 .LEHB14-.LFB1766
 9002 0024 04       		.uleb128 .LEHE14-.LEHB14
 9003 0025 DC05     		.uleb128 .L1006-.LFB1766
 9004 0027 00       		.uleb128 0
 9005 0028 8C03     		.uleb128 .LEHB15-.LFB1766
 9006 002a 04       		.uleb128 .LEHE15-.LEHB15
 9007 002b E805     		.uleb128 .L1007-.LFB1766
 9008 002d 00       		.uleb128 0
 9009 002e A403     		.uleb128 .LEHB16-.LFB1766
 9010 0030 04       		.uleb128 .LEHE16-.LEHB16
 9011 0031 00       		.uleb128 0
 9012 0032 00       		.uleb128 0
 9013 0033 B803     		.uleb128 .LEHB17-.LFB1766
 9014 0035 04       		.uleb128 .LEHE17-.LEHB17
 9015 0036 E405     		.uleb128 .L1008-.LFB1766
 9016 0038 00       		.uleb128 0
 9017 0039 E403     		.uleb128 .LEHB18-.LFB1766
 9018 003b 68       		.uleb128 .LEHE18-.LEHB18
 9019 003c 9C05     		.uleb128 .L1009-.LFB1766
 9020 003e 00       		.uleb128 0
 9021 003f EC04     		.uleb128 .LEHB19-.LFB1766
 9022 0041 04       		.uleb128 .LEHE19-.LEHB19
 9023 0042 D805     		.uleb128 .L1011-.LFB1766
 9024 0044 00       		.uleb128 0
 9025 0045 9005     		.uleb128 .LEHB20-.LFB1766
 9026 0047 04       		.uleb128 .LEHE20-.LEHB20
 9027 0048 E805     		.uleb128 .L1007-.LFB1766
 9028 004a 00       		.uleb128 0
 9029 004b 9805     		.uleb128 .LEHB21-.LFB1766
 9030 004d 40       		.uleb128 .LEHE21-.LEHB21
 9031 004e 00       		.uleb128 0
 9032 004f 00       		.uleb128 0
 9033              	.LLSDACSE1766:
 9034              		.section	.text._ZN6tflite3ops5micro11arg_min_max4EvalEP13TfLiteContextP10TfLiteNodeb
 9035              		.fnend
 9037              		.section	.text._ZN6tflite3ops5micro11arg_min_max10ArgMinEvalEP13TfLiteContextP10TfLiteNode,"ax",%p
 9038              		.align	2
 9039              		.global	_ZN6tflite3ops5micro11arg_min_max10ArgMinEvalEP13TfLiteContextP10TfLiteNode
 9040              		.syntax unified
 9041              		.arm
 9042              		.fpu neon
 9044              	_ZN6tflite3ops5micro11arg_min_max10ArgMinEvalEP13TfLiteContextP10TfLiteNode:
 9045              		.fnstart
 9046              	.LFB1767:
  99:../src/tensorflow_lite/src/tensorflow/lite/micro/kernels/arg_min_max.cpp ****   return Eval(context, node, false);
 9047              		.loc 1 99 0
 9048              		.cfi_startproc
 9049              		.cfi_personality 0,__gxx_personality_v0
 9050              		.cfi_lsda 0,.LLSDA1767
 9051              		@ args = 0, pretend = 0, frame = 56
 9052              		@ frame_needed = 0, uses_anonymous_args = 0
 9053              	.LVL1124:
 9054 0000 F0412DE9 		push	{r4, r5, r6, r7, r8, lr}
 9055              		.save {r4, r5, r6, r7, r8, lr}
 9056              		.cfi_def_cfa_offset 24
 9057              		.cfi_offset 4, -24
 9058              		.cfi_offset 5, -20
 9059              		.cfi_offset 6, -16
 9060              		.cfi_offset 7, -12
 9061              		.cfi_offset 8, -8
 9062              		.cfi_offset 14, -4
 9063              	.LBB1952:
 9064              	.LBB1953:
 9065              	.LBB1954:
 9066              	.LBB1955:
 9067              	.LBB1956:
  34:C:/Renesas/e2studio_2021_01_workspace_RZA2M_ANPR/ANPR_RZA2M_GR_MANGO/src/tensorflow_lite/src/tensorflow/lite/micro/kernels\kernel_util.h ****   TFLITE_DCHECK(node != nullptr);
 9068              		.loc 4 34 0
 9069 0004 004050E2 		subs	r4, r0, #0
 9070              	.LVL1125:
 9071              	.LBE1956:
 9072              	.LBE1955:
 9073              	.LBE1954:
 9074              	.LBE1953:
 9075              	.LBE1952:
  99:../src/tensorflow_lite/src/tensorflow/lite/micro/kernels/arg_min_max.cpp ****   return Eval(context, node, false);
 9076              		.loc 1 99 0
 9077              		.pad #64
 9078 0008 40D04DE2 		sub	sp, sp, #64
 9079              		.cfi_def_cfa_offset 88
 9080              	.LBB2008:
 9081              	.LBB2005:
 9082              	.LBB1963:
 9083              	.LBB1960:
 9084              	.LBB1957:
  34:C:/Renesas/e2studio_2021_01_workspace_RZA2M_ANPR/ANPR_RZA2M_GR_MANGO/src/tensorflow_lite/src/tensorflow/lite/micro/kernels\kernel_util.h ****   TFLITE_DCHECK(node != nullptr);
 9085              		.loc 4 34 0
 9086 000c 7F00000A 		beq	.L1086
  35:C:/Renesas/e2studio_2021_01_workspace_RZA2M_ANPR/ANPR_RZA2M_GR_MANGO/src/tensorflow_lite/src/tensorflow/lite/micro/kernels\kernel_util.h ****   return context->GetEvalTensor(context, node->inputs->data[index]);
 9087              		.loc 4 35 0
 9088 0010 000051E3 		cmp	r1, #0
 9089 0014 0150A0E1 		mov	r5, r1
 9090 0018 7C00000A 		beq	.L1086
  36:C:/Renesas/e2studio_2021_01_workspace_RZA2M_ANPR/ANPR_RZA2M_GR_MANGO/src/tensorflow_lite/src/tensorflow/lite/micro/kernels\kernel_util.h **** }
 9091              		.loc 4 36 0
 9092 001c 002091E5 		ldr	r2, [r1]
 9093 0020 543094E5 		ldr	r3, [r4, #84]
 9094 0024 041092E5 		ldr	r1, [r2, #4]
 9095              	.LVL1126:
 9096              	.LEHB22:
 9097 0028 33FF2FE1 		blx	r3
 9098              	.LVL1127:
 9099              	.LBE1957:
 9100              	.LBE1960:
 9101              	.LBE1963:
 9102              	.LBB1964:
 9103              	.LBB1965:
 9104              	.LBB1966:
 9105 002c 002095E5 		ldr	r2, [r5]
 9106              	.LBE1966:
 9107              	.LBE1965:
 9108              	.LBE1964:
 9109              	.LBB1971:
 9110              	.LBB1961:
 9111              	.LBB1958:
 9112 0030 0070A0E1 		mov	r7, r0
 9113              	.LVL1128:
 9114              	.LBE1958:
 9115              	.LBE1961:
 9116              	.LBE1971:
 9117              	.LBB1972:
 9118              	.LBB1969:
 9119              	.LBB1967:
 9120 0034 543094E5 		ldr	r3, [r4, #84]
 9121 0038 0400A0E1 		mov	r0, r4
 9122 003c 081092E5 		ldr	r1, [r2, #8]
 9123 0040 33FF2FE1 		blx	r3
 9124              	.LVL1129:
 9125              	.LBE1967:
 9126              	.LBE1969:
 9127              	.LBE1972:
 9128              	.LBB1973:
 9129              	.LBB1974:
  50:C:/Renesas/e2studio_2021_01_workspace_RZA2M_ANPR/ANPR_RZA2M_GR_MANGO/src/tensorflow_lite/src/tensorflow/lite/micro/kernels\kernel_util.h **** }
 9130              		.loc 4 50 0
 9131 0044 042095E5 		ldr	r2, [r5, #4]
 9132              	.LBE1974:
 9133              	.LBE1973:
 9134              	.LBB1976:
 9135              	.LBB1970:
 9136              	.LBB1968:
  36:C:/Renesas/e2studio_2021_01_workspace_RZA2M_ANPR/ANPR_RZA2M_GR_MANGO/src/tensorflow_lite/src/tensorflow/lite/micro/kernels\kernel_util.h **** }
 9137              		.loc 4 36 0
 9138 0048 0060A0E1 		mov	r6, r0
 9139              	.LVL1130:
 9140              	.LBE1968:
 9141              	.LBE1970:
 9142              	.LBE1976:
 9143              	.LBB1977:
 9144              	.LBB1975:
  50:C:/Renesas/e2studio_2021_01_workspace_RZA2M_ANPR/ANPR_RZA2M_GR_MANGO/src/tensorflow_lite/src/tensorflow/lite/micro/kernels\kernel_util.h **** }
 9145              		.loc 4 50 0
 9146 004c 543094E5 		ldr	r3, [r4, #84]
 9147 0050 0400A0E1 		mov	r0, r4
 9148 0054 041092E5 		ldr	r1, [r2, #4]
 9149 0058 33FF2FE1 		blx	r3
 9150              	.LVL1131:
 9151 005c 0050A0E1 		mov	r5, r0
 9152              	.LVL1132:
 9153              	.LBE1975:
 9154              	.LBE1977:
  63:../src/tensorflow_lite/src/tensorflow/lite/micro/kernels/arg_min_max.cpp ****     if (output->type == kTfLiteInt32) {
 9155              		.loc 1 63 0
 9156 0060 0800D6E5 		ldrb	r0, [r6, #8]	@ zero_extendqisi2
 9157 0064 020050E3 		cmp	r0, #2
 9158 0068 0900000A 		beq	.L1186
 9159              	.L1087:
  89:../src/tensorflow_lite/src/tensorflow/lite/micro/kernels/arg_min_max.cpp ****                        TfLiteTypeGetName(axis->type));
 9160              		.loc 1 89 0
 9161 006c 145094E5 		ldr	r5, [r4, #20]
 9162 0070 FEFFFFEB 		bl	TfLiteTypeGetName
 9163              	.LVL1133:
 9164 0074 001000E3 		movw	r1, #:lower16:.LC1
 9165 0078 0020A0E1 		mov	r2, r0
 9166 007c 001040E3 		movt	r1, #:upper16:.LC1
 9167 0080 0400A0E1 		mov	r0, r4
 9168 0084 35FF2FE1 		blx	r5
 9169              	.LVL1134:
  91:../src/tensorflow_lite/src/tensorflow/lite/micro/kernels/arg_min_max.cpp ****   }
 9170              		.loc 1 91 0
 9171 0088 0100A0E3 		mov	r0, #1
 9172              	.LVL1135:
 9173              	.L1158:
 9174              	.LBE2005:
 9175              	.LBE2008:
 101:../src/tensorflow_lite/src/tensorflow/lite/micro/kernels/arg_min_max.cpp **** 
 9176              		.loc 1 101 0
 9177 008c 40D08DE2 		add	sp, sp, #64
 9178              		.cfi_remember_state
 9179              		.cfi_def_cfa_offset 24
 9180              		@ sp needed
 9181 0090 F081BDE8 		pop	{r4, r5, r6, r7, r8, pc}
 9182              	.LVL1136:
 9183              	.L1186:
 9184              		.cfi_restore_state
 9185              	.LBB2009:
 9186              	.LBB2006:
  64:../src/tensorflow_lite/src/tensorflow/lite/micro/kernels/arg_min_max.cpp ****       switch (input->type) {
 9187              		.loc 1 64 0
 9188 0094 0800D5E5 		ldrb	r0, [r5, #8]	@ zero_extendqisi2
 9189 0098 020050E3 		cmp	r0, #2
 9190 009c F2FFFF1A 		bne	.L1087
  65:../src/tensorflow_lite/src/tensorflow/lite/micro/kernels/arg_min_max.cpp ****         case kTfLiteFloat32:
 9191              		.loc 1 65 0
 9192 00a0 0800D7E5 		ldrb	r0, [r7, #8]	@ zero_extendqisi2
 9193 00a4 030050E3 		cmp	r0, #3
 9194 00a8 4400000A 		beq	.L1090
 9195 00ac 090050E3 		cmp	r0, #9
 9196 00b0 0A00000A 		beq	.L1091
 9197 00b4 010050E3 		cmp	r0, #1
 9198 00b8 2C00000A 		beq	.L1187
  76:../src/tensorflow_lite/src/tensorflow/lite/micro/kernels/arg_min_max.cpp ****                              "Only float32, uint8_t and int8_t are "
 9199              		.loc 1 76 0
 9200 00bc 145094E5 		ldr	r5, [r4, #20]
 9201 00c0 FEFFFFEB 		bl	TfLiteTypeGetName
 9202              	.LVL1137:
 9203 00c4 001000E3 		movw	r1, #:lower16:.LC0
 9204 00c8 0020A0E1 		mov	r2, r0
 9205 00cc 001040E3 		movt	r1, #:upper16:.LC0
 9206 00d0 0400A0E1 		mov	r0, r4
 9207 00d4 35FF2FE1 		blx	r5
 9208              	.LVL1138:
  80:../src/tensorflow_lite/src/tensorflow/lite/micro/kernels/arg_min_max.cpp ****       }
 9209              		.loc 1 80 0
 9210 00d8 0100A0E3 		mov	r0, #1
 9211 00dc EAFFFFEA 		b	.L1158
 9212              	.L1091:
  73:../src/tensorflow_lite/src/tensorflow/lite/micro/kernels/arg_min_max.cpp ****           break;
 9213              		.loc 1 73 0
 9214 00e0 10408DE2 		add	r4, sp, #16
 9215              	.LVL1139:
 9216 00e4 0710A0E1 		mov	r1, r7
 9217 00e8 0400A0E1 		mov	r0, r4
 9218 00ec 28808DE2 		add	r8, sp, #40
 9219 00f0 FEFFFFEB 		bl	_ZN6tflite5micro14GetTensorShapeEPK16TfLiteEvalTensor
 9220              	.LVL1140:
 9221              	.LEHE22:
 9222 00f4 0800A0E1 		mov	r0, r8
 9223 00f8 0510A0E1 		mov	r1, r5
 9224              	.LBB1978:
 9225              	.LBB1979:
 9226              		.loc 4 63 0
 9227 00fc 007097E5 		ldr	r7, [r7]
 9228              	.LBE1979:
 9229              	.LBE1978:
 9230              	.LBB1980:
 9231              	.LBB1981:
 9232 0100 006096E5 		ldr	r6, [r6]
 9233              	.LEHB23:
 9234              	.LBE1981:
 9235              	.LBE1980:
  73:../src/tensorflow_lite/src/tensorflow/lite/micro/kernels/arg_min_max.cpp ****           break;
 9236              		.loc 1 73 0
 9237 0104 FEFFFFEB 		bl	_ZN6tflite5micro14GetTensorShapeEPK16TfLiteEvalTensor
 9238              	.LVL1141:
 9239              	.LEHE23:
 9240              	.LBB1982:
 9241              	.LBB1983:
  43:../src/tensorflow_lite/src/tensorflow/lite/micro/kernels/arg_min_max.cpp ****                              output_shape, output_data, micro::Less());
 9242              		.loc 1 43 0
 9243 0108 0C208DE2 		add	r2, sp, #12
 9244 010c 0830A0E1 		mov	r3, r8
 9245 0110 04208DE5 		str	r2, [sp, #4]
 9246              	.LVL1142:
 9247 0114 0710A0E1 		mov	r1, r7
 9248 0118 00C095E5 		ldr	ip, [r5]
 9249 011c 0620A0E1 		mov	r2, r6
 9250 0120 0400A0E1 		mov	r0, r4
 9251 0124 00C08DE5 		str	ip, [sp]
 9252              	.LEHB24:
 9253 0128 FEFFFFEB 		bl	_ZN6tflite13reference_ops9ArgMinMaxIallNS_3ops5micro4LessEEEvRKNS_12RuntimeShapeEPKT_PKT1_S7_PT
 9254              	.LVL1143:
 9255              	.LEHE24:
 9256              	.L1181:
 9257              	.LBE1983:
 9258              	.LBE1982:
 9259              	.LBB1984:
 9260              	.LBB1985:
 203:C:/Renesas/e2studio_2021_01_workspace_RZA2M_ANPR/ANPR_RZA2M_GR_MANGO/src/tensorflow_lite/src/tensorflow/lite/kernels/internal\types.h **** #ifdef TF_LITE_STATIC_MEMORY
 9261              		.loc 3 203 0
 9262 012c 28309DE5 		ldr	r3, [sp, #40]
 9263 0130 050053E3 		cmp	r3, #5
 9264 0134 030000DA 		ble	.L1098
 207:C:/Renesas/e2studio_2021_01_workspace_RZA2M_ANPR/ANPR_RZA2M_GR_MANGO/src/tensorflow_lite/src/tensorflow/lite/kernels/internal\types.h **** #endif  // TF_LITE_STATIC_MEMORY
 9265              		.loc 3 207 0
 9266 0138 2C009DE5 		ldr	r0, [sp, #44]
 9267 013c 000050E3 		cmp	r0, #0
 9268 0140 0000000A 		beq	.L1098
 9269 0144 FEFFFFEB 		bl	_ZdaPv
 9270              	.LVL1144:
 9271              	.L1098:
 9272              	.LBE1985:
 9273              	.LBE1984:
 9274              	.LBB1986:
 9275              	.LBB1987:
 203:C:/Renesas/e2studio_2021_01_workspace_RZA2M_ANPR/ANPR_RZA2M_GR_MANGO/src/tensorflow_lite/src/tensorflow/lite/kernels/internal\types.h **** #ifdef TF_LITE_STATIC_MEMORY
 9276              		.loc 3 203 0
 9277 0148 10309DE5 		ldr	r3, [sp, #16]
 9278 014c 050053E3 		cmp	r3, #5
 9279 0150 030000DA 		ble	.L1099
 207:C:/Renesas/e2studio_2021_01_workspace_RZA2M_ANPR/ANPR_RZA2M_GR_MANGO/src/tensorflow_lite/src/tensorflow/lite/kernels/internal\types.h **** #endif  // TF_LITE_STATIC_MEMORY
 9280              		.loc 3 207 0
 9281 0154 14009DE5 		ldr	r0, [sp, #20]
 9282 0158 000050E3 		cmp	r0, #0
 9283 015c 0000000A 		beq	.L1099
 9284 0160 FEFFFFEB 		bl	_ZdaPv
 9285              	.LVL1145:
 9286              	.L1099:
 9287              	.LBE1987:
 9288              	.LBE1986:
  96:../src/tensorflow_lite/src/tensorflow/lite/micro/kernels/arg_min_max.cpp **** }
 9289              		.loc 1 96 0
 9290 0164 0000A0E3 		mov	r0, #0
 9291              	.LBE2006:
 9292              	.LBE2009:
 101:../src/tensorflow_lite/src/tensorflow/lite/micro/kernels/arg_min_max.cpp **** 
 9293              		.loc 1 101 0
 9294 0168 40D08DE2 		add	sp, sp, #64
 9295              		.cfi_remember_state
 9296              		.cfi_def_cfa_offset 24
 9297              		@ sp needed
 9298 016c F081BDE8 		pop	{r4, r5, r6, r7, r8, pc}
 9299              	.LVL1146:
 9300              	.L1187:
 9301              		.cfi_restore_state
 9302              	.LBB2010:
 9303              	.LBB2007:
  67:../src/tensorflow_lite/src/tensorflow/lite/micro/kernels/arg_min_max.cpp ****           break;
 9304              		.loc 1 67 0
 9305 0170 10408DE2 		add	r4, sp, #16
 9306              	.LVL1147:
 9307 0174 0710A0E1 		mov	r1, r7
 9308 0178 0400A0E1 		mov	r0, r4
 9309 017c 28808DE2 		add	r8, sp, #40
 9310              	.LEHB25:
 9311 0180 FEFFFFEB 		bl	_ZN6tflite5micro14GetTensorShapeEPK16TfLiteEvalTensor
 9312              	.LVL1148:
 9313              	.LEHE25:
 9314 0184 0800A0E1 		mov	r0, r8
 9315 0188 0510A0E1 		mov	r1, r5
 9316              	.LBB1988:
 9317              	.LBB1989:
 9318              		.loc 4 63 0
 9319 018c 007097E5 		ldr	r7, [r7]
 9320              	.LBE1989:
 9321              	.LBE1988:
 9322              	.LBB1990:
 9323              	.LBB1991:
 9324 0190 006096E5 		ldr	r6, [r6]
 9325              	.LEHB26:
 9326              	.LBE1991:
 9327              	.LBE1990:
  67:../src/tensorflow_lite/src/tensorflow/lite/micro/kernels/arg_min_max.cpp ****           break;
 9328              		.loc 1 67 0
 9329 0194 FEFFFFEB 		bl	_ZN6tflite5micro14GetTensorShapeEPK16TfLiteEvalTensor
 9330              	.LVL1149:
 9331              	.LEHE26:
 9332              	.LBB1992:
 9333              	.LBB1993:
  43:../src/tensorflow_lite/src/tensorflow/lite/micro/kernels/arg_min_max.cpp ****                              output_shape, output_data, micro::Less());
 9334              		.loc 1 43 0
 9335 0198 0C208DE2 		add	r2, sp, #12
 9336 019c 0830A0E1 		mov	r3, r8
 9337 01a0 04208DE5 		str	r2, [sp, #4]
 9338              	.LVL1150:
 9339 01a4 0710A0E1 		mov	r1, r7
 9340 01a8 00C095E5 		ldr	ip, [r5]
 9341 01ac 0620A0E1 		mov	r2, r6
 9342 01b0 0400A0E1 		mov	r0, r4
 9343 01b4 00C08DE5 		str	ip, [sp]
 9344              	.LEHB27:
 9345 01b8 FEFFFFEB 		bl	_ZN6tflite13reference_ops9ArgMinMaxIfllNS_3ops5micro4LessEEEvRKNS_12RuntimeShapeEPKT_PKT1_S7_PT
 9346              	.LVL1151:
 9347              	.LEHE27:
 9348 01bc DAFFFFEA 		b	.L1181
 9349              	.LVL1152:
 9350              	.L1090:
 9351              	.LBE1993:
 9352              	.LBE1992:
  70:../src/tensorflow_lite/src/tensorflow/lite/micro/kernels/arg_min_max.cpp ****           break;
 9353              		.loc 1 70 0
 9354 01c0 10408DE2 		add	r4, sp, #16
 9355              	.LVL1153:
 9356 01c4 0710A0E1 		mov	r1, r7
 9357 01c8 0400A0E1 		mov	r0, r4
 9358 01cc 28808DE2 		add	r8, sp, #40
 9359              	.LEHB28:
 9360 01d0 FEFFFFEB 		bl	_ZN6tflite5micro14GetTensorShapeEPK16TfLiteEvalTensor
 9361              	.LVL1154:
 9362              	.LEHE28:
 9363 01d4 0800A0E1 		mov	r0, r8
 9364 01d8 0510A0E1 		mov	r1, r5
 9365              	.LBB1994:
 9366              	.LBB1995:
 9367              		.loc 4 63 0
 9368 01dc 007097E5 		ldr	r7, [r7]
 9369              	.LBE1995:
 9370              	.LBE1994:
 9371              	.LBB1996:
 9372              	.LBB1997:
 9373 01e0 006096E5 		ldr	r6, [r6]
 9374              	.LEHB29:
 9375              	.LBE1997:
 9376              	.LBE1996:
  70:../src/tensorflow_lite/src/tensorflow/lite/micro/kernels/arg_min_max.cpp ****           break;
 9377              		.loc 1 70 0
 9378 01e4 FEFFFFEB 		bl	_ZN6tflite5micro14GetTensorShapeEPK16TfLiteEvalTensor
 9379              	.LVL1155:
 9380              	.LEHE29:
 9381              	.LBB1998:
 9382              	.LBB1999:
  43:../src/tensorflow_lite/src/tensorflow/lite/micro/kernels/arg_min_max.cpp ****                              output_shape, output_data, micro::Less());
 9383              		.loc 1 43 0
 9384 01e8 0C208DE2 		add	r2, sp, #12
 9385 01ec 0830A0E1 		mov	r3, r8
 9386 01f0 04208DE5 		str	r2, [sp, #4]
 9387              	.LVL1156:
 9388 01f4 0710A0E1 		mov	r1, r7
 9389 01f8 00C095E5 		ldr	ip, [r5]
 9390 01fc 0620A0E1 		mov	r2, r6
 9391 0200 0400A0E1 		mov	r0, r4
 9392 0204 00C08DE5 		str	ip, [sp]
 9393              	.LEHB30:
 9394 0208 FEFFFFEB 		bl	_ZN6tflite13reference_ops9ArgMinMaxIhllNS_3ops5micro4LessEEEvRKNS_12RuntimeShapeEPKT_PKT1_S7_PT
 9395              	.LVL1157:
 9396              	.LEHE30:
 9397 020c C6FFFFEA 		b	.L1181
 9398              	.LVL1158:
 9399              	.L1086:
 9400              	.LEHB31:
 9401              	.LBE1999:
 9402              	.LBE1998:
 9403              	.LBB2000:
 9404              	.LBB1962:
 9405              	.LBB1959:
  34:C:/Renesas/e2studio_2021_01_workspace_RZA2M_ANPR/ANPR_RZA2M_GR_MANGO/src/tensorflow_lite/src/tensorflow/lite/micro/kernels\kernel_util.h ****   TFLITE_DCHECK(node != nullptr);
 9406              		.loc 4 34 0
 9407 0210 FEFFFFEB 		bl	abort
 9408              	.LVL1159:
 9409              	.L1115:
 9410              	.L1184:
 9411              	.LBE1959:
 9412              	.LBE1962:
 9413              	.LBE2000:
 9414              	.LBB2001:
 9415              	.LBB2002:
 203:C:/Renesas/e2studio_2021_01_workspace_RZA2M_ANPR/ANPR_RZA2M_GR_MANGO/src/tensorflow_lite/src/tensorflow/lite/kernels/internal\types.h **** #ifdef TF_LITE_STATIC_MEMORY
 9416              		.loc 3 203 0
 9417 0214 28309DE5 		ldr	r3, [sp, #40]
 9418 0218 050053E3 		cmp	r3, #5
 9419 021c 030000DA 		ble	.L1110
 207:C:/Renesas/e2studio_2021_01_workspace_RZA2M_ANPR/ANPR_RZA2M_GR_MANGO/src/tensorflow_lite/src/tensorflow/lite/kernels/internal\types.h **** #endif  // TF_LITE_STATIC_MEMORY
 9420              		.loc 3 207 0
 9421 0220 2C009DE5 		ldr	r0, [sp, #44]
 9422 0224 000050E3 		cmp	r0, #0
 9423 0228 0000000A 		beq	.L1110
 9424 022c FEFFFFEB 		bl	_ZdaPv
 9425              	.LVL1160:
 9426              	.L1110:
 9427              	.LBE2002:
 9428              	.LBE2001:
 9429              	.LBB2003:
 9430              	.LBB2004:
 203:C:/Renesas/e2studio_2021_01_workspace_RZA2M_ANPR/ANPR_RZA2M_GR_MANGO/src/tensorflow_lite/src/tensorflow/lite/kernels/internal\types.h **** #ifdef TF_LITE_STATIC_MEMORY
 9431              		.loc 3 203 0
 9432 0230 10309DE5 		ldr	r3, [sp, #16]
 9433 0234 050053E3 		cmp	r3, #5
 9434 0238 030000DA 		ble	.L1111
 207:C:/Renesas/e2studio_2021_01_workspace_RZA2M_ANPR/ANPR_RZA2M_GR_MANGO/src/tensorflow_lite/src/tensorflow/lite/kernels/internal\types.h **** #endif  // TF_LITE_STATIC_MEMORY
 9435              		.loc 3 207 0
 9436 023c 14009DE5 		ldr	r0, [sp, #20]
 9437 0240 000050E3 		cmp	r0, #0
 9438 0244 0000000A 		beq	.L1111
 9439 0248 FEFFFFEB 		bl	_ZdaPv
 9440              	.LVL1161:
 9441              	.L1111:
 9442 024c FEFFFFEB 		bl	__cxa_end_cleanup
 9443              	.LVL1162:
 9444              	.LEHE31:
 9445              	.L1114:
 9446 0250 F6FFFFEA 		b	.L1110
 9447              	.LVL1163:
 9448              	.L1113:
 9449 0254 EEFFFFEA 		b	.L1184
 9450              	.LVL1164:
 9451              	.L1112:
 9452 0258 F4FFFFEA 		b	.L1110
 9453              	.LVL1165:
 9454              	.L1117:
 9455 025c ECFFFFEA 		b	.L1184
 9456              	.LVL1166:
 9457              	.L1116:
 9458 0260 F2FFFFEA 		b	.L1110
 9459              	.LBE2004:
 9460              	.LBE2003:
 9461              	.LBE2007:
 9462              	.LBE2010:
 9463              		.cfi_endproc
 9464              	.LFE1767:
 9465              		.personality	__gxx_personality_v0
 9466              		.handlerdata
 9467              	.LLSDA1767:
 9468 0008 FF       		.byte	0xff
 9469 0009 FF       		.byte	0xff
 9470 000a 01       		.byte	0x1
 9471 000b 38       		.uleb128 .LLSDACSE1767-.LLSDACSB1767
 9472              	.LLSDACSB1767:
 9473 000c 28       		.uleb128 .LEHB22-.LFB1767
 9474 000d CC01     		.uleb128 .LEHE22-.LEHB22
 9475 000f 00       		.uleb128 0
 9476 0010 00       		.uleb128 0
 9477 0011 8402     		.uleb128 .LEHB23-.LFB1767
 9478 0013 04       		.uleb128 .LEHE23-.LEHB23
 9479 0014 E004     		.uleb128 .L1116-.LFB1767
 9480 0016 00       		.uleb128 0
 9481 0017 A802     		.uleb128 .LEHB24-.LFB1767
 9482 0019 04       		.uleb128 .LEHE24-.LEHB24
 9483 001a DC04     		.uleb128 .L1117-.LFB1767
 9484 001c 00       		.uleb128 0
 9485 001d 8003     		.uleb128 .LEHB25-.LFB1767
 9486 001f 04       		.uleb128 .LEHE25-.LEHB25
 9487 0020 00       		.uleb128 0
 9488 0021 00       		.uleb128 0
 9489 0022 9403     		.uleb128 .LEHB26-.LFB1767
 9490 0024 04       		.uleb128 .LEHE26-.LEHB26
 9491 0025 D804     		.uleb128 .L1112-.LFB1767
 9492 0027 00       		.uleb128 0
 9493 0028 B803     		.uleb128 .LEHB27-.LFB1767
 9494 002a 04       		.uleb128 .LEHE27-.LEHB27
 9495 002b D404     		.uleb128 .L1113-.LFB1767
 9496 002d 00       		.uleb128 0
 9497 002e D003     		.uleb128 .LEHB28-.LFB1767
 9498 0030 04       		.uleb128 .LEHE28-.LEHB28
 9499 0031 00       		.uleb128 0
 9500 0032 00       		.uleb128 0
 9501 0033 E403     		.uleb128 .LEHB29-.LFB1767
 9502 0035 04       		.uleb128 .LEHE29-.LEHB29
 9503 0036 D004     		.uleb128 .L1114-.LFB1767
 9504 0038 00       		.uleb128 0
 9505 0039 8804     		.uleb128 .LEHB30-.LFB1767
 9506 003b 04       		.uleb128 .LEHE30-.LEHB30
 9507 003c 9404     		.uleb128 .L1115-.LFB1767
 9508 003e 00       		.uleb128 0
 9509 003f 9004     		.uleb128 .LEHB31-.LFB1767
 9510 0041 40       		.uleb128 .LEHE31-.LEHB31
 9511 0042 00       		.uleb128 0
 9512 0043 00       		.uleb128 0
 9513              	.LLSDACSE1767:
 9514              		.section	.text._ZN6tflite3ops5micro11arg_min_max10ArgMinEvalEP13TfLiteContextP10TfLiteNode
 9515              		.fnend
 9517              		.section	.rodata._ZN6tflite3ops5micro11arg_min_max10ArgMaxEvalEP13TfLiteContextP10TfLiteNode.str1.
 9518              		.align	2
 9519              	.LC0:
 9520 0000 4F6E6C79 		.ascii	"Only float32, uint8_t and int8_t are supported curr"
 9520      20666C6F 
 9520      61743332 
 9520      2C207569 
 9520      6E74385F 
 9521 0033 656E746C 		.ascii	"ently, got %s.\000"
 9521      792C2067 
 9521      6F742025 
 9521      732E00
 9522 0042 0000     		.space	2
 9523              	.LC1:
 9524 0044 4F6E6C79 		.ascii	"Only int32_t are supported currently, got %s.\000"
 9524      20696E74 
 9524      33325F74 
 9524      20617265 
 9524      20737570 
 9525              		.text
 9526              	.Letext0:
 9527              		.file 5 "c:\\program files (x86)\\gnu tools arm embedded\\6 2017-q2-update\\arm-none-eabi\\include
 9528              		.file 6 "c:\\program files (x86)\\gnu tools arm embedded\\6 2017-q2-update\\arm-none-eabi\\include
 9529              		.file 7 "c:\\program files (x86)\\gnu tools arm embedded\\6 2017-q2-update\\arm-none-eabi\\include
 9530              		.file 8 "c:\\program files (x86)\\gnu tools arm embedded\\6 2017-q2-update\\arm-none-eabi\\include
 9531              		.file 9 "c:\\program files (x86)\\gnu tools arm embedded\\6 2017-q2-update\\arm-none-eabi\\include
 9532              		.file 10 "c:\\program files (x86)\\gnu tools arm embedded\\6 2017-q2-update\\arm-none-eabi\\includ
 9533              		.file 11 "c:\\program files (x86)\\gnu tools arm embedded\\6 2017-q2-update\\arm-none-eabi\\includ
 9534              		.file 12 "c:\\program files (x86)\\gnu tools arm embedded\\6 2017-q2-update\\arm-none-eabi\\includ
 9535              		.file 13 "c:\\program files (x86)\\gnu tools arm embedded\\6 2017-q2-update\\arm-none-eabi\\includ
 9536              		.file 14 "c:\\program files (x86)\\gnu tools arm embedded\\6 2017-q2-update\\arm-none-eabi\\includ
 9537              		.file 15 "c:\\program files (x86)\\gnu tools arm embedded\\6 2017-q2-update\\arm-none-eabi\\includ
 9538              		.file 16 "c:\\program files (x86)\\gnu tools arm embedded\\6 2017-q2-update\\arm-none-eabi\\includ
 9539              		.file 17 "c:\\program files (x86)\\gnu tools arm embedded\\6 2017-q2-update\\arm-none-eabi\\includ
 9540              		.file 18 "c:\\program files (x86)\\gnu tools arm embedded\\6 2017-q2-update\\arm-none-eabi\\includ
 9541              		.file 19 "c:\\program files (x86)\\gnu tools arm embedded\\6 2017-q2-update\\arm-none-eabi\\includ
 9542              		.file 20 "c:\\program files (x86)\\gnu tools arm embedded\\6 2017-q2-update\\arm-none-eabi\\includ
 9543              		.file 21 "c:\\program files (x86)\\gnu tools arm embedded\\6 2017-q2-update\\arm-none-eabi\\includ
 9544              		.file 22 "c:\\program files (x86)\\gnu tools arm embedded\\6 2017-q2-update\\arm-none-eabi\\includ
 9545              		.file 23 "c:\\program files (x86)\\gnu tools arm embedded\\6 2017-q2-update\\arm-none-eabi\\includ
 9546              		.file 24 "c:\\program files (x86)\\gnu tools arm embedded\\6 2017-q2-update\\arm-none-eabi\\includ
 9547              		.file 25 "c:\\program files (x86)\\gnu tools arm embedded\\6 2017-q2-update\\arm-none-eabi\\includ
 9548              		.file 26 "c:\\program files (x86)\\gnu tools arm embedded\\6 2017-q2-update\\lib\\gcc\\arm-none-ea
 9549              		.file 27 "c:\\program files (x86)\\gnu tools arm embedded\\6 2017-q2-update\\arm-none-eabi\\includ
 9550              		.file 28 "c:\\program files (x86)\\gnu tools arm embedded\\6 2017-q2-update\\arm-none-eabi\\includ
 9551              		.file 29 "c:\\program files (x86)\\gnu tools arm embedded\\6 2017-q2-update\\arm-none-eabi\\includ
 9552              		.file 30 "c:\\program files (x86)\\gnu tools arm embedded\\6 2017-q2-update\\arm-none-eabi\\includ
 9553              		.file 31 "c:\\program files (x86)\\gnu tools arm embedded\\6 2017-q2-update\\lib\\gcc\\arm-none-ea
 9554              		.file 32 "<built-in>"
 9555              		.file 33 "c:\\program files (x86)\\gnu tools arm embedded\\6 2017-q2-update\\arm-none-eabi\\includ
 9556              		.file 34 "c:\\program files (x86)\\gnu tools arm embedded\\6 2017-q2-update\\arm-none-eabi\\includ
 9557              		.file 35 "c:\\program files (x86)\\gnu tools arm embedded\\6 2017-q2-update\\arm-none-eabi\\includ
 9558              		.file 36 "c:\\program files (x86)\\gnu tools arm embedded\\6 2017-q2-update\\arm-none-eabi\\includ
 9559              		.file 37 "c:\\program files (x86)\\gnu tools arm embedded\\6 2017-q2-update\\arm-none-eabi\\includ
 9560              		.file 38 "c:\\program files (x86)\\gnu tools arm embedded\\6 2017-q2-update\\arm-none-eabi\\includ
 9561              		.file 39 "c:\\program files (x86)\\gnu tools arm embedded\\6 2017-q2-update\\arm-none-eabi\\includ
 9562              		.file 40 "c:\\program files (x86)\\gnu tools arm embedded\\6 2017-q2-update\\arm-none-eabi\\includ
 9563              		.file 41 "c:\\program files (x86)\\gnu tools arm embedded\\6 2017-q2-update\\arm-none-eabi\\includ
 9564              		.file 42 "C:/Renesas/e2studio_2021_01_workspace_RZA2M_ANPR/ANPR_RZA2M_GR_MANGO/src/tensorflow_lite
 9565              		.file 43 "C:/Renesas/e2studio_2021_01_workspace_RZA2M_ANPR/ANPR_RZA2M_GR_MANGO/src/tensorflow_lite
 9566              		.file 44 "C:/Renesas/e2studio_2021_01_workspace_RZA2M_ANPR/ANPR_RZA2M_GR_MANGO/src/tensorflow_lite
DEFINED SYMBOLS
                            *ABS*:00000000 arg_min_max.cpp
C:\Users\a5050395\AppData\Local\Temp\ccResLzk.s:17     .text._ZN6tflite3ops5micro16Register_ARG_MAXEv:00000000 $a
C:\Users\a5050395\AppData\Local\Temp\ccResLzk.s:23     .text._ZN6tflite3ops5micro16Register_ARG_MAXEv:00000000 _ZN6tflite3ops5micro16Register_ARG_MAXEv
C:\Users\a5050395\AppData\Local\Temp\ccResLzk.s:6687   .text._ZN6tflite3ops5micro11arg_min_max10ArgMaxEvalEP13TfLiteContextP10TfLiteNode:00000000 _ZN6tflite3ops5micro11arg_min_max10ArgMaxEvalEP13TfLiteContextP10TfLiteNode
.ARM.exidx.text._ZN6tflite3ops5micro16Register_ARG_MAXEv:00000000 $d
C:\Users\a5050395\AppData\Local\Temp\ccResLzk.s:58     .text._ZN6tflite3ops5micro16Register_ARG_MINEv:00000000 $a
C:\Users\a5050395\AppData\Local\Temp\ccResLzk.s:64     .text._ZN6tflite3ops5micro16Register_ARG_MINEv:00000000 _ZN6tflite3ops5micro16Register_ARG_MINEv
C:\Users\a5050395\AppData\Local\Temp\ccResLzk.s:9044   .text._ZN6tflite3ops5micro11arg_min_max10ArgMinEvalEP13TfLiteContextP10TfLiteNode:00000000 _ZN6tflite3ops5micro11arg_min_max10ArgMinEvalEP13TfLiteContextP10TfLiteNode
.ARM.exidx.text._ZN6tflite3ops5micro16Register_ARG_MINEv:00000000 $d
C:\Users\a5050395\AppData\Local\Temp\ccResLzk.s:98     .text._ZN6tflite13reference_ops9ArgMinMaxIfllNS_3ops5micro7GreaterEEEvRKNS_12RuntimeShapeEPKT_PKT1_S7_PT0_RKT2_:00000000 $a
C:\Users\a5050395\AppData\Local\Temp\ccResLzk.s:104    .text._ZN6tflite13reference_ops9ArgMinMaxIfllNS_3ops5micro7GreaterEEEvRKNS_12RuntimeShapeEPKT_PKT1_S7_PT0_RKT2_:00000000 _ZN6tflite13reference_ops9ArgMinMaxIfllNS_3ops5micro7GreaterEEEvRKNS_12RuntimeShapeEPKT_PKT1_S7_PT0_RKT2_
.ARM.exidx.text._ZN6tflite13reference_ops9ArgMinMaxIfllNS_3ops5micro7GreaterEEEvRKNS_12RuntimeShapeEPKT_PKT1_S7_PT0_RKT2_:00000000 $d
C:\Users\a5050395\AppData\Local\Temp\ccResLzk.s:1422   .text._ZN6tflite13reference_ops9ArgMinMaxIfllNS_3ops5micro4LessEEEvRKNS_12RuntimeShapeEPKT_PKT1_S7_PT0_RKT2_:00000000 $a
C:\Users\a5050395\AppData\Local\Temp\ccResLzk.s:1428   .text._ZN6tflite13reference_ops9ArgMinMaxIfllNS_3ops5micro4LessEEEvRKNS_12RuntimeShapeEPKT_PKT1_S7_PT0_RKT2_:00000000 _ZN6tflite13reference_ops9ArgMinMaxIfllNS_3ops5micro4LessEEEvRKNS_12RuntimeShapeEPKT_PKT1_S7_PT0_RKT2_
.ARM.exidx.text._ZN6tflite13reference_ops9ArgMinMaxIfllNS_3ops5micro4LessEEEvRKNS_12RuntimeShapeEPKT_PKT1_S7_PT0_RKT2_:00000000 $d
C:\Users\a5050395\AppData\Local\Temp\ccResLzk.s:2744   .text._ZN6tflite13reference_ops9ArgMinMaxIhllNS_3ops5micro7GreaterEEEvRKNS_12RuntimeShapeEPKT_PKT1_S7_PT0_RKT2_:00000000 $a
C:\Users\a5050395\AppData\Local\Temp\ccResLzk.s:2750   .text._ZN6tflite13reference_ops9ArgMinMaxIhllNS_3ops5micro7GreaterEEEvRKNS_12RuntimeShapeEPKT_PKT1_S7_PT0_RKT2_:00000000 _ZN6tflite13reference_ops9ArgMinMaxIhllNS_3ops5micro7GreaterEEEvRKNS_12RuntimeShapeEPKT_PKT1_S7_PT0_RKT2_
.ARM.exidx.text._ZN6tflite13reference_ops9ArgMinMaxIhllNS_3ops5micro7GreaterEEEvRKNS_12RuntimeShapeEPKT_PKT1_S7_PT0_RKT2_:00000000 $d
C:\Users\a5050395\AppData\Local\Temp\ccResLzk.s:4061   .text._ZN6tflite13reference_ops9ArgMinMaxIhllNS_3ops5micro4LessEEEvRKNS_12RuntimeShapeEPKT_PKT1_S7_PT0_RKT2_:00000000 $a
C:\Users\a5050395\AppData\Local\Temp\ccResLzk.s:4067   .text._ZN6tflite13reference_ops9ArgMinMaxIhllNS_3ops5micro4LessEEEvRKNS_12RuntimeShapeEPKT_PKT1_S7_PT0_RKT2_:00000000 _ZN6tflite13reference_ops9ArgMinMaxIhllNS_3ops5micro4LessEEEvRKNS_12RuntimeShapeEPKT_PKT1_S7_PT0_RKT2_
.ARM.exidx.text._ZN6tflite13reference_ops9ArgMinMaxIhllNS_3ops5micro4LessEEEvRKNS_12RuntimeShapeEPKT_PKT1_S7_PT0_RKT2_:00000000 $d
C:\Users\a5050395\AppData\Local\Temp\ccResLzk.s:5378   .text._ZN6tflite13reference_ops9ArgMinMaxIallNS_3ops5micro7GreaterEEEvRKNS_12RuntimeShapeEPKT_PKT1_S7_PT0_RKT2_:00000000 $a
C:\Users\a5050395\AppData\Local\Temp\ccResLzk.s:5384   .text._ZN6tflite13reference_ops9ArgMinMaxIallNS_3ops5micro7GreaterEEEvRKNS_12RuntimeShapeEPKT_PKT1_S7_PT0_RKT2_:00000000 _ZN6tflite13reference_ops9ArgMinMaxIallNS_3ops5micro7GreaterEEEvRKNS_12RuntimeShapeEPKT_PKT1_S7_PT0_RKT2_
.ARM.exidx.text._ZN6tflite13reference_ops9ArgMinMaxIallNS_3ops5micro7GreaterEEEvRKNS_12RuntimeShapeEPKT_PKT1_S7_PT0_RKT2_:00000000 $d
C:\Users\a5050395\AppData\Local\Temp\ccResLzk.s:6681   .text._ZN6tflite3ops5micro11arg_min_max10ArgMaxEvalEP13TfLiteContextP10TfLiteNode:00000000 $a
C:\Users\a5050395\AppData\Local\Temp\ccResLzk.s:9523   .rodata._ZN6tflite3ops5micro11arg_min_max10ArgMaxEvalEP13TfLiteContextP10TfLiteNode.str1.4:00000044 .LC1
C:\Users\a5050395\AppData\Local\Temp\ccResLzk.s:9519   .rodata._ZN6tflite3ops5micro11arg_min_max10ArgMaxEvalEP13TfLiteContextP10TfLiteNode.str1.4:00000000 .LC0
.ARM.extab.text._ZN6tflite3ops5micro11arg_min_max10ArgMaxEvalEP13TfLiteContextP10TfLiteNode:00000000 $d
.ARM.exidx.text._ZN6tflite3ops5micro11arg_min_max10ArgMaxEvalEP13TfLiteContextP10TfLiteNode:00000000 $d
C:\Users\a5050395\AppData\Local\Temp\ccResLzk.s:7163   .text._ZN6tflite13reference_ops9ArgMinMaxIallNS_3ops5micro4LessEEEvRKNS_12RuntimeShapeEPKT_PKT1_S7_PT0_RKT2_:00000000 $a
C:\Users\a5050395\AppData\Local\Temp\ccResLzk.s:7169   .text._ZN6tflite13reference_ops9ArgMinMaxIallNS_3ops5micro4LessEEEvRKNS_12RuntimeShapeEPKT_PKT1_S7_PT0_RKT2_:00000000 _ZN6tflite13reference_ops9ArgMinMaxIallNS_3ops5micro4LessEEEvRKNS_12RuntimeShapeEPKT_PKT1_S7_PT0_RKT2_
.ARM.exidx.text._ZN6tflite13reference_ops9ArgMinMaxIallNS_3ops5micro4LessEEEvRKNS_12RuntimeShapeEPKT_PKT1_S7_PT0_RKT2_:00000000 $d
C:\Users\a5050395\AppData\Local\Temp\ccResLzk.s:8466   .text._ZN6tflite3ops5micro11arg_min_max4EvalEP13TfLiteContextP10TfLiteNodeb:00000000 $a
C:\Users\a5050395\AppData\Local\Temp\ccResLzk.s:8472   .text._ZN6tflite3ops5micro11arg_min_max4EvalEP13TfLiteContextP10TfLiteNodeb:00000000 _ZN6tflite3ops5micro11arg_min_max4EvalEP13TfLiteContextP10TfLiteNodeb
.ARM.extab.text._ZN6tflite3ops5micro11arg_min_max4EvalEP13TfLiteContextP10TfLiteNodeb:00000000 $d
.ARM.exidx.text._ZN6tflite3ops5micro11arg_min_max4EvalEP13TfLiteContextP10TfLiteNodeb:00000000 $d
C:\Users\a5050395\AppData\Local\Temp\ccResLzk.s:9038   .text._ZN6tflite3ops5micro11arg_min_max10ArgMinEvalEP13TfLiteContextP10TfLiteNode:00000000 $a
.ARM.extab.text._ZN6tflite3ops5micro11arg_min_max10ArgMinEvalEP13TfLiteContextP10TfLiteNode:00000000 $d
.ARM.exidx.text._ZN6tflite3ops5micro11arg_min_max10ArgMinEvalEP13TfLiteContextP10TfLiteNode:00000000 $d
C:\Users\a5050395\AppData\Local\Temp\ccResLzk.s:9518   .rodata._ZN6tflite3ops5micro11arg_min_max10ArgMaxEvalEP13TfLiteContextP10TfLiteNode.str1.4:00000000 $d
                     .debug_frame:00000010 $d
                           .group:00000000 wm4.0.3e1481985cce1e923928453d8be0a65b
                           .group:00000000 wm4.cconfig.h.31.1472b8c7bd4952a63a52f3f4f718f872
                           .group:00000000 wm4.cpu_defines.h.31.54d44f9d3e7c42875c5a7fd49795eb93
                           .group:00000000 wm4.cconfig.h.515.5e729db314ae74226e291b4ae081e353
                           .group:00000000 wm4.atomic_lockfree_defines.h.31.d5c6334fb1e95c9462b052951f1411df
                           .group:00000000 wm4.exception_defines.h.31.ca6841b9be3287386aafc5c717935b2e
                           .group:00000000 wm4.concept_check.h.31.f19605d278e56917c68a56d378be308c
                           .group:00000000 wm4.type_traits.30.2c7323a483bcd7601e8b71d2546ae284
                           .group:00000000 wm4.move.h.152.41d7b9e6779674d169b7813982cfa003
                           .group:00000000 wm4.cpp_type_traits.h.33.9f2bfd8c4471a9a299f6da3ec24c745c
                           .group:00000000 wm4.numeric_traits.h.30.aa01a98564b7e55086aad9e53c7e5c53
                           .group:00000000 wm4.assertions.h.30.51d443923f0d242550e04246a7819b39
                           .group:00000000 wm4.stl_iterator.h.1250.45f349a262f1b0d836d8edbc4b7b98ff
                           .group:00000000 wm4.debug.h.30.5c1f223b12199e851d4d42805b788ccf
                           .group:00000000 wm4.stl_algobase.h.491.aa250b69c90aafa2a0a62b8c58cd5f30
                           .group:00000000 wm4._newlib_version.h.4.3572908597b70d672d181fc7fc501c19
                           .group:00000000 wm4.newlib.h.21.59901f4bf241ab46c63694665baa7297
                           .group:00000000 wm4.features.h.22.37852b648068a281464730a5a4cc748e
                           .group:00000000 wm4.config.h.219.65a553ab5bef5482f0d7880b0d33015e
                           .group:00000000 wm4._ansi.h.23.1ee1144430bedaab1a14c7b57a6c8384
                           .group:00000000 wm4.stddef.h.39.fa2e86d241f4df50b9327c72832885e1
                           .group:00000000 wm4._default_types.h.6.959254cf5f09734ea7516c89e8bb21bd
                           .group:00000000 wm4.lock.h.2.1461d1fff82dffe8bfddc23307f6484f
                           .group:00000000 wm4._types.h.125.5cf8a495f1f7ef36777ad868a1e32068
                           .group:00000000 wm4.stddef.h.161.7e98c9c86da0ed2d27af2ef92af7d013
                           .group:00000000 wm4._types.h.183.c226d164ceca1f2ecb9ae9360c54a098
                           .group:00000000 wm4.reent.h.17.23b059516345f8f5abfa01ddc379570f
                           .group:00000000 wm4.wchar.h.8.acdef4366e64def8c588421024712d23
                           .group:00000000 wm4.stddef.h.161.9f48187563b2a85291a91832aa425498
                           .group:00000000 wm4.cdefs.h.47.9bc8274c84fddbf05edd550eb0bf48cd
                           .group:00000000 wm4.stdarg.h.34.3a23a216c0c293b3d2ea2e89281481e6
                           .group:00000000 wm4.wchar.h.41.bce54f0deafe8a72ebb0005417e8a086
                           .group:00000000 wm4.cwchar.48.c4e882638bf84f6da89479dda6fe8e17
                           .group:00000000 wm4.stdint.h.4.659be5aa44c4ab4eb7c7cc2b24d8ceee
                           .group:00000000 wm4._intsup.h.10.cce27fed8484c08a33f522034c30d2b5
                           .group:00000000 wm4._stdint.h.10.c24fa3af3bc1706662bb5593a907e841
                           .group:00000000 wm4.stdint.h.23.4c107c5a20920bfc6e94fb2672bbd9ee
                           .group:00000000 wm4.allocator.h.52.0ceafb36dc1b82dbfa6b05003082e3f5
                           .group:00000000 wm4.stddef.h.161.38688f2eb958a8ed58fdb61ffe554c94
                           .group:00000000 wm4.locale.h.16.524572cf3c2ed9856516685acdc598fe
                           .group:00000000 wm4.clocale.45.c36d2d5b631a875aa5273176b54fdf0f
                           .group:00000000 wm4.ctype.h.2.da310d2ad165ccf8b86542f76fdb938d
                           .group:00000000 wm4.cctype.45.0da5714876b0be7f2d816b53d9670403
                           .group:00000000 wm4.gthr.h.27.ceb1c66b926f052afcba57e8784df0d4
                           .group:00000000 wm4.gthrdefault.h.27.edc94d4398c0534988962be77dc3c2e1
                           .group:00000000 wm4.atomic_word.h.30.9e0ac69fd462d5e650933e05133b4afa
                           .group:00000000 wm4.alloc_traits.h.31.c41c7c4789404962122a4e991dfa3abf
                           .group:00000000 wm4.cstdlib.44.52c5efdfb0f3c176bd11e611a0b94959
                           .group:00000000 wm4.stdlib.h.13.4ed386f5c1a80d71e72172885d946ef2
                           .group:00000000 wm4.stdlib.h.56.b4ddaf162082f284ba35b4444af99a9a
                           .group:00000000 wm4.cstdlib.76.ae666499c8f9b0ace1b4b23fe143da2c
                           .group:00000000 wm4.stdio.h.27.3fc80220048df77954e38daec3bb9670
                           .group:00000000 wm4.types.h.40.e8c16e7ec36ba55f133d0616070e25fc
                           .group:00000000 wm4.types.h.114.fb65732f4f5f288a036a25898de2c91f
                           .group:00000000 wm4.stdio.h.2.4aa87247282eca6c8f36f9de33d8df1a
                           .group:00000000 wm4.stdio.h.81.c3e9cb15e5af2807c4650345134c1a8a
                           .group:00000000 wm4.cstdio.45.ba8d321feb18bfc8923454067605c368
                           .group:00000000 wm4.errno.h.2.ba016d646105af6cad23be83630b6a3f
                           .group:00000000 wm4.errno.h.9.1ecd7b1049497a0ab61da0f6cbd4b0c6
                           .group:00000000 wm4.functional_hash.h.31.bccc014fee6fc3f930045d809df6f486
                           .group:00000000 wm4.functional.549.0bc5b448cf999863d3841495cd6fe920
                           .group:00000000 wm4.limits.38.55aefcf041805b6211ca3649dd2ab1b5
                           .group:00000000 wm4.string.h.8.c4b8571ce60dff2817f43fec8b86aecd
                           .group:00000000 wm4.cstring.45.6ab09de7fb97b576e744347688ddc8d7
                           .group:00000000 wm4.op_macros.h.42.7b718cb416a067e7bb07e7699647769b
                           .group:00000000 wm4.compatibility.h.23.702d6356326ea59aded8ef5c6c4626d5
                           .group:00000000 wm4.stdbool.h.29.01580e438512fc255c0619569742ffd3
                           .group:00000000 wm4.c_api_types.h.20.9b09175981ed746180e205cc0b4b2bfd
                           .group:00000000 wm4.common.h.77.124de099ec0ac4f95ebf1618a5f42cf6

UNDEFINED SYMBOLS
memset
abort
__aeabi_unwind_cpp_pr0
__gxx_personality_v0
TfLiteTypeGetName
_ZN6tflite5micro14GetTensorShapeEPK16TfLiteEvalTensor
_ZdaPv
__cxa_end_cleanup
