   1              		.cpu cortex-a9
   2              		.eabi_attribute 28, 1
   3              		.eabi_attribute 20, 1
   4              		.eabi_attribute 21, 1
   5              		.eabi_attribute 23, 3
   6              		.eabi_attribute 24, 1
   7              		.eabi_attribute 25, 1
   8              		.eabi_attribute 26, 1
   9              		.eabi_attribute 30, 2
  10              		.eabi_attribute 34, 0
  11              		.eabi_attribute 18, 4
  12              		.file	"arg_min_max.cpp"
  13              		.text
  14              	.Ltext0:
  15              		.cfi_sections	.debug_frame
  16              		.section	.text._ZN6tflite3ops5micro16Register_ARG_MAXEv,"ax",%progbits
  17              		.align	2
  18              		.global	_ZN6tflite3ops5micro16Register_ARG_MAXEv
  19              		.syntax unified
  20              		.arm
  21              		.fpu neon
  23              	_ZN6tflite3ops5micro16Register_ARG_MAXEv:
  24              		.fnstart
  25              	.LFB1769:
  26              		.file 1 "../src/tensorflow_lite/src/tensorflow/lite/micro/kernels/arg_min_max.cpp"
   1:../src/tensorflow_lite/src/tensorflow/lite/micro/kernels/arg_min_max.cpp **** /* Copyright 2018 The TensorFlow Authors. All Rights Reserved.
   2:../src/tensorflow_lite/src/tensorflow/lite/micro/kernels/arg_min_max.cpp **** 
   3:../src/tensorflow_lite/src/tensorflow/lite/micro/kernels/arg_min_max.cpp **** Licensed under the Apache License, Version 2.0 (the "License");
   4:../src/tensorflow_lite/src/tensorflow/lite/micro/kernels/arg_min_max.cpp **** you may not use this file except in compliance with the License.
   5:../src/tensorflow_lite/src/tensorflow/lite/micro/kernels/arg_min_max.cpp **** You may obtain a copy of the License at
   6:../src/tensorflow_lite/src/tensorflow/lite/micro/kernels/arg_min_max.cpp **** 
   7:../src/tensorflow_lite/src/tensorflow/lite/micro/kernels/arg_min_max.cpp ****     http://www.apache.org/licenses/LICENSE-2.0
   8:../src/tensorflow_lite/src/tensorflow/lite/micro/kernels/arg_min_max.cpp **** 
   9:../src/tensorflow_lite/src/tensorflow/lite/micro/kernels/arg_min_max.cpp **** Unless required by applicable law or agreed to in writing, software
  10:../src/tensorflow_lite/src/tensorflow/lite/micro/kernels/arg_min_max.cpp **** distributed under the License is distributed on an "AS IS" BASIS,
  11:../src/tensorflow_lite/src/tensorflow/lite/micro/kernels/arg_min_max.cpp **** WITHOUT WARRANTIES OR CONDITIONS OF ANY KIND, either express or implied.
  12:../src/tensorflow_lite/src/tensorflow/lite/micro/kernels/arg_min_max.cpp **** See the License for the specific language governing permissions and
  13:../src/tensorflow_lite/src/tensorflow/lite/micro/kernels/arg_min_max.cpp **** limitations under the License.
  14:../src/tensorflow_lite/src/tensorflow/lite/micro/kernels/arg_min_max.cpp **** ==============================================================================*/
  15:../src/tensorflow_lite/src/tensorflow/lite/micro/kernels/arg_min_max.cpp **** 
  16:../src/tensorflow_lite/src/tensorflow/lite/micro/kernels/arg_min_max.cpp **** #include "tensorflow/lite/kernels/internal/reference/arg_min_max.h"
  17:../src/tensorflow_lite/src/tensorflow/lite/micro/kernels/arg_min_max.cpp **** 
  18:../src/tensorflow_lite/src/tensorflow/lite/micro/kernels/arg_min_max.cpp **** #include "tensorflow/lite/c/builtin_op_data.h"
  19:../src/tensorflow_lite/src/tensorflow/lite/micro/kernels/arg_min_max.cpp **** #include "tensorflow/lite/c/common.h"
  20:../src/tensorflow_lite/src/tensorflow/lite/micro/kernels/arg_min_max.cpp **** #include "tensorflow/lite/kernels/internal/tensor_ctypes.h"
  21:../src/tensorflow_lite/src/tensorflow/lite/micro/kernels/arg_min_max.cpp **** #include "tensorflow/lite/kernels/kernel_util.h"
  22:../src/tensorflow_lite/src/tensorflow/lite/micro/kernels/arg_min_max.cpp **** #include "tensorflow/lite/micro/kernels/kernel_util.h"
  23:../src/tensorflow_lite/src/tensorflow/lite/micro/kernels/arg_min_max.cpp **** #include "tensorflow/lite/micro/kernels/micro_utils.h"
  24:../src/tensorflow_lite/src/tensorflow/lite/micro/kernels/arg_min_max.cpp **** 
  25:../src/tensorflow_lite/src/tensorflow/lite/micro/kernels/arg_min_max.cpp **** namespace tflite {
  26:../src/tensorflow_lite/src/tensorflow/lite/micro/kernels/arg_min_max.cpp **** namespace ops {
  27:../src/tensorflow_lite/src/tensorflow/lite/micro/kernels/arg_min_max.cpp **** namespace micro {
  28:../src/tensorflow_lite/src/tensorflow/lite/micro/kernels/arg_min_max.cpp **** namespace arg_min_max {
  29:../src/tensorflow_lite/src/tensorflow/lite/micro/kernels/arg_min_max.cpp **** 
  30:../src/tensorflow_lite/src/tensorflow/lite/micro/kernels/arg_min_max.cpp **** constexpr int kInputTensor = 0;
  31:../src/tensorflow_lite/src/tensorflow/lite/micro/kernels/arg_min_max.cpp **** constexpr int kAxis = 1;
  32:../src/tensorflow_lite/src/tensorflow/lite/micro/kernels/arg_min_max.cpp **** constexpr int kOutputTensor = 0;
  33:../src/tensorflow_lite/src/tensorflow/lite/micro/kernels/arg_min_max.cpp **** 
  34:../src/tensorflow_lite/src/tensorflow/lite/micro/kernels/arg_min_max.cpp **** template <typename T1, typename T2, typename T3>
  35:../src/tensorflow_lite/src/tensorflow/lite/micro/kernels/arg_min_max.cpp **** inline void ArgMinMaxHelper(const RuntimeShape& input1_shape,
  36:../src/tensorflow_lite/src/tensorflow/lite/micro/kernels/arg_min_max.cpp ****                             const T1* input1_data, const T3* input2_data,
  37:../src/tensorflow_lite/src/tensorflow/lite/micro/kernels/arg_min_max.cpp ****                             const RuntimeShape& output_shape, T2* output_data,
  38:../src/tensorflow_lite/src/tensorflow/lite/micro/kernels/arg_min_max.cpp ****                             bool is_arg_max) {
  39:../src/tensorflow_lite/src/tensorflow/lite/micro/kernels/arg_min_max.cpp ****   if (is_arg_max) {
  40:../src/tensorflow_lite/src/tensorflow/lite/micro/kernels/arg_min_max.cpp ****     reference_ops::ArgMinMax(input1_shape, input1_data, input2_data,
  41:../src/tensorflow_lite/src/tensorflow/lite/micro/kernels/arg_min_max.cpp ****                              output_shape, output_data, micro::Greater());
  42:../src/tensorflow_lite/src/tensorflow/lite/micro/kernels/arg_min_max.cpp ****   } else {
  43:../src/tensorflow_lite/src/tensorflow/lite/micro/kernels/arg_min_max.cpp ****     reference_ops::ArgMinMax(input1_shape, input1_data, input2_data,
  44:../src/tensorflow_lite/src/tensorflow/lite/micro/kernels/arg_min_max.cpp ****                              output_shape, output_data, micro::Less());
  45:../src/tensorflow_lite/src/tensorflow/lite/micro/kernels/arg_min_max.cpp ****   }
  46:../src/tensorflow_lite/src/tensorflow/lite/micro/kernels/arg_min_max.cpp **** }
  47:../src/tensorflow_lite/src/tensorflow/lite/micro/kernels/arg_min_max.cpp **** 
  48:../src/tensorflow_lite/src/tensorflow/lite/micro/kernels/arg_min_max.cpp **** TfLiteStatus Eval(TfLiteContext* context, TfLiteNode* node, bool is_arg_max) {
  49:../src/tensorflow_lite/src/tensorflow/lite/micro/kernels/arg_min_max.cpp ****   const TfLiteEvalTensor* input =
  50:../src/tensorflow_lite/src/tensorflow/lite/micro/kernels/arg_min_max.cpp ****       tflite::micro::GetEvalInput(context, node, kInputTensor);
  51:../src/tensorflow_lite/src/tensorflow/lite/micro/kernels/arg_min_max.cpp ****   const TfLiteEvalTensor* axis =
  52:../src/tensorflow_lite/src/tensorflow/lite/micro/kernels/arg_min_max.cpp ****       tflite::micro::GetEvalInput(context, node, kAxis);
  53:../src/tensorflow_lite/src/tensorflow/lite/micro/kernels/arg_min_max.cpp ****   TfLiteEvalTensor* output =
  54:../src/tensorflow_lite/src/tensorflow/lite/micro/kernels/arg_min_max.cpp ****       tflite::micro::GetEvalOutput(context, node, kOutputTensor);
  55:../src/tensorflow_lite/src/tensorflow/lite/micro/kernels/arg_min_max.cpp **** 
  56:../src/tensorflow_lite/src/tensorflow/lite/micro/kernels/arg_min_max.cpp **** #define TF_LITE_ARG_MIN_MAX(data_type, axis_type, output_type)       \
  57:../src/tensorflow_lite/src/tensorflow/lite/micro/kernels/arg_min_max.cpp ****   ArgMinMaxHelper(tflite::micro::GetTensorShape(input),              \
  58:../src/tensorflow_lite/src/tensorflow/lite/micro/kernels/arg_min_max.cpp ****                   tflite::micro::GetTensorData<data_type>(input),    \
  59:../src/tensorflow_lite/src/tensorflow/lite/micro/kernels/arg_min_max.cpp ****                   tflite::micro::GetTensorData<axis_type>(axis),     \
  60:../src/tensorflow_lite/src/tensorflow/lite/micro/kernels/arg_min_max.cpp ****                   tflite::micro::GetTensorShape(output),             \
  61:../src/tensorflow_lite/src/tensorflow/lite/micro/kernels/arg_min_max.cpp ****                   tflite::micro::GetTensorData<output_type>(output), \
  62:../src/tensorflow_lite/src/tensorflow/lite/micro/kernels/arg_min_max.cpp ****                   is_arg_max)
  63:../src/tensorflow_lite/src/tensorflow/lite/micro/kernels/arg_min_max.cpp ****   if (axis->type == kTfLiteInt32) {
  64:../src/tensorflow_lite/src/tensorflow/lite/micro/kernels/arg_min_max.cpp ****     if (output->type == kTfLiteInt32) {
  65:../src/tensorflow_lite/src/tensorflow/lite/micro/kernels/arg_min_max.cpp ****       switch (input->type) {
  66:../src/tensorflow_lite/src/tensorflow/lite/micro/kernels/arg_min_max.cpp ****         case kTfLiteFloat32:
  67:../src/tensorflow_lite/src/tensorflow/lite/micro/kernels/arg_min_max.cpp ****           TF_LITE_ARG_MIN_MAX(float, int32_t, int32_t);
  68:../src/tensorflow_lite/src/tensorflow/lite/micro/kernels/arg_min_max.cpp ****           break;
  69:../src/tensorflow_lite/src/tensorflow/lite/micro/kernels/arg_min_max.cpp ****         case kTfLiteUInt8:
  70:../src/tensorflow_lite/src/tensorflow/lite/micro/kernels/arg_min_max.cpp ****           TF_LITE_ARG_MIN_MAX(uint8_t, int32_t, int32_t);
  71:../src/tensorflow_lite/src/tensorflow/lite/micro/kernels/arg_min_max.cpp ****           break;
  72:../src/tensorflow_lite/src/tensorflow/lite/micro/kernels/arg_min_max.cpp ****         case kTfLiteInt8:
  73:../src/tensorflow_lite/src/tensorflow/lite/micro/kernels/arg_min_max.cpp ****           TF_LITE_ARG_MIN_MAX(int8_t, int32_t, int32_t);
  74:../src/tensorflow_lite/src/tensorflow/lite/micro/kernels/arg_min_max.cpp ****           break;
  75:../src/tensorflow_lite/src/tensorflow/lite/micro/kernels/arg_min_max.cpp ****         default:
  76:../src/tensorflow_lite/src/tensorflow/lite/micro/kernels/arg_min_max.cpp ****           TF_LITE_KERNEL_LOG(context,
  77:../src/tensorflow_lite/src/tensorflow/lite/micro/kernels/arg_min_max.cpp ****                              "Only float32, uint8_t and int8_t are "
  78:../src/tensorflow_lite/src/tensorflow/lite/micro/kernels/arg_min_max.cpp ****                              "supported currently, got %s.",
  79:../src/tensorflow_lite/src/tensorflow/lite/micro/kernels/arg_min_max.cpp ****                              TfLiteTypeGetName(input->type));
  80:../src/tensorflow_lite/src/tensorflow/lite/micro/kernels/arg_min_max.cpp ****           return kTfLiteError;
  81:../src/tensorflow_lite/src/tensorflow/lite/micro/kernels/arg_min_max.cpp ****       }
  82:../src/tensorflow_lite/src/tensorflow/lite/micro/kernels/arg_min_max.cpp ****     } else {
  83:../src/tensorflow_lite/src/tensorflow/lite/micro/kernels/arg_min_max.cpp ****       TF_LITE_KERNEL_LOG(context,
  84:../src/tensorflow_lite/src/tensorflow/lite/micro/kernels/arg_min_max.cpp ****                          "Only int32_t are supported currently, got %s.",
  85:../src/tensorflow_lite/src/tensorflow/lite/micro/kernels/arg_min_max.cpp ****                          TfLiteTypeGetName(output->type));
  86:../src/tensorflow_lite/src/tensorflow/lite/micro/kernels/arg_min_max.cpp ****       return kTfLiteError;
  87:../src/tensorflow_lite/src/tensorflow/lite/micro/kernels/arg_min_max.cpp ****     }
  88:../src/tensorflow_lite/src/tensorflow/lite/micro/kernels/arg_min_max.cpp ****   } else {
  89:../src/tensorflow_lite/src/tensorflow/lite/micro/kernels/arg_min_max.cpp ****     TF_LITE_KERNEL_LOG(context, "Only int32_t are supported currently, got %s.",
  90:../src/tensorflow_lite/src/tensorflow/lite/micro/kernels/arg_min_max.cpp ****                        TfLiteTypeGetName(axis->type));
  91:../src/tensorflow_lite/src/tensorflow/lite/micro/kernels/arg_min_max.cpp ****     return kTfLiteError;
  92:../src/tensorflow_lite/src/tensorflow/lite/micro/kernels/arg_min_max.cpp ****   }
  93:../src/tensorflow_lite/src/tensorflow/lite/micro/kernels/arg_min_max.cpp **** 
  94:../src/tensorflow_lite/src/tensorflow/lite/micro/kernels/arg_min_max.cpp **** #undef TF_LITE_ARG_MIN_MAX
  95:../src/tensorflow_lite/src/tensorflow/lite/micro/kernels/arg_min_max.cpp **** 
  96:../src/tensorflow_lite/src/tensorflow/lite/micro/kernels/arg_min_max.cpp ****   return kTfLiteOk;
  97:../src/tensorflow_lite/src/tensorflow/lite/micro/kernels/arg_min_max.cpp **** }
  98:../src/tensorflow_lite/src/tensorflow/lite/micro/kernels/arg_min_max.cpp **** 
  99:../src/tensorflow_lite/src/tensorflow/lite/micro/kernels/arg_min_max.cpp **** TfLiteStatus ArgMinEval(TfLiteContext* context, TfLiteNode* node) {
 100:../src/tensorflow_lite/src/tensorflow/lite/micro/kernels/arg_min_max.cpp ****   return Eval(context, node, false);
 101:../src/tensorflow_lite/src/tensorflow/lite/micro/kernels/arg_min_max.cpp **** }
 102:../src/tensorflow_lite/src/tensorflow/lite/micro/kernels/arg_min_max.cpp **** 
 103:../src/tensorflow_lite/src/tensorflow/lite/micro/kernels/arg_min_max.cpp **** TfLiteStatus ArgMaxEval(TfLiteContext* context, TfLiteNode* node) {
 104:../src/tensorflow_lite/src/tensorflow/lite/micro/kernels/arg_min_max.cpp ****   return Eval(context, node, true);
 105:../src/tensorflow_lite/src/tensorflow/lite/micro/kernels/arg_min_max.cpp **** }
 106:../src/tensorflow_lite/src/tensorflow/lite/micro/kernels/arg_min_max.cpp **** 
 107:../src/tensorflow_lite/src/tensorflow/lite/micro/kernels/arg_min_max.cpp **** }  // namespace arg_min_max
 108:../src/tensorflow_lite/src/tensorflow/lite/micro/kernels/arg_min_max.cpp **** 
 109:../src/tensorflow_lite/src/tensorflow/lite/micro/kernels/arg_min_max.cpp **** TfLiteRegistration Register_ARG_MAX() {
  27              		.loc 1 109 0
  28              		.cfi_startproc
  29              		@ args = 0, pretend = 0, frame = 0
  30              		@ frame_needed = 0, uses_anonymous_args = 0
  31              	.LVL0:
  32 0000 10402DE9 		push	{r4, lr}
  33              		.cfi_def_cfa_offset 8
  34              		.cfi_offset 4, -8
  35              		.cfi_offset 14, -4
 110:../src/tensorflow_lite/src/tensorflow/lite/micro/kernels/arg_min_max.cpp ****   return {/*init=*/nullptr,
 111:../src/tensorflow_lite/src/tensorflow/lite/micro/kernels/arg_min_max.cpp ****           /*free=*/nullptr,
 112:../src/tensorflow_lite/src/tensorflow/lite/micro/kernels/arg_min_max.cpp ****           /*prepare=*/nullptr,
 113:../src/tensorflow_lite/src/tensorflow/lite/micro/kernels/arg_min_max.cpp ****           /*invoke=*/arg_min_max::ArgMaxEval,
 114:../src/tensorflow_lite/src/tensorflow/lite/micro/kernels/arg_min_max.cpp ****           /*profiling_string=*/nullptr,
 115:../src/tensorflow_lite/src/tensorflow/lite/micro/kernels/arg_min_max.cpp ****           /*builtin_code=*/0,
 116:../src/tensorflow_lite/src/tensorflow/lite/micro/kernels/arg_min_max.cpp ****           /*custom_name=*/nullptr,
 117:../src/tensorflow_lite/src/tensorflow/lite/micro/kernels/arg_min_max.cpp ****           /*version=*/0};
  36              		.loc 1 117 0
  37 0004 2020A0E3 		mov	r2, #32
  38 0008 0010A0E3 		mov	r1, #0
 109:../src/tensorflow_lite/src/tensorflow/lite/micro/kernels/arg_min_max.cpp ****   return {/*init=*/nullptr,
  39              		.loc 1 109 0
  40 000c 0040A0E1 		mov	r4, r0
  41              		.loc 1 117 0
  42 0010 FEFFFFEB 		bl	memset
  43              	.LVL1:
  44 0014 003000E3 		movw	r3, #:lower16:_ZN6tflite3ops5micro11arg_min_max10ArgMaxEvalEP13TfLiteContextP10TfLiteNode
 118:../src/tensorflow_lite/src/tensorflow/lite/micro/kernels/arg_min_max.cpp **** }
  45              		.loc 1 118 0
  46 0018 0400A0E1 		mov	r0, r4
 117:../src/tensorflow_lite/src/tensorflow/lite/micro/kernels/arg_min_max.cpp **** }
  47              		.loc 1 117 0
  48 001c 003040E3 		movt	r3, #:upper16:_ZN6tflite3ops5micro11arg_min_max10ArgMaxEvalEP13TfLiteContextP10TfLiteNode
  49 0020 0C3084E5 		str	r3, [r4, #12]
  50              		.loc 1 118 0
  51 0024 1080BDE8 		pop	{r4, pc}
  52              		.cfi_endproc
  53              	.LFE1769:
  54              		.cantunwind
  55              		.fnend
  57              		.section	.text._ZN6tflite3ops5micro16Register_ARG_MINEv,"ax",%progbits
  58              		.align	2
  59              		.global	_ZN6tflite3ops5micro16Register_ARG_MINEv
  60              		.syntax unified
  61              		.arm
  62              		.fpu neon
  64              	_ZN6tflite3ops5micro16Register_ARG_MINEv:
  65              		.fnstart
  66              	.LFB1770:
 119:../src/tensorflow_lite/src/tensorflow/lite/micro/kernels/arg_min_max.cpp **** 
 120:../src/tensorflow_lite/src/tensorflow/lite/micro/kernels/arg_min_max.cpp **** TfLiteRegistration Register_ARG_MIN() {
  67              		.loc 1 120 0
  68              		.cfi_startproc
  69              		@ args = 0, pretend = 0, frame = 0
  70              		@ frame_needed = 0, uses_anonymous_args = 0
  71              	.LVL2:
  72 0000 10402DE9 		push	{r4, lr}
  73              		.cfi_def_cfa_offset 8
  74              		.cfi_offset 4, -8
  75              		.cfi_offset 14, -4
 121:../src/tensorflow_lite/src/tensorflow/lite/micro/kernels/arg_min_max.cpp ****   return {/*init=*/nullptr,
 122:../src/tensorflow_lite/src/tensorflow/lite/micro/kernels/arg_min_max.cpp ****           /*free=*/nullptr,
 123:../src/tensorflow_lite/src/tensorflow/lite/micro/kernels/arg_min_max.cpp ****           /*prepare=*/nullptr,
 124:../src/tensorflow_lite/src/tensorflow/lite/micro/kernels/arg_min_max.cpp ****           /*invoke=*/arg_min_max::ArgMinEval,
 125:../src/tensorflow_lite/src/tensorflow/lite/micro/kernels/arg_min_max.cpp ****           /*profiling_string=*/nullptr,
 126:../src/tensorflow_lite/src/tensorflow/lite/micro/kernels/arg_min_max.cpp ****           /*builtin_code=*/0,
 127:../src/tensorflow_lite/src/tensorflow/lite/micro/kernels/arg_min_max.cpp ****           /*custom_name=*/nullptr,
 128:../src/tensorflow_lite/src/tensorflow/lite/micro/kernels/arg_min_max.cpp ****           /*version=*/0};
  76              		.loc 1 128 0
  77 0004 2020A0E3 		mov	r2, #32
  78 0008 0010A0E3 		mov	r1, #0
 120:../src/tensorflow_lite/src/tensorflow/lite/micro/kernels/arg_min_max.cpp ****   return {/*init=*/nullptr,
  79              		.loc 1 120 0
  80 000c 0040A0E1 		mov	r4, r0
  81              		.loc 1 128 0
  82 0010 FEFFFFEB 		bl	memset
  83              	.LVL3:
  84 0014 003000E3 		movw	r3, #:lower16:_ZN6tflite3ops5micro11arg_min_max10ArgMinEvalEP13TfLiteContextP10TfLiteNode
 129:../src/tensorflow_lite/src/tensorflow/lite/micro/kernels/arg_min_max.cpp **** }
  85              		.loc 1 129 0
  86 0018 0400A0E1 		mov	r0, r4
 128:../src/tensorflow_lite/src/tensorflow/lite/micro/kernels/arg_min_max.cpp **** }
  87              		.loc 1 128 0
  88 001c 003040E3 		movt	r3, #:upper16:_ZN6tflite3ops5micro11arg_min_max10ArgMinEvalEP13TfLiteContextP10TfLiteNode
  89 0020 0C3084E5 		str	r3, [r4, #12]
  90              		.loc 1 129 0
  91 0024 1080BDE8 		pop	{r4, pc}
  92              		.cfi_endproc
  93              	.LFE1770:
  94              		.cantunwind
  95              		.fnend
  97              		.section	.text._ZN6tflite13reference_ops9ArgMinMaxIfllNS_3ops5micro7GreaterEEEvRKNS_12RuntimeShape
  98              		.align	2
  99              		.weak	_ZN6tflite13reference_ops9ArgMinMaxIfllNS_3ops5micro7GreaterEEEvRKNS_12RuntimeShapeEPKT_PKT1
 100              		.syntax unified
 101              		.arm
 102              		.fpu neon
 104              	_ZN6tflite13reference_ops9ArgMinMaxIfllNS_3ops5micro7GreaterEEEvRKNS_12RuntimeShapeEPKT_PKT1_S7_PT0
 105              		.fnstart
 106              	.LFB1976:
 107              		.file 2 "C:/Renesas/e2studio_2021_01_workspace_RZA2M_ANPR/ANPR_RZA2M_GR_MANGO/src/tensorflow_lite/
   1:C:/Renesas/e2studio_2021_01_workspace_RZA2M_ANPR/ANPR_RZA2M_GR_MANGO/src/tensorflow_lite/src/tensorflow/lite/kernels/internal/reference\arg_min_max.h **** /* Copyright 2019 The TensorFlow Authors. All Rights Reserved.
   2:C:/Renesas/e2studio_2021_01_workspace_RZA2M_ANPR/ANPR_RZA2M_GR_MANGO/src/tensorflow_lite/src/tensorflow/lite/kernels/internal/reference\arg_min_max.h **** 
   3:C:/Renesas/e2studio_2021_01_workspace_RZA2M_ANPR/ANPR_RZA2M_GR_MANGO/src/tensorflow_lite/src/tensorflow/lite/kernels/internal/reference\arg_min_max.h **** Licensed under the Apache License, Version 2.0 (the "License");
   4:C:/Renesas/e2studio_2021_01_workspace_RZA2M_ANPR/ANPR_RZA2M_GR_MANGO/src/tensorflow_lite/src/tensorflow/lite/kernels/internal/reference\arg_min_max.h **** you may not use this file except in compliance with the License.
   5:C:/Renesas/e2studio_2021_01_workspace_RZA2M_ANPR/ANPR_RZA2M_GR_MANGO/src/tensorflow_lite/src/tensorflow/lite/kernels/internal/reference\arg_min_max.h **** You may obtain a copy of the License at
   6:C:/Renesas/e2studio_2021_01_workspace_RZA2M_ANPR/ANPR_RZA2M_GR_MANGO/src/tensorflow_lite/src/tensorflow/lite/kernels/internal/reference\arg_min_max.h **** 
   7:C:/Renesas/e2studio_2021_01_workspace_RZA2M_ANPR/ANPR_RZA2M_GR_MANGO/src/tensorflow_lite/src/tensorflow/lite/kernels/internal/reference\arg_min_max.h ****     http://www.apache.org/licenses/LICENSE-2.0
   8:C:/Renesas/e2studio_2021_01_workspace_RZA2M_ANPR/ANPR_RZA2M_GR_MANGO/src/tensorflow_lite/src/tensorflow/lite/kernels/internal/reference\arg_min_max.h **** 
   9:C:/Renesas/e2studio_2021_01_workspace_RZA2M_ANPR/ANPR_RZA2M_GR_MANGO/src/tensorflow_lite/src/tensorflow/lite/kernels/internal/reference\arg_min_max.h **** Unless required by applicable law or agreed to in writing, software
  10:C:/Renesas/e2studio_2021_01_workspace_RZA2M_ANPR/ANPR_RZA2M_GR_MANGO/src/tensorflow_lite/src/tensorflow/lite/kernels/internal/reference\arg_min_max.h **** distributed under the License is distributed on an "AS IS" BASIS,
  11:C:/Renesas/e2studio_2021_01_workspace_RZA2M_ANPR/ANPR_RZA2M_GR_MANGO/src/tensorflow_lite/src/tensorflow/lite/kernels/internal/reference\arg_min_max.h **** WITHOUT WARRANTIES OR CONDITIONS OF ANY KIND, either express or implied.
  12:C:/Renesas/e2studio_2021_01_workspace_RZA2M_ANPR/ANPR_RZA2M_GR_MANGO/src/tensorflow_lite/src/tensorflow/lite/kernels/internal/reference\arg_min_max.h **** See the License for the specific language governing permissions and
  13:C:/Renesas/e2studio_2021_01_workspace_RZA2M_ANPR/ANPR_RZA2M_GR_MANGO/src/tensorflow_lite/src/tensorflow/lite/kernels/internal/reference\arg_min_max.h **** limitations under the License.
  14:C:/Renesas/e2studio_2021_01_workspace_RZA2M_ANPR/ANPR_RZA2M_GR_MANGO/src/tensorflow_lite/src/tensorflow/lite/kernels/internal/reference\arg_min_max.h **** ==============================================================================*/
  15:C:/Renesas/e2studio_2021_01_workspace_RZA2M_ANPR/ANPR_RZA2M_GR_MANGO/src/tensorflow_lite/src/tensorflow/lite/kernels/internal/reference\arg_min_max.h **** #ifndef TENSORFLOW_LITE_KERNELS_INTERNAL_REFERENCE_ARG_MIN_MAX_H_
  16:C:/Renesas/e2studio_2021_01_workspace_RZA2M_ANPR/ANPR_RZA2M_GR_MANGO/src/tensorflow_lite/src/tensorflow/lite/kernels/internal/reference\arg_min_max.h **** #define TENSORFLOW_LITE_KERNELS_INTERNAL_REFERENCE_ARG_MIN_MAX_H_
  17:C:/Renesas/e2studio_2021_01_workspace_RZA2M_ANPR/ANPR_RZA2M_GR_MANGO/src/tensorflow_lite/src/tensorflow/lite/kernels/internal/reference\arg_min_max.h **** 
  18:C:/Renesas/e2studio_2021_01_workspace_RZA2M_ANPR/ANPR_RZA2M_GR_MANGO/src/tensorflow_lite/src/tensorflow/lite/kernels/internal/reference\arg_min_max.h **** #include <functional>
  19:C:/Renesas/e2studio_2021_01_workspace_RZA2M_ANPR/ANPR_RZA2M_GR_MANGO/src/tensorflow_lite/src/tensorflow/lite/kernels/internal/reference\arg_min_max.h **** 
  20:C:/Renesas/e2studio_2021_01_workspace_RZA2M_ANPR/ANPR_RZA2M_GR_MANGO/src/tensorflow_lite/src/tensorflow/lite/kernels/internal/reference\arg_min_max.h **** #include "tensorflow/lite/kernels/internal/types.h"
  21:C:/Renesas/e2studio_2021_01_workspace_RZA2M_ANPR/ANPR_RZA2M_GR_MANGO/src/tensorflow_lite/src/tensorflow/lite/kernels/internal/reference\arg_min_max.h **** 
  22:C:/Renesas/e2studio_2021_01_workspace_RZA2M_ANPR/ANPR_RZA2M_GR_MANGO/src/tensorflow_lite/src/tensorflow/lite/kernels/internal/reference\arg_min_max.h **** namespace tflite {
  23:C:/Renesas/e2studio_2021_01_workspace_RZA2M_ANPR/ANPR_RZA2M_GR_MANGO/src/tensorflow_lite/src/tensorflow/lite/kernels/internal/reference\arg_min_max.h **** 
  24:C:/Renesas/e2studio_2021_01_workspace_RZA2M_ANPR/ANPR_RZA2M_GR_MANGO/src/tensorflow_lite/src/tensorflow/lite/kernels/internal/reference\arg_min_max.h **** namespace reference_ops {
  25:C:/Renesas/e2studio_2021_01_workspace_RZA2M_ANPR/ANPR_RZA2M_GR_MANGO/src/tensorflow_lite/src/tensorflow/lite/kernels/internal/reference\arg_min_max.h **** 
  26:C:/Renesas/e2studio_2021_01_workspace_RZA2M_ANPR/ANPR_RZA2M_GR_MANGO/src/tensorflow_lite/src/tensorflow/lite/kernels/internal/reference\arg_min_max.h **** template <typename T>
  27:C:/Renesas/e2studio_2021_01_workspace_RZA2M_ANPR/ANPR_RZA2M_GR_MANGO/src/tensorflow_lite/src/tensorflow/lite/kernels/internal/reference\arg_min_max.h **** std::function<bool(T, T)> GetComparefunction(bool is_arg_max) {
  28:C:/Renesas/e2studio_2021_01_workspace_RZA2M_ANPR/ANPR_RZA2M_GR_MANGO/src/tensorflow_lite/src/tensorflow/lite/kernels/internal/reference\arg_min_max.h ****   if (is_arg_max) {
  29:C:/Renesas/e2studio_2021_01_workspace_RZA2M_ANPR/ANPR_RZA2M_GR_MANGO/src/tensorflow_lite/src/tensorflow/lite/kernels/internal/reference\arg_min_max.h ****     return std::greater<T>();
  30:C:/Renesas/e2studio_2021_01_workspace_RZA2M_ANPR/ANPR_RZA2M_GR_MANGO/src/tensorflow_lite/src/tensorflow/lite/kernels/internal/reference\arg_min_max.h ****   } else {
  31:C:/Renesas/e2studio_2021_01_workspace_RZA2M_ANPR/ANPR_RZA2M_GR_MANGO/src/tensorflow_lite/src/tensorflow/lite/kernels/internal/reference\arg_min_max.h ****     return std::less<T>();
  32:C:/Renesas/e2studio_2021_01_workspace_RZA2M_ANPR/ANPR_RZA2M_GR_MANGO/src/tensorflow_lite/src/tensorflow/lite/kernels/internal/reference\arg_min_max.h ****   }
  33:C:/Renesas/e2studio_2021_01_workspace_RZA2M_ANPR/ANPR_RZA2M_GR_MANGO/src/tensorflow_lite/src/tensorflow/lite/kernels/internal/reference\arg_min_max.h **** }
  34:C:/Renesas/e2studio_2021_01_workspace_RZA2M_ANPR/ANPR_RZA2M_GR_MANGO/src/tensorflow_lite/src/tensorflow/lite/kernels/internal/reference\arg_min_max.h **** 
  35:C:/Renesas/e2studio_2021_01_workspace_RZA2M_ANPR/ANPR_RZA2M_GR_MANGO/src/tensorflow_lite/src/tensorflow/lite/kernels/internal/reference\arg_min_max.h **** template <typename T1, typename T2, typename T3, typename Cmp>
  36:C:/Renesas/e2studio_2021_01_workspace_RZA2M_ANPR/ANPR_RZA2M_GR_MANGO/src/tensorflow_lite/src/tensorflow/lite/kernels/internal/reference\arg_min_max.h **** void ArgMinMax(const RuntimeShape& input1_shape, const T1* input1_data,
 108              		.loc 2 36 0
 109              		.cfi_startproc
 110              		@ args = 8, pretend = 0, frame = 0
 111              		@ frame_needed = 0, uses_anonymous_args = 0
 112              	.LVL4:
 113 0000 F84F2DE9 		push	{r3, r4, r5, r6, r7, r8, r9, r10, fp, lr}
 114              		.save {r3, r4, r5, r6, r7, r8, r9, r10, fp, lr}
 115              		.cfi_def_cfa_offset 40
 116              		.cfi_offset 3, -40
 117              		.cfi_offset 4, -36
 118              		.cfi_offset 5, -32
 119              		.cfi_offset 6, -28
 120              		.cfi_offset 7, -24
 121              		.cfi_offset 8, -20
 122              		.cfi_offset 9, -16
 123              		.cfi_offset 10, -12
 124              		.cfi_offset 11, -8
 125              		.cfi_offset 14, -4
 126 0004 004090E5 		ldr	r4, [r0]
 127              	.LVL5:
  37:C:/Renesas/e2studio_2021_01_workspace_RZA2M_ANPR/ANPR_RZA2M_GR_MANGO/src/tensorflow_lite/src/tensorflow/lite/kernels/internal/reference\arg_min_max.h ****                const T3* input2_data, const RuntimeShape& output_shape,
  38:C:/Renesas/e2studio_2021_01_workspace_RZA2M_ANPR/ANPR_RZA2M_GR_MANGO/src/tensorflow_lite/src/tensorflow/lite/kernels/internal/reference\arg_min_max.h ****                T2* output_data, const Cmp& cmp) {
  39:C:/Renesas/e2studio_2021_01_workspace_RZA2M_ANPR/ANPR_RZA2M_GR_MANGO/src/tensorflow_lite/src/tensorflow/lite/kernels/internal/reference\arg_min_max.h ****   TFLITE_DCHECK_GT(input1_shape.DimensionsCount(), 0);
 128              		.loc 2 39 0
 129 0008 000054E3 		cmp	r4, #0
 130 000c 3A0000DA 		ble	.L7
 131 0010 0060A0E1 		mov	r6, r0
 132              	.LVL6:
  40:C:/Renesas/e2studio_2021_01_workspace_RZA2M_ANPR/ANPR_RZA2M_GR_MANGO/src/tensorflow_lite/src/tensorflow/lite/kernels/internal/reference\arg_min_max.h ****   TFLITE_DCHECK_EQ(input1_shape.DimensionsCount() - 1,
 133              		.loc 2 40 0
 134 0014 000093E5 		ldr	r0, [r3]
 135              	.LVL7:
 136 0018 015044E2 		sub	r5, r4, #1
 137              	.LVL8:
 138 001c 000055E1 		cmp	r5, r0
 139 0020 3500001A 		bne	.L7
  41:C:/Renesas/e2studio_2021_01_workspace_RZA2M_ANPR/ANPR_RZA2M_GR_MANGO/src/tensorflow_lite/src/tensorflow/lite/kernels/internal/reference\arg_min_max.h ****                    output_shape.DimensionsCount());
  42:C:/Renesas/e2studio_2021_01_workspace_RZA2M_ANPR/ANPR_RZA2M_GR_MANGO/src/tensorflow_lite/src/tensorflow/lite/kernels/internal/reference\arg_min_max.h ****   int axis = input2_data[0];
 140              		.loc 2 42 0
 141 0024 002092E5 		ldr	r2, [r2]
 142              	.LVL9:
  43:C:/Renesas/e2studio_2021_01_workspace_RZA2M_ANPR/ANPR_RZA2M_GR_MANGO/src/tensorflow_lite/src/tensorflow/lite/kernels/internal/reference\arg_min_max.h ****   if (axis < 0) {
 143              		.loc 2 43 0
 144 0028 000052E3 		cmp	r2, #0
 145 002c 190100BA 		blt	.L145
 146              	.LVL10:
 147              	.L8:
 148              	.LBB195:
 149              	.LBB196:
 150              		.file 3 "C:/Renesas/e2studio_2021_01_workspace_RZA2M_ANPR/ANPR_RZA2M_GR_MANGO/src/tensorflow_lite/
   1:C:/Renesas/e2studio_2021_01_workspace_RZA2M_ANPR/ANPR_RZA2M_GR_MANGO/src/tensorflow_lite/src/tensorflow/lite/kernels/internal\types.h **** /* Copyright 2018 The TensorFlow Authors. All Rights Reserved.
   2:C:/Renesas/e2studio_2021_01_workspace_RZA2M_ANPR/ANPR_RZA2M_GR_MANGO/src/tensorflow_lite/src/tensorflow/lite/kernels/internal\types.h **** 
   3:C:/Renesas/e2studio_2021_01_workspace_RZA2M_ANPR/ANPR_RZA2M_GR_MANGO/src/tensorflow_lite/src/tensorflow/lite/kernels/internal\types.h **** Licensed under the Apache License, Version 2.0 (the "License");
   4:C:/Renesas/e2studio_2021_01_workspace_RZA2M_ANPR/ANPR_RZA2M_GR_MANGO/src/tensorflow_lite/src/tensorflow/lite/kernels/internal\types.h **** you may not use this file except in compliance with the License.
   5:C:/Renesas/e2studio_2021_01_workspace_RZA2M_ANPR/ANPR_RZA2M_GR_MANGO/src/tensorflow_lite/src/tensorflow/lite/kernels/internal\types.h **** You may obtain a copy of the License at
   6:C:/Renesas/e2studio_2021_01_workspace_RZA2M_ANPR/ANPR_RZA2M_GR_MANGO/src/tensorflow_lite/src/tensorflow/lite/kernels/internal\types.h **** 
   7:C:/Renesas/e2studio_2021_01_workspace_RZA2M_ANPR/ANPR_RZA2M_GR_MANGO/src/tensorflow_lite/src/tensorflow/lite/kernels/internal\types.h ****     http://www.apache.org/licenses/LICENSE-2.0
   8:C:/Renesas/e2studio_2021_01_workspace_RZA2M_ANPR/ANPR_RZA2M_GR_MANGO/src/tensorflow_lite/src/tensorflow/lite/kernels/internal\types.h **** 
   9:C:/Renesas/e2studio_2021_01_workspace_RZA2M_ANPR/ANPR_RZA2M_GR_MANGO/src/tensorflow_lite/src/tensorflow/lite/kernels/internal\types.h **** Unless required by applicable law or agreed to in writing, software
  10:C:/Renesas/e2studio_2021_01_workspace_RZA2M_ANPR/ANPR_RZA2M_GR_MANGO/src/tensorflow_lite/src/tensorflow/lite/kernels/internal\types.h **** distributed under the License is distributed on an "AS IS" BASIS,
  11:C:/Renesas/e2studio_2021_01_workspace_RZA2M_ANPR/ANPR_RZA2M_GR_MANGO/src/tensorflow_lite/src/tensorflow/lite/kernels/internal\types.h **** WITHOUT WARRANTIES OR CONDITIONS OF ANY KIND, either express or implied.
  12:C:/Renesas/e2studio_2021_01_workspace_RZA2M_ANPR/ANPR_RZA2M_GR_MANGO/src/tensorflow_lite/src/tensorflow/lite/kernels/internal\types.h **** See the License for the specific language governing permissions and
  13:C:/Renesas/e2studio_2021_01_workspace_RZA2M_ANPR/ANPR_RZA2M_GR_MANGO/src/tensorflow_lite/src/tensorflow/lite/kernels/internal\types.h **** limitations under the License.
  14:C:/Renesas/e2studio_2021_01_workspace_RZA2M_ANPR/ANPR_RZA2M_GR_MANGO/src/tensorflow_lite/src/tensorflow/lite/kernels/internal\types.h **** ==============================================================================*/
  15:C:/Renesas/e2studio_2021_01_workspace_RZA2M_ANPR/ANPR_RZA2M_GR_MANGO/src/tensorflow_lite/src/tensorflow/lite/kernels/internal\types.h **** #ifndef TENSORFLOW_LITE_KERNELS_INTERNAL_TYPES_H_
  16:C:/Renesas/e2studio_2021_01_workspace_RZA2M_ANPR/ANPR_RZA2M_GR_MANGO/src/tensorflow_lite/src/tensorflow/lite/kernels/internal\types.h **** #define TENSORFLOW_LITE_KERNELS_INTERNAL_TYPES_H_
  17:C:/Renesas/e2studio_2021_01_workspace_RZA2M_ANPR/ANPR_RZA2M_GR_MANGO/src/tensorflow_lite/src/tensorflow/lite/kernels/internal\types.h **** 
  18:C:/Renesas/e2studio_2021_01_workspace_RZA2M_ANPR/ANPR_RZA2M_GR_MANGO/src/tensorflow_lite/src/tensorflow/lite/kernels/internal\types.h **** #include <algorithm>
  19:C:/Renesas/e2studio_2021_01_workspace_RZA2M_ANPR/ANPR_RZA2M_GR_MANGO/src/tensorflow_lite/src/tensorflow/lite/kernels/internal\types.h **** #include <cstdint>
  20:C:/Renesas/e2studio_2021_01_workspace_RZA2M_ANPR/ANPR_RZA2M_GR_MANGO/src/tensorflow_lite/src/tensorflow/lite/kernels/internal\types.h **** #include <cstring>
  21:C:/Renesas/e2studio_2021_01_workspace_RZA2M_ANPR/ANPR_RZA2M_GR_MANGO/src/tensorflow_lite/src/tensorflow/lite/kernels/internal\types.h **** #include <initializer_list>
  22:C:/Renesas/e2studio_2021_01_workspace_RZA2M_ANPR/ANPR_RZA2M_GR_MANGO/src/tensorflow_lite/src/tensorflow/lite/kernels/internal\types.h **** 
  23:C:/Renesas/e2studio_2021_01_workspace_RZA2M_ANPR/ANPR_RZA2M_GR_MANGO/src/tensorflow_lite/src/tensorflow/lite/kernels/internal\types.h **** #include "tensorflow/lite/kernels/internal/compatibility.h"
  24:C:/Renesas/e2studio_2021_01_workspace_RZA2M_ANPR/ANPR_RZA2M_GR_MANGO/src/tensorflow_lite/src/tensorflow/lite/kernels/internal\types.h **** 
  25:C:/Renesas/e2studio_2021_01_workspace_RZA2M_ANPR/ANPR_RZA2M_GR_MANGO/src/tensorflow_lite/src/tensorflow/lite/kernels/internal\types.h **** namespace tflite {
  26:C:/Renesas/e2studio_2021_01_workspace_RZA2M_ANPR/ANPR_RZA2M_GR_MANGO/src/tensorflow_lite/src/tensorflow/lite/kernels/internal\types.h **** 
  27:C:/Renesas/e2studio_2021_01_workspace_RZA2M_ANPR/ANPR_RZA2M_GR_MANGO/src/tensorflow_lite/src/tensorflow/lite/kernels/internal\types.h **** enum class FusedActivationFunctionType : uint8_t {
  28:C:/Renesas/e2studio_2021_01_workspace_RZA2M_ANPR/ANPR_RZA2M_GR_MANGO/src/tensorflow_lite/src/tensorflow/lite/kernels/internal\types.h ****   kNone,
  29:C:/Renesas/e2studio_2021_01_workspace_RZA2M_ANPR/ANPR_RZA2M_GR_MANGO/src/tensorflow_lite/src/tensorflow/lite/kernels/internal\types.h ****   kRelu6,
  30:C:/Renesas/e2studio_2021_01_workspace_RZA2M_ANPR/ANPR_RZA2M_GR_MANGO/src/tensorflow_lite/src/tensorflow/lite/kernels/internal\types.h ****   kRelu1,
  31:C:/Renesas/e2studio_2021_01_workspace_RZA2M_ANPR/ANPR_RZA2M_GR_MANGO/src/tensorflow_lite/src/tensorflow/lite/kernels/internal\types.h ****   kRelu
  32:C:/Renesas/e2studio_2021_01_workspace_RZA2M_ANPR/ANPR_RZA2M_GR_MANGO/src/tensorflow_lite/src/tensorflow/lite/kernels/internal\types.h **** };
  33:C:/Renesas/e2studio_2021_01_workspace_RZA2M_ANPR/ANPR_RZA2M_GR_MANGO/src/tensorflow_lite/src/tensorflow/lite/kernels/internal\types.h **** enum class PaddingType : uint8_t { kNone, kSame, kValid };
  34:C:/Renesas/e2studio_2021_01_workspace_RZA2M_ANPR/ANPR_RZA2M_GR_MANGO/src/tensorflow_lite/src/tensorflow/lite/kernels/internal\types.h **** 
  35:C:/Renesas/e2studio_2021_01_workspace_RZA2M_ANPR/ANPR_RZA2M_GR_MANGO/src/tensorflow_lite/src/tensorflow/lite/kernels/internal\types.h **** struct PaddingValues {
  36:C:/Renesas/e2studio_2021_01_workspace_RZA2M_ANPR/ANPR_RZA2M_GR_MANGO/src/tensorflow_lite/src/tensorflow/lite/kernels/internal\types.h ****   int16_t width;
  37:C:/Renesas/e2studio_2021_01_workspace_RZA2M_ANPR/ANPR_RZA2M_GR_MANGO/src/tensorflow_lite/src/tensorflow/lite/kernels/internal\types.h ****   int16_t height;
  38:C:/Renesas/e2studio_2021_01_workspace_RZA2M_ANPR/ANPR_RZA2M_GR_MANGO/src/tensorflow_lite/src/tensorflow/lite/kernels/internal\types.h ****   // offset is used for calculating "remaining" padding, for example, `width`
  39:C:/Renesas/e2studio_2021_01_workspace_RZA2M_ANPR/ANPR_RZA2M_GR_MANGO/src/tensorflow_lite/src/tensorflow/lite/kernels/internal\types.h ****   // is 1 and `width_offset` is 1, so padding_left is 1 while padding_right is
  40:C:/Renesas/e2studio_2021_01_workspace_RZA2M_ANPR/ANPR_RZA2M_GR_MANGO/src/tensorflow_lite/src/tensorflow/lite/kernels/internal\types.h ****   // 1 + 1 = 2.
  41:C:/Renesas/e2studio_2021_01_workspace_RZA2M_ANPR/ANPR_RZA2M_GR_MANGO/src/tensorflow_lite/src/tensorflow/lite/kernels/internal\types.h ****   int16_t width_offset;
  42:C:/Renesas/e2studio_2021_01_workspace_RZA2M_ANPR/ANPR_RZA2M_GR_MANGO/src/tensorflow_lite/src/tensorflow/lite/kernels/internal\types.h ****   // Same as width_offset except it's over the height dimension.
  43:C:/Renesas/e2studio_2021_01_workspace_RZA2M_ANPR/ANPR_RZA2M_GR_MANGO/src/tensorflow_lite/src/tensorflow/lite/kernels/internal\types.h ****   int16_t height_offset;
  44:C:/Renesas/e2studio_2021_01_workspace_RZA2M_ANPR/ANPR_RZA2M_GR_MANGO/src/tensorflow_lite/src/tensorflow/lite/kernels/internal\types.h **** };
  45:C:/Renesas/e2studio_2021_01_workspace_RZA2M_ANPR/ANPR_RZA2M_GR_MANGO/src/tensorflow_lite/src/tensorflow/lite/kernels/internal\types.h **** 
  46:C:/Renesas/e2studio_2021_01_workspace_RZA2M_ANPR/ANPR_RZA2M_GR_MANGO/src/tensorflow_lite/src/tensorflow/lite/kernels/internal\types.h **** struct Padding3DValues {
  47:C:/Renesas/e2studio_2021_01_workspace_RZA2M_ANPR/ANPR_RZA2M_GR_MANGO/src/tensorflow_lite/src/tensorflow/lite/kernels/internal\types.h ****   int16_t width;
  48:C:/Renesas/e2studio_2021_01_workspace_RZA2M_ANPR/ANPR_RZA2M_GR_MANGO/src/tensorflow_lite/src/tensorflow/lite/kernels/internal\types.h ****   int16_t height;
  49:C:/Renesas/e2studio_2021_01_workspace_RZA2M_ANPR/ANPR_RZA2M_GR_MANGO/src/tensorflow_lite/src/tensorflow/lite/kernels/internal\types.h ****   int16_t depth;
  50:C:/Renesas/e2studio_2021_01_workspace_RZA2M_ANPR/ANPR_RZA2M_GR_MANGO/src/tensorflow_lite/src/tensorflow/lite/kernels/internal\types.h ****   // offset is used for calculating "remaining" padding, for example, `width`
  51:C:/Renesas/e2studio_2021_01_workspace_RZA2M_ANPR/ANPR_RZA2M_GR_MANGO/src/tensorflow_lite/src/tensorflow/lite/kernels/internal\types.h ****   // is 1 and `width_offset` is 1, so padding_left is 1 while padding_right is
  52:C:/Renesas/e2studio_2021_01_workspace_RZA2M_ANPR/ANPR_RZA2M_GR_MANGO/src/tensorflow_lite/src/tensorflow/lite/kernels/internal\types.h ****   // 1 + 1 = 2.
  53:C:/Renesas/e2studio_2021_01_workspace_RZA2M_ANPR/ANPR_RZA2M_GR_MANGO/src/tensorflow_lite/src/tensorflow/lite/kernels/internal\types.h ****   int16_t width_offset;
  54:C:/Renesas/e2studio_2021_01_workspace_RZA2M_ANPR/ANPR_RZA2M_GR_MANGO/src/tensorflow_lite/src/tensorflow/lite/kernels/internal\types.h ****   // Same as width_offset except it's over the height dimension.
  55:C:/Renesas/e2studio_2021_01_workspace_RZA2M_ANPR/ANPR_RZA2M_GR_MANGO/src/tensorflow_lite/src/tensorflow/lite/kernels/internal\types.h ****   int16_t height_offset;
  56:C:/Renesas/e2studio_2021_01_workspace_RZA2M_ANPR/ANPR_RZA2M_GR_MANGO/src/tensorflow_lite/src/tensorflow/lite/kernels/internal\types.h ****   // Same as width_offset except it's over the depth dimension.
  57:C:/Renesas/e2studio_2021_01_workspace_RZA2M_ANPR/ANPR_RZA2M_GR_MANGO/src/tensorflow_lite/src/tensorflow/lite/kernels/internal\types.h ****   int16_t depth_offset;
  58:C:/Renesas/e2studio_2021_01_workspace_RZA2M_ANPR/ANPR_RZA2M_GR_MANGO/src/tensorflow_lite/src/tensorflow/lite/kernels/internal\types.h **** };
  59:C:/Renesas/e2studio_2021_01_workspace_RZA2M_ANPR/ANPR_RZA2M_GR_MANGO/src/tensorflow_lite/src/tensorflow/lite/kernels/internal\types.h **** 
  60:C:/Renesas/e2studio_2021_01_workspace_RZA2M_ANPR/ANPR_RZA2M_GR_MANGO/src/tensorflow_lite/src/tensorflow/lite/kernels/internal\types.h **** // This enumeration allows for non-default formats for the weights array
  61:C:/Renesas/e2studio_2021_01_workspace_RZA2M_ANPR/ANPR_RZA2M_GR_MANGO/src/tensorflow_lite/src/tensorflow/lite/kernels/internal\types.h **** // of a fully-connected operator, allowing the use of special optimized
  62:C:/Renesas/e2studio_2021_01_workspace_RZA2M_ANPR/ANPR_RZA2M_GR_MANGO/src/tensorflow_lite/src/tensorflow/lite/kernels/internal\types.h **** // runtime paths.
  63:C:/Renesas/e2studio_2021_01_workspace_RZA2M_ANPR/ANPR_RZA2M_GR_MANGO/src/tensorflow_lite/src/tensorflow/lite/kernels/internal\types.h **** enum class FullyConnectedWeightsFormat : uint8_t {
  64:C:/Renesas/e2studio_2021_01_workspace_RZA2M_ANPR/ANPR_RZA2M_GR_MANGO/src/tensorflow_lite/src/tensorflow/lite/kernels/internal\types.h ****   // Default format (flat 2D layout, the inner contiguous dimension
  65:C:/Renesas/e2studio_2021_01_workspace_RZA2M_ANPR/ANPR_RZA2M_GR_MANGO/src/tensorflow_lite/src/tensorflow/lite/kernels/internal\types.h ****   // is input_depth, the outer non-contiguous dimension is output_depth)
  66:C:/Renesas/e2studio_2021_01_workspace_RZA2M_ANPR/ANPR_RZA2M_GR_MANGO/src/tensorflow_lite/src/tensorflow/lite/kernels/internal\types.h ****   kDefault,
  67:C:/Renesas/e2studio_2021_01_workspace_RZA2M_ANPR/ANPR_RZA2M_GR_MANGO/src/tensorflow_lite/src/tensorflow/lite/kernels/internal\types.h ****   // Summary: optimized layout for fast CPU runtime implementation,
  68:C:/Renesas/e2studio_2021_01_workspace_RZA2M_ANPR/ANPR_RZA2M_GR_MANGO/src/tensorflow_lite/src/tensorflow/lite/kernels/internal\types.h ****   // aimed specifically at ARM CPUs at the moment, and specialized for
  69:C:/Renesas/e2studio_2021_01_workspace_RZA2M_ANPR/ANPR_RZA2M_GR_MANGO/src/tensorflow_lite/src/tensorflow/lite/kernels/internal\types.h ****   // 8-bit quantized layers.
  70:C:/Renesas/e2studio_2021_01_workspace_RZA2M_ANPR/ANPR_RZA2M_GR_MANGO/src/tensorflow_lite/src/tensorflow/lite/kernels/internal\types.h ****   //
  71:C:/Renesas/e2studio_2021_01_workspace_RZA2M_ANPR/ANPR_RZA2M_GR_MANGO/src/tensorflow_lite/src/tensorflow/lite/kernels/internal\types.h ****   // The use case we're concerned with here is: 8-bit quantization,
  72:C:/Renesas/e2studio_2021_01_workspace_RZA2M_ANPR/ANPR_RZA2M_GR_MANGO/src/tensorflow_lite/src/tensorflow/lite/kernels/internal\types.h ****   // large weights matrix that doesn't fit in cache (e.g. 4096x2048 in
  73:C:/Renesas/e2studio_2021_01_workspace_RZA2M_ANPR/ANPR_RZA2M_GR_MANGO/src/tensorflow_lite/src/tensorflow/lite/kernels/internal\types.h ****   // a key application that drove this), very small batch size (e.g. 1 -- 4).
  74:C:/Renesas/e2studio_2021_01_workspace_RZA2M_ANPR/ANPR_RZA2M_GR_MANGO/src/tensorflow_lite/src/tensorflow/lite/kernels/internal\types.h ****   //
  75:C:/Renesas/e2studio_2021_01_workspace_RZA2M_ANPR/ANPR_RZA2M_GR_MANGO/src/tensorflow_lite/src/tensorflow/lite/kernels/internal\types.h ****   // Even with 8-bit quantization of weights, the performance of memory
  76:C:/Renesas/e2studio_2021_01_workspace_RZA2M_ANPR/ANPR_RZA2M_GR_MANGO/src/tensorflow_lite/src/tensorflow/lite/kernels/internal\types.h ****   // accesses to the weights can become the dominant issue when
  77:C:/Renesas/e2studio_2021_01_workspace_RZA2M_ANPR/ANPR_RZA2M_GR_MANGO/src/tensorflow_lite/src/tensorflow/lite/kernels/internal\types.h ****   // the batch size is small, so each weight value is used in only a few
  78:C:/Renesas/e2studio_2021_01_workspace_RZA2M_ANPR/ANPR_RZA2M_GR_MANGO/src/tensorflow_lite/src/tensorflow/lite/kernels/internal\types.h ****   // arithmetic ops, i.e. the fully-connected node has a low arithmetic
  79:C:/Renesas/e2studio_2021_01_workspace_RZA2M_ANPR/ANPR_RZA2M_GR_MANGO/src/tensorflow_lite/src/tensorflow/lite/kernels/internal\types.h ****   // intensity. The specific issues that arise are of three kinds:
  80:C:/Renesas/e2studio_2021_01_workspace_RZA2M_ANPR/ANPR_RZA2M_GR_MANGO/src/tensorflow_lite/src/tensorflow/lite/kernels/internal\types.h ****   // (1) One may, ideally, max out DRAM bandwidth, i.e. be truly memory
  81:C:/Renesas/e2studio_2021_01_workspace_RZA2M_ANPR/ANPR_RZA2M_GR_MANGO/src/tensorflow_lite/src/tensorflow/lite/kernels/internal\types.h ****   //     bound. That's the "good" issue to run into.
  82:C:/Renesas/e2studio_2021_01_workspace_RZA2M_ANPR/ANPR_RZA2M_GR_MANGO/src/tensorflow_lite/src/tensorflow/lite/kernels/internal\types.h ****   // (2) One may run into sub-optimal pre-fetching: the data hasn't been
  83:C:/Renesas/e2studio_2021_01_workspace_RZA2M_ANPR/ANPR_RZA2M_GR_MANGO/src/tensorflow_lite/src/tensorflow/lite/kernels/internal\types.h ****   //     prefetched into the cache by the time we need it.
  84:C:/Renesas/e2studio_2021_01_workspace_RZA2M_ANPR/ANPR_RZA2M_GR_MANGO/src/tensorflow_lite/src/tensorflow/lite/kernels/internal\types.h ****   // (3) One may run into cache aliasing: multiple values that are
  85:C:/Renesas/e2studio_2021_01_workspace_RZA2M_ANPR/ANPR_RZA2M_GR_MANGO/src/tensorflow_lite/src/tensorflow/lite/kernels/internal\types.h ****   //     pre-fetched, alias each other in the L1 cache (which typically
  86:C:/Renesas/e2studio_2021_01_workspace_RZA2M_ANPR/ANPR_RZA2M_GR_MANGO/src/tensorflow_lite/src/tensorflow/lite/kernels/internal\types.h ****   //     has only 4-way set associativity in ARM CPUs) and thus evict
  87:C:/Renesas/e2studio_2021_01_workspace_RZA2M_ANPR/ANPR_RZA2M_GR_MANGO/src/tensorflow_lite/src/tensorflow/lite/kernels/internal\types.h ****   //     each other before we get to using them.
  88:C:/Renesas/e2studio_2021_01_workspace_RZA2M_ANPR/ANPR_RZA2M_GR_MANGO/src/tensorflow_lite/src/tensorflow/lite/kernels/internal\types.h ****   //
  89:C:/Renesas/e2studio_2021_01_workspace_RZA2M_ANPR/ANPR_RZA2M_GR_MANGO/src/tensorflow_lite/src/tensorflow/lite/kernels/internal\types.h ****   // The point of this shuffling is to avoid issues (2) and (3) so that
  90:C:/Renesas/e2studio_2021_01_workspace_RZA2M_ANPR/ANPR_RZA2M_GR_MANGO/src/tensorflow_lite/src/tensorflow/lite/kernels/internal\types.h ****   // we get as fast as possible given only the hard constraint (1).
  91:C:/Renesas/e2studio_2021_01_workspace_RZA2M_ANPR/ANPR_RZA2M_GR_MANGO/src/tensorflow_lite/src/tensorflow/lite/kernels/internal\types.h ****   // This is achieved by turning the difficulty into a solution: the
  92:C:/Renesas/e2studio_2021_01_workspace_RZA2M_ANPR/ANPR_RZA2M_GR_MANGO/src/tensorflow_lite/src/tensorflow/lite/kernels/internal\types.h ****   // difficulty, that each value loaded from memory is used only in
  93:C:/Renesas/e2studio_2021_01_workspace_RZA2M_ANPR/ANPR_RZA2M_GR_MANGO/src/tensorflow_lite/src/tensorflow/lite/kernels/internal\types.h ****   // one kernel iteration, making this operation memory-intensive, hints at
  94:C:/Renesas/e2studio_2021_01_workspace_RZA2M_ANPR/ANPR_RZA2M_GR_MANGO/src/tensorflow_lite/src/tensorflow/lite/kernels/internal\types.h ****   // the solution, of shuffling the weights so that they are stored in the
  95:C:/Renesas/e2studio_2021_01_workspace_RZA2M_ANPR/ANPR_RZA2M_GR_MANGO/src/tensorflow_lite/src/tensorflow/lite/kernels/internal\types.h ****   // exact order as the kernel needs to load them, so that the memory
  96:C:/Renesas/e2studio_2021_01_workspace_RZA2M_ANPR/ANPR_RZA2M_GR_MANGO/src/tensorflow_lite/src/tensorflow/lite/kernels/internal\types.h ****   // accesses made by the kernel are trivial. This solves (2) because the
  97:C:/Renesas/e2studio_2021_01_workspace_RZA2M_ANPR/ANPR_RZA2M_GR_MANGO/src/tensorflow_lite/src/tensorflow/lite/kernels/internal\types.h ****   // trivial memory access pattern allows the CPU's automatic prefetching
  98:C:/Renesas/e2studio_2021_01_workspace_RZA2M_ANPR/ANPR_RZA2M_GR_MANGO/src/tensorflow_lite/src/tensorflow/lite/kernels/internal\types.h ****   // to perform very well (no need even for preload instructions), and this
  99:C:/Renesas/e2studio_2021_01_workspace_RZA2M_ANPR/ANPR_RZA2M_GR_MANGO/src/tensorflow_lite/src/tensorflow/lite/kernels/internal\types.h ****   // solves (3) because the values being loaded concurrently are now
 100:C:/Renesas/e2studio_2021_01_workspace_RZA2M_ANPR/ANPR_RZA2M_GR_MANGO/src/tensorflow_lite/src/tensorflow/lite/kernels/internal\types.h ****   // contiguous in the address space, thus don't alias each other in the cache.
 101:C:/Renesas/e2studio_2021_01_workspace_RZA2M_ANPR/ANPR_RZA2M_GR_MANGO/src/tensorflow_lite/src/tensorflow/lite/kernels/internal\types.h ****   //
 102:C:/Renesas/e2studio_2021_01_workspace_RZA2M_ANPR/ANPR_RZA2M_GR_MANGO/src/tensorflow_lite/src/tensorflow/lite/kernels/internal\types.h ****   // On ARM, we typically want our kernel to process a 4x16 block of weights
 103:C:/Renesas/e2studio_2021_01_workspace_RZA2M_ANPR/ANPR_RZA2M_GR_MANGO/src/tensorflow_lite/src/tensorflow/lite/kernels/internal\types.h ****   // at a time, because:
 104:C:/Renesas/e2studio_2021_01_workspace_RZA2M_ANPR/ANPR_RZA2M_GR_MANGO/src/tensorflow_lite/src/tensorflow/lite/kernels/internal\types.h ****   //   - 16 is the number of bytes in a NEON register.
 105:C:/Renesas/e2studio_2021_01_workspace_RZA2M_ANPR/ANPR_RZA2M_GR_MANGO/src/tensorflow_lite/src/tensorflow/lite/kernels/internal\types.h ****   //   - 4 is how many rows we need to handle concurrently in the kernel in
 106:C:/Renesas/e2studio_2021_01_workspace_RZA2M_ANPR/ANPR_RZA2M_GR_MANGO/src/tensorflow_lite/src/tensorflow/lite/kernels/internal\types.h ****   //     order to have sufficient mutual independence of instructions to
 107:C:/Renesas/e2studio_2021_01_workspace_RZA2M_ANPR/ANPR_RZA2M_GR_MANGO/src/tensorflow_lite/src/tensorflow/lite/kernels/internal\types.h ****   //     maximize arithmetic throughput.
 108:C:/Renesas/e2studio_2021_01_workspace_RZA2M_ANPR/ANPR_RZA2M_GR_MANGO/src/tensorflow_lite/src/tensorflow/lite/kernels/internal\types.h ****   //
 109:C:/Renesas/e2studio_2021_01_workspace_RZA2M_ANPR/ANPR_RZA2M_GR_MANGO/src/tensorflow_lite/src/tensorflow/lite/kernels/internal\types.h ****   // Finally, the 'Int8' part in the name refers to the fact that this
 110:C:/Renesas/e2studio_2021_01_workspace_RZA2M_ANPR/ANPR_RZA2M_GR_MANGO/src/tensorflow_lite/src/tensorflow/lite/kernels/internal\types.h ****   // weights format has each weights value encoded as a signed int8_t value,
 111:C:/Renesas/e2studio_2021_01_workspace_RZA2M_ANPR/ANPR_RZA2M_GR_MANGO/src/tensorflow_lite/src/tensorflow/lite/kernels/internal\types.h ****   // even if the data type of the weights buffer is uint8_t.  This is intended
 112:C:/Renesas/e2studio_2021_01_workspace_RZA2M_ANPR/ANPR_RZA2M_GR_MANGO/src/tensorflow_lite/src/tensorflow/lite/kernels/internal\types.h ****   // to save runtime kernels the effort to have to XOR the top bit of these
 113:C:/Renesas/e2studio_2021_01_workspace_RZA2M_ANPR/ANPR_RZA2M_GR_MANGO/src/tensorflow_lite/src/tensorflow/lite/kernels/internal\types.h ****   // bytes before using them in signed arithmetic, see this file for more
 114:C:/Renesas/e2studio_2021_01_workspace_RZA2M_ANPR/ANPR_RZA2M_GR_MANGO/src/tensorflow_lite/src/tensorflow/lite/kernels/internal\types.h ****   // explanations on the 'signed int8_t trick' in matrix multiplication kernels:
 115:C:/Renesas/e2studio_2021_01_workspace_RZA2M_ANPR/ANPR_RZA2M_GR_MANGO/src/tensorflow_lite/src/tensorflow/lite/kernels/internal\types.h ****   //
 116:C:/Renesas/e2studio_2021_01_workspace_RZA2M_ANPR/ANPR_RZA2M_GR_MANGO/src/tensorflow_lite/src/tensorflow/lite/kernels/internal\types.h ****   //   tensorflow/lite/toco/graph_transformations/ensure_uint8_weights_safe_for_fast_int8_kernels.c
 117:C:/Renesas/e2studio_2021_01_workspace_RZA2M_ANPR/ANPR_RZA2M_GR_MANGO/src/tensorflow_lite/src/tensorflow/lite/kernels/internal\types.h ****   //
 118:C:/Renesas/e2studio_2021_01_workspace_RZA2M_ANPR/ANPR_RZA2M_GR_MANGO/src/tensorflow_lite/src/tensorflow/lite/kernels/internal\types.h ****   kShuffled4x16Int8,
 119:C:/Renesas/e2studio_2021_01_workspace_RZA2M_ANPR/ANPR_RZA2M_GR_MANGO/src/tensorflow_lite/src/tensorflow/lite/kernels/internal\types.h **** };
 120:C:/Renesas/e2studio_2021_01_workspace_RZA2M_ANPR/ANPR_RZA2M_GR_MANGO/src/tensorflow_lite/src/tensorflow/lite/kernels/internal\types.h **** 
 121:C:/Renesas/e2studio_2021_01_workspace_RZA2M_ANPR/ANPR_RZA2M_GR_MANGO/src/tensorflow_lite/src/tensorflow/lite/kernels/internal\types.h **** // Quantization parameters, determining the mapping of quantized values
 122:C:/Renesas/e2studio_2021_01_workspace_RZA2M_ANPR/ANPR_RZA2M_GR_MANGO/src/tensorflow_lite/src/tensorflow/lite/kernels/internal\types.h **** // to real values (i.e. determining how quantized values are mathematically
 123:C:/Renesas/e2studio_2021_01_workspace_RZA2M_ANPR/ANPR_RZA2M_GR_MANGO/src/tensorflow_lite/src/tensorflow/lite/kernels/internal\types.h **** // interpreted).
 124:C:/Renesas/e2studio_2021_01_workspace_RZA2M_ANPR/ANPR_RZA2M_GR_MANGO/src/tensorflow_lite/src/tensorflow/lite/kernels/internal\types.h **** //
 125:C:/Renesas/e2studio_2021_01_workspace_RZA2M_ANPR/ANPR_RZA2M_GR_MANGO/src/tensorflow_lite/src/tensorflow/lite/kernels/internal\types.h **** // The correspondence is as follows:
 126:C:/Renesas/e2studio_2021_01_workspace_RZA2M_ANPR/ANPR_RZA2M_GR_MANGO/src/tensorflow_lite/src/tensorflow/lite/kernels/internal\types.h **** //
 127:C:/Renesas/e2studio_2021_01_workspace_RZA2M_ANPR/ANPR_RZA2M_GR_MANGO/src/tensorflow_lite/src/tensorflow/lite/kernels/internal\types.h **** //   real_value = scale * (quantized_value - zero_point);
 128:C:/Renesas/e2studio_2021_01_workspace_RZA2M_ANPR/ANPR_RZA2M_GR_MANGO/src/tensorflow_lite/src/tensorflow/lite/kernels/internal\types.h **** //
 129:C:/Renesas/e2studio_2021_01_workspace_RZA2M_ANPR/ANPR_RZA2M_GR_MANGO/src/tensorflow_lite/src/tensorflow/lite/kernels/internal\types.h **** // In other words, zero_point designates which quantized value corresponds to
 130:C:/Renesas/e2studio_2021_01_workspace_RZA2M_ANPR/ANPR_RZA2M_GR_MANGO/src/tensorflow_lite/src/tensorflow/lite/kernels/internal\types.h **** // the real 0 value, and scale designates the difference between the real values
 131:C:/Renesas/e2studio_2021_01_workspace_RZA2M_ANPR/ANPR_RZA2M_GR_MANGO/src/tensorflow_lite/src/tensorflow/lite/kernels/internal\types.h **** // corresponding to consecutive quantized values differing by 1.
 132:C:/Renesas/e2studio_2021_01_workspace_RZA2M_ANPR/ANPR_RZA2M_GR_MANGO/src/tensorflow_lite/src/tensorflow/lite/kernels/internal\types.h **** struct QuantizationParams {
 133:C:/Renesas/e2studio_2021_01_workspace_RZA2M_ANPR/ANPR_RZA2M_GR_MANGO/src/tensorflow_lite/src/tensorflow/lite/kernels/internal\types.h ****   int32_t zero_point = 0;
 134:C:/Renesas/e2studio_2021_01_workspace_RZA2M_ANPR/ANPR_RZA2M_GR_MANGO/src/tensorflow_lite/src/tensorflow/lite/kernels/internal\types.h ****   double scale = 0.0;
 135:C:/Renesas/e2studio_2021_01_workspace_RZA2M_ANPR/ANPR_RZA2M_GR_MANGO/src/tensorflow_lite/src/tensorflow/lite/kernels/internal\types.h **** };
 136:C:/Renesas/e2studio_2021_01_workspace_RZA2M_ANPR/ANPR_RZA2M_GR_MANGO/src/tensorflow_lite/src/tensorflow/lite/kernels/internal\types.h **** 
 137:C:/Renesas/e2studio_2021_01_workspace_RZA2M_ANPR/ANPR_RZA2M_GR_MANGO/src/tensorflow_lite/src/tensorflow/lite/kernels/internal\types.h **** inline bool operator==(const QuantizationParams& qp1,
 138:C:/Renesas/e2studio_2021_01_workspace_RZA2M_ANPR/ANPR_RZA2M_GR_MANGO/src/tensorflow_lite/src/tensorflow/lite/kernels/internal\types.h ****                        const QuantizationParams& qp2) {
 139:C:/Renesas/e2studio_2021_01_workspace_RZA2M_ANPR/ANPR_RZA2M_GR_MANGO/src/tensorflow_lite/src/tensorflow/lite/kernels/internal\types.h ****   return qp1.zero_point == qp2.zero_point && qp1.scale == qp2.scale;
 140:C:/Renesas/e2studio_2021_01_workspace_RZA2M_ANPR/ANPR_RZA2M_GR_MANGO/src/tensorflow_lite/src/tensorflow/lite/kernels/internal\types.h **** }
 141:C:/Renesas/e2studio_2021_01_workspace_RZA2M_ANPR/ANPR_RZA2M_GR_MANGO/src/tensorflow_lite/src/tensorflow/lite/kernels/internal\types.h **** 
 142:C:/Renesas/e2studio_2021_01_workspace_RZA2M_ANPR/ANPR_RZA2M_GR_MANGO/src/tensorflow_lite/src/tensorflow/lite/kernels/internal\types.h **** template <int N>
 143:C:/Renesas/e2studio_2021_01_workspace_RZA2M_ANPR/ANPR_RZA2M_GR_MANGO/src/tensorflow_lite/src/tensorflow/lite/kernels/internal\types.h **** struct Dims {
 144:C:/Renesas/e2studio_2021_01_workspace_RZA2M_ANPR/ANPR_RZA2M_GR_MANGO/src/tensorflow_lite/src/tensorflow/lite/kernels/internal\types.h ****   int sizes[N];
 145:C:/Renesas/e2studio_2021_01_workspace_RZA2M_ANPR/ANPR_RZA2M_GR_MANGO/src/tensorflow_lite/src/tensorflow/lite/kernels/internal\types.h ****   int strides[N];
 146:C:/Renesas/e2studio_2021_01_workspace_RZA2M_ANPR/ANPR_RZA2M_GR_MANGO/src/tensorflow_lite/src/tensorflow/lite/kernels/internal\types.h **** };
 147:C:/Renesas/e2studio_2021_01_workspace_RZA2M_ANPR/ANPR_RZA2M_GR_MANGO/src/tensorflow_lite/src/tensorflow/lite/kernels/internal\types.h **** 
 148:C:/Renesas/e2studio_2021_01_workspace_RZA2M_ANPR/ANPR_RZA2M_GR_MANGO/src/tensorflow_lite/src/tensorflow/lite/kernels/internal\types.h **** class RuntimeShape {
 149:C:/Renesas/e2studio_2021_01_workspace_RZA2M_ANPR/ANPR_RZA2M_GR_MANGO/src/tensorflow_lite/src/tensorflow/lite/kernels/internal\types.h ****  public:
 150:C:/Renesas/e2studio_2021_01_workspace_RZA2M_ANPR/ANPR_RZA2M_GR_MANGO/src/tensorflow_lite/src/tensorflow/lite/kernels/internal\types.h ****   // Shapes with dimensions up to 5 are stored directly in the structure, while
 151:C:/Renesas/e2studio_2021_01_workspace_RZA2M_ANPR/ANPR_RZA2M_GR_MANGO/src/tensorflow_lite/src/tensorflow/lite/kernels/internal\types.h ****   // larger shapes are separately allocated.
 152:C:/Renesas/e2studio_2021_01_workspace_RZA2M_ANPR/ANPR_RZA2M_GR_MANGO/src/tensorflow_lite/src/tensorflow/lite/kernels/internal\types.h ****   static constexpr int kMaxSmallSize = 5;
 153:C:/Renesas/e2studio_2021_01_workspace_RZA2M_ANPR/ANPR_RZA2M_GR_MANGO/src/tensorflow_lite/src/tensorflow/lite/kernels/internal\types.h **** 
 154:C:/Renesas/e2studio_2021_01_workspace_RZA2M_ANPR/ANPR_RZA2M_GR_MANGO/src/tensorflow_lite/src/tensorflow/lite/kernels/internal\types.h ****   RuntimeShape& operator=(RuntimeShape const&) = delete;
 155:C:/Renesas/e2studio_2021_01_workspace_RZA2M_ANPR/ANPR_RZA2M_GR_MANGO/src/tensorflow_lite/src/tensorflow/lite/kernels/internal\types.h **** 
 156:C:/Renesas/e2studio_2021_01_workspace_RZA2M_ANPR/ANPR_RZA2M_GR_MANGO/src/tensorflow_lite/src/tensorflow/lite/kernels/internal\types.h ****   RuntimeShape() : size_(0) {}
 157:C:/Renesas/e2studio_2021_01_workspace_RZA2M_ANPR/ANPR_RZA2M_GR_MANGO/src/tensorflow_lite/src/tensorflow/lite/kernels/internal\types.h **** 
 158:C:/Renesas/e2studio_2021_01_workspace_RZA2M_ANPR/ANPR_RZA2M_GR_MANGO/src/tensorflow_lite/src/tensorflow/lite/kernels/internal\types.h ****   explicit RuntimeShape(int dimensions_count) : size_(dimensions_count) {
 159:C:/Renesas/e2studio_2021_01_workspace_RZA2M_ANPR/ANPR_RZA2M_GR_MANGO/src/tensorflow_lite/src/tensorflow/lite/kernels/internal\types.h ****     if (dimensions_count > kMaxSmallSize) {
 160:C:/Renesas/e2studio_2021_01_workspace_RZA2M_ANPR/ANPR_RZA2M_GR_MANGO/src/tensorflow_lite/src/tensorflow/lite/kernels/internal\types.h **** #ifdef TF_LITE_STATIC_MEMORY
 161:C:/Renesas/e2studio_2021_01_workspace_RZA2M_ANPR/ANPR_RZA2M_GR_MANGO/src/tensorflow_lite/src/tensorflow/lite/kernels/internal\types.h ****       TFLITE_CHECK(false && "No shape resizing supported on this platform");
 162:C:/Renesas/e2studio_2021_01_workspace_RZA2M_ANPR/ANPR_RZA2M_GR_MANGO/src/tensorflow_lite/src/tensorflow/lite/kernels/internal\types.h **** #else  // TF_LITE_STATIC_MEMORY
 163:C:/Renesas/e2studio_2021_01_workspace_RZA2M_ANPR/ANPR_RZA2M_GR_MANGO/src/tensorflow_lite/src/tensorflow/lite/kernels/internal\types.h ****       dims_pointer_ = new int32_t[dimensions_count];
 164:C:/Renesas/e2studio_2021_01_workspace_RZA2M_ANPR/ANPR_RZA2M_GR_MANGO/src/tensorflow_lite/src/tensorflow/lite/kernels/internal\types.h **** #endif  // TF_LITE_STATIC_MEMORY
 165:C:/Renesas/e2studio_2021_01_workspace_RZA2M_ANPR/ANPR_RZA2M_GR_MANGO/src/tensorflow_lite/src/tensorflow/lite/kernels/internal\types.h ****     }
 166:C:/Renesas/e2studio_2021_01_workspace_RZA2M_ANPR/ANPR_RZA2M_GR_MANGO/src/tensorflow_lite/src/tensorflow/lite/kernels/internal\types.h ****   }
 167:C:/Renesas/e2studio_2021_01_workspace_RZA2M_ANPR/ANPR_RZA2M_GR_MANGO/src/tensorflow_lite/src/tensorflow/lite/kernels/internal\types.h **** 
 168:C:/Renesas/e2studio_2021_01_workspace_RZA2M_ANPR/ANPR_RZA2M_GR_MANGO/src/tensorflow_lite/src/tensorflow/lite/kernels/internal\types.h ****   RuntimeShape(int shape_size, int32_t value) : size_(0) {
 169:C:/Renesas/e2studio_2021_01_workspace_RZA2M_ANPR/ANPR_RZA2M_GR_MANGO/src/tensorflow_lite/src/tensorflow/lite/kernels/internal\types.h ****     Resize(shape_size);
 170:C:/Renesas/e2studio_2021_01_workspace_RZA2M_ANPR/ANPR_RZA2M_GR_MANGO/src/tensorflow_lite/src/tensorflow/lite/kernels/internal\types.h ****     for (int i = 0; i < shape_size; ++i) {
 171:C:/Renesas/e2studio_2021_01_workspace_RZA2M_ANPR/ANPR_RZA2M_GR_MANGO/src/tensorflow_lite/src/tensorflow/lite/kernels/internal\types.h ****       SetDim(i, value);
 172:C:/Renesas/e2studio_2021_01_workspace_RZA2M_ANPR/ANPR_RZA2M_GR_MANGO/src/tensorflow_lite/src/tensorflow/lite/kernels/internal\types.h ****     }
 173:C:/Renesas/e2studio_2021_01_workspace_RZA2M_ANPR/ANPR_RZA2M_GR_MANGO/src/tensorflow_lite/src/tensorflow/lite/kernels/internal\types.h ****   }
 174:C:/Renesas/e2studio_2021_01_workspace_RZA2M_ANPR/ANPR_RZA2M_GR_MANGO/src/tensorflow_lite/src/tensorflow/lite/kernels/internal\types.h **** 
 175:C:/Renesas/e2studio_2021_01_workspace_RZA2M_ANPR/ANPR_RZA2M_GR_MANGO/src/tensorflow_lite/src/tensorflow/lite/kernels/internal\types.h ****   RuntimeShape(int dimensions_count, const int32_t* dims_data) : size_(0) {
 176:C:/Renesas/e2studio_2021_01_workspace_RZA2M_ANPR/ANPR_RZA2M_GR_MANGO/src/tensorflow_lite/src/tensorflow/lite/kernels/internal\types.h ****     ReplaceWith(dimensions_count, dims_data);
 177:C:/Renesas/e2studio_2021_01_workspace_RZA2M_ANPR/ANPR_RZA2M_GR_MANGO/src/tensorflow_lite/src/tensorflow/lite/kernels/internal\types.h ****   }
 178:C:/Renesas/e2studio_2021_01_workspace_RZA2M_ANPR/ANPR_RZA2M_GR_MANGO/src/tensorflow_lite/src/tensorflow/lite/kernels/internal\types.h **** 
 179:C:/Renesas/e2studio_2021_01_workspace_RZA2M_ANPR/ANPR_RZA2M_GR_MANGO/src/tensorflow_lite/src/tensorflow/lite/kernels/internal\types.h ****   RuntimeShape(const std::initializer_list<int> init_list) : size_(0) {
 180:C:/Renesas/e2studio_2021_01_workspace_RZA2M_ANPR/ANPR_RZA2M_GR_MANGO/src/tensorflow_lite/src/tensorflow/lite/kernels/internal\types.h ****     BuildFrom(init_list);
 181:C:/Renesas/e2studio_2021_01_workspace_RZA2M_ANPR/ANPR_RZA2M_GR_MANGO/src/tensorflow_lite/src/tensorflow/lite/kernels/internal\types.h ****   }
 182:C:/Renesas/e2studio_2021_01_workspace_RZA2M_ANPR/ANPR_RZA2M_GR_MANGO/src/tensorflow_lite/src/tensorflow/lite/kernels/internal\types.h **** 
 183:C:/Renesas/e2studio_2021_01_workspace_RZA2M_ANPR/ANPR_RZA2M_GR_MANGO/src/tensorflow_lite/src/tensorflow/lite/kernels/internal\types.h ****   // Avoid using this constructor.  We should be able to delete it when C++17
 184:C:/Renesas/e2studio_2021_01_workspace_RZA2M_ANPR/ANPR_RZA2M_GR_MANGO/src/tensorflow_lite/src/tensorflow/lite/kernels/internal\types.h ****   // rolls out.
 185:C:/Renesas/e2studio_2021_01_workspace_RZA2M_ANPR/ANPR_RZA2M_GR_MANGO/src/tensorflow_lite/src/tensorflow/lite/kernels/internal\types.h ****   RuntimeShape(RuntimeShape const& other) : size_(other.DimensionsCount()) {
 186:C:/Renesas/e2studio_2021_01_workspace_RZA2M_ANPR/ANPR_RZA2M_GR_MANGO/src/tensorflow_lite/src/tensorflow/lite/kernels/internal\types.h ****     if (size_ > kMaxSmallSize) {
 187:C:/Renesas/e2studio_2021_01_workspace_RZA2M_ANPR/ANPR_RZA2M_GR_MANGO/src/tensorflow_lite/src/tensorflow/lite/kernels/internal\types.h **** #ifdef TF_LITE_STATIC_MEMORY
 188:C:/Renesas/e2studio_2021_01_workspace_RZA2M_ANPR/ANPR_RZA2M_GR_MANGO/src/tensorflow_lite/src/tensorflow/lite/kernels/internal\types.h ****       TFLITE_CHECK(false && "No shape resizing supported on this platform");
 189:C:/Renesas/e2studio_2021_01_workspace_RZA2M_ANPR/ANPR_RZA2M_GR_MANGO/src/tensorflow_lite/src/tensorflow/lite/kernels/internal\types.h **** #else
 190:C:/Renesas/e2studio_2021_01_workspace_RZA2M_ANPR/ANPR_RZA2M_GR_MANGO/src/tensorflow_lite/src/tensorflow/lite/kernels/internal\types.h ****       dims_pointer_ = new int32_t[size_];
 191:C:/Renesas/e2studio_2021_01_workspace_RZA2M_ANPR/ANPR_RZA2M_GR_MANGO/src/tensorflow_lite/src/tensorflow/lite/kernels/internal\types.h **** #endif
 192:C:/Renesas/e2studio_2021_01_workspace_RZA2M_ANPR/ANPR_RZA2M_GR_MANGO/src/tensorflow_lite/src/tensorflow/lite/kernels/internal\types.h ****     }
 193:C:/Renesas/e2studio_2021_01_workspace_RZA2M_ANPR/ANPR_RZA2M_GR_MANGO/src/tensorflow_lite/src/tensorflow/lite/kernels/internal\types.h ****     std::memcpy(DimsData(), other.DimsData(), sizeof(int32_t) * size_);
 194:C:/Renesas/e2studio_2021_01_workspace_RZA2M_ANPR/ANPR_RZA2M_GR_MANGO/src/tensorflow_lite/src/tensorflow/lite/kernels/internal\types.h ****   }
 195:C:/Renesas/e2studio_2021_01_workspace_RZA2M_ANPR/ANPR_RZA2M_GR_MANGO/src/tensorflow_lite/src/tensorflow/lite/kernels/internal\types.h **** 
 196:C:/Renesas/e2studio_2021_01_workspace_RZA2M_ANPR/ANPR_RZA2M_GR_MANGO/src/tensorflow_lite/src/tensorflow/lite/kernels/internal\types.h ****   bool operator==(const RuntimeShape& comp) const {
 197:C:/Renesas/e2studio_2021_01_workspace_RZA2M_ANPR/ANPR_RZA2M_GR_MANGO/src/tensorflow_lite/src/tensorflow/lite/kernels/internal\types.h ****     return this->size_ == comp.size_ &&
 198:C:/Renesas/e2studio_2021_01_workspace_RZA2M_ANPR/ANPR_RZA2M_GR_MANGO/src/tensorflow_lite/src/tensorflow/lite/kernels/internal\types.h ****            std::memcmp(DimsData(), comp.DimsData(), size_ * sizeof(int32_t)) ==
 199:C:/Renesas/e2studio_2021_01_workspace_RZA2M_ANPR/ANPR_RZA2M_GR_MANGO/src/tensorflow_lite/src/tensorflow/lite/kernels/internal\types.h ****                0;
 200:C:/Renesas/e2studio_2021_01_workspace_RZA2M_ANPR/ANPR_RZA2M_GR_MANGO/src/tensorflow_lite/src/tensorflow/lite/kernels/internal\types.h ****   }
 201:C:/Renesas/e2studio_2021_01_workspace_RZA2M_ANPR/ANPR_RZA2M_GR_MANGO/src/tensorflow_lite/src/tensorflow/lite/kernels/internal\types.h **** 
 202:C:/Renesas/e2studio_2021_01_workspace_RZA2M_ANPR/ANPR_RZA2M_GR_MANGO/src/tensorflow_lite/src/tensorflow/lite/kernels/internal\types.h ****   ~RuntimeShape() {
 203:C:/Renesas/e2studio_2021_01_workspace_RZA2M_ANPR/ANPR_RZA2M_GR_MANGO/src/tensorflow_lite/src/tensorflow/lite/kernels/internal\types.h ****     if (size_ > kMaxSmallSize) {
 204:C:/Renesas/e2studio_2021_01_workspace_RZA2M_ANPR/ANPR_RZA2M_GR_MANGO/src/tensorflow_lite/src/tensorflow/lite/kernels/internal\types.h **** #ifdef TF_LITE_STATIC_MEMORY
 205:C:/Renesas/e2studio_2021_01_workspace_RZA2M_ANPR/ANPR_RZA2M_GR_MANGO/src/tensorflow_lite/src/tensorflow/lite/kernels/internal\types.h ****       TFLITE_CHECK(false && "No shape resizing supported on this platform");
 206:C:/Renesas/e2studio_2021_01_workspace_RZA2M_ANPR/ANPR_RZA2M_GR_MANGO/src/tensorflow_lite/src/tensorflow/lite/kernels/internal\types.h **** #else  // TF_LITE_STATIC_MEMORY
 207:C:/Renesas/e2studio_2021_01_workspace_RZA2M_ANPR/ANPR_RZA2M_GR_MANGO/src/tensorflow_lite/src/tensorflow/lite/kernels/internal\types.h ****       delete[] dims_pointer_;
 208:C:/Renesas/e2studio_2021_01_workspace_RZA2M_ANPR/ANPR_RZA2M_GR_MANGO/src/tensorflow_lite/src/tensorflow/lite/kernels/internal\types.h **** #endif  // TF_LITE_STATIC_MEMORY
 209:C:/Renesas/e2studio_2021_01_workspace_RZA2M_ANPR/ANPR_RZA2M_GR_MANGO/src/tensorflow_lite/src/tensorflow/lite/kernels/internal\types.h ****     }
 210:C:/Renesas/e2studio_2021_01_workspace_RZA2M_ANPR/ANPR_RZA2M_GR_MANGO/src/tensorflow_lite/src/tensorflow/lite/kernels/internal\types.h ****   }
 211:C:/Renesas/e2studio_2021_01_workspace_RZA2M_ANPR/ANPR_RZA2M_GR_MANGO/src/tensorflow_lite/src/tensorflow/lite/kernels/internal\types.h **** 
 212:C:/Renesas/e2studio_2021_01_workspace_RZA2M_ANPR/ANPR_RZA2M_GR_MANGO/src/tensorflow_lite/src/tensorflow/lite/kernels/internal\types.h ****   inline int32_t DimensionsCount() const { return size_; }
 213:C:/Renesas/e2studio_2021_01_workspace_RZA2M_ANPR/ANPR_RZA2M_GR_MANGO/src/tensorflow_lite/src/tensorflow/lite/kernels/internal\types.h ****   inline int32_t Dims(int i) const {
 214:C:/Renesas/e2studio_2021_01_workspace_RZA2M_ANPR/ANPR_RZA2M_GR_MANGO/src/tensorflow_lite/src/tensorflow/lite/kernels/internal\types.h ****     TFLITE_DCHECK_GE(i, 0);
 215:C:/Renesas/e2studio_2021_01_workspace_RZA2M_ANPR/ANPR_RZA2M_GR_MANGO/src/tensorflow_lite/src/tensorflow/lite/kernels/internal\types.h ****     TFLITE_DCHECK_LT(i, size_);
 151              		.loc 3 215 0
 152 0030 020054E1 		cmp	r4, r2
 153 0034 300000DA 		ble	.L7
 216:C:/Renesas/e2studio_2021_01_workspace_RZA2M_ANPR/ANPR_RZA2M_GR_MANGO/src/tensorflow_lite/src/tensorflow/lite/kernels/internal\types.h ****     return size_ > kMaxSmallSize ? dims_pointer_[i] : dims_[i];
 154              		.loc 3 216 0
 155 0038 050054E3 		cmp	r4, #5
 156 003c A60000CA 		bgt	.L146
 157 0040 020186E0 		add	r0, r6, r2, lsl #2
 158              	.LBE196:
 159              	.LBE195:
 160              	.LBB201:
  44:C:/Renesas/e2studio_2021_01_workspace_RZA2M_ANPR/ANPR_RZA2M_GR_MANGO/src/tensorflow_lite/src/tensorflow/lite/kernels/internal/reference\arg_min_max.h ****     axis += input1_shape.DimensionsCount();
  45:C:/Renesas/e2studio_2021_01_workspace_RZA2M_ANPR/ANPR_RZA2M_GR_MANGO/src/tensorflow_lite/src/tensorflow/lite/kernels/internal/reference\arg_min_max.h ****   }
  46:C:/Renesas/e2studio_2021_01_workspace_RZA2M_ANPR/ANPR_RZA2M_GR_MANGO/src/tensorflow_lite/src/tensorflow/lite/kernels/internal/reference\arg_min_max.h ****   const int axis_size = input1_shape.Dims(axis);
  47:C:/Renesas/e2studio_2021_01_workspace_RZA2M_ANPR/ANPR_RZA2M_GR_MANGO/src/tensorflow_lite/src/tensorflow/lite/kernels/internal/reference\arg_min_max.h **** 
  48:C:/Renesas/e2studio_2021_01_workspace_RZA2M_ANPR/ANPR_RZA2M_GR_MANGO/src/tensorflow_lite/src/tensorflow/lite/kernels/internal/reference\arg_min_max.h ****   int outer_size = 1;
  49:C:/Renesas/e2studio_2021_01_workspace_RZA2M_ANPR/ANPR_RZA2M_GR_MANGO/src/tensorflow_lite/src/tensorflow/lite/kernels/internal/reference\arg_min_max.h ****   for (int i = 0; i < axis; ++i) {
 161              		.loc 2 49 0
 162 0044 000052E3 		cmp	r2, #0
 163              	.LBE201:
 164              	.LBB288:
 165              	.LBB197:
 166              		.loc 3 216 0
 167 0048 04C090E5 		ldr	ip, [r0, #4]
 168              	.LVL11:
 169              	.LBE197:
 170              	.LBE288:
 171              	.LBB289:
 172              		.loc 2 49 0
 173 004c 7801000A 		beq	.L10
 174 0050 050055E3 		cmp	r5, #5
 175 0054 290000CA 		bgt	.L14
 176              	.LVL12:
 177              	.LBB202:
 178              	.LBB203:
 215:C:/Renesas/e2studio_2021_01_workspace_RZA2M_ANPR/ANPR_RZA2M_GR_MANGO/src/tensorflow_lite/src/tensorflow/lite/kernels/internal\types.h ****     return size_ > kMaxSmallSize ? dims_pointer_[i] : dims_[i];
 179              		.loc 3 215 0
 180 0058 000055E3 		cmp	r5, #0
 181              	.LBE203:
 182              	.LBE202:
 183              	.LBB228:
 184              	.LBB229:
 185              		.loc 3 216 0
 186 005c 047096E5 		ldr	r7, [r6, #4]
 187              	.LVL13:
 188              	.LBE229:
 189              	.LBE228:
 190              	.LBB247:
 191              	.LBB204:
 215:C:/Renesas/e2studio_2021_01_workspace_RZA2M_ANPR/ANPR_RZA2M_GR_MANGO/src/tensorflow_lite/src/tensorflow/lite/kernels/internal\types.h ****     return size_ > kMaxSmallSize ? dims_pointer_[i] : dims_[i];
 192              		.loc 3 215 0
 193 0060 2500000A 		beq	.L7
 194              	.LVL14:
 195              	.LBE204:
 196              	.LBE247:
  50:C:/Renesas/e2studio_2021_01_workspace_RZA2M_ANPR/ANPR_RZA2M_GR_MANGO/src/tensorflow_lite/src/tensorflow/lite/kernels/internal/reference\arg_min_max.h ****     TFLITE_DCHECK_EQ(input1_shape.Dims(i), output_shape.Dims(i));
 197              		.loc 2 50 0
 198 0064 040093E5 		ldr	r0, [r3, #4]
 199 0068 000057E1 		cmp	r7, r0
 200 006c 2200001A 		bne	.L7
 201              	.LVL15:
  49:C:/Renesas/e2studio_2021_01_workspace_RZA2M_ANPR/ANPR_RZA2M_GR_MANGO/src/tensorflow_lite/src/tensorflow/lite/kernels/internal/reference\arg_min_max.h ****     TFLITE_DCHECK_EQ(input1_shape.Dims(i), output_shape.Dims(i));
 202              		.loc 2 49 0
 203 0070 010052E3 		cmp	r2, #1
 204 0074 3B01000A 		beq	.L15
 205              	.LVL16:
 206              	.LBB248:
 207              	.LBB230:
 215:C:/Renesas/e2studio_2021_01_workspace_RZA2M_ANPR/ANPR_RZA2M_GR_MANGO/src/tensorflow_lite/src/tensorflow/lite/kernels/internal\types.h ****     return size_ > kMaxSmallSize ? dims_pointer_[i] : dims_[i];
 208              		.loc 3 215 0
 209 0078 010054E3 		cmp	r4, #1
 210 007c 1E00000A 		beq	.L7
 211              	.LBE230:
 212              	.LBE248:
 213              	.LBB249:
 214              	.LBB205:
 215 0080 010055E3 		cmp	r5, #1
 216              	.LBE205:
 217              	.LBE249:
 218              	.LBB250:
 219              	.LBB231:
 220              		.loc 3 216 0
 221 0084 080096E5 		ldr	r0, [r6, #8]
 222              	.LVL17:
 223              	.LBE231:
 224              	.LBE250:
 225              	.LBB251:
 226              	.LBB206:
 215:C:/Renesas/e2studio_2021_01_workspace_RZA2M_ANPR/ANPR_RZA2M_GR_MANGO/src/tensorflow_lite/src/tensorflow/lite/kernels/internal\types.h ****     return size_ > kMaxSmallSize ? dims_pointer_[i] : dims_[i];
 227              		.loc 3 215 0
 228 0088 1B00000A 		beq	.L7
 229              	.LVL18:
 230              	.LBE206:
 231              	.LBE251:
 232              		.loc 2 50 0
 233 008c 08E093E5 		ldr	lr, [r3, #8]
 234 0090 0E0050E1 		cmp	r0, lr
 235 0094 1800001A 		bne	.L7
  49:C:/Renesas/e2studio_2021_01_workspace_RZA2M_ANPR/ANPR_RZA2M_GR_MANGO/src/tensorflow_lite/src/tensorflow/lite/kernels/internal/reference\arg_min_max.h ****     TFLITE_DCHECK_EQ(input1_shape.Dims(i), output_shape.Dims(i));
 236              		.loc 2 49 0
 237 0098 020052E3 		cmp	r2, #2
  51:C:/Renesas/e2studio_2021_01_workspace_RZA2M_ANPR/ANPR_RZA2M_GR_MANGO/src/tensorflow_lite/src/tensorflow/lite/kernels/internal/reference\arg_min_max.h ****     outer_size *= input1_shape.Dims(i);
 238              		.loc 2 51 0
 239 009c 900707E0 		mul	r7, r0, r7
 240              	.LVL19:
  49:C:/Renesas/e2studio_2021_01_workspace_RZA2M_ANPR/ANPR_RZA2M_GR_MANGO/src/tensorflow_lite/src/tensorflow/lite/kernels/internal/reference\arg_min_max.h ****     TFLITE_DCHECK_EQ(input1_shape.Dims(i), output_shape.Dims(i));
 241              		.loc 2 49 0
 242 00a0 3001000A 		beq	.L15
 243              	.LVL20:
 244              	.LBB252:
 245              	.LBB232:
 215:C:/Renesas/e2studio_2021_01_workspace_RZA2M_ANPR/ANPR_RZA2M_GR_MANGO/src/tensorflow_lite/src/tensorflow/lite/kernels/internal\types.h ****     return size_ > kMaxSmallSize ? dims_pointer_[i] : dims_[i];
 246              		.loc 3 215 0
 247 00a4 020054E3 		cmp	r4, #2
 248 00a8 1300000A 		beq	.L7
 249              	.LBE232:
 250              	.LBE252:
 251              	.LBB253:
 252              	.LBB207:
 253 00ac 020055E3 		cmp	r5, #2
 254              	.LBE207:
 255              	.LBE253:
 256              	.LBB254:
 257              	.LBB233:
 258              		.loc 3 216 0
 259 00b0 0C0096E5 		ldr	r0, [r6, #12]
 260              	.LVL21:
 261              	.LBE233:
 262              	.LBE254:
 263              	.LBB255:
 264              	.LBB208:
 215:C:/Renesas/e2studio_2021_01_workspace_RZA2M_ANPR/ANPR_RZA2M_GR_MANGO/src/tensorflow_lite/src/tensorflow/lite/kernels/internal\types.h ****     return size_ > kMaxSmallSize ? dims_pointer_[i] : dims_[i];
 265              		.loc 3 215 0
 266 00b4 1000000A 		beq	.L7
 267              	.LVL22:
 268              	.LBE208:
 269              	.LBE255:
  50:C:/Renesas/e2studio_2021_01_workspace_RZA2M_ANPR/ANPR_RZA2M_GR_MANGO/src/tensorflow_lite/src/tensorflow/lite/kernels/internal/reference\arg_min_max.h ****     outer_size *= input1_shape.Dims(i);
 270              		.loc 2 50 0
 271 00b8 0CE093E5 		ldr	lr, [r3, #12]
 272 00bc 0E0050E1 		cmp	r0, lr
 273 00c0 0D00001A 		bne	.L7
  49:C:/Renesas/e2studio_2021_01_workspace_RZA2M_ANPR/ANPR_RZA2M_GR_MANGO/src/tensorflow_lite/src/tensorflow/lite/kernels/internal/reference\arg_min_max.h ****     TFLITE_DCHECK_EQ(input1_shape.Dims(i), output_shape.Dims(i));
 274              		.loc 2 49 0
 275 00c4 030052E3 		cmp	r2, #3
 276              		.loc 2 51 0
 277 00c8 900707E0 		mul	r7, r0, r7
 278              	.LVL23:
  49:C:/Renesas/e2studio_2021_01_workspace_RZA2M_ANPR/ANPR_RZA2M_GR_MANGO/src/tensorflow_lite/src/tensorflow/lite/kernels/internal/reference\arg_min_max.h ****     TFLITE_DCHECK_EQ(input1_shape.Dims(i), output_shape.Dims(i));
 279              		.loc 2 49 0
 280 00cc 2501000A 		beq	.L15
 281              	.LVL24:
 282              	.LBB256:
 283              	.LBB234:
 215:C:/Renesas/e2studio_2021_01_workspace_RZA2M_ANPR/ANPR_RZA2M_GR_MANGO/src/tensorflow_lite/src/tensorflow/lite/kernels/internal\types.h ****     return size_ > kMaxSmallSize ? dims_pointer_[i] : dims_[i];
 284              		.loc 3 215 0
 285 00d0 030054E3 		cmp	r4, #3
 286 00d4 0800000A 		beq	.L7
 287              	.LBE234:
 288              	.LBE256:
 289              	.LBB257:
 290              	.LBB209:
 291 00d8 030055E3 		cmp	r5, #3
 292              	.LBE209:
 293              	.LBE257:
 294              	.LBB258:
 295              	.LBB235:
 296              		.loc 3 216 0
 297 00dc 100096E5 		ldr	r0, [r6, #16]
 298              	.LVL25:
 299              	.LBE235:
 300              	.LBE258:
 301              	.LBB259:
 302              	.LBB210:
 215:C:/Renesas/e2studio_2021_01_workspace_RZA2M_ANPR/ANPR_RZA2M_GR_MANGO/src/tensorflow_lite/src/tensorflow/lite/kernels/internal\types.h ****     return size_ > kMaxSmallSize ? dims_pointer_[i] : dims_[i];
 303              		.loc 3 215 0
 304 00e0 0500000A 		beq	.L7
 305              	.LVL26:
 306              	.LBE210:
 307              	.LBE259:
  50:C:/Renesas/e2studio_2021_01_workspace_RZA2M_ANPR/ANPR_RZA2M_GR_MANGO/src/tensorflow_lite/src/tensorflow/lite/kernels/internal/reference\arg_min_max.h ****     outer_size *= input1_shape.Dims(i);
 308              		.loc 2 50 0
 309 00e4 10E093E5 		ldr	lr, [r3, #16]
 310 00e8 0E0050E1 		cmp	r0, lr
 311 00ec 0200001A 		bne	.L7
  49:C:/Renesas/e2studio_2021_01_workspace_RZA2M_ANPR/ANPR_RZA2M_GR_MANGO/src/tensorflow_lite/src/tensorflow/lite/kernels/internal/reference\arg_min_max.h ****     TFLITE_DCHECK_EQ(input1_shape.Dims(i), output_shape.Dims(i));
 312              		.loc 2 49 0
 313 00f0 040052E3 		cmp	r2, #4
 314              		.loc 2 51 0
 315 00f4 900707E0 		mul	r7, r0, r7
 316              	.LVL27:
  49:C:/Renesas/e2studio_2021_01_workspace_RZA2M_ANPR/ANPR_RZA2M_GR_MANGO/src/tensorflow_lite/src/tensorflow/lite/kernels/internal/reference\arg_min_max.h ****     TFLITE_DCHECK_EQ(input1_shape.Dims(i), output_shape.Dims(i));
 317              		.loc 2 49 0
 318 00f8 1A01000A 		beq	.L15
 319              	.LVL28:
 320              	.L7:
 321              	.LBE289:
  39:C:/Renesas/e2studio_2021_01_workspace_RZA2M_ANPR/ANPR_RZA2M_GR_MANGO/src/tensorflow_lite/src/tensorflow/lite/kernels/internal/reference\arg_min_max.h ****   TFLITE_DCHECK_EQ(input1_shape.DimensionsCount() - 1,
 322              		.loc 2 39 0 discriminator 1
 323 00fc FEFFFFEB 		bl	abort
 324              	.LVL29:
 325              	.L14:
 326              	.LBB290:
 327              	.LBB260:
 328              	.LBB211:
 329              		.loc 3 216 0
 330 0100 040093E5 		ldr	r0, [r3, #4]
 331              	.LBE211:
 332              	.LBE260:
 333              	.LBB261:
 334              	.LBB236:
 335 0104 047096E5 		ldr	r7, [r6, #4]
 336              	.LVL30:
 337              	.LBE236:
 338              	.LBE261:
 339              	.LBB262:
 340              	.LBB212:
 341 0108 00E090E5 		ldr	lr, [r0]
 342              	.LVL31:
 343              	.LBE212:
 344              	.LBE262:
  50:C:/Renesas/e2studio_2021_01_workspace_RZA2M_ANPR/ANPR_RZA2M_GR_MANGO/src/tensorflow_lite/src/tensorflow/lite/kernels/internal/reference\arg_min_max.h ****     outer_size *= input1_shape.Dims(i);
 345              		.loc 2 50 0
 346 010c 0E0057E1 		cmp	r7, lr
 347 0110 F9FFFF1A 		bne	.L7
 348              	.LVL32:
  49:C:/Renesas/e2studio_2021_01_workspace_RZA2M_ANPR/ANPR_RZA2M_GR_MANGO/src/tensorflow_lite/src/tensorflow/lite/kernels/internal/reference\arg_min_max.h ****     TFLITE_DCHECK_EQ(input1_shape.Dims(i), output_shape.Dims(i));
 349              		.loc 2 49 0
 350 0114 010052E3 		cmp	r2, #1
 351 0118 1A00000A 		beq	.L16
 352              	.LVL33:
 353              	.LBB263:
 354              	.LBB237:
 215:C:/Renesas/e2studio_2021_01_workspace_RZA2M_ANPR/ANPR_RZA2M_GR_MANGO/src/tensorflow_lite/src/tensorflow/lite/kernels/internal\types.h ****     return size_ > kMaxSmallSize ? dims_pointer_[i] : dims_[i];
 355              		.loc 3 215 0
 356 011c 010054E3 		cmp	r4, #1
 357 0120 F5FFFF0A 		beq	.L7
 358              	.LVL34:
 359              	.LBE237:
 360              	.LBE263:
 361              	.LBB264:
 362              	.LBB213:
 363              		.loc 3 216 0
 364 0124 048090E5 		ldr	r8, [r0, #4]
 365              	.LVL35:
 366              	.LBE213:
 367              	.LBE264:
  50:C:/Renesas/e2studio_2021_01_workspace_RZA2M_ANPR/ANPR_RZA2M_GR_MANGO/src/tensorflow_lite/src/tensorflow/lite/kernels/internal/reference\arg_min_max.h ****     outer_size *= input1_shape.Dims(i);
 368              		.loc 2 50 0
 369 0128 08E096E5 		ldr	lr, [r6, #8]
 370 012c 08005EE1 		cmp	lr, r8
 371 0130 F1FFFF1A 		bne	.L7
  49:C:/Renesas/e2studio_2021_01_workspace_RZA2M_ANPR/ANPR_RZA2M_GR_MANGO/src/tensorflow_lite/src/tensorflow/lite/kernels/internal/reference\arg_min_max.h ****     TFLITE_DCHECK_EQ(input1_shape.Dims(i), output_shape.Dims(i));
 372              		.loc 2 49 0
 373 0134 020052E3 		cmp	r2, #2
 374              		.loc 2 51 0
 375 0138 9E0707E0 		mul	r7, lr, r7
 376              	.LVL36:
  49:C:/Renesas/e2studio_2021_01_workspace_RZA2M_ANPR/ANPR_RZA2M_GR_MANGO/src/tensorflow_lite/src/tensorflow/lite/kernels/internal/reference\arg_min_max.h ****     TFLITE_DCHECK_EQ(input1_shape.Dims(i), output_shape.Dims(i));
 377              		.loc 2 49 0
 378 013c 1100000A 		beq	.L16
 379              	.LVL37:
 380              	.LBB265:
 381              	.LBB238:
 215:C:/Renesas/e2studio_2021_01_workspace_RZA2M_ANPR/ANPR_RZA2M_GR_MANGO/src/tensorflow_lite/src/tensorflow/lite/kernels/internal\types.h ****     return size_ > kMaxSmallSize ? dims_pointer_[i] : dims_[i];
 382              		.loc 3 215 0
 383 0140 020054E3 		cmp	r4, #2
 384 0144 ECFFFF0A 		beq	.L7
 385              	.LVL38:
 386              	.LBE238:
 387              	.LBE265:
 388              	.LBB266:
 389              	.LBB214:
 390              		.loc 3 216 0
 391 0148 088090E5 		ldr	r8, [r0, #8]
 392              	.LVL39:
 393              	.LBE214:
 394              	.LBE266:
  50:C:/Renesas/e2studio_2021_01_workspace_RZA2M_ANPR/ANPR_RZA2M_GR_MANGO/src/tensorflow_lite/src/tensorflow/lite/kernels/internal/reference\arg_min_max.h ****     outer_size *= input1_shape.Dims(i);
 395              		.loc 2 50 0
 396 014c 0CE096E5 		ldr	lr, [r6, #12]
 397 0150 08005EE1 		cmp	lr, r8
 398 0154 E8FFFF1A 		bne	.L7
  49:C:/Renesas/e2studio_2021_01_workspace_RZA2M_ANPR/ANPR_RZA2M_GR_MANGO/src/tensorflow_lite/src/tensorflow/lite/kernels/internal/reference\arg_min_max.h ****     TFLITE_DCHECK_EQ(input1_shape.Dims(i), output_shape.Dims(i));
 399              		.loc 2 49 0
 400 0158 030052E3 		cmp	r2, #3
 401              		.loc 2 51 0
 402 015c 9E0707E0 		mul	r7, lr, r7
 403              	.LVL40:
  49:C:/Renesas/e2studio_2021_01_workspace_RZA2M_ANPR/ANPR_RZA2M_GR_MANGO/src/tensorflow_lite/src/tensorflow/lite/kernels/internal/reference\arg_min_max.h ****     TFLITE_DCHECK_EQ(input1_shape.Dims(i), output_shape.Dims(i));
 404              		.loc 2 49 0
 405 0160 0800000A 		beq	.L16
 406              	.LVL41:
 407              	.LBB267:
 408              	.LBB239:
 215:C:/Renesas/e2studio_2021_01_workspace_RZA2M_ANPR/ANPR_RZA2M_GR_MANGO/src/tensorflow_lite/src/tensorflow/lite/kernels/internal\types.h ****     return size_ > kMaxSmallSize ? dims_pointer_[i] : dims_[i];
 409              		.loc 3 215 0
 410 0164 030054E3 		cmp	r4, #3
 411 0168 E3FFFF0A 		beq	.L7
 412              	.LVL42:
 413              	.LBE239:
 414              	.LBE267:
 415              	.LBB268:
 416              	.LBB215:
 417              		.loc 3 216 0
 418 016c 0CE090E5 		ldr	lr, [r0, #12]
 419              	.LVL43:
 420              	.LBE215:
 421              	.LBE268:
  50:C:/Renesas/e2studio_2021_01_workspace_RZA2M_ANPR/ANPR_RZA2M_GR_MANGO/src/tensorflow_lite/src/tensorflow/lite/kernels/internal/reference\arg_min_max.h ****     outer_size *= input1_shape.Dims(i);
 422              		.loc 2 50 0
 423 0170 100096E5 		ldr	r0, [r6, #16]
 424 0174 0E0050E1 		cmp	r0, lr
 425 0178 DFFFFF1A 		bne	.L7
  49:C:/Renesas/e2studio_2021_01_workspace_RZA2M_ANPR/ANPR_RZA2M_GR_MANGO/src/tensorflow_lite/src/tensorflow/lite/kernels/internal/reference\arg_min_max.h ****     TFLITE_DCHECK_EQ(input1_shape.Dims(i), output_shape.Dims(i));
 426              		.loc 2 49 0
 427 017c 040052E3 		cmp	r2, #4
 428              		.loc 2 51 0
 429 0180 900707E0 		mul	r7, r0, r7
 430              	.LVL44:
  49:C:/Renesas/e2studio_2021_01_workspace_RZA2M_ANPR/ANPR_RZA2M_GR_MANGO/src/tensorflow_lite/src/tensorflow/lite/kernels/internal/reference\arg_min_max.h ****     TFLITE_DCHECK_EQ(input1_shape.Dims(i), output_shape.Dims(i));
 431              		.loc 2 49 0
 432 0184 DCFFFF1A 		bne	.L7
 433              	.LVL45:
 434              	.L16:
 435              	.LBE290:
 436              	.LBB291:
  52:C:/Renesas/e2studio_2021_01_workspace_RZA2M_ANPR/ANPR_RZA2M_GR_MANGO/src/tensorflow_lite/src/tensorflow/lite/kernels/internal/reference\arg_min_max.h ****   }
  53:C:/Renesas/e2studio_2021_01_workspace_RZA2M_ANPR/ANPR_RZA2M_GR_MANGO/src/tensorflow_lite/src/tensorflow/lite/kernels/internal/reference\arg_min_max.h **** 
  54:C:/Renesas/e2studio_2021_01_workspace_RZA2M_ANPR/ANPR_RZA2M_GR_MANGO/src/tensorflow_lite/src/tensorflow/lite/kernels/internal/reference\arg_min_max.h ****   int inner_size = 1;
  55:C:/Renesas/e2studio_2021_01_workspace_RZA2M_ANPR/ANPR_RZA2M_GR_MANGO/src/tensorflow_lite/src/tensorflow/lite/kernels/internal/reference\arg_min_max.h ****   const int dims_count = input1_shape.DimensionsCount();
  56:C:/Renesas/e2studio_2021_01_workspace_RZA2M_ANPR/ANPR_RZA2M_GR_MANGO/src/tensorflow_lite/src/tensorflow/lite/kernels/internal/reference\arg_min_max.h ****   for (int i = axis + 1; i < dims_count; ++i) {
 437              		.loc 2 56 0
 438 0188 012082E2 		add	r2, r2, #1
 439              	.LVL46:
 440 018c 040052E1 		cmp	r2, r4
 441 0190 F00000AA 		bge	.L51
 442              	.LVL47:
 443              	.L23:
  57:C:/Renesas/e2studio_2021_01_workspace_RZA2M_ANPR/ANPR_RZA2M_GR_MANGO/src/tensorflow_lite/src/tensorflow/lite/kernels/internal/reference\arg_min_max.h ****     TFLITE_DCHECK_EQ(input1_shape.Dims(i), output_shape.Dims(i - 1));
 444              		.loc 2 57 0
 445 0194 010042E2 		sub	r0, r2, #1
 446              	.LBB292:
 447              	.LBB293:
 448              		.loc 3 216 0
 449 0198 02E186E0 		add	lr, r6, r2, lsl #2
 450              	.LBE293:
 451              	.LBE292:
 452              	.LBB314:
 453              	.LBB315:
 215:C:/Renesas/e2studio_2021_01_workspace_RZA2M_ANPR/ANPR_RZA2M_GR_MANGO/src/tensorflow_lite/src/tensorflow/lite/kernels/internal\types.h ****     return size_ > kMaxSmallSize ? dims_pointer_[i] : dims_[i];
 454              		.loc 3 215 0
 455 019c 000055E1 		cmp	r5, r0
 456              	.LBE315:
 457              	.LBE314:
 458              	.LBB344:
 459              	.LBB294:
 460              		.loc 3 216 0
 461 01a0 04809EE5 		ldr	r8, [lr, #4]
 462              	.LVL48:
 463              	.LBE294:
 464              	.LBE344:
 465              	.LBB345:
 466              	.LBB316:
 215:C:/Renesas/e2studio_2021_01_workspace_RZA2M_ANPR/ANPR_RZA2M_GR_MANGO/src/tensorflow_lite/src/tensorflow/lite/kernels/internal\types.h ****     return size_ > kMaxSmallSize ? dims_pointer_[i] : dims_[i];
 467              		.loc 3 215 0
 468 01a4 D4FFFFDA 		ble	.L7
 469              		.loc 3 216 0
 470 01a8 043093E5 		ldr	r3, [r3, #4]
 471              	.LVL49:
 472 01ac 00E1A0E1 		lsl	lr, r0, #2
 473 01b0 000193E7 		ldr	r0, [r3, r0, lsl #2]
 474              	.LVL50:
 475              	.LBE316:
 476              	.LBE345:
 477              		.loc 2 57 0
 478 01b4 080050E1 		cmp	r0, r8
 479 01b8 CFFFFF1A 		bne	.L7
 480              	.LVL51:
  56:C:/Renesas/e2studio_2021_01_workspace_RZA2M_ANPR/ANPR_RZA2M_GR_MANGO/src/tensorflow_lite/src/tensorflow/lite/kernels/internal/reference\arg_min_max.h ****     TFLITE_DCHECK_EQ(input1_shape.Dims(i), output_shape.Dims(i - 1));
 481              		.loc 2 56 0
 482 01bc 019082E2 		add	r9, r2, #1
 483              	.LVL52:
 484 01c0 090054E1 		cmp	r4, r9
 485 01c4 E50000DA 		ble	.L45
 486              	.LVL53:
 487              	.LBB346:
 488              	.LBB295:
 489              		.loc 3 216 0
 490 01c8 098186E0 		add	r8, r6, r9, lsl #2
 491              	.LBE295:
 492              	.LBE346:
 493              	.LBB347:
 494              	.LBB317:
 215:C:/Renesas/e2studio_2021_01_workspace_RZA2M_ANPR/ANPR_RZA2M_GR_MANGO/src/tensorflow_lite/src/tensorflow/lite/kernels/internal\types.h ****     return size_ > kMaxSmallSize ? dims_pointer_[i] : dims_[i];
 495              		.loc 3 215 0
 496 01cc 020055E1 		cmp	r5, r2
 497              	.LBE317:
 498              	.LBE347:
 499              	.LBB348:
 500              	.LBB296:
 501              		.loc 3 216 0
 502 01d0 048098E5 		ldr	r8, [r8, #4]
 503              	.LVL54:
 504              	.LBE296:
 505              	.LBE348:
 506              	.LBB349:
 507              	.LBB318:
 215:C:/Renesas/e2studio_2021_01_workspace_RZA2M_ANPR/ANPR_RZA2M_GR_MANGO/src/tensorflow_lite/src/tensorflow/lite/kernels/internal\types.h ****     return size_ > kMaxSmallSize ? dims_pointer_[i] : dims_[i];
 508              		.loc 3 215 0
 509 01d4 C8FFFFDA 		ble	.L7
 510              		.loc 3 216 0
 511 01d8 0E3083E0 		add	r3, r3, lr
 512 01dc 04E093E5 		ldr	lr, [r3, #4]
 513              	.LVL55:
 514              	.LBE318:
 515              	.LBE349:
 516              		.loc 2 57 0
 517 01e0 08005EE1 		cmp	lr, r8
 518 01e4 C4FFFF1A 		bne	.L7
  56:C:/Renesas/e2studio_2021_01_workspace_RZA2M_ANPR/ANPR_RZA2M_GR_MANGO/src/tensorflow_lite/src/tensorflow/lite/kernels/internal/reference\arg_min_max.h ****     TFLITE_DCHECK_EQ(input1_shape.Dims(i), output_shape.Dims(i - 1));
 519              		.loc 2 56 0
 520 01e8 028082E2 		add	r8, r2, #2
  58:C:/Renesas/e2studio_2021_01_workspace_RZA2M_ANPR/ANPR_RZA2M_GR_MANGO/src/tensorflow_lite/src/tensorflow/lite/kernels/internal/reference\arg_min_max.h ****     inner_size *= input1_shape.Dims(i);
 521              		.loc 2 58 0
 522 01ec 900E0EE0 		mul	lr, r0, lr
 523              	.LVL56:
  56:C:/Renesas/e2studio_2021_01_workspace_RZA2M_ANPR/ANPR_RZA2M_GR_MANGO/src/tensorflow_lite/src/tensorflow/lite/kernels/internal/reference\arg_min_max.h ****     TFLITE_DCHECK_EQ(input1_shape.Dims(i), output_shape.Dims(i - 1));
 524              		.loc 2 56 0
 525 01f0 080054E1 		cmp	r4, r8
 526 01f4 120000DA 		ble	.L27
 527              	.LVL57:
 528              	.LBB350:
 529              	.LBB319:
 215:C:/Renesas/e2studio_2021_01_workspace_RZA2M_ANPR/ANPR_RZA2M_GR_MANGO/src/tensorflow_lite/src/tensorflow/lite/kernels/internal\types.h ****     return size_ > kMaxSmallSize ? dims_pointer_[i] : dims_[i];
 530              		.loc 3 215 0
 531 01f8 090055E1 		cmp	r5, r9
 532              	.LBE319:
 533              	.LBE350:
 534              	.LBB351:
 535              	.LBB297:
 536              		.loc 3 216 0
 537 01fc 080186E0 		add	r0, r6, r8, lsl #2
 538 0200 049090E5 		ldr	r9, [r0, #4]
 539              	.LVL58:
 540              	.LBE297:
 541              	.LBE351:
 542              	.LBB352:
 543              	.LBB320:
 215:C:/Renesas/e2studio_2021_01_workspace_RZA2M_ANPR/ANPR_RZA2M_GR_MANGO/src/tensorflow_lite/src/tensorflow/lite/kernels/internal\types.h ****     return size_ > kMaxSmallSize ? dims_pointer_[i] : dims_[i];
 544              		.loc 3 215 0
 545 0204 BCFFFFDA 		ble	.L7
 546              		.loc 3 216 0
 547 0208 080093E5 		ldr	r0, [r3, #8]
 548              	.LVL59:
 549              	.LBE320:
 550              	.LBE352:
  57:C:/Renesas/e2studio_2021_01_workspace_RZA2M_ANPR/ANPR_RZA2M_GR_MANGO/src/tensorflow_lite/src/tensorflow/lite/kernels/internal/reference\arg_min_max.h ****     inner_size *= input1_shape.Dims(i);
 551              		.loc 2 57 0
 552 020c 090050E1 		cmp	r0, r9
 553 0210 B9FFFF1A 		bne	.L7
  56:C:/Renesas/e2studio_2021_01_workspace_RZA2M_ANPR/ANPR_RZA2M_GR_MANGO/src/tensorflow_lite/src/tensorflow/lite/kernels/internal/reference\arg_min_max.h ****     TFLITE_DCHECK_EQ(input1_shape.Dims(i), output_shape.Dims(i - 1));
 554              		.loc 2 56 0
 555 0214 032082E2 		add	r2, r2, #3
 556              		.loc 2 58 0
 557 0218 900E0EE0 		mul	lr, r0, lr
 558              	.LVL60:
  56:C:/Renesas/e2studio_2021_01_workspace_RZA2M_ANPR/ANPR_RZA2M_GR_MANGO/src/tensorflow_lite/src/tensorflow/lite/kernels/internal/reference\arg_min_max.h ****     TFLITE_DCHECK_EQ(input1_shape.Dims(i), output_shape.Dims(i - 1));
 559              		.loc 2 56 0
 560 021c 020054E1 		cmp	r4, r2
 561 0220 070000DA 		ble	.L27
 562              	.LVL61:
 563              	.LBB353:
 564              	.LBB298:
 565              		.loc 3 216 0
 566 0224 022186E0 		add	r2, r6, r2, lsl #2
 567              	.LVL62:
 568              	.LBE298:
 569              	.LBE353:
 570              	.LBB354:
 571              	.LBB321:
 215:C:/Renesas/e2studio_2021_01_workspace_RZA2M_ANPR/ANPR_RZA2M_GR_MANGO/src/tensorflow_lite/src/tensorflow/lite/kernels/internal\types.h ****     return size_ > kMaxSmallSize ? dims_pointer_[i] : dims_[i];
 572              		.loc 3 215 0
 573 0228 080055E1 		cmp	r5, r8
 574              	.LBE321:
 575              	.LBE354:
 576              	.LBB355:
 577              	.LBB299:
 578              		.loc 3 216 0
 579 022c 042092E5 		ldr	r2, [r2, #4]
 580              	.LVL63:
 581              	.LBE299:
 582              	.LBE355:
 583              	.LBB356:
 584              	.LBB322:
 215:C:/Renesas/e2studio_2021_01_workspace_RZA2M_ANPR/ANPR_RZA2M_GR_MANGO/src/tensorflow_lite/src/tensorflow/lite/kernels/internal\types.h ****     return size_ > kMaxSmallSize ? dims_pointer_[i] : dims_[i];
 585              		.loc 3 215 0
 586 0230 B1FFFFDA 		ble	.L7
 587              		.loc 3 216 0
 588 0234 0C3093E5 		ldr	r3, [r3, #12]
 589              	.LVL64:
 590              	.LBE322:
 591              	.LBE356:
  57:C:/Renesas/e2studio_2021_01_workspace_RZA2M_ANPR/ANPR_RZA2M_GR_MANGO/src/tensorflow_lite/src/tensorflow/lite/kernels/internal/reference\arg_min_max.h ****     inner_size *= input1_shape.Dims(i);
 592              		.loc 2 57 0
 593 0238 020053E1 		cmp	r3, r2
 594 023c AEFFFF1A 		bne	.L7
 595              	.LVL65:
 596              	.L140:
 597              		.loc 2 58 0
 598 0240 920E0EE0 		mul	lr, r2, lr
 599              	.LVL66:
 600              	.L27:
 601              	.LBE291:
 602              	.LBB392:
  59:C:/Renesas/e2studio_2021_01_workspace_RZA2M_ANPR/ANPR_RZA2M_GR_MANGO/src/tensorflow_lite/src/tensorflow/lite/kernels/internal/reference\arg_min_max.h ****   }
  60:C:/Renesas/e2studio_2021_01_workspace_RZA2M_ANPR/ANPR_RZA2M_GR_MANGO/src/tensorflow_lite/src/tensorflow/lite/kernels/internal/reference\arg_min_max.h ****   for (int outer = 0; outer < outer_size; ++outer) {
 603              		.loc 2 60 0 discriminator 1
 604 0244 000057E3 		cmp	r7, #0
 605 0248 910000DA 		ble	.L147
 606              	.L21:
 607 024c 00005EE3 		cmp	lr, #0
 608 0250 BF0000DA 		ble	.L148
 609              	.LVL67:
 610              	.L34:
 611 0254 9C0E0BE0 		mul	fp, ip, lr
 612 0258 0E01A0E1 		lsl	r0, lr, #2
 613 025c 28909DE5 		ldr	r9, [sp, #40]
 614 0260 0180A0E1 		mov	r8, r1
 615 0264 046040E2 		sub	r6, r0, #4
 616              	.LBE392:
  54:C:/Renesas/e2studio_2021_01_workspace_RZA2M_ANPR/ANPR_RZA2M_GR_MANGO/src/tensorflow_lite/src/tensorflow/lite/kernels/internal/reference\arg_min_max.h ****   const int dims_count = input1_shape.DimensionsCount();
 617              		.loc 2 54 0 discriminator 1
 618 0268 00A0A0E3 		mov	r10, #0
 619 026c 0BB1A0E1 		lsl	fp, fp, #2
 620              	.LVL68:
 621              	.L30:
 622 0270 005088E0 		add	r5, r8, r0
 623 0274 0940A0E1 		mov	r4, r9
 624 0278 08E0A0E1 		mov	lr, r8
 625              	.LVL69:
 626              	.L29:
 627              	.LBB400:
 628              	.LBB393:
 629              	.LBB394:
 630              	.LBB395:
  61:C:/Renesas/e2studio_2021_01_workspace_RZA2M_ANPR/ANPR_RZA2M_GR_MANGO/src/tensorflow_lite/src/tensorflow/lite/kernels/internal/reference\arg_min_max.h ****     for (int inner = 0; inner < inner_size; ++inner) {
  62:C:/Renesas/e2studio_2021_01_workspace_RZA2M_ANPR/ANPR_RZA2M_GR_MANGO/src/tensorflow_lite/src/tensorflow/lite/kernels/internal/reference\arg_min_max.h ****       auto min_max_value = input1_data[outer * axis_size * inner_size + inner];
  63:C:/Renesas/e2studio_2021_01_workspace_RZA2M_ANPR/ANPR_RZA2M_GR_MANGO/src/tensorflow_lite/src/tensorflow/lite/kernels/internal/reference\arg_min_max.h ****       T2 min_max_index = 0;
  64:C:/Renesas/e2studio_2021_01_workspace_RZA2M_ANPR/ANPR_RZA2M_GR_MANGO/src/tensorflow_lite/src/tensorflow/lite/kernels/internal/reference\arg_min_max.h ****       for (int i = 1; i < axis_size; ++i) {
 631              		.loc 2 64 0
 632 027c 01005CE3 		cmp	ip, #1
 633              	.LBE395:
  62:C:/Renesas/e2studio_2021_01_workspace_RZA2M_ANPR/ANPR_RZA2M_GR_MANGO/src/tensorflow_lite/src/tensorflow/lite/kernels/internal/reference\arg_min_max.h ****       T2 min_max_index = 0;
 634              		.loc 2 62 0
 635 0280 017AFEEC 		vldmia.32	lr!, {s15}
 636              	.LVL70:
 637              	.LBB396:
 638              		.loc 2 64 0
 639 0284 AD0000DA 		ble	.L46
 640 0288 0E2086E0 		add	r2, r6, lr
 641 028c 0130A0E3 		mov	r3, #1
 642 0290 0010A0E3 		mov	r1, #0
 643              	.LVL71:
 644              	.L32:
 645 0294 007A92ED 		vldr.32	s14, [r2]
 646 0298 002082E0 		add	r2, r2, r0
 647 029c C77AF4EE 		vcmpe.f32	s15, s14
 648 02a0 10FAF1EE 		vmrs	APSR_nzcv, FPSCR
 649 02a4 0310A041 		movmi	r1, r3
 650 02a8 013083E2 		add	r3, r3, #1
 651 02ac 477AF04E 		vmovmi.f32	s15, s14
 652              	.LVL72:
 653 02b0 0C0053E1 		cmp	r3, ip
 654 02b4 F6FFFF1A 		bne	.L32
 655              	.LBE396:
 656              	.LBE394:
  61:C:/Renesas/e2studio_2021_01_workspace_RZA2M_ANPR/ANPR_RZA2M_GR_MANGO/src/tensorflow_lite/src/tensorflow/lite/kernels/internal/reference\arg_min_max.h ****     for (int inner = 0; inner < inner_size; ++inner) {
 657              		.loc 2 61 0 discriminator 2
 658 02b8 05005EE1 		cmp	lr, r5
 659              	.LBB397:
  65:C:/Renesas/e2studio_2021_01_workspace_RZA2M_ANPR/ANPR_RZA2M_GR_MANGO/src/tensorflow_lite/src/tensorflow/lite/kernels/internal/reference\arg_min_max.h ****         const auto& curr_value =
  66:C:/Renesas/e2studio_2021_01_workspace_RZA2M_ANPR/ANPR_RZA2M_GR_MANGO/src/tensorflow_lite/src/tensorflow/lite/kernels/internal/reference\arg_min_max.h ****             input1_data[(outer * axis_size + i) * inner_size + inner];
  67:C:/Renesas/e2studio_2021_01_workspace_RZA2M_ANPR/ANPR_RZA2M_GR_MANGO/src/tensorflow_lite/src/tensorflow/lite/kernels/internal/reference\arg_min_max.h ****         if (cmp(curr_value, min_max_value)) {
  68:C:/Renesas/e2studio_2021_01_workspace_RZA2M_ANPR/ANPR_RZA2M_GR_MANGO/src/tensorflow_lite/src/tensorflow/lite/kernels/internal/reference\arg_min_max.h ****           min_max_value = curr_value;
  69:C:/Renesas/e2studio_2021_01_workspace_RZA2M_ANPR/ANPR_RZA2M_GR_MANGO/src/tensorflow_lite/src/tensorflow/lite/kernels/internal/reference\arg_min_max.h ****           min_max_index = static_cast<T2>(i);
  70:C:/Renesas/e2studio_2021_01_workspace_RZA2M_ANPR/ANPR_RZA2M_GR_MANGO/src/tensorflow_lite/src/tensorflow/lite/kernels/internal/reference\arg_min_max.h ****         }
  71:C:/Renesas/e2studio_2021_01_workspace_RZA2M_ANPR/ANPR_RZA2M_GR_MANGO/src/tensorflow_lite/src/tensorflow/lite/kernels/internal/reference\arg_min_max.h ****       }
  72:C:/Renesas/e2studio_2021_01_workspace_RZA2M_ANPR/ANPR_RZA2M_GR_MANGO/src/tensorflow_lite/src/tensorflow/lite/kernels/internal/reference\arg_min_max.h ****       output_data[outer * inner_size + inner] = min_max_index;
 660              		.loc 2 72 0 discriminator 2
 661 02bc 041084E4 		str	r1, [r4], #4
 662              	.LVL73:
 663              	.LBE397:
  61:C:/Renesas/e2studio_2021_01_workspace_RZA2M_ANPR/ANPR_RZA2M_GR_MANGO/src/tensorflow_lite/src/tensorflow/lite/kernels/internal/reference\arg_min_max.h ****       auto min_max_value = input1_data[outer * axis_size * inner_size + inner];
 664              		.loc 2 61 0 discriminator 2
 665 02c0 EDFFFF1A 		bne	.L29
 666              	.LVL74:
 667              	.L149:
 668              	.LBE393:
  60:C:/Renesas/e2studio_2021_01_workspace_RZA2M_ANPR/ANPR_RZA2M_GR_MANGO/src/tensorflow_lite/src/tensorflow/lite/kernels/internal/reference\arg_min_max.h ****     for (int inner = 0; inner < inner_size; ++inner) {
 669              		.loc 2 60 0
 670 02c4 01A08AE2 		add	r10, r10, #1
 671              	.LVL75:
 672 02c8 0B8088E0 		add	r8, r8, fp
 673 02cc 07005AE1 		cmp	r10, r7
 674 02d0 009089E0 		add	r9, r9, r0
 675 02d4 E5FFFFBA 		blt	.L30
 676 02d8 F88FBDE8 		pop	{r3, r4, r5, r6, r7, r8, r9, r10, fp, pc}
 677              	.LVL76:
 678              	.L146:
 679              	.LBE400:
 680              	.LBB401:
 681              	.LBB198:
 682              		.loc 3 216 0
 683 02dc 040096E5 		ldr	r0, [r6, #4]
 684              	.LBE198:
 685              	.LBE401:
 686              	.LBB402:
  49:C:/Renesas/e2studio_2021_01_workspace_RZA2M_ANPR/ANPR_RZA2M_GR_MANGO/src/tensorflow_lite/src/tensorflow/lite/kernels/internal/reference\arg_min_max.h ****     TFLITE_DCHECK_EQ(input1_shape.Dims(i), output_shape.Dims(i));
 687              		.loc 2 49 0
 688 02e0 000052E3 		cmp	r2, #0
 689              	.LBE402:
 690              	.LBB403:
 691              	.LBB199:
 692              		.loc 3 216 0
 693 02e4 02C190E7 		ldr	ip, [r0, r2, lsl #2]
 694              	.LVL77:
 695              	.LBE199:
 696              	.LBE403:
 697              	.LBB404:
  49:C:/Renesas/e2studio_2021_01_workspace_RZA2M_ANPR/ANPR_RZA2M_GR_MANGO/src/tensorflow_lite/src/tensorflow/lite/kernels/internal/reference\arg_min_max.h ****     TFLITE_DCHECK_EQ(input1_shape.Dims(i), output_shape.Dims(i));
 698              		.loc 2 49 0
 699 02e8 D100000A 		beq	.L10
 700 02ec 050055E3 		cmp	r5, #5
 701 02f0 6B0000CA 		bgt	.L17
 702              	.LVL78:
 703              	.LBB269:
 704              	.LBB216:
 215:C:/Renesas/e2studio_2021_01_workspace_RZA2M_ANPR/ANPR_RZA2M_GR_MANGO/src/tensorflow_lite/src/tensorflow/lite/kernels/internal\types.h ****     return size_ > kMaxSmallSize ? dims_pointer_[i] : dims_[i];
 705              		.loc 3 215 0
 706 02f4 000055E3 		cmp	r5, #0
 707              	.LBE216:
 708              	.LBE269:
 709              	.LBB270:
 710              	.LBB240:
 711              		.loc 3 216 0
 712 02f8 007090E5 		ldr	r7, [r0]
 713              	.LVL79:
 714              	.LBE240:
 715              	.LBE270:
 716              	.LBB271:
 717              	.LBB217:
 215:C:/Renesas/e2studio_2021_01_workspace_RZA2M_ANPR/ANPR_RZA2M_GR_MANGO/src/tensorflow_lite/src/tensorflow/lite/kernels/internal\types.h ****     return size_ > kMaxSmallSize ? dims_pointer_[i] : dims_[i];
 718              		.loc 3 215 0
 719 02fc 7EFFFF0A 		beq	.L7
 720              	.LVL80:
 721              	.LBE217:
 722              	.LBE271:
  50:C:/Renesas/e2studio_2021_01_workspace_RZA2M_ANPR/ANPR_RZA2M_GR_MANGO/src/tensorflow_lite/src/tensorflow/lite/kernels/internal/reference\arg_min_max.h ****     outer_size *= input1_shape.Dims(i);
 723              		.loc 2 50 0
 724 0300 04E093E5 		ldr	lr, [r3, #4]
 725 0304 0E0057E1 		cmp	r7, lr
 726 0308 7BFFFF1A 		bne	.L7
 727              	.LVL81:
  49:C:/Renesas/e2studio_2021_01_workspace_RZA2M_ANPR/ANPR_RZA2M_GR_MANGO/src/tensorflow_lite/src/tensorflow/lite/kernels/internal/reference\arg_min_max.h ****     TFLITE_DCHECK_EQ(input1_shape.Dims(i), output_shape.Dims(i));
 728              		.loc 2 49 0
 729 030c 010052E3 		cmp	r2, #1
 730 0310 2300000A 		beq	.L18
 731              	.LVL82:
 732              	.LBB272:
 733              	.LBB218:
 215:C:/Renesas/e2studio_2021_01_workspace_RZA2M_ANPR/ANPR_RZA2M_GR_MANGO/src/tensorflow_lite/src/tensorflow/lite/kernels/internal\types.h ****     return size_ > kMaxSmallSize ? dims_pointer_[i] : dims_[i];
 734              		.loc 3 215 0
 735 0314 010055E3 		cmp	r5, #1
 736              	.LBE218:
 737              	.LBE272:
 738              	.LBB273:
 739              	.LBB241:
 740              		.loc 3 216 0
 741 0318 04E090E5 		ldr	lr, [r0, #4]
 742              	.LVL83:
 743              	.LBE241:
 744              	.LBE273:
 745              	.LBB274:
 746              	.LBB219:
 215:C:/Renesas/e2studio_2021_01_workspace_RZA2M_ANPR/ANPR_RZA2M_GR_MANGO/src/tensorflow_lite/src/tensorflow/lite/kernels/internal\types.h ****     return size_ > kMaxSmallSize ? dims_pointer_[i] : dims_[i];
 747              		.loc 3 215 0
 748 031c 76FFFF0A 		beq	.L7
 749              	.LVL84:
 750              	.LBE219:
 751              	.LBE274:
  50:C:/Renesas/e2studio_2021_01_workspace_RZA2M_ANPR/ANPR_RZA2M_GR_MANGO/src/tensorflow_lite/src/tensorflow/lite/kernels/internal/reference\arg_min_max.h ****     outer_size *= input1_shape.Dims(i);
 752              		.loc 2 50 0
 753 0320 088093E5 		ldr	r8, [r3, #8]
 754 0324 08005EE1 		cmp	lr, r8
 755 0328 73FFFF1A 		bne	.L7
  49:C:/Renesas/e2studio_2021_01_workspace_RZA2M_ANPR/ANPR_RZA2M_GR_MANGO/src/tensorflow_lite/src/tensorflow/lite/kernels/internal/reference\arg_min_max.h ****     TFLITE_DCHECK_EQ(input1_shape.Dims(i), output_shape.Dims(i));
 756              		.loc 2 49 0
 757 032c 020052E3 		cmp	r2, #2
  51:C:/Renesas/e2studio_2021_01_workspace_RZA2M_ANPR/ANPR_RZA2M_GR_MANGO/src/tensorflow_lite/src/tensorflow/lite/kernels/internal/reference\arg_min_max.h ****   }
 758              		.loc 2 51 0
 759 0330 9E0707E0 		mul	r7, lr, r7
 760              	.LVL85:
  49:C:/Renesas/e2studio_2021_01_workspace_RZA2M_ANPR/ANPR_RZA2M_GR_MANGO/src/tensorflow_lite/src/tensorflow/lite/kernels/internal/reference\arg_min_max.h ****     TFLITE_DCHECK_EQ(input1_shape.Dims(i), output_shape.Dims(i));
 761              		.loc 2 49 0
 762 0334 1A00000A 		beq	.L18
 763              	.LVL86:
 764              	.LBB275:
 765              	.LBB220:
 215:C:/Renesas/e2studio_2021_01_workspace_RZA2M_ANPR/ANPR_RZA2M_GR_MANGO/src/tensorflow_lite/src/tensorflow/lite/kernels/internal\types.h ****     return size_ > kMaxSmallSize ? dims_pointer_[i] : dims_[i];
 766              		.loc 3 215 0
 767 0338 020055E3 		cmp	r5, #2
 768              	.LBE220:
 769              	.LBE275:
 770              	.LBB276:
 771              	.LBB242:
 772              		.loc 3 216 0
 773 033c 08E090E5 		ldr	lr, [r0, #8]
 774              	.LVL87:
 775              	.LBE242:
 776              	.LBE276:
 777              	.LBB277:
 778              	.LBB221:
 215:C:/Renesas/e2studio_2021_01_workspace_RZA2M_ANPR/ANPR_RZA2M_GR_MANGO/src/tensorflow_lite/src/tensorflow/lite/kernels/internal\types.h ****     return size_ > kMaxSmallSize ? dims_pointer_[i] : dims_[i];
 779              		.loc 3 215 0
 780 0340 6DFFFF0A 		beq	.L7
 781              	.LVL88:
 782              	.LBE221:
 783              	.LBE277:
  50:C:/Renesas/e2studio_2021_01_workspace_RZA2M_ANPR/ANPR_RZA2M_GR_MANGO/src/tensorflow_lite/src/tensorflow/lite/kernels/internal/reference\arg_min_max.h ****     outer_size *= input1_shape.Dims(i);
 784              		.loc 2 50 0
 785 0344 0C8093E5 		ldr	r8, [r3, #12]
 786 0348 08005EE1 		cmp	lr, r8
 787 034c 6AFFFF1A 		bne	.L7
  49:C:/Renesas/e2studio_2021_01_workspace_RZA2M_ANPR/ANPR_RZA2M_GR_MANGO/src/tensorflow_lite/src/tensorflow/lite/kernels/internal/reference\arg_min_max.h ****     TFLITE_DCHECK_EQ(input1_shape.Dims(i), output_shape.Dims(i));
 788              		.loc 2 49 0
 789 0350 030052E3 		cmp	r2, #3
  51:C:/Renesas/e2studio_2021_01_workspace_RZA2M_ANPR/ANPR_RZA2M_GR_MANGO/src/tensorflow_lite/src/tensorflow/lite/kernels/internal/reference\arg_min_max.h ****   }
 790              		.loc 2 51 0
 791 0354 9E0707E0 		mul	r7, lr, r7
 792              	.LVL89:
  49:C:/Renesas/e2studio_2021_01_workspace_RZA2M_ANPR/ANPR_RZA2M_GR_MANGO/src/tensorflow_lite/src/tensorflow/lite/kernels/internal/reference\arg_min_max.h ****     TFLITE_DCHECK_EQ(input1_shape.Dims(i), output_shape.Dims(i));
 793              		.loc 2 49 0
 794 0358 1100000A 		beq	.L18
 795              	.LVL90:
 796              	.LBB278:
 797              	.LBB222:
 215:C:/Renesas/e2studio_2021_01_workspace_RZA2M_ANPR/ANPR_RZA2M_GR_MANGO/src/tensorflow_lite/src/tensorflow/lite/kernels/internal\types.h ****     return size_ > kMaxSmallSize ? dims_pointer_[i] : dims_[i];
 798              		.loc 3 215 0
 799 035c 030055E3 		cmp	r5, #3
 800              	.LBE222:
 801              	.LBE278:
 802              	.LBB279:
 803              	.LBB243:
 804              		.loc 3 216 0
 805 0360 0CE090E5 		ldr	lr, [r0, #12]
 806              	.LVL91:
 807              	.LBE243:
 808              	.LBE279:
 809              	.LBB280:
 810              	.LBB223:
 215:C:/Renesas/e2studio_2021_01_workspace_RZA2M_ANPR/ANPR_RZA2M_GR_MANGO/src/tensorflow_lite/src/tensorflow/lite/kernels/internal\types.h ****     return size_ > kMaxSmallSize ? dims_pointer_[i] : dims_[i];
 811              		.loc 3 215 0
 812 0364 64FFFF0A 		beq	.L7
 813              	.LVL92:
 814              	.LBE223:
 815              	.LBE280:
  50:C:/Renesas/e2studio_2021_01_workspace_RZA2M_ANPR/ANPR_RZA2M_GR_MANGO/src/tensorflow_lite/src/tensorflow/lite/kernels/internal/reference\arg_min_max.h ****     outer_size *= input1_shape.Dims(i);
 816              		.loc 2 50 0
 817 0368 108093E5 		ldr	r8, [r3, #16]
 818 036c 08005EE1 		cmp	lr, r8
 819 0370 61FFFF1A 		bne	.L7
  49:C:/Renesas/e2studio_2021_01_workspace_RZA2M_ANPR/ANPR_RZA2M_GR_MANGO/src/tensorflow_lite/src/tensorflow/lite/kernels/internal/reference\arg_min_max.h ****     TFLITE_DCHECK_EQ(input1_shape.Dims(i), output_shape.Dims(i));
 820              		.loc 2 49 0
 821 0374 040052E3 		cmp	r2, #4
  51:C:/Renesas/e2studio_2021_01_workspace_RZA2M_ANPR/ANPR_RZA2M_GR_MANGO/src/tensorflow_lite/src/tensorflow/lite/kernels/internal/reference\arg_min_max.h ****   }
 822              		.loc 2 51 0
 823 0378 9E0707E0 		mul	r7, lr, r7
 824              	.LVL93:
  49:C:/Renesas/e2studio_2021_01_workspace_RZA2M_ANPR/ANPR_RZA2M_GR_MANGO/src/tensorflow_lite/src/tensorflow/lite/kernels/internal/reference\arg_min_max.h ****     TFLITE_DCHECK_EQ(input1_shape.Dims(i), output_shape.Dims(i));
 825              		.loc 2 49 0
 826 037c 0800000A 		beq	.L18
 827              	.LVL94:
 828              	.LBB281:
 829              	.LBB224:
 215:C:/Renesas/e2studio_2021_01_workspace_RZA2M_ANPR/ANPR_RZA2M_GR_MANGO/src/tensorflow_lite/src/tensorflow/lite/kernels/internal\types.h ****     return size_ > kMaxSmallSize ? dims_pointer_[i] : dims_[i];
 830              		.loc 3 215 0
 831 0380 050055E3 		cmp	r5, #5
 832              	.LBE224:
 833              	.LBE281:
 834              	.LBB282:
 835              	.LBB244:
 836              		.loc 3 216 0
 837 0384 100090E5 		ldr	r0, [r0, #16]
 838              	.LVL95:
 839              	.LBE244:
 840              	.LBE282:
 841              	.LBB283:
 842              	.LBB225:
 215:C:/Renesas/e2studio_2021_01_workspace_RZA2M_ANPR/ANPR_RZA2M_GR_MANGO/src/tensorflow_lite/src/tensorflow/lite/kernels/internal\types.h ****     return size_ > kMaxSmallSize ? dims_pointer_[i] : dims_[i];
 843              		.loc 3 215 0
 844 0388 5BFFFF1A 		bne	.L7
 845              	.LVL96:
 846              	.LBE225:
 847              	.LBE283:
  50:C:/Renesas/e2studio_2021_01_workspace_RZA2M_ANPR/ANPR_RZA2M_GR_MANGO/src/tensorflow_lite/src/tensorflow/lite/kernels/internal/reference\arg_min_max.h ****     outer_size *= input1_shape.Dims(i);
 848              		.loc 2 50 0
 849 038c 14E093E5 		ldr	lr, [r3, #20]
 850 0390 0E0050E1 		cmp	r0, lr
 851 0394 58FFFF1A 		bne	.L7
  49:C:/Renesas/e2studio_2021_01_workspace_RZA2M_ANPR/ANPR_RZA2M_GR_MANGO/src/tensorflow_lite/src/tensorflow/lite/kernels/internal/reference\arg_min_max.h ****     TFLITE_DCHECK_EQ(input1_shape.Dims(i), output_shape.Dims(i));
 852              		.loc 2 49 0
 853 0398 050052E3 		cmp	r2, #5
  51:C:/Renesas/e2studio_2021_01_workspace_RZA2M_ANPR/ANPR_RZA2M_GR_MANGO/src/tensorflow_lite/src/tensorflow/lite/kernels/internal/reference\arg_min_max.h ****   }
 854              		.loc 2 51 0
 855 039c 900707E0 		mul	r7, r0, r7
 856              	.LVL97:
  49:C:/Renesas/e2studio_2021_01_workspace_RZA2M_ANPR/ANPR_RZA2M_GR_MANGO/src/tensorflow_lite/src/tensorflow/lite/kernels/internal/reference\arg_min_max.h ****     TFLITE_DCHECK_EQ(input1_shape.Dims(i), output_shape.Dims(i));
 857              		.loc 2 49 0
 858 03a0 55FFFF1A 		bne	.L7
 859              	.LVL98:
 860              	.L18:
 861              	.LBE404:
 862              	.LBB405:
  56:C:/Renesas/e2studio_2021_01_workspace_RZA2M_ANPR/ANPR_RZA2M_GR_MANGO/src/tensorflow_lite/src/tensorflow/lite/kernels/internal/reference\arg_min_max.h ****     TFLITE_DCHECK_EQ(input1_shape.Dims(i), output_shape.Dims(i - 1));
 863              		.loc 2 56 0
 864 03a4 012082E2 		add	r2, r2, #1
 865              	.LVL99:
 866 03a8 020054E1 		cmp	r4, r2
 867 03ac 690000DA 		ble	.L51
 868              	.LVL100:
 869              	.L36:
 870 03b0 046096E5 		ldr	r6, [r6, #4]
 871              	.LVL101:
  57:C:/Renesas/e2studio_2021_01_workspace_RZA2M_ANPR/ANPR_RZA2M_GR_MANGO/src/tensorflow_lite/src/tensorflow/lite/kernels/internal/reference\arg_min_max.h ****     inner_size *= input1_shape.Dims(i);
 872              		.loc 2 57 0
 873 03b4 019042E2 		sub	r9, r2, #1
 874              	.LBB357:
 875              	.LBB323:
 215:C:/Renesas/e2studio_2021_01_workspace_RZA2M_ANPR/ANPR_RZA2M_GR_MANGO/src/tensorflow_lite/src/tensorflow/lite/kernels/internal\types.h ****     return size_ > kMaxSmallSize ? dims_pointer_[i] : dims_[i];
 876              		.loc 3 215 0
 877 03b8 090055E1 		cmp	r5, r9
 878              	.LBE323:
 879              	.LBE357:
 880              	.LBB358:
 881              	.LBB300:
 882              		.loc 3 216 0
 883 03bc 0281A0E1 		lsl	r8, r2, #2
 884 03c0 020196E7 		ldr	r0, [r6, r2, lsl #2]
 885              	.LVL102:
 886              	.LBE300:
 887              	.LBE358:
 888              	.LBB359:
 889              	.LBB324:
 215:C:/Renesas/e2studio_2021_01_workspace_RZA2M_ANPR/ANPR_RZA2M_GR_MANGO/src/tensorflow_lite/src/tensorflow/lite/kernels/internal\types.h ****     return size_ > kMaxSmallSize ? dims_pointer_[i] : dims_[i];
 890              		.loc 3 215 0
 891 03c4 4CFFFFDA 		ble	.L7
 892              		.loc 3 216 0
 893 03c8 099183E0 		add	r9, r3, r9, lsl #2
 894              	.LVL103:
 895 03cc 04E099E5 		ldr	lr, [r9, #4]
 896              	.LVL104:
 897              	.LBE324:
 898              	.LBE359:
  57:C:/Renesas/e2studio_2021_01_workspace_RZA2M_ANPR/ANPR_RZA2M_GR_MANGO/src/tensorflow_lite/src/tensorflow/lite/kernels/internal/reference\arg_min_max.h ****     inner_size *= input1_shape.Dims(i);
 899              		.loc 2 57 0
 900 03d0 0E0050E1 		cmp	r0, lr
 901 03d4 48FFFF1A 		bne	.L7
 902              	.LVL105:
  56:C:/Renesas/e2studio_2021_01_workspace_RZA2M_ANPR/ANPR_RZA2M_GR_MANGO/src/tensorflow_lite/src/tensorflow/lite/kernels/internal/reference\arg_min_max.h ****     TFLITE_DCHECK_EQ(input1_shape.Dims(i), output_shape.Dims(i - 1));
 903              		.loc 2 56 0
 904 03d8 019082E2 		add	r9, r2, #1
 905              	.LVL106:
 906 03dc 090054E1 		cmp	r4, r9
 907 03e0 5E0000DA 		ble	.L45
 908              	.LVL107:
 909              	.LBB360:
 910              	.LBB325:
 215:C:/Renesas/e2studio_2021_01_workspace_RZA2M_ANPR/ANPR_RZA2M_GR_MANGO/src/tensorflow_lite/src/tensorflow/lite/kernels/internal\types.h ****     return size_ > kMaxSmallSize ? dims_pointer_[i] : dims_[i];
 911              		.loc 3 215 0
 912 03e4 020055E1 		cmp	r5, r2
 913              	.LBE325:
 914              	.LBE360:
 915              	.LBB361:
 916              	.LBB301:
 917              		.loc 3 216 0
 918 03e8 086086E0 		add	r6, r6, r8
 919 03ec 04E096E5 		ldr	lr, [r6, #4]
 920              	.LVL108:
 921              	.LBE301:
 922              	.LBE361:
 923              	.LBB362:
 924              	.LBB326:
 215:C:/Renesas/e2studio_2021_01_workspace_RZA2M_ANPR/ANPR_RZA2M_GR_MANGO/src/tensorflow_lite/src/tensorflow/lite/kernels/internal\types.h ****     return size_ > kMaxSmallSize ? dims_pointer_[i] : dims_[i];
 925              		.loc 3 215 0
 926 03f0 41FFFFDA 		ble	.L7
 927              		.loc 3 216 0
 928 03f4 088083E0 		add	r8, r3, r8
 929 03f8 048098E5 		ldr	r8, [r8, #4]
 930              	.LVL109:
 931              	.LBE326:
 932              	.LBE362:
  57:C:/Renesas/e2studio_2021_01_workspace_RZA2M_ANPR/ANPR_RZA2M_GR_MANGO/src/tensorflow_lite/src/tensorflow/lite/kernels/internal/reference\arg_min_max.h ****     inner_size *= input1_shape.Dims(i);
 933              		.loc 2 57 0
 934 03fc 08005EE1 		cmp	lr, r8
 935 0400 3DFFFF1A 		bne	.L7
  56:C:/Renesas/e2studio_2021_01_workspace_RZA2M_ANPR/ANPR_RZA2M_GR_MANGO/src/tensorflow_lite/src/tensorflow/lite/kernels/internal/reference\arg_min_max.h ****     TFLITE_DCHECK_EQ(input1_shape.Dims(i), output_shape.Dims(i - 1));
 936              		.loc 2 56 0
 937 0404 028082E2 		add	r8, r2, #2
  58:C:/Renesas/e2studio_2021_01_workspace_RZA2M_ANPR/ANPR_RZA2M_GR_MANGO/src/tensorflow_lite/src/tensorflow/lite/kernels/internal/reference\arg_min_max.h ****   }
 938              		.loc 2 58 0
 939 0408 9E000EE0 		mul	lr, lr, r0
 940              	.LVL110:
  56:C:/Renesas/e2studio_2021_01_workspace_RZA2M_ANPR/ANPR_RZA2M_GR_MANGO/src/tensorflow_lite/src/tensorflow/lite/kernels/internal/reference\arg_min_max.h ****     TFLITE_DCHECK_EQ(input1_shape.Dims(i), output_shape.Dims(i - 1));
 941              		.loc 2 56 0
 942 040c 080054E1 		cmp	r4, r8
 943 0410 8BFFFFDA 		ble	.L27
 944              	.LVL111:
 945              	.LBB363:
 946              	.LBB327:
 215:C:/Renesas/e2studio_2021_01_workspace_RZA2M_ANPR/ANPR_RZA2M_GR_MANGO/src/tensorflow_lite/src/tensorflow/lite/kernels/internal\types.h ****     return size_ > kMaxSmallSize ? dims_pointer_[i] : dims_[i];
 947              		.loc 3 215 0
 948 0414 090055E1 		cmp	r5, r9
 949              	.LBE327:
 950              	.LBE363:
 951              	.LBB364:
 952              	.LBB302:
 953              		.loc 3 216 0
 954 0418 08A096E5 		ldr	r10, [r6, #8]
 955              	.LVL112:
 956              	.LBE302:
 957              	.LBE364:
 958              	.LBB365:
 959              	.LBB328:
 215:C:/Renesas/e2studio_2021_01_workspace_RZA2M_ANPR/ANPR_RZA2M_GR_MANGO/src/tensorflow_lite/src/tensorflow/lite/kernels/internal\types.h ****     return size_ > kMaxSmallSize ? dims_pointer_[i] : dims_[i];
 960              		.loc 3 215 0
 961 041c 36FFFFDA 		ble	.L7
 962              		.loc 3 216 0
 963 0420 099183E0 		add	r9, r3, r9, lsl #2
 964              	.LVL113:
 965 0424 040099E5 		ldr	r0, [r9, #4]
 966              	.LVL114:
 967              	.LBE328:
 968              	.LBE365:
  57:C:/Renesas/e2studio_2021_01_workspace_RZA2M_ANPR/ANPR_RZA2M_GR_MANGO/src/tensorflow_lite/src/tensorflow/lite/kernels/internal/reference\arg_min_max.h ****     inner_size *= input1_shape.Dims(i);
 969              		.loc 2 57 0
 970 0428 00005AE1 		cmp	r10, r0
 971 042c 32FFFF1A 		bne	.L7
  56:C:/Renesas/e2studio_2021_01_workspace_RZA2M_ANPR/ANPR_RZA2M_GR_MANGO/src/tensorflow_lite/src/tensorflow/lite/kernels/internal/reference\arg_min_max.h ****     TFLITE_DCHECK_EQ(input1_shape.Dims(i), output_shape.Dims(i - 1));
 972              		.loc 2 56 0
 973 0430 030082E2 		add	r0, r2, #3
  58:C:/Renesas/e2studio_2021_01_workspace_RZA2M_ANPR/ANPR_RZA2M_GR_MANGO/src/tensorflow_lite/src/tensorflow/lite/kernels/internal/reference\arg_min_max.h ****   }
 974              		.loc 2 58 0
 975 0434 9A0E0EE0 		mul	lr, r10, lr
 976              	.LVL115:
  56:C:/Renesas/e2studio_2021_01_workspace_RZA2M_ANPR/ANPR_RZA2M_GR_MANGO/src/tensorflow_lite/src/tensorflow/lite/kernels/internal/reference\arg_min_max.h ****     TFLITE_DCHECK_EQ(input1_shape.Dims(i), output_shape.Dims(i - 1));
 977              		.loc 2 56 0
 978 0438 000054E1 		cmp	r4, r0
 979 043c 80FFFFDA 		ble	.L27
 980              	.LVL116:
 981              	.LBB366:
 982              	.LBB329:
 215:C:/Renesas/e2studio_2021_01_workspace_RZA2M_ANPR/ANPR_RZA2M_GR_MANGO/src/tensorflow_lite/src/tensorflow/lite/kernels/internal\types.h ****     return size_ > kMaxSmallSize ? dims_pointer_[i] : dims_[i];
 983              		.loc 3 215 0
 984 0440 080055E1 		cmp	r5, r8
 985              	.LBE329:
 986              	.LBE366:
 987              	.LBB367:
 988              	.LBB303:
 989              		.loc 3 216 0
 990 0444 0C9096E5 		ldr	r9, [r6, #12]
 991              	.LVL117:
 992              	.LBE303:
 993              	.LBE367:
 994              	.LBB368:
 995              	.LBB330:
 215:C:/Renesas/e2studio_2021_01_workspace_RZA2M_ANPR/ANPR_RZA2M_GR_MANGO/src/tensorflow_lite/src/tensorflow/lite/kernels/internal\types.h ****     return size_ > kMaxSmallSize ? dims_pointer_[i] : dims_[i];
 996              		.loc 3 215 0
 997 0448 2BFFFFDA 		ble	.L7
 998              		.loc 3 216 0
 999 044c 088183E0 		add	r8, r3, r8, lsl #2
 1000              	.LVL118:
 1001 0450 048098E5 		ldr	r8, [r8, #4]
 1002              	.LVL119:
 1003              	.LBE330:
 1004              	.LBE368:
  57:C:/Renesas/e2studio_2021_01_workspace_RZA2M_ANPR/ANPR_RZA2M_GR_MANGO/src/tensorflow_lite/src/tensorflow/lite/kernels/internal/reference\arg_min_max.h ****     inner_size *= input1_shape.Dims(i);
 1005              		.loc 2 57 0
 1006 0454 080059E1 		cmp	r9, r8
 1007 0458 27FFFF1A 		bne	.L7
  56:C:/Renesas/e2studio_2021_01_workspace_RZA2M_ANPR/ANPR_RZA2M_GR_MANGO/src/tensorflow_lite/src/tensorflow/lite/kernels/internal/reference\arg_min_max.h ****     TFLITE_DCHECK_EQ(input1_shape.Dims(i), output_shape.Dims(i - 1));
 1008              		.loc 2 56 0
 1009 045c 042082E2 		add	r2, r2, #4
  58:C:/Renesas/e2studio_2021_01_workspace_RZA2M_ANPR/ANPR_RZA2M_GR_MANGO/src/tensorflow_lite/src/tensorflow/lite/kernels/internal/reference\arg_min_max.h ****   }
 1010              		.loc 2 58 0
 1011 0460 990E0EE0 		mul	lr, r9, lr
 1012              	.LVL120:
  56:C:/Renesas/e2studio_2021_01_workspace_RZA2M_ANPR/ANPR_RZA2M_GR_MANGO/src/tensorflow_lite/src/tensorflow/lite/kernels/internal/reference\arg_min_max.h ****     TFLITE_DCHECK_EQ(input1_shape.Dims(i), output_shape.Dims(i - 1));
 1013              		.loc 2 56 0
 1014 0464 020054E1 		cmp	r4, r2
 1015 0468 75FFFFDA 		ble	.L27
 1016              	.LVL121:
 1017              	.LBB369:
 1018              	.LBB331:
 215:C:/Renesas/e2studio_2021_01_workspace_RZA2M_ANPR/ANPR_RZA2M_GR_MANGO/src/tensorflow_lite/src/tensorflow/lite/kernels/internal\types.h ****     return size_ > kMaxSmallSize ? dims_pointer_[i] : dims_[i];
 1019              		.loc 3 215 0
 1020 046c 050050E1 		cmp	r0, r5
 1021              	.LBE331:
 1022              	.LBE369:
 1023              	.LBB370:
 1024              	.LBB304:
 1025              		.loc 3 216 0
 1026 0470 102096E5 		ldr	r2, [r6, #16]
 1027              	.LVL122:
 1028              	.LBE304:
 1029              	.LBE370:
 1030              	.LBB371:
 1031              	.LBB332:
 215:C:/Renesas/e2studio_2021_01_workspace_RZA2M_ANPR/ANPR_RZA2M_GR_MANGO/src/tensorflow_lite/src/tensorflow/lite/kernels/internal\types.h ****     return size_ > kMaxSmallSize ? dims_pointer_[i] : dims_[i];
 1032              		.loc 3 215 0
 1033 0474 20FFFFAA 		bge	.L7
 1034              		.loc 3 216 0
 1035 0478 003183E0 		add	r3, r3, r0, lsl #2
 1036              	.LVL123:
 1037 047c 043093E5 		ldr	r3, [r3, #4]
 1038              	.LVL124:
 1039              	.LBE332:
 1040              	.LBE371:
  57:C:/Renesas/e2studio_2021_01_workspace_RZA2M_ANPR/ANPR_RZA2M_GR_MANGO/src/tensorflow_lite/src/tensorflow/lite/kernels/internal/reference\arg_min_max.h ****     inner_size *= input1_shape.Dims(i);
 1041              		.loc 2 57 0
 1042 0480 020053E1 		cmp	r3, r2
 1043 0484 1CFFFF1A 		bne	.L7
 1044              	.LBE405:
 1045              	.LBB406:
  60:C:/Renesas/e2studio_2021_01_workspace_RZA2M_ANPR/ANPR_RZA2M_GR_MANGO/src/tensorflow_lite/src/tensorflow/lite/kernels/internal/reference\arg_min_max.h ****     for (int inner = 0; inner < inner_size; ++inner) {
 1046              		.loc 2 60 0
 1047 0488 000057E3 		cmp	r7, #0
 1048              	.LBE406:
 1049              	.LBB407:
  58:C:/Renesas/e2studio_2021_01_workspace_RZA2M_ANPR/ANPR_RZA2M_GR_MANGO/src/tensorflow_lite/src/tensorflow/lite/kernels/internal/reference\arg_min_max.h ****   }
 1050              		.loc 2 58 0
 1051 048c 930E0EE0 		mul	lr, r3, lr
 1052              	.LVL125:
 1053              	.LBE407:
 1054              	.LBB408:
  60:C:/Renesas/e2studio_2021_01_workspace_RZA2M_ANPR/ANPR_RZA2M_GR_MANGO/src/tensorflow_lite/src/tensorflow/lite/kernels/internal/reference\arg_min_max.h ****     for (int inner = 0; inner < inner_size; ++inner) {
 1055              		.loc 2 60 0
 1056 0490 6DFFFFCA 		bgt	.L21
 1057              	.LVL126:
 1058              	.L147:
 1059 0494 F88FBDE8 		pop	{r3, r4, r5, r6, r7, r8, r9, r10, fp, pc}
 1060              	.LVL127:
 1061              	.L145:
 1062              	.LBE408:
 1063              	.LBB409:
 1064              	.LBB200:
 214:C:/Renesas/e2studio_2021_01_workspace_RZA2M_ANPR/ANPR_RZA2M_GR_MANGO/src/tensorflow_lite/src/tensorflow/lite/kernels/internal\types.h ****     TFLITE_DCHECK_LT(i, size_);
 1065              		.loc 3 214 0
 1066 0498 042092E0 		adds	r2, r2, r4
 1067              	.LVL128:
 1068 049c E3FEFF5A 		bpl	.L8
 1069 04a0 15FFFFEA 		b	.L7
 1070              	.LVL129:
 1071              	.L17:
 1072 04a4 04E040E2 		sub	lr, r0, #4
 1073              	.LBE200:
 1074              	.LBE409:
 1075              	.LBB410:
  49:C:/Renesas/e2studio_2021_01_workspace_RZA2M_ANPR/ANPR_RZA2M_GR_MANGO/src/tensorflow_lite/src/tensorflow/lite/kernels/internal/reference\arg_min_max.h ****     TFLITE_DCHECK_EQ(input1_shape.Dims(i), output_shape.Dims(i));
 1076              		.loc 2 49 0
 1077 04a8 0170A0E3 		mov	r7, #1
 1078 04ac 0000A0E3 		mov	r0, #0
 1079 04b0 010000EA 		b	.L13
 1080              	.LVL130:
 1081              	.L137:
 1082              	.LBB284:
 1083              	.LBB245:
 215:C:/Renesas/e2studio_2021_01_workspace_RZA2M_ANPR/ANPR_RZA2M_GR_MANGO/src/tensorflow_lite/src/tensorflow/lite/kernels/internal\types.h ****     return size_ > kMaxSmallSize ? dims_pointer_[i] : dims_[i];
 1084              		.loc 3 215 0
 1085 04b4 040050E1 		cmp	r0, r4
 1086 04b8 0FFFFF0A 		beq	.L7
 1087              	.LVL131:
 1088              	.L13:
 1089              	.LBE245:
 1090              	.LBE284:
 1091              	.LBB285:
 1092              	.LBB226:
 1093 04bc 050050E1 		cmp	r0, r5
 1094              	.LBE226:
 1095              	.LBE285:
 1096              	.LBB286:
 1097              	.LBB246:
 1098              		.loc 3 216 0
 1099 04c0 0490BEE5 		ldr	r9, [lr, #4]!
 1100              	.LVL132:
 1101              	.LBE246:
 1102              	.LBE286:
 1103              	.LBB287:
 1104              	.LBB227:
 215:C:/Renesas/e2studio_2021_01_workspace_RZA2M_ANPR/ANPR_RZA2M_GR_MANGO/src/tensorflow_lite/src/tensorflow/lite/kernels/internal\types.h ****     return size_ > kMaxSmallSize ? dims_pointer_[i] : dims_[i];
 1105              		.loc 3 215 0
 1106 04c4 0CFFFF0A 		beq	.L7
 1107              		.loc 3 216 0
 1108 04c8 048093E5 		ldr	r8, [r3, #4]
 1109 04cc 008198E7 		ldr	r8, [r8, r0, lsl #2]
 1110              	.LVL133:
 1111              	.LBE227:
 1112              	.LBE287:
  50:C:/Renesas/e2studio_2021_01_workspace_RZA2M_ANPR/ANPR_RZA2M_GR_MANGO/src/tensorflow_lite/src/tensorflow/lite/kernels/internal/reference\arg_min_max.h ****     outer_size *= input1_shape.Dims(i);
 1113              		.loc 2 50 0
 1114 04d0 090058E1 		cmp	r8, r9
 1115 04d4 08FFFF1A 		bne	.L7
  49:C:/Renesas/e2studio_2021_01_workspace_RZA2M_ANPR/ANPR_RZA2M_GR_MANGO/src/tensorflow_lite/src/tensorflow/lite/kernels/internal/reference\arg_min_max.h ****     TFLITE_DCHECK_EQ(input1_shape.Dims(i), output_shape.Dims(i));
 1116              		.loc 2 49 0
 1117 04d8 010080E2 		add	r0, r0, #1
 1118              	.LVL134:
  51:C:/Renesas/e2studio_2021_01_workspace_RZA2M_ANPR/ANPR_RZA2M_GR_MANGO/src/tensorflow_lite/src/tensorflow/lite/kernels/internal/reference\arg_min_max.h ****   }
 1119              		.loc 2 51 0
 1120 04dc 980707E0 		mul	r7, r8, r7
 1121              	.LVL135:
  49:C:/Renesas/e2studio_2021_01_workspace_RZA2M_ANPR/ANPR_RZA2M_GR_MANGO/src/tensorflow_lite/src/tensorflow/lite/kernels/internal/reference\arg_min_max.h ****     TFLITE_DCHECK_EQ(input1_shape.Dims(i), output_shape.Dims(i));
 1122              		.loc 2 49 0
 1123 04e0 020050E1 		cmp	r0, r2
 1124 04e4 F2FFFF1A 		bne	.L137
 1125              	.LVL136:
 1126              	.LBE410:
 1127              	.LBB411:
  56:C:/Renesas/e2studio_2021_01_workspace_RZA2M_ANPR/ANPR_RZA2M_GR_MANGO/src/tensorflow_lite/src/tensorflow/lite/kernels/internal/reference\arg_min_max.h ****     TFLITE_DCHECK_EQ(input1_shape.Dims(i), output_shape.Dims(i - 1));
 1128              		.loc 2 56 0
 1129 04e8 012080E2 		add	r2, r0, #1
 1130              	.LVL137:
 1131 04ec 040052E1 		cmp	r2, r4
 1132 04f0 180000AA 		bge	.L51
 1133              	.LVL138:
 1134              	.L25:
 1135 04f4 040096E5 		ldr	r0, [r6, #4]
 1136              	.LBB372:
 1137              	.LBB333:
 1138              		.loc 3 216 0
 1139 04f8 0780E0E3 		mvn	r8, #7
 1140              	.LBE333:
 1141              	.LBE372:
 1142              	.LBE411:
  48:C:/Renesas/e2studio_2021_01_workspace_RZA2M_ANPR/ANPR_RZA2M_GR_MANGO/src/tensorflow_lite/src/tensorflow/lite/kernels/internal/reference\arg_min_max.h ****   for (int i = 0; i < axis; ++i) {
 1143              		.loc 2 48 0
 1144 04fc 01E0A0E3 		mov	lr, #1
 1145              	.LBB412:
 1146              	.LBB373:
 1147              	.LBB334:
 1148              		.loc 3 216 0
 1149 0500 008048E0 		sub	r8, r8, r0
 1150 0504 020180E0 		add	r0, r0, r2, lsl #2
 1151              	.LVL139:
 1152              	.L26:
 215:C:/Renesas/e2studio_2021_01_workspace_RZA2M_ANPR/ANPR_RZA2M_GR_MANGO/src/tensorflow_lite/src/tensorflow/lite/kernels/internal\types.h ****     return size_ > kMaxSmallSize ? dims_pointer_[i] : dims_[i];
 1153              		.loc 3 215 0
 1154 0508 016042E2 		sub	r6, r2, #1
 1155              	.LBE334:
 1156              	.LBE373:
 1157              	.LBB374:
 1158              	.LBB305:
 1159              		.loc 3 216 0
 1160 050c 049090E4 		ldr	r9, [r0], #4
 1161              	.LVL140:
 1162              	.LBE305:
 1163              	.LBE374:
 1164              	.LBB375:
 1165              	.LBB335:
 215:C:/Renesas/e2studio_2021_01_workspace_RZA2M_ANPR/ANPR_RZA2M_GR_MANGO/src/tensorflow_lite/src/tensorflow/lite/kernels/internal\types.h ****     return size_ > kMaxSmallSize ? dims_pointer_[i] : dims_[i];
 1166              		.loc 3 215 0
 1167 0510 060055E1 		cmp	r5, r6
 1168 0514 F8FEFFDA 		ble	.L7
 1169              		.loc 3 216 0
 1170 0518 046093E5 		ldr	r6, [r3, #4]
 1171              	.LVL141:
 1172 051c 006086E0 		add	r6, r6, r0
 1173 0520 086096E7 		ldr	r6, [r6, r8]
 1174              	.LVL142:
 1175              	.LBE335:
 1176              	.LBE375:
  57:C:/Renesas/e2studio_2021_01_workspace_RZA2M_ANPR/ANPR_RZA2M_GR_MANGO/src/tensorflow_lite/src/tensorflow/lite/kernels/internal/reference\arg_min_max.h ****     inner_size *= input1_shape.Dims(i);
 1177              		.loc 2 57 0
 1178 0524 090056E1 		cmp	r6, r9
 1179 0528 F3FEFF1A 		bne	.L7
  56:C:/Renesas/e2studio_2021_01_workspace_RZA2M_ANPR/ANPR_RZA2M_GR_MANGO/src/tensorflow_lite/src/tensorflow/lite/kernels/internal/reference\arg_min_max.h ****     TFLITE_DCHECK_EQ(input1_shape.Dims(i), output_shape.Dims(i - 1));
 1180              		.loc 2 56 0
 1181 052c 012082E2 		add	r2, r2, #1
 1182              	.LVL143:
  58:C:/Renesas/e2studio_2021_01_workspace_RZA2M_ANPR/ANPR_RZA2M_GR_MANGO/src/tensorflow_lite/src/tensorflow/lite/kernels/internal/reference\arg_min_max.h ****   }
 1183              		.loc 2 58 0
 1184 0530 960E0EE0 		mul	lr, r6, lr
 1185              	.LVL144:
  56:C:/Renesas/e2studio_2021_01_workspace_RZA2M_ANPR/ANPR_RZA2M_GR_MANGO/src/tensorflow_lite/src/tensorflow/lite/kernels/internal/reference\arg_min_max.h ****     TFLITE_DCHECK_EQ(input1_shape.Dims(i), output_shape.Dims(i - 1));
 1186              		.loc 2 56 0
 1187 0534 040052E1 		cmp	r2, r4
 1188 0538 F2FFFFBA 		blt	.L26
 1189 053c 40FFFFEA 		b	.L27
 1190              	.LVL145:
 1191              	.L46:
 1192              	.LBE412:
 1193              	.LBB413:
 1194              	.LBB399:
  61:C:/Renesas/e2studio_2021_01_workspace_RZA2M_ANPR/ANPR_RZA2M_GR_MANGO/src/tensorflow_lite/src/tensorflow/lite/kernels/internal/reference\arg_min_max.h ****       auto min_max_value = input1_data[outer * axis_size * inner_size + inner];
 1195              		.loc 2 61 0
 1196 0540 05005EE1 		cmp	lr, r5
 1197              	.LBB398:
  63:C:/Renesas/e2studio_2021_01_workspace_RZA2M_ANPR/ANPR_RZA2M_GR_MANGO/src/tensorflow_lite/src/tensorflow/lite/kernels/internal/reference\arg_min_max.h ****       for (int i = 1; i < axis_size; ++i) {
 1198              		.loc 2 63 0
 1199 0544 0010A0E3 		mov	r1, #0
 1200              		.loc 2 72 0
 1201 0548 041084E4 		str	r1, [r4], #4
 1202              	.LVL146:
 1203              	.LBE398:
  61:C:/Renesas/e2studio_2021_01_workspace_RZA2M_ANPR/ANPR_RZA2M_GR_MANGO/src/tensorflow_lite/src/tensorflow/lite/kernels/internal/reference\arg_min_max.h ****       auto min_max_value = input1_data[outer * axis_size * inner_size + inner];
 1204              		.loc 2 61 0
 1205 054c 4AFFFF1A 		bne	.L29
 1206 0550 5BFFFFEA 		b	.L149
 1207              	.LVL147:
 1208              	.L148:
 1209 0554 F88FBDE8 		pop	{r3, r4, r5, r6, r7, r8, r9, r10, fp, pc}
 1210              	.LVL148:
 1211              	.L51:
 1212              	.LBE399:
 1213              	.LBE413:
  54:C:/Renesas/e2studio_2021_01_workspace_RZA2M_ANPR/ANPR_RZA2M_GR_MANGO/src/tensorflow_lite/src/tensorflow/lite/kernels/internal/reference\arg_min_max.h ****   const int dims_count = input1_shape.DimensionsCount();
 1214              		.loc 2 54 0
 1215 0558 01E0A0E3 		mov	lr, #1
 1216 055c 38FFFFEA 		b	.L27
 1217              	.LVL149:
 1218              	.L45:
 1219              	.LBB414:
  56:C:/Renesas/e2studio_2021_01_workspace_RZA2M_ANPR/ANPR_RZA2M_GR_MANGO/src/tensorflow_lite/src/tensorflow/lite/kernels/internal/reference\arg_min_max.h ****     TFLITE_DCHECK_EQ(input1_shape.Dims(i), output_shape.Dims(i - 1));
 1220              		.loc 2 56 0
 1221 0560 00E0A0E1 		mov	lr, r0
 1222 0564 36FFFFEA 		b	.L27
 1223              	.LVL150:
 1224              	.L15:
 1225 0568 012082E2 		add	r2, r2, #1
 1226              	.LVL151:
 1227 056c 040052E1 		cmp	r2, r4
 1228 0570 F8FFFFAA 		bge	.L51
 1229              	.LVL152:
 1230              	.L37:
 1231              	.LBB376:
 1232              	.LBB306:
 1233              		.loc 3 216 0
 1234 0574 0291A0E1 		lsl	r9, r2, #2
 1235              	.LBE306:
 1236              	.LBE376:
  57:C:/Renesas/e2studio_2021_01_workspace_RZA2M_ANPR/ANPR_RZA2M_GR_MANGO/src/tensorflow_lite/src/tensorflow/lite/kernels/internal/reference\arg_min_max.h ****     inner_size *= input1_shape.Dims(i);
 1237              		.loc 2 57 0
 1238 0578 010042E2 		sub	r0, r2, #1
 1239              	.LBB377:
 1240              	.LBB336:
 215:C:/Renesas/e2studio_2021_01_workspace_RZA2M_ANPR/ANPR_RZA2M_GR_MANGO/src/tensorflow_lite/src/tensorflow/lite/kernels/internal\types.h ****     return size_ > kMaxSmallSize ? dims_pointer_[i] : dims_[i];
 1241              		.loc 3 215 0
 1242 057c 000055E1 		cmp	r5, r0
 1243              	.LBE336:
 1244              	.LBE377:
 1245              	.LBB378:
 1246              	.LBB307:
 1247              		.loc 3 216 0
 1248 0580 09E086E0 		add	lr, r6, r9
 1249 0584 04E09EE5 		ldr	lr, [lr, #4]
 1250              	.LVL153:
 1251              	.LBE307:
 1252              	.LBE378:
 1253              	.LBB379:
 1254              	.LBB337:
 215:C:/Renesas/e2studio_2021_01_workspace_RZA2M_ANPR/ANPR_RZA2M_GR_MANGO/src/tensorflow_lite/src/tensorflow/lite/kernels/internal\types.h ****     return size_ > kMaxSmallSize ? dims_pointer_[i] : dims_[i];
 1255              		.loc 3 215 0
 1256 0588 DBFEFFDA 		ble	.L7
 1257              		.loc 3 216 0
 1258 058c 000183E0 		add	r0, r3, r0, lsl #2
 1259              	.LVL154:
 1260 0590 040090E5 		ldr	r0, [r0, #4]
 1261              	.LVL155:
 1262              	.LBE337:
 1263              	.LBE379:
  57:C:/Renesas/e2studio_2021_01_workspace_RZA2M_ANPR/ANPR_RZA2M_GR_MANGO/src/tensorflow_lite/src/tensorflow/lite/kernels/internal/reference\arg_min_max.h ****     inner_size *= input1_shape.Dims(i);
 1264              		.loc 2 57 0
 1265 0594 0E0050E1 		cmp	r0, lr
 1266 0598 D7FEFF1A 		bne	.L7
 1267              	.LVL156:
  56:C:/Renesas/e2studio_2021_01_workspace_RZA2M_ANPR/ANPR_RZA2M_GR_MANGO/src/tensorflow_lite/src/tensorflow/lite/kernels/internal/reference\arg_min_max.h ****     TFLITE_DCHECK_EQ(input1_shape.Dims(i), output_shape.Dims(i - 1));
 1268              		.loc 2 56 0
 1269 059c 01A082E2 		add	r10, r2, #1
 1270              	.LVL157:
 1271 05a0 0A0054E1 		cmp	r4, r10
 1272 05a4 EDFFFFDA 		ble	.L45
 1273              	.LVL158:
 1274              	.LBB380:
 1275              	.LBB308:
 1276              		.loc 3 216 0
 1277 05a8 0A81A0E1 		lsl	r8, r10, #2
 1278              	.LBE308:
 1279              	.LBE380:
 1280              	.LBB381:
 1281              	.LBB338:
 215:C:/Renesas/e2studio_2021_01_workspace_RZA2M_ANPR/ANPR_RZA2M_GR_MANGO/src/tensorflow_lite/src/tensorflow/lite/kernels/internal\types.h ****     return size_ > kMaxSmallSize ? dims_pointer_[i] : dims_[i];
 1282              		.loc 3 215 0
 1283 05ac 020055E1 		cmp	r5, r2
 1284              	.LBE338:
 1285              	.LBE381:
 1286              	.LBB382:
 1287              	.LBB309:
 1288              		.loc 3 216 0
 1289 05b0 08E086E0 		add	lr, r6, r8
 1290 05b4 04E09EE5 		ldr	lr, [lr, #4]
 1291              	.LVL159:
 1292              	.LBE309:
 1293              	.LBE382:
 1294              	.LBB383:
 1295              	.LBB339:
 215:C:/Renesas/e2studio_2021_01_workspace_RZA2M_ANPR/ANPR_RZA2M_GR_MANGO/src/tensorflow_lite/src/tensorflow/lite/kernels/internal\types.h ****     return size_ > kMaxSmallSize ? dims_pointer_[i] : dims_[i];
 1296              		.loc 3 215 0
 1297 05b8 CFFEFFDA 		ble	.L7
 1298              		.loc 3 216 0
 1299 05bc 099083E0 		add	r9, r3, r9
 1300 05c0 049099E5 		ldr	r9, [r9, #4]
 1301              	.LVL160:
 1302              	.LBE339:
 1303              	.LBE383:
  57:C:/Renesas/e2studio_2021_01_workspace_RZA2M_ANPR/ANPR_RZA2M_GR_MANGO/src/tensorflow_lite/src/tensorflow/lite/kernels/internal/reference\arg_min_max.h ****     inner_size *= input1_shape.Dims(i);
 1304              		.loc 2 57 0
 1305 05c4 09005EE1 		cmp	lr, r9
 1306 05c8 CBFEFF1A 		bne	.L7
  56:C:/Renesas/e2studio_2021_01_workspace_RZA2M_ANPR/ANPR_RZA2M_GR_MANGO/src/tensorflow_lite/src/tensorflow/lite/kernels/internal/reference\arg_min_max.h ****     TFLITE_DCHECK_EQ(input1_shape.Dims(i), output_shape.Dims(i - 1));
 1307              		.loc 2 56 0
 1308 05cc 029082E2 		add	r9, r2, #2
  58:C:/Renesas/e2studio_2021_01_workspace_RZA2M_ANPR/ANPR_RZA2M_GR_MANGO/src/tensorflow_lite/src/tensorflow/lite/kernels/internal/reference\arg_min_max.h ****   }
 1309              		.loc 2 58 0
 1310 05d0 9E000EE0 		mul	lr, lr, r0
 1311              	.LVL161:
  56:C:/Renesas/e2studio_2021_01_workspace_RZA2M_ANPR/ANPR_RZA2M_GR_MANGO/src/tensorflow_lite/src/tensorflow/lite/kernels/internal/reference\arg_min_max.h ****     TFLITE_DCHECK_EQ(input1_shape.Dims(i), output_shape.Dims(i - 1));
 1312              		.loc 2 56 0
 1313 05d4 090054E1 		cmp	r4, r9
 1314 05d8 19FFFFDA 		ble	.L27
 1315              	.LVL162:
 1316              	.LBB384:
 1317              	.LBB310:
 1318              		.loc 3 216 0
 1319 05dc 0901A0E1 		lsl	r0, r9, #2
 1320              	.LBE310:
 1321              	.LBE384:
 1322              	.LBB385:
 1323              	.LBB340:
 215:C:/Renesas/e2studio_2021_01_workspace_RZA2M_ANPR/ANPR_RZA2M_GR_MANGO/src/tensorflow_lite/src/tensorflow/lite/kernels/internal\types.h ****     return size_ > kMaxSmallSize ? dims_pointer_[i] : dims_[i];
 1324              		.loc 3 215 0
 1325 05e0 0A0055E1 		cmp	r5, r10
 1326              	.LBE340:
 1327              	.LBE385:
 1328              	.LBB386:
 1329              	.LBB311:
 1330              		.loc 3 216 0
 1331 05e4 00A086E0 		add	r10, r6, r0
 1332 05e8 04A09AE5 		ldr	r10, [r10, #4]
 1333              	.LVL163:
 1334              	.LBE311:
 1335              	.LBE386:
 1336              	.LBB387:
 1337              	.LBB341:
 215:C:/Renesas/e2studio_2021_01_workspace_RZA2M_ANPR/ANPR_RZA2M_GR_MANGO/src/tensorflow_lite/src/tensorflow/lite/kernels/internal\types.h ****     return size_ > kMaxSmallSize ? dims_pointer_[i] : dims_[i];
 1338              		.loc 3 215 0
 1339 05ec C2FEFFDA 		ble	.L7
 1340              		.loc 3 216 0
 1341 05f0 088083E0 		add	r8, r3, r8
 1342 05f4 048098E5 		ldr	r8, [r8, #4]
 1343              	.LVL164:
 1344              	.LBE341:
 1345              	.LBE387:
  57:C:/Renesas/e2studio_2021_01_workspace_RZA2M_ANPR/ANPR_RZA2M_GR_MANGO/src/tensorflow_lite/src/tensorflow/lite/kernels/internal/reference\arg_min_max.h ****     inner_size *= input1_shape.Dims(i);
 1346              		.loc 2 57 0
 1347 05f8 0A0058E1 		cmp	r8, r10
 1348 05fc BEFEFF1A 		bne	.L7
  56:C:/Renesas/e2studio_2021_01_workspace_RZA2M_ANPR/ANPR_RZA2M_GR_MANGO/src/tensorflow_lite/src/tensorflow/lite/kernels/internal/reference\arg_min_max.h ****     TFLITE_DCHECK_EQ(input1_shape.Dims(i), output_shape.Dims(i - 1));
 1349              		.loc 2 56 0
 1350 0600 032082E2 		add	r2, r2, #3
  58:C:/Renesas/e2studio_2021_01_workspace_RZA2M_ANPR/ANPR_RZA2M_GR_MANGO/src/tensorflow_lite/src/tensorflow/lite/kernels/internal/reference\arg_min_max.h ****   }
 1351              		.loc 2 58 0
 1352 0604 980E0EE0 		mul	lr, r8, lr
 1353              	.LVL165:
  56:C:/Renesas/e2studio_2021_01_workspace_RZA2M_ANPR/ANPR_RZA2M_GR_MANGO/src/tensorflow_lite/src/tensorflow/lite/kernels/internal/reference\arg_min_max.h ****     TFLITE_DCHECK_EQ(input1_shape.Dims(i), output_shape.Dims(i - 1));
 1354              		.loc 2 56 0
 1355 0608 020054E1 		cmp	r4, r2
 1356 060c 0CFFFFDA 		ble	.L27
 1357              	.LVL166:
 1358              	.LBB388:
 1359              	.LBB312:
 1360              		.loc 3 216 0
 1361 0610 022186E0 		add	r2, r6, r2, lsl #2
 1362              	.LVL167:
 1363              	.LBE312:
 1364              	.LBE388:
 1365              	.LBB389:
 1366              	.LBB342:
 215:C:/Renesas/e2studio_2021_01_workspace_RZA2M_ANPR/ANPR_RZA2M_GR_MANGO/src/tensorflow_lite/src/tensorflow/lite/kernels/internal\types.h ****     return size_ > kMaxSmallSize ? dims_pointer_[i] : dims_[i];
 1367              		.loc 3 215 0
 1368 0614 090055E1 		cmp	r5, r9
 1369              	.LBE342:
 1370              	.LBE389:
 1371              	.LBB390:
 1372              	.LBB313:
 1373              		.loc 3 216 0
 1374 0618 042092E5 		ldr	r2, [r2, #4]
 1375              	.LVL168:
 1376              	.LBE313:
 1377              	.LBE390:
 1378              	.LBB391:
 1379              	.LBB343:
 215:C:/Renesas/e2studio_2021_01_workspace_RZA2M_ANPR/ANPR_RZA2M_GR_MANGO/src/tensorflow_lite/src/tensorflow/lite/kernels/internal\types.h ****     return size_ > kMaxSmallSize ? dims_pointer_[i] : dims_[i];
 1380              		.loc 3 215 0
 1381 061c B6FEFFDA 		ble	.L7
 1382              		.loc 3 216 0
 1383 0620 003083E0 		add	r3, r3, r0
 1384              	.LVL169:
 1385 0624 043093E5 		ldr	r3, [r3, #4]
 1386              	.LVL170:
 1387              	.LBE343:
 1388              	.LBE391:
  57:C:/Renesas/e2studio_2021_01_workspace_RZA2M_ANPR/ANPR_RZA2M_GR_MANGO/src/tensorflow_lite/src/tensorflow/lite/kernels/internal/reference\arg_min_max.h ****     inner_size *= input1_shape.Dims(i);
 1389              		.loc 2 57 0
 1390 0628 020053E1 		cmp	r3, r2
 1391 062c 03FFFF0A 		beq	.L140
 1392 0630 B1FEFFEA 		b	.L7
 1393              	.LVL171:
 1394              	.L10:
  56:C:/Renesas/e2studio_2021_01_workspace_RZA2M_ANPR/ANPR_RZA2M_GR_MANGO/src/tensorflow_lite/src/tensorflow/lite/kernels/internal/reference\arg_min_max.h ****     TFLITE_DCHECK_EQ(input1_shape.Dims(i), output_shape.Dims(i - 1));
 1395              		.loc 2 56 0
 1396 0634 010054E3 		cmp	r4, #1
 1397 0638 0120A0E3 		mov	r2, #1
 1398              	.LVL172:
 1399 063c 080000DA 		ble	.L150
 1400 0640 050054E3 		cmp	r4, #5
 1401              	.LBE414:
  48:C:/Renesas/e2studio_2021_01_workspace_RZA2M_ANPR/ANPR_RZA2M_GR_MANGO/src/tensorflow_lite/src/tensorflow/lite/kernels/internal/reference\arg_min_max.h ****   for (int i = 0; i < axis; ++i) {
 1402              		.loc 2 48 0
 1403 0644 0270A0E1 		mov	r7, r2
 1404 0648 020000CA 		bgt	.L22
 1405 064c 050055E3 		cmp	r5, #5
 1406 0650 C7FFFFDA 		ble	.L37
 1407 0654 CEFEFFEA 		b	.L23
 1408              	.L22:
 1409 0658 050055E3 		cmp	r5, #5
 1410 065c 53FFFFDA 		ble	.L36
 1411 0660 A3FFFFEA 		b	.L25
 1412              	.L150:
 1413 0664 0270A0E1 		mov	r7, r2
  54:C:/Renesas/e2studio_2021_01_workspace_RZA2M_ANPR/ANPR_RZA2M_GR_MANGO/src/tensorflow_lite/src/tensorflow/lite/kernels/internal/reference\arg_min_max.h ****   const int dims_count = input1_shape.DimensionsCount();
 1414              		.loc 2 54 0
 1415 0668 02E0A0E1 		mov	lr, r2
 1416 066c F8FEFFEA 		b	.L34
 1417              		.cfi_endproc
 1418              	.LFE1976:
 1419              		.fnend
 1421              		.section	.text._ZN6tflite13reference_ops9ArgMinMaxIfllNS_3ops5micro4LessEEEvRKNS_12RuntimeShapeEPK
 1422              		.align	2
 1423              		.weak	_ZN6tflite13reference_ops9ArgMinMaxIfllNS_3ops5micro4LessEEEvRKNS_12RuntimeShapeEPKT_PKT1_S7
 1424              		.syntax unified
 1425              		.arm
 1426              		.fpu neon
 1428              	_ZN6tflite13reference_ops9ArgMinMaxIfllNS_3ops5micro4LessEEEvRKNS_12RuntimeShapeEPKT_PKT1_S7_PT0_RK
 1429              		.fnstart
 1430              	.LFB1977:
  36:C:/Renesas/e2studio_2021_01_workspace_RZA2M_ANPR/ANPR_RZA2M_GR_MANGO/src/tensorflow_lite/src/tensorflow/lite/kernels/internal/reference\arg_min_max.h ****                const T3* input2_data, const RuntimeShape& output_shape,
 1431              		.loc 2 36 0
 1432              		.cfi_startproc
 1433              		@ args = 8, pretend = 0, frame = 0
 1434              		@ frame_needed = 0, uses_anonymous_args = 0
 1435              	.LVL173:
 1436 0000 F84F2DE9 		push	{r3, r4, r5, r6, r7, r8, r9, r10, fp, lr}
 1437              		.save {r3, r4, r5, r6, r7, r8, r9, r10, fp, lr}
 1438              		.cfi_def_cfa_offset 40
 1439              		.cfi_offset 3, -40
 1440              		.cfi_offset 4, -36
 1441              		.cfi_offset 5, -32
 1442              		.cfi_offset 6, -28
 1443              		.cfi_offset 7, -24
 1444              		.cfi_offset 8, -20
 1445              		.cfi_offset 9, -16
 1446              		.cfi_offset 10, -12
 1447              		.cfi_offset 11, -8
 1448              		.cfi_offset 14, -4
 1449 0004 004090E5 		ldr	r4, [r0]
 1450              	.LVL174:
  39:C:/Renesas/e2studio_2021_01_workspace_RZA2M_ANPR/ANPR_RZA2M_GR_MANGO/src/tensorflow_lite/src/tensorflow/lite/kernels/internal/reference\arg_min_max.h ****   TFLITE_DCHECK_EQ(input1_shape.DimensionsCount() - 1,
 1451              		.loc 2 39 0
 1452 0008 000054E3 		cmp	r4, #0
 1453 000c 3A0000DA 		ble	.L153
 1454 0010 0060A0E1 		mov	r6, r0
 1455              	.LVL175:
  40:C:/Renesas/e2studio_2021_01_workspace_RZA2M_ANPR/ANPR_RZA2M_GR_MANGO/src/tensorflow_lite/src/tensorflow/lite/kernels/internal/reference\arg_min_max.h ****                    output_shape.DimensionsCount());
 1456              		.loc 2 40 0
 1457 0014 000093E5 		ldr	r0, [r3]
 1458              	.LVL176:
 1459 0018 015044E2 		sub	r5, r4, #1
 1460              	.LVL177:
 1461 001c 000055E1 		cmp	r5, r0
 1462 0020 3500001A 		bne	.L153
  42:C:/Renesas/e2studio_2021_01_workspace_RZA2M_ANPR/ANPR_RZA2M_GR_MANGO/src/tensorflow_lite/src/tensorflow/lite/kernels/internal/reference\arg_min_max.h ****   if (axis < 0) {
 1463              		.loc 2 42 0
 1464 0024 002092E5 		ldr	r2, [r2]
 1465              	.LVL178:
  43:C:/Renesas/e2studio_2021_01_workspace_RZA2M_ANPR/ANPR_RZA2M_GR_MANGO/src/tensorflow_lite/src/tensorflow/lite/kernels/internal/reference\arg_min_max.h ****     axis += input1_shape.DimensionsCount();
 1466              		.loc 2 43 0
 1467 0028 000052E3 		cmp	r2, #0
 1468 002c 190100BA 		blt	.L290
 1469              	.LVL179:
 1470              	.L154:
 1471              	.LBB436:
 1472              	.LBB437:
 215:C:/Renesas/e2studio_2021_01_workspace_RZA2M_ANPR/ANPR_RZA2M_GR_MANGO/src/tensorflow_lite/src/tensorflow/lite/kernels/internal\types.h ****     return size_ > kMaxSmallSize ? dims_pointer_[i] : dims_[i];
 1473              		.loc 3 215 0
 1474 0030 020054E1 		cmp	r4, r2
 1475 0034 300000DA 		ble	.L153
 1476              		.loc 3 216 0
 1477 0038 050054E3 		cmp	r4, #5
 1478 003c A60000CA 		bgt	.L291
 1479 0040 020186E0 		add	r0, r6, r2, lsl #2
 1480              	.LBE437:
 1481              	.LBE436:
 1482              	.LBB442:
  49:C:/Renesas/e2studio_2021_01_workspace_RZA2M_ANPR/ANPR_RZA2M_GR_MANGO/src/tensorflow_lite/src/tensorflow/lite/kernels/internal/reference\arg_min_max.h ****     TFLITE_DCHECK_EQ(input1_shape.Dims(i), output_shape.Dims(i));
 1483              		.loc 2 49 0
 1484 0044 000052E3 		cmp	r2, #0
 1485              	.LBE442:
 1486              	.LBB529:
 1487              	.LBB438:
 1488              		.loc 3 216 0
 1489 0048 04C090E5 		ldr	ip, [r0, #4]
 1490              	.LVL180:
 1491              	.LBE438:
 1492              	.LBE529:
 1493              	.LBB530:
  49:C:/Renesas/e2studio_2021_01_workspace_RZA2M_ANPR/ANPR_RZA2M_GR_MANGO/src/tensorflow_lite/src/tensorflow/lite/kernels/internal/reference\arg_min_max.h ****     TFLITE_DCHECK_EQ(input1_shape.Dims(i), output_shape.Dims(i));
 1494              		.loc 2 49 0
 1495 004c 7801000A 		beq	.L156
 1496 0050 050055E3 		cmp	r5, #5
 1497 0054 290000CA 		bgt	.L160
 1498              	.LVL181:
 1499              	.LBB443:
 1500              	.LBB444:
 215:C:/Renesas/e2studio_2021_01_workspace_RZA2M_ANPR/ANPR_RZA2M_GR_MANGO/src/tensorflow_lite/src/tensorflow/lite/kernels/internal\types.h ****     return size_ > kMaxSmallSize ? dims_pointer_[i] : dims_[i];
 1501              		.loc 3 215 0
 1502 0058 000055E3 		cmp	r5, #0
 1503              	.LBE444:
 1504              	.LBE443:
 1505              	.LBB469:
 1506              	.LBB470:
 1507              		.loc 3 216 0
 1508 005c 047096E5 		ldr	r7, [r6, #4]
 1509              	.LVL182:
 1510              	.LBE470:
 1511              	.LBE469:
 1512              	.LBB488:
 1513              	.LBB445:
 215:C:/Renesas/e2studio_2021_01_workspace_RZA2M_ANPR/ANPR_RZA2M_GR_MANGO/src/tensorflow_lite/src/tensorflow/lite/kernels/internal\types.h ****     return size_ > kMaxSmallSize ? dims_pointer_[i] : dims_[i];
 1514              		.loc 3 215 0
 1515 0060 2500000A 		beq	.L153
 1516              	.LVL183:
 1517              	.LBE445:
 1518              	.LBE488:
  50:C:/Renesas/e2studio_2021_01_workspace_RZA2M_ANPR/ANPR_RZA2M_GR_MANGO/src/tensorflow_lite/src/tensorflow/lite/kernels/internal/reference\arg_min_max.h ****     outer_size *= input1_shape.Dims(i);
 1519              		.loc 2 50 0
 1520 0064 040093E5 		ldr	r0, [r3, #4]
 1521 0068 000057E1 		cmp	r7, r0
 1522 006c 2200001A 		bne	.L153
 1523              	.LVL184:
  49:C:/Renesas/e2studio_2021_01_workspace_RZA2M_ANPR/ANPR_RZA2M_GR_MANGO/src/tensorflow_lite/src/tensorflow/lite/kernels/internal/reference\arg_min_max.h ****     TFLITE_DCHECK_EQ(input1_shape.Dims(i), output_shape.Dims(i));
 1524              		.loc 2 49 0
 1525 0070 010052E3 		cmp	r2, #1
 1526 0074 3B01000A 		beq	.L161
 1527              	.LVL185:
 1528              	.LBB489:
 1529              	.LBB471:
 215:C:/Renesas/e2studio_2021_01_workspace_RZA2M_ANPR/ANPR_RZA2M_GR_MANGO/src/tensorflow_lite/src/tensorflow/lite/kernels/internal\types.h ****     return size_ > kMaxSmallSize ? dims_pointer_[i] : dims_[i];
 1530              		.loc 3 215 0
 1531 0078 010054E3 		cmp	r4, #1
 1532 007c 1E00000A 		beq	.L153
 1533              	.LBE471:
 1534              	.LBE489:
 1535              	.LBB490:
 1536              	.LBB446:
 1537 0080 010055E3 		cmp	r5, #1
 1538              	.LBE446:
 1539              	.LBE490:
 1540              	.LBB491:
 1541              	.LBB472:
 1542              		.loc 3 216 0
 1543 0084 080096E5 		ldr	r0, [r6, #8]
 1544              	.LVL186:
 1545              	.LBE472:
 1546              	.LBE491:
 1547              	.LBB492:
 1548              	.LBB447:
 215:C:/Renesas/e2studio_2021_01_workspace_RZA2M_ANPR/ANPR_RZA2M_GR_MANGO/src/tensorflow_lite/src/tensorflow/lite/kernels/internal\types.h ****     return size_ > kMaxSmallSize ? dims_pointer_[i] : dims_[i];
 1549              		.loc 3 215 0
 1550 0088 1B00000A 		beq	.L153
 1551              	.LVL187:
 1552              	.LBE447:
 1553              	.LBE492:
  50:C:/Renesas/e2studio_2021_01_workspace_RZA2M_ANPR/ANPR_RZA2M_GR_MANGO/src/tensorflow_lite/src/tensorflow/lite/kernels/internal/reference\arg_min_max.h ****     outer_size *= input1_shape.Dims(i);
 1554              		.loc 2 50 0
 1555 008c 08E093E5 		ldr	lr, [r3, #8]
 1556 0090 0E0050E1 		cmp	r0, lr
 1557 0094 1800001A 		bne	.L153
  49:C:/Renesas/e2studio_2021_01_workspace_RZA2M_ANPR/ANPR_RZA2M_GR_MANGO/src/tensorflow_lite/src/tensorflow/lite/kernels/internal/reference\arg_min_max.h ****     TFLITE_DCHECK_EQ(input1_shape.Dims(i), output_shape.Dims(i));
 1558              		.loc 2 49 0
 1559 0098 020052E3 		cmp	r2, #2
  51:C:/Renesas/e2studio_2021_01_workspace_RZA2M_ANPR/ANPR_RZA2M_GR_MANGO/src/tensorflow_lite/src/tensorflow/lite/kernels/internal/reference\arg_min_max.h ****   }
 1560              		.loc 2 51 0
 1561 009c 900707E0 		mul	r7, r0, r7
 1562              	.LVL188:
  49:C:/Renesas/e2studio_2021_01_workspace_RZA2M_ANPR/ANPR_RZA2M_GR_MANGO/src/tensorflow_lite/src/tensorflow/lite/kernels/internal/reference\arg_min_max.h ****     TFLITE_DCHECK_EQ(input1_shape.Dims(i), output_shape.Dims(i));
 1563              		.loc 2 49 0
 1564 00a0 3001000A 		beq	.L161
 1565              	.LVL189:
 1566              	.LBB493:
 1567              	.LBB473:
 215:C:/Renesas/e2studio_2021_01_workspace_RZA2M_ANPR/ANPR_RZA2M_GR_MANGO/src/tensorflow_lite/src/tensorflow/lite/kernels/internal\types.h ****     return size_ > kMaxSmallSize ? dims_pointer_[i] : dims_[i];
 1568              		.loc 3 215 0
 1569 00a4 020054E3 		cmp	r4, #2
 1570 00a8 1300000A 		beq	.L153
 1571              	.LBE473:
 1572              	.LBE493:
 1573              	.LBB494:
 1574              	.LBB448:
 1575 00ac 020055E3 		cmp	r5, #2
 1576              	.LBE448:
 1577              	.LBE494:
 1578              	.LBB495:
 1579              	.LBB474:
 1580              		.loc 3 216 0
 1581 00b0 0C0096E5 		ldr	r0, [r6, #12]
 1582              	.LVL190:
 1583              	.LBE474:
 1584              	.LBE495:
 1585              	.LBB496:
 1586              	.LBB449:
 215:C:/Renesas/e2studio_2021_01_workspace_RZA2M_ANPR/ANPR_RZA2M_GR_MANGO/src/tensorflow_lite/src/tensorflow/lite/kernels/internal\types.h ****     return size_ > kMaxSmallSize ? dims_pointer_[i] : dims_[i];
 1587              		.loc 3 215 0
 1588 00b4 1000000A 		beq	.L153
 1589              	.LVL191:
 1590              	.LBE449:
 1591              	.LBE496:
  50:C:/Renesas/e2studio_2021_01_workspace_RZA2M_ANPR/ANPR_RZA2M_GR_MANGO/src/tensorflow_lite/src/tensorflow/lite/kernels/internal/reference\arg_min_max.h ****     outer_size *= input1_shape.Dims(i);
 1592              		.loc 2 50 0
 1593 00b8 0CE093E5 		ldr	lr, [r3, #12]
 1594 00bc 0E0050E1 		cmp	r0, lr
 1595 00c0 0D00001A 		bne	.L153
  49:C:/Renesas/e2studio_2021_01_workspace_RZA2M_ANPR/ANPR_RZA2M_GR_MANGO/src/tensorflow_lite/src/tensorflow/lite/kernels/internal/reference\arg_min_max.h ****     TFLITE_DCHECK_EQ(input1_shape.Dims(i), output_shape.Dims(i));
 1596              		.loc 2 49 0
 1597 00c4 030052E3 		cmp	r2, #3
  51:C:/Renesas/e2studio_2021_01_workspace_RZA2M_ANPR/ANPR_RZA2M_GR_MANGO/src/tensorflow_lite/src/tensorflow/lite/kernels/internal/reference\arg_min_max.h ****   }
 1598              		.loc 2 51 0
 1599 00c8 900707E0 		mul	r7, r0, r7
 1600              	.LVL192:
  49:C:/Renesas/e2studio_2021_01_workspace_RZA2M_ANPR/ANPR_RZA2M_GR_MANGO/src/tensorflow_lite/src/tensorflow/lite/kernels/internal/reference\arg_min_max.h ****     TFLITE_DCHECK_EQ(input1_shape.Dims(i), output_shape.Dims(i));
 1601              		.loc 2 49 0
 1602 00cc 2501000A 		beq	.L161
 1603              	.LVL193:
 1604              	.LBB497:
 1605              	.LBB475:
 215:C:/Renesas/e2studio_2021_01_workspace_RZA2M_ANPR/ANPR_RZA2M_GR_MANGO/src/tensorflow_lite/src/tensorflow/lite/kernels/internal\types.h ****     return size_ > kMaxSmallSize ? dims_pointer_[i] : dims_[i];
 1606              		.loc 3 215 0
 1607 00d0 030054E3 		cmp	r4, #3
 1608 00d4 0800000A 		beq	.L153
 1609              	.LBE475:
 1610              	.LBE497:
 1611              	.LBB498:
 1612              	.LBB450:
 1613 00d8 030055E3 		cmp	r5, #3
 1614              	.LBE450:
 1615              	.LBE498:
 1616              	.LBB499:
 1617              	.LBB476:
 1618              		.loc 3 216 0
 1619 00dc 100096E5 		ldr	r0, [r6, #16]
 1620              	.LVL194:
 1621              	.LBE476:
 1622              	.LBE499:
 1623              	.LBB500:
 1624              	.LBB451:
 215:C:/Renesas/e2studio_2021_01_workspace_RZA2M_ANPR/ANPR_RZA2M_GR_MANGO/src/tensorflow_lite/src/tensorflow/lite/kernels/internal\types.h ****     return size_ > kMaxSmallSize ? dims_pointer_[i] : dims_[i];
 1625              		.loc 3 215 0
 1626 00e0 0500000A 		beq	.L153
 1627              	.LVL195:
 1628              	.LBE451:
 1629              	.LBE500:
  50:C:/Renesas/e2studio_2021_01_workspace_RZA2M_ANPR/ANPR_RZA2M_GR_MANGO/src/tensorflow_lite/src/tensorflow/lite/kernels/internal/reference\arg_min_max.h ****     outer_size *= input1_shape.Dims(i);
 1630              		.loc 2 50 0
 1631 00e4 10E093E5 		ldr	lr, [r3, #16]
 1632 00e8 0E0050E1 		cmp	r0, lr
 1633 00ec 0200001A 		bne	.L153
  49:C:/Renesas/e2studio_2021_01_workspace_RZA2M_ANPR/ANPR_RZA2M_GR_MANGO/src/tensorflow_lite/src/tensorflow/lite/kernels/internal/reference\arg_min_max.h ****     TFLITE_DCHECK_EQ(input1_shape.Dims(i), output_shape.Dims(i));
 1634              		.loc 2 49 0
 1635 00f0 040052E3 		cmp	r2, #4
  51:C:/Renesas/e2studio_2021_01_workspace_RZA2M_ANPR/ANPR_RZA2M_GR_MANGO/src/tensorflow_lite/src/tensorflow/lite/kernels/internal/reference\arg_min_max.h ****   }
 1636              		.loc 2 51 0
 1637 00f4 900707E0 		mul	r7, r0, r7
 1638              	.LVL196:
  49:C:/Renesas/e2studio_2021_01_workspace_RZA2M_ANPR/ANPR_RZA2M_GR_MANGO/src/tensorflow_lite/src/tensorflow/lite/kernels/internal/reference\arg_min_max.h ****     TFLITE_DCHECK_EQ(input1_shape.Dims(i), output_shape.Dims(i));
 1639              		.loc 2 49 0
 1640 00f8 1A01000A 		beq	.L161
 1641              	.LVL197:
 1642              	.L153:
 1643              	.LBE530:
  39:C:/Renesas/e2studio_2021_01_workspace_RZA2M_ANPR/ANPR_RZA2M_GR_MANGO/src/tensorflow_lite/src/tensorflow/lite/kernels/internal/reference\arg_min_max.h ****   TFLITE_DCHECK_EQ(input1_shape.DimensionsCount() - 1,
 1644              		.loc 2 39 0 discriminator 1
 1645 00fc FEFFFFEB 		bl	abort
 1646              	.LVL198:
 1647              	.L160:
 1648              	.LBB531:
 1649              	.LBB501:
 1650              	.LBB452:
 1651              		.loc 3 216 0
 1652 0100 040093E5 		ldr	r0, [r3, #4]
 1653              	.LBE452:
 1654              	.LBE501:
 1655              	.LBB502:
 1656              	.LBB477:
 1657 0104 047096E5 		ldr	r7, [r6, #4]
 1658              	.LVL199:
 1659              	.LBE477:
 1660              	.LBE502:
 1661              	.LBB503:
 1662              	.LBB453:
 1663 0108 00E090E5 		ldr	lr, [r0]
 1664              	.LVL200:
 1665              	.LBE453:
 1666              	.LBE503:
  50:C:/Renesas/e2studio_2021_01_workspace_RZA2M_ANPR/ANPR_RZA2M_GR_MANGO/src/tensorflow_lite/src/tensorflow/lite/kernels/internal/reference\arg_min_max.h ****     outer_size *= input1_shape.Dims(i);
 1667              		.loc 2 50 0
 1668 010c 0E0057E1 		cmp	r7, lr
 1669 0110 F9FFFF1A 		bne	.L153
 1670              	.LVL201:
  49:C:/Renesas/e2studio_2021_01_workspace_RZA2M_ANPR/ANPR_RZA2M_GR_MANGO/src/tensorflow_lite/src/tensorflow/lite/kernels/internal/reference\arg_min_max.h ****     TFLITE_DCHECK_EQ(input1_shape.Dims(i), output_shape.Dims(i));
 1671              		.loc 2 49 0
 1672 0114 010052E3 		cmp	r2, #1
 1673 0118 1A00000A 		beq	.L162
 1674              	.LVL202:
 1675              	.LBB504:
 1676              	.LBB478:
 215:C:/Renesas/e2studio_2021_01_workspace_RZA2M_ANPR/ANPR_RZA2M_GR_MANGO/src/tensorflow_lite/src/tensorflow/lite/kernels/internal\types.h ****     return size_ > kMaxSmallSize ? dims_pointer_[i] : dims_[i];
 1677              		.loc 3 215 0
 1678 011c 010054E3 		cmp	r4, #1
 1679 0120 F5FFFF0A 		beq	.L153
 1680              	.LVL203:
 1681              	.LBE478:
 1682              	.LBE504:
 1683              	.LBB505:
 1684              	.LBB454:
 1685              		.loc 3 216 0
 1686 0124 048090E5 		ldr	r8, [r0, #4]
 1687              	.LVL204:
 1688              	.LBE454:
 1689              	.LBE505:
  50:C:/Renesas/e2studio_2021_01_workspace_RZA2M_ANPR/ANPR_RZA2M_GR_MANGO/src/tensorflow_lite/src/tensorflow/lite/kernels/internal/reference\arg_min_max.h ****     outer_size *= input1_shape.Dims(i);
 1690              		.loc 2 50 0
 1691 0128 08E096E5 		ldr	lr, [r6, #8]
 1692 012c 08005EE1 		cmp	lr, r8
 1693 0130 F1FFFF1A 		bne	.L153
  49:C:/Renesas/e2studio_2021_01_workspace_RZA2M_ANPR/ANPR_RZA2M_GR_MANGO/src/tensorflow_lite/src/tensorflow/lite/kernels/internal/reference\arg_min_max.h ****     TFLITE_DCHECK_EQ(input1_shape.Dims(i), output_shape.Dims(i));
 1694              		.loc 2 49 0
 1695 0134 020052E3 		cmp	r2, #2
  51:C:/Renesas/e2studio_2021_01_workspace_RZA2M_ANPR/ANPR_RZA2M_GR_MANGO/src/tensorflow_lite/src/tensorflow/lite/kernels/internal/reference\arg_min_max.h ****   }
 1696              		.loc 2 51 0
 1697 0138 9E0707E0 		mul	r7, lr, r7
 1698              	.LVL205:
  49:C:/Renesas/e2studio_2021_01_workspace_RZA2M_ANPR/ANPR_RZA2M_GR_MANGO/src/tensorflow_lite/src/tensorflow/lite/kernels/internal/reference\arg_min_max.h ****     TFLITE_DCHECK_EQ(input1_shape.Dims(i), output_shape.Dims(i));
 1699              		.loc 2 49 0
 1700 013c 1100000A 		beq	.L162
 1701              	.LVL206:
 1702              	.LBB506:
 1703              	.LBB479:
 215:C:/Renesas/e2studio_2021_01_workspace_RZA2M_ANPR/ANPR_RZA2M_GR_MANGO/src/tensorflow_lite/src/tensorflow/lite/kernels/internal\types.h ****     return size_ > kMaxSmallSize ? dims_pointer_[i] : dims_[i];
 1704              		.loc 3 215 0
 1705 0140 020054E3 		cmp	r4, #2
 1706 0144 ECFFFF0A 		beq	.L153
 1707              	.LVL207:
 1708              	.LBE479:
 1709              	.LBE506:
 1710              	.LBB507:
 1711              	.LBB455:
 1712              		.loc 3 216 0
 1713 0148 088090E5 		ldr	r8, [r0, #8]
 1714              	.LVL208:
 1715              	.LBE455:
 1716              	.LBE507:
  50:C:/Renesas/e2studio_2021_01_workspace_RZA2M_ANPR/ANPR_RZA2M_GR_MANGO/src/tensorflow_lite/src/tensorflow/lite/kernels/internal/reference\arg_min_max.h ****     outer_size *= input1_shape.Dims(i);
 1717              		.loc 2 50 0
 1718 014c 0CE096E5 		ldr	lr, [r6, #12]
 1719 0150 08005EE1 		cmp	lr, r8
 1720 0154 E8FFFF1A 		bne	.L153
  49:C:/Renesas/e2studio_2021_01_workspace_RZA2M_ANPR/ANPR_RZA2M_GR_MANGO/src/tensorflow_lite/src/tensorflow/lite/kernels/internal/reference\arg_min_max.h ****     TFLITE_DCHECK_EQ(input1_shape.Dims(i), output_shape.Dims(i));
 1721              		.loc 2 49 0
 1722 0158 030052E3 		cmp	r2, #3
  51:C:/Renesas/e2studio_2021_01_workspace_RZA2M_ANPR/ANPR_RZA2M_GR_MANGO/src/tensorflow_lite/src/tensorflow/lite/kernels/internal/reference\arg_min_max.h ****   }
 1723              		.loc 2 51 0
 1724 015c 9E0707E0 		mul	r7, lr, r7
 1725              	.LVL209:
  49:C:/Renesas/e2studio_2021_01_workspace_RZA2M_ANPR/ANPR_RZA2M_GR_MANGO/src/tensorflow_lite/src/tensorflow/lite/kernels/internal/reference\arg_min_max.h ****     TFLITE_DCHECK_EQ(input1_shape.Dims(i), output_shape.Dims(i));
 1726              		.loc 2 49 0
 1727 0160 0800000A 		beq	.L162
 1728              	.LVL210:
 1729              	.LBB508:
 1730              	.LBB480:
 215:C:/Renesas/e2studio_2021_01_workspace_RZA2M_ANPR/ANPR_RZA2M_GR_MANGO/src/tensorflow_lite/src/tensorflow/lite/kernels/internal\types.h ****     return size_ > kMaxSmallSize ? dims_pointer_[i] : dims_[i];
 1731              		.loc 3 215 0
 1732 0164 030054E3 		cmp	r4, #3
 1733 0168 E3FFFF0A 		beq	.L153
 1734              	.LVL211:
 1735              	.LBE480:
 1736              	.LBE508:
 1737              	.LBB509:
 1738              	.LBB456:
 1739              		.loc 3 216 0
 1740 016c 0CE090E5 		ldr	lr, [r0, #12]
 1741              	.LVL212:
 1742              	.LBE456:
 1743              	.LBE509:
  50:C:/Renesas/e2studio_2021_01_workspace_RZA2M_ANPR/ANPR_RZA2M_GR_MANGO/src/tensorflow_lite/src/tensorflow/lite/kernels/internal/reference\arg_min_max.h ****     outer_size *= input1_shape.Dims(i);
 1744              		.loc 2 50 0
 1745 0170 100096E5 		ldr	r0, [r6, #16]
 1746 0174 0E0050E1 		cmp	r0, lr
 1747 0178 DFFFFF1A 		bne	.L153
  49:C:/Renesas/e2studio_2021_01_workspace_RZA2M_ANPR/ANPR_RZA2M_GR_MANGO/src/tensorflow_lite/src/tensorflow/lite/kernels/internal/reference\arg_min_max.h ****     TFLITE_DCHECK_EQ(input1_shape.Dims(i), output_shape.Dims(i));
 1748              		.loc 2 49 0
 1749 017c 040052E3 		cmp	r2, #4
  51:C:/Renesas/e2studio_2021_01_workspace_RZA2M_ANPR/ANPR_RZA2M_GR_MANGO/src/tensorflow_lite/src/tensorflow/lite/kernels/internal/reference\arg_min_max.h ****   }
 1750              		.loc 2 51 0
 1751 0180 900707E0 		mul	r7, r0, r7
 1752              	.LVL213:
  49:C:/Renesas/e2studio_2021_01_workspace_RZA2M_ANPR/ANPR_RZA2M_GR_MANGO/src/tensorflow_lite/src/tensorflow/lite/kernels/internal/reference\arg_min_max.h ****     TFLITE_DCHECK_EQ(input1_shape.Dims(i), output_shape.Dims(i));
 1753              		.loc 2 49 0
 1754 0184 DCFFFF1A 		bne	.L153
 1755              	.LVL214:
 1756              	.L162:
 1757              	.LBE531:
 1758              	.LBB532:
  56:C:/Renesas/e2studio_2021_01_workspace_RZA2M_ANPR/ANPR_RZA2M_GR_MANGO/src/tensorflow_lite/src/tensorflow/lite/kernels/internal/reference\arg_min_max.h ****     TFLITE_DCHECK_EQ(input1_shape.Dims(i), output_shape.Dims(i - 1));
 1759              		.loc 2 56 0
 1760 0188 012082E2 		add	r2, r2, #1
 1761              	.LVL215:
 1762 018c 040052E1 		cmp	r2, r4
 1763 0190 F00000AA 		bge	.L197
 1764              	.LVL216:
 1765              	.L169:
  57:C:/Renesas/e2studio_2021_01_workspace_RZA2M_ANPR/ANPR_RZA2M_GR_MANGO/src/tensorflow_lite/src/tensorflow/lite/kernels/internal/reference\arg_min_max.h ****     inner_size *= input1_shape.Dims(i);
 1766              		.loc 2 57 0
 1767 0194 010042E2 		sub	r0, r2, #1
 1768              	.LBB533:
 1769              	.LBB534:
 1770              		.loc 3 216 0
 1771 0198 02E186E0 		add	lr, r6, r2, lsl #2
 1772              	.LBE534:
 1773              	.LBE533:
 1774              	.LBB555:
 1775              	.LBB556:
 215:C:/Renesas/e2studio_2021_01_workspace_RZA2M_ANPR/ANPR_RZA2M_GR_MANGO/src/tensorflow_lite/src/tensorflow/lite/kernels/internal\types.h ****     return size_ > kMaxSmallSize ? dims_pointer_[i] : dims_[i];
 1776              		.loc 3 215 0
 1777 019c 000055E1 		cmp	r5, r0
 1778              	.LBE556:
 1779              	.LBE555:
 1780              	.LBB585:
 1781              	.LBB535:
 1782              		.loc 3 216 0
 1783 01a0 04809EE5 		ldr	r8, [lr, #4]
 1784              	.LVL217:
 1785              	.LBE535:
 1786              	.LBE585:
 1787              	.LBB586:
 1788              	.LBB557:
 215:C:/Renesas/e2studio_2021_01_workspace_RZA2M_ANPR/ANPR_RZA2M_GR_MANGO/src/tensorflow_lite/src/tensorflow/lite/kernels/internal\types.h ****     return size_ > kMaxSmallSize ? dims_pointer_[i] : dims_[i];
 1789              		.loc 3 215 0
 1790 01a4 D4FFFFDA 		ble	.L153
 1791              		.loc 3 216 0
 1792 01a8 043093E5 		ldr	r3, [r3, #4]
 1793              	.LVL218:
 1794 01ac 00E1A0E1 		lsl	lr, r0, #2
 1795 01b0 000193E7 		ldr	r0, [r3, r0, lsl #2]
 1796              	.LVL219:
 1797              	.LBE557:
 1798              	.LBE586:
  57:C:/Renesas/e2studio_2021_01_workspace_RZA2M_ANPR/ANPR_RZA2M_GR_MANGO/src/tensorflow_lite/src/tensorflow/lite/kernels/internal/reference\arg_min_max.h ****     inner_size *= input1_shape.Dims(i);
 1799              		.loc 2 57 0
 1800 01b4 080050E1 		cmp	r0, r8
 1801 01b8 CFFFFF1A 		bne	.L153
 1802              	.LVL220:
  56:C:/Renesas/e2studio_2021_01_workspace_RZA2M_ANPR/ANPR_RZA2M_GR_MANGO/src/tensorflow_lite/src/tensorflow/lite/kernels/internal/reference\arg_min_max.h ****     TFLITE_DCHECK_EQ(input1_shape.Dims(i), output_shape.Dims(i - 1));
 1803              		.loc 2 56 0
 1804 01bc 019082E2 		add	r9, r2, #1
 1805              	.LVL221:
 1806 01c0 090054E1 		cmp	r4, r9
 1807 01c4 E50000DA 		ble	.L191
 1808              	.LVL222:
 1809              	.LBB587:
 1810              	.LBB536:
 1811              		.loc 3 216 0
 1812 01c8 098186E0 		add	r8, r6, r9, lsl #2
 1813              	.LBE536:
 1814              	.LBE587:
 1815              	.LBB588:
 1816              	.LBB558:
 215:C:/Renesas/e2studio_2021_01_workspace_RZA2M_ANPR/ANPR_RZA2M_GR_MANGO/src/tensorflow_lite/src/tensorflow/lite/kernels/internal\types.h ****     return size_ > kMaxSmallSize ? dims_pointer_[i] : dims_[i];
 1817              		.loc 3 215 0
 1818 01cc 020055E1 		cmp	r5, r2
 1819              	.LBE558:
 1820              	.LBE588:
 1821              	.LBB589:
 1822              	.LBB537:
 1823              		.loc 3 216 0
 1824 01d0 048098E5 		ldr	r8, [r8, #4]
 1825              	.LVL223:
 1826              	.LBE537:
 1827              	.LBE589:
 1828              	.LBB590:
 1829              	.LBB559:
 215:C:/Renesas/e2studio_2021_01_workspace_RZA2M_ANPR/ANPR_RZA2M_GR_MANGO/src/tensorflow_lite/src/tensorflow/lite/kernels/internal\types.h ****     return size_ > kMaxSmallSize ? dims_pointer_[i] : dims_[i];
 1830              		.loc 3 215 0
 1831 01d4 C8FFFFDA 		ble	.L153
 1832              		.loc 3 216 0
 1833 01d8 0E3083E0 		add	r3, r3, lr
 1834 01dc 04E093E5 		ldr	lr, [r3, #4]
 1835              	.LVL224:
 1836              	.LBE559:
 1837              	.LBE590:
  57:C:/Renesas/e2studio_2021_01_workspace_RZA2M_ANPR/ANPR_RZA2M_GR_MANGO/src/tensorflow_lite/src/tensorflow/lite/kernels/internal/reference\arg_min_max.h ****     inner_size *= input1_shape.Dims(i);
 1838              		.loc 2 57 0
 1839 01e0 08005EE1 		cmp	lr, r8
 1840 01e4 C4FFFF1A 		bne	.L153
  56:C:/Renesas/e2studio_2021_01_workspace_RZA2M_ANPR/ANPR_RZA2M_GR_MANGO/src/tensorflow_lite/src/tensorflow/lite/kernels/internal/reference\arg_min_max.h ****     TFLITE_DCHECK_EQ(input1_shape.Dims(i), output_shape.Dims(i - 1));
 1841              		.loc 2 56 0
 1842 01e8 028082E2 		add	r8, r2, #2
  58:C:/Renesas/e2studio_2021_01_workspace_RZA2M_ANPR/ANPR_RZA2M_GR_MANGO/src/tensorflow_lite/src/tensorflow/lite/kernels/internal/reference\arg_min_max.h ****   }
 1843              		.loc 2 58 0
 1844 01ec 900E0EE0 		mul	lr, r0, lr
 1845              	.LVL225:
  56:C:/Renesas/e2studio_2021_01_workspace_RZA2M_ANPR/ANPR_RZA2M_GR_MANGO/src/tensorflow_lite/src/tensorflow/lite/kernels/internal/reference\arg_min_max.h ****     TFLITE_DCHECK_EQ(input1_shape.Dims(i), output_shape.Dims(i - 1));
 1846              		.loc 2 56 0
 1847 01f0 080054E1 		cmp	r4, r8
 1848 01f4 120000DA 		ble	.L173
 1849              	.LVL226:
 1850              	.LBB591:
 1851              	.LBB560:
 215:C:/Renesas/e2studio_2021_01_workspace_RZA2M_ANPR/ANPR_RZA2M_GR_MANGO/src/tensorflow_lite/src/tensorflow/lite/kernels/internal\types.h ****     return size_ > kMaxSmallSize ? dims_pointer_[i] : dims_[i];
 1852              		.loc 3 215 0
 1853 01f8 090055E1 		cmp	r5, r9
 1854              	.LBE560:
 1855              	.LBE591:
 1856              	.LBB592:
 1857              	.LBB538:
 1858              		.loc 3 216 0
 1859 01fc 080186E0 		add	r0, r6, r8, lsl #2
 1860 0200 049090E5 		ldr	r9, [r0, #4]
 1861              	.LVL227:
 1862              	.LBE538:
 1863              	.LBE592:
 1864              	.LBB593:
 1865              	.LBB561:
 215:C:/Renesas/e2studio_2021_01_workspace_RZA2M_ANPR/ANPR_RZA2M_GR_MANGO/src/tensorflow_lite/src/tensorflow/lite/kernels/internal\types.h ****     return size_ > kMaxSmallSize ? dims_pointer_[i] : dims_[i];
 1866              		.loc 3 215 0
 1867 0204 BCFFFFDA 		ble	.L153
 1868              		.loc 3 216 0
 1869 0208 080093E5 		ldr	r0, [r3, #8]
 1870              	.LVL228:
 1871              	.LBE561:
 1872              	.LBE593:
  57:C:/Renesas/e2studio_2021_01_workspace_RZA2M_ANPR/ANPR_RZA2M_GR_MANGO/src/tensorflow_lite/src/tensorflow/lite/kernels/internal/reference\arg_min_max.h ****     inner_size *= input1_shape.Dims(i);
 1873              		.loc 2 57 0
 1874 020c 090050E1 		cmp	r0, r9
 1875 0210 B9FFFF1A 		bne	.L153
  56:C:/Renesas/e2studio_2021_01_workspace_RZA2M_ANPR/ANPR_RZA2M_GR_MANGO/src/tensorflow_lite/src/tensorflow/lite/kernels/internal/reference\arg_min_max.h ****     TFLITE_DCHECK_EQ(input1_shape.Dims(i), output_shape.Dims(i - 1));
 1876              		.loc 2 56 0
 1877 0214 032082E2 		add	r2, r2, #3
  58:C:/Renesas/e2studio_2021_01_workspace_RZA2M_ANPR/ANPR_RZA2M_GR_MANGO/src/tensorflow_lite/src/tensorflow/lite/kernels/internal/reference\arg_min_max.h ****   }
 1878              		.loc 2 58 0
 1879 0218 900E0EE0 		mul	lr, r0, lr
 1880              	.LVL229:
  56:C:/Renesas/e2studio_2021_01_workspace_RZA2M_ANPR/ANPR_RZA2M_GR_MANGO/src/tensorflow_lite/src/tensorflow/lite/kernels/internal/reference\arg_min_max.h ****     TFLITE_DCHECK_EQ(input1_shape.Dims(i), output_shape.Dims(i - 1));
 1881              		.loc 2 56 0
 1882 021c 020054E1 		cmp	r4, r2
 1883 0220 070000DA 		ble	.L173
 1884              	.LVL230:
 1885              	.LBB594:
 1886              	.LBB539:
 1887              		.loc 3 216 0
 1888 0224 022186E0 		add	r2, r6, r2, lsl #2
 1889              	.LVL231:
 1890              	.LBE539:
 1891              	.LBE594:
 1892              	.LBB595:
 1893              	.LBB562:
 215:C:/Renesas/e2studio_2021_01_workspace_RZA2M_ANPR/ANPR_RZA2M_GR_MANGO/src/tensorflow_lite/src/tensorflow/lite/kernels/internal\types.h ****     return size_ > kMaxSmallSize ? dims_pointer_[i] : dims_[i];
 1894              		.loc 3 215 0
 1895 0228 080055E1 		cmp	r5, r8
 1896              	.LBE562:
 1897              	.LBE595:
 1898              	.LBB596:
 1899              	.LBB540:
 1900              		.loc 3 216 0
 1901 022c 042092E5 		ldr	r2, [r2, #4]
 1902              	.LVL232:
 1903              	.LBE540:
 1904              	.LBE596:
 1905              	.LBB597:
 1906              	.LBB563:
 215:C:/Renesas/e2studio_2021_01_workspace_RZA2M_ANPR/ANPR_RZA2M_GR_MANGO/src/tensorflow_lite/src/tensorflow/lite/kernels/internal\types.h ****     return size_ > kMaxSmallSize ? dims_pointer_[i] : dims_[i];
 1907              		.loc 3 215 0
 1908 0230 B1FFFFDA 		ble	.L153
 1909              		.loc 3 216 0
 1910 0234 0C3093E5 		ldr	r3, [r3, #12]
 1911              	.LVL233:
 1912              	.LBE563:
 1913              	.LBE597:
  57:C:/Renesas/e2studio_2021_01_workspace_RZA2M_ANPR/ANPR_RZA2M_GR_MANGO/src/tensorflow_lite/src/tensorflow/lite/kernels/internal/reference\arg_min_max.h ****     inner_size *= input1_shape.Dims(i);
 1914              		.loc 2 57 0
 1915 0238 020053E1 		cmp	r3, r2
 1916 023c AEFFFF1A 		bne	.L153
 1917              	.LVL234:
 1918              	.L286:
  58:C:/Renesas/e2studio_2021_01_workspace_RZA2M_ANPR/ANPR_RZA2M_GR_MANGO/src/tensorflow_lite/src/tensorflow/lite/kernels/internal/reference\arg_min_max.h ****   }
 1919              		.loc 2 58 0
 1920 0240 920E0EE0 		mul	lr, r2, lr
 1921              	.LVL235:
 1922              	.L173:
 1923              	.LBE532:
 1924              	.LBB633:
  60:C:/Renesas/e2studio_2021_01_workspace_RZA2M_ANPR/ANPR_RZA2M_GR_MANGO/src/tensorflow_lite/src/tensorflow/lite/kernels/internal/reference\arg_min_max.h ****     for (int inner = 0; inner < inner_size; ++inner) {
 1925              		.loc 2 60 0 discriminator 1
 1926 0244 000057E3 		cmp	r7, #0
 1927 0248 910000DA 		ble	.L292
 1928              	.L167:
 1929 024c 00005EE3 		cmp	lr, #0
 1930 0250 BF0000DA 		ble	.L293
 1931              	.LVL236:
 1932              	.L180:
 1933 0254 9C0E0BE0 		mul	fp, ip, lr
 1934 0258 0E01A0E1 		lsl	r0, lr, #2
 1935 025c 28909DE5 		ldr	r9, [sp, #40]
 1936 0260 0180A0E1 		mov	r8, r1
 1937 0264 046040E2 		sub	r6, r0, #4
 1938              	.LBE633:
  54:C:/Renesas/e2studio_2021_01_workspace_RZA2M_ANPR/ANPR_RZA2M_GR_MANGO/src/tensorflow_lite/src/tensorflow/lite/kernels/internal/reference\arg_min_max.h ****   const int dims_count = input1_shape.DimensionsCount();
 1939              		.loc 2 54 0 discriminator 1
 1940 0268 00A0A0E3 		mov	r10, #0
 1941 026c 0BB1A0E1 		lsl	fp, fp, #2
 1942              	.LVL237:
 1943              	.L176:
 1944 0270 005088E0 		add	r5, r8, r0
 1945 0274 0940A0E1 		mov	r4, r9
 1946 0278 08E0A0E1 		mov	lr, r8
 1947              	.LVL238:
 1948              	.L175:
 1949              	.LBB641:
 1950              	.LBB634:
 1951              	.LBB635:
 1952              	.LBB636:
  64:C:/Renesas/e2studio_2021_01_workspace_RZA2M_ANPR/ANPR_RZA2M_GR_MANGO/src/tensorflow_lite/src/tensorflow/lite/kernels/internal/reference\arg_min_max.h ****         const auto& curr_value =
 1953              		.loc 2 64 0
 1954 027c 01005CE3 		cmp	ip, #1
 1955              	.LBE636:
  62:C:/Renesas/e2studio_2021_01_workspace_RZA2M_ANPR/ANPR_RZA2M_GR_MANGO/src/tensorflow_lite/src/tensorflow/lite/kernels/internal/reference\arg_min_max.h ****       T2 min_max_index = 0;
 1956              		.loc 2 62 0
 1957 0280 017AFEEC 		vldmia.32	lr!, {s15}
 1958              	.LVL239:
 1959              	.LBB637:
  64:C:/Renesas/e2studio_2021_01_workspace_RZA2M_ANPR/ANPR_RZA2M_GR_MANGO/src/tensorflow_lite/src/tensorflow/lite/kernels/internal/reference\arg_min_max.h ****         const auto& curr_value =
 1960              		.loc 2 64 0
 1961 0284 AD0000DA 		ble	.L192
 1962 0288 0E2086E0 		add	r2, r6, lr
 1963 028c 0130A0E3 		mov	r3, #1
 1964 0290 0010A0E3 		mov	r1, #0
 1965              	.LVL240:
 1966              	.L178:
 1967 0294 007A92ED 		vldr.32	s14, [r2]
 1968 0298 002082E0 		add	r2, r2, r0
 1969 029c C77AF4EE 		vcmpe.f32	s15, s14
 1970 02a0 10FAF1EE 		vmrs	APSR_nzcv, FPSCR
 1971 02a4 0310A0C1 		movgt	r1, r3
 1972 02a8 013083E2 		add	r3, r3, #1
 1973 02ac 477AF0CE 		vmovgt.f32	s15, s14
 1974              	.LVL241:
 1975 02b0 0C0053E1 		cmp	r3, ip
 1976 02b4 F6FFFF1A 		bne	.L178
 1977              	.LBE637:
 1978              	.LBE635:
  61:C:/Renesas/e2studio_2021_01_workspace_RZA2M_ANPR/ANPR_RZA2M_GR_MANGO/src/tensorflow_lite/src/tensorflow/lite/kernels/internal/reference\arg_min_max.h ****       auto min_max_value = input1_data[outer * axis_size * inner_size + inner];
 1979              		.loc 2 61 0 discriminator 2
 1980 02b8 05005EE1 		cmp	lr, r5
 1981              	.LBB638:
 1982              		.loc 2 72 0 discriminator 2
 1983 02bc 041084E4 		str	r1, [r4], #4
 1984              	.LVL242:
 1985              	.LBE638:
  61:C:/Renesas/e2studio_2021_01_workspace_RZA2M_ANPR/ANPR_RZA2M_GR_MANGO/src/tensorflow_lite/src/tensorflow/lite/kernels/internal/reference\arg_min_max.h ****       auto min_max_value = input1_data[outer * axis_size * inner_size + inner];
 1986              		.loc 2 61 0 discriminator 2
 1987 02c0 EDFFFF1A 		bne	.L175
 1988              	.LVL243:
 1989              	.L294:
 1990              	.LBE634:
  60:C:/Renesas/e2studio_2021_01_workspace_RZA2M_ANPR/ANPR_RZA2M_GR_MANGO/src/tensorflow_lite/src/tensorflow/lite/kernels/internal/reference\arg_min_max.h ****     for (int inner = 0; inner < inner_size; ++inner) {
 1991              		.loc 2 60 0
 1992 02c4 01A08AE2 		add	r10, r10, #1
 1993              	.LVL244:
 1994 02c8 0B8088E0 		add	r8, r8, fp
 1995 02cc 07005AE1 		cmp	r10, r7
 1996 02d0 009089E0 		add	r9, r9, r0
 1997 02d4 E5FFFFBA 		blt	.L176
 1998 02d8 F88FBDE8 		pop	{r3, r4, r5, r6, r7, r8, r9, r10, fp, pc}
 1999              	.LVL245:
 2000              	.L291:
 2001              	.LBE641:
 2002              	.LBB642:
 2003              	.LBB439:
 2004              		.loc 3 216 0
 2005 02dc 040096E5 		ldr	r0, [r6, #4]
 2006              	.LBE439:
 2007              	.LBE642:
 2008              	.LBB643:
  49:C:/Renesas/e2studio_2021_01_workspace_RZA2M_ANPR/ANPR_RZA2M_GR_MANGO/src/tensorflow_lite/src/tensorflow/lite/kernels/internal/reference\arg_min_max.h ****     TFLITE_DCHECK_EQ(input1_shape.Dims(i), output_shape.Dims(i));
 2009              		.loc 2 49 0
 2010 02e0 000052E3 		cmp	r2, #0
 2011              	.LBE643:
 2012              	.LBB644:
 2013              	.LBB440:
 2014              		.loc 3 216 0
 2015 02e4 02C190E7 		ldr	ip, [r0, r2, lsl #2]
 2016              	.LVL246:
 2017              	.LBE440:
 2018              	.LBE644:
 2019              	.LBB645:
  49:C:/Renesas/e2studio_2021_01_workspace_RZA2M_ANPR/ANPR_RZA2M_GR_MANGO/src/tensorflow_lite/src/tensorflow/lite/kernels/internal/reference\arg_min_max.h ****     TFLITE_DCHECK_EQ(input1_shape.Dims(i), output_shape.Dims(i));
 2020              		.loc 2 49 0
 2021 02e8 D100000A 		beq	.L156
 2022 02ec 050055E3 		cmp	r5, #5
 2023 02f0 6B0000CA 		bgt	.L163
 2024              	.LVL247:
 2025              	.LBB510:
 2026              	.LBB457:
 215:C:/Renesas/e2studio_2021_01_workspace_RZA2M_ANPR/ANPR_RZA2M_GR_MANGO/src/tensorflow_lite/src/tensorflow/lite/kernels/internal\types.h ****     return size_ > kMaxSmallSize ? dims_pointer_[i] : dims_[i];
 2027              		.loc 3 215 0
 2028 02f4 000055E3 		cmp	r5, #0
 2029              	.LBE457:
 2030              	.LBE510:
 2031              	.LBB511:
 2032              	.LBB481:
 2033              		.loc 3 216 0
 2034 02f8 007090E5 		ldr	r7, [r0]
 2035              	.LVL248:
 2036              	.LBE481:
 2037              	.LBE511:
 2038              	.LBB512:
 2039              	.LBB458:
 215:C:/Renesas/e2studio_2021_01_workspace_RZA2M_ANPR/ANPR_RZA2M_GR_MANGO/src/tensorflow_lite/src/tensorflow/lite/kernels/internal\types.h ****     return size_ > kMaxSmallSize ? dims_pointer_[i] : dims_[i];
 2040              		.loc 3 215 0
 2041 02fc 7EFFFF0A 		beq	.L153
 2042              	.LVL249:
 2043              	.LBE458:
 2044              	.LBE512:
  50:C:/Renesas/e2studio_2021_01_workspace_RZA2M_ANPR/ANPR_RZA2M_GR_MANGO/src/tensorflow_lite/src/tensorflow/lite/kernels/internal/reference\arg_min_max.h ****     outer_size *= input1_shape.Dims(i);
 2045              		.loc 2 50 0
 2046 0300 04E093E5 		ldr	lr, [r3, #4]
 2047 0304 0E0057E1 		cmp	r7, lr
 2048 0308 7BFFFF1A 		bne	.L153
 2049              	.LVL250:
  49:C:/Renesas/e2studio_2021_01_workspace_RZA2M_ANPR/ANPR_RZA2M_GR_MANGO/src/tensorflow_lite/src/tensorflow/lite/kernels/internal/reference\arg_min_max.h ****     TFLITE_DCHECK_EQ(input1_shape.Dims(i), output_shape.Dims(i));
 2050              		.loc 2 49 0
 2051 030c 010052E3 		cmp	r2, #1
 2052 0310 2300000A 		beq	.L164
 2053              	.LVL251:
 2054              	.LBB513:
 2055              	.LBB459:
 215:C:/Renesas/e2studio_2021_01_workspace_RZA2M_ANPR/ANPR_RZA2M_GR_MANGO/src/tensorflow_lite/src/tensorflow/lite/kernels/internal\types.h ****     return size_ > kMaxSmallSize ? dims_pointer_[i] : dims_[i];
 2056              		.loc 3 215 0
 2057 0314 010055E3 		cmp	r5, #1
 2058              	.LBE459:
 2059              	.LBE513:
 2060              	.LBB514:
 2061              	.LBB482:
 2062              		.loc 3 216 0
 2063 0318 04E090E5 		ldr	lr, [r0, #4]
 2064              	.LVL252:
 2065              	.LBE482:
 2066              	.LBE514:
 2067              	.LBB515:
 2068              	.LBB460:
 215:C:/Renesas/e2studio_2021_01_workspace_RZA2M_ANPR/ANPR_RZA2M_GR_MANGO/src/tensorflow_lite/src/tensorflow/lite/kernels/internal\types.h ****     return size_ > kMaxSmallSize ? dims_pointer_[i] : dims_[i];
 2069              		.loc 3 215 0
 2070 031c 76FFFF0A 		beq	.L153
 2071              	.LVL253:
 2072              	.LBE460:
 2073              	.LBE515:
  50:C:/Renesas/e2studio_2021_01_workspace_RZA2M_ANPR/ANPR_RZA2M_GR_MANGO/src/tensorflow_lite/src/tensorflow/lite/kernels/internal/reference\arg_min_max.h ****     outer_size *= input1_shape.Dims(i);
 2074              		.loc 2 50 0
 2075 0320 088093E5 		ldr	r8, [r3, #8]
 2076 0324 08005EE1 		cmp	lr, r8
 2077 0328 73FFFF1A 		bne	.L153
  49:C:/Renesas/e2studio_2021_01_workspace_RZA2M_ANPR/ANPR_RZA2M_GR_MANGO/src/tensorflow_lite/src/tensorflow/lite/kernels/internal/reference\arg_min_max.h ****     TFLITE_DCHECK_EQ(input1_shape.Dims(i), output_shape.Dims(i));
 2078              		.loc 2 49 0
 2079 032c 020052E3 		cmp	r2, #2
  51:C:/Renesas/e2studio_2021_01_workspace_RZA2M_ANPR/ANPR_RZA2M_GR_MANGO/src/tensorflow_lite/src/tensorflow/lite/kernels/internal/reference\arg_min_max.h ****   }
 2080              		.loc 2 51 0
 2081 0330 9E0707E0 		mul	r7, lr, r7
 2082              	.LVL254:
  49:C:/Renesas/e2studio_2021_01_workspace_RZA2M_ANPR/ANPR_RZA2M_GR_MANGO/src/tensorflow_lite/src/tensorflow/lite/kernels/internal/reference\arg_min_max.h ****     TFLITE_DCHECK_EQ(input1_shape.Dims(i), output_shape.Dims(i));
 2083              		.loc 2 49 0
 2084 0334 1A00000A 		beq	.L164
 2085              	.LVL255:
 2086              	.LBB516:
 2087              	.LBB461:
 215:C:/Renesas/e2studio_2021_01_workspace_RZA2M_ANPR/ANPR_RZA2M_GR_MANGO/src/tensorflow_lite/src/tensorflow/lite/kernels/internal\types.h ****     return size_ > kMaxSmallSize ? dims_pointer_[i] : dims_[i];
 2088              		.loc 3 215 0
 2089 0338 020055E3 		cmp	r5, #2
 2090              	.LBE461:
 2091              	.LBE516:
 2092              	.LBB517:
 2093              	.LBB483:
 2094              		.loc 3 216 0
 2095 033c 08E090E5 		ldr	lr, [r0, #8]
 2096              	.LVL256:
 2097              	.LBE483:
 2098              	.LBE517:
 2099              	.LBB518:
 2100              	.LBB462:
 215:C:/Renesas/e2studio_2021_01_workspace_RZA2M_ANPR/ANPR_RZA2M_GR_MANGO/src/tensorflow_lite/src/tensorflow/lite/kernels/internal\types.h ****     return size_ > kMaxSmallSize ? dims_pointer_[i] : dims_[i];
 2101              		.loc 3 215 0
 2102 0340 6DFFFF0A 		beq	.L153
 2103              	.LVL257:
 2104              	.LBE462:
 2105              	.LBE518:
  50:C:/Renesas/e2studio_2021_01_workspace_RZA2M_ANPR/ANPR_RZA2M_GR_MANGO/src/tensorflow_lite/src/tensorflow/lite/kernels/internal/reference\arg_min_max.h ****     outer_size *= input1_shape.Dims(i);
 2106              		.loc 2 50 0
 2107 0344 0C8093E5 		ldr	r8, [r3, #12]
 2108 0348 08005EE1 		cmp	lr, r8
 2109 034c 6AFFFF1A 		bne	.L153
  49:C:/Renesas/e2studio_2021_01_workspace_RZA2M_ANPR/ANPR_RZA2M_GR_MANGO/src/tensorflow_lite/src/tensorflow/lite/kernels/internal/reference\arg_min_max.h ****     TFLITE_DCHECK_EQ(input1_shape.Dims(i), output_shape.Dims(i));
 2110              		.loc 2 49 0
 2111 0350 030052E3 		cmp	r2, #3
  51:C:/Renesas/e2studio_2021_01_workspace_RZA2M_ANPR/ANPR_RZA2M_GR_MANGO/src/tensorflow_lite/src/tensorflow/lite/kernels/internal/reference\arg_min_max.h ****   }
 2112              		.loc 2 51 0
 2113 0354 9E0707E0 		mul	r7, lr, r7
 2114              	.LVL258:
  49:C:/Renesas/e2studio_2021_01_workspace_RZA2M_ANPR/ANPR_RZA2M_GR_MANGO/src/tensorflow_lite/src/tensorflow/lite/kernels/internal/reference\arg_min_max.h ****     TFLITE_DCHECK_EQ(input1_shape.Dims(i), output_shape.Dims(i));
 2115              		.loc 2 49 0
 2116 0358 1100000A 		beq	.L164
 2117              	.LVL259:
 2118              	.LBB519:
 2119              	.LBB463:
 215:C:/Renesas/e2studio_2021_01_workspace_RZA2M_ANPR/ANPR_RZA2M_GR_MANGO/src/tensorflow_lite/src/tensorflow/lite/kernels/internal\types.h ****     return size_ > kMaxSmallSize ? dims_pointer_[i] : dims_[i];
 2120              		.loc 3 215 0
 2121 035c 030055E3 		cmp	r5, #3
 2122              	.LBE463:
 2123              	.LBE519:
 2124              	.LBB520:
 2125              	.LBB484:
 2126              		.loc 3 216 0
 2127 0360 0CE090E5 		ldr	lr, [r0, #12]
 2128              	.LVL260:
 2129              	.LBE484:
 2130              	.LBE520:
 2131              	.LBB521:
 2132              	.LBB464:
 215:C:/Renesas/e2studio_2021_01_workspace_RZA2M_ANPR/ANPR_RZA2M_GR_MANGO/src/tensorflow_lite/src/tensorflow/lite/kernels/internal\types.h ****     return size_ > kMaxSmallSize ? dims_pointer_[i] : dims_[i];
 2133              		.loc 3 215 0
 2134 0364 64FFFF0A 		beq	.L153
 2135              	.LVL261:
 2136              	.LBE464:
 2137              	.LBE521:
  50:C:/Renesas/e2studio_2021_01_workspace_RZA2M_ANPR/ANPR_RZA2M_GR_MANGO/src/tensorflow_lite/src/tensorflow/lite/kernels/internal/reference\arg_min_max.h ****     outer_size *= input1_shape.Dims(i);
 2138              		.loc 2 50 0
 2139 0368 108093E5 		ldr	r8, [r3, #16]
 2140 036c 08005EE1 		cmp	lr, r8
 2141 0370 61FFFF1A 		bne	.L153
  49:C:/Renesas/e2studio_2021_01_workspace_RZA2M_ANPR/ANPR_RZA2M_GR_MANGO/src/tensorflow_lite/src/tensorflow/lite/kernels/internal/reference\arg_min_max.h ****     TFLITE_DCHECK_EQ(input1_shape.Dims(i), output_shape.Dims(i));
 2142              		.loc 2 49 0
 2143 0374 040052E3 		cmp	r2, #4
  51:C:/Renesas/e2studio_2021_01_workspace_RZA2M_ANPR/ANPR_RZA2M_GR_MANGO/src/tensorflow_lite/src/tensorflow/lite/kernels/internal/reference\arg_min_max.h ****   }
 2144              		.loc 2 51 0
 2145 0378 9E0707E0 		mul	r7, lr, r7
 2146              	.LVL262:
  49:C:/Renesas/e2studio_2021_01_workspace_RZA2M_ANPR/ANPR_RZA2M_GR_MANGO/src/tensorflow_lite/src/tensorflow/lite/kernels/internal/reference\arg_min_max.h ****     TFLITE_DCHECK_EQ(input1_shape.Dims(i), output_shape.Dims(i));
 2147              		.loc 2 49 0
 2148 037c 0800000A 		beq	.L164
 2149              	.LVL263:
 2150              	.LBB522:
 2151              	.LBB465:
 215:C:/Renesas/e2studio_2021_01_workspace_RZA2M_ANPR/ANPR_RZA2M_GR_MANGO/src/tensorflow_lite/src/tensorflow/lite/kernels/internal\types.h ****     return size_ > kMaxSmallSize ? dims_pointer_[i] : dims_[i];
 2152              		.loc 3 215 0
 2153 0380 050055E3 		cmp	r5, #5
 2154              	.LBE465:
 2155              	.LBE522:
 2156              	.LBB523:
 2157              	.LBB485:
 2158              		.loc 3 216 0
 2159 0384 100090E5 		ldr	r0, [r0, #16]
 2160              	.LVL264:
 2161              	.LBE485:
 2162              	.LBE523:
 2163              	.LBB524:
 2164              	.LBB466:
 215:C:/Renesas/e2studio_2021_01_workspace_RZA2M_ANPR/ANPR_RZA2M_GR_MANGO/src/tensorflow_lite/src/tensorflow/lite/kernels/internal\types.h ****     return size_ > kMaxSmallSize ? dims_pointer_[i] : dims_[i];
 2165              		.loc 3 215 0
 2166 0388 5BFFFF1A 		bne	.L153
 2167              	.LVL265:
 2168              	.LBE466:
 2169              	.LBE524:
  50:C:/Renesas/e2studio_2021_01_workspace_RZA2M_ANPR/ANPR_RZA2M_GR_MANGO/src/tensorflow_lite/src/tensorflow/lite/kernels/internal/reference\arg_min_max.h ****     outer_size *= input1_shape.Dims(i);
 2170              		.loc 2 50 0
 2171 038c 14E093E5 		ldr	lr, [r3, #20]
 2172 0390 0E0050E1 		cmp	r0, lr
 2173 0394 58FFFF1A 		bne	.L153
  49:C:/Renesas/e2studio_2021_01_workspace_RZA2M_ANPR/ANPR_RZA2M_GR_MANGO/src/tensorflow_lite/src/tensorflow/lite/kernels/internal/reference\arg_min_max.h ****     TFLITE_DCHECK_EQ(input1_shape.Dims(i), output_shape.Dims(i));
 2174              		.loc 2 49 0
 2175 0398 050052E3 		cmp	r2, #5
  51:C:/Renesas/e2studio_2021_01_workspace_RZA2M_ANPR/ANPR_RZA2M_GR_MANGO/src/tensorflow_lite/src/tensorflow/lite/kernels/internal/reference\arg_min_max.h ****   }
 2176              		.loc 2 51 0
 2177 039c 900707E0 		mul	r7, r0, r7
 2178              	.LVL266:
  49:C:/Renesas/e2studio_2021_01_workspace_RZA2M_ANPR/ANPR_RZA2M_GR_MANGO/src/tensorflow_lite/src/tensorflow/lite/kernels/internal/reference\arg_min_max.h ****     TFLITE_DCHECK_EQ(input1_shape.Dims(i), output_shape.Dims(i));
 2179              		.loc 2 49 0
 2180 03a0 55FFFF1A 		bne	.L153
 2181              	.LVL267:
 2182              	.L164:
 2183              	.LBE645:
 2184              	.LBB646:
  56:C:/Renesas/e2studio_2021_01_workspace_RZA2M_ANPR/ANPR_RZA2M_GR_MANGO/src/tensorflow_lite/src/tensorflow/lite/kernels/internal/reference\arg_min_max.h ****     TFLITE_DCHECK_EQ(input1_shape.Dims(i), output_shape.Dims(i - 1));
 2185              		.loc 2 56 0
 2186 03a4 012082E2 		add	r2, r2, #1
 2187              	.LVL268:
 2188 03a8 020054E1 		cmp	r4, r2
 2189 03ac 690000DA 		ble	.L197
 2190              	.LVL269:
 2191              	.L182:
 2192 03b0 046096E5 		ldr	r6, [r6, #4]
 2193              	.LVL270:
  57:C:/Renesas/e2studio_2021_01_workspace_RZA2M_ANPR/ANPR_RZA2M_GR_MANGO/src/tensorflow_lite/src/tensorflow/lite/kernels/internal/reference\arg_min_max.h ****     inner_size *= input1_shape.Dims(i);
 2194              		.loc 2 57 0
 2195 03b4 019042E2 		sub	r9, r2, #1
 2196              	.LBB598:
 2197              	.LBB564:
 215:C:/Renesas/e2studio_2021_01_workspace_RZA2M_ANPR/ANPR_RZA2M_GR_MANGO/src/tensorflow_lite/src/tensorflow/lite/kernels/internal\types.h ****     return size_ > kMaxSmallSize ? dims_pointer_[i] : dims_[i];
 2198              		.loc 3 215 0
 2199 03b8 090055E1 		cmp	r5, r9
 2200              	.LBE564:
 2201              	.LBE598:
 2202              	.LBB599:
 2203              	.LBB541:
 2204              		.loc 3 216 0
 2205 03bc 0281A0E1 		lsl	r8, r2, #2
 2206 03c0 020196E7 		ldr	r0, [r6, r2, lsl #2]
 2207              	.LVL271:
 2208              	.LBE541:
 2209              	.LBE599:
 2210              	.LBB600:
 2211              	.LBB565:
 215:C:/Renesas/e2studio_2021_01_workspace_RZA2M_ANPR/ANPR_RZA2M_GR_MANGO/src/tensorflow_lite/src/tensorflow/lite/kernels/internal\types.h ****     return size_ > kMaxSmallSize ? dims_pointer_[i] : dims_[i];
 2212              		.loc 3 215 0
 2213 03c4 4CFFFFDA 		ble	.L153
 2214              		.loc 3 216 0
 2215 03c8 099183E0 		add	r9, r3, r9, lsl #2
 2216              	.LVL272:
 2217 03cc 04E099E5 		ldr	lr, [r9, #4]
 2218              	.LVL273:
 2219              	.LBE565:
 2220              	.LBE600:
  57:C:/Renesas/e2studio_2021_01_workspace_RZA2M_ANPR/ANPR_RZA2M_GR_MANGO/src/tensorflow_lite/src/tensorflow/lite/kernels/internal/reference\arg_min_max.h ****     inner_size *= input1_shape.Dims(i);
 2221              		.loc 2 57 0
 2222 03d0 0E0050E1 		cmp	r0, lr
 2223 03d4 48FFFF1A 		bne	.L153
 2224              	.LVL274:
  56:C:/Renesas/e2studio_2021_01_workspace_RZA2M_ANPR/ANPR_RZA2M_GR_MANGO/src/tensorflow_lite/src/tensorflow/lite/kernels/internal/reference\arg_min_max.h ****     TFLITE_DCHECK_EQ(input1_shape.Dims(i), output_shape.Dims(i - 1));
 2225              		.loc 2 56 0
 2226 03d8 019082E2 		add	r9, r2, #1
 2227              	.LVL275:
 2228 03dc 090054E1 		cmp	r4, r9
 2229 03e0 5E0000DA 		ble	.L191
 2230              	.LVL276:
 2231              	.LBB601:
 2232              	.LBB566:
 215:C:/Renesas/e2studio_2021_01_workspace_RZA2M_ANPR/ANPR_RZA2M_GR_MANGO/src/tensorflow_lite/src/tensorflow/lite/kernels/internal\types.h ****     return size_ > kMaxSmallSize ? dims_pointer_[i] : dims_[i];
 2233              		.loc 3 215 0
 2234 03e4 020055E1 		cmp	r5, r2
 2235              	.LBE566:
 2236              	.LBE601:
 2237              	.LBB602:
 2238              	.LBB542:
 2239              		.loc 3 216 0
 2240 03e8 086086E0 		add	r6, r6, r8
 2241 03ec 04E096E5 		ldr	lr, [r6, #4]
 2242              	.LVL277:
 2243              	.LBE542:
 2244              	.LBE602:
 2245              	.LBB603:
 2246              	.LBB567:
 215:C:/Renesas/e2studio_2021_01_workspace_RZA2M_ANPR/ANPR_RZA2M_GR_MANGO/src/tensorflow_lite/src/tensorflow/lite/kernels/internal\types.h ****     return size_ > kMaxSmallSize ? dims_pointer_[i] : dims_[i];
 2247              		.loc 3 215 0
 2248 03f0 41FFFFDA 		ble	.L153
 2249              		.loc 3 216 0
 2250 03f4 088083E0 		add	r8, r3, r8
 2251 03f8 048098E5 		ldr	r8, [r8, #4]
 2252              	.LVL278:
 2253              	.LBE567:
 2254              	.LBE603:
  57:C:/Renesas/e2studio_2021_01_workspace_RZA2M_ANPR/ANPR_RZA2M_GR_MANGO/src/tensorflow_lite/src/tensorflow/lite/kernels/internal/reference\arg_min_max.h ****     inner_size *= input1_shape.Dims(i);
 2255              		.loc 2 57 0
 2256 03fc 08005EE1 		cmp	lr, r8
 2257 0400 3DFFFF1A 		bne	.L153
  56:C:/Renesas/e2studio_2021_01_workspace_RZA2M_ANPR/ANPR_RZA2M_GR_MANGO/src/tensorflow_lite/src/tensorflow/lite/kernels/internal/reference\arg_min_max.h ****     TFLITE_DCHECK_EQ(input1_shape.Dims(i), output_shape.Dims(i - 1));
 2258              		.loc 2 56 0
 2259 0404 028082E2 		add	r8, r2, #2
  58:C:/Renesas/e2studio_2021_01_workspace_RZA2M_ANPR/ANPR_RZA2M_GR_MANGO/src/tensorflow_lite/src/tensorflow/lite/kernels/internal/reference\arg_min_max.h ****   }
 2260              		.loc 2 58 0
 2261 0408 9E000EE0 		mul	lr, lr, r0
 2262              	.LVL279:
  56:C:/Renesas/e2studio_2021_01_workspace_RZA2M_ANPR/ANPR_RZA2M_GR_MANGO/src/tensorflow_lite/src/tensorflow/lite/kernels/internal/reference\arg_min_max.h ****     TFLITE_DCHECK_EQ(input1_shape.Dims(i), output_shape.Dims(i - 1));
 2263              		.loc 2 56 0
 2264 040c 080054E1 		cmp	r4, r8
 2265 0410 8BFFFFDA 		ble	.L173
 2266              	.LVL280:
 2267              	.LBB604:
 2268              	.LBB568:
 215:C:/Renesas/e2studio_2021_01_workspace_RZA2M_ANPR/ANPR_RZA2M_GR_MANGO/src/tensorflow_lite/src/tensorflow/lite/kernels/internal\types.h ****     return size_ > kMaxSmallSize ? dims_pointer_[i] : dims_[i];
 2269              		.loc 3 215 0
 2270 0414 090055E1 		cmp	r5, r9
 2271              	.LBE568:
 2272              	.LBE604:
 2273              	.LBB605:
 2274              	.LBB543:
 2275              		.loc 3 216 0
 2276 0418 08A096E5 		ldr	r10, [r6, #8]
 2277              	.LVL281:
 2278              	.LBE543:
 2279              	.LBE605:
 2280              	.LBB606:
 2281              	.LBB569:
 215:C:/Renesas/e2studio_2021_01_workspace_RZA2M_ANPR/ANPR_RZA2M_GR_MANGO/src/tensorflow_lite/src/tensorflow/lite/kernels/internal\types.h ****     return size_ > kMaxSmallSize ? dims_pointer_[i] : dims_[i];
 2282              		.loc 3 215 0
 2283 041c 36FFFFDA 		ble	.L153
 2284              		.loc 3 216 0
 2285 0420 099183E0 		add	r9, r3, r9, lsl #2
 2286              	.LVL282:
 2287 0424 040099E5 		ldr	r0, [r9, #4]
 2288              	.LVL283:
 2289              	.LBE569:
 2290              	.LBE606:
  57:C:/Renesas/e2studio_2021_01_workspace_RZA2M_ANPR/ANPR_RZA2M_GR_MANGO/src/tensorflow_lite/src/tensorflow/lite/kernels/internal/reference\arg_min_max.h ****     inner_size *= input1_shape.Dims(i);
 2291              		.loc 2 57 0
 2292 0428 00005AE1 		cmp	r10, r0
 2293 042c 32FFFF1A 		bne	.L153
  56:C:/Renesas/e2studio_2021_01_workspace_RZA2M_ANPR/ANPR_RZA2M_GR_MANGO/src/tensorflow_lite/src/tensorflow/lite/kernels/internal/reference\arg_min_max.h ****     TFLITE_DCHECK_EQ(input1_shape.Dims(i), output_shape.Dims(i - 1));
 2294              		.loc 2 56 0
 2295 0430 030082E2 		add	r0, r2, #3
  58:C:/Renesas/e2studio_2021_01_workspace_RZA2M_ANPR/ANPR_RZA2M_GR_MANGO/src/tensorflow_lite/src/tensorflow/lite/kernels/internal/reference\arg_min_max.h ****   }
 2296              		.loc 2 58 0
 2297 0434 9A0E0EE0 		mul	lr, r10, lr
 2298              	.LVL284:
  56:C:/Renesas/e2studio_2021_01_workspace_RZA2M_ANPR/ANPR_RZA2M_GR_MANGO/src/tensorflow_lite/src/tensorflow/lite/kernels/internal/reference\arg_min_max.h ****     TFLITE_DCHECK_EQ(input1_shape.Dims(i), output_shape.Dims(i - 1));
 2299              		.loc 2 56 0
 2300 0438 000054E1 		cmp	r4, r0
 2301 043c 80FFFFDA 		ble	.L173
 2302              	.LVL285:
 2303              	.LBB607:
 2304              	.LBB570:
 215:C:/Renesas/e2studio_2021_01_workspace_RZA2M_ANPR/ANPR_RZA2M_GR_MANGO/src/tensorflow_lite/src/tensorflow/lite/kernels/internal\types.h ****     return size_ > kMaxSmallSize ? dims_pointer_[i] : dims_[i];
 2305              		.loc 3 215 0
 2306 0440 080055E1 		cmp	r5, r8
 2307              	.LBE570:
 2308              	.LBE607:
 2309              	.LBB608:
 2310              	.LBB544:
 2311              		.loc 3 216 0
 2312 0444 0C9096E5 		ldr	r9, [r6, #12]
 2313              	.LVL286:
 2314              	.LBE544:
 2315              	.LBE608:
 2316              	.LBB609:
 2317              	.LBB571:
 215:C:/Renesas/e2studio_2021_01_workspace_RZA2M_ANPR/ANPR_RZA2M_GR_MANGO/src/tensorflow_lite/src/tensorflow/lite/kernels/internal\types.h ****     return size_ > kMaxSmallSize ? dims_pointer_[i] : dims_[i];
 2318              		.loc 3 215 0
 2319 0448 2BFFFFDA 		ble	.L153
 2320              		.loc 3 216 0
 2321 044c 088183E0 		add	r8, r3, r8, lsl #2
 2322              	.LVL287:
 2323 0450 048098E5 		ldr	r8, [r8, #4]
 2324              	.LVL288:
 2325              	.LBE571:
 2326              	.LBE609:
  57:C:/Renesas/e2studio_2021_01_workspace_RZA2M_ANPR/ANPR_RZA2M_GR_MANGO/src/tensorflow_lite/src/tensorflow/lite/kernels/internal/reference\arg_min_max.h ****     inner_size *= input1_shape.Dims(i);
 2327              		.loc 2 57 0
 2328 0454 080059E1 		cmp	r9, r8
 2329 0458 27FFFF1A 		bne	.L153
  56:C:/Renesas/e2studio_2021_01_workspace_RZA2M_ANPR/ANPR_RZA2M_GR_MANGO/src/tensorflow_lite/src/tensorflow/lite/kernels/internal/reference\arg_min_max.h ****     TFLITE_DCHECK_EQ(input1_shape.Dims(i), output_shape.Dims(i - 1));
 2330              		.loc 2 56 0
 2331 045c 042082E2 		add	r2, r2, #4
  58:C:/Renesas/e2studio_2021_01_workspace_RZA2M_ANPR/ANPR_RZA2M_GR_MANGO/src/tensorflow_lite/src/tensorflow/lite/kernels/internal/reference\arg_min_max.h ****   }
 2332              		.loc 2 58 0
 2333 0460 990E0EE0 		mul	lr, r9, lr
 2334              	.LVL289:
  56:C:/Renesas/e2studio_2021_01_workspace_RZA2M_ANPR/ANPR_RZA2M_GR_MANGO/src/tensorflow_lite/src/tensorflow/lite/kernels/internal/reference\arg_min_max.h ****     TFLITE_DCHECK_EQ(input1_shape.Dims(i), output_shape.Dims(i - 1));
 2335              		.loc 2 56 0
 2336 0464 020054E1 		cmp	r4, r2
 2337 0468 75FFFFDA 		ble	.L173
 2338              	.LVL290:
 2339              	.LBB610:
 2340              	.LBB572:
 215:C:/Renesas/e2studio_2021_01_workspace_RZA2M_ANPR/ANPR_RZA2M_GR_MANGO/src/tensorflow_lite/src/tensorflow/lite/kernels/internal\types.h ****     return size_ > kMaxSmallSize ? dims_pointer_[i] : dims_[i];
 2341              		.loc 3 215 0
 2342 046c 050050E1 		cmp	r0, r5
 2343              	.LBE572:
 2344              	.LBE610:
 2345              	.LBB611:
 2346              	.LBB545:
 2347              		.loc 3 216 0
 2348 0470 102096E5 		ldr	r2, [r6, #16]
 2349              	.LVL291:
 2350              	.LBE545:
 2351              	.LBE611:
 2352              	.LBB612:
 2353              	.LBB573:
 215:C:/Renesas/e2studio_2021_01_workspace_RZA2M_ANPR/ANPR_RZA2M_GR_MANGO/src/tensorflow_lite/src/tensorflow/lite/kernels/internal\types.h ****     return size_ > kMaxSmallSize ? dims_pointer_[i] : dims_[i];
 2354              		.loc 3 215 0
 2355 0474 20FFFFAA 		bge	.L153
 2356              		.loc 3 216 0
 2357 0478 003183E0 		add	r3, r3, r0, lsl #2
 2358              	.LVL292:
 2359 047c 043093E5 		ldr	r3, [r3, #4]
 2360              	.LVL293:
 2361              	.LBE573:
 2362              	.LBE612:
  57:C:/Renesas/e2studio_2021_01_workspace_RZA2M_ANPR/ANPR_RZA2M_GR_MANGO/src/tensorflow_lite/src/tensorflow/lite/kernels/internal/reference\arg_min_max.h ****     inner_size *= input1_shape.Dims(i);
 2363              		.loc 2 57 0
 2364 0480 020053E1 		cmp	r3, r2
 2365 0484 1CFFFF1A 		bne	.L153
 2366              	.LBE646:
 2367              	.LBB647:
  60:C:/Renesas/e2studio_2021_01_workspace_RZA2M_ANPR/ANPR_RZA2M_GR_MANGO/src/tensorflow_lite/src/tensorflow/lite/kernels/internal/reference\arg_min_max.h ****     for (int inner = 0; inner < inner_size; ++inner) {
 2368              		.loc 2 60 0
 2369 0488 000057E3 		cmp	r7, #0
 2370              	.LBE647:
 2371              	.LBB648:
  58:C:/Renesas/e2studio_2021_01_workspace_RZA2M_ANPR/ANPR_RZA2M_GR_MANGO/src/tensorflow_lite/src/tensorflow/lite/kernels/internal/reference\arg_min_max.h ****   }
 2372              		.loc 2 58 0
 2373 048c 930E0EE0 		mul	lr, r3, lr
 2374              	.LVL294:
 2375              	.LBE648:
 2376              	.LBB649:
  60:C:/Renesas/e2studio_2021_01_workspace_RZA2M_ANPR/ANPR_RZA2M_GR_MANGO/src/tensorflow_lite/src/tensorflow/lite/kernels/internal/reference\arg_min_max.h ****     for (int inner = 0; inner < inner_size; ++inner) {
 2377              		.loc 2 60 0
 2378 0490 6DFFFFCA 		bgt	.L167
 2379              	.LVL295:
 2380              	.L292:
 2381 0494 F88FBDE8 		pop	{r3, r4, r5, r6, r7, r8, r9, r10, fp, pc}
 2382              	.LVL296:
 2383              	.L290:
 2384              	.LBE649:
 2385              	.LBB650:
 2386              	.LBB441:
 214:C:/Renesas/e2studio_2021_01_workspace_RZA2M_ANPR/ANPR_RZA2M_GR_MANGO/src/tensorflow_lite/src/tensorflow/lite/kernels/internal\types.h ****     TFLITE_DCHECK_LT(i, size_);
 2387              		.loc 3 214 0
 2388 0498 042092E0 		adds	r2, r2, r4
 2389              	.LVL297:
 2390 049c E3FEFF5A 		bpl	.L154
 2391 04a0 15FFFFEA 		b	.L153
 2392              	.LVL298:
 2393              	.L163:
 2394 04a4 04E040E2 		sub	lr, r0, #4
 2395              	.LBE441:
 2396              	.LBE650:
 2397              	.LBB651:
  49:C:/Renesas/e2studio_2021_01_workspace_RZA2M_ANPR/ANPR_RZA2M_GR_MANGO/src/tensorflow_lite/src/tensorflow/lite/kernels/internal/reference\arg_min_max.h ****     TFLITE_DCHECK_EQ(input1_shape.Dims(i), output_shape.Dims(i));
 2398              		.loc 2 49 0
 2399 04a8 0170A0E3 		mov	r7, #1
 2400 04ac 0000A0E3 		mov	r0, #0
 2401 04b0 010000EA 		b	.L159
 2402              	.LVL299:
 2403              	.L283:
 2404              	.LBB525:
 2405              	.LBB486:
 215:C:/Renesas/e2studio_2021_01_workspace_RZA2M_ANPR/ANPR_RZA2M_GR_MANGO/src/tensorflow_lite/src/tensorflow/lite/kernels/internal\types.h ****     return size_ > kMaxSmallSize ? dims_pointer_[i] : dims_[i];
 2406              		.loc 3 215 0
 2407 04b4 040050E1 		cmp	r0, r4
 2408 04b8 0FFFFF0A 		beq	.L153
 2409              	.LVL300:
 2410              	.L159:
 2411              	.LBE486:
 2412              	.LBE525:
 2413              	.LBB526:
 2414              	.LBB467:
 2415 04bc 050050E1 		cmp	r0, r5
 2416              	.LBE467:
 2417              	.LBE526:
 2418              	.LBB527:
 2419              	.LBB487:
 2420              		.loc 3 216 0
 2421 04c0 0490BEE5 		ldr	r9, [lr, #4]!
 2422              	.LVL301:
 2423              	.LBE487:
 2424              	.LBE527:
 2425              	.LBB528:
 2426              	.LBB468:
 215:C:/Renesas/e2studio_2021_01_workspace_RZA2M_ANPR/ANPR_RZA2M_GR_MANGO/src/tensorflow_lite/src/tensorflow/lite/kernels/internal\types.h ****     return size_ > kMaxSmallSize ? dims_pointer_[i] : dims_[i];
 2427              		.loc 3 215 0
 2428 04c4 0CFFFF0A 		beq	.L153
 2429              		.loc 3 216 0
 2430 04c8 048093E5 		ldr	r8, [r3, #4]
 2431 04cc 008198E7 		ldr	r8, [r8, r0, lsl #2]
 2432              	.LVL302:
 2433              	.LBE468:
 2434              	.LBE528:
  50:C:/Renesas/e2studio_2021_01_workspace_RZA2M_ANPR/ANPR_RZA2M_GR_MANGO/src/tensorflow_lite/src/tensorflow/lite/kernels/internal/reference\arg_min_max.h ****     outer_size *= input1_shape.Dims(i);
 2435              		.loc 2 50 0
 2436 04d0 090058E1 		cmp	r8, r9
 2437 04d4 08FFFF1A 		bne	.L153
  49:C:/Renesas/e2studio_2021_01_workspace_RZA2M_ANPR/ANPR_RZA2M_GR_MANGO/src/tensorflow_lite/src/tensorflow/lite/kernels/internal/reference\arg_min_max.h ****     TFLITE_DCHECK_EQ(input1_shape.Dims(i), output_shape.Dims(i));
 2438              		.loc 2 49 0
 2439 04d8 010080E2 		add	r0, r0, #1
 2440              	.LVL303:
  51:C:/Renesas/e2studio_2021_01_workspace_RZA2M_ANPR/ANPR_RZA2M_GR_MANGO/src/tensorflow_lite/src/tensorflow/lite/kernels/internal/reference\arg_min_max.h ****   }
 2441              		.loc 2 51 0
 2442 04dc 980707E0 		mul	r7, r8, r7
 2443              	.LVL304:
  49:C:/Renesas/e2studio_2021_01_workspace_RZA2M_ANPR/ANPR_RZA2M_GR_MANGO/src/tensorflow_lite/src/tensorflow/lite/kernels/internal/reference\arg_min_max.h ****     TFLITE_DCHECK_EQ(input1_shape.Dims(i), output_shape.Dims(i));
 2444              		.loc 2 49 0
 2445 04e0 020050E1 		cmp	r0, r2
 2446 04e4 F2FFFF1A 		bne	.L283
 2447              	.LVL305:
 2448              	.LBE651:
 2449              	.LBB652:
  56:C:/Renesas/e2studio_2021_01_workspace_RZA2M_ANPR/ANPR_RZA2M_GR_MANGO/src/tensorflow_lite/src/tensorflow/lite/kernels/internal/reference\arg_min_max.h ****     TFLITE_DCHECK_EQ(input1_shape.Dims(i), output_shape.Dims(i - 1));
 2450              		.loc 2 56 0
 2451 04e8 012080E2 		add	r2, r0, #1
 2452              	.LVL306:
 2453 04ec 040052E1 		cmp	r2, r4
 2454 04f0 180000AA 		bge	.L197
 2455              	.LVL307:
 2456              	.L171:
 2457 04f4 040096E5 		ldr	r0, [r6, #4]
 2458              	.LBB613:
 2459              	.LBB574:
 2460              		.loc 3 216 0
 2461 04f8 0780E0E3 		mvn	r8, #7
 2462              	.LBE574:
 2463              	.LBE613:
 2464              	.LBE652:
  48:C:/Renesas/e2studio_2021_01_workspace_RZA2M_ANPR/ANPR_RZA2M_GR_MANGO/src/tensorflow_lite/src/tensorflow/lite/kernels/internal/reference\arg_min_max.h ****   for (int i = 0; i < axis; ++i) {
 2465              		.loc 2 48 0
 2466 04fc 01E0A0E3 		mov	lr, #1
 2467              	.LBB653:
 2468              	.LBB614:
 2469              	.LBB575:
 2470              		.loc 3 216 0
 2471 0500 008048E0 		sub	r8, r8, r0
 2472 0504 020180E0 		add	r0, r0, r2, lsl #2
 2473              	.LVL308:
 2474              	.L172:
 215:C:/Renesas/e2studio_2021_01_workspace_RZA2M_ANPR/ANPR_RZA2M_GR_MANGO/src/tensorflow_lite/src/tensorflow/lite/kernels/internal\types.h ****     return size_ > kMaxSmallSize ? dims_pointer_[i] : dims_[i];
 2475              		.loc 3 215 0
 2476 0508 016042E2 		sub	r6, r2, #1
 2477              	.LBE575:
 2478              	.LBE614:
 2479              	.LBB615:
 2480              	.LBB546:
 2481              		.loc 3 216 0
 2482 050c 049090E4 		ldr	r9, [r0], #4
 2483              	.LVL309:
 2484              	.LBE546:
 2485              	.LBE615:
 2486              	.LBB616:
 2487              	.LBB576:
 215:C:/Renesas/e2studio_2021_01_workspace_RZA2M_ANPR/ANPR_RZA2M_GR_MANGO/src/tensorflow_lite/src/tensorflow/lite/kernels/internal\types.h ****     return size_ > kMaxSmallSize ? dims_pointer_[i] : dims_[i];
 2488              		.loc 3 215 0
 2489 0510 060055E1 		cmp	r5, r6
 2490 0514 F8FEFFDA 		ble	.L153
 2491              		.loc 3 216 0
 2492 0518 046093E5 		ldr	r6, [r3, #4]
 2493              	.LVL310:
 2494 051c 006086E0 		add	r6, r6, r0
 2495 0520 086096E7 		ldr	r6, [r6, r8]
 2496              	.LVL311:
 2497              	.LBE576:
 2498              	.LBE616:
  57:C:/Renesas/e2studio_2021_01_workspace_RZA2M_ANPR/ANPR_RZA2M_GR_MANGO/src/tensorflow_lite/src/tensorflow/lite/kernels/internal/reference\arg_min_max.h ****     inner_size *= input1_shape.Dims(i);
 2499              		.loc 2 57 0
 2500 0524 090056E1 		cmp	r6, r9
 2501 0528 F3FEFF1A 		bne	.L153
  56:C:/Renesas/e2studio_2021_01_workspace_RZA2M_ANPR/ANPR_RZA2M_GR_MANGO/src/tensorflow_lite/src/tensorflow/lite/kernels/internal/reference\arg_min_max.h ****     TFLITE_DCHECK_EQ(input1_shape.Dims(i), output_shape.Dims(i - 1));
 2502              		.loc 2 56 0
 2503 052c 012082E2 		add	r2, r2, #1
 2504              	.LVL312:
  58:C:/Renesas/e2studio_2021_01_workspace_RZA2M_ANPR/ANPR_RZA2M_GR_MANGO/src/tensorflow_lite/src/tensorflow/lite/kernels/internal/reference\arg_min_max.h ****   }
 2505              		.loc 2 58 0
 2506 0530 960E0EE0 		mul	lr, r6, lr
 2507              	.LVL313:
  56:C:/Renesas/e2studio_2021_01_workspace_RZA2M_ANPR/ANPR_RZA2M_GR_MANGO/src/tensorflow_lite/src/tensorflow/lite/kernels/internal/reference\arg_min_max.h ****     TFLITE_DCHECK_EQ(input1_shape.Dims(i), output_shape.Dims(i - 1));
 2508              		.loc 2 56 0
 2509 0534 040052E1 		cmp	r2, r4
 2510 0538 F2FFFFBA 		blt	.L172
 2511 053c 40FFFFEA 		b	.L173
 2512              	.LVL314:
 2513              	.L192:
 2514              	.LBE653:
 2515              	.LBB654:
 2516              	.LBB640:
  61:C:/Renesas/e2studio_2021_01_workspace_RZA2M_ANPR/ANPR_RZA2M_GR_MANGO/src/tensorflow_lite/src/tensorflow/lite/kernels/internal/reference\arg_min_max.h ****       auto min_max_value = input1_data[outer * axis_size * inner_size + inner];
 2517              		.loc 2 61 0
 2518 0540 05005EE1 		cmp	lr, r5
 2519              	.LBB639:
  63:C:/Renesas/e2studio_2021_01_workspace_RZA2M_ANPR/ANPR_RZA2M_GR_MANGO/src/tensorflow_lite/src/tensorflow/lite/kernels/internal/reference\arg_min_max.h ****       for (int i = 1; i < axis_size; ++i) {
 2520              		.loc 2 63 0
 2521 0544 0010A0E3 		mov	r1, #0
 2522              		.loc 2 72 0
 2523 0548 041084E4 		str	r1, [r4], #4
 2524              	.LVL315:
 2525              	.LBE639:
  61:C:/Renesas/e2studio_2021_01_workspace_RZA2M_ANPR/ANPR_RZA2M_GR_MANGO/src/tensorflow_lite/src/tensorflow/lite/kernels/internal/reference\arg_min_max.h ****       auto min_max_value = input1_data[outer * axis_size * inner_size + inner];
 2526              		.loc 2 61 0
 2527 054c 4AFFFF1A 		bne	.L175
 2528 0550 5BFFFFEA 		b	.L294
 2529              	.LVL316:
 2530              	.L293:
 2531 0554 F88FBDE8 		pop	{r3, r4, r5, r6, r7, r8, r9, r10, fp, pc}
 2532              	.LVL317:
 2533              	.L197:
 2534              	.LBE640:
 2535              	.LBE654:
  54:C:/Renesas/e2studio_2021_01_workspace_RZA2M_ANPR/ANPR_RZA2M_GR_MANGO/src/tensorflow_lite/src/tensorflow/lite/kernels/internal/reference\arg_min_max.h ****   const int dims_count = input1_shape.DimensionsCount();
 2536              		.loc 2 54 0
 2537 0558 01E0A0E3 		mov	lr, #1
 2538 055c 38FFFFEA 		b	.L173
 2539              	.LVL318:
 2540              	.L191:
 2541              	.LBB655:
  56:C:/Renesas/e2studio_2021_01_workspace_RZA2M_ANPR/ANPR_RZA2M_GR_MANGO/src/tensorflow_lite/src/tensorflow/lite/kernels/internal/reference\arg_min_max.h ****     TFLITE_DCHECK_EQ(input1_shape.Dims(i), output_shape.Dims(i - 1));
 2542              		.loc 2 56 0
 2543 0560 00E0A0E1 		mov	lr, r0
 2544 0564 36FFFFEA 		b	.L173
 2545              	.LVL319:
 2546              	.L161:
 2547 0568 012082E2 		add	r2, r2, #1
 2548              	.LVL320:
 2549 056c 040052E1 		cmp	r2, r4
 2550 0570 F8FFFFAA 		bge	.L197
 2551              	.LVL321:
 2552              	.L183:
 2553              	.LBB617:
 2554              	.LBB547:
 2555              		.loc 3 216 0
 2556 0574 0291A0E1 		lsl	r9, r2, #2
 2557              	.LBE547:
 2558              	.LBE617:
  57:C:/Renesas/e2studio_2021_01_workspace_RZA2M_ANPR/ANPR_RZA2M_GR_MANGO/src/tensorflow_lite/src/tensorflow/lite/kernels/internal/reference\arg_min_max.h ****     inner_size *= input1_shape.Dims(i);
 2559              		.loc 2 57 0
 2560 0578 010042E2 		sub	r0, r2, #1
 2561              	.LBB618:
 2562              	.LBB577:
 215:C:/Renesas/e2studio_2021_01_workspace_RZA2M_ANPR/ANPR_RZA2M_GR_MANGO/src/tensorflow_lite/src/tensorflow/lite/kernels/internal\types.h ****     return size_ > kMaxSmallSize ? dims_pointer_[i] : dims_[i];
 2563              		.loc 3 215 0
 2564 057c 000055E1 		cmp	r5, r0
 2565              	.LBE577:
 2566              	.LBE618:
 2567              	.LBB619:
 2568              	.LBB548:
 2569              		.loc 3 216 0
 2570 0580 09E086E0 		add	lr, r6, r9
 2571 0584 04E09EE5 		ldr	lr, [lr, #4]
 2572              	.LVL322:
 2573              	.LBE548:
 2574              	.LBE619:
 2575              	.LBB620:
 2576              	.LBB578:
 215:C:/Renesas/e2studio_2021_01_workspace_RZA2M_ANPR/ANPR_RZA2M_GR_MANGO/src/tensorflow_lite/src/tensorflow/lite/kernels/internal\types.h ****     return size_ > kMaxSmallSize ? dims_pointer_[i] : dims_[i];
 2577              		.loc 3 215 0
 2578 0588 DBFEFFDA 		ble	.L153
 2579              		.loc 3 216 0
 2580 058c 000183E0 		add	r0, r3, r0, lsl #2
 2581              	.LVL323:
 2582 0590 040090E5 		ldr	r0, [r0, #4]
 2583              	.LVL324:
 2584              	.LBE578:
 2585              	.LBE620:
  57:C:/Renesas/e2studio_2021_01_workspace_RZA2M_ANPR/ANPR_RZA2M_GR_MANGO/src/tensorflow_lite/src/tensorflow/lite/kernels/internal/reference\arg_min_max.h ****     inner_size *= input1_shape.Dims(i);
 2586              		.loc 2 57 0
 2587 0594 0E0050E1 		cmp	r0, lr
 2588 0598 D7FEFF1A 		bne	.L153
 2589              	.LVL325:
  56:C:/Renesas/e2studio_2021_01_workspace_RZA2M_ANPR/ANPR_RZA2M_GR_MANGO/src/tensorflow_lite/src/tensorflow/lite/kernels/internal/reference\arg_min_max.h ****     TFLITE_DCHECK_EQ(input1_shape.Dims(i), output_shape.Dims(i - 1));
 2590              		.loc 2 56 0
 2591 059c 01A082E2 		add	r10, r2, #1
 2592              	.LVL326:
 2593 05a0 0A0054E1 		cmp	r4, r10
 2594 05a4 EDFFFFDA 		ble	.L191
 2595              	.LVL327:
 2596              	.LBB621:
 2597              	.LBB549:
 2598              		.loc 3 216 0
 2599 05a8 0A81A0E1 		lsl	r8, r10, #2
 2600              	.LBE549:
 2601              	.LBE621:
 2602              	.LBB622:
 2603              	.LBB579:
 215:C:/Renesas/e2studio_2021_01_workspace_RZA2M_ANPR/ANPR_RZA2M_GR_MANGO/src/tensorflow_lite/src/tensorflow/lite/kernels/internal\types.h ****     return size_ > kMaxSmallSize ? dims_pointer_[i] : dims_[i];
 2604              		.loc 3 215 0
 2605 05ac 020055E1 		cmp	r5, r2
 2606              	.LBE579:
 2607              	.LBE622:
 2608              	.LBB623:
 2609              	.LBB550:
 2610              		.loc 3 216 0
 2611 05b0 08E086E0 		add	lr, r6, r8
 2612 05b4 04E09EE5 		ldr	lr, [lr, #4]
 2613              	.LVL328:
 2614              	.LBE550:
 2615              	.LBE623:
 2616              	.LBB624:
 2617              	.LBB580:
 215:C:/Renesas/e2studio_2021_01_workspace_RZA2M_ANPR/ANPR_RZA2M_GR_MANGO/src/tensorflow_lite/src/tensorflow/lite/kernels/internal\types.h ****     return size_ > kMaxSmallSize ? dims_pointer_[i] : dims_[i];
 2618              		.loc 3 215 0
 2619 05b8 CFFEFFDA 		ble	.L153
 2620              		.loc 3 216 0
 2621 05bc 099083E0 		add	r9, r3, r9
 2622 05c0 049099E5 		ldr	r9, [r9, #4]
 2623              	.LVL329:
 2624              	.LBE580:
 2625              	.LBE624:
  57:C:/Renesas/e2studio_2021_01_workspace_RZA2M_ANPR/ANPR_RZA2M_GR_MANGO/src/tensorflow_lite/src/tensorflow/lite/kernels/internal/reference\arg_min_max.h ****     inner_size *= input1_shape.Dims(i);
 2626              		.loc 2 57 0
 2627 05c4 09005EE1 		cmp	lr, r9
 2628 05c8 CBFEFF1A 		bne	.L153
  56:C:/Renesas/e2studio_2021_01_workspace_RZA2M_ANPR/ANPR_RZA2M_GR_MANGO/src/tensorflow_lite/src/tensorflow/lite/kernels/internal/reference\arg_min_max.h ****     TFLITE_DCHECK_EQ(input1_shape.Dims(i), output_shape.Dims(i - 1));
 2629              		.loc 2 56 0
 2630 05cc 029082E2 		add	r9, r2, #2
  58:C:/Renesas/e2studio_2021_01_workspace_RZA2M_ANPR/ANPR_RZA2M_GR_MANGO/src/tensorflow_lite/src/tensorflow/lite/kernels/internal/reference\arg_min_max.h ****   }
 2631              		.loc 2 58 0
 2632 05d0 9E000EE0 		mul	lr, lr, r0
 2633              	.LVL330:
  56:C:/Renesas/e2studio_2021_01_workspace_RZA2M_ANPR/ANPR_RZA2M_GR_MANGO/src/tensorflow_lite/src/tensorflow/lite/kernels/internal/reference\arg_min_max.h ****     TFLITE_DCHECK_EQ(input1_shape.Dims(i), output_shape.Dims(i - 1));
 2634              		.loc 2 56 0
 2635 05d4 090054E1 		cmp	r4, r9
 2636 05d8 19FFFFDA 		ble	.L173
 2637              	.LVL331:
 2638              	.LBB625:
 2639              	.LBB551:
 2640              		.loc 3 216 0
 2641 05dc 0901A0E1 		lsl	r0, r9, #2
 2642              	.LBE551:
 2643              	.LBE625:
 2644              	.LBB626:
 2645              	.LBB581:
 215:C:/Renesas/e2studio_2021_01_workspace_RZA2M_ANPR/ANPR_RZA2M_GR_MANGO/src/tensorflow_lite/src/tensorflow/lite/kernels/internal\types.h ****     return size_ > kMaxSmallSize ? dims_pointer_[i] : dims_[i];
 2646              		.loc 3 215 0
 2647 05e0 0A0055E1 		cmp	r5, r10
 2648              	.LBE581:
 2649              	.LBE626:
 2650              	.LBB627:
 2651              	.LBB552:
 2652              		.loc 3 216 0
 2653 05e4 00A086E0 		add	r10, r6, r0
 2654 05e8 04A09AE5 		ldr	r10, [r10, #4]
 2655              	.LVL332:
 2656              	.LBE552:
 2657              	.LBE627:
 2658              	.LBB628:
 2659              	.LBB582:
 215:C:/Renesas/e2studio_2021_01_workspace_RZA2M_ANPR/ANPR_RZA2M_GR_MANGO/src/tensorflow_lite/src/tensorflow/lite/kernels/internal\types.h ****     return size_ > kMaxSmallSize ? dims_pointer_[i] : dims_[i];
 2660              		.loc 3 215 0
 2661 05ec C2FEFFDA 		ble	.L153
 2662              		.loc 3 216 0
 2663 05f0 088083E0 		add	r8, r3, r8
 2664 05f4 048098E5 		ldr	r8, [r8, #4]
 2665              	.LVL333:
 2666              	.LBE582:
 2667              	.LBE628:
  57:C:/Renesas/e2studio_2021_01_workspace_RZA2M_ANPR/ANPR_RZA2M_GR_MANGO/src/tensorflow_lite/src/tensorflow/lite/kernels/internal/reference\arg_min_max.h ****     inner_size *= input1_shape.Dims(i);
 2668              		.loc 2 57 0
 2669 05f8 0A0058E1 		cmp	r8, r10
 2670 05fc BEFEFF1A 		bne	.L153
  56:C:/Renesas/e2studio_2021_01_workspace_RZA2M_ANPR/ANPR_RZA2M_GR_MANGO/src/tensorflow_lite/src/tensorflow/lite/kernels/internal/reference\arg_min_max.h ****     TFLITE_DCHECK_EQ(input1_shape.Dims(i), output_shape.Dims(i - 1));
 2671              		.loc 2 56 0
 2672 0600 032082E2 		add	r2, r2, #3
  58:C:/Renesas/e2studio_2021_01_workspace_RZA2M_ANPR/ANPR_RZA2M_GR_MANGO/src/tensorflow_lite/src/tensorflow/lite/kernels/internal/reference\arg_min_max.h ****   }
 2673              		.loc 2 58 0
 2674 0604 980E0EE0 		mul	lr, r8, lr
 2675              	.LVL334:
  56:C:/Renesas/e2studio_2021_01_workspace_RZA2M_ANPR/ANPR_RZA2M_GR_MANGO/src/tensorflow_lite/src/tensorflow/lite/kernels/internal/reference\arg_min_max.h ****     TFLITE_DCHECK_EQ(input1_shape.Dims(i), output_shape.Dims(i - 1));
 2676              		.loc 2 56 0
 2677 0608 020054E1 		cmp	r4, r2
 2678 060c 0CFFFFDA 		ble	.L173
 2679              	.LVL335:
 2680              	.LBB629:
 2681              	.LBB553:
 2682              		.loc 3 216 0
 2683 0610 022186E0 		add	r2, r6, r2, lsl #2
 2684              	.LVL336:
 2685              	.LBE553:
 2686              	.LBE629:
 2687              	.LBB630:
 2688              	.LBB583:
 215:C:/Renesas/e2studio_2021_01_workspace_RZA2M_ANPR/ANPR_RZA2M_GR_MANGO/src/tensorflow_lite/src/tensorflow/lite/kernels/internal\types.h ****     return size_ > kMaxSmallSize ? dims_pointer_[i] : dims_[i];
 2689              		.loc 3 215 0
 2690 0614 090055E1 		cmp	r5, r9
 2691              	.LBE583:
 2692              	.LBE630:
 2693              	.LBB631:
 2694              	.LBB554:
 2695              		.loc 3 216 0
 2696 0618 042092E5 		ldr	r2, [r2, #4]
 2697              	.LVL337:
 2698              	.LBE554:
 2699              	.LBE631:
 2700              	.LBB632:
 2701              	.LBB584:
 215:C:/Renesas/e2studio_2021_01_workspace_RZA2M_ANPR/ANPR_RZA2M_GR_MANGO/src/tensorflow_lite/src/tensorflow/lite/kernels/internal\types.h ****     return size_ > kMaxSmallSize ? dims_pointer_[i] : dims_[i];
 2702              		.loc 3 215 0
 2703 061c B6FEFFDA 		ble	.L153
 2704              		.loc 3 216 0
 2705 0620 003083E0 		add	r3, r3, r0
 2706              	.LVL338:
 2707 0624 043093E5 		ldr	r3, [r3, #4]
 2708              	.LVL339:
 2709              	.LBE584:
 2710              	.LBE632:
  57:C:/Renesas/e2studio_2021_01_workspace_RZA2M_ANPR/ANPR_RZA2M_GR_MANGO/src/tensorflow_lite/src/tensorflow/lite/kernels/internal/reference\arg_min_max.h ****     inner_size *= input1_shape.Dims(i);
 2711              		.loc 2 57 0
 2712 0628 020053E1 		cmp	r3, r2
 2713 062c 03FFFF0A 		beq	.L286
 2714 0630 B1FEFFEA 		b	.L153
 2715              	.LVL340:
 2716              	.L156:
  56:C:/Renesas/e2studio_2021_01_workspace_RZA2M_ANPR/ANPR_RZA2M_GR_MANGO/src/tensorflow_lite/src/tensorflow/lite/kernels/internal/reference\arg_min_max.h ****     TFLITE_DCHECK_EQ(input1_shape.Dims(i), output_shape.Dims(i - 1));
 2717              		.loc 2 56 0
 2718 0634 010054E3 		cmp	r4, #1
 2719 0638 0120A0E3 		mov	r2, #1
 2720              	.LVL341:
 2721 063c 080000DA 		ble	.L295
 2722 0640 050054E3 		cmp	r4, #5
 2723              	.LBE655:
  48:C:/Renesas/e2studio_2021_01_workspace_RZA2M_ANPR/ANPR_RZA2M_GR_MANGO/src/tensorflow_lite/src/tensorflow/lite/kernels/internal/reference\arg_min_max.h ****   for (int i = 0; i < axis; ++i) {
 2724              		.loc 2 48 0
 2725 0644 0270A0E1 		mov	r7, r2
 2726 0648 020000CA 		bgt	.L168
 2727 064c 050055E3 		cmp	r5, #5
 2728 0650 C7FFFFDA 		ble	.L183
 2729 0654 CEFEFFEA 		b	.L169
 2730              	.L168:
 2731 0658 050055E3 		cmp	r5, #5
 2732 065c 53FFFFDA 		ble	.L182
 2733 0660 A3FFFFEA 		b	.L171
 2734              	.L295:
 2735 0664 0270A0E1 		mov	r7, r2
  54:C:/Renesas/e2studio_2021_01_workspace_RZA2M_ANPR/ANPR_RZA2M_GR_MANGO/src/tensorflow_lite/src/tensorflow/lite/kernels/internal/reference\arg_min_max.h ****   const int dims_count = input1_shape.DimensionsCount();
 2736              		.loc 2 54 0
 2737 0668 02E0A0E1 		mov	lr, r2
 2738 066c F8FEFFEA 		b	.L180
 2739              		.cfi_endproc
 2740              	.LFE1977:
 2741              		.fnend
 2743              		.section	.text._ZN6tflite13reference_ops9ArgMinMaxIhllNS_3ops5micro7GreaterEEEvRKNS_12RuntimeShape
 2744              		.align	2
 2745              		.weak	_ZN6tflite13reference_ops9ArgMinMaxIhllNS_3ops5micro7GreaterEEEvRKNS_12RuntimeShapeEPKT_PKT1
 2746              		.syntax unified
 2747              		.arm
 2748              		.fpu neon
 2750              	_ZN6tflite13reference_ops9ArgMinMaxIhllNS_3ops5micro7GreaterEEEvRKNS_12RuntimeShapeEPKT_PKT1_S7_PT0
 2751              		.fnstart
 2752              	.LFB1978:
  36:C:/Renesas/e2studio_2021_01_workspace_RZA2M_ANPR/ANPR_RZA2M_GR_MANGO/src/tensorflow_lite/src/tensorflow/lite/kernels/internal/reference\arg_min_max.h ****                const T3* input2_data, const RuntimeShape& output_shape,
 2753              		.loc 2 36 0
 2754              		.cfi_startproc
 2755              		@ args = 8, pretend = 0, frame = 8
 2756              		@ frame_needed = 0, uses_anonymous_args = 0
 2757              	.LVL342:
 2758 0000 00C090E5 		ldr	ip, [r0]
 2759              	.LVL343:
 2760 0004 F04F2DE9 		push	{r4, r5, r6, r7, r8, r9, r10, fp, lr}
 2761              		.save {r4, r5, r6, r7, r8, r9, r10, fp, lr}
 2762              		.cfi_def_cfa_offset 36
 2763              		.cfi_offset 4, -36
 2764              		.cfi_offset 5, -32
 2765              		.cfi_offset 6, -28
 2766              		.cfi_offset 7, -24
 2767              		.cfi_offset 8, -20
 2768              		.cfi_offset 9, -16
 2769              		.cfi_offset 10, -12
 2770              		.cfi_offset 11, -8
 2771              		.cfi_offset 14, -4
 2772              		.pad #12
 2773 0008 0CD04DE2 		sub	sp, sp, #12
 2774              		.cfi_def_cfa_offset 48
  39:C:/Renesas/e2studio_2021_01_workspace_RZA2M_ANPR/ANPR_RZA2M_GR_MANGO/src/tensorflow_lite/src/tensorflow/lite/kernels/internal/reference\arg_min_max.h ****   TFLITE_DCHECK_EQ(input1_shape.DimensionsCount() - 1,
 2775              		.loc 2 39 0
 2776 000c 00005CE3 		cmp	ip, #0
 2777 0010 390000DA 		ble	.L298
 2778              	.LVL344:
  40:C:/Renesas/e2studio_2021_01_workspace_RZA2M_ANPR/ANPR_RZA2M_GR_MANGO/src/tensorflow_lite/src/tensorflow/lite/kernels/internal/reference\arg_min_max.h ****                    output_shape.DimensionsCount());
 2779              		.loc 2 40 0
 2780 0014 00E093E5 		ldr	lr, [r3]
 2781 0018 01404CE2 		sub	r4, ip, #1
 2782              	.LVL345:
 2783 001c 0E0054E1 		cmp	r4, lr
 2784 0020 3500001A 		bne	.L298
  42:C:/Renesas/e2studio_2021_01_workspace_RZA2M_ANPR/ANPR_RZA2M_GR_MANGO/src/tensorflow_lite/src/tensorflow/lite/kernels/internal/reference\arg_min_max.h ****   if (axis < 0) {
 2785              		.loc 2 42 0
 2786 0024 002092E5 		ldr	r2, [r2]
 2787              	.LVL346:
  43:C:/Renesas/e2studio_2021_01_workspace_RZA2M_ANPR/ANPR_RZA2M_GR_MANGO/src/tensorflow_lite/src/tensorflow/lite/kernels/internal/reference\arg_min_max.h ****     axis += input1_shape.DimensionsCount();
 2788              		.loc 2 43 0
 2789 0028 000052E3 		cmp	r2, #0
 2790 002c 180100BA 		blt	.L435
 2791              	.LVL347:
 2792              	.L299:
 2793              	.LBB679:
 2794              	.LBB680:
 215:C:/Renesas/e2studio_2021_01_workspace_RZA2M_ANPR/ANPR_RZA2M_GR_MANGO/src/tensorflow_lite/src/tensorflow/lite/kernels/internal\types.h ****     return size_ > kMaxSmallSize ? dims_pointer_[i] : dims_[i];
 2795              		.loc 3 215 0
 2796 0030 02005CE1 		cmp	ip, r2
 2797 0034 300000DA 		ble	.L298
 2798              		.loc 3 216 0
 2799 0038 05005CE3 		cmp	ip, #5
 2800 003c A70000CA 		bgt	.L436
 2801 0040 02E180E0 		add	lr, r0, r2, lsl #2
 2802              	.LBE680:
 2803              	.LBE679:
 2804              	.LBB685:
  49:C:/Renesas/e2studio_2021_01_workspace_RZA2M_ANPR/ANPR_RZA2M_GR_MANGO/src/tensorflow_lite/src/tensorflow/lite/kernels/internal/reference\arg_min_max.h ****     TFLITE_DCHECK_EQ(input1_shape.Dims(i), output_shape.Dims(i));
 2805              		.loc 2 49 0
 2806 0044 000052E3 		cmp	r2, #0
 2807              	.LBE685:
 2808              	.LBB772:
 2809              	.LBB681:
 2810              		.loc 3 216 0
 2811 0048 04E09EE5 		ldr	lr, [lr, #4]
 2812              	.LVL348:
 2813              	.LBE681:
 2814              	.LBE772:
 2815              	.LBB773:
  49:C:/Renesas/e2studio_2021_01_workspace_RZA2M_ANPR/ANPR_RZA2M_GR_MANGO/src/tensorflow_lite/src/tensorflow/lite/kernels/internal/reference\arg_min_max.h ****     TFLITE_DCHECK_EQ(input1_shape.Dims(i), output_shape.Dims(i));
 2816              		.loc 2 49 0
 2817 004c 7401000A 		beq	.L301
 2818 0050 050054E3 		cmp	r4, #5
 2819 0054 290000CA 		bgt	.L305
 2820              	.LVL349:
 2821              	.LBB686:
 2822              	.LBB687:
 215:C:/Renesas/e2studio_2021_01_workspace_RZA2M_ANPR/ANPR_RZA2M_GR_MANGO/src/tensorflow_lite/src/tensorflow/lite/kernels/internal\types.h ****     return size_ > kMaxSmallSize ? dims_pointer_[i] : dims_[i];
 2823              		.loc 3 215 0
 2824 0058 000054E3 		cmp	r4, #0
 2825              	.LBE687:
 2826              	.LBE686:
 2827              	.LBB712:
 2828              	.LBB713:
 2829              		.loc 3 216 0
 2830 005c 049090E5 		ldr	r9, [r0, #4]
 2831              	.LVL350:
 2832              	.LBE713:
 2833              	.LBE712:
 2834              	.LBB731:
 2835              	.LBB688:
 215:C:/Renesas/e2studio_2021_01_workspace_RZA2M_ANPR/ANPR_RZA2M_GR_MANGO/src/tensorflow_lite/src/tensorflow/lite/kernels/internal\types.h ****     return size_ > kMaxSmallSize ? dims_pointer_[i] : dims_[i];
 2836              		.loc 3 215 0
 2837 0060 2500000A 		beq	.L298
 2838              	.LVL351:
 2839              	.LBE688:
 2840              	.LBE731:
  50:C:/Renesas/e2studio_2021_01_workspace_RZA2M_ANPR/ANPR_RZA2M_GR_MANGO/src/tensorflow_lite/src/tensorflow/lite/kernels/internal/reference\arg_min_max.h ****     outer_size *= input1_shape.Dims(i);
 2841              		.loc 2 50 0
 2842 0064 045093E5 		ldr	r5, [r3, #4]
 2843 0068 050059E1 		cmp	r9, r5
 2844 006c 2200001A 		bne	.L298
 2845              	.LVL352:
  49:C:/Renesas/e2studio_2021_01_workspace_RZA2M_ANPR/ANPR_RZA2M_GR_MANGO/src/tensorflow_lite/src/tensorflow/lite/kernels/internal/reference\arg_min_max.h ****     TFLITE_DCHECK_EQ(input1_shape.Dims(i), output_shape.Dims(i));
 2846              		.loc 2 49 0
 2847 0070 010052E3 		cmp	r2, #1
 2848 0074 3701000A 		beq	.L306
 2849              	.LVL353:
 2850              	.LBB732:
 2851              	.LBB714:
 215:C:/Renesas/e2studio_2021_01_workspace_RZA2M_ANPR/ANPR_RZA2M_GR_MANGO/src/tensorflow_lite/src/tensorflow/lite/kernels/internal\types.h ****     return size_ > kMaxSmallSize ? dims_pointer_[i] : dims_[i];
 2852              		.loc 3 215 0
 2853 0078 01005CE3 		cmp	ip, #1
 2854 007c 1E00000A 		beq	.L298
 2855              	.LBE714:
 2856              	.LBE732:
 2857              	.LBB733:
 2858              	.LBB689:
 2859 0080 010054E3 		cmp	r4, #1
 2860              	.LBE689:
 2861              	.LBE733:
 2862              	.LBB734:
 2863              	.LBB715:
 2864              		.loc 3 216 0
 2865 0084 085090E5 		ldr	r5, [r0, #8]
 2866              	.LVL354:
 2867              	.LBE715:
 2868              	.LBE734:
 2869              	.LBB735:
 2870              	.LBB690:
 215:C:/Renesas/e2studio_2021_01_workspace_RZA2M_ANPR/ANPR_RZA2M_GR_MANGO/src/tensorflow_lite/src/tensorflow/lite/kernels/internal\types.h ****     return size_ > kMaxSmallSize ? dims_pointer_[i] : dims_[i];
 2871              		.loc 3 215 0
 2872 0088 1B00000A 		beq	.L298
 2873              	.LVL355:
 2874              	.LBE690:
 2875              	.LBE735:
  50:C:/Renesas/e2studio_2021_01_workspace_RZA2M_ANPR/ANPR_RZA2M_GR_MANGO/src/tensorflow_lite/src/tensorflow/lite/kernels/internal/reference\arg_min_max.h ****     outer_size *= input1_shape.Dims(i);
 2876              		.loc 2 50 0
 2877 008c 086093E5 		ldr	r6, [r3, #8]
 2878 0090 060055E1 		cmp	r5, r6
 2879 0094 1800001A 		bne	.L298
  49:C:/Renesas/e2studio_2021_01_workspace_RZA2M_ANPR/ANPR_RZA2M_GR_MANGO/src/tensorflow_lite/src/tensorflow/lite/kernels/internal/reference\arg_min_max.h ****     TFLITE_DCHECK_EQ(input1_shape.Dims(i), output_shape.Dims(i));
 2880              		.loc 2 49 0
 2881 0098 020052E3 		cmp	r2, #2
  51:C:/Renesas/e2studio_2021_01_workspace_RZA2M_ANPR/ANPR_RZA2M_GR_MANGO/src/tensorflow_lite/src/tensorflow/lite/kernels/internal/reference\arg_min_max.h ****   }
 2882              		.loc 2 51 0
 2883 009c 950909E0 		mul	r9, r5, r9
 2884              	.LVL356:
  49:C:/Renesas/e2studio_2021_01_workspace_RZA2M_ANPR/ANPR_RZA2M_GR_MANGO/src/tensorflow_lite/src/tensorflow/lite/kernels/internal/reference\arg_min_max.h ****     TFLITE_DCHECK_EQ(input1_shape.Dims(i), output_shape.Dims(i));
 2885              		.loc 2 49 0
 2886 00a0 2C01000A 		beq	.L306
 2887              	.LVL357:
 2888              	.LBB736:
 2889              	.LBB716:
 215:C:/Renesas/e2studio_2021_01_workspace_RZA2M_ANPR/ANPR_RZA2M_GR_MANGO/src/tensorflow_lite/src/tensorflow/lite/kernels/internal\types.h ****     return size_ > kMaxSmallSize ? dims_pointer_[i] : dims_[i];
 2890              		.loc 3 215 0
 2891 00a4 02005CE3 		cmp	ip, #2
 2892 00a8 1300000A 		beq	.L298
 2893              	.LBE716:
 2894              	.LBE736:
 2895              	.LBB737:
 2896              	.LBB691:
 2897 00ac 020054E3 		cmp	r4, #2
 2898              	.LBE691:
 2899              	.LBE737:
 2900              	.LBB738:
 2901              	.LBB717:
 2902              		.loc 3 216 0
 2903 00b0 0C5090E5 		ldr	r5, [r0, #12]
 2904              	.LVL358:
 2905              	.LBE717:
 2906              	.LBE738:
 2907              	.LBB739:
 2908              	.LBB692:
 215:C:/Renesas/e2studio_2021_01_workspace_RZA2M_ANPR/ANPR_RZA2M_GR_MANGO/src/tensorflow_lite/src/tensorflow/lite/kernels/internal\types.h ****     return size_ > kMaxSmallSize ? dims_pointer_[i] : dims_[i];
 2909              		.loc 3 215 0
 2910 00b4 1000000A 		beq	.L298
 2911              	.LVL359:
 2912              	.LBE692:
 2913              	.LBE739:
  50:C:/Renesas/e2studio_2021_01_workspace_RZA2M_ANPR/ANPR_RZA2M_GR_MANGO/src/tensorflow_lite/src/tensorflow/lite/kernels/internal/reference\arg_min_max.h ****     outer_size *= input1_shape.Dims(i);
 2914              		.loc 2 50 0
 2915 00b8 0C6093E5 		ldr	r6, [r3, #12]
 2916 00bc 060055E1 		cmp	r5, r6
 2917 00c0 0D00001A 		bne	.L298
  49:C:/Renesas/e2studio_2021_01_workspace_RZA2M_ANPR/ANPR_RZA2M_GR_MANGO/src/tensorflow_lite/src/tensorflow/lite/kernels/internal/reference\arg_min_max.h ****     TFLITE_DCHECK_EQ(input1_shape.Dims(i), output_shape.Dims(i));
 2918              		.loc 2 49 0
 2919 00c4 030052E3 		cmp	r2, #3
  51:C:/Renesas/e2studio_2021_01_workspace_RZA2M_ANPR/ANPR_RZA2M_GR_MANGO/src/tensorflow_lite/src/tensorflow/lite/kernels/internal/reference\arg_min_max.h ****   }
 2920              		.loc 2 51 0
 2921 00c8 950909E0 		mul	r9, r5, r9
 2922              	.LVL360:
  49:C:/Renesas/e2studio_2021_01_workspace_RZA2M_ANPR/ANPR_RZA2M_GR_MANGO/src/tensorflow_lite/src/tensorflow/lite/kernels/internal/reference\arg_min_max.h ****     TFLITE_DCHECK_EQ(input1_shape.Dims(i), output_shape.Dims(i));
 2923              		.loc 2 49 0
 2924 00cc 2101000A 		beq	.L306
 2925              	.LVL361:
 2926              	.LBB740:
 2927              	.LBB718:
 215:C:/Renesas/e2studio_2021_01_workspace_RZA2M_ANPR/ANPR_RZA2M_GR_MANGO/src/tensorflow_lite/src/tensorflow/lite/kernels/internal\types.h ****     return size_ > kMaxSmallSize ? dims_pointer_[i] : dims_[i];
 2928              		.loc 3 215 0
 2929 00d0 03005CE3 		cmp	ip, #3
 2930 00d4 0800000A 		beq	.L298
 2931              	.LBE718:
 2932              	.LBE740:
 2933              	.LBB741:
 2934              	.LBB693:
 2935 00d8 030054E3 		cmp	r4, #3
 2936              	.LBE693:
 2937              	.LBE741:
 2938              	.LBB742:
 2939              	.LBB719:
 2940              		.loc 3 216 0
 2941 00dc 105090E5 		ldr	r5, [r0, #16]
 2942              	.LVL362:
 2943              	.LBE719:
 2944              	.LBE742:
 2945              	.LBB743:
 2946              	.LBB694:
 215:C:/Renesas/e2studio_2021_01_workspace_RZA2M_ANPR/ANPR_RZA2M_GR_MANGO/src/tensorflow_lite/src/tensorflow/lite/kernels/internal\types.h ****     return size_ > kMaxSmallSize ? dims_pointer_[i] : dims_[i];
 2947              		.loc 3 215 0
 2948 00e0 0500000A 		beq	.L298
 2949              	.LVL363:
 2950              	.LBE694:
 2951              	.LBE743:
  50:C:/Renesas/e2studio_2021_01_workspace_RZA2M_ANPR/ANPR_RZA2M_GR_MANGO/src/tensorflow_lite/src/tensorflow/lite/kernels/internal/reference\arg_min_max.h ****     outer_size *= input1_shape.Dims(i);
 2952              		.loc 2 50 0
 2953 00e4 106093E5 		ldr	r6, [r3, #16]
 2954 00e8 060055E1 		cmp	r5, r6
 2955 00ec 0200001A 		bne	.L298
  49:C:/Renesas/e2studio_2021_01_workspace_RZA2M_ANPR/ANPR_RZA2M_GR_MANGO/src/tensorflow_lite/src/tensorflow/lite/kernels/internal/reference\arg_min_max.h ****     TFLITE_DCHECK_EQ(input1_shape.Dims(i), output_shape.Dims(i));
 2956              		.loc 2 49 0
 2957 00f0 040052E3 		cmp	r2, #4
  51:C:/Renesas/e2studio_2021_01_workspace_RZA2M_ANPR/ANPR_RZA2M_GR_MANGO/src/tensorflow_lite/src/tensorflow/lite/kernels/internal/reference\arg_min_max.h ****   }
 2958              		.loc 2 51 0
 2959 00f4 950909E0 		mul	r9, r5, r9
 2960              	.LVL364:
  49:C:/Renesas/e2studio_2021_01_workspace_RZA2M_ANPR/ANPR_RZA2M_GR_MANGO/src/tensorflow_lite/src/tensorflow/lite/kernels/internal/reference\arg_min_max.h ****     TFLITE_DCHECK_EQ(input1_shape.Dims(i), output_shape.Dims(i));
 2961              		.loc 2 49 0
 2962 00f8 1601000A 		beq	.L306
 2963              	.LVL365:
 2964              	.L298:
 2965              	.LBE773:
  39:C:/Renesas/e2studio_2021_01_workspace_RZA2M_ANPR/ANPR_RZA2M_GR_MANGO/src/tensorflow_lite/src/tensorflow/lite/kernels/internal/reference\arg_min_max.h ****   TFLITE_DCHECK_EQ(input1_shape.DimensionsCount() - 1,
 2966              		.loc 2 39 0 discriminator 1
 2967 00fc FEFFFFEB 		bl	abort
 2968              	.LVL366:
 2969              	.L305:
 2970              	.LBB774:
 2971              	.LBB744:
 2972              	.LBB695:
 2973              		.loc 3 216 0
 2974 0100 045093E5 		ldr	r5, [r3, #4]
 2975              	.LBE695:
 2976              	.LBE744:
 2977              	.LBB745:
 2978              	.LBB720:
 2979 0104 049090E5 		ldr	r9, [r0, #4]
 2980              	.LVL367:
 2981              	.LBE720:
 2982              	.LBE745:
 2983              	.LBB746:
 2984              	.LBB696:
 2985 0108 006095E5 		ldr	r6, [r5]
 2986              	.LVL368:
 2987              	.LBE696:
 2988              	.LBE746:
  50:C:/Renesas/e2studio_2021_01_workspace_RZA2M_ANPR/ANPR_RZA2M_GR_MANGO/src/tensorflow_lite/src/tensorflow/lite/kernels/internal/reference\arg_min_max.h ****     outer_size *= input1_shape.Dims(i);
 2989              		.loc 2 50 0
 2990 010c 060059E1 		cmp	r9, r6
 2991 0110 F9FFFF1A 		bne	.L298
 2992              	.LVL369:
  49:C:/Renesas/e2studio_2021_01_workspace_RZA2M_ANPR/ANPR_RZA2M_GR_MANGO/src/tensorflow_lite/src/tensorflow/lite/kernels/internal/reference\arg_min_max.h ****     TFLITE_DCHECK_EQ(input1_shape.Dims(i), output_shape.Dims(i));
 2993              		.loc 2 49 0
 2994 0114 010052E3 		cmp	r2, #1
 2995 0118 1A00000A 		beq	.L307
 2996              	.LVL370:
 2997              	.LBB747:
 2998              	.LBB721:
 215:C:/Renesas/e2studio_2021_01_workspace_RZA2M_ANPR/ANPR_RZA2M_GR_MANGO/src/tensorflow_lite/src/tensorflow/lite/kernels/internal\types.h ****     return size_ > kMaxSmallSize ? dims_pointer_[i] : dims_[i];
 2999              		.loc 3 215 0
 3000 011c 01005CE3 		cmp	ip, #1
 3001 0120 F5FFFF0A 		beq	.L298
 3002              	.LVL371:
 3003              	.LBE721:
 3004              	.LBE747:
 3005              	.LBB748:
 3006              	.LBB697:
 3007              		.loc 3 216 0
 3008 0124 047095E5 		ldr	r7, [r5, #4]
 3009              	.LVL372:
 3010              	.LBE697:
 3011              	.LBE748:
  50:C:/Renesas/e2studio_2021_01_workspace_RZA2M_ANPR/ANPR_RZA2M_GR_MANGO/src/tensorflow_lite/src/tensorflow/lite/kernels/internal/reference\arg_min_max.h ****     outer_size *= input1_shape.Dims(i);
 3012              		.loc 2 50 0
 3013 0128 086090E5 		ldr	r6, [r0, #8]
 3014 012c 070056E1 		cmp	r6, r7
 3015 0130 F1FFFF1A 		bne	.L298
  49:C:/Renesas/e2studio_2021_01_workspace_RZA2M_ANPR/ANPR_RZA2M_GR_MANGO/src/tensorflow_lite/src/tensorflow/lite/kernels/internal/reference\arg_min_max.h ****     TFLITE_DCHECK_EQ(input1_shape.Dims(i), output_shape.Dims(i));
 3016              		.loc 2 49 0
 3017 0134 020052E3 		cmp	r2, #2
  51:C:/Renesas/e2studio_2021_01_workspace_RZA2M_ANPR/ANPR_RZA2M_GR_MANGO/src/tensorflow_lite/src/tensorflow/lite/kernels/internal/reference\arg_min_max.h ****   }
 3018              		.loc 2 51 0
 3019 0138 960909E0 		mul	r9, r6, r9
 3020              	.LVL373:
  49:C:/Renesas/e2studio_2021_01_workspace_RZA2M_ANPR/ANPR_RZA2M_GR_MANGO/src/tensorflow_lite/src/tensorflow/lite/kernels/internal/reference\arg_min_max.h ****     TFLITE_DCHECK_EQ(input1_shape.Dims(i), output_shape.Dims(i));
 3021              		.loc 2 49 0
 3022 013c 1100000A 		beq	.L307
 3023              	.LVL374:
 3024              	.LBB749:
 3025              	.LBB722:
 215:C:/Renesas/e2studio_2021_01_workspace_RZA2M_ANPR/ANPR_RZA2M_GR_MANGO/src/tensorflow_lite/src/tensorflow/lite/kernels/internal\types.h ****     return size_ > kMaxSmallSize ? dims_pointer_[i] : dims_[i];
 3026              		.loc 3 215 0
 3027 0140 02005CE3 		cmp	ip, #2
 3028 0144 ECFFFF0A 		beq	.L298
 3029              	.LVL375:
 3030              	.LBE722:
 3031              	.LBE749:
 3032              	.LBB750:
 3033              	.LBB698:
 3034              		.loc 3 216 0
 3035 0148 087095E5 		ldr	r7, [r5, #8]
 3036              	.LVL376:
 3037              	.LBE698:
 3038              	.LBE750:
  50:C:/Renesas/e2studio_2021_01_workspace_RZA2M_ANPR/ANPR_RZA2M_GR_MANGO/src/tensorflow_lite/src/tensorflow/lite/kernels/internal/reference\arg_min_max.h ****     outer_size *= input1_shape.Dims(i);
 3039              		.loc 2 50 0
 3040 014c 0C6090E5 		ldr	r6, [r0, #12]
 3041 0150 070056E1 		cmp	r6, r7
 3042 0154 E8FFFF1A 		bne	.L298
