   1              		.cpu cortex-a9
   2              		.eabi_attribute 28, 1
   3              		.eabi_attribute 20, 1
   4              		.eabi_attribute 21, 1
   5              		.eabi_attribute 23, 3
   6              		.eabi_attribute 24, 1
   7              		.eabi_attribute 25, 1
   8              		.eabi_attribute 26, 1
   9              		.eabi_attribute 30, 2
  10              		.eabi_attribute 34, 0
  11              		.eabi_attribute 18, 4
  12              		.file	"concatenation.cpp"
  13              		.text
  14              	.Ltext0:
  15              		.cfi_sections	.debug_frame
  16              		.section	.text._ZN6tflite3ops5micro13concatenation4InitEP13TfLiteContextPKcj,"ax",%progbits
  17              		.align	2
  18              		.global	_ZN6tflite3ops5micro13concatenation4InitEP13TfLiteContextPKcj
  19              		.syntax unified
  20              		.arm
  21              		.fpu neon
  23              	_ZN6tflite3ops5micro13concatenation4InitEP13TfLiteContextPKcj:
  24              		.fnstart
  25              	.LFB4508:
  26              		.file 1 "../src/tensorflow_lite/src/tensorflow/lite/micro/kernels/concatenation.cpp"
   1:../src/tensorflow_lite/src/tensorflow/lite/micro/kernels/concatenation.cpp **** /* Copyright 2019 The TensorFlow Authors. All Rights Reserved.
   2:../src/tensorflow_lite/src/tensorflow/lite/micro/kernels/concatenation.cpp **** 
   3:../src/tensorflow_lite/src/tensorflow/lite/micro/kernels/concatenation.cpp **** Licensed under the Apache License, Version 2.0 (the "License");
   4:../src/tensorflow_lite/src/tensorflow/lite/micro/kernels/concatenation.cpp **** you may not use this file except in compliance with the License.
   5:../src/tensorflow_lite/src/tensorflow/lite/micro/kernels/concatenation.cpp **** You may obtain a copy of the License at
   6:../src/tensorflow_lite/src/tensorflow/lite/micro/kernels/concatenation.cpp **** 
   7:../src/tensorflow_lite/src/tensorflow/lite/micro/kernels/concatenation.cpp ****     http://www.apache.org/licenses/LICENSE-2.0
   8:../src/tensorflow_lite/src/tensorflow/lite/micro/kernels/concatenation.cpp **** 
   9:../src/tensorflow_lite/src/tensorflow/lite/micro/kernels/concatenation.cpp **** Unless required by applicable law or agreed to in writing, software
  10:../src/tensorflow_lite/src/tensorflow/lite/micro/kernels/concatenation.cpp **** distributed under the License is distributed on an "AS IS" BASIS,
  11:../src/tensorflow_lite/src/tensorflow/lite/micro/kernels/concatenation.cpp **** WITHOUT WARRANTIES OR CONDITIONS OF ANY KIND, either express or implied.
  12:../src/tensorflow_lite/src/tensorflow/lite/micro/kernels/concatenation.cpp **** See the License for the specific language governing permissions and
  13:../src/tensorflow_lite/src/tensorflow/lite/micro/kernels/concatenation.cpp **** limitations under the License.
  14:../src/tensorflow_lite/src/tensorflow/lite/micro/kernels/concatenation.cpp **** ==============================================================================*/
  15:../src/tensorflow_lite/src/tensorflow/lite/micro/kernels/concatenation.cpp **** #include "tensorflow/lite/kernels/internal/reference/concatenation.h"
  16:../src/tensorflow_lite/src/tensorflow/lite/micro/kernels/concatenation.cpp **** 
  17:../src/tensorflow_lite/src/tensorflow/lite/micro/kernels/concatenation.cpp **** #include <cstdint>
  18:../src/tensorflow_lite/src/tensorflow/lite/micro/kernels/concatenation.cpp **** 
  19:../src/tensorflow_lite/src/tensorflow/lite/micro/kernels/concatenation.cpp **** #include "tensorflow/lite/c/builtin_op_data.h"
  20:../src/tensorflow_lite/src/tensorflow/lite/micro/kernels/concatenation.cpp **** #include "tensorflow/lite/c/common.h"
  21:../src/tensorflow_lite/src/tensorflow/lite/micro/kernels/concatenation.cpp **** #include "tensorflow/lite/kernels/internal/portable_tensor.h"
  22:../src/tensorflow_lite/src/tensorflow/lite/micro/kernels/concatenation.cpp **** #include "tensorflow/lite/kernels/internal/tensor_ctypes.h"
  23:../src/tensorflow_lite/src/tensorflow/lite/micro/kernels/concatenation.cpp **** #include "tensorflow/lite/kernels/internal/types.h"
  24:../src/tensorflow_lite/src/tensorflow/lite/micro/kernels/concatenation.cpp **** #include "tensorflow/lite/kernels/kernel_util.h"
  25:../src/tensorflow_lite/src/tensorflow/lite/micro/kernels/concatenation.cpp **** #include "tensorflow/lite/micro/kernels/kernel_util.h"
  26:../src/tensorflow_lite/src/tensorflow/lite/micro/kernels/concatenation.cpp **** 
  27:../src/tensorflow_lite/src/tensorflow/lite/micro/kernels/concatenation.cpp **** namespace tflite {
  28:../src/tensorflow_lite/src/tensorflow/lite/micro/kernels/concatenation.cpp **** namespace ops {
  29:../src/tensorflow_lite/src/tensorflow/lite/micro/kernels/concatenation.cpp **** namespace micro {
  30:../src/tensorflow_lite/src/tensorflow/lite/micro/kernels/concatenation.cpp **** namespace concatenation {
  31:../src/tensorflow_lite/src/tensorflow/lite/micro/kernels/concatenation.cpp **** 
  32:../src/tensorflow_lite/src/tensorflow/lite/micro/kernels/concatenation.cpp **** constexpr int kMaxInputNum = 10;  // Maximum number of input tensors
  33:../src/tensorflow_lite/src/tensorflow/lite/micro/kernels/concatenation.cpp **** constexpr int kOutputTensor = 0;
  34:../src/tensorflow_lite/src/tensorflow/lite/micro/kernels/concatenation.cpp **** 
  35:../src/tensorflow_lite/src/tensorflow/lite/micro/kernels/concatenation.cpp **** struct OpData {
  36:../src/tensorflow_lite/src/tensorflow/lite/micro/kernels/concatenation.cpp ****   ConcatenationParams params;
  37:../src/tensorflow_lite/src/tensorflow/lite/micro/kernels/concatenation.cpp **** };
  38:../src/tensorflow_lite/src/tensorflow/lite/micro/kernels/concatenation.cpp **** 
  39:../src/tensorflow_lite/src/tensorflow/lite/micro/kernels/concatenation.cpp **** // Handles negative axis index, coerces to positive index value.
  40:../src/tensorflow_lite/src/tensorflow/lite/micro/kernels/concatenation.cpp **** inline int CalculatePositiveAxis(int axis, const TfLiteTensor* output_tensor) {
  41:../src/tensorflow_lite/src/tensorflow/lite/micro/kernels/concatenation.cpp ****   if (axis >= 0) {
  42:../src/tensorflow_lite/src/tensorflow/lite/micro/kernels/concatenation.cpp ****     return axis;
  43:../src/tensorflow_lite/src/tensorflow/lite/micro/kernels/concatenation.cpp ****   } else {
  44:../src/tensorflow_lite/src/tensorflow/lite/micro/kernels/concatenation.cpp ****     return NumDimensions(output_tensor) + axis;
  45:../src/tensorflow_lite/src/tensorflow/lite/micro/kernels/concatenation.cpp ****   }
  46:../src/tensorflow_lite/src/tensorflow/lite/micro/kernels/concatenation.cpp **** }
  47:../src/tensorflow_lite/src/tensorflow/lite/micro/kernels/concatenation.cpp **** 
  48:../src/tensorflow_lite/src/tensorflow/lite/micro/kernels/concatenation.cpp **** // The following functions are helpers to get tensor data in the format that the
  49:../src/tensorflow_lite/src/tensorflow/lite/micro/kernels/concatenation.cpp **** // reference op implementation expects. They provide the same functionality as
  50:../src/tensorflow_lite/src/tensorflow/lite/micro/kernels/concatenation.cpp **** // class VectorOfTensors and class VectorOfQuantizedTensors in TFLite.
  51:../src/tensorflow_lite/src/tensorflow/lite/micro/kernels/concatenation.cpp **** 
  52:../src/tensorflow_lite/src/tensorflow/lite/micro/kernels/concatenation.cpp **** // Gets shapes from a list of tensors.
  53:../src/tensorflow_lite/src/tensorflow/lite/micro/kernels/concatenation.cpp **** inline void GetAllInputTensorShapes(const TfLiteContext* context,
  54:../src/tensorflow_lite/src/tensorflow/lite/micro/kernels/concatenation.cpp ****                                     const TfLiteNode* node,
  55:../src/tensorflow_lite/src/tensorflow/lite/micro/kernels/concatenation.cpp ****                                     RuntimeShape all_shapes[kMaxInputNum]) {
  56:../src/tensorflow_lite/src/tensorflow/lite/micro/kernels/concatenation.cpp ****   TFLITE_DCHECK(context != nullptr);
  57:../src/tensorflow_lite/src/tensorflow/lite/micro/kernels/concatenation.cpp ****   TFLITE_DCHECK(node != nullptr);
  58:../src/tensorflow_lite/src/tensorflow/lite/micro/kernels/concatenation.cpp ****   for (int i = 0; i < node->inputs->size; ++i) {
  59:../src/tensorflow_lite/src/tensorflow/lite/micro/kernels/concatenation.cpp ****     const TfLiteEvalTensor* t = tflite::micro::GetEvalInput(context, node, i);
  60:../src/tensorflow_lite/src/tensorflow/lite/micro/kernels/concatenation.cpp ****     RuntimeShape shape = tflite::micro::GetTensorShape(t);
  61:../src/tensorflow_lite/src/tensorflow/lite/micro/kernels/concatenation.cpp ****     all_shapes[i].ReplaceWith(shape.DimensionsCount(), shape.DimsData());
  62:../src/tensorflow_lite/src/tensorflow/lite/micro/kernels/concatenation.cpp ****   }
  63:../src/tensorflow_lite/src/tensorflow/lite/micro/kernels/concatenation.cpp **** }
  64:../src/tensorflow_lite/src/tensorflow/lite/micro/kernels/concatenation.cpp **** 
  65:../src/tensorflow_lite/src/tensorflow/lite/micro/kernels/concatenation.cpp **** // Get shape pointers from a list of shapes.
  66:../src/tensorflow_lite/src/tensorflow/lite/micro/kernels/concatenation.cpp **** inline void GetShapesPointers(const RuntimeShape* shapes, size_t num,
  67:../src/tensorflow_lite/src/tensorflow/lite/micro/kernels/concatenation.cpp ****                               const RuntimeShape* pointers[]) {
  68:../src/tensorflow_lite/src/tensorflow/lite/micro/kernels/concatenation.cpp ****   for (size_t i = 0; i < num; ++i) {
  69:../src/tensorflow_lite/src/tensorflow/lite/micro/kernels/concatenation.cpp ****     pointers[i] = &shapes[i];
  70:../src/tensorflow_lite/src/tensorflow/lite/micro/kernels/concatenation.cpp ****   }
  71:../src/tensorflow_lite/src/tensorflow/lite/micro/kernels/concatenation.cpp **** }
  72:../src/tensorflow_lite/src/tensorflow/lite/micro/kernels/concatenation.cpp **** 
  73:../src/tensorflow_lite/src/tensorflow/lite/micro/kernels/concatenation.cpp **** // Gets data pointers from a list of tensors.
  74:../src/tensorflow_lite/src/tensorflow/lite/micro/kernels/concatenation.cpp **** template <typename T>
  75:../src/tensorflow_lite/src/tensorflow/lite/micro/kernels/concatenation.cpp **** inline void GetAllInputTensorData(const TfLiteContext* context,
  76:../src/tensorflow_lite/src/tensorflow/lite/micro/kernels/concatenation.cpp ****                                   const TfLiteNode* node,
  77:../src/tensorflow_lite/src/tensorflow/lite/micro/kernels/concatenation.cpp ****                                   T* all_data[kMaxInputNum]) {
  78:../src/tensorflow_lite/src/tensorflow/lite/micro/kernels/concatenation.cpp ****   TFLITE_DCHECK(context != nullptr);
  79:../src/tensorflow_lite/src/tensorflow/lite/micro/kernels/concatenation.cpp ****   TFLITE_DCHECK(node != nullptr);
  80:../src/tensorflow_lite/src/tensorflow/lite/micro/kernels/concatenation.cpp ****   for (int i = 0; i < node->inputs->size; ++i) {
  81:../src/tensorflow_lite/src/tensorflow/lite/micro/kernels/concatenation.cpp ****     const TfLiteEvalTensor* t = tflite::micro::GetEvalInput(context, node, i);
  82:../src/tensorflow_lite/src/tensorflow/lite/micro/kernels/concatenation.cpp ****     all_data[i] = tflite::micro::GetTensorData<T>(t);
  83:../src/tensorflow_lite/src/tensorflow/lite/micro/kernels/concatenation.cpp ****   }
  84:../src/tensorflow_lite/src/tensorflow/lite/micro/kernels/concatenation.cpp **** }
  85:../src/tensorflow_lite/src/tensorflow/lite/micro/kernels/concatenation.cpp **** 
  86:../src/tensorflow_lite/src/tensorflow/lite/micro/kernels/concatenation.cpp **** template <typename data_type>
  87:../src/tensorflow_lite/src/tensorflow/lite/micro/kernels/concatenation.cpp **** void EvalUnquantized(TfLiteContext* context, TfLiteNode* node) {
  88:../src/tensorflow_lite/src/tensorflow/lite/micro/kernels/concatenation.cpp ****   // Collect the shapes and data pointer of input tensors
  89:../src/tensorflow_lite/src/tensorflow/lite/micro/kernels/concatenation.cpp ****   RuntimeShape inputs_shape[kMaxInputNum];
  90:../src/tensorflow_lite/src/tensorflow/lite/micro/kernels/concatenation.cpp ****   const RuntimeShape* inputs_shape_ptr[kMaxInputNum];
  91:../src/tensorflow_lite/src/tensorflow/lite/micro/kernels/concatenation.cpp ****   const data_type* inputs_data[kMaxInputNum];
  92:../src/tensorflow_lite/src/tensorflow/lite/micro/kernels/concatenation.cpp ****   GetAllInputTensorShapes(context, node, inputs_shape);
  93:../src/tensorflow_lite/src/tensorflow/lite/micro/kernels/concatenation.cpp ****   GetShapesPointers(inputs_shape, node->inputs->size, inputs_shape_ptr);
  94:../src/tensorflow_lite/src/tensorflow/lite/micro/kernels/concatenation.cpp ****   GetAllInputTensorData(context, node, inputs_data);
  95:../src/tensorflow_lite/src/tensorflow/lite/micro/kernels/concatenation.cpp **** 
  96:../src/tensorflow_lite/src/tensorflow/lite/micro/kernels/concatenation.cpp ****   TfLiteEvalTensor* output =
  97:../src/tensorflow_lite/src/tensorflow/lite/micro/kernels/concatenation.cpp ****       tflite::micro::GetEvalOutput(context, node, kOutputTensor);
  98:../src/tensorflow_lite/src/tensorflow/lite/micro/kernels/concatenation.cpp **** 
  99:../src/tensorflow_lite/src/tensorflow/lite/micro/kernels/concatenation.cpp ****   TFLITE_DCHECK(node->user_data != nullptr);
 100:../src/tensorflow_lite/src/tensorflow/lite/micro/kernels/concatenation.cpp ****   const OpData* data = static_cast<const OpData*>(node->user_data);
 101:../src/tensorflow_lite/src/tensorflow/lite/micro/kernels/concatenation.cpp **** 
 102:../src/tensorflow_lite/src/tensorflow/lite/micro/kernels/concatenation.cpp ****   reference_ops::Concatenation(data->params, inputs_shape_ptr, inputs_data,
 103:../src/tensorflow_lite/src/tensorflow/lite/micro/kernels/concatenation.cpp ****                                tflite::micro::GetTensorShape(output),
 104:../src/tensorflow_lite/src/tensorflow/lite/micro/kernels/concatenation.cpp ****                                tflite::micro::GetTensorData<data_type>(output));
 105:../src/tensorflow_lite/src/tensorflow/lite/micro/kernels/concatenation.cpp **** }
 106:../src/tensorflow_lite/src/tensorflow/lite/micro/kernels/concatenation.cpp **** 
 107:../src/tensorflow_lite/src/tensorflow/lite/micro/kernels/concatenation.cpp **** void EvalQuantizedUInt8(TfLiteContext* context, TfLiteNode* node) {
 108:../src/tensorflow_lite/src/tensorflow/lite/micro/kernels/concatenation.cpp ****   // Collect the shapes and data pointer of input tensors
 109:../src/tensorflow_lite/src/tensorflow/lite/micro/kernels/concatenation.cpp ****   RuntimeShape inputs_shape[kMaxInputNum];
 110:../src/tensorflow_lite/src/tensorflow/lite/micro/kernels/concatenation.cpp ****   const RuntimeShape* inputs_shape_ptr[kMaxInputNum];
 111:../src/tensorflow_lite/src/tensorflow/lite/micro/kernels/concatenation.cpp ****   const uint8_t* inputs_data[kMaxInputNum];
 112:../src/tensorflow_lite/src/tensorflow/lite/micro/kernels/concatenation.cpp ****   GetAllInputTensorShapes(context, node, inputs_shape);
 113:../src/tensorflow_lite/src/tensorflow/lite/micro/kernels/concatenation.cpp ****   GetShapesPointers(inputs_shape, node->inputs->size, inputs_shape_ptr);
 114:../src/tensorflow_lite/src/tensorflow/lite/micro/kernels/concatenation.cpp ****   GetAllInputTensorData(context, node, inputs_data);
 115:../src/tensorflow_lite/src/tensorflow/lite/micro/kernels/concatenation.cpp **** 
 116:../src/tensorflow_lite/src/tensorflow/lite/micro/kernels/concatenation.cpp ****   TfLiteEvalTensor* output =
 117:../src/tensorflow_lite/src/tensorflow/lite/micro/kernels/concatenation.cpp ****       tflite::micro::GetEvalOutput(context, node, kOutputTensor);
 118:../src/tensorflow_lite/src/tensorflow/lite/micro/kernels/concatenation.cpp **** 
 119:../src/tensorflow_lite/src/tensorflow/lite/micro/kernels/concatenation.cpp ****   TFLITE_DCHECK(node->user_data != nullptr);
 120:../src/tensorflow_lite/src/tensorflow/lite/micro/kernels/concatenation.cpp ****   const OpData* data = static_cast<const OpData*>(node->user_data);
 121:../src/tensorflow_lite/src/tensorflow/lite/micro/kernels/concatenation.cpp **** 
 122:../src/tensorflow_lite/src/tensorflow/lite/micro/kernels/concatenation.cpp ****   reference_ops::ConcatenationWithScaling(
 123:../src/tensorflow_lite/src/tensorflow/lite/micro/kernels/concatenation.cpp ****       data->params, inputs_shape_ptr, inputs_data,
 124:../src/tensorflow_lite/src/tensorflow/lite/micro/kernels/concatenation.cpp ****       tflite::micro::GetTensorShape(output),
 125:../src/tensorflow_lite/src/tensorflow/lite/micro/kernels/concatenation.cpp ****       tflite::micro::GetTensorData<uint8_t>(output));
 126:../src/tensorflow_lite/src/tensorflow/lite/micro/kernels/concatenation.cpp **** }
 127:../src/tensorflow_lite/src/tensorflow/lite/micro/kernels/concatenation.cpp **** 
 128:../src/tensorflow_lite/src/tensorflow/lite/micro/kernels/concatenation.cpp **** void* Init(TfLiteContext* context, const char* buffer, size_t length) {
  27              		.loc 1 128 0
  28              		.cfi_startproc
  29              		@ args = 0, pretend = 0, frame = 0
  30              		@ frame_needed = 0, uses_anonymous_args = 0
  31              	.LVL0:
 129:../src/tensorflow_lite/src/tensorflow/lite/micro/kernels/concatenation.cpp ****   TFLITE_DCHECK(context->AllocatePersistentBuffer != nullptr);
  32              		.loc 1 129 0
  33 0000 383090E5 		ldr	r3, [r0, #56]
  34 0004 000053E3 		cmp	r3, #0
  35 0008 0100000A 		beq	.L7
 130:../src/tensorflow_lite/src/tensorflow/lite/micro/kernels/concatenation.cpp ****   return context->AllocatePersistentBuffer(context, sizeof(OpData));
  36              		.loc 1 130 0
  37 000c 1810A0E3 		mov	r1, #24
  38              	.LVL1:
  39 0010 13FF2FE1 		bx	r3
  40              	.LVL2:
  41              	.L7:
 128:../src/tensorflow_lite/src/tensorflow/lite/micro/kernels/concatenation.cpp ****   TFLITE_DCHECK(context->AllocatePersistentBuffer != nullptr);
  42              		.loc 1 128 0 discriminator 1
  43 0014 10402DE9 		push	{r4, lr}
  44              		.save {r4, lr}
  45              		.cfi_def_cfa_offset 8
  46              		.cfi_offset 4, -8
  47              		.cfi_offset 14, -4
 129:../src/tensorflow_lite/src/tensorflow/lite/micro/kernels/concatenation.cpp ****   TFLITE_DCHECK(context->AllocatePersistentBuffer != nullptr);
  48              		.loc 1 129 0 discriminator 1
  49 0018 FEFFFFEB 		bl	abort
  50              	.LVL3:
  51              		.cfi_endproc
  52              	.LFE4508:
  53              		.fnend
  55              		.section	.text._ZN6tflite3ops5micro13concatenation7PrepareEP13TfLiteContextP10TfLiteNode,"ax",%pro
  56              		.align	2
  57              		.global	_ZN6tflite3ops5micro13concatenation7PrepareEP13TfLiteContextP10TfLiteNode
  58              		.syntax unified
  59              		.arm
  60              		.fpu neon
  62              	_ZN6tflite3ops5micro13concatenation7PrepareEP13TfLiteContextP10TfLiteNode:
  63              		.fnstart
  64              	.LFB4509:
 131:../src/tensorflow_lite/src/tensorflow/lite/micro/kernels/concatenation.cpp **** }
 132:../src/tensorflow_lite/src/tensorflow/lite/micro/kernels/concatenation.cpp **** 
 133:../src/tensorflow_lite/src/tensorflow/lite/micro/kernels/concatenation.cpp **** TfLiteStatus Prepare(TfLiteContext* context, TfLiteNode* node) {
  65              		.loc 1 133 0
  66              		.cfi_startproc
  67              		@ args = 0, pretend = 0, frame = 8
  68              		@ frame_needed = 0, uses_anonymous_args = 0
  69              	.LVL4:
  70 0000 F04F2DE9 		push	{r4, r5, r6, r7, r8, r9, r10, fp, lr}
  71              		.save {r4, r5, r6, r7, r8, r9, r10, fp, lr}
  72              		.cfi_def_cfa_offset 36
  73              		.cfi_offset 4, -36
  74              		.cfi_offset 5, -32
  75              		.cfi_offset 6, -28
  76              		.cfi_offset 7, -24
  77              		.cfi_offset 8, -20
  78              		.cfi_offset 9, -16
  79              		.cfi_offset 10, -12
  80              		.cfi_offset 11, -8
  81              		.cfi_offset 14, -4
 134:../src/tensorflow_lite/src/tensorflow/lite/micro/kernels/concatenation.cpp ****   // This function only checks the types. Additional shape validations are
 135:../src/tensorflow_lite/src/tensorflow/lite/micro/kernels/concatenation.cpp ****   // performed in the reference implementation called during Eval().
 136:../src/tensorflow_lite/src/tensorflow/lite/micro/kernels/concatenation.cpp ****   const TfLiteConcatenationParams* params =
 137:../src/tensorflow_lite/src/tensorflow/lite/micro/kernels/concatenation.cpp ****       reinterpret_cast<TfLiteConcatenationParams*>(node->builtin_data);
 138:../src/tensorflow_lite/src/tensorflow/lite/micro/kernels/concatenation.cpp **** 
 139:../src/tensorflow_lite/src/tensorflow/lite/micro/kernels/concatenation.cpp ****   const TfLiteTensor* input_tensor = GetInput(context, node, 0);
  82              		.loc 1 139 0
  83 0004 0020A0E3 		mov	r2, #0
 133:../src/tensorflow_lite/src/tensorflow/lite/micro/kernels/concatenation.cpp ****   // This function only checks the types. Additional shape validations are
  84              		.loc 1 133 0
  85              		.pad #28
  86 0008 1CD04DE2 		sub	sp, sp, #28
  87              		.cfi_def_cfa_offset 64
 133:../src/tensorflow_lite/src/tensorflow/lite/micro/kernels/concatenation.cpp ****   // This function only checks the types. Additional shape validations are
  88              		.loc 1 133 0
  89 000c 0160A0E1 		mov	r6, r1
  90 0010 0050A0E1 		mov	r5, r0
 137:../src/tensorflow_lite/src/tensorflow/lite/micro/kernels/concatenation.cpp **** 
  91              		.loc 1 137 0
  92 0014 148091E5 		ldr	r8, [r1, #20]
  93              	.LVL5:
  94              		.loc 1 139 0
  95 0018 FEFFFFEB 		bl	_ZN6tflite8GetInputEPK13TfLiteContextPK10TfLiteNodei
  96              	.LVL6:
 140:../src/tensorflow_lite/src/tensorflow/lite/micro/kernels/concatenation.cpp ****   TF_LITE_ENSURE(context, input_tensor != nullptr);
  97              		.loc 1 140 0
  98 001c 003050E2 		subs	r3, r0, #0
  99 0020 6700000A 		beq	.L40
 141:../src/tensorflow_lite/src/tensorflow/lite/micro/kernels/concatenation.cpp ****   TfLiteType input_type = input_tensor->type;
 142:../src/tensorflow_lite/src/tensorflow/lite/micro/kernels/concatenation.cpp ****   const TfLiteTensor* output_tensor = GetOutput(context, node, kOutputTensor);
 100              		.loc 1 142 0
 101 0024 0020A0E3 		mov	r2, #0
 102 0028 0610A0E1 		mov	r1, r6
 103 002c 0500A0E1 		mov	r0, r5
 104              	.LVL7:
 141:../src/tensorflow_lite/src/tensorflow/lite/micro/kernels/concatenation.cpp ****   TfLiteType input_type = input_tensor->type;
 105              		.loc 1 141 0
 106 0030 0040D3E5 		ldrb	r4, [r3]	@ zero_extendqisi2
 107              	.LVL8:
 108              		.loc 1 142 0
 109 0034 FEFFFFEB 		bl	_ZN6tflite9GetOutputEP13TfLiteContextPK10TfLiteNodei
 110              	.LVL9:
 143:../src/tensorflow_lite/src/tensorflow/lite/micro/kernels/concatenation.cpp ****   TF_LITE_ENSURE(context, output_tensor != nullptr);
 111              		.loc 1 143 0
 112 0038 000050E3 		cmp	r0, #0
 113 003c E600000A 		beq	.L41
 114              	.LVL10:
 144:../src/tensorflow_lite/src/tensorflow/lite/micro/kernels/concatenation.cpp ****   TfLiteType output_type = output_tensor->type;
 145:../src/tensorflow_lite/src/tensorflow/lite/micro/kernels/concatenation.cpp **** 
 146:../src/tensorflow_lite/src/tensorflow/lite/micro/kernels/concatenation.cpp ****   // Check activation and input type
 147:../src/tensorflow_lite/src/tensorflow/lite/micro/kernels/concatenation.cpp ****   TF_LITE_ENSURE_EQ(context, params->activation, kTfLiteActNone);
 115              		.loc 1 147 0
 116 0040 0430D8E5 		ldrb	r3, [r8, #4]	@ zero_extendqisi2
 117 0044 000053E3 		cmp	r3, #0
 118 0048 4900001A 		bne	.L42
 148:../src/tensorflow_lite/src/tensorflow/lite/micro/kernels/concatenation.cpp ****   TF_LITE_ENSURE(context,
 119              		.loc 1 148 0
 120 004c 013044E2 		sub	r3, r4, #1
 121 0050 030053E3 		cmp	r3, #3
 122 0054 0100009A 		bls	.L13
 123              		.loc 1 148 0 is_stmt 0 discriminator 1
 124 0058 090054E3 		cmp	r4, #9
 125 005c 3700001A 		bne	.L43
 126              	.L13:
 144:../src/tensorflow_lite/src/tensorflow/lite/micro/kernels/concatenation.cpp ****   TfLiteType output_type = output_tensor->type;
 127              		.loc 1 144 0 is_stmt 1
 128 0060 0090D0E5 		ldrb	r9, [r0]	@ zero_extendqisi2
 149:../src/tensorflow_lite/src/tensorflow/lite/micro/kernels/concatenation.cpp ****                  input_type == kTfLiteFloat32 || input_type == kTfLiteUInt8 ||
 150:../src/tensorflow_lite/src/tensorflow/lite/micro/kernels/concatenation.cpp ****                      input_type == kTfLiteInt8 || input_type == kTfLiteInt32 ||
 151:../src/tensorflow_lite/src/tensorflow/lite/micro/kernels/concatenation.cpp ****                      input_type == kTfLiteInt64);
 152:../src/tensorflow_lite/src/tensorflow/lite/micro/kernels/concatenation.cpp **** 
 153:../src/tensorflow_lite/src/tensorflow/lite/micro/kernels/concatenation.cpp ****   // Output type must match input type
 154:../src/tensorflow_lite/src/tensorflow/lite/micro/kernels/concatenation.cpp ****   TF_LITE_ENSURE_EQ(context, output_type, input_type);
 129              		.loc 1 154 0
 130 0064 090054E1 		cmp	r4, r9
 131 0068 2100001A 		bne	.L44
 132              	.LVL11:
 133              	.LBB245:
 134              	.LBB246:
 135              		.file 2 "C:/Renesas/e2studio_2021_01_workspace_RZA2M_ANPR/ANPR_RZA2M_GR_MANGO/src/tensorflow_lite/
   1:C:/Renesas/e2studio_2021_01_workspace_RZA2M_ANPR/ANPR_RZA2M_GR_MANGO/src/tensorflow_lite/src/tensorflow/lite/kernels\kernel_util.h **** /* Copyright 2017 The TensorFlow Authors. All Rights Reserved.
   2:C:/Renesas/e2studio_2021_01_workspace_RZA2M_ANPR/ANPR_RZA2M_GR_MANGO/src/tensorflow_lite/src/tensorflow/lite/kernels\kernel_util.h **** 
   3:C:/Renesas/e2studio_2021_01_workspace_RZA2M_ANPR/ANPR_RZA2M_GR_MANGO/src/tensorflow_lite/src/tensorflow/lite/kernels\kernel_util.h **** Licensed under the Apache License, Version 2.0 (the "License");
   4:C:/Renesas/e2studio_2021_01_workspace_RZA2M_ANPR/ANPR_RZA2M_GR_MANGO/src/tensorflow_lite/src/tensorflow/lite/kernels\kernel_util.h **** you may not use this file except in compliance with the License.
   5:C:/Renesas/e2studio_2021_01_workspace_RZA2M_ANPR/ANPR_RZA2M_GR_MANGO/src/tensorflow_lite/src/tensorflow/lite/kernels\kernel_util.h **** You may obtain a copy of the License at
   6:C:/Renesas/e2studio_2021_01_workspace_RZA2M_ANPR/ANPR_RZA2M_GR_MANGO/src/tensorflow_lite/src/tensorflow/lite/kernels\kernel_util.h **** 
   7:C:/Renesas/e2studio_2021_01_workspace_RZA2M_ANPR/ANPR_RZA2M_GR_MANGO/src/tensorflow_lite/src/tensorflow/lite/kernels\kernel_util.h ****     http://www.apache.org/licenses/LICENSE-2.0
   8:C:/Renesas/e2studio_2021_01_workspace_RZA2M_ANPR/ANPR_RZA2M_GR_MANGO/src/tensorflow_lite/src/tensorflow/lite/kernels\kernel_util.h **** 
   9:C:/Renesas/e2studio_2021_01_workspace_RZA2M_ANPR/ANPR_RZA2M_GR_MANGO/src/tensorflow_lite/src/tensorflow/lite/kernels\kernel_util.h **** Unless required by applicable law or agreed to in writing, software
  10:C:/Renesas/e2studio_2021_01_workspace_RZA2M_ANPR/ANPR_RZA2M_GR_MANGO/src/tensorflow_lite/src/tensorflow/lite/kernels\kernel_util.h **** distributed under the License is distributed on an "AS IS" BASIS,
  11:C:/Renesas/e2studio_2021_01_workspace_RZA2M_ANPR/ANPR_RZA2M_GR_MANGO/src/tensorflow_lite/src/tensorflow/lite/kernels\kernel_util.h **** WITHOUT WARRANTIES OR CONDITIONS OF ANY KIND, either express or implied.
  12:C:/Renesas/e2studio_2021_01_workspace_RZA2M_ANPR/ANPR_RZA2M_GR_MANGO/src/tensorflow_lite/src/tensorflow/lite/kernels\kernel_util.h **** See the License for the specific language governing permissions and
  13:C:/Renesas/e2studio_2021_01_workspace_RZA2M_ANPR/ANPR_RZA2M_GR_MANGO/src/tensorflow_lite/src/tensorflow/lite/kernels\kernel_util.h **** limitations under the License.
  14:C:/Renesas/e2studio_2021_01_workspace_RZA2M_ANPR/ANPR_RZA2M_GR_MANGO/src/tensorflow_lite/src/tensorflow/lite/kernels\kernel_util.h **** ==============================================================================*/
  15:C:/Renesas/e2studio_2021_01_workspace_RZA2M_ANPR/ANPR_RZA2M_GR_MANGO/src/tensorflow_lite/src/tensorflow/lite/kernels\kernel_util.h **** #ifndef TENSORFLOW_LITE_KERNELS_KERNEL_UTIL_H_
  16:C:/Renesas/e2studio_2021_01_workspace_RZA2M_ANPR/ANPR_RZA2M_GR_MANGO/src/tensorflow_lite/src/tensorflow/lite/kernels\kernel_util.h **** #define TENSORFLOW_LITE_KERNELS_KERNEL_UTIL_H_
  17:C:/Renesas/e2studio_2021_01_workspace_RZA2M_ANPR/ANPR_RZA2M_GR_MANGO/src/tensorflow_lite/src/tensorflow/lite/kernels\kernel_util.h **** 
  18:C:/Renesas/e2studio_2021_01_workspace_RZA2M_ANPR/ANPR_RZA2M_GR_MANGO/src/tensorflow_lite/src/tensorflow/lite/kernels\kernel_util.h **** #include <stdint.h>
  19:C:/Renesas/e2studio_2021_01_workspace_RZA2M_ANPR/ANPR_RZA2M_GR_MANGO/src/tensorflow_lite/src/tensorflow/lite/kernels\kernel_util.h **** 
  20:C:/Renesas/e2studio_2021_01_workspace_RZA2M_ANPR/ANPR_RZA2M_GR_MANGO/src/tensorflow_lite/src/tensorflow/lite/kernels\kernel_util.h **** #include <limits>
  21:C:/Renesas/e2studio_2021_01_workspace_RZA2M_ANPR/ANPR_RZA2M_GR_MANGO/src/tensorflow_lite/src/tensorflow/lite/kernels\kernel_util.h **** 
  22:C:/Renesas/e2studio_2021_01_workspace_RZA2M_ANPR/ANPR_RZA2M_GR_MANGO/src/tensorflow_lite/src/tensorflow/lite/kernels\kernel_util.h **** #include "tensorflow/lite/c/builtin_op_data.h"
  23:C:/Renesas/e2studio_2021_01_workspace_RZA2M_ANPR/ANPR_RZA2M_GR_MANGO/src/tensorflow_lite/src/tensorflow/lite/kernels\kernel_util.h **** #include "tensorflow/lite/c/common.h"
  24:C:/Renesas/e2studio_2021_01_workspace_RZA2M_ANPR/ANPR_RZA2M_GR_MANGO/src/tensorflow_lite/src/tensorflow/lite/kernels\kernel_util.h **** 
  25:C:/Renesas/e2studio_2021_01_workspace_RZA2M_ANPR/ANPR_RZA2M_GR_MANGO/src/tensorflow_lite/src/tensorflow/lite/kernels\kernel_util.h **** namespace tflite {
  26:C:/Renesas/e2studio_2021_01_workspace_RZA2M_ANPR/ANPR_RZA2M_GR_MANGO/src/tensorflow_lite/src/tensorflow/lite/kernels\kernel_util.h **** 
  27:C:/Renesas/e2studio_2021_01_workspace_RZA2M_ANPR/ANPR_RZA2M_GR_MANGO/src/tensorflow_lite/src/tensorflow/lite/kernels\kernel_util.h **** // A fair number of functions in this header have historically been inline.
  28:C:/Renesas/e2studio_2021_01_workspace_RZA2M_ANPR/ANPR_RZA2M_GR_MANGO/src/tensorflow_lite/src/tensorflow/lite/kernels\kernel_util.h **** // It is ok to change functions to not be inline if the latency with
  29:C:/Renesas/e2studio_2021_01_workspace_RZA2M_ANPR/ANPR_RZA2M_GR_MANGO/src/tensorflow_lite/src/tensorflow/lite/kernels\kernel_util.h **** // benchmark_model for MobileNet + MobileBERT is unaffected. If such a change is
  30:C:/Renesas/e2studio_2021_01_workspace_RZA2M_ANPR/ANPR_RZA2M_GR_MANGO/src/tensorflow_lite/src/tensorflow/lite/kernels\kernel_util.h **** // made, move the newly non-inlined function declarations to the top of this
  31:C:/Renesas/e2studio_2021_01_workspace_RZA2M_ANPR/ANPR_RZA2M_GR_MANGO/src/tensorflow_lite/src/tensorflow/lite/kernels\kernel_util.h **** // header file.
  32:C:/Renesas/e2studio_2021_01_workspace_RZA2M_ANPR/ANPR_RZA2M_GR_MANGO/src/tensorflow_lite/src/tensorflow/lite/kernels\kernel_util.h **** 
  33:C:/Renesas/e2studio_2021_01_workspace_RZA2M_ANPR/ANPR_RZA2M_GR_MANGO/src/tensorflow_lite/src/tensorflow/lite/kernels\kernel_util.h **** // Note: You must check if result is not null:
  34:C:/Renesas/e2studio_2021_01_workspace_RZA2M_ANPR/ANPR_RZA2M_GR_MANGO/src/tensorflow_lite/src/tensorflow/lite/kernels\kernel_util.h **** //
  35:C:/Renesas/e2studio_2021_01_workspace_RZA2M_ANPR/ANPR_RZA2M_GR_MANGO/src/tensorflow_lite/src/tensorflow/lite/kernels\kernel_util.h **** //   TfLiteTensor* my_tensor = GetInput(context, node, kMyTensorIdx);
  36:C:/Renesas/e2studio_2021_01_workspace_RZA2M_ANPR/ANPR_RZA2M_GR_MANGO/src/tensorflow_lite/src/tensorflow/lite/kernels\kernel_util.h **** //   TF_LITE_ENSURE(context, my_tensor != nullptr);
  37:C:/Renesas/e2studio_2021_01_workspace_RZA2M_ANPR/ANPR_RZA2M_GR_MANGO/src/tensorflow_lite/src/tensorflow/lite/kernels\kernel_util.h **** //
  38:C:/Renesas/e2studio_2021_01_workspace_RZA2M_ANPR/ANPR_RZA2M_GR_MANGO/src/tensorflow_lite/src/tensorflow/lite/kernels\kernel_util.h **** // This is because the index might point to the optional tensor constant
  39:C:/Renesas/e2studio_2021_01_workspace_RZA2M_ANPR/ANPR_RZA2M_GR_MANGO/src/tensorflow_lite/src/tensorflow/lite/kernels\kernel_util.h **** // (kTfLiteOptionalTensor) in which case there is no tensor to return.
  40:C:/Renesas/e2studio_2021_01_workspace_RZA2M_ANPR/ANPR_RZA2M_GR_MANGO/src/tensorflow_lite/src/tensorflow/lite/kernels\kernel_util.h **** const TfLiteTensor* GetInput(const TfLiteContext* context,
  41:C:/Renesas/e2studio_2021_01_workspace_RZA2M_ANPR/ANPR_RZA2M_GR_MANGO/src/tensorflow_lite/src/tensorflow/lite/kernels\kernel_util.h ****                              const TfLiteNode* node, int index);
  42:C:/Renesas/e2studio_2021_01_workspace_RZA2M_ANPR/ANPR_RZA2M_GR_MANGO/src/tensorflow_lite/src/tensorflow/lite/kernels\kernel_util.h **** 
  43:C:/Renesas/e2studio_2021_01_workspace_RZA2M_ANPR/ANPR_RZA2M_GR_MANGO/src/tensorflow_lite/src/tensorflow/lite/kernels\kernel_util.h **** // Same as `GetInput` but returns boolean and uses output argument for tensor.
  44:C:/Renesas/e2studio_2021_01_workspace_RZA2M_ANPR/ANPR_RZA2M_GR_MANGO/src/tensorflow_lite/src/tensorflow/lite/kernels\kernel_util.h **** //
  45:C:/Renesas/e2studio_2021_01_workspace_RZA2M_ANPR/ANPR_RZA2M_GR_MANGO/src/tensorflow_lite/src/tensorflow/lite/kernels\kernel_util.h **** //   TfLiteTensor* my_tensor;
  46:C:/Renesas/e2studio_2021_01_workspace_RZA2M_ANPR/ANPR_RZA2M_GR_MANGO/src/tensorflow_lite/src/tensorflow/lite/kernels\kernel_util.h **** //   TF_LITE_ENSURE_OK(context,
  47:C:/Renesas/e2studio_2021_01_workspace_RZA2M_ANPR/ANPR_RZA2M_GR_MANGO/src/tensorflow_lite/src/tensorflow/lite/kernels\kernel_util.h **** //                     GetInputSafe(context, node, kMyTensorIdx, &my_tensor));
  48:C:/Renesas/e2studio_2021_01_workspace_RZA2M_ANPR/ANPR_RZA2M_GR_MANGO/src/tensorflow_lite/src/tensorflow/lite/kernels\kernel_util.h **** //   // can use my_tensor directly from here onwards, it is not nullptr
  49:C:/Renesas/e2studio_2021_01_workspace_RZA2M_ANPR/ANPR_RZA2M_GR_MANGO/src/tensorflow_lite/src/tensorflow/lite/kernels\kernel_util.h **** //
  50:C:/Renesas/e2studio_2021_01_workspace_RZA2M_ANPR/ANPR_RZA2M_GR_MANGO/src/tensorflow_lite/src/tensorflow/lite/kernels\kernel_util.h **** // Should be used in cases where the binary size is too large.
  51:C:/Renesas/e2studio_2021_01_workspace_RZA2M_ANPR/ANPR_RZA2M_GR_MANGO/src/tensorflow_lite/src/tensorflow/lite/kernels\kernel_util.h **** TfLiteStatus GetInputSafe(const TfLiteContext* context, const TfLiteNode* node,
  52:C:/Renesas/e2studio_2021_01_workspace_RZA2M_ANPR/ANPR_RZA2M_GR_MANGO/src/tensorflow_lite/src/tensorflow/lite/kernels\kernel_util.h ****                           int index, const TfLiteTensor** tensor);
  53:C:/Renesas/e2studio_2021_01_workspace_RZA2M_ANPR/ANPR_RZA2M_GR_MANGO/src/tensorflow_lite/src/tensorflow/lite/kernels\kernel_util.h **** 
  54:C:/Renesas/e2studio_2021_01_workspace_RZA2M_ANPR/ANPR_RZA2M_GR_MANGO/src/tensorflow_lite/src/tensorflow/lite/kernels\kernel_util.h **** // Note: You must check if result is not null:
  55:C:/Renesas/e2studio_2021_01_workspace_RZA2M_ANPR/ANPR_RZA2M_GR_MANGO/src/tensorflow_lite/src/tensorflow/lite/kernels\kernel_util.h **** //
  56:C:/Renesas/e2studio_2021_01_workspace_RZA2M_ANPR/ANPR_RZA2M_GR_MANGO/src/tensorflow_lite/src/tensorflow/lite/kernels\kernel_util.h **** //   TfLiteTensor* my_tensor = GetVariableInput(context, node, kMyTensorIdx);
  57:C:/Renesas/e2studio_2021_01_workspace_RZA2M_ANPR/ANPR_RZA2M_GR_MANGO/src/tensorflow_lite/src/tensorflow/lite/kernels\kernel_util.h **** //   TF_LITE_ENSURE(context, my_tensor != nullptr);
  58:C:/Renesas/e2studio_2021_01_workspace_RZA2M_ANPR/ANPR_RZA2M_GR_MANGO/src/tensorflow_lite/src/tensorflow/lite/kernels\kernel_util.h **** //
  59:C:/Renesas/e2studio_2021_01_workspace_RZA2M_ANPR/ANPR_RZA2M_GR_MANGO/src/tensorflow_lite/src/tensorflow/lite/kernels\kernel_util.h **** // This is because the index might point to the optional tensor constant
  60:C:/Renesas/e2studio_2021_01_workspace_RZA2M_ANPR/ANPR_RZA2M_GR_MANGO/src/tensorflow_lite/src/tensorflow/lite/kernels\kernel_util.h **** // (kTfLiteOptionalTensor) in which case there is no tensor to return.
  61:C:/Renesas/e2studio_2021_01_workspace_RZA2M_ANPR/ANPR_RZA2M_GR_MANGO/src/tensorflow_lite/src/tensorflow/lite/kernels\kernel_util.h **** TfLiteTensor* GetVariableInput(TfLiteContext* context, const TfLiteNode* node,
  62:C:/Renesas/e2studio_2021_01_workspace_RZA2M_ANPR/ANPR_RZA2M_GR_MANGO/src/tensorflow_lite/src/tensorflow/lite/kernels\kernel_util.h ****                                int index);
  63:C:/Renesas/e2studio_2021_01_workspace_RZA2M_ANPR/ANPR_RZA2M_GR_MANGO/src/tensorflow_lite/src/tensorflow/lite/kernels\kernel_util.h **** 
  64:C:/Renesas/e2studio_2021_01_workspace_RZA2M_ANPR/ANPR_RZA2M_GR_MANGO/src/tensorflow_lite/src/tensorflow/lite/kernels\kernel_util.h **** // Note: You must check if result is not null:
  65:C:/Renesas/e2studio_2021_01_workspace_RZA2M_ANPR/ANPR_RZA2M_GR_MANGO/src/tensorflow_lite/src/tensorflow/lite/kernels\kernel_util.h **** //
  66:C:/Renesas/e2studio_2021_01_workspace_RZA2M_ANPR/ANPR_RZA2M_GR_MANGO/src/tensorflow_lite/src/tensorflow/lite/kernels\kernel_util.h **** //   TfLiteTensor* my_tensor = GetOutput(context, node, kMyTensorIdx);
  67:C:/Renesas/e2studio_2021_01_workspace_RZA2M_ANPR/ANPR_RZA2M_GR_MANGO/src/tensorflow_lite/src/tensorflow/lite/kernels\kernel_util.h **** //   TF_LITE_ENSURE(context, my_tensor != nullptr);
  68:C:/Renesas/e2studio_2021_01_workspace_RZA2M_ANPR/ANPR_RZA2M_GR_MANGO/src/tensorflow_lite/src/tensorflow/lite/kernels\kernel_util.h **** //
  69:C:/Renesas/e2studio_2021_01_workspace_RZA2M_ANPR/ANPR_RZA2M_GR_MANGO/src/tensorflow_lite/src/tensorflow/lite/kernels\kernel_util.h **** // This is because the index might point to the optional tensor constant
  70:C:/Renesas/e2studio_2021_01_workspace_RZA2M_ANPR/ANPR_RZA2M_GR_MANGO/src/tensorflow_lite/src/tensorflow/lite/kernels\kernel_util.h **** // (kTfLiteOptionalTensor) in which case there is no tensor to return.
  71:C:/Renesas/e2studio_2021_01_workspace_RZA2M_ANPR/ANPR_RZA2M_GR_MANGO/src/tensorflow_lite/src/tensorflow/lite/kernels\kernel_util.h **** TfLiteTensor* GetOutput(TfLiteContext* context, const TfLiteNode* node,
  72:C:/Renesas/e2studio_2021_01_workspace_RZA2M_ANPR/ANPR_RZA2M_GR_MANGO/src/tensorflow_lite/src/tensorflow/lite/kernels\kernel_util.h ****                         int index);
  73:C:/Renesas/e2studio_2021_01_workspace_RZA2M_ANPR/ANPR_RZA2M_GR_MANGO/src/tensorflow_lite/src/tensorflow/lite/kernels\kernel_util.h **** 
  74:C:/Renesas/e2studio_2021_01_workspace_RZA2M_ANPR/ANPR_RZA2M_GR_MANGO/src/tensorflow_lite/src/tensorflow/lite/kernels\kernel_util.h **** // Same as `GetOutput` but returns boolean and uses output argument for tensor.
  75:C:/Renesas/e2studio_2021_01_workspace_RZA2M_ANPR/ANPR_RZA2M_GR_MANGO/src/tensorflow_lite/src/tensorflow/lite/kernels\kernel_util.h **** //
  76:C:/Renesas/e2studio_2021_01_workspace_RZA2M_ANPR/ANPR_RZA2M_GR_MANGO/src/tensorflow_lite/src/tensorflow/lite/kernels\kernel_util.h **** //   TfLiteTensor* my_tensor;
  77:C:/Renesas/e2studio_2021_01_workspace_RZA2M_ANPR/ANPR_RZA2M_GR_MANGO/src/tensorflow_lite/src/tensorflow/lite/kernels\kernel_util.h **** //   TF_LITE_ENSURE_OK(context,
  78:C:/Renesas/e2studio_2021_01_workspace_RZA2M_ANPR/ANPR_RZA2M_GR_MANGO/src/tensorflow_lite/src/tensorflow/lite/kernels\kernel_util.h **** //                     GetOutputSafe(context, node, kMyTensorIdx, &my_tensor));
  79:C:/Renesas/e2studio_2021_01_workspace_RZA2M_ANPR/ANPR_RZA2M_GR_MANGO/src/tensorflow_lite/src/tensorflow/lite/kernels\kernel_util.h **** //   // can use my_tensor directly from here onwards, it is not nullptr
  80:C:/Renesas/e2studio_2021_01_workspace_RZA2M_ANPR/ANPR_RZA2M_GR_MANGO/src/tensorflow_lite/src/tensorflow/lite/kernels\kernel_util.h **** //
  81:C:/Renesas/e2studio_2021_01_workspace_RZA2M_ANPR/ANPR_RZA2M_GR_MANGO/src/tensorflow_lite/src/tensorflow/lite/kernels\kernel_util.h **** // Should be used in cases where the binary size is too large.
  82:C:/Renesas/e2studio_2021_01_workspace_RZA2M_ANPR/ANPR_RZA2M_GR_MANGO/src/tensorflow_lite/src/tensorflow/lite/kernels\kernel_util.h **** TfLiteStatus GetOutputSafe(const TfLiteContext* context, const TfLiteNode* node,
  83:C:/Renesas/e2studio_2021_01_workspace_RZA2M_ANPR/ANPR_RZA2M_GR_MANGO/src/tensorflow_lite/src/tensorflow/lite/kernels\kernel_util.h ****                            int index, TfLiteTensor** tensor);
  84:C:/Renesas/e2studio_2021_01_workspace_RZA2M_ANPR/ANPR_RZA2M_GR_MANGO/src/tensorflow_lite/src/tensorflow/lite/kernels\kernel_util.h **** 
  85:C:/Renesas/e2studio_2021_01_workspace_RZA2M_ANPR/ANPR_RZA2M_GR_MANGO/src/tensorflow_lite/src/tensorflow/lite/kernels\kernel_util.h **** // Note: You must check if result is not null:
  86:C:/Renesas/e2studio_2021_01_workspace_RZA2M_ANPR/ANPR_RZA2M_GR_MANGO/src/tensorflow_lite/src/tensorflow/lite/kernels\kernel_util.h **** //
  87:C:/Renesas/e2studio_2021_01_workspace_RZA2M_ANPR/ANPR_RZA2M_GR_MANGO/src/tensorflow_lite/src/tensorflow/lite/kernels\kernel_util.h **** //   TfLiteTensor* my_tensor = GetOptionalInputTensor(context, node, kIdx);
  88:C:/Renesas/e2studio_2021_01_workspace_RZA2M_ANPR/ANPR_RZA2M_GR_MANGO/src/tensorflow_lite/src/tensorflow/lite/kernels\kernel_util.h **** //   TF_LITE_ENSURE(context, my_tensor != nullptr);
  89:C:/Renesas/e2studio_2021_01_workspace_RZA2M_ANPR/ANPR_RZA2M_GR_MANGO/src/tensorflow_lite/src/tensorflow/lite/kernels\kernel_util.h **** //
  90:C:/Renesas/e2studio_2021_01_workspace_RZA2M_ANPR/ANPR_RZA2M_GR_MANGO/src/tensorflow_lite/src/tensorflow/lite/kernels\kernel_util.h **** // This is because the index might point to the optional tensor constant
  91:C:/Renesas/e2studio_2021_01_workspace_RZA2M_ANPR/ANPR_RZA2M_GR_MANGO/src/tensorflow_lite/src/tensorflow/lite/kernels\kernel_util.h **** // (kTfLiteOptionalTensor) in which case there is no tensor to return.
  92:C:/Renesas/e2studio_2021_01_workspace_RZA2M_ANPR/ANPR_RZA2M_GR_MANGO/src/tensorflow_lite/src/tensorflow/lite/kernels\kernel_util.h **** //
  93:C:/Renesas/e2studio_2021_01_workspace_RZA2M_ANPR/ANPR_RZA2M_GR_MANGO/src/tensorflow_lite/src/tensorflow/lite/kernels\kernel_util.h **** // Deprecated. GetInput has the same functionality.
  94:C:/Renesas/e2studio_2021_01_workspace_RZA2M_ANPR/ANPR_RZA2M_GR_MANGO/src/tensorflow_lite/src/tensorflow/lite/kernels\kernel_util.h **** const TfLiteTensor* GetOptionalInputTensor(const TfLiteContext* context,
  95:C:/Renesas/e2studio_2021_01_workspace_RZA2M_ANPR/ANPR_RZA2M_GR_MANGO/src/tensorflow_lite/src/tensorflow/lite/kernels\kernel_util.h ****                                            const TfLiteNode* node, int index);
  96:C:/Renesas/e2studio_2021_01_workspace_RZA2M_ANPR/ANPR_RZA2M_GR_MANGO/src/tensorflow_lite/src/tensorflow/lite/kernels\kernel_util.h **** 
  97:C:/Renesas/e2studio_2021_01_workspace_RZA2M_ANPR/ANPR_RZA2M_GR_MANGO/src/tensorflow_lite/src/tensorflow/lite/kernels\kernel_util.h **** #ifndef TF_LITE_STATIC_MEMORY
  98:C:/Renesas/e2studio_2021_01_workspace_RZA2M_ANPR/ANPR_RZA2M_GR_MANGO/src/tensorflow_lite/src/tensorflow/lite/kernels\kernel_util.h **** // Note: You must check if result is not null:
  99:C:/Renesas/e2studio_2021_01_workspace_RZA2M_ANPR/ANPR_RZA2M_GR_MANGO/src/tensorflow_lite/src/tensorflow/lite/kernels\kernel_util.h **** //
 100:C:/Renesas/e2studio_2021_01_workspace_RZA2M_ANPR/ANPR_RZA2M_GR_MANGO/src/tensorflow_lite/src/tensorflow/lite/kernels\kernel_util.h **** //   TfLiteTensor* my_tensor = GetTemporary(context, node, kMyTensorIdx);
 101:C:/Renesas/e2studio_2021_01_workspace_RZA2M_ANPR/ANPR_RZA2M_GR_MANGO/src/tensorflow_lite/src/tensorflow/lite/kernels\kernel_util.h **** //   TF_LITE_ENSURE(context, my_tensor != nullptr);
 102:C:/Renesas/e2studio_2021_01_workspace_RZA2M_ANPR/ANPR_RZA2M_GR_MANGO/src/tensorflow_lite/src/tensorflow/lite/kernels\kernel_util.h **** //
 103:C:/Renesas/e2studio_2021_01_workspace_RZA2M_ANPR/ANPR_RZA2M_GR_MANGO/src/tensorflow_lite/src/tensorflow/lite/kernels\kernel_util.h **** // This is because the index might point to the optional tensor constant
 104:C:/Renesas/e2studio_2021_01_workspace_RZA2M_ANPR/ANPR_RZA2M_GR_MANGO/src/tensorflow_lite/src/tensorflow/lite/kernels\kernel_util.h **** // (kTfLiteOptionalTensor) in which case there is no tensor to return.
 105:C:/Renesas/e2studio_2021_01_workspace_RZA2M_ANPR/ANPR_RZA2M_GR_MANGO/src/tensorflow_lite/src/tensorflow/lite/kernels\kernel_util.h **** TfLiteTensor* GetTemporary(TfLiteContext* context, const TfLiteNode* node,
 106:C:/Renesas/e2studio_2021_01_workspace_RZA2M_ANPR/ANPR_RZA2M_GR_MANGO/src/tensorflow_lite/src/tensorflow/lite/kernels\kernel_util.h ****                            int index);
 107:C:/Renesas/e2studio_2021_01_workspace_RZA2M_ANPR/ANPR_RZA2M_GR_MANGO/src/tensorflow_lite/src/tensorflow/lite/kernels\kernel_util.h **** 
 108:C:/Renesas/e2studio_2021_01_workspace_RZA2M_ANPR/ANPR_RZA2M_GR_MANGO/src/tensorflow_lite/src/tensorflow/lite/kernels\kernel_util.h **** // Same as `GetTemporary` but returns boolean and uses output argument for
 109:C:/Renesas/e2studio_2021_01_workspace_RZA2M_ANPR/ANPR_RZA2M_GR_MANGO/src/tensorflow_lite/src/tensorflow/lite/kernels\kernel_util.h **** // tensor.
 110:C:/Renesas/e2studio_2021_01_workspace_RZA2M_ANPR/ANPR_RZA2M_GR_MANGO/src/tensorflow_lite/src/tensorflow/lite/kernels\kernel_util.h **** //
 111:C:/Renesas/e2studio_2021_01_workspace_RZA2M_ANPR/ANPR_RZA2M_GR_MANGO/src/tensorflow_lite/src/tensorflow/lite/kernels\kernel_util.h **** //   TfLiteTensor* my_tensor;
 112:C:/Renesas/e2studio_2021_01_workspace_RZA2M_ANPR/ANPR_RZA2M_GR_MANGO/src/tensorflow_lite/src/tensorflow/lite/kernels\kernel_util.h **** //   TF_LITE_ENSURE_OK(context,
 113:C:/Renesas/e2studio_2021_01_workspace_RZA2M_ANPR/ANPR_RZA2M_GR_MANGO/src/tensorflow_lite/src/tensorflow/lite/kernels\kernel_util.h **** //                     GetTemporarySafe(context, node, kMyTensorIdx,
 114:C:/Renesas/e2studio_2021_01_workspace_RZA2M_ANPR/ANPR_RZA2M_GR_MANGO/src/tensorflow_lite/src/tensorflow/lite/kernels\kernel_util.h **** //                     &my_tensor));
 115:C:/Renesas/e2studio_2021_01_workspace_RZA2M_ANPR/ANPR_RZA2M_GR_MANGO/src/tensorflow_lite/src/tensorflow/lite/kernels\kernel_util.h **** //   // can use my_tensor directly from here onwards, it is not nullptr
 116:C:/Renesas/e2studio_2021_01_workspace_RZA2M_ANPR/ANPR_RZA2M_GR_MANGO/src/tensorflow_lite/src/tensorflow/lite/kernels\kernel_util.h **** //
 117:C:/Renesas/e2studio_2021_01_workspace_RZA2M_ANPR/ANPR_RZA2M_GR_MANGO/src/tensorflow_lite/src/tensorflow/lite/kernels\kernel_util.h **** // Should be used in cases where the binary size is too large.
 118:C:/Renesas/e2studio_2021_01_workspace_RZA2M_ANPR/ANPR_RZA2M_GR_MANGO/src/tensorflow_lite/src/tensorflow/lite/kernels\kernel_util.h **** TfLiteStatus GetTemporarySafe(const TfLiteContext* context,
 119:C:/Renesas/e2studio_2021_01_workspace_RZA2M_ANPR/ANPR_RZA2M_GR_MANGO/src/tensorflow_lite/src/tensorflow/lite/kernels\kernel_util.h ****                               const TfLiteNode* node, int index,
 120:C:/Renesas/e2studio_2021_01_workspace_RZA2M_ANPR/ANPR_RZA2M_GR_MANGO/src/tensorflow_lite/src/tensorflow/lite/kernels\kernel_util.h ****                               TfLiteTensor** tensor);
 121:C:/Renesas/e2studio_2021_01_workspace_RZA2M_ANPR/ANPR_RZA2M_GR_MANGO/src/tensorflow_lite/src/tensorflow/lite/kernels\kernel_util.h **** 
 122:C:/Renesas/e2studio_2021_01_workspace_RZA2M_ANPR/ANPR_RZA2M_GR_MANGO/src/tensorflow_lite/src/tensorflow/lite/kernels\kernel_util.h **** // Note: You must check if result is not null:
 123:C:/Renesas/e2studio_2021_01_workspace_RZA2M_ANPR/ANPR_RZA2M_GR_MANGO/src/tensorflow_lite/src/tensorflow/lite/kernels\kernel_util.h **** //
 124:C:/Renesas/e2studio_2021_01_workspace_RZA2M_ANPR/ANPR_RZA2M_GR_MANGO/src/tensorflow_lite/src/tensorflow/lite/kernels\kernel_util.h **** //   TfLiteTensor* my_tensor = GetIntermediates(context, node, kMyTensorIdx);
 125:C:/Renesas/e2studio_2021_01_workspace_RZA2M_ANPR/ANPR_RZA2M_GR_MANGO/src/tensorflow_lite/src/tensorflow/lite/kernels\kernel_util.h **** //   TF_LITE_ENSURE(context, my_tensor != nullptr);
 126:C:/Renesas/e2studio_2021_01_workspace_RZA2M_ANPR/ANPR_RZA2M_GR_MANGO/src/tensorflow_lite/src/tensorflow/lite/kernels\kernel_util.h **** //
 127:C:/Renesas/e2studio_2021_01_workspace_RZA2M_ANPR/ANPR_RZA2M_GR_MANGO/src/tensorflow_lite/src/tensorflow/lite/kernels\kernel_util.h **** // This is because the index might point to the optional tensor constant
 128:C:/Renesas/e2studio_2021_01_workspace_RZA2M_ANPR/ANPR_RZA2M_GR_MANGO/src/tensorflow_lite/src/tensorflow/lite/kernels\kernel_util.h **** // (kTfLiteOptionalTensor) in which case there is no tensor to return.
 129:C:/Renesas/e2studio_2021_01_workspace_RZA2M_ANPR/ANPR_RZA2M_GR_MANGO/src/tensorflow_lite/src/tensorflow/lite/kernels\kernel_util.h **** const TfLiteTensor* GetIntermediates(TfLiteContext* context,
 130:C:/Renesas/e2studio_2021_01_workspace_RZA2M_ANPR/ANPR_RZA2M_GR_MANGO/src/tensorflow_lite/src/tensorflow/lite/kernels\kernel_util.h ****                                      const TfLiteNode* node, int index);
 131:C:/Renesas/e2studio_2021_01_workspace_RZA2M_ANPR/ANPR_RZA2M_GR_MANGO/src/tensorflow_lite/src/tensorflow/lite/kernels\kernel_util.h **** 
 132:C:/Renesas/e2studio_2021_01_workspace_RZA2M_ANPR/ANPR_RZA2M_GR_MANGO/src/tensorflow_lite/src/tensorflow/lite/kernels\kernel_util.h **** // Same as `GetIntermediates` but returns boolean and uses output argument for
 133:C:/Renesas/e2studio_2021_01_workspace_RZA2M_ANPR/ANPR_RZA2M_GR_MANGO/src/tensorflow_lite/src/tensorflow/lite/kernels\kernel_util.h **** // tensor.
 134:C:/Renesas/e2studio_2021_01_workspace_RZA2M_ANPR/ANPR_RZA2M_GR_MANGO/src/tensorflow_lite/src/tensorflow/lite/kernels\kernel_util.h **** //
 135:C:/Renesas/e2studio_2021_01_workspace_RZA2M_ANPR/ANPR_RZA2M_GR_MANGO/src/tensorflow_lite/src/tensorflow/lite/kernels\kernel_util.h **** //   TfLiteTensor* my_tensor;
 136:C:/Renesas/e2studio_2021_01_workspace_RZA2M_ANPR/ANPR_RZA2M_GR_MANGO/src/tensorflow_lite/src/tensorflow/lite/kernels\kernel_util.h **** //   TF_LITE_ENSURE_OK(context,
 137:C:/Renesas/e2studio_2021_01_workspace_RZA2M_ANPR/ANPR_RZA2M_GR_MANGO/src/tensorflow_lite/src/tensorflow/lite/kernels\kernel_util.h **** //                     GetIntermediatesSafe(context, node, kMyTensorIdx,
 138:C:/Renesas/e2studio_2021_01_workspace_RZA2M_ANPR/ANPR_RZA2M_GR_MANGO/src/tensorflow_lite/src/tensorflow/lite/kernels\kernel_util.h **** //                     &my_tensor));
 139:C:/Renesas/e2studio_2021_01_workspace_RZA2M_ANPR/ANPR_RZA2M_GR_MANGO/src/tensorflow_lite/src/tensorflow/lite/kernels\kernel_util.h **** //   // can use my_tensor directly from here onwards, it is not nullptr
 140:C:/Renesas/e2studio_2021_01_workspace_RZA2M_ANPR/ANPR_RZA2M_GR_MANGO/src/tensorflow_lite/src/tensorflow/lite/kernels\kernel_util.h **** //
 141:C:/Renesas/e2studio_2021_01_workspace_RZA2M_ANPR/ANPR_RZA2M_GR_MANGO/src/tensorflow_lite/src/tensorflow/lite/kernels\kernel_util.h **** // Should be used in cases where the binary size is too large.
 142:C:/Renesas/e2studio_2021_01_workspace_RZA2M_ANPR/ANPR_RZA2M_GR_MANGO/src/tensorflow_lite/src/tensorflow/lite/kernels\kernel_util.h **** TfLiteStatus GetIntermediatesSafe(const TfLiteContext* context,
 143:C:/Renesas/e2studio_2021_01_workspace_RZA2M_ANPR/ANPR_RZA2M_GR_MANGO/src/tensorflow_lite/src/tensorflow/lite/kernels\kernel_util.h ****                                   const TfLiteNode* node, int index,
 144:C:/Renesas/e2studio_2021_01_workspace_RZA2M_ANPR/ANPR_RZA2M_GR_MANGO/src/tensorflow_lite/src/tensorflow/lite/kernels\kernel_util.h ****                                   TfLiteTensor** tensor);
 145:C:/Renesas/e2studio_2021_01_workspace_RZA2M_ANPR/ANPR_RZA2M_GR_MANGO/src/tensorflow_lite/src/tensorflow/lite/kernels\kernel_util.h **** #endif  // TF_LITE_STATIC_MEMORY
 146:C:/Renesas/e2studio_2021_01_workspace_RZA2M_ANPR/ANPR_RZA2M_GR_MANGO/src/tensorflow_lite/src/tensorflow/lite/kernels\kernel_util.h **** 
 147:C:/Renesas/e2studio_2021_01_workspace_RZA2M_ANPR/ANPR_RZA2M_GR_MANGO/src/tensorflow_lite/src/tensorflow/lite/kernels\kernel_util.h **** inline int NumDimensions(const TfLiteTensor* t) { return t->dims->size; }
 148:C:/Renesas/e2studio_2021_01_workspace_RZA2M_ANPR/ANPR_RZA2M_GR_MANGO/src/tensorflow_lite/src/tensorflow/lite/kernels\kernel_util.h **** inline int SizeOfDimension(const TfLiteTensor* t, int dim) {
 149:C:/Renesas/e2studio_2021_01_workspace_RZA2M_ANPR/ANPR_RZA2M_GR_MANGO/src/tensorflow_lite/src/tensorflow/lite/kernels\kernel_util.h ****   return t->dims->data[dim];
 150:C:/Renesas/e2studio_2021_01_workspace_RZA2M_ANPR/ANPR_RZA2M_GR_MANGO/src/tensorflow_lite/src/tensorflow/lite/kernels\kernel_util.h **** }
 151:C:/Renesas/e2studio_2021_01_workspace_RZA2M_ANPR/ANPR_RZA2M_GR_MANGO/src/tensorflow_lite/src/tensorflow/lite/kernels\kernel_util.h **** 
 152:C:/Renesas/e2studio_2021_01_workspace_RZA2M_ANPR/ANPR_RZA2M_GR_MANGO/src/tensorflow_lite/src/tensorflow/lite/kernels\kernel_util.h **** inline int NumInputs(const TfLiteNode* node) { return node->inputs->size; }
 136              		.loc 2 152 0
 137 006c 003096E5 		ldr	r3, [r6]
 138 0070 007093E5 		ldr	r7, [r3]
 139              	.LBE246:
 140              	.LBE245:
 155:../src/tensorflow_lite/src/tensorflow/lite/micro/kernels/concatenation.cpp **** 
 156:../src/tensorflow_lite/src/tensorflow/lite/micro/kernels/concatenation.cpp ****   // This implementation does not support large number of input tensors
 157:../src/tensorflow_lite/src/tensorflow/lite/micro/kernels/concatenation.cpp ****   const int num_inputs = NumInputs(node);
 158:../src/tensorflow_lite/src/tensorflow/lite/micro/kernels/concatenation.cpp ****   TF_LITE_ENSURE(context, num_inputs <= kMaxInputNum);
 141              		.loc 1 158 0
 142 0074 0A0057E3 		cmp	r7, #10
 143 0078 7C0000CA 		bgt	.L15
 144              	.LVL12:
 145              	.LBB247:
 159:../src/tensorflow_lite/src/tensorflow/lite/micro/kernels/concatenation.cpp **** 
 160:../src/tensorflow_lite/src/tensorflow/lite/micro/kernels/concatenation.cpp ****   // Shapes with dimensions >4 are not yet supported with static allocation.
 161:../src/tensorflow_lite/src/tensorflow/lite/micro/kernels/concatenation.cpp ****   for (int i = 0; i < num_inputs; ++i) {
 146              		.loc 1 161 0 discriminator 1
 147 007c 000057E3 		cmp	r7, #0
 148 0080 0040A0C3 		movgt	r4, #0
 149              	.LVL13:
 150 0084 070000CA 		bgt	.L22
 151 0088 5B0000EA 		b	.L21
 152              	.LVL14:
 153              	.L19:
 154              	.LBB248:
 155              	.LBB249:
 156              	.LBB250:
 147:C:/Renesas/e2studio_2021_01_workspace_RZA2M_ANPR/ANPR_RZA2M_GR_MANGO/src/tensorflow_lite/src/tensorflow/lite/kernels\kernel_util.h **** inline int SizeOfDimension(const TfLiteTensor* t, int dim) {
 157              		.loc 2 147 0
 158 008c 083090E5 		ldr	r3, [r0, #8]
 159 0090 002093E5 		ldr	r2, [r3]
 160              	.LBE250:
 161              	.LBE249:
 162:../src/tensorflow_lite/src/tensorflow/lite/micro/kernels/concatenation.cpp ****     const TfLiteTensor* input = GetInput(context, node, i);
 163:../src/tensorflow_lite/src/tensorflow/lite/micro/kernels/concatenation.cpp ****     TF_LITE_ENSURE(context, input != nullptr);
 164:../src/tensorflow_lite/src/tensorflow/lite/micro/kernels/concatenation.cpp ****     int num_dimensions = NumDimensions(input);
 165:../src/tensorflow_lite/src/tensorflow/lite/micro/kernels/concatenation.cpp **** 
 166:../src/tensorflow_lite/src/tensorflow/lite/micro/kernels/concatenation.cpp ****     if (num_dimensions > 4) {
 162              		.loc 1 166 0
 163 0094 040052E3 		cmp	r2, #4
 164 0098 6D0000CA 		bgt	.L45
 165              	.LBE248:
 161:../src/tensorflow_lite/src/tensorflow/lite/micro/kernels/concatenation.cpp ****     const TfLiteTensor* input = GetInput(context, node, i);
 166              		.loc 1 161 0 discriminator 2
 167 009c 014084E2 		add	r4, r4, #1
 168              	.LVL15:
 169 00a0 070054E1 		cmp	r4, r7
 170 00a4 5400000A 		beq	.L21
 171              	.LVL16:
 172              	.L22:
 173              	.LBB251:
 162:../src/tensorflow_lite/src/tensorflow/lite/micro/kernels/concatenation.cpp ****     const TfLiteTensor* input = GetInput(context, node, i);
 174              		.loc 1 162 0
 175 00a8 0420A0E1 		mov	r2, r4
 176 00ac 0610A0E1 		mov	r1, r6
 177 00b0 0500A0E1 		mov	r0, r5
 178 00b4 FEFFFFEB 		bl	_ZN6tflite8GetInputEPK13TfLiteContextPK10TfLiteNodei
 179              	.LVL17:
 163:../src/tensorflow_lite/src/tensorflow/lite/micro/kernels/concatenation.cpp ****     int num_dimensions = NumDimensions(input);
 180              		.loc 1 163 0
 181 00b8 000050E3 		cmp	r0, #0
 182 00bc F2FFFF1A 		bne	.L19
 163:../src/tensorflow_lite/src/tensorflow/lite/micro/kernels/concatenation.cpp ****     int num_dimensions = NumDimensions(input);
 183              		.loc 1 163 0 is_stmt 0 discriminator 1
 184 00c0 003000E3 		movw	r3, #:lower16:.LC12
 185 00c4 002000E3 		movw	r2, #:lower16:.LC1
 186 00c8 003040E3 		movt	r3, #:upper16:.LC12
 187 00cc 001000E3 		movw	r1, #:lower16:.LC2
 188 00d0 00308DE5 		str	r3, [sp]
 189 00d4 0500A0E1 		mov	r0, r5
 190              	.LVL18:
 191 00d8 002040E3 		movt	r2, #:upper16:.LC1
 192 00dc 001040E3 		movt	r1, #:upper16:.LC2
 193 00e0 144095E5 		ldr	r4, [r5, #20]
 194              	.LVL19:
 195 00e4 A330A0E3 		mov	r3, #163
 196 00e8 34FF2FE1 		blx	r4
 197              	.LVL20:
 198 00ec 0100A0E3 		mov	r0, #1
 199 00f0 100000EA 		b	.L10
 200              	.LVL21:
 201              	.L44:
 202              	.LBE251:
 203              	.LBE247:
 154:../src/tensorflow_lite/src/tensorflow/lite/micro/kernels/concatenation.cpp **** 
 204              		.loc 1 154 0 is_stmt 1 discriminator 1
 205 00f4 000000E3 		movw	r0, #:lower16:.LC9
 206              	.LVL22:
 207 00f8 003000E3 		movw	r3, #:lower16:.LC10
 208 00fc 000040E3 		movt	r0, #:upper16:.LC9
 209 0100 003040E3 		movt	r3, #:upper16:.LC10
 210 0104 002000E3 		movw	r2, #:lower16:.LC1
 211 0108 001000E3 		movw	r1, #:lower16:.LC5
 212 010c 04008DE5 		str	r0, [sp, #4]
 213 0110 002040E3 		movt	r2, #:upper16:.LC1
 214 0114 00308DE5 		str	r3, [sp]
 215 0118 0500A0E1 		mov	r0, r5
 216 011c 0C408DE5 		str	r4, [sp, #12]
 217 0120 001040E3 		movt	r1, #:upper16:.LC5
 218 0124 08908DE5 		str	r9, [sp, #8]
 219 0128 9A30A0E3 		mov	r3, #154
 220 012c 144095E5 		ldr	r4, [r5, #20]
 221              	.LVL23:
 222 0130 34FF2FE1 		blx	r4
 223              	.LVL24:
 224 0134 0100A0E3 		mov	r0, #1
 225              	.LVL25:
 226              	.L10:
 167:../src/tensorflow_lite/src/tensorflow/lite/micro/kernels/concatenation.cpp ****       TF_LITE_KERNEL_LOG(
 168:../src/tensorflow_lite/src/tensorflow/lite/micro/kernels/concatenation.cpp ****           context,
 169:../src/tensorflow_lite/src/tensorflow/lite/micro/kernels/concatenation.cpp ****           "Op Concatenation does not currently support num dimensions >4 "
 170:../src/tensorflow_lite/src/tensorflow/lite/micro/kernels/concatenation.cpp ****           "Tensor has %d dimensions.",
 171:../src/tensorflow_lite/src/tensorflow/lite/micro/kernels/concatenation.cpp ****           num_dimensions);
 172:../src/tensorflow_lite/src/tensorflow/lite/micro/kernels/concatenation.cpp ****       return kTfLiteError;
 173:../src/tensorflow_lite/src/tensorflow/lite/micro/kernels/concatenation.cpp ****     }
 174:../src/tensorflow_lite/src/tensorflow/lite/micro/kernels/concatenation.cpp ****   }
 175:../src/tensorflow_lite/src/tensorflow/lite/micro/kernels/concatenation.cpp **** 
 176:../src/tensorflow_lite/src/tensorflow/lite/micro/kernels/concatenation.cpp ****   // Calculate OpData.
 177:../src/tensorflow_lite/src/tensorflow/lite/micro/kernels/concatenation.cpp ****   TFLITE_DCHECK(node->user_data != nullptr);
 178:../src/tensorflow_lite/src/tensorflow/lite/micro/kernels/concatenation.cpp ****   OpData* data = static_cast<OpData*>(node->user_data);
 179:../src/tensorflow_lite/src/tensorflow/lite/micro/kernels/concatenation.cpp **** 
 180:../src/tensorflow_lite/src/tensorflow/lite/micro/kernels/concatenation.cpp ****   TfLiteTensor* output = GetOutput(context, node, kOutputTensor);
 181:../src/tensorflow_lite/src/tensorflow/lite/micro/kernels/concatenation.cpp ****   TF_LITE_ENSURE(context, output != nullptr);
 182:../src/tensorflow_lite/src/tensorflow/lite/micro/kernels/concatenation.cpp **** 
 183:../src/tensorflow_lite/src/tensorflow/lite/micro/kernels/concatenation.cpp ****   switch (output_type) {  // Already know in/outtypes are same.
 184:../src/tensorflow_lite/src/tensorflow/lite/micro/kernels/concatenation.cpp ****     case kTfLiteFloat32:
 185:../src/tensorflow_lite/src/tensorflow/lite/micro/kernels/concatenation.cpp ****     case kTfLiteInt32:
 186:../src/tensorflow_lite/src/tensorflow/lite/micro/kernels/concatenation.cpp ****     case kTfLiteInt64: {
 187:../src/tensorflow_lite/src/tensorflow/lite/micro/kernels/concatenation.cpp ****       data->params.axis = CalculatePositiveAxis(params->axis, output);
 188:../src/tensorflow_lite/src/tensorflow/lite/micro/kernels/concatenation.cpp ****       data->params.inputs_count = node->inputs->size;
 189:../src/tensorflow_lite/src/tensorflow/lite/micro/kernels/concatenation.cpp ****       break;
 190:../src/tensorflow_lite/src/tensorflow/lite/micro/kernels/concatenation.cpp ****     }
 191:../src/tensorflow_lite/src/tensorflow/lite/micro/kernels/concatenation.cpp ****     case kTfLiteUInt8:
 192:../src/tensorflow_lite/src/tensorflow/lite/micro/kernels/concatenation.cpp ****     case kTfLiteInt8: {
 193:../src/tensorflow_lite/src/tensorflow/lite/micro/kernels/concatenation.cpp ****       data->params.axis = CalculatePositiveAxis(params->axis, output);
 194:../src/tensorflow_lite/src/tensorflow/lite/micro/kernels/concatenation.cpp ****       data->params.inputs_count = node->inputs->size;
 195:../src/tensorflow_lite/src/tensorflow/lite/micro/kernels/concatenation.cpp **** 
 196:../src/tensorflow_lite/src/tensorflow/lite/micro/kernels/concatenation.cpp ****       float* input_scales =
 197:../src/tensorflow_lite/src/tensorflow/lite/micro/kernels/concatenation.cpp ****           reinterpret_cast<float*>(context->AllocatePersistentBuffer(
 198:../src/tensorflow_lite/src/tensorflow/lite/micro/kernels/concatenation.cpp ****               context, node->inputs->size * sizeof(float)));
 199:../src/tensorflow_lite/src/tensorflow/lite/micro/kernels/concatenation.cpp **** 
 200:../src/tensorflow_lite/src/tensorflow/lite/micro/kernels/concatenation.cpp ****       int32_t* input_zero_points =
 201:../src/tensorflow_lite/src/tensorflow/lite/micro/kernels/concatenation.cpp ****           reinterpret_cast<int32_t*>(context->AllocatePersistentBuffer(
 202:../src/tensorflow_lite/src/tensorflow/lite/micro/kernels/concatenation.cpp ****               context, node->inputs->size * sizeof(int32_t)));
 203:../src/tensorflow_lite/src/tensorflow/lite/micro/kernels/concatenation.cpp **** 
 204:../src/tensorflow_lite/src/tensorflow/lite/micro/kernels/concatenation.cpp ****       // Allocate persistent scale and zeropoint buffers.
 205:../src/tensorflow_lite/src/tensorflow/lite/micro/kernels/concatenation.cpp ****       // Store input scale and zero point values in OpParams:
 206:../src/tensorflow_lite/src/tensorflow/lite/micro/kernels/concatenation.cpp ****       for (int i = 0; i < node->inputs->size; ++i) {
 207:../src/tensorflow_lite/src/tensorflow/lite/micro/kernels/concatenation.cpp ****         const TfLiteTensor* t = GetInput(context, node, i);
 208:../src/tensorflow_lite/src/tensorflow/lite/micro/kernels/concatenation.cpp ****         TF_LITE_ENSURE(context, t != nullptr);
 209:../src/tensorflow_lite/src/tensorflow/lite/micro/kernels/concatenation.cpp ****         input_scales[i] = t->params.scale;
 210:../src/tensorflow_lite/src/tensorflow/lite/micro/kernels/concatenation.cpp ****         input_zero_points[i] = t->params.zero_point;
 211:../src/tensorflow_lite/src/tensorflow/lite/micro/kernels/concatenation.cpp ****       }
 212:../src/tensorflow_lite/src/tensorflow/lite/micro/kernels/concatenation.cpp **** 
 213:../src/tensorflow_lite/src/tensorflow/lite/micro/kernels/concatenation.cpp ****       data->params.input_scale = input_scales;
 214:../src/tensorflow_lite/src/tensorflow/lite/micro/kernels/concatenation.cpp ****       data->params.input_zeropoint = input_zero_points;
 215:../src/tensorflow_lite/src/tensorflow/lite/micro/kernels/concatenation.cpp ****       data->params.output_zeropoint = output->params.zero_point;
 216:../src/tensorflow_lite/src/tensorflow/lite/micro/kernels/concatenation.cpp ****       data->params.output_scale = output->params.scale;
 217:../src/tensorflow_lite/src/tensorflow/lite/micro/kernels/concatenation.cpp ****       break;
 218:../src/tensorflow_lite/src/tensorflow/lite/micro/kernels/concatenation.cpp ****     }
 219:../src/tensorflow_lite/src/tensorflow/lite/micro/kernels/concatenation.cpp ****     default:
 220:../src/tensorflow_lite/src/tensorflow/lite/micro/kernels/concatenation.cpp ****       TF_LITE_KERNEL_LOG(
 221:../src/tensorflow_lite/src/tensorflow/lite/micro/kernels/concatenation.cpp ****           context, "Op Concatenation does not currently support Type '%s'.",
 222:../src/tensorflow_lite/src/tensorflow/lite/micro/kernels/concatenation.cpp ****           TfLiteTypeGetName(output_type));
 223:../src/tensorflow_lite/src/tensorflow/lite/micro/kernels/concatenation.cpp ****       return kTfLiteError;
 224:../src/tensorflow_lite/src/tensorflow/lite/micro/kernels/concatenation.cpp ****   }
 225:../src/tensorflow_lite/src/tensorflow/lite/micro/kernels/concatenation.cpp **** 
 226:../src/tensorflow_lite/src/tensorflow/lite/micro/kernels/concatenation.cpp ****   return kTfLiteOk;
 227:../src/tensorflow_lite/src/tensorflow/lite/micro/kernels/concatenation.cpp **** }
 227              		.loc 1 227 0
 228 0138 1CD08DE2 		add	sp, sp, #28
 229              		.cfi_remember_state
 230              		.cfi_def_cfa_offset 36
 231              		@ sp needed
 232 013c F08FBDE8 		pop	{r4, r5, r6, r7, r8, r9, r10, fp, pc}
 233              	.LVL26:
 234              	.L43:
 235              		.cfi_restore_state
 148:../src/tensorflow_lite/src/tensorflow/lite/micro/kernels/concatenation.cpp ****                  input_type == kTfLiteFloat32 || input_type == kTfLiteUInt8 ||
 236              		.loc 1 148 0 discriminator 3
 237 0140 003000E3 		movw	r3, #:lower16:.LC8
 238 0144 002000E3 		movw	r2, #:lower16:.LC1
 239 0148 003040E3 		movt	r3, #:upper16:.LC8
 240 014c 001000E3 		movw	r1, #:lower16:.LC2
 241 0150 00308DE5 		str	r3, [sp]
 242              	.LVL27:
 243 0154 0500A0E1 		mov	r0, r5
 244              	.LVL28:
 245 0158 002040E3 		movt	r2, #:upper16:.LC1
 246 015c 001040E3 		movt	r1, #:upper16:.LC2
 247 0160 144095E5 		ldr	r4, [r5, #20]
 248              	.LVL29:
 249 0164 9730A0E3 		mov	r3, #151
 250 0168 34FF2FE1 		blx	r4
 251              	.LVL30:
 252 016c 0100A0E3 		mov	r0, #1
 253 0170 F0FFFFEA 		b	.L10
 254              	.LVL31:
 255              	.L42:
 147:../src/tensorflow_lite/src/tensorflow/lite/micro/kernels/concatenation.cpp ****   TF_LITE_ENSURE(context,
 256              		.loc 1 147 0 discriminator 1
 257 0174 00C000E3 		movw	ip, #:lower16:.LC6
 258 0178 000000E3 		movw	r0, #:lower16:.LC7
 259              	.LVL32:
 260 017c 00C040E3 		movt	ip, #:upper16:.LC6
 261 0180 00E0A0E3 		mov	lr, #0
 262 0184 000040E3 		movt	r0, #:upper16:.LC7
 263 0188 002000E3 		movw	r2, #:lower16:.LC1
 264 018c 001000E3 		movw	r1, #:lower16:.LC5
 265 0190 08308DE5 		str	r3, [sp, #8]
 266 0194 00008DE5 		str	r0, [sp]
 267 0198 002040E3 		movt	r2, #:upper16:.LC1
 268 019c 04C08DE5 		str	ip, [sp, #4]
 269 01a0 0500A0E1 		mov	r0, r5
 270 01a4 0CE08DE5 		str	lr, [sp, #12]
 271 01a8 001040E3 		movt	r1, #:upper16:.LC5
 272 01ac 144095E5 		ldr	r4, [r5, #20]
 273              	.LVL33:
 274 01b0 9330A0E3 		mov	r3, #147
 275 01b4 34FF2FE1 		blx	r4
 276              	.LVL34:
 277 01b8 0100A0E3 		mov	r0, #1
 278              		.loc 1 227 0 discriminator 1
 279 01bc 1CD08DE2 		add	sp, sp, #28
 280              		.cfi_remember_state
 281              		.cfi_def_cfa_offset 36
 282              		@ sp needed
 283 01c0 F08FBDE8 		pop	{r4, r5, r6, r7, r8, r9, r10, fp, pc}
 284              	.LVL35:
 285              	.L40:
 286              		.cfi_restore_state
 140:../src/tensorflow_lite/src/tensorflow/lite/micro/kernels/concatenation.cpp ****   TfLiteType input_type = input_tensor->type;
 287              		.loc 1 140 0 discriminator 1
 288 01c4 003000E3 		movw	r3, #:lower16:.LC3
 289 01c8 002000E3 		movw	r2, #:lower16:.LC1
 290 01cc 003040E3 		movt	r3, #:upper16:.LC3
 291 01d0 001000E3 		movw	r1, #:lower16:.LC2
 292 01d4 00308DE5 		str	r3, [sp]
 293 01d8 0500A0E1 		mov	r0, r5
 294              	.LVL36:
 295 01dc 002040E3 		movt	r2, #:upper16:.LC1
 296 01e0 001040E3 		movt	r1, #:upper16:.LC2
 297 01e4 144095E5 		ldr	r4, [r5, #20]
 298 01e8 8C30A0E3 		mov	r3, #140
 299 01ec 34FF2FE1 		blx	r4
 300              	.LVL37:
 301 01f0 0100A0E3 		mov	r0, #1
 302              		.loc 1 227 0 discriminator 1
 303 01f4 1CD08DE2 		add	sp, sp, #28
 304              		.cfi_remember_state
 305              		.cfi_def_cfa_offset 36
 306              		@ sp needed
 307 01f8 F08FBDE8 		pop	{r4, r5, r6, r7, r8, r9, r10, fp, pc}
 308              	.LVL38:
 309              	.L21:
 310              		.cfi_restore_state
 177:../src/tensorflow_lite/src/tensorflow/lite/micro/kernels/concatenation.cpp ****   OpData* data = static_cast<OpData*>(node->user_data);
 311              		.loc 1 177 0
 312 01fc 107096E5 		ldr	r7, [r6, #16]
 313 0200 000057E3 		cmp	r7, #0
 314 0204 9700000A 		beq	.L46
 315              	.LVL39:
 180:../src/tensorflow_lite/src/tensorflow/lite/micro/kernels/concatenation.cpp ****   TF_LITE_ENSURE(context, output != nullptr);
 316              		.loc 1 180 0
 317 0208 0020A0E3 		mov	r2, #0
 318 020c 0610A0E1 		mov	r1, r6
 319 0210 0500A0E1 		mov	r0, r5
 320 0214 FEFFFFEB 		bl	_ZN6tflite9GetOutputEP13TfLiteContextPK10TfLiteNodei
 321              	.LVL40:
 181:../src/tensorflow_lite/src/tensorflow/lite/micro/kernels/concatenation.cpp **** 
 322              		.loc 1 181 0
 323 0218 00A050E2 		subs	r10, r0, #0
 324 021c 8400000A 		beq	.L47
 325              	.LBB253:
 183:../src/tensorflow_lite/src/tensorflow/lite/micro/kernels/concatenation.cpp ****     case kTfLiteFloat32:
 326              		.loc 1 183 0
 327 0220 013049E2 		sub	r3, r9, #1
 328 0224 080053E3 		cmp	r3, #8
 329 0228 03F19F97 		ldrls	pc, [pc, r3, asl #2]
 330 022c 600000EA 		b	.L24
 331              	.L26:
 332 0230 88030000 		.word	.L25
 333 0234 88030000 		.word	.L25
 334 0238 A4020000 		.word	.L27
 335 023c 88030000 		.word	.L25
 336 0240 B4030000 		.word	.L24
 337 0244 B4030000 		.word	.L24
 338 0248 B4030000 		.word	.L24
 339 024c B4030000 		.word	.L24
 340 0250 A4020000 		.word	.L27
 341              	.LVL41:
 342              	.L45:
 343              	.LBE253:
 344              	.LBB274:
 345              	.LBB252:
 167:../src/tensorflow_lite/src/tensorflow/lite/micro/kernels/concatenation.cpp ****           context,
 346              		.loc 1 167 0
 347 0254 001000E3 		movw	r1, #:lower16:.LC13
 348 0258 0500A0E1 		mov	r0, r5
 349              	.LVL42:
 350 025c 001040E3 		movt	r1, #:upper16:.LC13
 351 0260 143095E5 		ldr	r3, [r5, #20]
 352 0264 33FF2FE1 		blx	r3
 353              	.LVL43:
 172:../src/tensorflow_lite/src/tensorflow/lite/micro/kernels/concatenation.cpp ****     }
 354              		.loc 1 172 0
 355 0268 0100A0E3 		mov	r0, #1
 356 026c B1FFFFEA 		b	.L10
 357              	.LVL44:
 358              	.L15:
 359              	.LBE252:
 360              	.LBE274:
 158:../src/tensorflow_lite/src/tensorflow/lite/micro/kernels/concatenation.cpp **** 
 361              		.loc 1 158 0 discriminator 1
 362 0270 003000E3 		movw	r3, #:lower16:.LC11
 363 0274 002000E3 		movw	r2, #:lower16:.LC1
 364 0278 003040E3 		movt	r3, #:upper16:.LC11
 365 027c 001000E3 		movw	r1, #:lower16:.LC2
 366 0280 00308DE5 		str	r3, [sp]
 367              	.LVL45:
 368 0284 0500A0E1 		mov	r0, r5
 369              	.LVL46:
 370 0288 002040E3 		movt	r2, #:upper16:.LC1
 371 028c 001040E3 		movt	r1, #:upper16:.LC2
 372 0290 144095E5 		ldr	r4, [r5, #20]
 373              	.LVL47:
 374 0294 9E30A0E3 		mov	r3, #158
 375 0298 34FF2FE1 		blx	r4
 376              	.LVL48:
 377 029c 0100A0E3 		mov	r0, #1
 378 02a0 A4FFFFEA 		b	.L10
 379              	.LVL49:
 380              	.L27:
 381              	.LBB275:
 382              	.LBB254:
 383              	.LBB255:
 193:../src/tensorflow_lite/src/tensorflow/lite/micro/kernels/concatenation.cpp ****       data->params.inputs_count = node->inputs->size;
 384              		.loc 1 193 0
 385 02a4 003098E5 		ldr	r3, [r8]
 386              	.LVL50:
 198:../src/tensorflow_lite/src/tensorflow/lite/micro/kernels/concatenation.cpp **** 
 387              		.loc 1 198 0
 388 02a8 0500A0E1 		mov	r0, r5
 389              	.LVL51:
 390              	.LBB256:
 391              	.LBB257:
  41:../src/tensorflow_lite/src/tensorflow/lite/micro/kernels/concatenation.cpp ****     return axis;
 392              		.loc 1 41 0
 393 02ac 000053E3 		cmp	r3, #0
 394              	.LVL52:
 395              	.LBB258:
 396              	.LBB259:
 147:C:/Renesas/e2studio_2021_01_workspace_RZA2M_ANPR/ANPR_RZA2M_GR_MANGO/src/tensorflow_lite/src/tensorflow/lite/kernels\kernel_util.h **** inline int SizeOfDimension(const TfLiteTensor* t, int dim) {
 397              		.loc 2 147 0
 398 02b0 08209AB5 		ldrlt	r2, [r10, #8]
 399              	.LBE259:
 400              	.LBE258:
  44:../src/tensorflow_lite/src/tensorflow/lite/micro/kernels/concatenation.cpp ****   }
 401              		.loc 1 44 0
 402 02b4 002092B5 		ldrlt	r2, [r2]
 403 02b8 023083B0 		addlt	r3, r3, r2
 404              	.LBE257:
 405              	.LBE256:
 193:../src/tensorflow_lite/src/tensorflow/lite/micro/kernels/concatenation.cpp ****       data->params.inputs_count = node->inputs->size;
 406              		.loc 1 193 0
 407 02bc 0030C7E5 		strb	r3, [r7]
 194:../src/tensorflow_lite/src/tensorflow/lite/micro/kernels/concatenation.cpp **** 
 408              		.loc 1 194 0
 409 02c0 002096E5 		ldr	r2, [r6]
 198:../src/tensorflow_lite/src/tensorflow/lite/micro/kernels/concatenation.cpp **** 
 410              		.loc 1 198 0
 411 02c4 383095E5 		ldr	r3, [r5, #56]
 194:../src/tensorflow_lite/src/tensorflow/lite/micro/kernels/concatenation.cpp **** 
 412              		.loc 1 194 0
 413 02c8 001092E5 		ldr	r1, [r2]
 414 02cc BC10C7E1 		strh	r1, [r7, #12]	@ movhi
 198:../src/tensorflow_lite/src/tensorflow/lite/micro/kernels/concatenation.cpp **** 
 415              		.loc 1 198 0
 416 02d0 0111A0E1 		lsl	r1, r1, #2
 417 02d4 33FF2FE1 		blx	r3
 418              	.LVL53:
 202:../src/tensorflow_lite/src/tensorflow/lite/micro/kernels/concatenation.cpp **** 
 419              		.loc 1 202 0
 420 02d8 002096E5 		ldr	r2, [r6]
 198:../src/tensorflow_lite/src/tensorflow/lite/micro/kernels/concatenation.cpp **** 
 421              		.loc 1 198 0
 422 02dc 14008DE5 		str	r0, [sp, #20]
 423              	.LVL54:
 202:../src/tensorflow_lite/src/tensorflow/lite/micro/kernels/concatenation.cpp **** 
 424              		.loc 1 202 0
 425 02e0 0500A0E1 		mov	r0, r5
 426              	.LVL55:
 427 02e4 383095E5 		ldr	r3, [r5, #56]
 201:../src/tensorflow_lite/src/tensorflow/lite/micro/kernels/concatenation.cpp ****               context, node->inputs->size * sizeof(int32_t)));
 428              		.loc 1 201 0
 429 02e8 001092E5 		ldr	r1, [r2]
 202:../src/tensorflow_lite/src/tensorflow/lite/micro/kernels/concatenation.cpp **** 
 430              		.loc 1 202 0
 431 02ec 0111A0E1 		lsl	r1, r1, #2
 432 02f0 33FF2FE1 		blx	r3
 433              	.LVL56:
 434              	.LBB260:
 206:../src/tensorflow_lite/src/tensorflow/lite/micro/kernels/concatenation.cpp ****         const TfLiteTensor* t = GetInput(context, node, i);
 435              		.loc 1 206 0
 436 02f4 003096E5 		ldr	r3, [r6]
 437              	.LBE260:
 202:../src/tensorflow_lite/src/tensorflow/lite/micro/kernels/concatenation.cpp **** 
 438              		.loc 1 202 0
 439 02f8 0090A0E1 		mov	r9, r0
 440              	.LVL57:
 441              	.LBB264:
 206:../src/tensorflow_lite/src/tensorflow/lite/micro/kernels/concatenation.cpp ****         const TfLiteTensor* t = GetInput(context, node, i);
 442              		.loc 1 206 0
 443 02fc 003093E5 		ldr	r3, [r3]
 444 0300 000053E3 		cmp	r3, #0
 445 0304 410000DA 		ble	.L32
 446 0308 14809DE5 		ldr	r8, [sp, #20]
 447              	.LVL58:
 448 030c 04B040E2 		sub	fp, r0, #4
 449 0310 0040A0E3 		mov	r4, #0
 450 0314 080000EA 		b	.L33
 451              	.LVL59:
 452              	.L31:
 206:../src/tensorflow_lite/src/tensorflow/lite/micro/kernels/concatenation.cpp ****         const TfLiteTensor* t = GetInput(context, node, i);
 453              		.loc 1 206 0 is_stmt 0 discriminator 2
 454 0318 002096E5 		ldr	r2, [r6]
 455 031c 014084E2 		add	r4, r4, #1
 456              	.LVL60:
 457              	.LBB261:
 209:../src/tensorflow_lite/src/tensorflow/lite/micro/kernels/concatenation.cpp ****         input_zero_points[i] = t->params.zero_point;
 458              		.loc 1 209 0 is_stmt 1 discriminator 2
 459 0320 0CC090E5 		ldr	ip, [r0, #12]	@ float
 210:../src/tensorflow_lite/src/tensorflow/lite/micro/kernels/concatenation.cpp ****       }
 460              		.loc 1 210 0 discriminator 2
 461 0324 101090E5 		ldr	r1, [r0, #16]
 462              	.LBE261:
 206:../src/tensorflow_lite/src/tensorflow/lite/micro/kernels/concatenation.cpp ****         const TfLiteTensor* t = GetInput(context, node, i);
 463              		.loc 1 206 0 discriminator 2
 464 0328 002092E5 		ldr	r2, [r2]
 465              	.LBB262:
 209:../src/tensorflow_lite/src/tensorflow/lite/micro/kernels/concatenation.cpp ****         input_zero_points[i] = t->params.zero_point;
 466              		.loc 1 209 0 discriminator 2
 467 032c 04C088E4 		str	ip, [r8], #4	@ float
 210:../src/tensorflow_lite/src/tensorflow/lite/micro/kernels/concatenation.cpp ****       }
 468              		.loc 1 210 0 discriminator 2
 469 0330 0410ABE5 		str	r1, [fp, #4]!
 470              	.LBE262:
 206:../src/tensorflow_lite/src/tensorflow/lite/micro/kernels/concatenation.cpp ****         const TfLiteTensor* t = GetInput(context, node, i);
 471              		.loc 1 206 0 discriminator 2
 472 0334 040052E1 		cmp	r2, r4
 473 0338 340000DA 		ble	.L32
 474              	.LVL61:
 475              	.L33:
 476              	.LBB263:
 207:../src/tensorflow_lite/src/tensorflow/lite/micro/kernels/concatenation.cpp ****         TF_LITE_ENSURE(context, t != nullptr);
 477              		.loc 1 207 0
 478 033c 0420A0E1 		mov	r2, r4
 479 0340 0610A0E1 		mov	r1, r6
 480 0344 0500A0E1 		mov	r0, r5
 481 0348 FEFFFFEB 		bl	_ZN6tflite8GetInputEPK13TfLiteContextPK10TfLiteNodei
 482              	.LVL62:
 208:../src/tensorflow_lite/src/tensorflow/lite/micro/kernels/concatenation.cpp ****         input_scales[i] = t->params.scale;
 483              		.loc 1 208 0
 484 034c 000050E3 		cmp	r0, #0
 485 0350 F0FFFF1A 		bne	.L31
 208:../src/tensorflow_lite/src/tensorflow/lite/micro/kernels/concatenation.cpp ****         input_scales[i] = t->params.scale;
 486              		.loc 1 208 0 is_stmt 0 discriminator 1
 487 0354 003000E3 		movw	r3, #:lower16:.LC15
 488 0358 002000E3 		movw	r2, #:lower16:.LC1
 489 035c 003040E3 		movt	r3, #:upper16:.LC15
 490 0360 001000E3 		movw	r1, #:lower16:.LC2
 491 0364 00308DE5 		str	r3, [sp]
 492 0368 0500A0E1 		mov	r0, r5
 493              	.LVL63:
 494 036c 002040E3 		movt	r2, #:upper16:.LC1
 495 0370 001040E3 		movt	r1, #:upper16:.LC2
 496 0374 144095E5 		ldr	r4, [r5, #20]
 497              	.LVL64:
 498 0378 D030A0E3 		mov	r3, #208
 499 037c 34FF2FE1 		blx	r4
 500              	.LVL65:
 501 0380 0100A0E3 		mov	r0, #1
 502 0384 6BFFFFEA 		b	.L10
 503              	.LVL66:
 504              	.L25:
 505              	.LBE263:
 506              	.LBE264:
 507              	.LBE255:
 187:../src/tensorflow_lite/src/tensorflow/lite/micro/kernels/concatenation.cpp ****       data->params.inputs_count = node->inputs->size;
 508              		.loc 1 187 0 is_stmt 1
 509 0388 003098E5 		ldr	r3, [r8]
 510              	.LVL67:
 511              	.LBE254:
 512              	.LBE275:
 226:../src/tensorflow_lite/src/tensorflow/lite/micro/kernels/concatenation.cpp **** }
 513              		.loc 1 226 0
 514 038c 0000A0E3 		mov	r0, #0
 515              	.LVL68:
 516              	.LBB276:
 517              	.LBB271:
 518              	.LBB265:
 519              	.LBB266:
  41:../src/tensorflow_lite/src/tensorflow/lite/micro/kernels/concatenation.cpp ****     return axis;
 520              		.loc 1 41 0
 521 0390 000053E3 		cmp	r3, #0
 522              	.LVL69:
 523              	.LBB267:
 524              	.LBB268:
 147:C:/Renesas/e2studio_2021_01_workspace_RZA2M_ANPR/ANPR_RZA2M_GR_MANGO/src/tensorflow_lite/src/tensorflow/lite/kernels\kernel_util.h **** inline int SizeOfDimension(const TfLiteTensor* t, int dim) {
 525              		.loc 2 147 0
 526 0394 08209AB5 		ldrlt	r2, [r10, #8]
 527              	.LBE268:
 528              	.LBE267:
  44:../src/tensorflow_lite/src/tensorflow/lite/micro/kernels/concatenation.cpp ****   }
 529              		.loc 1 44 0
 530 0398 002092B5 		ldrlt	r2, [r2]
 531 039c 023083B0 		addlt	r3, r3, r2
 532              	.LVL70:
 533              	.LBE266:
 534              	.LBE265:
 187:../src/tensorflow_lite/src/tensorflow/lite/micro/kernels/concatenation.cpp ****       data->params.inputs_count = node->inputs->size;
 535              		.loc 1 187 0
 536 03a0 0030C7E5 		strb	r3, [r7]
 188:../src/tensorflow_lite/src/tensorflow/lite/micro/kernels/concatenation.cpp ****       break;
 537              		.loc 1 188 0
 538 03a4 003096E5 		ldr	r3, [r6]
 539 03a8 003093E5 		ldr	r3, [r3]
 540 03ac BC30C7E1 		strh	r3, [r7, #12]	@ movhi
 189:../src/tensorflow_lite/src/tensorflow/lite/micro/kernels/concatenation.cpp ****     }
 541              		.loc 1 189 0
 542 03b0 60FFFFEA 		b	.L10
 543              	.LVL71:
 544              	.L24:
 220:../src/tensorflow_lite/src/tensorflow/lite/micro/kernels/concatenation.cpp ****           context, "Op Concatenation does not currently support Type '%s'.",
 545              		.loc 1 220 0
 546 03b4 0900A0E1 		mov	r0, r9
 547              	.LVL72:
 548 03b8 144095E5 		ldr	r4, [r5, #20]
 549 03bc FEFFFFEB 		bl	TfLiteTypeGetName
 550              	.LVL73:
 551 03c0 001000E3 		movw	r1, #:lower16:.LC16
 552 03c4 0020A0E1 		mov	r2, r0
 553 03c8 001040E3 		movt	r1, #:upper16:.LC16
 554 03cc 0500A0E1 		mov	r0, r5
 555 03d0 34FF2FE1 		blx	r4
 556              	.LVL74:
 223:../src/tensorflow_lite/src/tensorflow/lite/micro/kernels/concatenation.cpp ****   }
 557              		.loc 1 223 0
 558 03d4 0100A0E3 		mov	r0, #1
 559 03d8 56FFFFEA 		b	.L10
 560              	.LVL75:
 561              	.L41:
 562              	.LBE271:
 563              	.LBE276:
 143:../src/tensorflow_lite/src/tensorflow/lite/micro/kernels/concatenation.cpp ****   TfLiteType output_type = output_tensor->type;
 564              		.loc 1 143 0 discriminator 1
 565 03dc 003000E3 		movw	r3, #:lower16:.LC4
 566 03e0 002000E3 		movw	r2, #:lower16:.LC1
 567 03e4 003040E3 		movt	r3, #:upper16:.LC4
 568 03e8 001000E3 		movw	r1, #:lower16:.LC2
 569 03ec 00308DE5 		str	r3, [sp]
 570 03f0 0500A0E1 		mov	r0, r5
 571              	.LVL76:
 572 03f4 002040E3 		movt	r2, #:upper16:.LC1
 573 03f8 001040E3 		movt	r1, #:upper16:.LC2
 574 03fc 144095E5 		ldr	r4, [r5, #20]
 575              	.LVL77:
 576 0400 8F30A0E3 		mov	r3, #143
 577 0404 34FF2FE1 		blx	r4
 578              	.LVL78:
 579 0408 0100A0E3 		mov	r0, #1
 580 040c 49FFFFEA 		b	.L10
 581              	.LVL79:
 582              	.L32:
 583              	.LBB277:
 584              	.LBB272:
 585              	.LBB269:
 215:../src/tensorflow_lite/src/tensorflow/lite/micro/kernels/concatenation.cpp ****       data->params.output_scale = output->params.scale;
 586              		.loc 1 215 0
 587 0410 10209AE5 		ldr	r2, [r10, #16]
 588              	.LBE269:
 589              	.LBE272:
 590              	.LBE277:
 226:../src/tensorflow_lite/src/tensorflow/lite/micro/kernels/concatenation.cpp **** }
 591              		.loc 1 226 0
 592 0414 0000A0E3 		mov	r0, #0
 593              	.LBB278:
 594              	.LBB273:
 595              	.LBB270:
 216:../src/tensorflow_lite/src/tensorflow/lite/micro/kernels/concatenation.cpp ****       break;
 596              		.loc 1 216 0
 597 0418 0C309AE5 		ldr	r3, [r10, #12]	@ float
 213:../src/tensorflow_lite/src/tensorflow/lite/micro/kernels/concatenation.cpp ****       data->params.input_zeropoint = input_zero_points;
 598              		.loc 1 213 0
 599 041c 14109DE5 		ldr	r1, [sp, #20]
 214:../src/tensorflow_lite/src/tensorflow/lite/micro/kernels/concatenation.cpp ****       data->params.output_zeropoint = output->params.zero_point;
 600              		.loc 1 214 0
 601 0420 049087E5 		str	r9, [r7, #4]
 215:../src/tensorflow_lite/src/tensorflow/lite/micro/kernels/concatenation.cpp ****       data->params.output_scale = output->params.scale;
 602              		.loc 1 215 0
 603 0424 102087E5 		str	r2, [r7, #16]
 213:../src/tensorflow_lite/src/tensorflow/lite/micro/kernels/concatenation.cpp ****       data->params.input_zeropoint = input_zero_points;
 604              		.loc 1 213 0
 605 0428 081087E5 		str	r1, [r7, #8]
 216:../src/tensorflow_lite/src/tensorflow/lite/micro/kernels/concatenation.cpp ****       break;
 606              		.loc 1 216 0
 607 042c 143087E5 		str	r3, [r7, #20]	@ float
 217:../src/tensorflow_lite/src/tensorflow/lite/micro/kernels/concatenation.cpp ****     }
 608              		.loc 1 217 0
 609 0430 40FFFFEA 		b	.L10
 610              	.LVL80:
 611              	.L47:
 612              	.LBE270:
 613              	.LBE273:
 614              	.LBE278:
 181:../src/tensorflow_lite/src/tensorflow/lite/micro/kernels/concatenation.cpp **** 
 615              		.loc 1 181 0 discriminator 1
 616 0434 003000E3 		movw	r3, #:lower16:.LC14
 617 0438 002000E3 		movw	r2, #:lower16:.LC1
 618 043c 003040E3 		movt	r3, #:upper16:.LC14
 619 0440 001000E3 		movw	r1, #:lower16:.LC2
 620 0444 00308DE5 		str	r3, [sp]
 621 0448 0500A0E1 		mov	r0, r5
 622              	.LVL81:
 623 044c 002040E3 		movt	r2, #:upper16:.LC1
 624 0450 001040E3 		movt	r1, #:upper16:.LC2
 625 0454 144095E5 		ldr	r4, [r5, #20]
 626 0458 B530A0E3 		mov	r3, #181
 627 045c 34FF2FE1 		blx	r4
 628              	.LVL82:
 629 0460 0100A0E3 		mov	r0, #1
 630 0464 33FFFFEA 		b	.L10
 631              	.LVL83:
 632              	.L46:
 177:../src/tensorflow_lite/src/tensorflow/lite/micro/kernels/concatenation.cpp ****   OpData* data = static_cast<OpData*>(node->user_data);
 633              		.loc 1 177 0 discriminator 1
 634 0468 FEFFFFEB 		bl	abort
 635              	.LVL84:
 636              		.cfi_endproc
 637              	.LFE4509:
 638              		.fnend
 640              		.section	.text._ZN6tflite3ops5micro13concatenation18EvalQuantizedUInt8EP13TfLiteContextP10TfLiteNo
 641              		.align	2
 642              		.global	_ZN6tflite3ops5micro13concatenation18EvalQuantizedUInt8EP13TfLiteContextP10TfLiteNode
 643              		.syntax unified
 644              		.arm
 645              		.fpu neon
 647              	_ZN6tflite3ops5micro13concatenation18EvalQuantizedUInt8EP13TfLiteContextP10TfLiteNode:
 648              		.fnstart
 649              	.LFB4507:
 107:../src/tensorflow_lite/src/tensorflow/lite/micro/kernels/concatenation.cpp ****   // Collect the shapes and data pointer of input tensors
 650              		.loc 1 107 0
 651              		.cfi_startproc
 652              		.cfi_personality 0,__gxx_personality_v0
 653              		.cfi_lsda 0,.LLSDA4507
 654              		@ args = 0, pretend = 0, frame = 448
 655              		@ frame_needed = 0, uses_anonymous_args = 0
 656              	.LVL85:
 657 0000 F04F2DE9 		push	{r4, r5, r6, r7, r8, r9, r10, fp, lr}
 658              		.save {r4, r5, r6, r7, r8, r9, r10, fp, lr}
 659              		.cfi_def_cfa_offset 36
 660              		.cfi_offset 4, -36
 661              		.cfi_offset 5, -32
 662              		.cfi_offset 6, -28
 663              		.cfi_offset 7, -24
 664              		.cfi_offset 8, -20
 665              		.cfi_offset 9, -16
 666              		.cfi_offset 10, -12
 667              		.cfi_offset 11, -8
 668              		.cfi_offset 14, -4
 669              	.LBB369:
 670              	.LBB370:
  56:../src/tensorflow_lite/src/tensorflow/lite/micro/kernels/concatenation.cpp ****   TFLITE_DCHECK(node != nullptr);
 671              		.loc 1 56 0
 672 0004 006050E2 		subs	r6, r0, #0
 673              	.LBE370:
 674              	.LBE369:
 107:../src/tensorflow_lite/src/tensorflow/lite/micro/kernels/concatenation.cpp ****   // Collect the shapes and data pointer of input tensors
 675              		.loc 1 107 0
 676 0008 048B2DED 		vpush.64	{d8, d9}
 677              		.vsave {d8, d9}
 678              		.cfi_def_cfa_offset 52
 679              		.cfi_offset 80, -52
 680              		.cfi_offset 81, -48
 681              		.cfi_offset 82, -44
 682              		.cfi_offset 83, -40
 683              	.LBB437:
 684              	.LBB438:
 685              	.LBB439:
 686              		.file 3 "C:/Renesas/e2studio_2021_01_workspace_RZA2M_ANPR/ANPR_RZA2M_GR_MANGO/src/tensorflow_lite/
   1:C:/Renesas/e2studio_2021_01_workspace_RZA2M_ANPR/ANPR_RZA2M_GR_MANGO/src/tensorflow_lite/src/tensorflow/lite/kernels/internal\types.h **** /* Copyright 2018 The TensorFlow Authors. All Rights Reserved.
   2:C:/Renesas/e2studio_2021_01_workspace_RZA2M_ANPR/ANPR_RZA2M_GR_MANGO/src/tensorflow_lite/src/tensorflow/lite/kernels/internal\types.h **** 
   3:C:/Renesas/e2studio_2021_01_workspace_RZA2M_ANPR/ANPR_RZA2M_GR_MANGO/src/tensorflow_lite/src/tensorflow/lite/kernels/internal\types.h **** Licensed under the Apache License, Version 2.0 (the "License");
   4:C:/Renesas/e2studio_2021_01_workspace_RZA2M_ANPR/ANPR_RZA2M_GR_MANGO/src/tensorflow_lite/src/tensorflow/lite/kernels/internal\types.h **** you may not use this file except in compliance with the License.
   5:C:/Renesas/e2studio_2021_01_workspace_RZA2M_ANPR/ANPR_RZA2M_GR_MANGO/src/tensorflow_lite/src/tensorflow/lite/kernels/internal\types.h **** You may obtain a copy of the License at
   6:C:/Renesas/e2studio_2021_01_workspace_RZA2M_ANPR/ANPR_RZA2M_GR_MANGO/src/tensorflow_lite/src/tensorflow/lite/kernels/internal\types.h **** 
   7:C:/Renesas/e2studio_2021_01_workspace_RZA2M_ANPR/ANPR_RZA2M_GR_MANGO/src/tensorflow_lite/src/tensorflow/lite/kernels/internal\types.h ****     http://www.apache.org/licenses/LICENSE-2.0
   8:C:/Renesas/e2studio_2021_01_workspace_RZA2M_ANPR/ANPR_RZA2M_GR_MANGO/src/tensorflow_lite/src/tensorflow/lite/kernels/internal\types.h **** 
   9:C:/Renesas/e2studio_2021_01_workspace_RZA2M_ANPR/ANPR_RZA2M_GR_MANGO/src/tensorflow_lite/src/tensorflow/lite/kernels/internal\types.h **** Unless required by applicable law or agreed to in writing, software
  10:C:/Renesas/e2studio_2021_01_workspace_RZA2M_ANPR/ANPR_RZA2M_GR_MANGO/src/tensorflow_lite/src/tensorflow/lite/kernels/internal\types.h **** distributed under the License is distributed on an "AS IS" BASIS,
  11:C:/Renesas/e2studio_2021_01_workspace_RZA2M_ANPR/ANPR_RZA2M_GR_MANGO/src/tensorflow_lite/src/tensorflow/lite/kernels/internal\types.h **** WITHOUT WARRANTIES OR CONDITIONS OF ANY KIND, either express or implied.
  12:C:/Renesas/e2studio_2021_01_workspace_RZA2M_ANPR/ANPR_RZA2M_GR_MANGO/src/tensorflow_lite/src/tensorflow/lite/kernels/internal\types.h **** See the License for the specific language governing permissions and
  13:C:/Renesas/e2studio_2021_01_workspace_RZA2M_ANPR/ANPR_RZA2M_GR_MANGO/src/tensorflow_lite/src/tensorflow/lite/kernels/internal\types.h **** limitations under the License.
  14:C:/Renesas/e2studio_2021_01_workspace_RZA2M_ANPR/ANPR_RZA2M_GR_MANGO/src/tensorflow_lite/src/tensorflow/lite/kernels/internal\types.h **** ==============================================================================*/
  15:C:/Renesas/e2studio_2021_01_workspace_RZA2M_ANPR/ANPR_RZA2M_GR_MANGO/src/tensorflow_lite/src/tensorflow/lite/kernels/internal\types.h **** #ifndef TENSORFLOW_LITE_KERNELS_INTERNAL_TYPES_H_
  16:C:/Renesas/e2studio_2021_01_workspace_RZA2M_ANPR/ANPR_RZA2M_GR_MANGO/src/tensorflow_lite/src/tensorflow/lite/kernels/internal\types.h **** #define TENSORFLOW_LITE_KERNELS_INTERNAL_TYPES_H_
  17:C:/Renesas/e2studio_2021_01_workspace_RZA2M_ANPR/ANPR_RZA2M_GR_MANGO/src/tensorflow_lite/src/tensorflow/lite/kernels/internal\types.h **** 
  18:C:/Renesas/e2studio_2021_01_workspace_RZA2M_ANPR/ANPR_RZA2M_GR_MANGO/src/tensorflow_lite/src/tensorflow/lite/kernels/internal\types.h **** #include <algorithm>
  19:C:/Renesas/e2studio_2021_01_workspace_RZA2M_ANPR/ANPR_RZA2M_GR_MANGO/src/tensorflow_lite/src/tensorflow/lite/kernels/internal\types.h **** #include <cstdint>
  20:C:/Renesas/e2studio_2021_01_workspace_RZA2M_ANPR/ANPR_RZA2M_GR_MANGO/src/tensorflow_lite/src/tensorflow/lite/kernels/internal\types.h **** #include <cstring>
  21:C:/Renesas/e2studio_2021_01_workspace_RZA2M_ANPR/ANPR_RZA2M_GR_MANGO/src/tensorflow_lite/src/tensorflow/lite/kernels/internal\types.h **** #include <initializer_list>
  22:C:/Renesas/e2studio_2021_01_workspace_RZA2M_ANPR/ANPR_RZA2M_GR_MANGO/src/tensorflow_lite/src/tensorflow/lite/kernels/internal\types.h **** 
  23:C:/Renesas/e2studio_2021_01_workspace_RZA2M_ANPR/ANPR_RZA2M_GR_MANGO/src/tensorflow_lite/src/tensorflow/lite/kernels/internal\types.h **** #include "tensorflow/lite/kernels/internal/compatibility.h"
  24:C:/Renesas/e2studio_2021_01_workspace_RZA2M_ANPR/ANPR_RZA2M_GR_MANGO/src/tensorflow_lite/src/tensorflow/lite/kernels/internal\types.h **** 
  25:C:/Renesas/e2studio_2021_01_workspace_RZA2M_ANPR/ANPR_RZA2M_GR_MANGO/src/tensorflow_lite/src/tensorflow/lite/kernels/internal\types.h **** namespace tflite {
  26:C:/Renesas/e2studio_2021_01_workspace_RZA2M_ANPR/ANPR_RZA2M_GR_MANGO/src/tensorflow_lite/src/tensorflow/lite/kernels/internal\types.h **** 
  27:C:/Renesas/e2studio_2021_01_workspace_RZA2M_ANPR/ANPR_RZA2M_GR_MANGO/src/tensorflow_lite/src/tensorflow/lite/kernels/internal\types.h **** enum class FusedActivationFunctionType : uint8_t {
  28:C:/Renesas/e2studio_2021_01_workspace_RZA2M_ANPR/ANPR_RZA2M_GR_MANGO/src/tensorflow_lite/src/tensorflow/lite/kernels/internal\types.h ****   kNone,
  29:C:/Renesas/e2studio_2021_01_workspace_RZA2M_ANPR/ANPR_RZA2M_GR_MANGO/src/tensorflow_lite/src/tensorflow/lite/kernels/internal\types.h ****   kRelu6,
  30:C:/Renesas/e2studio_2021_01_workspace_RZA2M_ANPR/ANPR_RZA2M_GR_MANGO/src/tensorflow_lite/src/tensorflow/lite/kernels/internal\types.h ****   kRelu1,
  31:C:/Renesas/e2studio_2021_01_workspace_RZA2M_ANPR/ANPR_RZA2M_GR_MANGO/src/tensorflow_lite/src/tensorflow/lite/kernels/internal\types.h ****   kRelu
  32:C:/Renesas/e2studio_2021_01_workspace_RZA2M_ANPR/ANPR_RZA2M_GR_MANGO/src/tensorflow_lite/src/tensorflow/lite/kernels/internal\types.h **** };
  33:C:/Renesas/e2studio_2021_01_workspace_RZA2M_ANPR/ANPR_RZA2M_GR_MANGO/src/tensorflow_lite/src/tensorflow/lite/kernels/internal\types.h **** enum class PaddingType : uint8_t { kNone, kSame, kValid };
  34:C:/Renesas/e2studio_2021_01_workspace_RZA2M_ANPR/ANPR_RZA2M_GR_MANGO/src/tensorflow_lite/src/tensorflow/lite/kernels/internal\types.h **** 
  35:C:/Renesas/e2studio_2021_01_workspace_RZA2M_ANPR/ANPR_RZA2M_GR_MANGO/src/tensorflow_lite/src/tensorflow/lite/kernels/internal\types.h **** struct PaddingValues {
  36:C:/Renesas/e2studio_2021_01_workspace_RZA2M_ANPR/ANPR_RZA2M_GR_MANGO/src/tensorflow_lite/src/tensorflow/lite/kernels/internal\types.h ****   int16_t width;
  37:C:/Renesas/e2studio_2021_01_workspace_RZA2M_ANPR/ANPR_RZA2M_GR_MANGO/src/tensorflow_lite/src/tensorflow/lite/kernels/internal\types.h ****   int16_t height;
  38:C:/Renesas/e2studio_2021_01_workspace_RZA2M_ANPR/ANPR_RZA2M_GR_MANGO/src/tensorflow_lite/src/tensorflow/lite/kernels/internal\types.h ****   // offset is used for calculating "remaining" padding, for example, `width`
  39:C:/Renesas/e2studio_2021_01_workspace_RZA2M_ANPR/ANPR_RZA2M_GR_MANGO/src/tensorflow_lite/src/tensorflow/lite/kernels/internal\types.h ****   // is 1 and `width_offset` is 1, so padding_left is 1 while padding_right is
  40:C:/Renesas/e2studio_2021_01_workspace_RZA2M_ANPR/ANPR_RZA2M_GR_MANGO/src/tensorflow_lite/src/tensorflow/lite/kernels/internal\types.h ****   // 1 + 1 = 2.
  41:C:/Renesas/e2studio_2021_01_workspace_RZA2M_ANPR/ANPR_RZA2M_GR_MANGO/src/tensorflow_lite/src/tensorflow/lite/kernels/internal\types.h ****   int16_t width_offset;
  42:C:/Renesas/e2studio_2021_01_workspace_RZA2M_ANPR/ANPR_RZA2M_GR_MANGO/src/tensorflow_lite/src/tensorflow/lite/kernels/internal\types.h ****   // Same as width_offset except it's over the height dimension.
  43:C:/Renesas/e2studio_2021_01_workspace_RZA2M_ANPR/ANPR_RZA2M_GR_MANGO/src/tensorflow_lite/src/tensorflow/lite/kernels/internal\types.h ****   int16_t height_offset;
  44:C:/Renesas/e2studio_2021_01_workspace_RZA2M_ANPR/ANPR_RZA2M_GR_MANGO/src/tensorflow_lite/src/tensorflow/lite/kernels/internal\types.h **** };
  45:C:/Renesas/e2studio_2021_01_workspace_RZA2M_ANPR/ANPR_RZA2M_GR_MANGO/src/tensorflow_lite/src/tensorflow/lite/kernels/internal\types.h **** 
  46:C:/Renesas/e2studio_2021_01_workspace_RZA2M_ANPR/ANPR_RZA2M_GR_MANGO/src/tensorflow_lite/src/tensorflow/lite/kernels/internal\types.h **** struct Padding3DValues {
  47:C:/Renesas/e2studio_2021_01_workspace_RZA2M_ANPR/ANPR_RZA2M_GR_MANGO/src/tensorflow_lite/src/tensorflow/lite/kernels/internal\types.h ****   int16_t width;
  48:C:/Renesas/e2studio_2021_01_workspace_RZA2M_ANPR/ANPR_RZA2M_GR_MANGO/src/tensorflow_lite/src/tensorflow/lite/kernels/internal\types.h ****   int16_t height;
  49:C:/Renesas/e2studio_2021_01_workspace_RZA2M_ANPR/ANPR_RZA2M_GR_MANGO/src/tensorflow_lite/src/tensorflow/lite/kernels/internal\types.h ****   int16_t depth;
  50:C:/Renesas/e2studio_2021_01_workspace_RZA2M_ANPR/ANPR_RZA2M_GR_MANGO/src/tensorflow_lite/src/tensorflow/lite/kernels/internal\types.h ****   // offset is used for calculating "remaining" padding, for example, `width`
  51:C:/Renesas/e2studio_2021_01_workspace_RZA2M_ANPR/ANPR_RZA2M_GR_MANGO/src/tensorflow_lite/src/tensorflow/lite/kernels/internal\types.h ****   // is 1 and `width_offset` is 1, so padding_left is 1 while padding_right is
  52:C:/Renesas/e2studio_2021_01_workspace_RZA2M_ANPR/ANPR_RZA2M_GR_MANGO/src/tensorflow_lite/src/tensorflow/lite/kernels/internal\types.h ****   // 1 + 1 = 2.
  53:C:/Renesas/e2studio_2021_01_workspace_RZA2M_ANPR/ANPR_RZA2M_GR_MANGO/src/tensorflow_lite/src/tensorflow/lite/kernels/internal\types.h ****   int16_t width_offset;
  54:C:/Renesas/e2studio_2021_01_workspace_RZA2M_ANPR/ANPR_RZA2M_GR_MANGO/src/tensorflow_lite/src/tensorflow/lite/kernels/internal\types.h ****   // Same as width_offset except it's over the height dimension.
  55:C:/Renesas/e2studio_2021_01_workspace_RZA2M_ANPR/ANPR_RZA2M_GR_MANGO/src/tensorflow_lite/src/tensorflow/lite/kernels/internal\types.h ****   int16_t height_offset;
  56:C:/Renesas/e2studio_2021_01_workspace_RZA2M_ANPR/ANPR_RZA2M_GR_MANGO/src/tensorflow_lite/src/tensorflow/lite/kernels/internal\types.h ****   // Same as width_offset except it's over the depth dimension.
  57:C:/Renesas/e2studio_2021_01_workspace_RZA2M_ANPR/ANPR_RZA2M_GR_MANGO/src/tensorflow_lite/src/tensorflow/lite/kernels/internal\types.h ****   int16_t depth_offset;
  58:C:/Renesas/e2studio_2021_01_workspace_RZA2M_ANPR/ANPR_RZA2M_GR_MANGO/src/tensorflow_lite/src/tensorflow/lite/kernels/internal\types.h **** };
  59:C:/Renesas/e2studio_2021_01_workspace_RZA2M_ANPR/ANPR_RZA2M_GR_MANGO/src/tensorflow_lite/src/tensorflow/lite/kernels/internal\types.h **** 
  60:C:/Renesas/e2studio_2021_01_workspace_RZA2M_ANPR/ANPR_RZA2M_GR_MANGO/src/tensorflow_lite/src/tensorflow/lite/kernels/internal\types.h **** // This enumeration allows for non-default formats for the weights array
  61:C:/Renesas/e2studio_2021_01_workspace_RZA2M_ANPR/ANPR_RZA2M_GR_MANGO/src/tensorflow_lite/src/tensorflow/lite/kernels/internal\types.h **** // of a fully-connected operator, allowing the use of special optimized
  62:C:/Renesas/e2studio_2021_01_workspace_RZA2M_ANPR/ANPR_RZA2M_GR_MANGO/src/tensorflow_lite/src/tensorflow/lite/kernels/internal\types.h **** // runtime paths.
  63:C:/Renesas/e2studio_2021_01_workspace_RZA2M_ANPR/ANPR_RZA2M_GR_MANGO/src/tensorflow_lite/src/tensorflow/lite/kernels/internal\types.h **** enum class FullyConnectedWeightsFormat : uint8_t {
  64:C:/Renesas/e2studio_2021_01_workspace_RZA2M_ANPR/ANPR_RZA2M_GR_MANGO/src/tensorflow_lite/src/tensorflow/lite/kernels/internal\types.h ****   // Default format (flat 2D layout, the inner contiguous dimension
  65:C:/Renesas/e2studio_2021_01_workspace_RZA2M_ANPR/ANPR_RZA2M_GR_MANGO/src/tensorflow_lite/src/tensorflow/lite/kernels/internal\types.h ****   // is input_depth, the outer non-contiguous dimension is output_depth)
  66:C:/Renesas/e2studio_2021_01_workspace_RZA2M_ANPR/ANPR_RZA2M_GR_MANGO/src/tensorflow_lite/src/tensorflow/lite/kernels/internal\types.h ****   kDefault,
  67:C:/Renesas/e2studio_2021_01_workspace_RZA2M_ANPR/ANPR_RZA2M_GR_MANGO/src/tensorflow_lite/src/tensorflow/lite/kernels/internal\types.h ****   // Summary: optimized layout for fast CPU runtime implementation,
  68:C:/Renesas/e2studio_2021_01_workspace_RZA2M_ANPR/ANPR_RZA2M_GR_MANGO/src/tensorflow_lite/src/tensorflow/lite/kernels/internal\types.h ****   // aimed specifically at ARM CPUs at the moment, and specialized for
  69:C:/Renesas/e2studio_2021_01_workspace_RZA2M_ANPR/ANPR_RZA2M_GR_MANGO/src/tensorflow_lite/src/tensorflow/lite/kernels/internal\types.h ****   // 8-bit quantized layers.
  70:C:/Renesas/e2studio_2021_01_workspace_RZA2M_ANPR/ANPR_RZA2M_GR_MANGO/src/tensorflow_lite/src/tensorflow/lite/kernels/internal\types.h ****   //
  71:C:/Renesas/e2studio_2021_01_workspace_RZA2M_ANPR/ANPR_RZA2M_GR_MANGO/src/tensorflow_lite/src/tensorflow/lite/kernels/internal\types.h ****   // The use case we're concerned with here is: 8-bit quantization,
  72:C:/Renesas/e2studio_2021_01_workspace_RZA2M_ANPR/ANPR_RZA2M_GR_MANGO/src/tensorflow_lite/src/tensorflow/lite/kernels/internal\types.h ****   // large weights matrix that doesn't fit in cache (e.g. 4096x2048 in
  73:C:/Renesas/e2studio_2021_01_workspace_RZA2M_ANPR/ANPR_RZA2M_GR_MANGO/src/tensorflow_lite/src/tensorflow/lite/kernels/internal\types.h ****   // a key application that drove this), very small batch size (e.g. 1 -- 4).
  74:C:/Renesas/e2studio_2021_01_workspace_RZA2M_ANPR/ANPR_RZA2M_GR_MANGO/src/tensorflow_lite/src/tensorflow/lite/kernels/internal\types.h ****   //
  75:C:/Renesas/e2studio_2021_01_workspace_RZA2M_ANPR/ANPR_RZA2M_GR_MANGO/src/tensorflow_lite/src/tensorflow/lite/kernels/internal\types.h ****   // Even with 8-bit quantization of weights, the performance of memory
  76:C:/Renesas/e2studio_2021_01_workspace_RZA2M_ANPR/ANPR_RZA2M_GR_MANGO/src/tensorflow_lite/src/tensorflow/lite/kernels/internal\types.h ****   // accesses to the weights can become the dominant issue when
  77:C:/Renesas/e2studio_2021_01_workspace_RZA2M_ANPR/ANPR_RZA2M_GR_MANGO/src/tensorflow_lite/src/tensorflow/lite/kernels/internal\types.h ****   // the batch size is small, so each weight value is used in only a few
  78:C:/Renesas/e2studio_2021_01_workspace_RZA2M_ANPR/ANPR_RZA2M_GR_MANGO/src/tensorflow_lite/src/tensorflow/lite/kernels/internal\types.h ****   // arithmetic ops, i.e. the fully-connected node has a low arithmetic
  79:C:/Renesas/e2studio_2021_01_workspace_RZA2M_ANPR/ANPR_RZA2M_GR_MANGO/src/tensorflow_lite/src/tensorflow/lite/kernels/internal\types.h ****   // intensity. The specific issues that arise are of three kinds:
  80:C:/Renesas/e2studio_2021_01_workspace_RZA2M_ANPR/ANPR_RZA2M_GR_MANGO/src/tensorflow_lite/src/tensorflow/lite/kernels/internal\types.h ****   // (1) One may, ideally, max out DRAM bandwidth, i.e. be truly memory
  81:C:/Renesas/e2studio_2021_01_workspace_RZA2M_ANPR/ANPR_RZA2M_GR_MANGO/src/tensorflow_lite/src/tensorflow/lite/kernels/internal\types.h ****   //     bound. That's the "good" issue to run into.
  82:C:/Renesas/e2studio_2021_01_workspace_RZA2M_ANPR/ANPR_RZA2M_GR_MANGO/src/tensorflow_lite/src/tensorflow/lite/kernels/internal\types.h ****   // (2) One may run into sub-optimal pre-fetching: the data hasn't been
  83:C:/Renesas/e2studio_2021_01_workspace_RZA2M_ANPR/ANPR_RZA2M_GR_MANGO/src/tensorflow_lite/src/tensorflow/lite/kernels/internal\types.h ****   //     prefetched into the cache by the time we need it.
  84:C:/Renesas/e2studio_2021_01_workspace_RZA2M_ANPR/ANPR_RZA2M_GR_MANGO/src/tensorflow_lite/src/tensorflow/lite/kernels/internal\types.h ****   // (3) One may run into cache aliasing: multiple values that are
  85:C:/Renesas/e2studio_2021_01_workspace_RZA2M_ANPR/ANPR_RZA2M_GR_MANGO/src/tensorflow_lite/src/tensorflow/lite/kernels/internal\types.h ****   //     pre-fetched, alias each other in the L1 cache (which typically
  86:C:/Renesas/e2studio_2021_01_workspace_RZA2M_ANPR/ANPR_RZA2M_GR_MANGO/src/tensorflow_lite/src/tensorflow/lite/kernels/internal\types.h ****   //     has only 4-way set associativity in ARM CPUs) and thus evict
  87:C:/Renesas/e2studio_2021_01_workspace_RZA2M_ANPR/ANPR_RZA2M_GR_MANGO/src/tensorflow_lite/src/tensorflow/lite/kernels/internal\types.h ****   //     each other before we get to using them.
  88:C:/Renesas/e2studio_2021_01_workspace_RZA2M_ANPR/ANPR_RZA2M_GR_MANGO/src/tensorflow_lite/src/tensorflow/lite/kernels/internal\types.h ****   //
  89:C:/Renesas/e2studio_2021_01_workspace_RZA2M_ANPR/ANPR_RZA2M_GR_MANGO/src/tensorflow_lite/src/tensorflow/lite/kernels/internal\types.h ****   // The point of this shuffling is to avoid issues (2) and (3) so that
  90:C:/Renesas/e2studio_2021_01_workspace_RZA2M_ANPR/ANPR_RZA2M_GR_MANGO/src/tensorflow_lite/src/tensorflow/lite/kernels/internal\types.h ****   // we get as fast as possible given only the hard constraint (1).
  91:C:/Renesas/e2studio_2021_01_workspace_RZA2M_ANPR/ANPR_RZA2M_GR_MANGO/src/tensorflow_lite/src/tensorflow/lite/kernels/internal\types.h ****   // This is achieved by turning the difficulty into a solution: the
  92:C:/Renesas/e2studio_2021_01_workspace_RZA2M_ANPR/ANPR_RZA2M_GR_MANGO/src/tensorflow_lite/src/tensorflow/lite/kernels/internal\types.h ****   // difficulty, that each value loaded from memory is used only in
  93:C:/Renesas/e2studio_2021_01_workspace_RZA2M_ANPR/ANPR_RZA2M_GR_MANGO/src/tensorflow_lite/src/tensorflow/lite/kernels/internal\types.h ****   // one kernel iteration, making this operation memory-intensive, hints at
  94:C:/Renesas/e2studio_2021_01_workspace_RZA2M_ANPR/ANPR_RZA2M_GR_MANGO/src/tensorflow_lite/src/tensorflow/lite/kernels/internal\types.h ****   // the solution, of shuffling the weights so that they are stored in the
  95:C:/Renesas/e2studio_2021_01_workspace_RZA2M_ANPR/ANPR_RZA2M_GR_MANGO/src/tensorflow_lite/src/tensorflow/lite/kernels/internal\types.h ****   // exact order as the kernel needs to load them, so that the memory
  96:C:/Renesas/e2studio_2021_01_workspace_RZA2M_ANPR/ANPR_RZA2M_GR_MANGO/src/tensorflow_lite/src/tensorflow/lite/kernels/internal\types.h ****   // accesses made by the kernel are trivial. This solves (2) because the
  97:C:/Renesas/e2studio_2021_01_workspace_RZA2M_ANPR/ANPR_RZA2M_GR_MANGO/src/tensorflow_lite/src/tensorflow/lite/kernels/internal\types.h ****   // trivial memory access pattern allows the CPU's automatic prefetching
  98:C:/Renesas/e2studio_2021_01_workspace_RZA2M_ANPR/ANPR_RZA2M_GR_MANGO/src/tensorflow_lite/src/tensorflow/lite/kernels/internal\types.h ****   // to perform very well (no need even for preload instructions), and this
  99:C:/Renesas/e2studio_2021_01_workspace_RZA2M_ANPR/ANPR_RZA2M_GR_MANGO/src/tensorflow_lite/src/tensorflow/lite/kernels/internal\types.h ****   // solves (3) because the values being loaded concurrently are now
 100:C:/Renesas/e2studio_2021_01_workspace_RZA2M_ANPR/ANPR_RZA2M_GR_MANGO/src/tensorflow_lite/src/tensorflow/lite/kernels/internal\types.h ****   // contiguous in the address space, thus don't alias each other in the cache.
 101:C:/Renesas/e2studio_2021_01_workspace_RZA2M_ANPR/ANPR_RZA2M_GR_MANGO/src/tensorflow_lite/src/tensorflow/lite/kernels/internal\types.h ****   //
 102:C:/Renesas/e2studio_2021_01_workspace_RZA2M_ANPR/ANPR_RZA2M_GR_MANGO/src/tensorflow_lite/src/tensorflow/lite/kernels/internal\types.h ****   // On ARM, we typically want our kernel to process a 4x16 block of weights
 103:C:/Renesas/e2studio_2021_01_workspace_RZA2M_ANPR/ANPR_RZA2M_GR_MANGO/src/tensorflow_lite/src/tensorflow/lite/kernels/internal\types.h ****   // at a time, because:
 104:C:/Renesas/e2studio_2021_01_workspace_RZA2M_ANPR/ANPR_RZA2M_GR_MANGO/src/tensorflow_lite/src/tensorflow/lite/kernels/internal\types.h ****   //   - 16 is the number of bytes in a NEON register.
 105:C:/Renesas/e2studio_2021_01_workspace_RZA2M_ANPR/ANPR_RZA2M_GR_MANGO/src/tensorflow_lite/src/tensorflow/lite/kernels/internal\types.h ****   //   - 4 is how many rows we need to handle concurrently in the kernel in
 106:C:/Renesas/e2studio_2021_01_workspace_RZA2M_ANPR/ANPR_RZA2M_GR_MANGO/src/tensorflow_lite/src/tensorflow/lite/kernels/internal\types.h ****   //     order to have sufficient mutual independence of instructions to
 107:C:/Renesas/e2studio_2021_01_workspace_RZA2M_ANPR/ANPR_RZA2M_GR_MANGO/src/tensorflow_lite/src/tensorflow/lite/kernels/internal\types.h ****   //     maximize arithmetic throughput.
 108:C:/Renesas/e2studio_2021_01_workspace_RZA2M_ANPR/ANPR_RZA2M_GR_MANGO/src/tensorflow_lite/src/tensorflow/lite/kernels/internal\types.h ****   //
 109:C:/Renesas/e2studio_2021_01_workspace_RZA2M_ANPR/ANPR_RZA2M_GR_MANGO/src/tensorflow_lite/src/tensorflow/lite/kernels/internal\types.h ****   // Finally, the 'Int8' part in the name refers to the fact that this
 110:C:/Renesas/e2studio_2021_01_workspace_RZA2M_ANPR/ANPR_RZA2M_GR_MANGO/src/tensorflow_lite/src/tensorflow/lite/kernels/internal\types.h ****   // weights format has each weights value encoded as a signed int8_t value,
 111:C:/Renesas/e2studio_2021_01_workspace_RZA2M_ANPR/ANPR_RZA2M_GR_MANGO/src/tensorflow_lite/src/tensorflow/lite/kernels/internal\types.h ****   // even if the data type of the weights buffer is uint8_t.  This is intended
 112:C:/Renesas/e2studio_2021_01_workspace_RZA2M_ANPR/ANPR_RZA2M_GR_MANGO/src/tensorflow_lite/src/tensorflow/lite/kernels/internal\types.h ****   // to save runtime kernels the effort to have to XOR the top bit of these
 113:C:/Renesas/e2studio_2021_01_workspace_RZA2M_ANPR/ANPR_RZA2M_GR_MANGO/src/tensorflow_lite/src/tensorflow/lite/kernels/internal\types.h ****   // bytes before using them in signed arithmetic, see this file for more
 114:C:/Renesas/e2studio_2021_01_workspace_RZA2M_ANPR/ANPR_RZA2M_GR_MANGO/src/tensorflow_lite/src/tensorflow/lite/kernels/internal\types.h ****   // explanations on the 'signed int8_t trick' in matrix multiplication kernels:
 115:C:/Renesas/e2studio_2021_01_workspace_RZA2M_ANPR/ANPR_RZA2M_GR_MANGO/src/tensorflow_lite/src/tensorflow/lite/kernels/internal\types.h ****   //
 116:C:/Renesas/e2studio_2021_01_workspace_RZA2M_ANPR/ANPR_RZA2M_GR_MANGO/src/tensorflow_lite/src/tensorflow/lite/kernels/internal\types.h ****   //   tensorflow/lite/toco/graph_transformations/ensure_uint8_weights_safe_for_fast_int8_kernels.c
 117:C:/Renesas/e2studio_2021_01_workspace_RZA2M_ANPR/ANPR_RZA2M_GR_MANGO/src/tensorflow_lite/src/tensorflow/lite/kernels/internal\types.h ****   //
 118:C:/Renesas/e2studio_2021_01_workspace_RZA2M_ANPR/ANPR_RZA2M_GR_MANGO/src/tensorflow_lite/src/tensorflow/lite/kernels/internal\types.h ****   kShuffled4x16Int8,
 119:C:/Renesas/e2studio_2021_01_workspace_RZA2M_ANPR/ANPR_RZA2M_GR_MANGO/src/tensorflow_lite/src/tensorflow/lite/kernels/internal\types.h **** };
 120:C:/Renesas/e2studio_2021_01_workspace_RZA2M_ANPR/ANPR_RZA2M_GR_MANGO/src/tensorflow_lite/src/tensorflow/lite/kernels/internal\types.h **** 
 121:C:/Renesas/e2studio_2021_01_workspace_RZA2M_ANPR/ANPR_RZA2M_GR_MANGO/src/tensorflow_lite/src/tensorflow/lite/kernels/internal\types.h **** // Quantization parameters, determining the mapping of quantized values
 122:C:/Renesas/e2studio_2021_01_workspace_RZA2M_ANPR/ANPR_RZA2M_GR_MANGO/src/tensorflow_lite/src/tensorflow/lite/kernels/internal\types.h **** // to real values (i.e. determining how quantized values are mathematically
 123:C:/Renesas/e2studio_2021_01_workspace_RZA2M_ANPR/ANPR_RZA2M_GR_MANGO/src/tensorflow_lite/src/tensorflow/lite/kernels/internal\types.h **** // interpreted).
 124:C:/Renesas/e2studio_2021_01_workspace_RZA2M_ANPR/ANPR_RZA2M_GR_MANGO/src/tensorflow_lite/src/tensorflow/lite/kernels/internal\types.h **** //
 125:C:/Renesas/e2studio_2021_01_workspace_RZA2M_ANPR/ANPR_RZA2M_GR_MANGO/src/tensorflow_lite/src/tensorflow/lite/kernels/internal\types.h **** // The correspondence is as follows:
 126:C:/Renesas/e2studio_2021_01_workspace_RZA2M_ANPR/ANPR_RZA2M_GR_MANGO/src/tensorflow_lite/src/tensorflow/lite/kernels/internal\types.h **** //
 127:C:/Renesas/e2studio_2021_01_workspace_RZA2M_ANPR/ANPR_RZA2M_GR_MANGO/src/tensorflow_lite/src/tensorflow/lite/kernels/internal\types.h **** //   real_value = scale * (quantized_value - zero_point);
 128:C:/Renesas/e2studio_2021_01_workspace_RZA2M_ANPR/ANPR_RZA2M_GR_MANGO/src/tensorflow_lite/src/tensorflow/lite/kernels/internal\types.h **** //
 129:C:/Renesas/e2studio_2021_01_workspace_RZA2M_ANPR/ANPR_RZA2M_GR_MANGO/src/tensorflow_lite/src/tensorflow/lite/kernels/internal\types.h **** // In other words, zero_point designates which quantized value corresponds to
 130:C:/Renesas/e2studio_2021_01_workspace_RZA2M_ANPR/ANPR_RZA2M_GR_MANGO/src/tensorflow_lite/src/tensorflow/lite/kernels/internal\types.h **** // the real 0 value, and scale designates the difference between the real values
 131:C:/Renesas/e2studio_2021_01_workspace_RZA2M_ANPR/ANPR_RZA2M_GR_MANGO/src/tensorflow_lite/src/tensorflow/lite/kernels/internal\types.h **** // corresponding to consecutive quantized values differing by 1.
 132:C:/Renesas/e2studio_2021_01_workspace_RZA2M_ANPR/ANPR_RZA2M_GR_MANGO/src/tensorflow_lite/src/tensorflow/lite/kernels/internal\types.h **** struct QuantizationParams {
 133:C:/Renesas/e2studio_2021_01_workspace_RZA2M_ANPR/ANPR_RZA2M_GR_MANGO/src/tensorflow_lite/src/tensorflow/lite/kernels/internal\types.h ****   int32_t zero_point = 0;
 134:C:/Renesas/e2studio_2021_01_workspace_RZA2M_ANPR/ANPR_RZA2M_GR_MANGO/src/tensorflow_lite/src/tensorflow/lite/kernels/internal\types.h ****   double scale = 0.0;
 135:C:/Renesas/e2studio_2021_01_workspace_RZA2M_ANPR/ANPR_RZA2M_GR_MANGO/src/tensorflow_lite/src/tensorflow/lite/kernels/internal\types.h **** };
 136:C:/Renesas/e2studio_2021_01_workspace_RZA2M_ANPR/ANPR_RZA2M_GR_MANGO/src/tensorflow_lite/src/tensorflow/lite/kernels/internal\types.h **** 
 137:C:/Renesas/e2studio_2021_01_workspace_RZA2M_ANPR/ANPR_RZA2M_GR_MANGO/src/tensorflow_lite/src/tensorflow/lite/kernels/internal\types.h **** inline bool operator==(const QuantizationParams& qp1,
 138:C:/Renesas/e2studio_2021_01_workspace_RZA2M_ANPR/ANPR_RZA2M_GR_MANGO/src/tensorflow_lite/src/tensorflow/lite/kernels/internal\types.h ****                        const QuantizationParams& qp2) {
 139:C:/Renesas/e2studio_2021_01_workspace_RZA2M_ANPR/ANPR_RZA2M_GR_MANGO/src/tensorflow_lite/src/tensorflow/lite/kernels/internal\types.h ****   return qp1.zero_point == qp2.zero_point && qp1.scale == qp2.scale;
 140:C:/Renesas/e2studio_2021_01_workspace_RZA2M_ANPR/ANPR_RZA2M_GR_MANGO/src/tensorflow_lite/src/tensorflow/lite/kernels/internal\types.h **** }
 141:C:/Renesas/e2studio_2021_01_workspace_RZA2M_ANPR/ANPR_RZA2M_GR_MANGO/src/tensorflow_lite/src/tensorflow/lite/kernels/internal\types.h **** 
 142:C:/Renesas/e2studio_2021_01_workspace_RZA2M_ANPR/ANPR_RZA2M_GR_MANGO/src/tensorflow_lite/src/tensorflow/lite/kernels/internal\types.h **** template <int N>
 143:C:/Renesas/e2studio_2021_01_workspace_RZA2M_ANPR/ANPR_RZA2M_GR_MANGO/src/tensorflow_lite/src/tensorflow/lite/kernels/internal\types.h **** struct Dims {
 144:C:/Renesas/e2studio_2021_01_workspace_RZA2M_ANPR/ANPR_RZA2M_GR_MANGO/src/tensorflow_lite/src/tensorflow/lite/kernels/internal\types.h ****   int sizes[N];
 145:C:/Renesas/e2studio_2021_01_workspace_RZA2M_ANPR/ANPR_RZA2M_GR_MANGO/src/tensorflow_lite/src/tensorflow/lite/kernels/internal\types.h ****   int strides[N];
 146:C:/Renesas/e2studio_2021_01_workspace_RZA2M_ANPR/ANPR_RZA2M_GR_MANGO/src/tensorflow_lite/src/tensorflow/lite/kernels/internal\types.h **** };
 147:C:/Renesas/e2studio_2021_01_workspace_RZA2M_ANPR/ANPR_RZA2M_GR_MANGO/src/tensorflow_lite/src/tensorflow/lite/kernels/internal\types.h **** 
 148:C:/Renesas/e2studio_2021_01_workspace_RZA2M_ANPR/ANPR_RZA2M_GR_MANGO/src/tensorflow_lite/src/tensorflow/lite/kernels/internal\types.h **** class RuntimeShape {
 149:C:/Renesas/e2studio_2021_01_workspace_RZA2M_ANPR/ANPR_RZA2M_GR_MANGO/src/tensorflow_lite/src/tensorflow/lite/kernels/internal\types.h ****  public:
 150:C:/Renesas/e2studio_2021_01_workspace_RZA2M_ANPR/ANPR_RZA2M_GR_MANGO/src/tensorflow_lite/src/tensorflow/lite/kernels/internal\types.h ****   // Shapes with dimensions up to 5 are stored directly in the structure, while
 151:C:/Renesas/e2studio_2021_01_workspace_RZA2M_ANPR/ANPR_RZA2M_GR_MANGO/src/tensorflow_lite/src/tensorflow/lite/kernels/internal\types.h ****   // larger shapes are separately allocated.
 152:C:/Renesas/e2studio_2021_01_workspace_RZA2M_ANPR/ANPR_RZA2M_GR_MANGO/src/tensorflow_lite/src/tensorflow/lite/kernels/internal\types.h ****   static constexpr int kMaxSmallSize = 5;
 153:C:/Renesas/e2studio_2021_01_workspace_RZA2M_ANPR/ANPR_RZA2M_GR_MANGO/src/tensorflow_lite/src/tensorflow/lite/kernels/internal\types.h **** 
 154:C:/Renesas/e2studio_2021_01_workspace_RZA2M_ANPR/ANPR_RZA2M_GR_MANGO/src/tensorflow_lite/src/tensorflow/lite/kernels/internal\types.h ****   RuntimeShape& operator=(RuntimeShape const&) = delete;
 155:C:/Renesas/e2studio_2021_01_workspace_RZA2M_ANPR/ANPR_RZA2M_GR_MANGO/src/tensorflow_lite/src/tensorflow/lite/kernels/internal\types.h **** 
 156:C:/Renesas/e2studio_2021_01_workspace_RZA2M_ANPR/ANPR_RZA2M_GR_MANGO/src/tensorflow_lite/src/tensorflow/lite/kernels/internal\types.h ****   RuntimeShape() : size_(0) {}
 687              		.loc 3 156 0
 688 000c 0080A0E3 		mov	r8, #0
 689              	.LBE439:
 690              	.LBE438:
 691              	.LBE437:
 107:../src/tensorflow_lite/src/tensorflow/lite/micro/kernels/concatenation.cpp ****   // Collect the shapes and data pointer of input tensors
 692              		.loc 1 107 0
 693              		.pad #452
 694 0010 71DF4DE2 		sub	sp, sp, #452
 695              		.cfi_def_cfa_offset 504
 696              	.LVL86:
 697              	.LBB442:
 698              	.LBB441:
 699              	.LBB440:
 700              		.loc 3 156 0
 701 0014 D0808DE5 		str	r8, [sp, #208]
 702              	.LVL87:
 703 0018 E8808DE5 		str	r8, [sp, #232]
 704              	.LVL88:
 705 001c 00818DE5 		str	r8, [sp, #256]
 706              	.LVL89:
 707 0020 18818DE5 		str	r8, [sp, #280]
 708              	.LVL90:
 709 0024 30818DE5 		str	r8, [sp, #304]
 710              	.LVL91:
 711 0028 48818DE5 		str	r8, [sp, #328]
 712              	.LVL92:
 713 002c 60818DE5 		str	r8, [sp, #352]
 714              	.LVL93:
 715 0030 78818DE5 		str	r8, [sp, #376]
 716              	.LVL94:
 717 0034 90818DE5 		str	r8, [sp, #400]
 718              	.LVL95:
 719 0038 A8818DE5 		str	r8, [sp, #424]
 720              	.LVL96:
 721              	.LBE440:
 722              	.LBE441:
 723              	.LBE442:
 724              	.LBB443:
 725              	.LBB431:
  56:../src/tensorflow_lite/src/tensorflow/lite/micro/kernels/concatenation.cpp ****   TFLITE_DCHECK(node != nullptr);
 726              		.loc 1 56 0
 727 003c 1503000A 		beq	.L327
  57:../src/tensorflow_lite/src/tensorflow/lite/micro/kernels/concatenation.cpp ****   for (int i = 0; i < node->inputs->size; ++i) {
 728              		.loc 1 57 0
 729 0040 000051E3 		cmp	r1, #0
 730 0044 0170A0E1 		mov	r7, r1
 731 0048 3903000A 		beq	.L52
 732              	.LVL97:
 733              	.LBB371:
  58:../src/tensorflow_lite/src/tensorflow/lite/micro/kernels/concatenation.cpp ****     const TfLiteEvalTensor* t = tflite::micro::GetEvalInput(context, node, i);
 734              		.loc 1 58 0
 735 004c 003091E5 		ldr	r3, [r1]
 736 0050 002093E5 		ldr	r2, [r3]
 737 0054 000052E3 		cmp	r2, #0
 738 0058 415F8DC2 		addgt	r5, sp, #260
 739 005c 1B0000CA 		bgt	.L68
 740 0060 DF0200EA 		b	.L328
 741              	.LVL98:
 742              	.L331:
 743              	.LBB372:
 744              	.LBB373:
 745              	.LBB374:
 746              	.LBB375:
 747              	.LBB376:
 157:C:/Renesas/e2studio_2021_01_workspace_RZA2M_ANPR/ANPR_RZA2M_GR_MANGO/src/tensorflow_lite/src/tensorflow/lite/kernels/internal\types.h **** 
 158:C:/Renesas/e2studio_2021_01_workspace_RZA2M_ANPR/ANPR_RZA2M_GR_MANGO/src/tensorflow_lite/src/tensorflow/lite/kernels/internal\types.h ****   explicit RuntimeShape(int dimensions_count) : size_(dimensions_count) {
 159:C:/Renesas/e2studio_2021_01_workspace_RZA2M_ANPR/ANPR_RZA2M_GR_MANGO/src/tensorflow_lite/src/tensorflow/lite/kernels/internal\types.h ****     if (dimensions_count > kMaxSmallSize) {
 160:C:/Renesas/e2studio_2021_01_workspace_RZA2M_ANPR/ANPR_RZA2M_GR_MANGO/src/tensorflow_lite/src/tensorflow/lite/kernels/internal\types.h **** #ifdef TF_LITE_STATIC_MEMORY
 161:C:/Renesas/e2studio_2021_01_workspace_RZA2M_ANPR/ANPR_RZA2M_GR_MANGO/src/tensorflow_lite/src/tensorflow/lite/kernels/internal\types.h ****       TFLITE_CHECK(false && "No shape resizing supported on this platform");
 162:C:/Renesas/e2studio_2021_01_workspace_RZA2M_ANPR/ANPR_RZA2M_GR_MANGO/src/tensorflow_lite/src/tensorflow/lite/kernels/internal\types.h **** #else  // TF_LITE_STATIC_MEMORY
 163:C:/Renesas/e2studio_2021_01_workspace_RZA2M_ANPR/ANPR_RZA2M_GR_MANGO/src/tensorflow_lite/src/tensorflow/lite/kernels/internal\types.h ****       dims_pointer_ = new int32_t[dimensions_count];
 164:C:/Renesas/e2studio_2021_01_workspace_RZA2M_ANPR/ANPR_RZA2M_GR_MANGO/src/tensorflow_lite/src/tensorflow/lite/kernels/internal\types.h **** #endif  // TF_LITE_STATIC_MEMORY
 165:C:/Renesas/e2studio_2021_01_workspace_RZA2M_ANPR/ANPR_RZA2M_GR_MANGO/src/tensorflow_lite/src/tensorflow/lite/kernels/internal\types.h ****     }
 166:C:/Renesas/e2studio_2021_01_workspace_RZA2M_ANPR/ANPR_RZA2M_GR_MANGO/src/tensorflow_lite/src/tensorflow/lite/kernels/internal\types.h ****   }
 167:C:/Renesas/e2studio_2021_01_workspace_RZA2M_ANPR/ANPR_RZA2M_GR_MANGO/src/tensorflow_lite/src/tensorflow/lite/kernels/internal\types.h **** 
 168:C:/Renesas/e2studio_2021_01_workspace_RZA2M_ANPR/ANPR_RZA2M_GR_MANGO/src/tensorflow_lite/src/tensorflow/lite/kernels/internal\types.h ****   RuntimeShape(int shape_size, int32_t value) : size_(0) {
 169:C:/Renesas/e2studio_2021_01_workspace_RZA2M_ANPR/ANPR_RZA2M_GR_MANGO/src/tensorflow_lite/src/tensorflow/lite/kernels/internal\types.h ****     Resize(shape_size);
 170:C:/Renesas/e2studio_2021_01_workspace_RZA2M_ANPR/ANPR_RZA2M_GR_MANGO/src/tensorflow_lite/src/tensorflow/lite/kernels/internal\types.h ****     for (int i = 0; i < shape_size; ++i) {
 171:C:/Renesas/e2studio_2021_01_workspace_RZA2M_ANPR/ANPR_RZA2M_GR_MANGO/src/tensorflow_lite/src/tensorflow/lite/kernels/internal\types.h ****       SetDim(i, value);
 172:C:/Renesas/e2studio_2021_01_workspace_RZA2M_ANPR/ANPR_RZA2M_GR_MANGO/src/tensorflow_lite/src/tensorflow/lite/kernels/internal\types.h ****     }
 173:C:/Renesas/e2studio_2021_01_workspace_RZA2M_ANPR/ANPR_RZA2M_GR_MANGO/src/tensorflow_lite/src/tensorflow/lite/kernels/internal\types.h ****   }
 174:C:/Renesas/e2studio_2021_01_workspace_RZA2M_ANPR/ANPR_RZA2M_GR_MANGO/src/tensorflow_lite/src/tensorflow/lite/kernels/internal\types.h **** 
 175:C:/Renesas/e2studio_2021_01_workspace_RZA2M_ANPR/ANPR_RZA2M_GR_MANGO/src/tensorflow_lite/src/tensorflow/lite/kernels/internal\types.h ****   RuntimeShape(int dimensions_count, const int32_t* dims_data) : size_(0) {
 176:C:/Renesas/e2studio_2021_01_workspace_RZA2M_ANPR/ANPR_RZA2M_GR_MANGO/src/tensorflow_lite/src/tensorflow/lite/kernels/internal\types.h ****     ReplaceWith(dimensions_count, dims_data);
 177:C:/Renesas/e2studio_2021_01_workspace_RZA2M_ANPR/ANPR_RZA2M_GR_MANGO/src/tensorflow_lite/src/tensorflow/lite/kernels/internal\types.h ****   }
 178:C:/Renesas/e2studio_2021_01_workspace_RZA2M_ANPR/ANPR_RZA2M_GR_MANGO/src/tensorflow_lite/src/tensorflow/lite/kernels/internal\types.h **** 
 179:C:/Renesas/e2studio_2021_01_workspace_RZA2M_ANPR/ANPR_RZA2M_GR_MANGO/src/tensorflow_lite/src/tensorflow/lite/kernels/internal\types.h ****   RuntimeShape(const std::initializer_list<int> init_list) : size_(0) {
 180:C:/Renesas/e2studio_2021_01_workspace_RZA2M_ANPR/ANPR_RZA2M_GR_MANGO/src/tensorflow_lite/src/tensorflow/lite/kernels/internal\types.h ****     BuildFrom(init_list);
 181:C:/Renesas/e2studio_2021_01_workspace_RZA2M_ANPR/ANPR_RZA2M_GR_MANGO/src/tensorflow_lite/src/tensorflow/lite/kernels/internal\types.h ****   }
 182:C:/Renesas/e2studio_2021_01_workspace_RZA2M_ANPR/ANPR_RZA2M_GR_MANGO/src/tensorflow_lite/src/tensorflow/lite/kernels/internal\types.h **** 
 183:C:/Renesas/e2studio_2021_01_workspace_RZA2M_ANPR/ANPR_RZA2M_GR_MANGO/src/tensorflow_lite/src/tensorflow/lite/kernels/internal\types.h ****   // Avoid using this constructor.  We should be able to delete it when C++17
 184:C:/Renesas/e2studio_2021_01_workspace_RZA2M_ANPR/ANPR_RZA2M_GR_MANGO/src/tensorflow_lite/src/tensorflow/lite/kernels/internal\types.h ****   // rolls out.
 185:C:/Renesas/e2studio_2021_01_workspace_RZA2M_ANPR/ANPR_RZA2M_GR_MANGO/src/tensorflow_lite/src/tensorflow/lite/kernels/internal\types.h ****   RuntimeShape(RuntimeShape const& other) : size_(other.DimensionsCount()) {
 186:C:/Renesas/e2studio_2021_01_workspace_RZA2M_ANPR/ANPR_RZA2M_GR_MANGO/src/tensorflow_lite/src/tensorflow/lite/kernels/internal\types.h ****     if (size_ > kMaxSmallSize) {
 187:C:/Renesas/e2studio_2021_01_workspace_RZA2M_ANPR/ANPR_RZA2M_GR_MANGO/src/tensorflow_lite/src/tensorflow/lite/kernels/internal\types.h **** #ifdef TF_LITE_STATIC_MEMORY
 188:C:/Renesas/e2studio_2021_01_workspace_RZA2M_ANPR/ANPR_RZA2M_GR_MANGO/src/tensorflow_lite/src/tensorflow/lite/kernels/internal\types.h ****       TFLITE_CHECK(false && "No shape resizing supported on this platform");
 189:C:/Renesas/e2studio_2021_01_workspace_RZA2M_ANPR/ANPR_RZA2M_GR_MANGO/src/tensorflow_lite/src/tensorflow/lite/kernels/internal\types.h **** #else
 190:C:/Renesas/e2studio_2021_01_workspace_RZA2M_ANPR/ANPR_RZA2M_GR_MANGO/src/tensorflow_lite/src/tensorflow/lite/kernels/internal\types.h ****       dims_pointer_ = new int32_t[size_];
 191:C:/Renesas/e2studio_2021_01_workspace_RZA2M_ANPR/ANPR_RZA2M_GR_MANGO/src/tensorflow_lite/src/tensorflow/lite/kernels/internal\types.h **** #endif
 192:C:/Renesas/e2studio_2021_01_workspace_RZA2M_ANPR/ANPR_RZA2M_GR_MANGO/src/tensorflow_lite/src/tensorflow/lite/kernels/internal\types.h ****     }
 193:C:/Renesas/e2studio_2021_01_workspace_RZA2M_ANPR/ANPR_RZA2M_GR_MANGO/src/tensorflow_lite/src/tensorflow/lite/kernels/internal\types.h ****     std::memcpy(DimsData(), other.DimsData(), sizeof(int32_t) * size_);
 194:C:/Renesas/e2studio_2021_01_workspace_RZA2M_ANPR/ANPR_RZA2M_GR_MANGO/src/tensorflow_lite/src/tensorflow/lite/kernels/internal\types.h ****   }
 195:C:/Renesas/e2studio_2021_01_workspace_RZA2M_ANPR/ANPR_RZA2M_GR_MANGO/src/tensorflow_lite/src/tensorflow/lite/kernels/internal\types.h **** 
 196:C:/Renesas/e2studio_2021_01_workspace_RZA2M_ANPR/ANPR_RZA2M_GR_MANGO/src/tensorflow_lite/src/tensorflow/lite/kernels/internal\types.h ****   bool operator==(const RuntimeShape& comp) const {
 197:C:/Renesas/e2studio_2021_01_workspace_RZA2M_ANPR/ANPR_RZA2M_GR_MANGO/src/tensorflow_lite/src/tensorflow/lite/kernels/internal\types.h ****     return this->size_ == comp.size_ &&
 198:C:/Renesas/e2studio_2021_01_workspace_RZA2M_ANPR/ANPR_RZA2M_GR_MANGO/src/tensorflow_lite/src/tensorflow/lite/kernels/internal\types.h ****            std::memcmp(DimsData(), comp.DimsData(), size_ * sizeof(int32_t)) ==
 199:C:/Renesas/e2studio_2021_01_workspace_RZA2M_ANPR/ANPR_RZA2M_GR_MANGO/src/tensorflow_lite/src/tensorflow/lite/kernels/internal\types.h ****                0;
 200:C:/Renesas/e2studio_2021_01_workspace_RZA2M_ANPR/ANPR_RZA2M_GR_MANGO/src/tensorflow_lite/src/tensorflow/lite/kernels/internal\types.h ****   }
 201:C:/Renesas/e2studio_2021_01_workspace_RZA2M_ANPR/ANPR_RZA2M_GR_MANGO/src/tensorflow_lite/src/tensorflow/lite/kernels/internal\types.h **** 
 202:C:/Renesas/e2studio_2021_01_workspace_RZA2M_ANPR/ANPR_RZA2M_GR_MANGO/src/tensorflow_lite/src/tensorflow/lite/kernels/internal\types.h ****   ~RuntimeShape() {
 203:C:/Renesas/e2studio_2021_01_workspace_RZA2M_ANPR/ANPR_RZA2M_GR_MANGO/src/tensorflow_lite/src/tensorflow/lite/kernels/internal\types.h ****     if (size_ > kMaxSmallSize) {
 204:C:/Renesas/e2studio_2021_01_workspace_RZA2M_ANPR/ANPR_RZA2M_GR_MANGO/src/tensorflow_lite/src/tensorflow/lite/kernels/internal\types.h **** #ifdef TF_LITE_STATIC_MEMORY
 205:C:/Renesas/e2studio_2021_01_workspace_RZA2M_ANPR/ANPR_RZA2M_GR_MANGO/src/tensorflow_lite/src/tensorflow/lite/kernels/internal\types.h ****       TFLITE_CHECK(false && "No shape resizing supported on this platform");
 206:C:/Renesas/e2studio_2021_01_workspace_RZA2M_ANPR/ANPR_RZA2M_GR_MANGO/src/tensorflow_lite/src/tensorflow/lite/kernels/internal\types.h **** #else  // TF_LITE_STATIC_MEMORY
 207:C:/Renesas/e2studio_2021_01_workspace_RZA2M_ANPR/ANPR_RZA2M_GR_MANGO/src/tensorflow_lite/src/tensorflow/lite/kernels/internal\types.h ****       delete[] dims_pointer_;
 208:C:/Renesas/e2studio_2021_01_workspace_RZA2M_ANPR/ANPR_RZA2M_GR_MANGO/src/tensorflow_lite/src/tensorflow/lite/kernels/internal\types.h **** #endif  // TF_LITE_STATIC_MEMORY
 209:C:/Renesas/e2studio_2021_01_workspace_RZA2M_ANPR/ANPR_RZA2M_GR_MANGO/src/tensorflow_lite/src/tensorflow/lite/kernels/internal\types.h ****     }
 210:C:/Renesas/e2studio_2021_01_workspace_RZA2M_ANPR/ANPR_RZA2M_GR_MANGO/src/tensorflow_lite/src/tensorflow/lite/kernels/internal\types.h ****   }
 211:C:/Renesas/e2studio_2021_01_workspace_RZA2M_ANPR/ANPR_RZA2M_GR_MANGO/src/tensorflow_lite/src/tensorflow/lite/kernels/internal\types.h **** 
 212:C:/Renesas/e2studio_2021_01_workspace_RZA2M_ANPR/ANPR_RZA2M_GR_MANGO/src/tensorflow_lite/src/tensorflow/lite/kernels/internal\types.h ****   inline int32_t DimensionsCount() const { return size_; }
 213:C:/Renesas/e2studio_2021_01_workspace_RZA2M_ANPR/ANPR_RZA2M_GR_MANGO/src/tensorflow_lite/src/tensorflow/lite/kernels/internal\types.h ****   inline int32_t Dims(int i) const {
 214:C:/Renesas/e2studio_2021_01_workspace_RZA2M_ANPR/ANPR_RZA2M_GR_MANGO/src/tensorflow_lite/src/tensorflow/lite/kernels/internal\types.h ****     TFLITE_DCHECK_GE(i, 0);
 215:C:/Renesas/e2studio_2021_01_workspace_RZA2M_ANPR/ANPR_RZA2M_GR_MANGO/src/tensorflow_lite/src/tensorflow/lite/kernels/internal\types.h ****     TFLITE_DCHECK_LT(i, size_);
 216:C:/Renesas/e2studio_2021_01_workspace_RZA2M_ANPR/ANPR_RZA2M_GR_MANGO/src/tensorflow_lite/src/tensorflow/lite/kernels/internal\types.h ****     return size_ > kMaxSmallSize ? dims_pointer_[i] : dims_[i];
 217:C:/Renesas/e2studio_2021_01_workspace_RZA2M_ANPR/ANPR_RZA2M_GR_MANGO/src/tensorflow_lite/src/tensorflow/lite/kernels/internal\types.h ****   }
 218:C:/Renesas/e2studio_2021_01_workspace_RZA2M_ANPR/ANPR_RZA2M_GR_MANGO/src/tensorflow_lite/src/tensorflow/lite/kernels/internal\types.h ****   inline void SetDim(int i, int32_t val) {
 219:C:/Renesas/e2studio_2021_01_workspace_RZA2M_ANPR/ANPR_RZA2M_GR_MANGO/src/tensorflow_lite/src/tensorflow/lite/kernels/internal\types.h ****     TFLITE_DCHECK_GE(i, 0);
 220:C:/Renesas/e2studio_2021_01_workspace_RZA2M_ANPR/ANPR_RZA2M_GR_MANGO/src/tensorflow_lite/src/tensorflow/lite/kernels/internal\types.h ****     TFLITE_DCHECK_LT(i, size_);
 221:C:/Renesas/e2studio_2021_01_workspace_RZA2M_ANPR/ANPR_RZA2M_GR_MANGO/src/tensorflow_lite/src/tensorflow/lite/kernels/internal\types.h ****     if (size_ > kMaxSmallSize) {
 222:C:/Renesas/e2studio_2021_01_workspace_RZA2M_ANPR/ANPR_RZA2M_GR_MANGO/src/tensorflow_lite/src/tensorflow/lite/kernels/internal\types.h ****       dims_pointer_[i] = val;
 223:C:/Renesas/e2studio_2021_01_workspace_RZA2M_ANPR/ANPR_RZA2M_GR_MANGO/src/tensorflow_lite/src/tensorflow/lite/kernels/internal\types.h ****     } else {
 224:C:/Renesas/e2studio_2021_01_workspace_RZA2M_ANPR/ANPR_RZA2M_GR_MANGO/src/tensorflow_lite/src/tensorflow/lite/kernels/internal\types.h ****       dims_[i] = val;
 225:C:/Renesas/e2studio_2021_01_workspace_RZA2M_ANPR/ANPR_RZA2M_GR_MANGO/src/tensorflow_lite/src/tensorflow/lite/kernels/internal\types.h ****     }
 226:C:/Renesas/e2studio_2021_01_workspace_RZA2M_ANPR/ANPR_RZA2M_GR_MANGO/src/tensorflow_lite/src/tensorflow/lite/kernels/internal\types.h ****   }
 227:C:/Renesas/e2studio_2021_01_workspace_RZA2M_ANPR/ANPR_RZA2M_GR_MANGO/src/tensorflow_lite/src/tensorflow/lite/kernels/internal\types.h **** 
 228:C:/Renesas/e2studio_2021_01_workspace_RZA2M_ANPR/ANPR_RZA2M_GR_MANGO/src/tensorflow_lite/src/tensorflow/lite/kernels/internal\types.h ****   inline int32_t* DimsData() {
 229:C:/Renesas/e2studio_2021_01_workspace_RZA2M_ANPR/ANPR_RZA2M_GR_MANGO/src/tensorflow_lite/src/tensorflow/lite/kernels/internal\types.h ****     return size_ > kMaxSmallSize ? dims_pointer_ : dims_;
 230:C:/Renesas/e2studio_2021_01_workspace_RZA2M_ANPR/ANPR_RZA2M_GR_MANGO/src/tensorflow_lite/src/tensorflow/lite/kernels/internal\types.h ****   }
 231:C:/Renesas/e2studio_2021_01_workspace_RZA2M_ANPR/ANPR_RZA2M_GR_MANGO/src/tensorflow_lite/src/tensorflow/lite/kernels/internal\types.h ****   inline const int32_t* DimsData() const {
 232:C:/Renesas/e2studio_2021_01_workspace_RZA2M_ANPR/ANPR_RZA2M_GR_MANGO/src/tensorflow_lite/src/tensorflow/lite/kernels/internal\types.h ****     return size_ > kMaxSmallSize ? dims_pointer_ : dims_;
 233:C:/Renesas/e2studio_2021_01_workspace_RZA2M_ANPR/ANPR_RZA2M_GR_MANGO/src/tensorflow_lite/src/tensorflow/lite/kernels/internal\types.h ****   }
 234:C:/Renesas/e2studio_2021_01_workspace_RZA2M_ANPR/ANPR_RZA2M_GR_MANGO/src/tensorflow_lite/src/tensorflow/lite/kernels/internal\types.h ****   // The caller must ensure that the shape is no bigger than 5-D.
 235:C:/Renesas/e2studio_2021_01_workspace_RZA2M_ANPR/ANPR_RZA2M_GR_MANGO/src/tensorflow_lite/src/tensorflow/lite/kernels/internal\types.h ****   inline const int32_t* DimsDataUpTo5D() const { return dims_; }
 236:C:/Renesas/e2studio_2021_01_workspace_RZA2M_ANPR/ANPR_RZA2M_GR_MANGO/src/tensorflow_lite/src/tensorflow/lite/kernels/internal\types.h **** 
 237:C:/Renesas/e2studio_2021_01_workspace_RZA2M_ANPR/ANPR_RZA2M_GR_MANGO/src/tensorflow_lite/src/tensorflow/lite/kernels/internal\types.h ****   inline void Resize(int dimensions_count) {
 238:C:/Renesas/e2studio_2021_01_workspace_RZA2M_ANPR/ANPR_RZA2M_GR_MANGO/src/tensorflow_lite/src/tensorflow/lite/kernels/internal\types.h ****     if (size_ > kMaxSmallSize) {
 748              		.loc 3 238 0
 749 0064 050053E3 		cmp	r3, #5
 750              	.LBE376:
 751              	.LBE375:
 752              	.LBE374:
 753              	.LBE373:
 754              	.LBB399:
 755              	.LBB400:
 229:C:/Renesas/e2studio_2021_01_workspace_RZA2M_ANPR/ANPR_RZA2M_GR_MANGO/src/tensorflow_lite/src/tensorflow/lite/kernels/internal\types.h ****   }
 756              		.loc 3 229 0
 757 0068 6C909DE5 		ldr	r9, [sp, #108]
 758              	.LVL99:
 759              	.LBE400:
 760              	.LBE399:
 761              	.LBB406:
 762              	.LBB393:
 763              	.LBB384:
 764              	.LBB377:
 765              		.loc 3 238 0
 766 006c 3C0300CA 		bgt	.L329
 767              	.L62:
 239:C:/Renesas/e2studio_2021_01_workspace_RZA2M_ANPR/ANPR_RZA2M_GR_MANGO/src/tensorflow_lite/src/tensorflow/lite/kernels/internal\types.h **** #ifdef TF_LITE_STATIC_MEMORY
 240:C:/Renesas/e2studio_2021_01_workspace_RZA2M_ANPR/ANPR_RZA2M_GR_MANGO/src/tensorflow_lite/src/tensorflow/lite/kernels/internal\types.h ****       TFLITE_CHECK(false && "No shape resizing supported on this platform");
 241:C:/Renesas/e2studio_2021_01_workspace_RZA2M_ANPR/ANPR_RZA2M_GR_MANGO/src/tensorflow_lite/src/tensorflow/lite/kernels/internal\types.h **** #else  // TF_LITE_STATIC_MEMORY
 242:C:/Renesas/e2studio_2021_01_workspace_RZA2M_ANPR/ANPR_RZA2M_GR_MANGO/src/tensorflow_lite/src/tensorflow/lite/kernels/internal\types.h ****       delete[] dims_pointer_;
 243:C:/Renesas/e2studio_2021_01_workspace_RZA2M_ANPR/ANPR_RZA2M_GR_MANGO/src/tensorflow_lite/src/tensorflow/lite/kernels/internal\types.h **** #endif  // TF_LITE_STATIC_MEMORY
 244:C:/Renesas/e2studio_2021_01_workspace_RZA2M_ANPR/ANPR_RZA2M_GR_MANGO/src/tensorflow_lite/src/tensorflow/lite/kernels/internal\types.h ****     }
 245:C:/Renesas/e2studio_2021_01_workspace_RZA2M_ANPR/ANPR_RZA2M_GR_MANGO/src/tensorflow_lite/src/tensorflow/lite/kernels/internal\types.h ****     size_ = dimensions_count;
 768              		.loc 3 245 0
 769 0070 344005E5 		str	r4, [r5, #-52]
 770              	.LVL100:
 771              	.L168:
 246:C:/Renesas/e2studio_2021_01_workspace_RZA2M_ANPR/ANPR_RZA2M_GR_MANGO/src/tensorflow_lite/src/tensorflow/lite/kernels/internal\types.h ****     if (dimensions_count > kMaxSmallSize) {
 247:C:/Renesas/e2studio_2021_01_workspace_RZA2M_ANPR/ANPR_RZA2M_GR_MANGO/src/tensorflow_lite/src/tensorflow/lite/kernels/internal\types.h **** #ifdef TF_LITE_STATIC_MEMORY
 248:C:/Renesas/e2studio_2021_01_workspace_RZA2M_ANPR/ANPR_RZA2M_GR_MANGO/src/tensorflow_lite/src/tensorflow/lite/kernels/internal\types.h ****       TFLITE_CHECK(false && "No shape resizing supported on this platform");
 249:C:/Renesas/e2studio_2021_01_workspace_RZA2M_ANPR/ANPR_RZA2M_GR_MANGO/src/tensorflow_lite/src/tensorflow/lite/kernels/internal\types.h **** #else  // TF_LITE_STATIC_MEMORY
 250:C:/Renesas/e2studio_2021_01_workspace_RZA2M_ANPR/ANPR_RZA2M_GR_MANGO/src/tensorflow_lite/src/tensorflow/lite/kernels/internal\types.h ****       dims_pointer_ = new int32_t[dimensions_count];
 772              		.loc 3 250 0
 773 0074 2E0274E3 		cmn	r4, #-536870910
 774 0078 380300CA 		bgt	.L64
 775 007c 0441A0E1 		lsl	r4, r4, #2
 776              	.LVL101:
 777 0080 0400A0E1 		mov	r0, r4
 778              	.LEHB0:
 779 0084 FEFFFFEB 		bl	_Znaj
 780              	.LVL102:
 781              	.LEHE0:
 782 0088 00F0D5F5 		pld	[r5]
 783 008c 300005E5 		str	r0, [r5, #-48]
 784              	.LVL103:
 785              	.L65:
 786              	.LBE377:
 787              	.LBE384:
 251:C:/Renesas/e2studio_2021_01_workspace_RZA2M_ANPR/ANPR_RZA2M_GR_MANGO/src/tensorflow_lite/src/tensorflow/lite/kernels/internal\types.h **** #endif  // TF_LITE_STATIC_MEMORY
 252:C:/Renesas/e2studio_2021_01_workspace_RZA2M_ANPR/ANPR_RZA2M_GR_MANGO/src/tensorflow_lite/src/tensorflow/lite/kernels/internal\types.h ****     }
 253:C:/Renesas/e2studio_2021_01_workspace_RZA2M_ANPR/ANPR_RZA2M_GR_MANGO/src/tensorflow_lite/src/tensorflow/lite/kernels/internal\types.h ****   }
 254:C:/Renesas/e2studio_2021_01_workspace_RZA2M_ANPR/ANPR_RZA2M_GR_MANGO/src/tensorflow_lite/src/tensorflow/lite/kernels/internal\types.h **** 
 255:C:/Renesas/e2studio_2021_01_workspace_RZA2M_ANPR/ANPR_RZA2M_GR_MANGO/src/tensorflow_lite/src/tensorflow/lite/kernels/internal\types.h ****   inline void ReplaceWith(int dimensions_count, const int32_t* dims_data) {
 256:C:/Renesas/e2studio_2021_01_workspace_RZA2M_ANPR/ANPR_RZA2M_GR_MANGO/src/tensorflow_lite/src/tensorflow/lite/kernels/internal\types.h ****     Resize(dimensions_count);
 257:C:/Renesas/e2studio_2021_01_workspace_RZA2M_ANPR/ANPR_RZA2M_GR_MANGO/src/tensorflow_lite/src/tensorflow/lite/kernels/internal\types.h ****     int32_t* dst_dims = DimsData();
 258:C:/Renesas/e2studio_2021_01_workspace_RZA2M_ANPR/ANPR_RZA2M_GR_MANGO/src/tensorflow_lite/src/tensorflow/lite/kernels/internal\types.h ****     std::memcpy(dst_dims, dims_data, dimensions_count * sizeof(int32_t));
 788              		.loc 3 258 0
 789 0090 0420A0E1 		mov	r2, r4
 790 0094 0910A0E1 		mov	r1, r9
 791 0098 FEFFFFEB 		bl	memcpy
 792              	.LVL104:
 793              	.LBE393:
 794              	.LBE406:
 795              	.LBB407:
 796              	.LBB408:
 203:C:/Renesas/e2studio_2021_01_workspace_RZA2M_ANPR/ANPR_RZA2M_GR_MANGO/src/tensorflow_lite/src/tensorflow/lite/kernels/internal\types.h **** #ifdef TF_LITE_STATIC_MEMORY
 797              		.loc 3 203 0
 798 009c 68309DE5 		ldr	r3, [sp, #104]
 799 00a0 050053E3 		cmp	r3, #5
 800 00a4 030000DA 		ble	.L66
 207:C:/Renesas/e2studio_2021_01_workspace_RZA2M_ANPR/ANPR_RZA2M_GR_MANGO/src/tensorflow_lite/src/tensorflow/lite/kernels/internal\types.h **** #endif  // TF_LITE_STATIC_MEMORY
 801              		.loc 3 207 0
 802 00a8 6C009DE5 		ldr	r0, [sp, #108]
 803 00ac 000050E3 		cmp	r0, #0
 804 00b0 0000000A 		beq	.L66
 805 00b4 FEFFFFEB 		bl	_ZdaPv
 806              	.LVL105:
 807              	.L66:
 808              	.LBE408:
 809              	.LBE407:
 810              	.LBE372:
  58:../src/tensorflow_lite/src/tensorflow/lite/micro/kernels/concatenation.cpp ****     const TfLiteEvalTensor* t = tflite::micro::GetEvalInput(context, node, i);
 811              		.loc 1 58 0
 812 00b8 003097E5 		ldr	r3, [r7]
 813 00bc 018088E2 		add	r8, r8, #1
 814              	.LVL106:
 815 00c0 185085E2 		add	r5, r5, #24
 816              	.LVL107:
 817 00c4 002093E5 		ldr	r2, [r3]
 818 00c8 080052E1 		cmp	r2, r8
 819 00cc 1D0000DA 		ble	.L330
 820              	.LVL108:
 821              	.L68:
 822              	.LBB424:
 823              	.LBB409:
 824              	.LBB410:
 825              	.LBB411:
 826              		.file 4 "C:/Renesas/e2studio_2021_01_workspace_RZA2M_ANPR/ANPR_RZA2M_GR_MANGO/src/tensorflow_lite/
   1:C:/Renesas/e2studio_2021_01_workspace_RZA2M_ANPR/ANPR_RZA2M_GR_MANGO/src/tensorflow_lite/src/tensorflow/lite/micro/kernels\kernel_util.h **** /* Copyright 2020 The TensorFlow Authors. All Rights Reserved.
   2:C:/Renesas/e2studio_2021_01_workspace_RZA2M_ANPR/ANPR_RZA2M_GR_MANGO/src/tensorflow_lite/src/tensorflow/lite/micro/kernels\kernel_util.h **** 
   3:C:/Renesas/e2studio_2021_01_workspace_RZA2M_ANPR/ANPR_RZA2M_GR_MANGO/src/tensorflow_lite/src/tensorflow/lite/micro/kernels\kernel_util.h **** Licensed under the Apache License, Version 2.0 (the "License");
   4:C:/Renesas/e2studio_2021_01_workspace_RZA2M_ANPR/ANPR_RZA2M_GR_MANGO/src/tensorflow_lite/src/tensorflow/lite/micro/kernels\kernel_util.h **** you may not use this file except in compliance with the License.
   5:C:/Renesas/e2studio_2021_01_workspace_RZA2M_ANPR/ANPR_RZA2M_GR_MANGO/src/tensorflow_lite/src/tensorflow/lite/micro/kernels\kernel_util.h **** You may obtain a copy of the License at
   6:C:/Renesas/e2studio_2021_01_workspace_RZA2M_ANPR/ANPR_RZA2M_GR_MANGO/src/tensorflow_lite/src/tensorflow/lite/micro/kernels\kernel_util.h **** 
   7:C:/Renesas/e2studio_2021_01_workspace_RZA2M_ANPR/ANPR_RZA2M_GR_MANGO/src/tensorflow_lite/src/tensorflow/lite/micro/kernels\kernel_util.h ****     http://www.apache.org/licenses/LICENSE-2.0
   8:C:/Renesas/e2studio_2021_01_workspace_RZA2M_ANPR/ANPR_RZA2M_GR_MANGO/src/tensorflow_lite/src/tensorflow/lite/micro/kernels\kernel_util.h **** 
   9:C:/Renesas/e2studio_2021_01_workspace_RZA2M_ANPR/ANPR_RZA2M_GR_MANGO/src/tensorflow_lite/src/tensorflow/lite/micro/kernels\kernel_util.h **** Unless required by applicable law or agreed to in writing, software
  10:C:/Renesas/e2studio_2021_01_workspace_RZA2M_ANPR/ANPR_RZA2M_GR_MANGO/src/tensorflow_lite/src/tensorflow/lite/micro/kernels\kernel_util.h **** distributed under the License is distributed on an "AS IS" BASIS,
  11:C:/Renesas/e2studio_2021_01_workspace_RZA2M_ANPR/ANPR_RZA2M_GR_MANGO/src/tensorflow_lite/src/tensorflow/lite/micro/kernels\kernel_util.h **** WITHOUT WARRANTIES OR CONDITIONS OF ANY KIND, either express or implied.
  12:C:/Renesas/e2studio_2021_01_workspace_RZA2M_ANPR/ANPR_RZA2M_GR_MANGO/src/tensorflow_lite/src/tensorflow/lite/micro/kernels\kernel_util.h **** See the License for the specific language governing permissions and
  13:C:/Renesas/e2studio_2021_01_workspace_RZA2M_ANPR/ANPR_RZA2M_GR_MANGO/src/tensorflow_lite/src/tensorflow/lite/micro/kernels\kernel_util.h **** limitations under the License.
  14:C:/Renesas/e2studio_2021_01_workspace_RZA2M_ANPR/ANPR_RZA2M_GR_MANGO/src/tensorflow_lite/src/tensorflow/lite/micro/kernels\kernel_util.h **** ==============================================================================*/
  15:C:/Renesas/e2studio_2021_01_workspace_RZA2M_ANPR/ANPR_RZA2M_GR_MANGO/src/tensorflow_lite/src/tensorflow/lite/micro/kernels\kernel_util.h **** 
  16:C:/Renesas/e2studio_2021_01_workspace_RZA2M_ANPR/ANPR_RZA2M_GR_MANGO/src/tensorflow_lite/src/tensorflow/lite/micro/kernels\kernel_util.h **** #ifndef TENSORFLOW_LITE_MICRO_KERNELS_KERNEL_UTIL_H_
  17:C:/Renesas/e2studio_2021_01_workspace_RZA2M_ANPR/ANPR_RZA2M_GR_MANGO/src/tensorflow_lite/src/tensorflow/lite/micro/kernels\kernel_util.h **** #define TENSORFLOW_LITE_MICRO_KERNELS_KERNEL_UTIL_H_
  18:C:/Renesas/e2studio_2021_01_workspace_RZA2M_ANPR/ANPR_RZA2M_GR_MANGO/src/tensorflow_lite/src/tensorflow/lite/micro/kernels\kernel_util.h **** 
  19:C:/Renesas/e2studio_2021_01_workspace_RZA2M_ANPR/ANPR_RZA2M_GR_MANGO/src/tensorflow_lite/src/tensorflow/lite/micro/kernels\kernel_util.h **** #include <cstdint>
  20:C:/Renesas/e2studio_2021_01_workspace_RZA2M_ANPR/ANPR_RZA2M_GR_MANGO/src/tensorflow_lite/src/tensorflow/lite/micro/kernels\kernel_util.h **** 
  21:C:/Renesas/e2studio_2021_01_workspace_RZA2M_ANPR/ANPR_RZA2M_GR_MANGO/src/tensorflow_lite/src/tensorflow/lite/micro/kernels\kernel_util.h **** #include "tensorflow/lite/c/builtin_op_data.h"
  22:C:/Renesas/e2studio_2021_01_workspace_RZA2M_ANPR/ANPR_RZA2M_GR_MANGO/src/tensorflow_lite/src/tensorflow/lite/micro/kernels\kernel_util.h **** #include "tensorflow/lite/c/common.h"
  23:C:/Renesas/e2studio_2021_01_workspace_RZA2M_ANPR/ANPR_RZA2M_GR_MANGO/src/tensorflow_lite/src/tensorflow/lite/micro/kernels\kernel_util.h **** #include "tensorflow/lite/kernels/internal/compatibility.h"
  24:C:/Renesas/e2studio_2021_01_workspace_RZA2M_ANPR/ANPR_RZA2M_GR_MANGO/src/tensorflow_lite/src/tensorflow/lite/micro/kernels\kernel_util.h **** #include "tensorflow/lite/kernels/internal/types.h"
  25:C:/Renesas/e2studio_2021_01_workspace_RZA2M_ANPR/ANPR_RZA2M_GR_MANGO/src/tensorflow_lite/src/tensorflow/lite/micro/kernels\kernel_util.h **** 
  26:C:/Renesas/e2studio_2021_01_workspace_RZA2M_ANPR/ANPR_RZA2M_GR_MANGO/src/tensorflow_lite/src/tensorflow/lite/micro/kernels\kernel_util.h **** namespace tflite {
  27:C:/Renesas/e2studio_2021_01_workspace_RZA2M_ANPR/ANPR_RZA2M_GR_MANGO/src/tensorflow_lite/src/tensorflow/lite/micro/kernels\kernel_util.h **** namespace micro {
  28:C:/Renesas/e2studio_2021_01_workspace_RZA2M_ANPR/ANPR_RZA2M_GR_MANGO/src/tensorflow_lite/src/tensorflow/lite/micro/kernels\kernel_util.h **** 
  29:C:/Renesas/e2studio_2021_01_workspace_RZA2M_ANPR/ANPR_RZA2M_GR_MANGO/src/tensorflow_lite/src/tensorflow/lite/micro/kernels\kernel_util.h **** // Returns a mutable tensor for a given input index. is_variable must be checked
  30:C:/Renesas/e2studio_2021_01_workspace_RZA2M_ANPR/ANPR_RZA2M_GR_MANGO/src/tensorflow_lite/src/tensorflow/lite/micro/kernels\kernel_util.h **** // during prepare when the full TfLiteTensor is available.
  31:C:/Renesas/e2studio_2021_01_workspace_RZA2M_ANPR/ANPR_RZA2M_GR_MANGO/src/tensorflow_lite/src/tensorflow/lite/micro/kernels\kernel_util.h **** inline TfLiteEvalTensor* GetMutableEvalInput(const TfLiteContext* context,
  32:C:/Renesas/e2studio_2021_01_workspace_RZA2M_ANPR/ANPR_RZA2M_GR_MANGO/src/tensorflow_lite/src/tensorflow/lite/micro/kernels\kernel_util.h ****                                              const TfLiteNode* node,
  33:C:/Renesas/e2studio_2021_01_workspace_RZA2M_ANPR/ANPR_RZA2M_GR_MANGO/src/tensorflow_lite/src/tensorflow/lite/micro/kernels\kernel_util.h ****                                              int index) {
  34:C:/Renesas/e2studio_2021_01_workspace_RZA2M_ANPR/ANPR_RZA2M_GR_MANGO/src/tensorflow_lite/src/tensorflow/lite/micro/kernels\kernel_util.h ****   TFLITE_DCHECK(context != nullptr);
  35:C:/Renesas/e2studio_2021_01_workspace_RZA2M_ANPR/ANPR_RZA2M_GR_MANGO/src/tensorflow_lite/src/tensorflow/lite/micro/kernels\kernel_util.h ****   TFLITE_DCHECK(node != nullptr);
  36:C:/Renesas/e2studio_2021_01_workspace_RZA2M_ANPR/ANPR_RZA2M_GR_MANGO/src/tensorflow_lite/src/tensorflow/lite/micro/kernels\kernel_util.h ****   return context->GetEvalTensor(context, node->inputs->data[index]);
 827              		.loc 4 36 0
 828 00d0 083183E0 		add	r3, r3, r8, lsl #2
 829 00d4 542096E5 		ldr	r2, [r6, #84]
 830 00d8 0600A0E1 		mov	r0, r6
 831 00dc 041093E5 		ldr	r1, [r3, #4]
 832              	.LEHB1:
 833 00e0 32FF2FE1 		blx	r2
 834              	.LVL109:
 835              	.LEHE1:
 836              	.LBE411:
 837              	.LBE410:
 838              	.LBE409:
  60:../src/tensorflow_lite/src/tensorflow/lite/micro/kernels/concatenation.cpp ****     all_shapes[i].ReplaceWith(shape.DimensionsCount(), shape.DimsData());
 839              		.loc 1 60 0
 840 00e4 0010A0E1 		mov	r1, r0
 841 00e8 68008DE2 		add	r0, sp, #104
 842              	.LEHB2:
 843 00ec FEFFFFEB 		bl	_ZN6tflite5micro14GetTensorShapeEPK16TfLiteEvalTensor
 844              	.LVL110:
 845              	.LEHE2:
 846 00f0 68409DE5 		ldr	r4, [sp, #104]
 847              	.LVL111:
 848              	.LBB412:
 849              	.LBB394:
 850              	.LBB385:
 851              	.LBB378:
 238:C:/Renesas/e2studio_2021_01_workspace_RZA2M_ANPR/ANPR_RZA2M_GR_MANGO/src/tensorflow_lite/src/tensorflow/lite/kernels/internal\types.h **** #ifdef TF_LITE_STATIC_MEMORY
 852              		.loc 3 238 0
 853 00f4 343015E5 		ldr	r3, [r5, #-52]
 854              	.LBE378:
 855              	.LBE385:
 856              	.LBE394:
 857              	.LBE412:
 858              	.LBB413:
 859              	.LBB401:
 229:C:/Renesas/e2studio_2021_01_workspace_RZA2M_ANPR/ANPR_RZA2M_GR_MANGO/src/tensorflow_lite/src/tensorflow/lite/kernels/internal\types.h ****   }
 860              		.loc 3 229 0
 861 00f8 050054E3 		cmp	r4, #5
 862 00fc D8FFFFCA 		bgt	.L331
 863              	.LVL112:
 864              	.LBE401:
 865              	.LBE413:
 866              	.LBB414:
 867              	.LBB395:
 868              	.LBB386:
 869              	.LBB379:
 238:C:/Renesas/e2studio_2021_01_workspace_RZA2M_ANPR/ANPR_RZA2M_GR_MANGO/src/tensorflow_lite/src/tensorflow/lite/kernels/internal\types.h **** #ifdef TF_LITE_STATIC_MEMORY
 870              		.loc 3 238 0
 871 0100 050053E3 		cmp	r3, #5
 872 0104 30A045E2 		sub	r10, r5, #48
 873              	.LVL113:
 874 0108 04F055F5 		pld	[r5, #-4]
 875 010c E60200DA 		ble	.L332
 242:C:/Renesas/e2studio_2021_01_workspace_RZA2M_ANPR/ANPR_RZA2M_GR_MANGO/src/tensorflow_lite/src/tensorflow/lite/kernels/internal\types.h **** #endif  // TF_LITE_STATIC_MEMORY
 876              		.loc 3 242 0
 877 0110 300015E5 		ldr	r0, [r5, #-48]
 878 0114 000050E3 		cmp	r0, #0
 879              	.LBE379:
 880              	.LBE386:
 881              	.LBE395:
 882              	.LBE414:
 883              	.LBB415:
 884              	.LBB402:
 229:C:/Renesas/e2studio_2021_01_workspace_RZA2M_ANPR/ANPR_RZA2M_GR_MANGO/src/tensorflow_lite/src/tensorflow/lite/kernels/internal\types.h ****   }
 885              		.loc 3 229 0
 886 0118 6C908D12 		addne	r9, sp, #108
 887              	.LBE402:
 888              	.LBE415:
 889              	.LBB416:
 890              	.LBB396:
 891              	.LBB387:
 892              	.LBB380:
 242:C:/Renesas/e2studio_2021_01_workspace_RZA2M_ANPR/ANPR_RZA2M_GR_MANGO/src/tensorflow_lite/src/tensorflow/lite/kernels/internal\types.h **** #endif  // TF_LITE_STATIC_MEMORY
 893              		.loc 3 242 0
 894 011c 0600000A 		beq	.L333
 895              	.LVL114:
 896              	.L173:
 897 0120 FEFFFFEB 		bl	_ZdaPv
 898              	.LVL115:
 246:C:/Renesas/e2studio_2021_01_workspace_RZA2M_ANPR/ANPR_RZA2M_GR_MANGO/src/tensorflow_lite/src/tensorflow/lite/kernels/internal\types.h **** #ifdef TF_LITE_STATIC_MEMORY
 899              		.loc 3 246 0
 900 0124 050054E3 		cmp	r4, #5
 245:C:/Renesas/e2studio_2021_01_workspace_RZA2M_ANPR/ANPR_RZA2M_GR_MANGO/src/tensorflow_lite/src/tensorflow/lite/kernels/internal\types.h ****     if (dimensions_count > kMaxSmallSize) {
 901              		.loc 3 245 0
 902 0128 344005E5 		str	r4, [r5, #-52]
 246:C:/Renesas/e2studio_2021_01_workspace_RZA2M_ANPR/ANPR_RZA2M_GR_MANGO/src/tensorflow_lite/src/tensorflow/lite/kernels/internal\types.h **** #ifdef TF_LITE_STATIC_MEMORY
 903              		.loc 3 246 0
 904 012c D0FFFFCA 		bgt	.L168
 905              	.L63:
 906 0130 0441A0E1 		lsl	r4, r4, #2
 907              	.LVL116:
 908              	.LBE380:
 909              	.LBE387:
 910              	.LBB388:
 911              	.LBB389:
 229:C:/Renesas/e2studio_2021_01_workspace_RZA2M_ANPR/ANPR_RZA2M_GR_MANGO/src/tensorflow_lite/src/tensorflow/lite/kernels/internal\types.h ****   }
 912              		.loc 3 229 0
 913 0134 0A00A0E1 		mov	r0, r10
 914 0138 D4FFFFEA 		b	.L65
 915              	.LVL117:
 916              	.L333:
 917              	.LBE389:
 918              	.LBE388:
 919              	.LBB390:
 920              	.LBB381:
 245:C:/Renesas/e2studio_2021_01_workspace_RZA2M_ANPR/ANPR_RZA2M_GR_MANGO/src/tensorflow_lite/src/tensorflow/lite/kernels/internal\types.h ****     if (dimensions_count > kMaxSmallSize) {
 921              		.loc 3 245 0
 922 013c 344005E5 		str	r4, [r5, #-52]
 923              	.LBE381:
 924              	.LBE390:
 925              	.LBE396:
 926              	.LBE416:
 927              	.LBB417:
 928              	.LBB403:
 229:C:/Renesas/e2studio_2021_01_workspace_RZA2M_ANPR/ANPR_RZA2M_GR_MANGO/src/tensorflow_lite/src/tensorflow/lite/kernels/internal\types.h ****   }
 929              		.loc 3 229 0
 930 0140 6C908DE2 		add	r9, sp, #108
 931              	.LVL118:
 932 0144 F9FFFFEA 		b	.L63
 933              	.LVL119:
 934              	.L330:
 935              	.LBE403:
 936              	.LBE417:
 937              	.LBE424:
 938              	.LBE371:
 939              	.LBE431:
 940              	.LBE443:
 941              	.LBB444:
 942              	.LBB445:
  68:../src/tensorflow_lite/src/tensorflow/lite/micro/kernels/concatenation.cpp ****     pointers[i] = &shapes[i];
 943              		.loc 1 68 0
 944 0148 000052E3 		cmp	r2, #0
 945 014c A902000A 		beq	.L307
 946 0150 041042E2 		sub	r1, r2, #4
 947 0154 030052E3 		cmp	r2, #3
 948 0158 2111A0E1 		lsr	r1, r1, #2
 949 015c 011081E2 		add	r1, r1, #1
 950 0160 0101A0E1 		lsl	r0, r1, #2
 951 0164 7102009A 		bls	.L190
 952              	.LVL120:
 953              	.L186:
 954 0168 D0C08DE2 		add	ip, sp, #208
 955              	.LVL121:
 956 016c 5460C0F2 		vmov.i32	q11, #4  @ v4si
  69:../src/tensorflow_lite/src/tensorflow/lite/micro/kernels/concatenation.cpp ****   }
 957              		.loc 1 69 0
 958 0170 5840C1F2 		vmov.i32	q10, #24  @ v4si
 959              	.LBE445:
 960              	.LBE444:
 961              	.LBB449:
 962              	.LBB432:
 963              	.LBB428:
 964              	.LBB425:
 965              	.LBB418:
 966              	.LBB404:
 229:C:/Renesas/e2studio_2021_01_workspace_RZA2M_ANPR/ANPR_RZA2M_GR_MANGO/src/tensorflow_lite/src/tensorflow/lite/kernels/internal\types.h ****   }
 967              		.loc 3 229 0
 968 0174 00E0A0E3 		mov	lr, #0
 969 0178 40C08DE5 		str	ip, [sp, #64]
 970 017c 90CBA2EE 		vdup.32	q9, ip
 971 0180 80C08DE2 		add	ip, sp, #128
 972              	.LVL122:
 973 0184 F70BDFED 		vldr	d16, .L346
 974 0188 F81BDFED 		vldr	d17, .L346+8
 975              	.LVL123:
 976              	.L77:
 977              	.LBE404:
 978              	.LBE418:
 979              	.LBE425:
 980              	.LBE428:
 981              	.LBE432:
 982              	.LBE449:
 983              	.LBB450:
 984              	.LBB446:
  69:../src/tensorflow_lite/src/tensorflow/lite/micro/kernels/concatenation.cpp ****   }
 985              		.loc 1 69 0
 986 018c F28162F2 		vmov	q12, q9  @ v4si
 987 0190 01E08EE2 		add	lr, lr, #1
 988 0194 01005EE1 		cmp	lr, r1
 989 0198 10C08CE2 		add	ip, ip, #16
 990 019c E48960F2 		vmla.i32	q12, q8, q10
 991 01a0 E60860F2 		vadd.i32	q8, q8, q11
 992 01a4 048B4CED 		vstr	d24, [ip, #-16]
 993 01a8 029B4CED 		vstr	d25, [ip, #-8]
 994 01ac F6FFFF3A 		bcc	.L77
 995 01b0 020050E1 		cmp	r0, r2
 996 01b4 1800000A 		beq	.L80
 997              	.L75:
 998              	.LVL124:
 999 01b8 801080E0 		add	r1, r0, r0, lsl #1
 1000 01bc 40509DE5 		ldr	r5, [sp, #64]
  68:../src/tensorflow_lite/src/tensorflow/lite/micro/kernels/concatenation.cpp ****     pointers[i] = &shapes[i];
 1001              		.loc 1 68 0
 1002 01c0 01C080E2 		add	ip, r0, #1
 1003              	.LVL125:
  69:../src/tensorflow_lite/src/tensorflow/lite/micro/kernels/concatenation.cpp ****   }
 1004              		.loc 1 69 0
 1005 01c4 07ED8DE2 		add	lr, sp, #448
 1006 01c8 8111A0E1 		lsl	r1, r1, #3
 1007 01cc 00E18EE0 		add	lr, lr, r0, lsl #2
  68:../src/tensorflow_lite/src/tensorflow/lite/micro/kernels/concatenation.cpp ****     pointers[i] = &shapes[i];
 1008              		.loc 1 68 0
 1009 01d0 02005CE1 		cmp	ip, r2
  69:../src/tensorflow_lite/src/tensorflow/lite/micro/kernels/concatenation.cpp ****   }
 1010              		.loc 1 69 0
 1011 01d4 014085E0 		add	r4, r5, r1
 1012 01d8 40410EE5 		str	r4, [lr, #-320]
  68:../src/tensorflow_lite/src/tensorflow/lite/micro/kernels/concatenation.cpp ****     pointers[i] = &shapes[i];
 1013              		.loc 1 68 0
 1014 01dc 0E00002A 		bcs	.L80
  69:../src/tensorflow_lite/src/tensorflow/lite/micro/kernels/concatenation.cpp ****   }
 1015              		.loc 1 69 0
 1016 01e0 07ED8DE2 		add	lr, sp, #448
  68:../src/tensorflow_lite/src/tensorflow/lite/micro/kernels/concatenation.cpp ****     pointers[i] = &shapes[i];
 1017              		.loc 1 68 0
 1018 01e4 020080E2 		add	r0, r0, #2
  69:../src/tensorflow_lite/src/tensorflow/lite/micro/kernels/concatenation.cpp ****   }
 1019              		.loc 1 69 0
 1020 01e8 0CC18EE0 		add	ip, lr, ip, lsl #2
 1021              	.LVL126:
  68:../src/tensorflow_lite/src/tensorflow/lite/micro/kernels/concatenation.cpp ****     pointers[i] = &shapes[i];
 1022              		.loc 1 68 0
 1023 01ec 020050E1 		cmp	r0, r2
  69:../src/tensorflow_lite/src/tensorflow/lite/micro/kernels/concatenation.cpp ****   }
 1024              		.loc 1 69 0
 1025 01f0 18E081E2 		add	lr, r1, #24
 1026 01f4 0EE085E0 		add	lr, r5, lr
 1027 01f8 0540A0E1 		mov	r4, r5
 1028 01fc 40E10CE5 		str	lr, [ip, #-320]
 1029              	.LVL127:
  68:../src/tensorflow_lite/src/tensorflow/lite/micro/kernels/concatenation.cpp ****     pointers[i] = &shapes[i];
 1030              		.loc 1 68 0
 1031 0200 0500002A 		bcs	.L80
  69:../src/tensorflow_lite/src/tensorflow/lite/micro/kernels/concatenation.cpp ****   }
 1032              		.loc 1 69 0
 1033 0204 07CD8DE2 		add	ip, sp, #448
 1034 0208 301081E2 		add	r1, r1, #48
 1035 020c 00018CE0 		add	r0, ip, r0, lsl #2
 1036              	.LVL128:
 1037 0210 40C09DE5 		ldr	ip, [sp, #64]
 1038 0214 01108CE0 		add	r1, ip, r1
 1039 0218 401100E5 		str	r1, [r0, #-320]
 1040              	.L80:
 1041              	.LVL129:
 1042              	.LBE446:
 1043              	.LBE450:
 1044              	.LBB451:
 1045              	.LBB452:
  80:../src/tensorflow_lite/src/tensorflow/lite/micro/kernels/concatenation.cpp ****     const TfLiteEvalTensor* t = tflite::micro::GetEvalInput(context, node, i);
 1046              		.loc 1 80 0
 1047 021c 000052E3 		cmp	r2, #0
 1048 0220 0040A0C3 		movgt	r4, #0
 1049              	.LBB453:
  82:../src/tensorflow_lite/src/tensorflow/lite/micro/kernels/concatenation.cpp ****   }
 1050              		.loc 1 82 0
 1051 0224 A8508DC2 		addgt	r5, sp, #168
 1052              	.LBE453:
  80:../src/tensorflow_lite/src/tensorflow/lite/micro/kernels/concatenation.cpp ****     const TfLiteEvalTensor* t = tflite::micro::GetEvalInput(context, node, i);
 1053              		.loc 1 80 0
 1054 0228 0D0000DA 		ble	.L85
 1055              	.LVL130:
 1056              	.L86:
 1057              	.LBB461:
 1058              	.LBB454:
 1059              	.LBB455:
 1060              	.LBB456:
 1061              		.loc 4 36 0
 1062 022c 043183E0 		add	r3, r3, r4, lsl #2
 1063 0230 542096E5 		ldr	r2, [r6, #84]
 1064 0234 0600A0E1 		mov	r0, r6
 1065 0238 041093E5 		ldr	r1, [r3, #4]
 1066              	.LEHB3:
 1067 023c 32FF2FE1 		blx	r2
 1068              	.LVL131:
 1069              	.LEHE3:
 1070              	.LBE456:
 1071              	.LBE455:
 1072              	.LBE454:
 1073              	.LBB457:
 1074              	.LBB458:
  37:C:/Renesas/e2studio_2021_01_workspace_RZA2M_ANPR/ANPR_RZA2M_GR_MANGO/src/tensorflow_lite/src/tensorflow/lite/micro/kernels\kernel_util.h **** }
  38:C:/Renesas/e2studio_2021_01_workspace_RZA2M_ANPR/ANPR_RZA2M_GR_MANGO/src/tensorflow_lite/src/tensorflow/lite/micro/kernels\kernel_util.h **** 
  39:C:/Renesas/e2studio_2021_01_workspace_RZA2M_ANPR/ANPR_RZA2M_GR_MANGO/src/tensorflow_lite/src/tensorflow/lite/micro/kernels\kernel_util.h **** // Returns the TfLiteEvalTensor struct for a given input index in a node.
  40:C:/Renesas/e2studio_2021_01_workspace_RZA2M_ANPR/ANPR_RZA2M_GR_MANGO/src/tensorflow_lite/src/tensorflow/lite/micro/kernels\kernel_util.h **** inline const TfLiteEvalTensor* GetEvalInput(const TfLiteContext* context,
  41:C:/Renesas/e2studio_2021_01_workspace_RZA2M_ANPR/ANPR_RZA2M_GR_MANGO/src/tensorflow_lite/src/tensorflow/lite/micro/kernels\kernel_util.h ****                                             const TfLiteNode* node, int index) {
  42:C:/Renesas/e2studio_2021_01_workspace_RZA2M_ANPR/ANPR_RZA2M_GR_MANGO/src/tensorflow_lite/src/tensorflow/lite/micro/kernels\kernel_util.h ****   return GetMutableEvalInput(context, node, index);
  43:C:/Renesas/e2studio_2021_01_workspace_RZA2M_ANPR/ANPR_RZA2M_GR_MANGO/src/tensorflow_lite/src/tensorflow/lite/micro/kernels\kernel_util.h **** }
  44:C:/Renesas/e2studio_2021_01_workspace_RZA2M_ANPR/ANPR_RZA2M_GR_MANGO/src/tensorflow_lite/src/tensorflow/lite/micro/kernels\kernel_util.h **** 
  45:C:/Renesas/e2studio_2021_01_workspace_RZA2M_ANPR/ANPR_RZA2M_GR_MANGO/src/tensorflow_lite/src/tensorflow/lite/micro/kernels\kernel_util.h **** // Returns the TfLiteEvalTensor struct for a given output index in a node.
  46:C:/Renesas/e2studio_2021_01_workspace_RZA2M_ANPR/ANPR_RZA2M_GR_MANGO/src/tensorflow_lite/src/tensorflow/lite/micro/kernels\kernel_util.h **** inline TfLiteEvalTensor* GetEvalOutput(const TfLiteContext* context,
  47:C:/Renesas/e2studio_2021_01_workspace_RZA2M_ANPR/ANPR_RZA2M_GR_MANGO/src/tensorflow_lite/src/tensorflow/lite/micro/kernels\kernel_util.h ****                                        const TfLiteNode* node, int index) {
  48:C:/Renesas/e2studio_2021_01_workspace_RZA2M_ANPR/ANPR_RZA2M_GR_MANGO/src/tensorflow_lite/src/tensorflow/lite/micro/kernels\kernel_util.h ****   TFLITE_DCHECK(context != nullptr);
  49:C:/Renesas/e2studio_2021_01_workspace_RZA2M_ANPR/ANPR_RZA2M_GR_MANGO/src/tensorflow_lite/src/tensorflow/lite/micro/kernels\kernel_util.h ****   TFLITE_DCHECK(node != nullptr);
  50:C:/Renesas/e2studio_2021_01_workspace_RZA2M_ANPR/ANPR_RZA2M_GR_MANGO/src/tensorflow_lite/src/tensorflow/lite/micro/kernels\kernel_util.h ****   return context->GetEvalTensor(context, node->outputs->data[index]);
  51:C:/Renesas/e2studio_2021_01_workspace_RZA2M_ANPR/ANPR_RZA2M_GR_MANGO/src/tensorflow_lite/src/tensorflow/lite/micro/kernels\kernel_util.h **** }
  52:C:/Renesas/e2studio_2021_01_workspace_RZA2M_ANPR/ANPR_RZA2M_GR_MANGO/src/tensorflow_lite/src/tensorflow/lite/micro/kernels\kernel_util.h **** 
  53:C:/Renesas/e2studio_2021_01_workspace_RZA2M_ANPR/ANPR_RZA2M_GR_MANGO/src/tensorflow_lite/src/tensorflow/lite/micro/kernels\kernel_util.h **** // Returns data for a TfLiteEvalTensor struct.
  54:C:/Renesas/e2studio_2021_01_workspace_RZA2M_ANPR/ANPR_RZA2M_GR_MANGO/src/tensorflow_lite/src/tensorflow/lite/micro/kernels\kernel_util.h **** template <typename T>
  55:C:/Renesas/e2studio_2021_01_workspace_RZA2M_ANPR/ANPR_RZA2M_GR_MANGO/src/tensorflow_lite/src/tensorflow/lite/micro/kernels\kernel_util.h **** T* GetTensorData(TfLiteEvalTensor* tensor) {
  56:C:/Renesas/e2studio_2021_01_workspace_RZA2M_ANPR/ANPR_RZA2M_GR_MANGO/src/tensorflow_lite/src/tensorflow/lite/micro/kernels\kernel_util.h ****   return tensor != nullptr ? reinterpret_cast<T*>(tensor->data.raw) : nullptr;
  57:C:/Renesas/e2studio_2021_01_workspace_RZA2M_ANPR/ANPR_RZA2M_GR_MANGO/src/tensorflow_lite/src/tensorflow/lite/micro/kernels\kernel_util.h **** }
  58:C:/Renesas/e2studio_2021_01_workspace_RZA2M_ANPR/ANPR_RZA2M_GR_MANGO/src/tensorflow_lite/src/tensorflow/lite/micro/kernels\kernel_util.h **** 
  59:C:/Renesas/e2studio_2021_01_workspace_RZA2M_ANPR/ANPR_RZA2M_GR_MANGO/src/tensorflow_lite/src/tensorflow/lite/micro/kernels\kernel_util.h **** // Returns const data for a TfLiteEvalTensor struct.
  60:C:/Renesas/e2studio_2021_01_workspace_RZA2M_ANPR/ANPR_RZA2M_GR_MANGO/src/tensorflow_lite/src/tensorflow/lite/micro/kernels\kernel_util.h **** template <typename T>
  61:C:/Renesas/e2studio_2021_01_workspace_RZA2M_ANPR/ANPR_RZA2M_GR_MANGO/src/tensorflow_lite/src/tensorflow/lite/micro/kernels\kernel_util.h **** const T* GetTensorData(const TfLiteEvalTensor* tensor) {
  62:C:/Renesas/e2studio_2021_01_workspace_RZA2M_ANPR/ANPR_RZA2M_GR_MANGO/src/tensorflow_lite/src/tensorflow/lite/micro/kernels\kernel_util.h ****   TFLITE_DCHECK(tensor != nullptr);
 1075              		.loc 4 62 0
 1076 0240 000050E3 		cmp	r0, #0
 1077 0244 A802000A 		beq	.L334
 1078              	.LBE458:
 1079              	.LBE457:
 1080              	.LBE461:
  80:../src/tensorflow_lite/src/tensorflow/lite/micro/kernels/concatenation.cpp ****     const TfLiteEvalTensor* t = tflite::micro::GetEvalInput(context, node, i);
 1081              		.loc 1 80 0
 1082 0248 003097E5 		ldr	r3, [r7]
 1083              	.LBB462:
  82:../src/tensorflow_lite/src/tensorflow/lite/micro/kernels/concatenation.cpp ****   }
 1084              		.loc 1 82 0
 1085 024c 001090E5 		ldr	r1, [r0]
 1086              	.LBE462:
  80:../src/tensorflow_lite/src/tensorflow/lite/micro/kernels/concatenation.cpp ****     const TfLiteEvalTensor* t = tflite::micro::GetEvalInput(context, node, i);
 1087              		.loc 1 80 0
 1088 0250 002093E5 		ldr	r2, [r3]
 1089              	.LBB463:
  82:../src/tensorflow_lite/src/tensorflow/lite/micro/kernels/concatenation.cpp ****   }
 1090              		.loc 1 82 0
 1091 0254 041185E7 		str	r1, [r5, r4, lsl #2]
 1092              	.LBE463:
  80:../src/tensorflow_lite/src/tensorflow/lite/micro/kernels/concatenation.cpp ****     const TfLiteEvalTensor* t = tflite::micro::GetEvalInput(context, node, i);
 1093              		.loc 1 80 0
 1094 0258 014084E2 		add	r4, r4, #1
 1095              	.LVL132:
 1096 025c 040052E1 		cmp	r2, r4
 1097 0260 F1FFFFCA 		bgt	.L86
 1098              	.LVL133:
 1099              	.L85:
 1100              	.LBE452:
 1101              	.LBE451:
 1102              	.LBB466:
 1103              	.LBB467:
  50:C:/Renesas/e2studio_2021_01_workspace_RZA2M_ANPR/ANPR_RZA2M_GR_MANGO/src/tensorflow_lite/src/tensorflow/lite/micro/kernels\kernel_util.h **** }
 1104              		.loc 4 50 0
 1105 0264 042097E5 		ldr	r2, [r7, #4]
 1106 0268 0600A0E1 		mov	r0, r6
 1107 026c 543096E5 		ldr	r3, [r6, #84]
 1108 0270 041092E5 		ldr	r1, [r2, #4]
 1109              	.LEHB4:
 1110 0274 33FF2FE1 		blx	r3
 1111              	.LVL134:
 1112              	.LEHE4:
 1113              	.LBE467:
 1114              	.LBE466:
 119:../src/tensorflow_lite/src/tensorflow/lite/micro/kernels/concatenation.cpp ****   const OpData* data = static_cast<const OpData*>(node->user_data);
 1115              		.loc 1 119 0
 1116 0278 104097E5 		ldr	r4, [r7, #16]
 1117              	.LBB469:
 1118              	.LBB468:
  50:C:/Renesas/e2studio_2021_01_workspace_RZA2M_ANPR/ANPR_RZA2M_GR_MANGO/src/tensorflow_lite/src/tensorflow/lite/micro/kernels\kernel_util.h **** }
 1119              		.loc 4 50 0
 1120 027c 00A0A0E1 		mov	r10, r0
 1121              	.LVL135:
 1122              	.LBE468:
 1123              	.LBE469:
 119:../src/tensorflow_lite/src/tensorflow/lite/micro/kernels/concatenation.cpp ****   const OpData* data = static_cast<const OpData*>(node->user_data);
 1124              		.loc 1 119 0
 1125 0280 000054E3 		cmp	r4, #0
 1126 0284 9502000A 		beq	.L335
 1127              	.LVL136:
 124:../src/tensorflow_lite/src/tensorflow/lite/micro/kernels/concatenation.cpp ****       tflite::micro::GetTensorData<uint8_t>(output));
 1128              		.loc 1 124 0
 1129 0288 0010A0E1 		mov	r1, r0
 1130 028c 50008DE2 		add	r0, sp, #80
 1131              	.LEHB5:
 1132 0290 FEFFFFEB 		bl	_ZN6tflite5micro14GetTensorShapeEPK16TfLiteEvalTensor
 1133              	.LVL137:
 1134              	.LEHE5:
 1135              	.LBB470:
 1136              	.LBB471:
 1137              		.file 5 "C:/Renesas/e2studio_2021_01_workspace_RZA2M_ANPR/ANPR_RZA2M_GR_MANGO/src/tensorflow_lite/
   1:C:/Renesas/e2studio_2021_01_workspace_RZA2M_ANPR/ANPR_RZA2M_GR_MANGO/src/tensorflow_lite/src/tensorflow/lite/kernels/internal/reference\concatenation.h **** /* Copyright 2019 The TensorFlow Authors. All Rights Reserved.
   2:C:/Renesas/e2studio_2021_01_workspace_RZA2M_ANPR/ANPR_RZA2M_GR_MANGO/src/tensorflow_lite/src/tensorflow/lite/kernels/internal/reference\concatenation.h **** 
   3:C:/Renesas/e2studio_2021_01_workspace_RZA2M_ANPR/ANPR_RZA2M_GR_MANGO/src/tensorflow_lite/src/tensorflow/lite/kernels/internal/reference\concatenation.h **** Licensed under the Apache License, Version 2.0 (the "License");
   4:C:/Renesas/e2studio_2021_01_workspace_RZA2M_ANPR/ANPR_RZA2M_GR_MANGO/src/tensorflow_lite/src/tensorflow/lite/kernels/internal/reference\concatenation.h **** you may not use this file except in compliance with the License.
   5:C:/Renesas/e2studio_2021_01_workspace_RZA2M_ANPR/ANPR_RZA2M_GR_MANGO/src/tensorflow_lite/src/tensorflow/lite/kernels/internal/reference\concatenation.h **** You may obtain a copy of the License at
   6:C:/Renesas/e2studio_2021_01_workspace_RZA2M_ANPR/ANPR_RZA2M_GR_MANGO/src/tensorflow_lite/src/tensorflow/lite/kernels/internal/reference\concatenation.h **** 
   7:C:/Renesas/e2studio_2021_01_workspace_RZA2M_ANPR/ANPR_RZA2M_GR_MANGO/src/tensorflow_lite/src/tensorflow/lite/kernels/internal/reference\concatenation.h ****     http://www.apache.org/licenses/LICENSE-2.0
   8:C:/Renesas/e2studio_2021_01_workspace_RZA2M_ANPR/ANPR_RZA2M_GR_MANGO/src/tensorflow_lite/src/tensorflow/lite/kernels/internal/reference\concatenation.h **** 
   9:C:/Renesas/e2studio_2021_01_workspace_RZA2M_ANPR/ANPR_RZA2M_GR_MANGO/src/tensorflow_lite/src/tensorflow/lite/kernels/internal/reference\concatenation.h **** Unless required by applicable law or agreed to in writing, software
  10:C:/Renesas/e2studio_2021_01_workspace_RZA2M_ANPR/ANPR_RZA2M_GR_MANGO/src/tensorflow_lite/src/tensorflow/lite/kernels/internal/reference\concatenation.h **** distributed under the License is distributed on an "AS IS" BASIS,
  11:C:/Renesas/e2studio_2021_01_workspace_RZA2M_ANPR/ANPR_RZA2M_GR_MANGO/src/tensorflow_lite/src/tensorflow/lite/kernels/internal/reference\concatenation.h **** WITHOUT WARRANTIES OR CONDITIONS OF ANY KIND, either express or implied.
  12:C:/Renesas/e2studio_2021_01_workspace_RZA2M_ANPR/ANPR_RZA2M_GR_MANGO/src/tensorflow_lite/src/tensorflow/lite/kernels/internal/reference\concatenation.h **** See the License for the specific language governing permissions and
  13:C:/Renesas/e2studio_2021_01_workspace_RZA2M_ANPR/ANPR_RZA2M_GR_MANGO/src/tensorflow_lite/src/tensorflow/lite/kernels/internal/reference\concatenation.h **** limitations under the License.
  14:C:/Renesas/e2studio_2021_01_workspace_RZA2M_ANPR/ANPR_RZA2M_GR_MANGO/src/tensorflow_lite/src/tensorflow/lite/kernels/internal/reference\concatenation.h **** ==============================================================================*/
  15:C:/Renesas/e2studio_2021_01_workspace_RZA2M_ANPR/ANPR_RZA2M_GR_MANGO/src/tensorflow_lite/src/tensorflow/lite/kernels/internal/reference\concatenation.h **** 
  16:C:/Renesas/e2studio_2021_01_workspace_RZA2M_ANPR/ANPR_RZA2M_GR_MANGO/src/tensorflow_lite/src/tensorflow/lite/kernels/internal/reference\concatenation.h **** #ifndef TENSORFLOW_LITE_KERNELS_INTERNAL_REFERENCE_CONCATENATION_H_
  17:C:/Renesas/e2studio_2021_01_workspace_RZA2M_ANPR/ANPR_RZA2M_GR_MANGO/src/tensorflow_lite/src/tensorflow/lite/kernels/internal/reference\concatenation.h **** #define TENSORFLOW_LITE_KERNELS_INTERNAL_REFERENCE_CONCATENATION_H_
  18:C:/Renesas/e2studio_2021_01_workspace_RZA2M_ANPR/ANPR_RZA2M_GR_MANGO/src/tensorflow_lite/src/tensorflow/lite/kernels/internal/reference\concatenation.h **** 
  19:C:/Renesas/e2studio_2021_01_workspace_RZA2M_ANPR/ANPR_RZA2M_GR_MANGO/src/tensorflow_lite/src/tensorflow/lite/kernels/internal/reference\concatenation.h **** #include "tensorflow/lite/kernels/internal/common.h"
  20:C:/Renesas/e2studio_2021_01_workspace_RZA2M_ANPR/ANPR_RZA2M_GR_MANGO/src/tensorflow_lite/src/tensorflow/lite/kernels/internal/reference\concatenation.h **** #include "tensorflow/lite/kernels/internal/compatibility.h"
  21:C:/Renesas/e2studio_2021_01_workspace_RZA2M_ANPR/ANPR_RZA2M_GR_MANGO/src/tensorflow_lite/src/tensorflow/lite/kernels/internal/reference\concatenation.h **** #include "tensorflow/lite/kernels/internal/cppmath.h"
  22:C:/Renesas/e2studio_2021_01_workspace_RZA2M_ANPR/ANPR_RZA2M_GR_MANGO/src/tensorflow_lite/src/tensorflow/lite/kernels/internal/reference\concatenation.h **** #include "tensorflow/lite/kernels/internal/types.h"
  23:C:/Renesas/e2studio_2021_01_workspace_RZA2M_ANPR/ANPR_RZA2M_GR_MANGO/src/tensorflow_lite/src/tensorflow/lite/kernels/internal/reference\concatenation.h **** 
  24:C:/Renesas/e2studio_2021_01_workspace_RZA2M_ANPR/ANPR_RZA2M_GR_MANGO/src/tensorflow_lite/src/tensorflow/lite/kernels/internal/reference\concatenation.h **** namespace tflite {
  25:C:/Renesas/e2studio_2021_01_workspace_RZA2M_ANPR/ANPR_RZA2M_GR_MANGO/src/tensorflow_lite/src/tensorflow/lite/kernels/internal/reference\concatenation.h **** namespace reference_ops {
  26:C:/Renesas/e2studio_2021_01_workspace_RZA2M_ANPR/ANPR_RZA2M_GR_MANGO/src/tensorflow_lite/src/tensorflow/lite/kernels/internal/reference\concatenation.h **** 
  27:C:/Renesas/e2studio_2021_01_workspace_RZA2M_ANPR/ANPR_RZA2M_GR_MANGO/src/tensorflow_lite/src/tensorflow/lite/kernels/internal/reference\concatenation.h **** template <typename Scalar>
  28:C:/Renesas/e2studio_2021_01_workspace_RZA2M_ANPR/ANPR_RZA2M_GR_MANGO/src/tensorflow_lite/src/tensorflow/lite/kernels/internal/reference\concatenation.h **** inline void Concatenation(const ConcatenationParams& params,
  29:C:/Renesas/e2studio_2021_01_workspace_RZA2M_ANPR/ANPR_RZA2M_GR_MANGO/src/tensorflow_lite/src/tensorflow/lite/kernels/internal/reference\concatenation.h ****                           const RuntimeShape* const* input_shapes,
  30:C:/Renesas/e2studio_2021_01_workspace_RZA2M_ANPR/ANPR_RZA2M_GR_MANGO/src/tensorflow_lite/src/tensorflow/lite/kernels/internal/reference\concatenation.h ****                           const Scalar* const* input_data,
  31:C:/Renesas/e2studio_2021_01_workspace_RZA2M_ANPR/ANPR_RZA2M_GR_MANGO/src/tensorflow_lite/src/tensorflow/lite/kernels/internal/reference\concatenation.h ****                           const RuntimeShape& output_shape,
  32:C:/Renesas/e2studio_2021_01_workspace_RZA2M_ANPR/ANPR_RZA2M_GR_MANGO/src/tensorflow_lite/src/tensorflow/lite/kernels/internal/reference\concatenation.h ****                           Scalar* output_data) {
  33:C:/Renesas/e2studio_2021_01_workspace_RZA2M_ANPR/ANPR_RZA2M_GR_MANGO/src/tensorflow_lite/src/tensorflow/lite/kernels/internal/reference\concatenation.h ****   int axis = params.axis;
  34:C:/Renesas/e2studio_2021_01_workspace_RZA2M_ANPR/ANPR_RZA2M_GR_MANGO/src/tensorflow_lite/src/tensorflow/lite/kernels/internal/reference\concatenation.h ****   int inputs_count = params.inputs_count;
  35:C:/Renesas/e2studio_2021_01_workspace_RZA2M_ANPR/ANPR_RZA2M_GR_MANGO/src/tensorflow_lite/src/tensorflow/lite/kernels/internal/reference\concatenation.h ****   const int concat_dimensions = output_shape.DimensionsCount();
  36:C:/Renesas/e2studio_2021_01_workspace_RZA2M_ANPR/ANPR_RZA2M_GR_MANGO/src/tensorflow_lite/src/tensorflow/lite/kernels/internal/reference\concatenation.h ****   TFLITE_DCHECK_LT(axis, concat_dimensions);
  37:C:/Renesas/e2studio_2021_01_workspace_RZA2M_ANPR/ANPR_RZA2M_GR_MANGO/src/tensorflow_lite/src/tensorflow/lite/kernels/internal/reference\concatenation.h **** 
  38:C:/Renesas/e2studio_2021_01_workspace_RZA2M_ANPR/ANPR_RZA2M_GR_MANGO/src/tensorflow_lite/src/tensorflow/lite/kernels/internal/reference\concatenation.h ****   int64_t concat_size = 0;
  39:C:/Renesas/e2studio_2021_01_workspace_RZA2M_ANPR/ANPR_RZA2M_GR_MANGO/src/tensorflow_lite/src/tensorflow/lite/kernels/internal/reference\concatenation.h ****   for (int i = 0; i < inputs_count; i++) {
  40:C:/Renesas/e2studio_2021_01_workspace_RZA2M_ANPR/ANPR_RZA2M_GR_MANGO/src/tensorflow_lite/src/tensorflow/lite/kernels/internal/reference\concatenation.h ****     TFLITE_DCHECK_EQ(input_shapes[i]->DimensionsCount(), concat_dimensions);
  41:C:/Renesas/e2studio_2021_01_workspace_RZA2M_ANPR/ANPR_RZA2M_GR_MANGO/src/tensorflow_lite/src/tensorflow/lite/kernels/internal/reference\concatenation.h ****     for (int j = 0; j < concat_dimensions; j++) {
  42:C:/Renesas/e2studio_2021_01_workspace_RZA2M_ANPR/ANPR_RZA2M_GR_MANGO/src/tensorflow_lite/src/tensorflow/lite/kernels/internal/reference\concatenation.h ****       if (j != axis) {
  43:C:/Renesas/e2studio_2021_01_workspace_RZA2M_ANPR/ANPR_RZA2M_GR_MANGO/src/tensorflow_lite/src/tensorflow/lite/kernels/internal/reference\concatenation.h ****         MatchingDim(*input_shapes[i], j, output_shape, j);
  44:C:/Renesas/e2studio_2021_01_workspace_RZA2M_ANPR/ANPR_RZA2M_GR_MANGO/src/tensorflow_lite/src/tensorflow/lite/kernels/internal/reference\concatenation.h ****       }
  45:C:/Renesas/e2studio_2021_01_workspace_RZA2M_ANPR/ANPR_RZA2M_GR_MANGO/src/tensorflow_lite/src/tensorflow/lite/kernels/internal/reference\concatenation.h ****     }
  46:C:/Renesas/e2studio_2021_01_workspace_RZA2M_ANPR/ANPR_RZA2M_GR_MANGO/src/tensorflow_lite/src/tensorflow/lite/kernels/internal/reference\concatenation.h ****     concat_size += input_shapes[i]->Dims(axis);
  47:C:/Renesas/e2studio_2021_01_workspace_RZA2M_ANPR/ANPR_RZA2M_GR_MANGO/src/tensorflow_lite/src/tensorflow/lite/kernels/internal/reference\concatenation.h ****   }
  48:C:/Renesas/e2studio_2021_01_workspace_RZA2M_ANPR/ANPR_RZA2M_GR_MANGO/src/tensorflow_lite/src/tensorflow/lite/kernels/internal/reference\concatenation.h ****   TFLITE_DCHECK_EQ(concat_size, output_shape.Dims(axis));
  49:C:/Renesas/e2studio_2021_01_workspace_RZA2M_ANPR/ANPR_RZA2M_GR_MANGO/src/tensorflow_lite/src/tensorflow/lite/kernels/internal/reference\concatenation.h ****   int64_t outer_size = 1;
  50:C:/Renesas/e2studio_2021_01_workspace_RZA2M_ANPR/ANPR_RZA2M_GR_MANGO/src/tensorflow_lite/src/tensorflow/lite/kernels/internal/reference\concatenation.h ****   for (int i = 0; i < axis; ++i) {
  51:C:/Renesas/e2studio_2021_01_workspace_RZA2M_ANPR/ANPR_RZA2M_GR_MANGO/src/tensorflow_lite/src/tensorflow/lite/kernels/internal/reference\concatenation.h ****     outer_size *= output_shape.Dims(i);
  52:C:/Renesas/e2studio_2021_01_workspace_RZA2M_ANPR/ANPR_RZA2M_GR_MANGO/src/tensorflow_lite/src/tensorflow/lite/kernels/internal/reference\concatenation.h ****   }
  53:C:/Renesas/e2studio_2021_01_workspace_RZA2M_ANPR/ANPR_RZA2M_GR_MANGO/src/tensorflow_lite/src/tensorflow/lite/kernels/internal/reference\concatenation.h ****   // For all input arrays,
  54:C:/Renesas/e2studio_2021_01_workspace_RZA2M_ANPR/ANPR_RZA2M_GR_MANGO/src/tensorflow_lite/src/tensorflow/lite/kernels/internal/reference\concatenation.h ****   // FlatSize() = outer_size * Dims(axis) * base_inner_size;
  55:C:/Renesas/e2studio_2021_01_workspace_RZA2M_ANPR/ANPR_RZA2M_GR_MANGO/src/tensorflow_lite/src/tensorflow/lite/kernels/internal/reference\concatenation.h ****   int64_t base_inner_size = 1;
  56:C:/Renesas/e2studio_2021_01_workspace_RZA2M_ANPR/ANPR_RZA2M_GR_MANGO/src/tensorflow_lite/src/tensorflow/lite/kernels/internal/reference\concatenation.h ****   for (int i = axis + 1; i < concat_dimensions; ++i) {
  57:C:/Renesas/e2studio_2021_01_workspace_RZA2M_ANPR/ANPR_RZA2M_GR_MANGO/src/tensorflow_lite/src/tensorflow/lite/kernels/internal/reference\concatenation.h ****     base_inner_size *= output_shape.Dims(i);
  58:C:/Renesas/e2studio_2021_01_workspace_RZA2M_ANPR/ANPR_RZA2M_GR_MANGO/src/tensorflow_lite/src/tensorflow/lite/kernels/internal/reference\concatenation.h ****   }
  59:C:/Renesas/e2studio_2021_01_workspace_RZA2M_ANPR/ANPR_RZA2M_GR_MANGO/src/tensorflow_lite/src/tensorflow/lite/kernels/internal/reference\concatenation.h **** 
  60:C:/Renesas/e2studio_2021_01_workspace_RZA2M_ANPR/ANPR_RZA2M_GR_MANGO/src/tensorflow_lite/src/tensorflow/lite/kernels/internal/reference\concatenation.h ****   Scalar* output_ptr = output_data;
  61:C:/Renesas/e2studio_2021_01_workspace_RZA2M_ANPR/ANPR_RZA2M_GR_MANGO/src/tensorflow_lite/src/tensorflow/lite/kernels/internal/reference\concatenation.h ****   for (int k = 0; k < outer_size; k++) {
  62:C:/Renesas/e2studio_2021_01_workspace_RZA2M_ANPR/ANPR_RZA2M_GR_MANGO/src/tensorflow_lite/src/tensorflow/lite/kernels/internal/reference\concatenation.h ****     for (int i = 0; i < inputs_count; ++i) {
  63:C:/Renesas/e2studio_2021_01_workspace_RZA2M_ANPR/ANPR_RZA2M_GR_MANGO/src/tensorflow_lite/src/tensorflow/lite/kernels/internal/reference\concatenation.h ****       const int copy_size = input_shapes[i]->Dims(axis) * base_inner_size;
  64:C:/Renesas/e2studio_2021_01_workspace_RZA2M_ANPR/ANPR_RZA2M_GR_MANGO/src/tensorflow_lite/src/tensorflow/lite/kernels/internal/reference\concatenation.h ****       const Scalar* input_ptr = input_data[i] + k * copy_size;
  65:C:/Renesas/e2studio_2021_01_workspace_RZA2M_ANPR/ANPR_RZA2M_GR_MANGO/src/tensorflow_lite/src/tensorflow/lite/kernels/internal/reference\concatenation.h ****       memcpy(output_ptr, input_ptr, copy_size * sizeof(Scalar));
  66:C:/Renesas/e2studio_2021_01_workspace_RZA2M_ANPR/ANPR_RZA2M_GR_MANGO/src/tensorflow_lite/src/tensorflow/lite/kernels/internal/reference\concatenation.h ****       output_ptr += copy_size;
  67:C:/Renesas/e2studio_2021_01_workspace_RZA2M_ANPR/ANPR_RZA2M_GR_MANGO/src/tensorflow_lite/src/tensorflow/lite/kernels/internal/reference\concatenation.h ****     }
  68:C:/Renesas/e2studio_2021_01_workspace_RZA2M_ANPR/ANPR_RZA2M_GR_MANGO/src/tensorflow_lite/src/tensorflow/lite/kernels/internal/reference\concatenation.h ****   }
  69:C:/Renesas/e2studio_2021_01_workspace_RZA2M_ANPR/ANPR_RZA2M_GR_MANGO/src/tensorflow_lite/src/tensorflow/lite/kernels/internal/reference\concatenation.h **** }
  70:C:/Renesas/e2studio_2021_01_workspace_RZA2M_ANPR/ANPR_RZA2M_GR_MANGO/src/tensorflow_lite/src/tensorflow/lite/kernels/internal/reference\concatenation.h **** 
  71:C:/Renesas/e2studio_2021_01_workspace_RZA2M_ANPR/ANPR_RZA2M_GR_MANGO/src/tensorflow_lite/src/tensorflow/lite/kernels/internal/reference\concatenation.h **** // TODO(b/174275780): The quantized implementation of concatentation isn't fully
  72:C:/Renesas/e2studio_2021_01_workspace_RZA2M_ANPR/ANPR_RZA2M_GR_MANGO/src/tensorflow_lite/src/tensorflow/lite/kernels/internal/reference\concatenation.h **** // quantized as it takes scale as a floating point value. This should be fixed
  73:C:/Renesas/e2studio_2021_01_workspace_RZA2M_ANPR/ANPR_RZA2M_GR_MANGO/src/tensorflow_lite/src/tensorflow/lite/kernels/internal/reference\concatenation.h **** // when optimizng this routine further.
  74:C:/Renesas/e2studio_2021_01_workspace_RZA2M_ANPR/ANPR_RZA2M_GR_MANGO/src/tensorflow_lite/src/tensorflow/lite/kernels/internal/reference\concatenation.h **** inline void ConcatenationWithScaling(const ConcatenationParams& params,
  75:C:/Renesas/e2studio_2021_01_workspace_RZA2M_ANPR/ANPR_RZA2M_GR_MANGO/src/tensorflow_lite/src/tensorflow/lite/kernels/internal/reference\concatenation.h ****                                      const RuntimeShape* const* input_shapes,
  76:C:/Renesas/e2studio_2021_01_workspace_RZA2M_ANPR/ANPR_RZA2M_GR_MANGO/src/tensorflow_lite/src/tensorflow/lite/kernels/internal/reference\concatenation.h ****                                      const uint8_t* const* input_data,
  77:C:/Renesas/e2studio_2021_01_workspace_RZA2M_ANPR/ANPR_RZA2M_GR_MANGO/src/tensorflow_lite/src/tensorflow/lite/kernels/internal/reference\concatenation.h ****                                      const RuntimeShape& output_shape,
  78:C:/Renesas/e2studio_2021_01_workspace_RZA2M_ANPR/ANPR_RZA2M_GR_MANGO/src/tensorflow_lite/src/tensorflow/lite/kernels/internal/reference\concatenation.h ****                                      uint8_t* output_data) {
  79:C:/Renesas/e2studio_2021_01_workspace_RZA2M_ANPR/ANPR_RZA2M_GR_MANGO/src/tensorflow_lite/src/tensorflow/lite/kernels/internal/reference\concatenation.h ****   int axis = params.axis;
 1138              		.loc 5 79 0
 1139 0294 D030D4E1 		ldrsb	r3, [r4]
 1140              	.LBE471:
 1141              	.LBE470:
 1142              	.LBB645:
 1143              	.LBB646:
  56:C:/Renesas/e2studio_2021_01_workspace_RZA2M_ANPR/ANPR_RZA2M_GR_MANGO/src/tensorflow_lite/src/tensorflow/lite/micro/kernels\kernel_util.h **** }
 1144              		.loc 4 56 0
 1145 0298 00005AE3 		cmp	r10, #0
 1146              	.LBE646:
 1147              	.LBE645:
 1148              	.LBB648:
 1149              	.LBB638:
  80:C:/Renesas/e2studio_2021_01_workspace_RZA2M_ANPR/ANPR_RZA2M_GR_MANGO/src/tensorflow_lite/src/tensorflow/lite/kernels/internal/reference\concatenation.h ****   const int32_t* input_zeropoint = params.input_zeropoint;
 1150              		.loc 5 80 0
 1151 029c 042094E5 		ldr	r2, [r4, #4]
 1152 02a0 50E09DE5 		ldr	lr, [sp, #80]
 1153              	.LBE638:
 1154              	.LBE648:
 1155              	.LBB649:
 1156              	.LBB647:
  56:C:/Renesas/e2studio_2021_01_workspace_RZA2M_ANPR/ANPR_RZA2M_GR_MANGO/src/tensorflow_lite/src/tensorflow/lite/micro/kernels\kernel_util.h **** }
 1157              		.loc 4 56 0
 1158 02a4 00A09A15 		ldrne	r10, [r10]
 1159              	.LVL138:
 1160              	.LBE647:
 1161              	.LBE649:
 1162              	.LBB650:
 1163              	.LBB639:
  79:C:/Renesas/e2studio_2021_01_workspace_RZA2M_ANPR/ANPR_RZA2M_GR_MANGO/src/tensorflow_lite/src/tensorflow/lite/kernels/internal/reference\concatenation.h ****   const int32_t* input_zeropoint = params.input_zeropoint;
 1164              		.loc 5 79 0
 1165 02a8 0C308DE5 		str	r3, [sp, #12]
 1166              	.LVL139:
 1167              		.loc 5 80 0
 1168 02ac 48208DE5 		str	r2, [sp, #72]
 1169              	.LVL140:
  81:C:/Renesas/e2studio_2021_01_workspace_RZA2M_ANPR/ANPR_RZA2M_GR_MANGO/src/tensorflow_lite/src/tensorflow/lite/kernels/internal/reference\concatenation.h ****   const float* input_scale = params.input_scale;
  82:C:/Renesas/e2studio_2021_01_workspace_RZA2M_ANPR/ANPR_RZA2M_GR_MANGO/src/tensorflow_lite/src/tensorflow/lite/kernels/internal/reference\concatenation.h ****   int inputs_count = params.inputs_count;
  83:C:/Renesas/e2studio_2021_01_workspace_RZA2M_ANPR/ANPR_RZA2M_GR_MANGO/src/tensorflow_lite/src/tensorflow/lite/kernels/internal/reference\concatenation.h ****   const int32_t output_zeropoint = params.output_zeropoint;
  84:C:/Renesas/e2studio_2021_01_workspace_RZA2M_ANPR/ANPR_RZA2M_GR_MANGO/src/tensorflow_lite/src/tensorflow/lite/kernels/internal/reference\concatenation.h ****   const float output_scale = params.output_scale;
  85:C:/Renesas/e2studio_2021_01_workspace_RZA2M_ANPR/ANPR_RZA2M_GR_MANGO/src/tensorflow_lite/src/tensorflow/lite/kernels/internal/reference\concatenation.h **** 
  86:C:/Renesas/e2studio_2021_01_workspace_RZA2M_ANPR/ANPR_RZA2M_GR_MANGO/src/tensorflow_lite/src/tensorflow/lite/kernels/internal/reference\concatenation.h ****   const int concat_dimensions = output_shape.DimensionsCount();
  87:C:/Renesas/e2studio_2021_01_workspace_RZA2M_ANPR/ANPR_RZA2M_GR_MANGO/src/tensorflow_lite/src/tensorflow/lite/kernels/internal/reference\concatenation.h ****   TFLITE_DCHECK_LT(axis, concat_dimensions);
 1170              		.loc 5 87 0
 1171 02b0 0E0053E1 		cmp	r3, lr
  81:C:/Renesas/e2studio_2021_01_workspace_RZA2M_ANPR/ANPR_RZA2M_GR_MANGO/src/tensorflow_lite/src/tensorflow/lite/kernels/internal/reference\concatenation.h ****   const float* input_scale = params.input_scale;
 1172              		.loc 5 81 0
 1173 02b4 082094E5 		ldr	r2, [r4, #8]
 1174              	.LVL141:
  82:C:/Renesas/e2studio_2021_01_workspace_RZA2M_ANPR/ANPR_RZA2M_GR_MANGO/src/tensorflow_lite/src/tensorflow/lite/kernels/internal/reference\concatenation.h ****   const int32_t output_zeropoint = params.output_zeropoint;
 1175              		.loc 5 82 0
 1176 02b8 BC30D4E1 		ldrh	r3, [r4, #12]
 1177              	.LVL142:
  83:C:/Renesas/e2studio_2021_01_workspace_RZA2M_ANPR/ANPR_RZA2M_GR_MANGO/src/tensorflow_lite/src/tensorflow/lite/kernels/internal/reference\concatenation.h ****   const float output_scale = params.output_scale;
 1178              		.loc 5 83 0
 1179 02bc 109094E5 		ldr	r9, [r4, #16]
  81:C:/Renesas/e2studio_2021_01_workspace_RZA2M_ANPR/ANPR_RZA2M_GR_MANGO/src/tensorflow_lite/src/tensorflow/lite/kernels/internal/reference\concatenation.h ****   const float* input_scale = params.input_scale;
 1180              		.loc 5 81 0
 1181 02c0 4C208DE5 		str	r2, [sp, #76]
 1182              	.LVL143:
  82:C:/Renesas/e2studio_2021_01_workspace_RZA2M_ANPR/ANPR_RZA2M_GR_MANGO/src/tensorflow_lite/src/tensorflow/lite/kernels/internal/reference\concatenation.h ****   const int32_t output_zeropoint = params.output_zeropoint;
 1183              		.loc 5 82 0
 1184 02c4 44308DE5 		str	r3, [sp, #68]
 1185              	.LVL144:
  84:C:/Renesas/e2studio_2021_01_workspace_RZA2M_ANPR/ANPR_RZA2M_GR_MANGO/src/tensorflow_lite/src/tensorflow/lite/kernels/internal/reference\concatenation.h **** 
 1186              		.loc 5 84 0
 1187 02c8 059AD4ED 		vldr.32	s19, [r4, #20]
 1188              	.LVL145:
 1189              		.loc 5 87 0
 1190 02cc A10200AA 		bge	.L92
 1191              	.LVL146:
 1192              	.LBB472:
  88:C:/Renesas/e2studio_2021_01_workspace_RZA2M_ANPR/ANPR_RZA2M_GR_MANGO/src/tensorflow_lite/src/tensorflow/lite/kernels/internal/reference\concatenation.h **** 
  89:C:/Renesas/e2studio_2021_01_workspace_RZA2M_ANPR/ANPR_RZA2M_GR_MANGO/src/tensorflow_lite/src/tensorflow/lite/kernels/internal/reference\concatenation.h ****   int64_t concat_size = 0;
  90:C:/Renesas/e2studio_2021_01_workspace_RZA2M_ANPR/ANPR_RZA2M_GR_MANGO/src/tensorflow_lite/src/tensorflow/lite/kernels/internal/reference\concatenation.h ****   for (int i = 0; i < inputs_count; i++) {
 1193              		.loc 5 90 0
 1194 02d0 000053E3 		cmp	r3, #0
 1195 02d4 5502000A 		beq	.L336
 1196              	.LBB473:
  91:C:/Renesas/e2studio_2021_01_workspace_RZA2M_ANPR/ANPR_RZA2M_GR_MANGO/src/tensorflow_lite/src/tensorflow/lite/kernels/internal/reference\concatenation.h ****     TFLITE_DCHECK_EQ(input_shapes[i]->DimensionsCount(), concat_dimensions);
 1197              		.loc 5 91 0
 1198 02d8 80C09DE5 		ldr	ip, [sp, #128]
 1199 02dc 00209CE5 		ldr	r2, [ip]
 1200              	.LVL147:
 1201 02e0 02005EE1 		cmp	lr, r2
 1202 02e4 9102001A 		bne	.L96
 1203              	.LBB474:
 1204              	.LBB475:
 216:C:/Renesas/e2studio_2021_01_workspace_RZA2M_ANPR/ANPR_RZA2M_GR_MANGO/src/tensorflow_lite/src/tensorflow/lite/kernels/internal\types.h ****   }
 1205              		.loc 3 216 0
 1206 02e8 0C309DE5 		ldr	r3, [sp, #12]
 1207              	.LVL148:
 1208 02ec 80508DE2 		add	r5, sp, #128
 1209              	.LVL149:
 1210              	.LBE475:
 1211              	.LBE474:
 1212              	.LBB480:
 1213              	.LBB481:
 1214              	.LBB482:
 1215              	.LBB483:
 1216              	.LBB484:
 1217 02f0 54709DE5 		ldr	r7, [sp, #84]
 1218              	.LVL150:
 1219 02f4 0080A0E3 		mov	r8, #0
 1220 02f8 24A08DE5 		str	r10, [sp, #36]
 1221 02fc 0000A0E3 		mov	r0, #0
 1222 0300 0340A0E1 		mov	r4, r3
 1223              	.LVL151:
 1224 0304 28908DE5 		str	r9, [sp, #40]
 1225              	.LBE484:
 1226              	.LBE483:
 1227              	.LBE482:
 1228              	.LBE481:
 1229              	.LBE480:
 1230              	.LBB533:
 1231              	.LBB476:
 1232 0308 0311A0E1 		lsl	r1, r3, #2
 1233 030c 0361A0E1 		lsl	r6, r3, #2
 1234              	.LVL152:
 1235 0310 08708DE5 		str	r7, [sp, #8]
 1236 0314 20108DE5 		str	r1, [sp, #32]
 1237 0318 06A0A0E1 		mov	r10, r6
 1238              	.LVL153:
 1239              	.LBE476:
 1240              	.LBE533:
 1241              	.LBB534:
 1242              	.LBB519:
 1243              	.LBB505:
 1244              	.LBB486:
 1245              	.LBB485:
 1246 031c 58109DE5 		ldr	r1, [sp, #88]
 1247 0320 44609DE5 		ldr	r6, [sp, #68]
 1248 0324 00108DE5 		str	r1, [sp]
 1249 0328 5C109DE5 		ldr	r1, [sp, #92]
 1250 032c 10108DE5 		str	r1, [sp, #16]
 1251 0330 60109DE5 		ldr	r1, [sp, #96]
 1252 0334 14108DE5 		str	r1, [sp, #20]
 1253 0338 64109DE5 		ldr	r1, [sp, #100]
 1254 033c 01B0A0E1 		mov	fp, r1
 1255 0340 0010A0E3 		mov	r1, #0
 1256 0344 0B0000EA 		b	.L97
 1257              	.LVL154:
 1258              	.L121:
 1259              	.LBE485:
 1260              	.LBE486:
 1261              	.LBE505:
 1262              	.LBE519:
 1263              	.LBE534:
 1264              	.LBB535:
 1265              	.LBB477:
 1266 0348 0AC08CE0 		add	ip, ip, r10
 1267 034c 04309CE5 		ldr	r3, [ip, #4]
 1268              	.L122:
 1269              	.LBE477:
 1270              	.LBE535:
  92:C:/Renesas/e2studio_2021_01_workspace_RZA2M_ANPR/ANPR_RZA2M_GR_MANGO/src/tensorflow_lite/src/tensorflow/lite/kernels/internal/reference\concatenation.h ****     for (int j = 0; j < concat_dimensions; j++) {
  93:C:/Renesas/e2studio_2021_01_workspace_RZA2M_ANPR/ANPR_RZA2M_GR_MANGO/src/tensorflow_lite/src/tensorflow/lite/kernels/internal/reference\concatenation.h ****       if (j != axis) {
  94:C:/Renesas/e2studio_2021_01_workspace_RZA2M_ANPR/ANPR_RZA2M_GR_MANGO/src/tensorflow_lite/src/tensorflow/lite/kernels/internal/reference\concatenation.h ****         MatchingDim(*input_shapes[i], j, output_shape, j);
  95:C:/Renesas/e2studio_2021_01_workspace_RZA2M_ANPR/ANPR_RZA2M_GR_MANGO/src/tensorflow_lite/src/tensorflow/lite/kernels/internal/reference\concatenation.h ****       }
  96:C:/Renesas/e2studio_2021_01_workspace_RZA2M_ANPR/ANPR_RZA2M_GR_MANGO/src/tensorflow_lite/src/tensorflow/lite/kernels/internal/reference\concatenation.h ****     }
  97:C:/Renesas/e2studio_2021_01_workspace_RZA2M_ANPR/ANPR_RZA2M_GR_MANGO/src/tensorflow_lite/src/tensorflow/lite/kernels/internal/reference\concatenation.h ****     concat_size += input_shapes[i]->Dims(axis);
 1271              		.loc 5 97 0
 1272 0350 030090E0 		adds	r0, r0, r3
 1273              	.LBE473:
  90:C:/Renesas/e2studio_2021_01_workspace_RZA2M_ANPR/ANPR_RZA2M_GR_MANGO/src/tensorflow_lite/src/tensorflow/lite/kernels/internal/reference\concatenation.h ****     TFLITE_DCHECK_EQ(input_shapes[i]->DimensionsCount(), concat_dimensions);
 1274              		.loc 5 90 0
 1275 0354 018088E2 		add	r8, r8, #1
 1276              	.LVL155:
 1277              	.LBB545:
 1278              		.loc 5 97 0
 1279 0358 C31FA1E0 		adc	r1, r1, r3, asr #31
 1280              	.LVL156:
 1281              	.LBE545:
  90:C:/Renesas/e2studio_2021_01_workspace_RZA2M_ANPR/ANPR_RZA2M_GR_MANGO/src/tensorflow_lite/src/tensorflow/lite/kernels/internal/reference\concatenation.h ****     TFLITE_DCHECK_EQ(input_shapes[i]->DimensionsCount(), concat_dimensions);
 1282              		.loc 5 90 0
 1283 035c 080056E1 		cmp	r6, r8
 1284 0360 9E0000DA 		ble	.L337
 1285              	.LVL157:
 1286              	.LBB546:
  91:C:/Renesas/e2studio_2021_01_workspace_RZA2M_ANPR/ANPR_RZA2M_GR_MANGO/src/tensorflow_lite/src/tensorflow/lite/kernels/internal/reference\concatenation.h ****     for (int j = 0; j < concat_dimensions; j++) {
 1287              		.loc 5 91 0
 1288 0364 04C0B5E5 		ldr	ip, [r5, #4]!
 1289              	.LVL158:
 1290 0368 00309CE5 		ldr	r3, [ip]
 1291 036c 03005EE1 		cmp	lr, r3
 1292 0370 6E02001A 		bne	.L96
 1293 0374 0E20A0E1 		mov	r2, lr
 1294              	.LVL159:
 1295              	.L97:
 1296              	.LBB536:
  92:C:/Renesas/e2studio_2021_01_workspace_RZA2M_ANPR/ANPR_RZA2M_GR_MANGO/src/tensorflow_lite/src/tensorflow/lite/kernels/internal/reference\concatenation.h ****     for (int j = 0; j < concat_dimensions; j++) {
 1297              		.loc 5 92 0
 1298 0378 00005EE3 		cmp	lr, #0
 1299 037c 320000DA 		ble	.L106
 1300 0380 05005EE3 		cmp	lr, #5
 1301 0384 380000CA 		bgt	.L101
 1302 0388 050052E3 		cmp	r2, #5
 1303 038c 4D0000CA 		bgt	.L102
  93:C:/Renesas/e2studio_2021_01_workspace_RZA2M_ANPR/ANPR_RZA2M_GR_MANGO/src/tensorflow_lite/src/tensorflow/lite/kernels/internal/reference\concatenation.h ****         MatchingDim(*input_shapes[i], j, output_shape, j);
 1304              		.loc 5 93 0
 1305 0390 000054E3 		cmp	r4, #0
 1306 0394 6C02000A 		beq	.L103
 1307              	.LVL160:
 1308              	.LBB520:
 1309              	.LBB506:
 1310              	.LBB487:
 1311              	.LBB488:
 215:C:/Renesas/e2studio_2021_01_workspace_RZA2M_ANPR/ANPR_RZA2M_GR_MANGO/src/tensorflow_lite/src/tensorflow/lite/kernels/internal\types.h ****     return size_ > kMaxSmallSize ? dims_pointer_[i] : dims_[i];
 1312              		.loc 3 215 0
 1313 0398 000052E3 		cmp	r2, #0
 1314 039c 290200DA 		ble	.L104
 1315              	.LVL161:
 1316              	.LBE488:
 1317              	.LBE487:
 259:C:/Renesas/e2studio_2021_01_workspace_RZA2M_ANPR/ANPR_RZA2M_GR_MANGO/src/tensorflow_lite/src/tensorflow/lite/kernels/internal\types.h ****   }
 260:C:/Renesas/e2studio_2021_01_workspace_RZA2M_ANPR/ANPR_RZA2M_GR_MANGO/src/tensorflow_lite/src/tensorflow/lite/kernels/internal\types.h **** 
 261:C:/Renesas/e2studio_2021_01_workspace_RZA2M_ANPR/ANPR_RZA2M_GR_MANGO/src/tensorflow_lite/src/tensorflow/lite/kernels/internal\types.h ****   template <typename T>
 262:C:/Renesas/e2studio_2021_01_workspace_RZA2M_ANPR/ANPR_RZA2M_GR_MANGO/src/tensorflow_lite/src/tensorflow/lite/kernels/internal\types.h ****   inline void BuildFrom(const T& src_iterable) {
 263:C:/Renesas/e2studio_2021_01_workspace_RZA2M_ANPR/ANPR_RZA2M_GR_MANGO/src/tensorflow_lite/src/tensorflow/lite/kernels/internal\types.h ****     const int dimensions_count =
 264:C:/Renesas/e2studio_2021_01_workspace_RZA2M_ANPR/ANPR_RZA2M_GR_MANGO/src/tensorflow_lite/src/tensorflow/lite/kernels/internal\types.h ****         std::distance(src_iterable.begin(), src_iterable.end());
 265:C:/Renesas/e2studio_2021_01_workspace_RZA2M_ANPR/ANPR_RZA2M_GR_MANGO/src/tensorflow_lite/src/tensorflow/lite/kernels/internal\types.h ****     Resize(dimensions_count);
 266:C:/Renesas/e2studio_2021_01_workspace_RZA2M_ANPR/ANPR_RZA2M_GR_MANGO/src/tensorflow_lite/src/tensorflow/lite/kernels/internal\types.h ****     int32_t* data = DimsData();
 267:C:/Renesas/e2studio_2021_01_workspace_RZA2M_ANPR/ANPR_RZA2M_GR_MANGO/src/tensorflow_lite/src/tensorflow/lite/kernels/internal\types.h ****     for (auto it : src_iterable) {
 268:C:/Renesas/e2studio_2021_01_workspace_RZA2M_ANPR/ANPR_RZA2M_GR_MANGO/src/tensorflow_lite/src/tensorflow/lite/kernels/internal\types.h ****       *data = it;
 269:C:/Renesas/e2studio_2021_01_workspace_RZA2M_ANPR/ANPR_RZA2M_GR_MANGO/src/tensorflow_lite/src/tensorflow/lite/kernels/internal\types.h ****       ++data;
 270:C:/Renesas/e2studio_2021_01_workspace_RZA2M_ANPR/ANPR_RZA2M_GR_MANGO/src/tensorflow_lite/src/tensorflow/lite/kernels/internal\types.h ****     }
 271:C:/Renesas/e2studio_2021_01_workspace_RZA2M_ANPR/ANPR_RZA2M_GR_MANGO/src/tensorflow_lite/src/tensorflow/lite/kernels/internal\types.h ****   }
 272:C:/Renesas/e2studio_2021_01_workspace_RZA2M_ANPR/ANPR_RZA2M_GR_MANGO/src/tensorflow_lite/src/tensorflow/lite/kernels/internal\types.h **** 
 273:C:/Renesas/e2studio_2021_01_workspace_RZA2M_ANPR/ANPR_RZA2M_GR_MANGO/src/tensorflow_lite/src/tensorflow/lite/kernels/internal\types.h ****   // This will probably be factored out. Old code made substantial use of 4-D
 274:C:/Renesas/e2studio_2021_01_workspace_RZA2M_ANPR/ANPR_RZA2M_GR_MANGO/src/tensorflow_lite/src/tensorflow/lite/kernels/internal\types.h ****   // shapes, and so this function is used to extend smaller shapes. Note that
 275:C:/Renesas/e2studio_2021_01_workspace_RZA2M_ANPR/ANPR_RZA2M_GR_MANGO/src/tensorflow_lite/src/tensorflow/lite/kernels/internal\types.h ****   // (a) as Dims<4>-dependent code is eliminated, the reliance on this should be
 276:C:/Renesas/e2studio_2021_01_workspace_RZA2M_ANPR/ANPR_RZA2M_GR_MANGO/src/tensorflow_lite/src/tensorflow/lite/kernels/internal\types.h ****   // reduced, and (b) some kernels are stricly 4-D, but then the shapes of their
 277:C:/Renesas/e2studio_2021_01_workspace_RZA2M_ANPR/ANPR_RZA2M_GR_MANGO/src/tensorflow_lite/src/tensorflow/lite/kernels/internal\types.h ****   // inputs should already be 4-D, so this function should not be needed.
 278:C:/Renesas/e2studio_2021_01_workspace_RZA2M_ANPR/ANPR_RZA2M_GR_MANGO/src/tensorflow_lite/src/tensorflow/lite/kernels/internal\types.h ****   inline static RuntimeShape ExtendedShape(int new_shape_size,
 279:C:/Renesas/e2studio_2021_01_workspace_RZA2M_ANPR/ANPR_RZA2M_GR_MANGO/src/tensorflow_lite/src/tensorflow/lite/kernels/internal\types.h ****                                            const RuntimeShape& shape) {
 280:C:/Renesas/e2studio_2021_01_workspace_RZA2M_ANPR/ANPR_RZA2M_GR_MANGO/src/tensorflow_lite/src/tensorflow/lite/kernels/internal\types.h ****     return RuntimeShape(new_shape_size, shape, 1);
 281:C:/Renesas/e2studio_2021_01_workspace_RZA2M_ANPR/ANPR_RZA2M_GR_MANGO/src/tensorflow_lite/src/tensorflow/lite/kernels/internal\types.h ****   }
 282:C:/Renesas/e2studio_2021_01_workspace_RZA2M_ANPR/ANPR_RZA2M_GR_MANGO/src/tensorflow_lite/src/tensorflow/lite/kernels/internal\types.h **** 
 283:C:/Renesas/e2studio_2021_01_workspace_RZA2M_ANPR/ANPR_RZA2M_GR_MANGO/src/tensorflow_lite/src/tensorflow/lite/kernels/internal\types.h ****   inline void BuildFrom(const std::initializer_list<int> init_list) {
 284:C:/Renesas/e2studio_2021_01_workspace_RZA2M_ANPR/ANPR_RZA2M_GR_MANGO/src/tensorflow_lite/src/tensorflow/lite/kernels/internal\types.h ****     BuildFrom<const std::initializer_list<int>>(init_list);
 285:C:/Renesas/e2studio_2021_01_workspace_RZA2M_ANPR/ANPR_RZA2M_GR_MANGO/src/tensorflow_lite/src/tensorflow/lite/kernels/internal\types.h ****   }
 286:C:/Renesas/e2studio_2021_01_workspace_RZA2M_ANPR/ANPR_RZA2M_GR_MANGO/src/tensorflow_lite/src/tensorflow/lite/kernels/internal\types.h **** 
 287:C:/Renesas/e2studio_2021_01_workspace_RZA2M_ANPR/ANPR_RZA2M_GR_MANGO/src/tensorflow_lite/src/tensorflow/lite/kernels/internal\types.h ****   // Returns the total count of elements, that is the size when flattened into a
 288:C:/Renesas/e2studio_2021_01_workspace_RZA2M_ANPR/ANPR_RZA2M_GR_MANGO/src/tensorflow_lite/src/tensorflow/lite/kernels/internal\types.h ****   // vector.
 289:C:/Renesas/e2studio_2021_01_workspace_RZA2M_ANPR/ANPR_RZA2M_GR_MANGO/src/tensorflow_lite/src/tensorflow/lite/kernels/internal\types.h ****   inline int FlatSize() const {
 290:C:/Renesas/e2studio_2021_01_workspace_RZA2M_ANPR/ANPR_RZA2M_GR_MANGO/src/tensorflow_lite/src/tensorflow/lite/kernels/internal\types.h ****     int buffer_size = 1;
 291:C:/Renesas/e2studio_2021_01_workspace_RZA2M_ANPR/ANPR_RZA2M_GR_MANGO/src/tensorflow_lite/src/tensorflow/lite/kernels/internal\types.h ****     const int* dims_data = reinterpret_cast<const int*>(DimsData());
 292:C:/Renesas/e2studio_2021_01_workspace_RZA2M_ANPR/ANPR_RZA2M_GR_MANGO/src/tensorflow_lite/src/tensorflow/lite/kernels/internal\types.h ****     for (int i = 0; i < size_; i++) {
 293:C:/Renesas/e2studio_2021_01_workspace_RZA2M_ANPR/ANPR_RZA2M_GR_MANGO/src/tensorflow_lite/src/tensorflow/lite/kernels/internal\types.h ****       buffer_size *= dims_data[i];
 294:C:/Renesas/e2studio_2021_01_workspace_RZA2M_ANPR/ANPR_RZA2M_GR_MANGO/src/tensorflow_lite/src/tensorflow/lite/kernels/internal\types.h ****     }
 295:C:/Renesas/e2studio_2021_01_workspace_RZA2M_ANPR/ANPR_RZA2M_GR_MANGO/src/tensorflow_lite/src/tensorflow/lite/kernels/internal\types.h ****     return buffer_size;
 296:C:/Renesas/e2studio_2021_01_workspace_RZA2M_ANPR/ANPR_RZA2M_GR_MANGO/src/tensorflow_lite/src/tensorflow/lite/kernels/internal\types.h ****   }
 297:C:/Renesas/e2studio_2021_01_workspace_RZA2M_ANPR/ANPR_RZA2M_GR_MANGO/src/tensorflow_lite/src/tensorflow/lite/kernels/internal\types.h **** 
 298:C:/Renesas/e2studio_2021_01_workspace_RZA2M_ANPR/ANPR_RZA2M_GR_MANGO/src/tensorflow_lite/src/tensorflow/lite/kernels/internal\types.h ****   bool operator!=(const RuntimeShape& comp) const { return !((*this) == comp); }
 299:C:/Renesas/e2studio_2021_01_workspace_RZA2M_ANPR/ANPR_RZA2M_GR_MANGO/src/tensorflow_lite/src/tensorflow/lite/kernels/internal\types.h **** 
 300:C:/Renesas/e2studio_2021_01_workspace_RZA2M_ANPR/ANPR_RZA2M_GR_MANGO/src/tensorflow_lite/src/tensorflow/lite/kernels/internal\types.h ****  private:
 301:C:/Renesas/e2studio_2021_01_workspace_RZA2M_ANPR/ANPR_RZA2M_GR_MANGO/src/tensorflow_lite/src/tensorflow/lite/kernels/internal\types.h ****   // For use only by ExtendedShape(), written to guarantee (return-value) copy
 302:C:/Renesas/e2studio_2021_01_workspace_RZA2M_ANPR/ANPR_RZA2M_GR_MANGO/src/tensorflow_lite/src/tensorflow/lite/kernels/internal\types.h ****   // elision in C++17.
 303:C:/Renesas/e2studio_2021_01_workspace_RZA2M_ANPR/ANPR_RZA2M_GR_MANGO/src/tensorflow_lite/src/tensorflow/lite/kernels/internal\types.h ****   // This creates a shape padded to the desired size with the specified value.
 304:C:/Renesas/e2studio_2021_01_workspace_RZA2M_ANPR/ANPR_RZA2M_GR_MANGO/src/tensorflow_lite/src/tensorflow/lite/kernels/internal\types.h ****   RuntimeShape(int new_shape_size, const RuntimeShape& shape, int pad_value)
 305:C:/Renesas/e2studio_2021_01_workspace_RZA2M_ANPR/ANPR_RZA2M_GR_MANGO/src/tensorflow_lite/src/tensorflow/lite/kernels/internal\types.h ****       : size_(0) {
 306:C:/Renesas/e2studio_2021_01_workspace_RZA2M_ANPR/ANPR_RZA2M_GR_MANGO/src/tensorflow_lite/src/tensorflow/lite/kernels/internal\types.h ****     // If the following check fails, it is likely because a 4D-only kernel is
 307:C:/Renesas/e2studio_2021_01_workspace_RZA2M_ANPR/ANPR_RZA2M_GR_MANGO/src/tensorflow_lite/src/tensorflow/lite/kernels/internal\types.h ****     // being used with an array of larger dimension count.
 308:C:/Renesas/e2studio_2021_01_workspace_RZA2M_ANPR/ANPR_RZA2M_GR_MANGO/src/tensorflow_lite/src/tensorflow/lite/kernels/internal\types.h ****     TFLITE_CHECK_GE(new_shape_size, shape.DimensionsCount());
 309:C:/Renesas/e2studio_2021_01_workspace_RZA2M_ANPR/ANPR_RZA2M_GR_MANGO/src/tensorflow_lite/src/tensorflow/lite/kernels/internal\types.h ****     Resize(new_shape_size);
 310:C:/Renesas/e2studio_2021_01_workspace_RZA2M_ANPR/ANPR_RZA2M_GR_MANGO/src/tensorflow_lite/src/tensorflow/lite/kernels/internal\types.h ****     const int size_increase = new_shape_size - shape.DimensionsCount();
 311:C:/Renesas/e2studio_2021_01_workspace_RZA2M_ANPR/ANPR_RZA2M_GR_MANGO/src/tensorflow_lite/src/tensorflow/lite/kernels/internal\types.h ****     for (int i = 0; i < size_increase; ++i) {
 312:C:/Renesas/e2studio_2021_01_workspace_RZA2M_ANPR/ANPR_RZA2M_GR_MANGO/src/tensorflow_lite/src/tensorflow/lite/kernels/internal\types.h ****       SetDim(i, pad_value);
 313:C:/Renesas/e2studio_2021_01_workspace_RZA2M_ANPR/ANPR_RZA2M_GR_MANGO/src/tensorflow_lite/src/tensorflow/lite/kernels/internal\types.h ****     }
 314:C:/Renesas/e2studio_2021_01_workspace_RZA2M_ANPR/ANPR_RZA2M_GR_MANGO/src/tensorflow_lite/src/tensorflow/lite/kernels/internal\types.h ****     std::memcpy(DimsData() + size_increase, shape.DimsData(),
 315:C:/Renesas/e2studio_2021_01_workspace_RZA2M_ANPR/ANPR_RZA2M_GR_MANGO/src/tensorflow_lite/src/tensorflow/lite/kernels/internal\types.h ****                 sizeof(int32_t) * shape.DimensionsCount());
 316:C:/Renesas/e2studio_2021_01_workspace_RZA2M_ANPR/ANPR_RZA2M_GR_MANGO/src/tensorflow_lite/src/tensorflow/lite/kernels/internal\types.h ****   }
 317:C:/Renesas/e2studio_2021_01_workspace_RZA2M_ANPR/ANPR_RZA2M_GR_MANGO/src/tensorflow_lite/src/tensorflow/lite/kernels/internal\types.h **** 
 318:C:/Renesas/e2studio_2021_01_workspace_RZA2M_ANPR/ANPR_RZA2M_GR_MANGO/src/tensorflow_lite/src/tensorflow/lite/kernels/internal\types.h ****   int32_t size_;
 319:C:/Renesas/e2studio_2021_01_workspace_RZA2M_ANPR/ANPR_RZA2M_GR_MANGO/src/tensorflow_lite/src/tensorflow/lite/kernels/internal\types.h ****   union {
 320:C:/Renesas/e2studio_2021_01_workspace_RZA2M_ANPR/ANPR_RZA2M_GR_MANGO/src/tensorflow_lite/src/tensorflow/lite/kernels/internal\types.h ****     int32_t dims_[kMaxSmallSize];
 321:C:/Renesas/e2studio_2021_01_workspace_RZA2M_ANPR/ANPR_RZA2M_GR_MANGO/src/tensorflow_lite/src/tensorflow/lite/kernels/internal\types.h ****     int32_t* dims_pointer_;
 322:C:/Renesas/e2studio_2021_01_workspace_RZA2M_ANPR/ANPR_RZA2M_GR_MANGO/src/tensorflow_lite/src/tensorflow/lite/kernels/internal\types.h ****   };
 323:C:/Renesas/e2studio_2021_01_workspace_RZA2M_ANPR/ANPR_RZA2M_GR_MANGO/src/tensorflow_lite/src/tensorflow/lite/kernels/internal\types.h **** };
 324:C:/Renesas/e2studio_2021_01_workspace_RZA2M_ANPR/ANPR_RZA2M_GR_MANGO/src/tensorflow_lite/src/tensorflow/lite/kernels/internal\types.h **** 
 325:C:/Renesas/e2studio_2021_01_workspace_RZA2M_ANPR/ANPR_RZA2M_GR_MANGO/src/tensorflow_lite/src/tensorflow/lite/kernels/internal\types.h **** // Converts inference-style shape to legacy tflite::Dims<4>.
 326:C:/Renesas/e2studio_2021_01_workspace_RZA2M_ANPR/ANPR_RZA2M_GR_MANGO/src/tensorflow_lite/src/tensorflow/lite/kernels/internal\types.h **** inline tflite::Dims<4> ToRuntimeDims(const tflite::RuntimeShape& array_shape) {
 327:C:/Renesas/e2studio_2021_01_workspace_RZA2M_ANPR/ANPR_RZA2M_GR_MANGO/src/tensorflow_lite/src/tensorflow/lite/kernels/internal\types.h ****   tflite::Dims<4> result;
 328:C:/Renesas/e2studio_2021_01_workspace_RZA2M_ANPR/ANPR_RZA2M_GR_MANGO/src/tensorflow_lite/src/tensorflow/lite/kernels/internal\types.h ****   const int dimensions_count = array_shape.DimensionsCount();
 329:C:/Renesas/e2studio_2021_01_workspace_RZA2M_ANPR/ANPR_RZA2M_GR_MANGO/src/tensorflow_lite/src/tensorflow/lite/kernels/internal\types.h ****   TFLITE_CHECK_LE(dimensions_count, 4);
 330:C:/Renesas/e2studio_2021_01_workspace_RZA2M_ANPR/ANPR_RZA2M_GR_MANGO/src/tensorflow_lite/src/tensorflow/lite/kernels/internal\types.h ****   int cum_prod = 1;
 331:C:/Renesas/e2studio_2021_01_workspace_RZA2M_ANPR/ANPR_RZA2M_GR_MANGO/src/tensorflow_lite/src/tensorflow/lite/kernels/internal\types.h ****   for (int i = 0; i < 4; i++) {
 332:C:/Renesas/e2studio_2021_01_workspace_RZA2M_ANPR/ANPR_RZA2M_GR_MANGO/src/tensorflow_lite/src/tensorflow/lite/kernels/internal\types.h ****     const int new_dim =
 333:C:/Renesas/e2studio_2021_01_workspace_RZA2M_ANPR/ANPR_RZA2M_GR_MANGO/src/tensorflow_lite/src/tensorflow/lite/kernels/internal\types.h ****         (i < dimensions_count) ? array_shape.Dims(dimensions_count - 1 - i) : 1;
 334:C:/Renesas/e2studio_2021_01_workspace_RZA2M_ANPR/ANPR_RZA2M_GR_MANGO/src/tensorflow_lite/src/tensorflow/lite/kernels/internal\types.h ****     result.sizes[i] = new_dim;
 335:C:/Renesas/e2studio_2021_01_workspace_RZA2M_ANPR/ANPR_RZA2M_GR_MANGO/src/tensorflow_lite/src/tensorflow/lite/kernels/internal\types.h ****     result.strides[i] = cum_prod;
 336:C:/Renesas/e2studio_2021_01_workspace_RZA2M_ANPR/ANPR_RZA2M_GR_MANGO/src/tensorflow_lite/src/tensorflow/lite/kernels/internal\types.h ****     cum_prod *= new_dim;
 337:C:/Renesas/e2studio_2021_01_workspace_RZA2M_ANPR/ANPR_RZA2M_GR_MANGO/src/tensorflow_lite/src/tensorflow/lite/kernels/internal\types.h ****   }
 338:C:/Renesas/e2studio_2021_01_workspace_RZA2M_ANPR/ANPR_RZA2M_GR_MANGO/src/tensorflow_lite/src/tensorflow/lite/kernels/internal\types.h ****   return result;
 339:C:/Renesas/e2studio_2021_01_workspace_RZA2M_ANPR/ANPR_RZA2M_GR_MANGO/src/tensorflow_lite/src/tensorflow/lite/kernels/internal\types.h **** }
 340:C:/Renesas/e2studio_2021_01_workspace_RZA2M_ANPR/ANPR_RZA2M_GR_MANGO/src/tensorflow_lite/src/tensorflow/lite/kernels/internal\types.h **** 
 341:C:/Renesas/e2studio_2021_01_workspace_RZA2M_ANPR/ANPR_RZA2M_GR_MANGO/src/tensorflow_lite/src/tensorflow/lite/kernels/internal\types.h **** // TODO(b/80418076): Move to legacy ops file, update invocations.
 342:C:/Renesas/e2studio_2021_01_workspace_RZA2M_ANPR/ANPR_RZA2M_GR_MANGO/src/tensorflow_lite/src/tensorflow/lite/kernels/internal\types.h **** inline RuntimeShape DimsToShape(const tflite::Dims<4>& dims) {
 343:C:/Renesas/e2studio_2021_01_workspace_RZA2M_ANPR/ANPR_RZA2M_GR_MANGO/src/tensorflow_lite/src/tensorflow/lite/kernels/internal\types.h ****   return RuntimeShape(
 344:C:/Renesas/e2studio_2021_01_workspace_RZA2M_ANPR/ANPR_RZA2M_GR_MANGO/src/tensorflow_lite/src/tensorflow/lite/kernels/internal\types.h ****       {dims.sizes[3], dims.sizes[2], dims.sizes[1], dims.sizes[0]});
 345:C:/Renesas/e2studio_2021_01_workspace_RZA2M_ANPR/ANPR_RZA2M_GR_MANGO/src/tensorflow_lite/src/tensorflow/lite/kernels/internal\types.h **** }
 346:C:/Renesas/e2studio_2021_01_workspace_RZA2M_ANPR/ANPR_RZA2M_GR_MANGO/src/tensorflow_lite/src/tensorflow/lite/kernels/internal\types.h **** 
 347:C:/Renesas/e2studio_2021_01_workspace_RZA2M_ANPR/ANPR_RZA2M_GR_MANGO/src/tensorflow_lite/src/tensorflow/lite/kernels/internal\types.h **** // Gets next index to iterate through a multidimensional array.
 348:C:/Renesas/e2studio_2021_01_workspace_RZA2M_ANPR/ANPR_RZA2M_GR_MANGO/src/tensorflow_lite/src/tensorflow/lite/kernels/internal\types.h **** inline bool NextIndex(const int num_dims, const int* dims, int* current) {
 349:C:/Renesas/e2studio_2021_01_workspace_RZA2M_ANPR/ANPR_RZA2M_GR_MANGO/src/tensorflow_lite/src/tensorflow/lite/kernels/internal\types.h ****   if (num_dims == 0) {
 350:C:/Renesas/e2studio_2021_01_workspace_RZA2M_ANPR/ANPR_RZA2M_GR_MANGO/src/tensorflow_lite/src/tensorflow/lite/kernels/internal\types.h ****     return false;
 351:C:/Renesas/e2studio_2021_01_workspace_RZA2M_ANPR/ANPR_RZA2M_GR_MANGO/src/tensorflow_lite/src/tensorflow/lite/kernels/internal\types.h ****   }
 352:C:/Renesas/e2studio_2021_01_workspace_RZA2M_ANPR/ANPR_RZA2M_GR_MANGO/src/tensorflow_lite/src/tensorflow/lite/kernels/internal\types.h ****   TFLITE_DCHECK(dims != nullptr);
 353:C:/Renesas/e2studio_2021_01_workspace_RZA2M_ANPR/ANPR_RZA2M_GR_MANGO/src/tensorflow_lite/src/tensorflow/lite/kernels/internal\types.h ****   TFLITE_DCHECK(current != nullptr);
 354:C:/Renesas/e2studio_2021_01_workspace_RZA2M_ANPR/ANPR_RZA2M_GR_MANGO/src/tensorflow_lite/src/tensorflow/lite/kernels/internal\types.h ****   int carry = 1;
 355:C:/Renesas/e2studio_2021_01_workspace_RZA2M_ANPR/ANPR_RZA2M_GR_MANGO/src/tensorflow_lite/src/tensorflow/lite/kernels/internal\types.h ****   for (int idx = num_dims - 1; idx >= 0; --idx) {
 356:C:/Renesas/e2studio_2021_01_workspace_RZA2M_ANPR/ANPR_RZA2M_GR_MANGO/src/tensorflow_lite/src/tensorflow/lite/kernels/internal\types.h ****     int current_val = current[idx] + carry;
 357:C:/Renesas/e2studio_2021_01_workspace_RZA2M_ANPR/ANPR_RZA2M_GR_MANGO/src/tensorflow_lite/src/tensorflow/lite/kernels/internal\types.h ****     TFLITE_DCHECK_GE(dims[idx], current_val);
 358:C:/Renesas/e2studio_2021_01_workspace_RZA2M_ANPR/ANPR_RZA2M_GR_MANGO/src/tensorflow_lite/src/tensorflow/lite/kernels/internal\types.h ****     if (dims[idx] == current_val) {
 359:C:/Renesas/e2studio_2021_01_workspace_RZA2M_ANPR/ANPR_RZA2M_GR_MANGO/src/tensorflow_lite/src/tensorflow/lite/kernels/internal\types.h ****       current[idx] = 0;
 360:C:/Renesas/e2studio_2021_01_workspace_RZA2M_ANPR/ANPR_RZA2M_GR_MANGO/src/tensorflow_lite/src/tensorflow/lite/kernels/internal\types.h ****     } else {
 361:C:/Renesas/e2studio_2021_01_workspace_RZA2M_ANPR/ANPR_RZA2M_GR_MANGO/src/tensorflow_lite/src/tensorflow/lite/kernels/internal\types.h ****       current[idx] = current_val;
 362:C:/Renesas/e2studio_2021_01_workspace_RZA2M_ANPR/ANPR_RZA2M_GR_MANGO/src/tensorflow_lite/src/tensorflow/lite/kernels/internal\types.h ****       carry = 0;
 363:C:/Renesas/e2studio_2021_01_workspace_RZA2M_ANPR/ANPR_RZA2M_GR_MANGO/src/tensorflow_lite/src/tensorflow/lite/kernels/internal\types.h ****       break;
 364:C:/Renesas/e2studio_2021_01_workspace_RZA2M_ANPR/ANPR_RZA2M_GR_MANGO/src/tensorflow_lite/src/tensorflow/lite/kernels/internal\types.h ****     }
 365:C:/Renesas/e2studio_2021_01_workspace_RZA2M_ANPR/ANPR_RZA2M_GR_MANGO/src/tensorflow_lite/src/tensorflow/lite/kernels/internal\types.h ****   }
 366:C:/Renesas/e2studio_2021_01_workspace_RZA2M_ANPR/ANPR_RZA2M_GR_MANGO/src/tensorflow_lite/src/tensorflow/lite/kernels/internal\types.h ****   return (carry == 0);
 367:C:/Renesas/e2studio_2021_01_workspace_RZA2M_ANPR/ANPR_RZA2M_GR_MANGO/src/tensorflow_lite/src/tensorflow/lite/kernels/internal\types.h **** }
 368:C:/Renesas/e2studio_2021_01_workspace_RZA2M_ANPR/ANPR_RZA2M_GR_MANGO/src/tensorflow_lite/src/tensorflow/lite/kernels/internal\types.h **** 
 369:C:/Renesas/e2studio_2021_01_workspace_RZA2M_ANPR/ANPR_RZA2M_GR_MANGO/src/tensorflow_lite/src/tensorflow/lite/kernels/internal\types.h **** // Gets offset of index if reducing on axis. When reducing, the flattened offset
 370:C:/Renesas/e2studio_2021_01_workspace_RZA2M_ANPR/ANPR_RZA2M_GR_MANGO/src/tensorflow_lite/src/tensorflow/lite/kernels/internal\types.h **** // will not change, if the input index changes on the given axis. For example,
 371:C:/Renesas/e2studio_2021_01_workspace_RZA2M_ANPR/ANPR_RZA2M_GR_MANGO/src/tensorflow_lite/src/tensorflow/lite/kernels/internal\types.h **** // if you have a 3D tensor and you are reducing to 2D by eliminating axis 0,
 372:C:/Renesas/e2studio_2021_01_workspace_RZA2M_ANPR/ANPR_RZA2M_GR_MANGO/src/tensorflow_lite/src/tensorflow/lite/kernels/internal\types.h **** // then index (0, 1, 2) and index (1, 1, 2) will map to the same flattened
 373:C:/Renesas/e2studio_2021_01_workspace_RZA2M_ANPR/ANPR_RZA2M_GR_MANGO/src/tensorflow_lite/src/tensorflow/lite/kernels/internal\types.h **** // offset.
 374:C:/Renesas/e2studio_2021_01_workspace_RZA2M_ANPR/ANPR_RZA2M_GR_MANGO/src/tensorflow_lite/src/tensorflow/lite/kernels/internal\types.h **** // TODO(kanlig): uses Dims to represent dimensions.
 375:C:/Renesas/e2studio_2021_01_workspace_RZA2M_ANPR/ANPR_RZA2M_GR_MANGO/src/tensorflow_lite/src/tensorflow/lite/kernels/internal\types.h **** inline size_t ReducedOutputOffset(const int num_dims, const int* dims,
 376:C:/Renesas/e2studio_2021_01_workspace_RZA2M_ANPR/ANPR_RZA2M_GR_MANGO/src/tensorflow_lite/src/tensorflow/lite/kernels/internal\types.h ****                                   const int* index, const int num_axis,
 377:C:/Renesas/e2studio_2021_01_workspace_RZA2M_ANPR/ANPR_RZA2M_GR_MANGO/src/tensorflow_lite/src/tensorflow/lite/kernels/internal\types.h ****                                   const int* axis) {
 378:C:/Renesas/e2studio_2021_01_workspace_RZA2M_ANPR/ANPR_RZA2M_GR_MANGO/src/tensorflow_lite/src/tensorflow/lite/kernels/internal\types.h ****   if (num_dims == 0) {
 379:C:/Renesas/e2studio_2021_01_workspace_RZA2M_ANPR/ANPR_RZA2M_GR_MANGO/src/tensorflow_lite/src/tensorflow/lite/kernels/internal\types.h ****     return 0;
 380:C:/Renesas/e2studio_2021_01_workspace_RZA2M_ANPR/ANPR_RZA2M_GR_MANGO/src/tensorflow_lite/src/tensorflow/lite/kernels/internal\types.h ****   }
 381:C:/Renesas/e2studio_2021_01_workspace_RZA2M_ANPR/ANPR_RZA2M_GR_MANGO/src/tensorflow_lite/src/tensorflow/lite/kernels/internal\types.h ****   TFLITE_DCHECK(dims != nullptr);
 382:C:/Renesas/e2studio_2021_01_workspace_RZA2M_ANPR/ANPR_RZA2M_GR_MANGO/src/tensorflow_lite/src/tensorflow/lite/kernels/internal\types.h ****   TFLITE_DCHECK(index != nullptr);
 383:C:/Renesas/e2studio_2021_01_workspace_RZA2M_ANPR/ANPR_RZA2M_GR_MANGO/src/tensorflow_lite/src/tensorflow/lite/kernels/internal\types.h ****   size_t offset = 0;
 384:C:/Renesas/e2studio_2021_01_workspace_RZA2M_ANPR/ANPR_RZA2M_GR_MANGO/src/tensorflow_lite/src/tensorflow/lite/kernels/internal\types.h ****   for (int idx = 0; idx < num_dims; ++idx) {
 385:C:/Renesas/e2studio_2021_01_workspace_RZA2M_ANPR/ANPR_RZA2M_GR_MANGO/src/tensorflow_lite/src/tensorflow/lite/kernels/internal\types.h ****     // if we need to skip this axis
 386:C:/Renesas/e2studio_2021_01_workspace_RZA2M_ANPR/ANPR_RZA2M_GR_MANGO/src/tensorflow_lite/src/tensorflow/lite/kernels/internal\types.h ****     bool is_axis = false;
 387:C:/Renesas/e2studio_2021_01_workspace_RZA2M_ANPR/ANPR_RZA2M_GR_MANGO/src/tensorflow_lite/src/tensorflow/lite/kernels/internal\types.h ****     if (axis != nullptr) {
 388:C:/Renesas/e2studio_2021_01_workspace_RZA2M_ANPR/ANPR_RZA2M_GR_MANGO/src/tensorflow_lite/src/tensorflow/lite/kernels/internal\types.h ****       for (int axis_idx = 0; axis_idx < num_axis; ++axis_idx) {
 389:C:/Renesas/e2studio_2021_01_workspace_RZA2M_ANPR/ANPR_RZA2M_GR_MANGO/src/tensorflow_lite/src/tensorflow/lite/kernels/internal\types.h ****         if (idx == axis[axis_idx]) {
 390:C:/Renesas/e2studio_2021_01_workspace_RZA2M_ANPR/ANPR_RZA2M_GR_MANGO/src/tensorflow_lite/src/tensorflow/lite/kernels/internal\types.h ****           is_axis = true;
 391:C:/Renesas/e2studio_2021_01_workspace_RZA2M_ANPR/ANPR_RZA2M_GR_MANGO/src/tensorflow_lite/src/tensorflow/lite/kernels/internal\types.h ****           break;
 392:C:/Renesas/e2studio_2021_01_workspace_RZA2M_ANPR/ANPR_RZA2M_GR_MANGO/src/tensorflow_lite/src/tensorflow/lite/kernels/internal\types.h ****         }
 393:C:/Renesas/e2studio_2021_01_workspace_RZA2M_ANPR/ANPR_RZA2M_GR_MANGO/src/tensorflow_lite/src/tensorflow/lite/kernels/internal\types.h ****       }
 394:C:/Renesas/e2studio_2021_01_workspace_RZA2M_ANPR/ANPR_RZA2M_GR_MANGO/src/tensorflow_lite/src/tensorflow/lite/kernels/internal\types.h ****     }
 395:C:/Renesas/e2studio_2021_01_workspace_RZA2M_ANPR/ANPR_RZA2M_GR_MANGO/src/tensorflow_lite/src/tensorflow/lite/kernels/internal\types.h ****     if (!is_axis) {
 396:C:/Renesas/e2studio_2021_01_workspace_RZA2M_ANPR/ANPR_RZA2M_GR_MANGO/src/tensorflow_lite/src/tensorflow/lite/kernels/internal\types.h ****       offset = offset * static_cast<size_t>(dims[idx]) +
 397:C:/Renesas/e2studio_2021_01_workspace_RZA2M_ANPR/ANPR_RZA2M_GR_MANGO/src/tensorflow_lite/src/tensorflow/lite/kernels/internal\types.h ****                static_cast<size_t>(index[idx]);
 398:C:/Renesas/e2studio_2021_01_workspace_RZA2M_ANPR/ANPR_RZA2M_GR_MANGO/src/tensorflow_lite/src/tensorflow/lite/kernels/internal\types.h ****     }
 399:C:/Renesas/e2studio_2021_01_workspace_RZA2M_ANPR/ANPR_RZA2M_GR_MANGO/src/tensorflow_lite/src/tensorflow/lite/kernels/internal\types.h ****   }
 400:C:/Renesas/e2studio_2021_01_workspace_RZA2M_ANPR/ANPR_RZA2M_GR_MANGO/src/tensorflow_lite/src/tensorflow/lite/kernels/internal\types.h ****   return offset;
 401:C:/Renesas/e2studio_2021_01_workspace_RZA2M_ANPR/ANPR_RZA2M_GR_MANGO/src/tensorflow_lite/src/tensorflow/lite/kernels/internal\types.h **** }
 402:C:/Renesas/e2studio_2021_01_workspace_RZA2M_ANPR/ANPR_RZA2M_GR_MANGO/src/tensorflow_lite/src/tensorflow/lite/kernels/internal\types.h **** 
 403:C:/Renesas/e2studio_2021_01_workspace_RZA2M_ANPR/ANPR_RZA2M_GR_MANGO/src/tensorflow_lite/src/tensorflow/lite/kernels/internal\types.h **** inline int Offset(const RuntimeShape& shape, int i0, int i1, int i2, int i3) {
 404:C:/Renesas/e2studio_2021_01_workspace_RZA2M_ANPR/ANPR_RZA2M_GR_MANGO/src/tensorflow_lite/src/tensorflow/lite/kernels/internal\types.h ****   TFLITE_DCHECK_EQ(shape.DimensionsCount(), 4);
 405:C:/Renesas/e2studio_2021_01_workspace_RZA2M_ANPR/ANPR_RZA2M_GR_MANGO/src/tensorflow_lite/src/tensorflow/lite/kernels/internal\types.h ****   const int* dims_data = reinterpret_cast<const int*>(shape.DimsDataUpTo5D());
 406:C:/Renesas/e2studio_2021_01_workspace_RZA2M_ANPR/ANPR_RZA2M_GR_MANGO/src/tensorflow_lite/src/tensorflow/lite/kernels/internal\types.h ****   TFLITE_DCHECK(i0 >= 0 && i0 < dims_data[0]);
 407:C:/Renesas/e2studio_2021_01_workspace_RZA2M_ANPR/ANPR_RZA2M_GR_MANGO/src/tensorflow_lite/src/tensorflow/lite/kernels/internal\types.h ****   TFLITE_DCHECK(i1 >= 0 && i1 < dims_data[1]);
 408:C:/Renesas/e2studio_2021_01_workspace_RZA2M_ANPR/ANPR_RZA2M_GR_MANGO/src/tensorflow_lite/src/tensorflow/lite/kernels/internal\types.h ****   TFLITE_DCHECK(i2 >= 0 && i2 < dims_data[2]);
 409:C:/Renesas/e2studio_2021_01_workspace_RZA2M_ANPR/ANPR_RZA2M_GR_MANGO/src/tensorflow_lite/src/tensorflow/lite/kernels/internal\types.h ****   TFLITE_DCHECK(i3 >= 0 && i3 < dims_data[3]);
 410:C:/Renesas/e2studio_2021_01_workspace_RZA2M_ANPR/ANPR_RZA2M_GR_MANGO/src/tensorflow_lite/src/tensorflow/lite/kernels/internal\types.h ****   return ((i0 * dims_data[1] + i1) * dims_data[2] + i2) * dims_data[3] + i3;
 411:C:/Renesas/e2studio_2021_01_workspace_RZA2M_ANPR/ANPR_RZA2M_GR_MANGO/src/tensorflow_lite/src/tensorflow/lite/kernels/internal\types.h **** }
 412:C:/Renesas/e2studio_2021_01_workspace_RZA2M_ANPR/ANPR_RZA2M_GR_MANGO/src/tensorflow_lite/src/tensorflow/lite/kernels/internal\types.h **** 
 413:C:/Renesas/e2studio_2021_01_workspace_RZA2M_ANPR/ANPR_RZA2M_GR_MANGO/src/tensorflow_lite/src/tensorflow/lite/kernels/internal\types.h **** inline int Offset(const RuntimeShape& shape, int i0, int i1, int i2, int i3,
 414:C:/Renesas/e2studio_2021_01_workspace_RZA2M_ANPR/ANPR_RZA2M_GR_MANGO/src/tensorflow_lite/src/tensorflow/lite/kernels/internal\types.h ****                   int i4) {
 415:C:/Renesas/e2studio_2021_01_workspace_RZA2M_ANPR/ANPR_RZA2M_GR_MANGO/src/tensorflow_lite/src/tensorflow/lite/kernels/internal\types.h ****   TFLITE_DCHECK_EQ(shape.DimensionsCount(), 5);
 416:C:/Renesas/e2studio_2021_01_workspace_RZA2M_ANPR/ANPR_RZA2M_GR_MANGO/src/tensorflow_lite/src/tensorflow/lite/kernels/internal\types.h ****   const int* dims_data = reinterpret_cast<const int*>(shape.DimsDataUpTo5D());
 417:C:/Renesas/e2studio_2021_01_workspace_RZA2M_ANPR/ANPR_RZA2M_GR_MANGO/src/tensorflow_lite/src/tensorflow/lite/kernels/internal\types.h ****   TFLITE_DCHECK(i0 >= 0 && i0 < dims_data[0]);
 418:C:/Renesas/e2studio_2021_01_workspace_RZA2M_ANPR/ANPR_RZA2M_GR_MANGO/src/tensorflow_lite/src/tensorflow/lite/kernels/internal\types.h ****   TFLITE_DCHECK(i1 >= 0 && i1 < dims_data[1]);
 419:C:/Renesas/e2studio_2021_01_workspace_RZA2M_ANPR/ANPR_RZA2M_GR_MANGO/src/tensorflow_lite/src/tensorflow/lite/kernels/internal\types.h ****   TFLITE_DCHECK(i2 >= 0 && i2 < dims_data[2]);
 420:C:/Renesas/e2studio_2021_01_workspace_RZA2M_ANPR/ANPR_RZA2M_GR_MANGO/src/tensorflow_lite/src/tensorflow/lite/kernels/internal\types.h ****   TFLITE_DCHECK(i3 >= 0 && i3 < dims_data[3]);
 421:C:/Renesas/e2studio_2021_01_workspace_RZA2M_ANPR/ANPR_RZA2M_GR_MANGO/src/tensorflow_lite/src/tensorflow/lite/kernels/internal\types.h ****   TFLITE_DCHECK(i4 >= 0 && i4 < dims_data[4]);
 422:C:/Renesas/e2studio_2021_01_workspace_RZA2M_ANPR/ANPR_RZA2M_GR_MANGO/src/tensorflow_lite/src/tensorflow/lite/kernels/internal\types.h ****   return (((i0 * dims_data[1] + i1) * dims_data[2] + i2) * dims_data[3] + i3) *
 423:C:/Renesas/e2studio_2021_01_workspace_RZA2M_ANPR/ANPR_RZA2M_GR_MANGO/src/tensorflow_lite/src/tensorflow/lite/kernels/internal\types.h ****              dims_data[4] +
 424:C:/Renesas/e2studio_2021_01_workspace_RZA2M_ANPR/ANPR_RZA2M_GR_MANGO/src/tensorflow_lite/src/tensorflow/lite/kernels/internal\types.h ****          i4;
 425:C:/Renesas/e2studio_2021_01_workspace_RZA2M_ANPR/ANPR_RZA2M_GR_MANGO/src/tensorflow_lite/src/tensorflow/lite/kernels/internal\types.h **** }
 426:C:/Renesas/e2studio_2021_01_workspace_RZA2M_ANPR/ANPR_RZA2M_GR_MANGO/src/tensorflow_lite/src/tensorflow/lite/kernels/internal\types.h **** 
 427:C:/Renesas/e2studio_2021_01_workspace_RZA2M_ANPR/ANPR_RZA2M_GR_MANGO/src/tensorflow_lite/src/tensorflow/lite/kernels/internal\types.h **** inline int Offset(const Dims<4>& dims, int i0, int i1, int i2, int i3) {
 428:C:/Renesas/e2studio_2021_01_workspace_RZA2M_ANPR/ANPR_RZA2M_GR_MANGO/src/tensorflow_lite/src/tensorflow/lite/kernels/internal\types.h ****   TFLITE_DCHECK(i0 >= 0 && i0 < dims.sizes[0]);
 429:C:/Renesas/e2studio_2021_01_workspace_RZA2M_ANPR/ANPR_RZA2M_GR_MANGO/src/tensorflow_lite/src/tensorflow/lite/kernels/internal\types.h ****   TFLITE_DCHECK(i1 >= 0 && i1 < dims.sizes[1]);
 430:C:/Renesas/e2studio_2021_01_workspace_RZA2M_ANPR/ANPR_RZA2M_GR_MANGO/src/tensorflow_lite/src/tensorflow/lite/kernels/internal\types.h ****   TFLITE_DCHECK(i2 >= 0 && i2 < dims.sizes[2]);
 431:C:/Renesas/e2studio_2021_01_workspace_RZA2M_ANPR/ANPR_RZA2M_GR_MANGO/src/tensorflow_lite/src/tensorflow/lite/kernels/internal\types.h ****   TFLITE_DCHECK(i3 >= 0 && i3 < dims.sizes[3]);
 432:C:/Renesas/e2studio_2021_01_workspace_RZA2M_ANPR/ANPR_RZA2M_GR_MANGO/src/tensorflow_lite/src/tensorflow/lite/kernels/internal\types.h ****   return i0 * dims.strides[0] + i1 * dims.strides[1] + i2 * dims.strides[2] +
 433:C:/Renesas/e2studio_2021_01_workspace_RZA2M_ANPR/ANPR_RZA2M_GR_MANGO/src/tensorflow_lite/src/tensorflow/lite/kernels/internal\types.h ****          i3 * dims.strides[3];
 434:C:/Renesas/e2studio_2021_01_workspace_RZA2M_ANPR/ANPR_RZA2M_GR_MANGO/src/tensorflow_lite/src/tensorflow/lite/kernels/internal\types.h **** }
 435:C:/Renesas/e2studio_2021_01_workspace_RZA2M_ANPR/ANPR_RZA2M_GR_MANGO/src/tensorflow_lite/src/tensorflow/lite/kernels/internal\types.h **** 
 436:C:/Renesas/e2studio_2021_01_workspace_RZA2M_ANPR/ANPR_RZA2M_GR_MANGO/src/tensorflow_lite/src/tensorflow/lite/kernels/internal\types.h **** inline int Offset(const Dims<4>& dims, int* index) {
 437:C:/Renesas/e2studio_2021_01_workspace_RZA2M_ANPR/ANPR_RZA2M_GR_MANGO/src/tensorflow_lite/src/tensorflow/lite/kernels/internal\types.h ****   return Offset(dims, index[0], index[1], index[2], index[3]);
 438:C:/Renesas/e2studio_2021_01_workspace_RZA2M_ANPR/ANPR_RZA2M_GR_MANGO/src/tensorflow_lite/src/tensorflow/lite/kernels/internal\types.h **** }
 439:C:/Renesas/e2studio_2021_01_workspace_RZA2M_ANPR/ANPR_RZA2M_GR_MANGO/src/tensorflow_lite/src/tensorflow/lite/kernels/internal\types.h **** 
 440:C:/Renesas/e2studio_2021_01_workspace_RZA2M_ANPR/ANPR_RZA2M_GR_MANGO/src/tensorflow_lite/src/tensorflow/lite/kernels/internal\types.h **** inline int Offset(const RuntimeShape& shape, int* index) {
 441:C:/Renesas/e2studio_2021_01_workspace_RZA2M_ANPR/ANPR_RZA2M_GR_MANGO/src/tensorflow_lite/src/tensorflow/lite/kernels/internal\types.h ****   return Offset(shape, index[0], index[1], index[2], index[3]);
 442:C:/Renesas/e2studio_2021_01_workspace_RZA2M_ANPR/ANPR_RZA2M_GR_MANGO/src/tensorflow_lite/src/tensorflow/lite/kernels/internal\types.h **** }
 443:C:/Renesas/e2studio_2021_01_workspace_RZA2M_ANPR/ANPR_RZA2M_GR_MANGO/src/tensorflow_lite/src/tensorflow/lite/kernels/internal\types.h **** 
 444:C:/Renesas/e2studio_2021_01_workspace_RZA2M_ANPR/ANPR_RZA2M_GR_MANGO/src/tensorflow_lite/src/tensorflow/lite/kernels/internal\types.h **** // Get array size, DCHECKing that the dim index is in range.
 445:C:/Renesas/e2studio_2021_01_workspace_RZA2M_ANPR/ANPR_RZA2M_GR_MANGO/src/tensorflow_lite/src/tensorflow/lite/kernels/internal\types.h **** //
 446:C:/Renesas/e2studio_2021_01_workspace_RZA2M_ANPR/ANPR_RZA2M_GR_MANGO/src/tensorflow_lite/src/tensorflow/lite/kernels/internal\types.h **** // Note that this will be phased out with Dims<4>, since RuntimeShape::Dims()
 447:C:/Renesas/e2studio_2021_01_workspace_RZA2M_ANPR/ANPR_RZA2M_GR_MANGO/src/tensorflow_lite/src/tensorflow/lite/kernels/internal\types.h **** // already performs this check.
 448:C:/Renesas/e2studio_2021_01_workspace_RZA2M_ANPR/ANPR_RZA2M_GR_MANGO/src/tensorflow_lite/src/tensorflow/lite/kernels/internal\types.h **** template <int N>
 449:C:/Renesas/e2studio_2021_01_workspace_RZA2M_ANPR/ANPR_RZA2M_GR_MANGO/src/tensorflow_lite/src/tensorflow/lite/kernels/internal\types.h **** int ArraySize(const Dims<N>& array, int index) {
 450:C:/Renesas/e2studio_2021_01_workspace_RZA2M_ANPR/ANPR_RZA2M_GR_MANGO/src/tensorflow_lite/src/tensorflow/lite/kernels/internal\types.h ****   TFLITE_DCHECK(index >= 0 && index < N);
 451:C:/Renesas/e2studio_2021_01_workspace_RZA2M_ANPR/ANPR_RZA2M_GR_MANGO/src/tensorflow_lite/src/tensorflow/lite/kernels/internal\types.h ****   return array.sizes[index];
 452:C:/Renesas/e2studio_2021_01_workspace_RZA2M_ANPR/ANPR_RZA2M_GR_MANGO/src/tensorflow_lite/src/tensorflow/lite/kernels/internal\types.h **** }
 453:C:/Renesas/e2studio_2021_01_workspace_RZA2M_ANPR/ANPR_RZA2M_GR_MANGO/src/tensorflow_lite/src/tensorflow/lite/kernels/internal\types.h **** 
 454:C:/Renesas/e2studio_2021_01_workspace_RZA2M_ANPR/ANPR_RZA2M_GR_MANGO/src/tensorflow_lite/src/tensorflow/lite/kernels/internal\types.h **** // Get common array size, DCHECKing that they all agree.
 455:C:/Renesas/e2studio_2021_01_workspace_RZA2M_ANPR/ANPR_RZA2M_GR_MANGO/src/tensorflow_lite/src/tensorflow/lite/kernels/internal\types.h **** template <typename ArrayType1, typename ArrayType2>
 456:C:/Renesas/e2studio_2021_01_workspace_RZA2M_ANPR/ANPR_RZA2M_GR_MANGO/src/tensorflow_lite/src/tensorflow/lite/kernels/internal\types.h **** int MatchingArraySize(const ArrayType1& array1, int index1,
 457:C:/Renesas/e2studio_2021_01_workspace_RZA2M_ANPR/ANPR_RZA2M_GR_MANGO/src/tensorflow_lite/src/tensorflow/lite/kernels/internal\types.h ****                       const ArrayType2& array2, int index2) {
 458:C:/Renesas/e2studio_2021_01_workspace_RZA2M_ANPR/ANPR_RZA2M_GR_MANGO/src/tensorflow_lite/src/tensorflow/lite/kernels/internal\types.h ****   TFLITE_DCHECK_EQ(ArraySize(array1, index1), ArraySize(array2, index2));
 459:C:/Renesas/e2studio_2021_01_workspace_RZA2M_ANPR/ANPR_RZA2M_GR_MANGO/src/tensorflow_lite/src/tensorflow/lite/kernels/internal\types.h ****   return ArraySize(array1, index1);
 460:C:/Renesas/e2studio_2021_01_workspace_RZA2M_ANPR/ANPR_RZA2M_GR_MANGO/src/tensorflow_lite/src/tensorflow/lite/kernels/internal\types.h **** }
 461:C:/Renesas/e2studio_2021_01_workspace_RZA2M_ANPR/ANPR_RZA2M_GR_MANGO/src/tensorflow_lite/src/tensorflow/lite/kernels/internal\types.h **** 
 462:C:/Renesas/e2studio_2021_01_workspace_RZA2M_ANPR/ANPR_RZA2M_GR_MANGO/src/tensorflow_lite/src/tensorflow/lite/kernels/internal\types.h **** template <typename ArrayType1, typename ArrayType2, typename... Args>
 463:C:/Renesas/e2studio_2021_01_workspace_RZA2M_ANPR/ANPR_RZA2M_GR_MANGO/src/tensorflow_lite/src/tensorflow/lite/kernels/internal\types.h **** int MatchingArraySize(const ArrayType1& array1, int index1,
 464:C:/Renesas/e2studio_2021_01_workspace_RZA2M_ANPR/ANPR_RZA2M_GR_MANGO/src/tensorflow_lite/src/tensorflow/lite/kernels/internal\types.h ****                       const ArrayType2& array2, int index2, Args... args) {
 465:C:/Renesas/e2studio_2021_01_workspace_RZA2M_ANPR/ANPR_RZA2M_GR_MANGO/src/tensorflow_lite/src/tensorflow/lite/kernels/internal\types.h ****   TFLITE_DCHECK_EQ(ArraySize(array1, index1), ArraySize(array2, index2));
 466:C:/Renesas/e2studio_2021_01_workspace_RZA2M_ANPR/ANPR_RZA2M_GR_MANGO/src/tensorflow_lite/src/tensorflow/lite/kernels/internal\types.h ****   return MatchingArraySize(array1, index1, args...);
 467:C:/Renesas/e2studio_2021_01_workspace_RZA2M_ANPR/ANPR_RZA2M_GR_MANGO/src/tensorflow_lite/src/tensorflow/lite/kernels/internal\types.h **** }
 468:C:/Renesas/e2studio_2021_01_workspace_RZA2M_ANPR/ANPR_RZA2M_GR_MANGO/src/tensorflow_lite/src/tensorflow/lite/kernels/internal\types.h **** 
 469:C:/Renesas/e2studio_2021_01_workspace_RZA2M_ANPR/ANPR_RZA2M_GR_MANGO/src/tensorflow_lite/src/tensorflow/lite/kernels/internal\types.h **** // Get common shape dim, DCHECKing that they all agree.
 470:C:/Renesas/e2studio_2021_01_workspace_RZA2M_ANPR/ANPR_RZA2M_GR_MANGO/src/tensorflow_lite/src/tensorflow/lite/kernels/internal\types.h **** inline int MatchingDim(const RuntimeShape& shape1, int index1,
 471:C:/Renesas/e2studio_2021_01_workspace_RZA2M_ANPR/ANPR_RZA2M_GR_MANGO/src/tensorflow_lite/src/tensorflow/lite/kernels/internal\types.h ****                        const RuntimeShape& shape2, int index2) {
 472:C:/Renesas/e2studio_2021_01_workspace_RZA2M_ANPR/ANPR_RZA2M_GR_MANGO/src/tensorflow_lite/src/tensorflow/lite/kernels/internal\types.h ****   TFLITE_DCHECK_EQ(shape1.Dims(index1), shape2.Dims(index2));
 1318              		.loc 3 472 0
 1319 03a0 04309CE5 		ldr	r3, [ip, #4]
 1320 03a4 08709DE5 		ldr	r7, [sp, #8]
 1321 03a8 070053E1 		cmp	r3, r7
 1322 03ac 6B00001A 		bne	.L105
 1323              	.LVL162:
 1324              	.LBE506:
 1325              	.LBE520:
  92:C:/Renesas/e2studio_2021_01_workspace_RZA2M_ANPR/ANPR_RZA2M_GR_MANGO/src/tensorflow_lite/src/tensorflow/lite/kernels/internal/reference\concatenation.h ****       if (j != axis) {
 1326              		.loc 5 92 0
 1327 03b0 01005EE3 		cmp	lr, #1
 1328 03b4 2400000A 		beq	.L106
  93:C:/Renesas/e2studio_2021_01_workspace_RZA2M_ANPR/ANPR_RZA2M_GR_MANGO/src/tensorflow_lite/src/tensorflow/lite/kernels/internal/reference\concatenation.h ****         MatchingDim(*input_shapes[i], j, output_shape, j);
 1329              		.loc 5 93 0
 1330 03b8 010054E3 		cmp	r4, #1
 1331 03bc 4D02000A 		beq	.L107
 1332              	.LVL163:
 1333              	.L175:
 1334              	.LBB521:
 1335              	.LBB507:
 1336              	.LBB497:
 1337              	.LBB489:
 215:C:/Renesas/e2studio_2021_01_workspace_RZA2M_ANPR/ANPR_RZA2M_GR_MANGO/src/tensorflow_lite/src/tensorflow/lite/kernels/internal\types.h ****     return size_ > kMaxSmallSize ? dims_pointer_[i] : dims_[i];
 1338              		.loc 3 215 0
 1339 03c0 010052E3 		cmp	r2, #1
 1340 03c4 1F0200DA 		ble	.L104
 1341              	.LVL164:
 1342              	.LBE489:
 1343              	.LBE497:
 1344              		.loc 3 472 0
 1345 03c8 08309CE5 		ldr	r3, [ip, #8]
 1346 03cc 00909DE5 		ldr	r9, [sp]
 1347 03d0 090053E1 		cmp	r3, r9
 1348 03d4 6100001A 		bne	.L105
 1349              	.LVL165:
 1350              	.LBE507:
 1351              	.LBE521:
  92:C:/Renesas/e2studio_2021_01_workspace_RZA2M_ANPR/ANPR_RZA2M_GR_MANGO/src/tensorflow_lite/src/tensorflow/lite/kernels/internal/reference\concatenation.h ****       if (j != axis) {
 1352              		.loc 5 92 0
 1353 03d8 02005EE3 		cmp	lr, #2
 1354 03dc 1A0000DA 		ble	.L106
  93:C:/Renesas/e2studio_2021_01_workspace_RZA2M_ANPR/ANPR_RZA2M_GR_MANGO/src/tensorflow_lite/src/tensorflow/lite/kernels/internal/reference\concatenation.h ****         MatchingDim(*input_shapes[i], j, output_shape, j);
 1355              		.loc 5 93 0
 1356 03e0 020054E3 		cmp	r4, #2
 1357 03e4 4E02000A 		beq	.L108
 1358              	.LVL166:
 1359              	.L176:
 1360              	.LBB522:
 1361              	.LBB508:
 1362              	.LBB498:
 1363              	.LBB490:
 215:C:/Renesas/e2studio_2021_01_workspace_RZA2M_ANPR/ANPR_RZA2M_GR_MANGO/src/tensorflow_lite/src/tensorflow/lite/kernels/internal\types.h ****     return size_ > kMaxSmallSize ? dims_pointer_[i] : dims_[i];
 1364              		.loc 3 215 0
 1365 03e8 020052E3 		cmp	r2, #2
 1366 03ec 150200DA 		ble	.L104
 1367              	.LVL167:
 1368              	.LBE490:
 1369              	.LBE498:
 1370              		.loc 3 472 0
 1371 03f0 0C309CE5 		ldr	r3, [ip, #12]
 1372 03f4 10909DE5 		ldr	r9, [sp, #16]
 1373 03f8 090053E1 		cmp	r3, r9
 1374 03fc 5700001A 		bne	.L105
 1375              	.LVL168:
 1376              	.LBE508:
 1377              	.LBE522:
  92:C:/Renesas/e2studio_2021_01_workspace_RZA2M_ANPR/ANPR_RZA2M_GR_MANGO/src/tensorflow_lite/src/tensorflow/lite/kernels/internal/reference\concatenation.h ****       if (j != axis) {
 1378              		.loc 5 92 0
 1379 0400 03005EE3 		cmp	lr, #3
 1380 0404 100000DA 		ble	.L106
  93:C:/Renesas/e2studio_2021_01_workspace_RZA2M_ANPR/ANPR_RZA2M_GR_MANGO/src/tensorflow_lite/src/tensorflow/lite/kernels/internal/reference\concatenation.h ****         MatchingDim(*input_shapes[i], j, output_shape, j);
 1381              		.loc 5 93 0
 1382 0408 030054E3 		cmp	r4, #3
 1383 040c 4B02000A 		beq	.L109
 1384              	.LVL169:
 1385              	.L177:
 1386              	.LBB523:
 1387              	.LBB509:
 1388              	.LBB499:
 1389              	.LBB491:
 215:C:/Renesas/e2studio_2021_01_workspace_RZA2M_ANPR/ANPR_RZA2M_GR_MANGO/src/tensorflow_lite/src/tensorflow/lite/kernels/internal\types.h ****     return size_ > kMaxSmallSize ? dims_pointer_[i] : dims_[i];
 1390              		.loc 3 215 0
 1391 0410 030052E3 		cmp	r2, #3
 1392 0414 0B0200DA 		ble	.L104
 1393              	.LVL170:
 1394              	.LBE491:
 1395              	.LBE499:
 1396              		.loc 3 472 0
 1397 0418 10309CE5 		ldr	r3, [ip, #16]
 1398 041c 14909DE5 		ldr	r9, [sp, #20]
 1399 0420 090053E1 		cmp	r3, r9
 1400 0424 4D00001A 		bne	.L105
 1401              	.LVL171:
 1402              	.LBE509:
 1403              	.LBE523:
  92:C:/Renesas/e2studio_2021_01_workspace_RZA2M_ANPR/ANPR_RZA2M_GR_MANGO/src/tensorflow_lite/src/tensorflow/lite/kernels/internal/reference\concatenation.h ****       if (j != axis) {
 1404              		.loc 5 92 0
 1405 0428 05005EE3 		cmp	lr, #5
 1406 042c 0600001A 		bne	.L106
  93:C:/Renesas/e2studio_2021_01_workspace_RZA2M_ANPR/ANPR_RZA2M_GR_MANGO/src/tensorflow_lite/src/tensorflow/lite/kernels/internal/reference\concatenation.h ****         MatchingDim(*input_shapes[i], j, output_shape, j);
 1407              		.loc 5 93 0
 1408 0430 040054E3 		cmp	r4, #4
 1409 0434 0600000A 		beq	.L99
 1410              	.LVL172:
 1411              	.L178:
 1412              	.LBB524:
 1413              	.LBB510:
 1414              	.LBB500:
 1415              	.LBB492:
 215:C:/Renesas/e2studio_2021_01_workspace_RZA2M_ANPR/ANPR_RZA2M_GR_MANGO/src/tensorflow_lite/src/tensorflow/lite/kernels/internal\types.h ****     return size_ > kMaxSmallSize ? dims_pointer_[i] : dims_[i];
 1416              		.loc 3 215 0
 1417 0438 050052E3 		cmp	r2, #5
 1418 043c 0102001A 		bne	.L104
 1419              	.LVL173:
 1420              	.LBE492:
 1421              	.LBE500:
 1422              		.loc 3 472 0
 1423 0440 14309CE5 		ldr	r3, [ip, #20]
 1424 0444 0B0053E1 		cmp	r3, fp
 1425 0448 4400001A 		bne	.L105
 1426              	.LVL174:
 1427              	.L106:
 1428              	.LBE510:
 1429              	.LBE524:
 1430              	.LBE536:
 1431              	.LBB537:
 1432              	.LBB478:
 214:C:/Renesas/e2studio_2021_01_workspace_RZA2M_ANPR/ANPR_RZA2M_GR_MANGO/src/tensorflow_lite/src/tensorflow/lite/kernels/internal\types.h ****     TFLITE_DCHECK_LT(i, size_);
 1433              		.loc 3 214 0
 1434 044c 000054E3 		cmp	r4, #0
 1435 0450 380200BA 		blt	.L338
 1436              	.LVL175:
 1437              	.L99:
 216:C:/Renesas/e2studio_2021_01_workspace_RZA2M_ANPR/ANPR_RZA2M_GR_MANGO/src/tensorflow_lite/src/tensorflow/lite/kernels/internal\types.h ****   }
 1438              		.loc 3 216 0
 1439 0454 050052E3 		cmp	r2, #5
 1440 0458 BAFFFFDA 		ble	.L121
 1441              	.L308:
 1442 045c 04309CE5 		ldr	r3, [ip, #4]
 1443              	.L179:
 1444 0460 20209DE5 		ldr	r2, [sp, #32]
 1445 0464 023093E7 		ldr	r3, [r3, r2]
 1446 0468 B8FFFFEA 		b	.L122
 1447              	.LVL176:
 1448              	.L101:
 1449 046c 050052E3 		cmp	r2, #5
 1450 0470 400000CA 		bgt	.L115
 1451              	.LBE478:
 1452              	.LBE537:
 1453              	.LBB538:
  92:C:/Renesas/e2studio_2021_01_workspace_RZA2M_ANPR/ANPR_RZA2M_GR_MANGO/src/tensorflow_lite/src/tensorflow/lite/kernels/internal/reference\concatenation.h ****       if (j != axis) {
 1454              		.loc 5 92 0
 1455 0474 08709DE5 		ldr	r7, [sp, #8]
 1456 0478 04908CE2 		add	r9, ip, #4
 1457 047c F801CDE1 		strd	r0, [sp, #24]
 1458 0480 0030A0E3 		mov	r3, #0
 1459 0484 0610A0E1 		mov	r1, r6
 1460              	.LVL177:
 1461              	.L117:
  93:C:/Renesas/e2studio_2021_01_workspace_RZA2M_ANPR/ANPR_RZA2M_GR_MANGO/src/tensorflow_lite/src/tensorflow/lite/kernels/internal/reference\concatenation.h ****         MatchingDim(*input_shapes[i], j, output_shape, j);
 1462              		.loc 5 93 0
 1463 0488 030054E1 		cmp	r4, r3
 1464 048c 0500000A 		beq	.L116
 1465              	.LVL178:
 1466              	.LBB525:
 1467              	.LBB511:
 1468              	.LBB501:
 1469              	.LBB493:
 215:C:/Renesas/e2studio_2021_01_workspace_RZA2M_ANPR/ANPR_RZA2M_GR_MANGO/src/tensorflow_lite/src/tensorflow/lite/kernels/internal\types.h ****     return size_ > kMaxSmallSize ? dims_pointer_[i] : dims_[i];
 1470              		.loc 3 215 0
 1471 0490 020053E1 		cmp	r3, r2
 1472 0494 EB0100AA 		bge	.L104
 1473              	.LVL179:
 1474              	.LBE493:
 1475              	.LBE501:
 1476              		.loc 3 472 0
 1477 0498 036197E7 		ldr	r6, [r7, r3, lsl #2]
 1478 049c 000099E5 		ldr	r0, [r9]
 1479 04a0 060050E1 		cmp	r0, r6
 1480 04a4 2D00001A 		bne	.L105
 1481              	.LVL180:
 1482              	.L116:
 1483              	.LBE511:
 1484              	.LBE525:
  92:C:/Renesas/e2studio_2021_01_workspace_RZA2M_ANPR/ANPR_RZA2M_GR_MANGO/src/tensorflow_lite/src/tensorflow/lite/kernels/internal/reference\concatenation.h ****       if (j != axis) {
 1485              		.loc 5 92 0
 1486 04a8 013083E2 		add	r3, r3, #1
 1487              	.LVL181:
 1488 04ac 049089E2 		add	r9, r9, #4
 1489 04b0 03005EE1 		cmp	lr, r3
 1490 04b4 F3FFFF1A 		bne	.L117
 1491 04b8 0160A0E1 		mov	r6, r1
 1492 04bc 08708DE5 		str	r7, [sp, #8]
 1493 04c0 D801CDE1 		ldrd	r0, [sp, #24]
 1494 04c4 E0FFFFEA 		b	.L106
 1495              	.LVL182:
 1496              	.L102:
  93:C:/Renesas/e2studio_2021_01_workspace_RZA2M_ANPR/ANPR_RZA2M_GR_MANGO/src/tensorflow_lite/src/tensorflow/lite/kernels/internal/reference\concatenation.h ****         MatchingDim(*input_shapes[i], j, output_shape, j);
 1497              		.loc 5 93 0
 1498 04c8 000054E3 		cmp	r4, #0
 1499 04cc 3502000A 		beq	.L110
 1500              	.LVL183:
 1501              	.LBB526:
 1502              	.LBB512:
 1503              	.LBB502:
 1504              	.LBB494:
 216:C:/Renesas/e2studio_2021_01_workspace_RZA2M_ANPR/ANPR_RZA2M_GR_MANGO/src/tensorflow_lite/src/tensorflow/lite/kernels/internal\types.h ****   }
 1505              		.loc 3 216 0
 1506 04d0 04309CE5 		ldr	r3, [ip, #4]
 1507              	.LBE494:
 1508              	.LBE502:
 1509              		.loc 3 472 0
 1510 04d4 08709DE5 		ldr	r7, [sp, #8]
 1511 04d8 009093E5 		ldr	r9, [r3]
 1512 04dc 070059E1 		cmp	r9, r7
 1513 04e0 1E00001A 		bne	.L105
 1514              	.LVL184:
