   1              		.cpu cortex-a9
   2              		.eabi_attribute 28, 1
   3              		.eabi_attribute 20, 1
   4              		.eabi_attribute 21, 1
   5              		.eabi_attribute 23, 3
   6              		.eabi_attribute 24, 1
   7              		.eabi_attribute 25, 1
   8              		.eabi_attribute 26, 1
   9              		.eabi_attribute 30, 2
  10              		.eabi_attribute 34, 0
  11              		.eabi_attribute 18, 4
  12              		.file	"conv.cpp"
  13              		.text
  14              	.Ltext0:
  15              		.cfi_sections	.debug_frame
  16              		.section	.text._ZN6tflite12_GLOBAL__N_14InitEP13TfLiteContextPKcj,"ax",%progbits
  17              		.align	2
  18              		.syntax unified
  19              		.arm
  20              		.fpu neon
  22              	_ZN6tflite12_GLOBAL__N_14InitEP13TfLiteContextPKcj:
  23              		.fnstart
  24              	.LFB4181:
  25              		.file 1 "../src/tensorflow_lite/src/tensorflow/lite/micro/kernels/conv.cpp"
   1:../src/tensorflow_lite/src/tensorflow/lite/micro/kernels/conv.cpp **** /* Copyright 2019 The TensorFlow Authors. All Rights Reserved.
   2:../src/tensorflow_lite/src/tensorflow/lite/micro/kernels/conv.cpp **** 
   3:../src/tensorflow_lite/src/tensorflow/lite/micro/kernels/conv.cpp **** Licensed under the Apache License, Version 2.0 (the "License");
   4:../src/tensorflow_lite/src/tensorflow/lite/micro/kernels/conv.cpp **** you may not use this file except in compliance with the License.
   5:../src/tensorflow_lite/src/tensorflow/lite/micro/kernels/conv.cpp **** You may obtain a copy of the License at
   6:../src/tensorflow_lite/src/tensorflow/lite/micro/kernels/conv.cpp **** 
   7:../src/tensorflow_lite/src/tensorflow/lite/micro/kernels/conv.cpp ****     http://www.apache.org/licenses/LICENSE-2.0
   8:../src/tensorflow_lite/src/tensorflow/lite/micro/kernels/conv.cpp **** 
   9:../src/tensorflow_lite/src/tensorflow/lite/micro/kernels/conv.cpp **** Unless required by applicable law or agreed to in writing, software
  10:../src/tensorflow_lite/src/tensorflow/lite/micro/kernels/conv.cpp **** distributed under the License is distributed on an "AS IS" BASIS,
  11:../src/tensorflow_lite/src/tensorflow/lite/micro/kernels/conv.cpp **** WITHOUT WARRANTIES OR CONDITIONS OF ANY KIND, either express or implied.
  12:../src/tensorflow_lite/src/tensorflow/lite/micro/kernels/conv.cpp **** See the License for the specific language governing permissions and
  13:../src/tensorflow_lite/src/tensorflow/lite/micro/kernels/conv.cpp **** limitations under the License.
  14:../src/tensorflow_lite/src/tensorflow/lite/micro/kernels/conv.cpp **** ==============================================================================*/
  15:../src/tensorflow_lite/src/tensorflow/lite/micro/kernels/conv.cpp **** 
  16:../src/tensorflow_lite/src/tensorflow/lite/micro/kernels/conv.cpp **** #include "tensorflow/lite/micro/kernels/conv.h"
  17:../src/tensorflow_lite/src/tensorflow/lite/micro/kernels/conv.cpp **** 
  18:../src/tensorflow_lite/src/tensorflow/lite/micro/kernels/conv.cpp **** #include "tensorflow/lite/c/builtin_op_data.h"
  19:../src/tensorflow_lite/src/tensorflow/lite/micro/kernels/conv.cpp **** #include "tensorflow/lite/c/common.h"
  20:../src/tensorflow_lite/src/tensorflow/lite/micro/kernels/conv.cpp **** #include "tensorflow/lite/kernels/internal/common.h"
  21:../src/tensorflow_lite/src/tensorflow/lite/micro/kernels/conv.cpp **** #include "tensorflow/lite/kernels/internal/quantization_util.h"
  22:../src/tensorflow_lite/src/tensorflow/lite/micro/kernels/conv.cpp **** #include "tensorflow/lite/kernels/internal/reference/conv.h"
  23:../src/tensorflow_lite/src/tensorflow/lite/micro/kernels/conv.cpp **** #include "tensorflow/lite/kernels/internal/reference/integer_ops/conv.h"
  24:../src/tensorflow_lite/src/tensorflow/lite/micro/kernels/conv.cpp **** #include "tensorflow/lite/kernels/internal/tensor_ctypes.h"
  25:../src/tensorflow_lite/src/tensorflow/lite/micro/kernels/conv.cpp **** #include "tensorflow/lite/kernels/kernel_util.h"
  26:../src/tensorflow_lite/src/tensorflow/lite/micro/kernels/conv.cpp **** #include "tensorflow/lite/kernels/padding.h"
  27:../src/tensorflow_lite/src/tensorflow/lite/micro/kernels/conv.cpp **** #include "tensorflow/lite/micro/kernels/kernel_util.h"
  28:../src/tensorflow_lite/src/tensorflow/lite/micro/kernels/conv.cpp **** 
  29:../src/tensorflow_lite/src/tensorflow/lite/micro/kernels/conv.cpp **** namespace tflite {
  30:../src/tensorflow_lite/src/tensorflow/lite/micro/kernels/conv.cpp **** namespace {
  31:../src/tensorflow_lite/src/tensorflow/lite/micro/kernels/conv.cpp **** 
  32:../src/tensorflow_lite/src/tensorflow/lite/micro/kernels/conv.cpp **** void* Init(TfLiteContext* context, const char* buffer, size_t length) {
  26              		.loc 1 32 0
  27              		.cfi_startproc
  28              		@ args = 0, pretend = 0, frame = 0
  29              		@ frame_needed = 0, uses_anonymous_args = 0
  30              	.LVL0:
  33:../src/tensorflow_lite/src/tensorflow/lite/micro/kernels/conv.cpp ****   TFLITE_DCHECK(context->AllocatePersistentBuffer != nullptr);
  31              		.loc 1 33 0
  32 0000 383090E5 		ldr	r3, [r0, #56]
  33 0004 000053E3 		cmp	r3, #0
  34 0008 0100000A 		beq	.L7
  34:../src/tensorflow_lite/src/tensorflow/lite/micro/kernels/conv.cpp ****   return context->AllocatePersistentBuffer(context, sizeof(OpDataConv));
  35              		.loc 1 34 0
  36 000c 3410A0E3 		mov	r1, #52
  37              	.LVL1:
  38 0010 13FF2FE1 		bx	r3
  39              	.LVL2:
  40              	.L7:
  32:../src/tensorflow_lite/src/tensorflow/lite/micro/kernels/conv.cpp ****   TFLITE_DCHECK(context->AllocatePersistentBuffer != nullptr);
  41              		.loc 1 32 0 discriminator 1
  42 0014 10402DE9 		push	{r4, lr}
  43              		.save {r4, lr}
  44              		.cfi_def_cfa_offset 8
  45              		.cfi_offset 4, -8
  46              		.cfi_offset 14, -4
  33:../src/tensorflow_lite/src/tensorflow/lite/micro/kernels/conv.cpp ****   TFLITE_DCHECK(context->AllocatePersistentBuffer != nullptr);
  47              		.loc 1 33 0 discriminator 1
  48 0018 FEFFFFEB 		bl	abort
  49              	.LVL3:
  50              		.cfi_endproc
  51              	.LFE4181:
  52              		.fnend
  54              		.section	.text._ZN6tflite21reference_integer_ops14ConvPerChannelERKNS_10ConvParamsEPKlS5_RKNS_12Ru
  55              		.align	2
  56              		.weak	_ZN6tflite21reference_integer_ops14ConvPerChannelERKNS_10ConvParamsEPKlS5_RKNS_12RuntimeShap
  57              		.syntax unified
  58              		.arm
  59              		.fpu neon
  61              	_ZN6tflite21reference_integer_ops14ConvPerChannelERKNS_10ConvParamsEPKlS5_RKNS_12RuntimeShapeEPKaS8
  62              		.fnstart
  63              	.LFB4149:
  64              		.file 2 "C:/Renesas/e2studio_2021_01_workspace_RZA2M_ANPR/ANPR_RZA2M_GR_MANGO/src/tensorflow_lite/
   1:C:/Renesas/e2studio_2021_01_workspace_RZA2M_ANPR/ANPR_RZA2M_GR_MANGO/src/tensorflow_lite/src/tensorflow/lite/kernels/internal/reference/integer_ops\conv.h **** /* Copyright 2019 The TensorFlow Authors. All Rights Reserved.
   2:C:/Renesas/e2studio_2021_01_workspace_RZA2M_ANPR/ANPR_RZA2M_GR_MANGO/src/tensorflow_lite/src/tensorflow/lite/kernels/internal/reference/integer_ops\conv.h **** 
   3:C:/Renesas/e2studio_2021_01_workspace_RZA2M_ANPR/ANPR_RZA2M_GR_MANGO/src/tensorflow_lite/src/tensorflow/lite/kernels/internal/reference/integer_ops\conv.h **** Licensed under the Apache License, Version 2.0 (the "License");
   4:C:/Renesas/e2studio_2021_01_workspace_RZA2M_ANPR/ANPR_RZA2M_GR_MANGO/src/tensorflow_lite/src/tensorflow/lite/kernels/internal/reference/integer_ops\conv.h **** you may not use this file except in compliance with the License.
   5:C:/Renesas/e2studio_2021_01_workspace_RZA2M_ANPR/ANPR_RZA2M_GR_MANGO/src/tensorflow_lite/src/tensorflow/lite/kernels/internal/reference/integer_ops\conv.h **** You may obtain a copy of the License at
   6:C:/Renesas/e2studio_2021_01_workspace_RZA2M_ANPR/ANPR_RZA2M_GR_MANGO/src/tensorflow_lite/src/tensorflow/lite/kernels/internal/reference/integer_ops\conv.h **** 
   7:C:/Renesas/e2studio_2021_01_workspace_RZA2M_ANPR/ANPR_RZA2M_GR_MANGO/src/tensorflow_lite/src/tensorflow/lite/kernels/internal/reference/integer_ops\conv.h ****     http://www.apache.org/licenses/LICENSE-2.0
   8:C:/Renesas/e2studio_2021_01_workspace_RZA2M_ANPR/ANPR_RZA2M_GR_MANGO/src/tensorflow_lite/src/tensorflow/lite/kernels/internal/reference/integer_ops\conv.h **** 
   9:C:/Renesas/e2studio_2021_01_workspace_RZA2M_ANPR/ANPR_RZA2M_GR_MANGO/src/tensorflow_lite/src/tensorflow/lite/kernels/internal/reference/integer_ops\conv.h **** Unless required by applicable law or agreed to in writing, software
  10:C:/Renesas/e2studio_2021_01_workspace_RZA2M_ANPR/ANPR_RZA2M_GR_MANGO/src/tensorflow_lite/src/tensorflow/lite/kernels/internal/reference/integer_ops\conv.h **** distributed under the License is distributed on an "AS IS" BASIS,
  11:C:/Renesas/e2studio_2021_01_workspace_RZA2M_ANPR/ANPR_RZA2M_GR_MANGO/src/tensorflow_lite/src/tensorflow/lite/kernels/internal/reference/integer_ops\conv.h **** WITHOUT WARRANTIES OR CONDITIONS OF ANY KIND, either express or implied.
  12:C:/Renesas/e2studio_2021_01_workspace_RZA2M_ANPR/ANPR_RZA2M_GR_MANGO/src/tensorflow_lite/src/tensorflow/lite/kernels/internal/reference/integer_ops\conv.h **** See the License for the specific language governing permissions and
  13:C:/Renesas/e2studio_2021_01_workspace_RZA2M_ANPR/ANPR_RZA2M_GR_MANGO/src/tensorflow_lite/src/tensorflow/lite/kernels/internal/reference/integer_ops\conv.h **** limitations under the License.
  14:C:/Renesas/e2studio_2021_01_workspace_RZA2M_ANPR/ANPR_RZA2M_GR_MANGO/src/tensorflow_lite/src/tensorflow/lite/kernels/internal/reference/integer_ops\conv.h **** ==============================================================================*/
  15:C:/Renesas/e2studio_2021_01_workspace_RZA2M_ANPR/ANPR_RZA2M_GR_MANGO/src/tensorflow_lite/src/tensorflow/lite/kernels/internal/reference/integer_ops\conv.h **** /* Copyright 2020 Renesas Electronics
  16:C:/Renesas/e2studio_2021_01_workspace_RZA2M_ANPR/ANPR_RZA2M_GR_MANGO/src/tensorflow_lite/src/tensorflow/lite/kernels/internal/reference/integer_ops\conv.h **** 
  17:C:/Renesas/e2studio_2021_01_workspace_RZA2M_ANPR/ANPR_RZA2M_GR_MANGO/src/tensorflow_lite/src/tensorflow/lite/kernels/internal/reference/integer_ops\conv.h **** Renesas has modified part of this file. The following comments have been added to
  18:C:/Renesas/e2studio_2021_01_workspace_RZA2M_ANPR/ANPR_RZA2M_GR_MANGO/src/tensorflow_lite/src/tensorflow/lite/kernels/internal/reference/integer_ops\conv.h **** the modifies / additions.
  19:C:/Renesas/e2studio_2021_01_workspace_RZA2M_ANPR/ANPR_RZA2M_GR_MANGO/src/tensorflow_lite/src/tensorflow/lite/kernels/internal/reference/integer_ops\conv.h **** 
  20:C:/Renesas/e2studio_2021_01_workspace_RZA2M_ANPR/ANPR_RZA2M_GR_MANGO/src/tensorflow_lite/src/tensorflow/lite/kernels/internal/reference/integer_ops\conv.h **** 	start 	Modified by Renesas Electronics {
  21:C:/Renesas/e2studio_2021_01_workspace_RZA2M_ANPR/ANPR_RZA2M_GR_MANGO/src/tensorflow_lite/src/tensorflow/lite/kernels/internal/reference/integer_ops\conv.h **** 	end   	Modified by Renesas Electronics }
  22:C:/Renesas/e2studio_2021_01_workspace_RZA2M_ANPR/ANPR_RZA2M_GR_MANGO/src/tensorflow_lite/src/tensorflow/lite/kernels/internal/reference/integer_ops\conv.h **** 
  23:C:/Renesas/e2studio_2021_01_workspace_RZA2M_ANPR/ANPR_RZA2M_GR_MANGO/src/tensorflow_lite/src/tensorflow/lite/kernels/internal/reference/integer_ops\conv.h **** ==============================================================================*/
  24:C:/Renesas/e2studio_2021_01_workspace_RZA2M_ANPR/ANPR_RZA2M_GR_MANGO/src/tensorflow_lite/src/tensorflow/lite/kernels/internal/reference/integer_ops\conv.h **** // Ver.1.0  (2020/12/23)  //
  25:C:/Renesas/e2studio_2021_01_workspace_RZA2M_ANPR/ANPR_RZA2M_GR_MANGO/src/tensorflow_lite/src/tensorflow/lite/kernels/internal/reference/integer_ops\conv.h **** 
  26:C:/Renesas/e2studio_2021_01_workspace_RZA2M_ANPR/ANPR_RZA2M_GR_MANGO/src/tensorflow_lite/src/tensorflow/lite/kernels/internal/reference/integer_ops\conv.h **** #ifndef TENSORFLOW_LITE_KERNELS_INTERNAL_REFERENCE_INTEGER_OPS_CONV_H_
  27:C:/Renesas/e2studio_2021_01_workspace_RZA2M_ANPR/ANPR_RZA2M_GR_MANGO/src/tensorflow_lite/src/tensorflow/lite/kernels/internal/reference/integer_ops\conv.h **** #define TENSORFLOW_LITE_KERNELS_INTERNAL_REFERENCE_INTEGER_OPS_CONV_H_
  28:C:/Renesas/e2studio_2021_01_workspace_RZA2M_ANPR/ANPR_RZA2M_GR_MANGO/src/tensorflow_lite/src/tensorflow/lite/kernels/internal/reference/integer_ops\conv.h **** 
  29:C:/Renesas/e2studio_2021_01_workspace_RZA2M_ANPR/ANPR_RZA2M_GR_MANGO/src/tensorflow_lite/src/tensorflow/lite/kernels/internal/reference/integer_ops\conv.h **** /* Modified by Renesas Electronics { */
  30:C:/Renesas/e2studio_2021_01_workspace_RZA2M_ANPR/ANPR_RZA2M_GR_MANGO/src/tensorflow_lite/src/tensorflow/lite/kernels/internal/reference/integer_ops\conv.h **** #include <math.h>
  31:C:/Renesas/e2studio_2021_01_workspace_RZA2M_ANPR/ANPR_RZA2M_GR_MANGO/src/tensorflow_lite/src/tensorflow/lite/kernels/internal/reference/integer_ops\conv.h **** #include "perform.h"
  32:C:/Renesas/e2studio_2021_01_workspace_RZA2M_ANPR/ANPR_RZA2M_GR_MANGO/src/tensorflow_lite/src/tensorflow/lite/kernels/internal/reference/integer_ops\conv.h **** #include "../../../generate/sc_drivers/r_drp/inc/r_dk2_if.h"
  33:C:/Renesas/e2studio_2021_01_workspace_RZA2M_ANPR/ANPR_RZA2M_GR_MANGO/src/tensorflow_lite/src/tensorflow/lite/kernels/internal/reference/integer_ops\conv.h **** #include "../../../generate/sc_drivers/r_drp/drp_lib_u/r_drp_cnn_conv.h"
  34:C:/Renesas/e2studio_2021_01_workspace_RZA2M_ANPR/ANPR_RZA2M_GR_MANGO/src/tensorflow_lite/src/tensorflow/lite/kernels/internal/reference/integer_ops\conv.h **** #include "r_cache_lld_rza2m.h"
  35:C:/Renesas/e2studio_2021_01_workspace_RZA2M_ANPR/ANPR_RZA2M_GR_MANGO/src/tensorflow_lite/src/tensorflow/lite/kernels/internal/reference/integer_ops\conv.h **** 
  36:C:/Renesas/e2studio_2021_01_workspace_RZA2M_ANPR/ANPR_RZA2M_GR_MANGO/src/tensorflow_lite/src/tensorflow/lite/kernels/internal/reference/integer_ops\conv.h **** #include "tensorflow/lite/kernels/internal/common.h"
  37:C:/Renesas/e2studio_2021_01_workspace_RZA2M_ANPR/ANPR_RZA2M_GR_MANGO/src/tensorflow_lite/src/tensorflow/lite/kernels/internal/reference/integer_ops\conv.h **** 
  38:C:/Renesas/e2studio_2021_01_workspace_RZA2M_ANPR/ANPR_RZA2M_GR_MANGO/src/tensorflow_lite/src/tensorflow/lite/kernels/internal/reference/integer_ops\conv.h **** /*******************************************************************************
  39:C:/Renesas/e2studio_2021_01_workspace_RZA2M_ANPR/ANPR_RZA2M_GR_MANGO/src/tensorflow_lite/src/tensorflow/lite/kernels/internal/reference/integer_ops\conv.h **** Imported global variables and functions (from other files)
  40:C:/Renesas/e2studio_2021_01_workspace_RZA2M_ANPR/ANPR_RZA2M_GR_MANGO/src/tensorflow_lite/src/tensorflow/lite/kernels/internal/reference/integer_ops\conv.h **** *******************************************************************************/
  41:C:/Renesas/e2studio_2021_01_workspace_RZA2M_ANPR/ANPR_RZA2M_GR_MANGO/src/tensorflow_lite/src/tensorflow/lite/kernels/internal/reference/integer_ops\conv.h **** extern uint8_t g_drp_lib_conv_test[];
  42:C:/Renesas/e2studio_2021_01_workspace_RZA2M_ANPR/ANPR_RZA2M_GR_MANGO/src/tensorflow_lite/src/tensorflow/lite/kernels/internal/reference/integer_ops\conv.h **** extern uint8_t g_drp_lib_tflm_conv[];
  43:C:/Renesas/e2studio_2021_01_workspace_RZA2M_ANPR/ANPR_RZA2M_GR_MANGO/src/tensorflow_lite/src/tensorflow/lite/kernels/internal/reference/integer_ops\conv.h **** 
  44:C:/Renesas/e2studio_2021_01_workspace_RZA2M_ANPR/ANPR_RZA2M_GR_MANGO/src/tensorflow_lite/src/tensorflow/lite/kernels/internal/reference/integer_ops\conv.h **** extern unsigned int cpu_drp_sel;
  45:C:/Renesas/e2studio_2021_01_workspace_RZA2M_ANPR/ANPR_RZA2M_GR_MANGO/src/tensorflow_lite/src/tensorflow/lite/kernels/internal/reference/integer_ops\conv.h **** extern unsigned int drp_conv_total_num;
  46:C:/Renesas/e2studio_2021_01_workspace_RZA2M_ANPR/ANPR_RZA2M_GR_MANGO/src/tensorflow_lite/src/tensorflow/lite/kernels/internal/reference/integer_ops\conv.h **** extern unsigned int drp_en_conv_layer;
  47:C:/Renesas/e2studio_2021_01_workspace_RZA2M_ANPR/ANPR_RZA2M_GR_MANGO/src/tensorflow_lite/src/tensorflow/lite/kernels/internal/reference/integer_ops\conv.h **** extern unsigned int drp_conv_count;
  48:C:/Renesas/e2studio_2021_01_workspace_RZA2M_ANPR/ANPR_RZA2M_GR_MANGO/src/tensorflow_lite/src/tensorflow/lite/kernels/internal/reference/integer_ops\conv.h **** extern unsigned int all_conv_count;
  49:C:/Renesas/e2studio_2021_01_workspace_RZA2M_ANPR/ANPR_RZA2M_GR_MANGO/src/tensorflow_lite/src/tensorflow/lite/kernels/internal/reference/integer_ops\conv.h **** 
  50:C:/Renesas/e2studio_2021_01_workspace_RZA2M_ANPR/ANPR_RZA2M_GR_MANGO/src/tensorflow_lite/src/tensorflow/lite/kernels/internal/reference/integer_ops\conv.h **** namespace tflite {
  51:C:/Renesas/e2studio_2021_01_workspace_RZA2M_ANPR/ANPR_RZA2M_GR_MANGO/src/tensorflow_lite/src/tensorflow/lite/kernels/internal/reference/integer_ops\conv.h **** namespace reference_integer_ops {
  52:C:/Renesas/e2studio_2021_01_workspace_RZA2M_ANPR/ANPR_RZA2M_GR_MANGO/src/tensorflow_lite/src/tensorflow/lite/kernels/internal/reference/integer_ops\conv.h **** 
  53:C:/Renesas/e2studio_2021_01_workspace_RZA2M_ANPR/ANPR_RZA2M_GR_MANGO/src/tensorflow_lite/src/tensorflow/lite/kernels/internal/reference/integer_ops\conv.h **** /*******************************************************************************
  54:C:/Renesas/e2studio_2021_01_workspace_RZA2M_ANPR/ANPR_RZA2M_GR_MANGO/src/tensorflow_lite/src/tensorflow/lite/kernels/internal/reference/integer_ops\conv.h **** Macro definitions
  55:C:/Renesas/e2studio_2021_01_workspace_RZA2M_ANPR/ANPR_RZA2M_GR_MANGO/src/tensorflow_lite/src/tensorflow/lite/kernels/internal/reference/integer_ops\conv.h **** *******************************************************************************/
  56:C:/Renesas/e2studio_2021_01_workspace_RZA2M_ANPR/ANPR_RZA2M_GR_MANGO/src/tensorflow_lite/src/tensorflow/lite/kernels/internal/reference/integer_ops\conv.h **** #define TILE_0            (0)
  57:C:/Renesas/e2studio_2021_01_workspace_RZA2M_ANPR/ANPR_RZA2M_GR_MANGO/src/tensorflow_lite/src/tensorflow/lite/kernels/internal/reference/integer_ops\conv.h **** #define TILE_1            (1)
  58:C:/Renesas/e2studio_2021_01_workspace_RZA2M_ANPR/ANPR_RZA2M_GR_MANGO/src/tensorflow_lite/src/tensorflow/lite/kernels/internal/reference/integer_ops\conv.h **** #define TILE_2            (2)
  59:C:/Renesas/e2studio_2021_01_workspace_RZA2M_ANPR/ANPR_RZA2M_GR_MANGO/src/tensorflow_lite/src/tensorflow/lite/kernels/internal/reference/integer_ops\conv.h **** #define TILE_3            (3)
  60:C:/Renesas/e2studio_2021_01_workspace_RZA2M_ANPR/ANPR_RZA2M_GR_MANGO/src/tensorflow_lite/src/tensorflow/lite/kernels/internal/reference/integer_ops\conv.h **** #define TILE_4            (4)
  61:C:/Renesas/e2studio_2021_01_workspace_RZA2M_ANPR/ANPR_RZA2M_GR_MANGO/src/tensorflow_lite/src/tensorflow/lite/kernels/internal/reference/integer_ops\conv.h **** #define TILE_5            (5)
  62:C:/Renesas/e2studio_2021_01_workspace_RZA2M_ANPR/ANPR_RZA2M_GR_MANGO/src/tensorflow_lite/src/tensorflow/lite/kernels/internal/reference/integer_ops\conv.h **** 
  63:C:/Renesas/e2studio_2021_01_workspace_RZA2M_ANPR/ANPR_RZA2M_GR_MANGO/src/tensorflow_lite/src/tensorflow/lite/kernels/internal/reference/integer_ops\conv.h **** #define DRP_NOT_FINISH    (0)
  64:C:/Renesas/e2studio_2021_01_workspace_RZA2M_ANPR/ANPR_RZA2M_GR_MANGO/src/tensorflow_lite/src/tensorflow/lite/kernels/internal/reference/integer_ops\conv.h **** #define DRP_FINISH        (1)
  65:C:/Renesas/e2studio_2021_01_workspace_RZA2M_ANPR/ANPR_RZA2M_GR_MANGO/src/tensorflow_lite/src/tensorflow/lite/kernels/internal/reference/integer_ops\conv.h **** 
  66:C:/Renesas/e2studio_2021_01_workspace_RZA2M_ANPR/ANPR_RZA2M_GR_MANGO/src/tensorflow_lite/src/tensorflow/lite/kernels/internal/reference/integer_ops\conv.h **** /*******************************************************************************
  67:C:/Renesas/e2studio_2021_01_workspace_RZA2M_ANPR/ANPR_RZA2M_GR_MANGO/src/tensorflow_lite/src/tensorflow/lite/kernels/internal/reference/integer_ops\conv.h ****   Private global variables and functions
  68:C:/Renesas/e2studio_2021_01_workspace_RZA2M_ANPR/ANPR_RZA2M_GR_MANGO/src/tensorflow_lite/src/tensorflow/lite/kernels/internal/reference/integer_ops\conv.h **** *******************************************************************************/
  69:C:/Renesas/e2studio_2021_01_workspace_RZA2M_ANPR/ANPR_RZA2M_GR_MANGO/src/tensorflow_lite/src/tensorflow/lite/kernels/internal/reference/integer_ops\conv.h **** static uint8_t drp_lib_id[R_DK2_TILE_NUM] = {0};
  70:C:/Renesas/e2studio_2021_01_workspace_RZA2M_ANPR/ANPR_RZA2M_GR_MANGO/src/tensorflow_lite/src/tensorflow/lite/kernels/internal/reference/integer_ops\conv.h **** static volatile uint8_t drp_lib_status[R_DK2_TILE_NUM] = {DRP_NOT_FINISH};
  71:C:/Renesas/e2studio_2021_01_workspace_RZA2M_ANPR/ANPR_RZA2M_GR_MANGO/src/tensorflow_lite/src/tensorflow/lite/kernels/internal/reference/integer_ops\conv.h **** 
  72:C:/Renesas/e2studio_2021_01_workspace_RZA2M_ANPR/ANPR_RZA2M_GR_MANGO/src/tensorflow_lite/src/tensorflow/lite/kernels/internal/reference/integer_ops\conv.h **** //namespace tflite {
  73:C:/Renesas/e2studio_2021_01_workspace_RZA2M_ANPR/ANPR_RZA2M_GR_MANGO/src/tensorflow_lite/src/tensorflow/lite/kernels/internal/reference/integer_ops\conv.h **** //namespace reference_integer_ops {
  74:C:/Renesas/e2studio_2021_01_workspace_RZA2M_ANPR/ANPR_RZA2M_GR_MANGO/src/tensorflow_lite/src/tensorflow/lite/kernels/internal/reference/integer_ops\conv.h **** 
  75:C:/Renesas/e2studio_2021_01_workspace_RZA2M_ANPR/ANPR_RZA2M_GR_MANGO/src/tensorflow_lite/src/tensorflow/lite/kernels/internal/reference/integer_ops\conv.h **** /******************************************************************************
  76:C:/Renesas/e2studio_2021_01_workspace_RZA2M_ANPR/ANPR_RZA2M_GR_MANGO/src/tensorflow_lite/src/tensorflow/lite/kernels/internal/reference/integer_ops\conv.h **** Functions Prototypes
  77:C:/Renesas/e2studio_2021_01_workspace_RZA2M_ANPR/ANPR_RZA2M_GR_MANGO/src/tensorflow_lite/src/tensorflow/lite/kernels/internal/reference/integer_ops\conv.h **** ******************************************************************************/
  78:C:/Renesas/e2studio_2021_01_workspace_RZA2M_ANPR/ANPR_RZA2M_GR_MANGO/src/tensorflow_lite/src/tensorflow/lite/kernels/internal/reference/integer_ops\conv.h **** static void cb_drp_finish(uint8 id);
  79:C:/Renesas/e2studio_2021_01_workspace_RZA2M_ANPR/ANPR_RZA2M_GR_MANGO/src/tensorflow_lite/src/tensorflow/lite/kernels/internal/reference/integer_ops\conv.h **** static void calc_div_param(r_drp_cnn_conv_t *param);
  80:C:/Renesas/e2studio_2021_01_workspace_RZA2M_ANPR/ANPR_RZA2M_GR_MANGO/src/tensorflow_lite/src/tensorflow/lite/kernels/internal/reference/integer_ops\conv.h **** static int num2div(uint8 ch_num);
  81:C:/Renesas/e2studio_2021_01_workspace_RZA2M_ANPR/ANPR_RZA2M_GR_MANGO/src/tensorflow_lite/src/tensorflow/lite/kernels/internal/reference/integer_ops\conv.h **** 
  82:C:/Renesas/e2studio_2021_01_workspace_RZA2M_ANPR/ANPR_RZA2M_GR_MANGO/src/tensorflow_lite/src/tensorflow/lite/kernels/internal/reference/integer_ops\conv.h **** /*******************************************************************************
  83:C:/Renesas/e2studio_2021_01_workspace_RZA2M_ANPR/ANPR_RZA2M_GR_MANGO/src/tensorflow_lite/src/tensorflow/lite/kernels/internal/reference/integer_ops\conv.h **** * Function Name: cb_drp_finish
  84:C:/Renesas/e2studio_2021_01_workspace_RZA2M_ANPR/ANPR_RZA2M_GR_MANGO/src/tensorflow_lite/src/tensorflow/lite/kernels/internal/reference/integer_ops\conv.h **** * Description  : This function is a callback function called from the
  85:C:/Renesas/e2studio_2021_01_workspace_RZA2M_ANPR/ANPR_RZA2M_GR_MANGO/src/tensorflow_lite/src/tensorflow/lite/kernels/internal/reference/integer_ops\conv.h **** *              : DRP driver at the finish of the DRP library processing.
  86:C:/Renesas/e2studio_2021_01_workspace_RZA2M_ANPR/ANPR_RZA2M_GR_MANGO/src/tensorflow_lite/src/tensorflow/lite/kernels/internal/reference/integer_ops\conv.h **** * Arguments    : id
  87:C:/Renesas/e2studio_2021_01_workspace_RZA2M_ANPR/ANPR_RZA2M_GR_MANGO/src/tensorflow_lite/src/tensorflow/lite/kernels/internal/reference/integer_ops\conv.h **** *              :   The ID of the DRP library that finished processing.
  88:C:/Renesas/e2studio_2021_01_workspace_RZA2M_ANPR/ANPR_RZA2M_GR_MANGO/src/tensorflow_lite/src/tensorflow/lite/kernels/internal/reference/integer_ops\conv.h **** * Return Value : -
  89:C:/Renesas/e2studio_2021_01_workspace_RZA2M_ANPR/ANPR_RZA2M_GR_MANGO/src/tensorflow_lite/src/tensorflow/lite/kernels/internal/reference/integer_ops\conv.h **** *******************************************************************************/
  90:C:/Renesas/e2studio_2021_01_workspace_RZA2M_ANPR/ANPR_RZA2M_GR_MANGO/src/tensorflow_lite/src/tensorflow/lite/kernels/internal/reference/integer_ops\conv.h **** static void cb_drp_finish(uint8_t id)
  91:C:/Renesas/e2studio_2021_01_workspace_RZA2M_ANPR/ANPR_RZA2M_GR_MANGO/src/tensorflow_lite/src/tensorflow/lite/kernels/internal/reference/integer_ops\conv.h **** {
  92:C:/Renesas/e2studio_2021_01_workspace_RZA2M_ANPR/ANPR_RZA2M_GR_MANGO/src/tensorflow_lite/src/tensorflow/lite/kernels/internal/reference/integer_ops\conv.h ****     uint32_t tile_no;
  93:C:/Renesas/e2studio_2021_01_workspace_RZA2M_ANPR/ANPR_RZA2M_GR_MANGO/src/tensorflow_lite/src/tensorflow/lite/kernels/internal/reference/integer_ops\conv.h **** 
  94:C:/Renesas/e2studio_2021_01_workspace_RZA2M_ANPR/ANPR_RZA2M_GR_MANGO/src/tensorflow_lite/src/tensorflow/lite/kernels/internal/reference/integer_ops\conv.h ****     /* Change the operation state of the DRP library notified by the argument to finish */
  95:C:/Renesas/e2studio_2021_01_workspace_RZA2M_ANPR/ANPR_RZA2M_GR_MANGO/src/tensorflow_lite/src/tensorflow/lite/kernels/internal/reference/integer_ops\conv.h ****     for (tile_no = 0; tile_no < R_DK2_TILE_NUM; tile_no++)
  96:C:/Renesas/e2studio_2021_01_workspace_RZA2M_ANPR/ANPR_RZA2M_GR_MANGO/src/tensorflow_lite/src/tensorflow/lite/kernels/internal/reference/integer_ops\conv.h ****     {
  97:C:/Renesas/e2studio_2021_01_workspace_RZA2M_ANPR/ANPR_RZA2M_GR_MANGO/src/tensorflow_lite/src/tensorflow/lite/kernels/internal/reference/integer_ops\conv.h ****         if (drp_lib_id[tile_no] == id)
  98:C:/Renesas/e2studio_2021_01_workspace_RZA2M_ANPR/ANPR_RZA2M_GR_MANGO/src/tensorflow_lite/src/tensorflow/lite/kernels/internal/reference/integer_ops\conv.h ****         {
  99:C:/Renesas/e2studio_2021_01_workspace_RZA2M_ANPR/ANPR_RZA2M_GR_MANGO/src/tensorflow_lite/src/tensorflow/lite/kernels/internal/reference/integer_ops\conv.h ****             drp_lib_status[tile_no] = DRP_FINISH;
 100:C:/Renesas/e2studio_2021_01_workspace_RZA2M_ANPR/ANPR_RZA2M_GR_MANGO/src/tensorflow_lite/src/tensorflow/lite/kernels/internal/reference/integer_ops\conv.h ****             break;
 101:C:/Renesas/e2studio_2021_01_workspace_RZA2M_ANPR/ANPR_RZA2M_GR_MANGO/src/tensorflow_lite/src/tensorflow/lite/kernels/internal/reference/integer_ops\conv.h ****         }
 102:C:/Renesas/e2studio_2021_01_workspace_RZA2M_ANPR/ANPR_RZA2M_GR_MANGO/src/tensorflow_lite/src/tensorflow/lite/kernels/internal/reference/integer_ops\conv.h ****     }
 103:C:/Renesas/e2studio_2021_01_workspace_RZA2M_ANPR/ANPR_RZA2M_GR_MANGO/src/tensorflow_lite/src/tensorflow/lite/kernels/internal/reference/integer_ops\conv.h **** 
 104:C:/Renesas/e2studio_2021_01_workspace_RZA2M_ANPR/ANPR_RZA2M_GR_MANGO/src/tensorflow_lite/src/tensorflow/lite/kernels/internal/reference/integer_ops\conv.h ****     return;
 105:C:/Renesas/e2studio_2021_01_workspace_RZA2M_ANPR/ANPR_RZA2M_GR_MANGO/src/tensorflow_lite/src/tensorflow/lite/kernels/internal/reference/integer_ops\conv.h **** }
 106:C:/Renesas/e2studio_2021_01_workspace_RZA2M_ANPR/ANPR_RZA2M_GR_MANGO/src/tensorflow_lite/src/tensorflow/lite/kernels/internal/reference/integer_ops\conv.h **** /*******************************************************************************
 107:C:/Renesas/e2studio_2021_01_workspace_RZA2M_ANPR/ANPR_RZA2M_GR_MANGO/src/tensorflow_lite/src/tensorflow/lite/kernels/internal/reference/integer_ops\conv.h **** * End of function cb_drp_finish
 108:C:/Renesas/e2studio_2021_01_workspace_RZA2M_ANPR/ANPR_RZA2M_GR_MANGO/src/tensorflow_lite/src/tensorflow/lite/kernels/internal/reference/integer_ops\conv.h **** *******************************************************************************/
 109:C:/Renesas/e2studio_2021_01_workspace_RZA2M_ANPR/ANPR_RZA2M_GR_MANGO/src/tensorflow_lite/src/tensorflow/lite/kernels/internal/reference/integer_ops\conv.h **** 
 110:C:/Renesas/e2studio_2021_01_workspace_RZA2M_ANPR/ANPR_RZA2M_GR_MANGO/src/tensorflow_lite/src/tensorflow/lite/kernels/internal/reference/integer_ops\conv.h **** //namespace tflite {
 111:C:/Renesas/e2studio_2021_01_workspace_RZA2M_ANPR/ANPR_RZA2M_GR_MANGO/src/tensorflow_lite/src/tensorflow/lite/kernels/internal/reference/integer_ops\conv.h **** //namespace reference_integer_ops {
 112:C:/Renesas/e2studio_2021_01_workspace_RZA2M_ANPR/ANPR_RZA2M_GR_MANGO/src/tensorflow_lite/src/tensorflow/lite/kernels/internal/reference/integer_ops\conv.h **** 
 113:C:/Renesas/e2studio_2021_01_workspace_RZA2M_ANPR/ANPR_RZA2M_GR_MANGO/src/tensorflow_lite/src/tensorflow/lite/kernels/internal/reference/integer_ops\conv.h **** /**** CPU *****/
 114:C:/Renesas/e2studio_2021_01_workspace_RZA2M_ANPR/ANPR_RZA2M_GR_MANGO/src/tensorflow_lite/src/tensorflow/lite/kernels/internal/reference/integer_ops\conv.h **** // Fixed-point per-channel-quantization convolution reference kernel.
 115:C:/Renesas/e2studio_2021_01_workspace_RZA2M_ANPR/ANPR_RZA2M_GR_MANGO/src/tensorflow_lite/src/tensorflow/lite/kernels/internal/reference/integer_ops\conv.h **** inline void ConvPerChannel(
 116:C:/Renesas/e2studio_2021_01_workspace_RZA2M_ANPR/ANPR_RZA2M_GR_MANGO/src/tensorflow_lite/src/tensorflow/lite/kernels/internal/reference/integer_ops\conv.h ****     const ConvParams& params, const int32* output_multiplier,
 117:C:/Renesas/e2studio_2021_01_workspace_RZA2M_ANPR/ANPR_RZA2M_GR_MANGO/src/tensorflow_lite/src/tensorflow/lite/kernels/internal/reference/integer_ops\conv.h ****     const int32* output_shift, const RuntimeShape& input_shape,
 118:C:/Renesas/e2studio_2021_01_workspace_RZA2M_ANPR/ANPR_RZA2M_GR_MANGO/src/tensorflow_lite/src/tensorflow/lite/kernels/internal/reference/integer_ops\conv.h ****     const int8* input_data, const RuntimeShape& filter_shape,
 119:C:/Renesas/e2studio_2021_01_workspace_RZA2M_ANPR/ANPR_RZA2M_GR_MANGO/src/tensorflow_lite/src/tensorflow/lite/kernels/internal/reference/integer_ops\conv.h ****     const int8* filter_data, const RuntimeShape& bias_shape,
 120:C:/Renesas/e2studio_2021_01_workspace_RZA2M_ANPR/ANPR_RZA2M_GR_MANGO/src/tensorflow_lite/src/tensorflow/lite/kernels/internal/reference/integer_ops\conv.h ****     const int32* bias_data, const RuntimeShape& output_shape,
 121:C:/Renesas/e2studio_2021_01_workspace_RZA2M_ANPR/ANPR_RZA2M_GR_MANGO/src/tensorflow_lite/src/tensorflow/lite/kernels/internal/reference/integer_ops\conv.h ****     int8* output_data) {
  65              		.loc 2 121 0
  66              		.cfi_startproc
  67              		@ args = 28, pretend = 0, frame = 120
  68              		@ frame_needed = 0, uses_anonymous_args = 0
  69              	.LVL4:
  70 0000 F04F2DE9 		push	{r4, r5, r6, r7, r8, r9, r10, fp, lr}
  71              		.save {r4, r5, r6, r7, r8, r9, r10, fp, lr}
  72              		.cfi_def_cfa_offset 36
  73              		.cfi_offset 4, -36
  74              		.cfi_offset 5, -32
  75              		.cfi_offset 6, -28
  76              		.cfi_offset 7, -24
  77              		.cfi_offset 8, -20
  78              		.cfi_offset 9, -16
  79              		.cfi_offset 10, -12
  80              		.cfi_offset 11, -8
  81              		.cfi_offset 14, -4
  82 0004 03A0A0E1 		mov	r10, r3
 122:C:/Renesas/e2studio_2021_01_workspace_RZA2M_ANPR/ANPR_RZA2M_GR_MANGO/src/tensorflow_lite/src/tensorflow/lite/kernels/internal/reference/integer_ops\conv.h **** 
 123:C:/Renesas/e2studio_2021_01_workspace_RZA2M_ANPR/ANPR_RZA2M_GR_MANGO/src/tensorflow_lite/src/tensorflow/lite/kernels/internal/reference/integer_ops\conv.h ****   // Get parameters.
 124:C:/Renesas/e2studio_2021_01_workspace_RZA2M_ANPR/ANPR_RZA2M_GR_MANGO/src/tensorflow_lite/src/tensorflow/lite/kernels/internal/reference/integer_ops\conv.h ****   const int32 input_offset = params.input_offset;  // r = s(q - Z)
  83              		.loc 2 124 0
  84 0008 143090E5 		ldr	r3, [r0, #20]
  85              	.LVL5:
 121:C:/Renesas/e2studio_2021_01_workspace_RZA2M_ANPR/ANPR_RZA2M_GR_MANGO/src/tensorflow_lite/src/tensorflow/lite/kernels/internal/reference/integer_ops\conv.h **** 
  86              		.loc 2 121 0
  87              		.pad #124
  88 000c 7CD04DE2 		sub	sp, sp, #124
  89              		.cfi_def_cfa_offset 160
 121:C:/Renesas/e2studio_2021_01_workspace_RZA2M_ANPR/ANPR_RZA2M_GR_MANGO/src/tensorflow_lite/src/tensorflow/lite/kernels/internal/reference/integer_ops\conv.h **** 
  90              		.loc 2 121 0
  91 0010 58108DE5 		str	r1, [sp, #88]
  92              		.loc 2 124 0
  93 0014 10308DE5 		str	r3, [sp, #16]
  94              	.LVL6:
 125:C:/Renesas/e2studio_2021_01_workspace_RZA2M_ANPR/ANPR_RZA2M_GR_MANGO/src/tensorflow_lite/src/tensorflow/lite/kernels/internal/reference/integer_ops\conv.h ****   const int stride_width = params.stride_width;
  95              		.loc 2 125 0
  96 0018 FA30D0E1 		ldrsh	r3, [r0, #10]
  97              	.LVL7:
 126:C:/Renesas/e2studio_2021_01_workspace_RZA2M_ANPR/ANPR_RZA2M_GR_MANGO/src/tensorflow_lite/src/tensorflow/lite/kernels/internal/reference/integer_ops\conv.h ****   const int stride_height = params.stride_height;
 127:C:/Renesas/e2studio_2021_01_workspace_RZA2M_ANPR/ANPR_RZA2M_GR_MANGO/src/tensorflow_lite/src/tensorflow/lite/kernels/internal/reference/integer_ops\conv.h ****   const int dilation_width_factor = params.dilation_width_factor;
 128:C:/Renesas/e2studio_2021_01_workspace_RZA2M_ANPR/ANPR_RZA2M_GR_MANGO/src/tensorflow_lite/src/tensorflow/lite/kernels/internal/reference/integer_ops\conv.h ****   const int dilation_height_factor = params.dilation_height_factor;
 129:C:/Renesas/e2studio_2021_01_workspace_RZA2M_ANPR/ANPR_RZA2M_GR_MANGO/src/tensorflow_lite/src/tensorflow/lite/kernels/internal/reference/integer_ops\conv.h ****   const int pad_width = params.padding_values.width;
 130:C:/Renesas/e2studio_2021_01_workspace_RZA2M_ANPR/ANPR_RZA2M_GR_MANGO/src/tensorflow_lite/src/tensorflow/lite/kernels/internal/reference/integer_ops\conv.h ****   const int pad_height = params.padding_values.height;
 131:C:/Renesas/e2studio_2021_01_workspace_RZA2M_ANPR/ANPR_RZA2M_GR_MANGO/src/tensorflow_lite/src/tensorflow/lite/kernels/internal/reference/integer_ops\conv.h ****   const int32 output_offset = params.output_offset;
 132:C:/Renesas/e2studio_2021_01_workspace_RZA2M_ANPR/ANPR_RZA2M_GR_MANGO/src/tensorflow_lite/src/tensorflow/lite/kernels/internal/reference/integer_ops\conv.h **** 
 133:C:/Renesas/e2studio_2021_01_workspace_RZA2M_ANPR/ANPR_RZA2M_GR_MANGO/src/tensorflow_lite/src/tensorflow/lite/kernels/internal/reference/integer_ops\conv.h ****   // Set min and max value of the output.
 134:C:/Renesas/e2studio_2021_01_workspace_RZA2M_ANPR/ANPR_RZA2M_GR_MANGO/src/tensorflow_lite/src/tensorflow/lite/kernels/internal/reference/integer_ops\conv.h ****   const int32 output_activation_min = params.quantized_activation_min;
  98              		.loc 2 134 0
  99 001c 281090E5 		ldr	r1, [r0, #40]
 100              	.LVL8:
 121:C:/Renesas/e2studio_2021_01_workspace_RZA2M_ANPR/ANPR_RZA2M_GR_MANGO/src/tensorflow_lite/src/tensorflow/lite/kernels/internal/reference/integer_ops\conv.h **** 
 101              		.loc 2 121 0
 102 0020 5C208DE5 		str	r2, [sp, #92]
 125:C:/Renesas/e2studio_2021_01_workspace_RZA2M_ANPR/ANPR_RZA2M_GR_MANGO/src/tensorflow_lite/src/tensorflow/lite/kernels/internal/reference/integer_ops\conv.h ****   const int stride_width = params.stride_width;
 103              		.loc 2 125 0
 104 0024 60308DE5 		str	r3, [sp, #96]
 105              	.LVL9:
 126:C:/Renesas/e2studio_2021_01_workspace_RZA2M_ANPR/ANPR_RZA2M_GR_MANGO/src/tensorflow_lite/src/tensorflow/lite/kernels/internal/reference/integer_ops\conv.h ****   const int stride_height = params.stride_height;
 106              		.loc 2 126 0
 107 0028 FC30D0E1 		ldrsh	r3, [r0, #12]
 135:C:/Renesas/e2studio_2021_01_workspace_RZA2M_ANPR/ANPR_RZA2M_GR_MANGO/src/tensorflow_lite/src/tensorflow/lite/kernels/internal/reference/integer_ops\conv.h ****   const int32 output_activation_max = params.quantized_activation_max;
 108              		.loc 2 135 0
 109 002c 2C2090E5 		ldr	r2, [r0, #44]
 110              	.LVL10:
 134:C:/Renesas/e2studio_2021_01_workspace_RZA2M_ANPR/ANPR_RZA2M_GR_MANGO/src/tensorflow_lite/src/tensorflow/lite/kernels/internal/reference/integer_ops\conv.h ****   const int32 output_activation_max = params.quantized_activation_max;
 111              		.loc 2 134 0
 112 0030 44108DE5 		str	r1, [sp, #68]
 126:C:/Renesas/e2studio_2021_01_workspace_RZA2M_ANPR/ANPR_RZA2M_GR_MANGO/src/tensorflow_lite/src/tensorflow/lite/kernels/internal/reference/integer_ops\conv.h ****   const int dilation_width_factor = params.dilation_width_factor;
 113              		.loc 2 126 0
 114 0034 64308DE5 		str	r3, [sp, #100]
 115              	.LVL11:
 127:C:/Renesas/e2studio_2021_01_workspace_RZA2M_ANPR/ANPR_RZA2M_GR_MANGO/src/tensorflow_lite/src/tensorflow/lite/kernels/internal/reference/integer_ops\conv.h ****   const int dilation_height_factor = params.dilation_height_factor;
 116              		.loc 2 127 0
 117 0038 FE30D0E1 		ldrsh	r3, [r0, #14]
 136:C:/Renesas/e2studio_2021_01_workspace_RZA2M_ANPR/ANPR_RZA2M_GR_MANGO/src/tensorflow_lite/src/tensorflow/lite/kernels/internal/reference/integer_ops\conv.h **** 
 137:C:/Renesas/e2studio_2021_01_workspace_RZA2M_ANPR/ANPR_RZA2M_GR_MANGO/src/tensorflow_lite/src/tensorflow/lite/kernels/internal/reference/integer_ops\conv.h ****   // Sanity check.
 138:C:/Renesas/e2studio_2021_01_workspace_RZA2M_ANPR/ANPR_RZA2M_GR_MANGO/src/tensorflow_lite/src/tensorflow/lite/kernels/internal/reference/integer_ops\conv.h ****   TFLITE_DCHECK_LE(output_activation_min, output_activation_max);
 118              		.loc 2 138 0
 119 003c 020051E1 		cmp	r1, r2
 135:C:/Renesas/e2studio_2021_01_workspace_RZA2M_ANPR/ANPR_RZA2M_GR_MANGO/src/tensorflow_lite/src/tensorflow/lite/kernels/internal/reference/integer_ops\conv.h **** 
 120              		.loc 2 135 0
 121 0040 74208DE5 		str	r2, [sp, #116]
 121:C:/Renesas/e2studio_2021_01_workspace_RZA2M_ANPR/ANPR_RZA2M_GR_MANGO/src/tensorflow_lite/src/tensorflow/lite/kernels/internal/reference/integer_ops\conv.h **** 
 122              		.loc 2 121 0
 123 0044 A4809DE5 		ldr	r8, [sp, #164]
 127:C:/Renesas/e2studio_2021_01_workspace_RZA2M_ANPR/ANPR_RZA2M_GR_MANGO/src/tensorflow_lite/src/tensorflow/lite/kernels/internal/reference/integer_ops\conv.h ****   const int dilation_height_factor = params.dilation_height_factor;
 124              		.loc 2 127 0
 125 0048 18308DE5 		str	r3, [sp, #24]
 126              	.LVL12:
 128:C:/Renesas/e2studio_2021_01_workspace_RZA2M_ANPR/ANPR_RZA2M_GR_MANGO/src/tensorflow_lite/src/tensorflow/lite/kernels/internal/reference/integer_ops\conv.h ****   const int pad_width = params.padding_values.width;
 127              		.loc 2 128 0
 128 004c F031D0E1 		ldrsh	r3, [r0, #16]
 129 0050 2C308DE5 		str	r3, [sp, #44]
 130              	.LVL13:
 129:C:/Renesas/e2studio_2021_01_workspace_RZA2M_ANPR/ANPR_RZA2M_GR_MANGO/src/tensorflow_lite/src/tensorflow/lite/kernels/internal/reference/integer_ops\conv.h ****   const int pad_height = params.padding_values.height;
 131              		.loc 2 129 0
 132 0054 F230D0E1 		ldrsh	r3, [r0, #2]
 133 0058 68308DE5 		str	r3, [sp, #104]
 134              	.LVL14:
 130:C:/Renesas/e2studio_2021_01_workspace_RZA2M_ANPR/ANPR_RZA2M_GR_MANGO/src/tensorflow_lite/src/tensorflow/lite/kernels/internal/reference/integer_ops\conv.h ****   const int32 output_offset = params.output_offset;
 135              		.loc 2 130 0
 136 005c F430D0E1 		ldrsh	r3, [r0, #4]
 137 0060 6C308DE5 		str	r3, [sp, #108]
 138              	.LVL15:
 131:C:/Renesas/e2studio_2021_01_workspace_RZA2M_ANPR/ANPR_RZA2M_GR_MANGO/src/tensorflow_lite/src/tensorflow/lite/kernels/internal/reference/integer_ops\conv.h **** 
 139              		.loc 2 131 0
 140 0064 1C3090E5 		ldr	r3, [r0, #28]
 121:C:/Renesas/e2studio_2021_01_workspace_RZA2M_ANPR/ANPR_RZA2M_GR_MANGO/src/tensorflow_lite/src/tensorflow/lite/kernels/internal/reference/integer_ops\conv.h **** 
 141              		.loc 2 121 0
 142 0068 AC009DE5 		ldr	r0, [sp, #172]
 143              	.LVL16:
 131:C:/Renesas/e2studio_2021_01_workspace_RZA2M_ANPR/ANPR_RZA2M_GR_MANGO/src/tensorflow_lite/src/tensorflow/lite/kernels/internal/reference/integer_ops\conv.h **** 
 144              		.loc 2 131 0
 145 006c 70308DE5 		str	r3, [sp, #112]
 146              	.LVL17:
 147              		.loc 2 138 0
 148 0070 7D0100CA 		bgt	.L10
 149              	.LVL18:
 139:C:/Renesas/e2studio_2021_01_workspace_RZA2M_ANPR/ANPR_RZA2M_GR_MANGO/src/tensorflow_lite/src/tensorflow/lite/kernels/internal/reference/integer_ops\conv.h ****   TFLITE_DCHECK_EQ(input_shape.DimensionsCount(), 4);
 150              		.loc 2 139 0
 151 0074 00309AE5 		ldr	r3, [r10]
 152              	.LVL19:
 153 0078 040053E3 		cmp	r3, #4
 154 007c 7A01001A 		bne	.L10
 155              	.LVL20:
 140:C:/Renesas/e2studio_2021_01_workspace_RZA2M_ANPR/ANPR_RZA2M_GR_MANGO/src/tensorflow_lite/src/tensorflow/lite/kernels/internal/reference/integer_ops\conv.h ****   TFLITE_DCHECK_EQ(filter_shape.DimensionsCount(), 4);
 156              		.loc 2 140 0
 157 0080 003098E5 		ldr	r3, [r8]
 158 0084 040053E3 		cmp	r3, #4
 159 0088 7701001A 		bne	.L10
 160              	.LVL21:
 141:C:/Renesas/e2studio_2021_01_workspace_RZA2M_ANPR/ANPR_RZA2M_GR_MANGO/src/tensorflow_lite/src/tensorflow/lite/kernels/internal/reference/integer_ops\conv.h ****   TFLITE_DCHECK_EQ(output_shape.DimensionsCount(), 4);
 161              		.loc 2 141 0
 162 008c B4309DE5 		ldr	r3, [sp, #180]
 163 0090 003093E5 		ldr	r3, [r3]
 164 0094 040053E3 		cmp	r3, #4
 165 0098 7301001A 		bne	.L10
 166              	.LVL22:
 167              	.LBB287:
 168              	.LBB288:
 169              	.LBB289:
 170              	.LBB290:
 171              		.file 3 "C:/Renesas/e2studio_2021_01_workspace_RZA2M_ANPR/ANPR_RZA2M_GR_MANGO/src/tensorflow_lite/
   1:C:/Renesas/e2studio_2021_01_workspace_RZA2M_ANPR/ANPR_RZA2M_GR_MANGO/src/tensorflow_lite/src/tensorflow/lite/kernels/internal\types.h **** /* Copyright 2018 The TensorFlow Authors. All Rights Reserved.
   2:C:/Renesas/e2studio_2021_01_workspace_RZA2M_ANPR/ANPR_RZA2M_GR_MANGO/src/tensorflow_lite/src/tensorflow/lite/kernels/internal\types.h **** 
   3:C:/Renesas/e2studio_2021_01_workspace_RZA2M_ANPR/ANPR_RZA2M_GR_MANGO/src/tensorflow_lite/src/tensorflow/lite/kernels/internal\types.h **** Licensed under the Apache License, Version 2.0 (the "License");
   4:C:/Renesas/e2studio_2021_01_workspace_RZA2M_ANPR/ANPR_RZA2M_GR_MANGO/src/tensorflow_lite/src/tensorflow/lite/kernels/internal\types.h **** you may not use this file except in compliance with the License.
   5:C:/Renesas/e2studio_2021_01_workspace_RZA2M_ANPR/ANPR_RZA2M_GR_MANGO/src/tensorflow_lite/src/tensorflow/lite/kernels/internal\types.h **** You may obtain a copy of the License at
   6:C:/Renesas/e2studio_2021_01_workspace_RZA2M_ANPR/ANPR_RZA2M_GR_MANGO/src/tensorflow_lite/src/tensorflow/lite/kernels/internal\types.h **** 
   7:C:/Renesas/e2studio_2021_01_workspace_RZA2M_ANPR/ANPR_RZA2M_GR_MANGO/src/tensorflow_lite/src/tensorflow/lite/kernels/internal\types.h ****     http://www.apache.org/licenses/LICENSE-2.0
   8:C:/Renesas/e2studio_2021_01_workspace_RZA2M_ANPR/ANPR_RZA2M_GR_MANGO/src/tensorflow_lite/src/tensorflow/lite/kernels/internal\types.h **** 
   9:C:/Renesas/e2studio_2021_01_workspace_RZA2M_ANPR/ANPR_RZA2M_GR_MANGO/src/tensorflow_lite/src/tensorflow/lite/kernels/internal\types.h **** Unless required by applicable law or agreed to in writing, software
  10:C:/Renesas/e2studio_2021_01_workspace_RZA2M_ANPR/ANPR_RZA2M_GR_MANGO/src/tensorflow_lite/src/tensorflow/lite/kernels/internal\types.h **** distributed under the License is distributed on an "AS IS" BASIS,
  11:C:/Renesas/e2studio_2021_01_workspace_RZA2M_ANPR/ANPR_RZA2M_GR_MANGO/src/tensorflow_lite/src/tensorflow/lite/kernels/internal\types.h **** WITHOUT WARRANTIES OR CONDITIONS OF ANY KIND, either express or implied.
  12:C:/Renesas/e2studio_2021_01_workspace_RZA2M_ANPR/ANPR_RZA2M_GR_MANGO/src/tensorflow_lite/src/tensorflow/lite/kernels/internal\types.h **** See the License for the specific language governing permissions and
  13:C:/Renesas/e2studio_2021_01_workspace_RZA2M_ANPR/ANPR_RZA2M_GR_MANGO/src/tensorflow_lite/src/tensorflow/lite/kernels/internal\types.h **** limitations under the License.
  14:C:/Renesas/e2studio_2021_01_workspace_RZA2M_ANPR/ANPR_RZA2M_GR_MANGO/src/tensorflow_lite/src/tensorflow/lite/kernels/internal\types.h **** ==============================================================================*/
  15:C:/Renesas/e2studio_2021_01_workspace_RZA2M_ANPR/ANPR_RZA2M_GR_MANGO/src/tensorflow_lite/src/tensorflow/lite/kernels/internal\types.h **** #ifndef TENSORFLOW_LITE_KERNELS_INTERNAL_TYPES_H_
  16:C:/Renesas/e2studio_2021_01_workspace_RZA2M_ANPR/ANPR_RZA2M_GR_MANGO/src/tensorflow_lite/src/tensorflow/lite/kernels/internal\types.h **** #define TENSORFLOW_LITE_KERNELS_INTERNAL_TYPES_H_
  17:C:/Renesas/e2studio_2021_01_workspace_RZA2M_ANPR/ANPR_RZA2M_GR_MANGO/src/tensorflow_lite/src/tensorflow/lite/kernels/internal\types.h **** 
  18:C:/Renesas/e2studio_2021_01_workspace_RZA2M_ANPR/ANPR_RZA2M_GR_MANGO/src/tensorflow_lite/src/tensorflow/lite/kernels/internal\types.h **** #include <algorithm>
  19:C:/Renesas/e2studio_2021_01_workspace_RZA2M_ANPR/ANPR_RZA2M_GR_MANGO/src/tensorflow_lite/src/tensorflow/lite/kernels/internal\types.h **** #include <cstdint>
  20:C:/Renesas/e2studio_2021_01_workspace_RZA2M_ANPR/ANPR_RZA2M_GR_MANGO/src/tensorflow_lite/src/tensorflow/lite/kernels/internal\types.h **** #include <cstring>
  21:C:/Renesas/e2studio_2021_01_workspace_RZA2M_ANPR/ANPR_RZA2M_GR_MANGO/src/tensorflow_lite/src/tensorflow/lite/kernels/internal\types.h **** #include <initializer_list>
  22:C:/Renesas/e2studio_2021_01_workspace_RZA2M_ANPR/ANPR_RZA2M_GR_MANGO/src/tensorflow_lite/src/tensorflow/lite/kernels/internal\types.h **** 
  23:C:/Renesas/e2studio_2021_01_workspace_RZA2M_ANPR/ANPR_RZA2M_GR_MANGO/src/tensorflow_lite/src/tensorflow/lite/kernels/internal\types.h **** #include "tensorflow/lite/kernels/internal/compatibility.h"
  24:C:/Renesas/e2studio_2021_01_workspace_RZA2M_ANPR/ANPR_RZA2M_GR_MANGO/src/tensorflow_lite/src/tensorflow/lite/kernels/internal\types.h **** 
  25:C:/Renesas/e2studio_2021_01_workspace_RZA2M_ANPR/ANPR_RZA2M_GR_MANGO/src/tensorflow_lite/src/tensorflow/lite/kernels/internal\types.h **** namespace tflite {
  26:C:/Renesas/e2studio_2021_01_workspace_RZA2M_ANPR/ANPR_RZA2M_GR_MANGO/src/tensorflow_lite/src/tensorflow/lite/kernels/internal\types.h **** 
  27:C:/Renesas/e2studio_2021_01_workspace_RZA2M_ANPR/ANPR_RZA2M_GR_MANGO/src/tensorflow_lite/src/tensorflow/lite/kernels/internal\types.h **** enum class FusedActivationFunctionType : uint8_t {
  28:C:/Renesas/e2studio_2021_01_workspace_RZA2M_ANPR/ANPR_RZA2M_GR_MANGO/src/tensorflow_lite/src/tensorflow/lite/kernels/internal\types.h ****   kNone,
  29:C:/Renesas/e2studio_2021_01_workspace_RZA2M_ANPR/ANPR_RZA2M_GR_MANGO/src/tensorflow_lite/src/tensorflow/lite/kernels/internal\types.h ****   kRelu6,
  30:C:/Renesas/e2studio_2021_01_workspace_RZA2M_ANPR/ANPR_RZA2M_GR_MANGO/src/tensorflow_lite/src/tensorflow/lite/kernels/internal\types.h ****   kRelu1,
  31:C:/Renesas/e2studio_2021_01_workspace_RZA2M_ANPR/ANPR_RZA2M_GR_MANGO/src/tensorflow_lite/src/tensorflow/lite/kernels/internal\types.h ****   kRelu
  32:C:/Renesas/e2studio_2021_01_workspace_RZA2M_ANPR/ANPR_RZA2M_GR_MANGO/src/tensorflow_lite/src/tensorflow/lite/kernels/internal\types.h **** };
  33:C:/Renesas/e2studio_2021_01_workspace_RZA2M_ANPR/ANPR_RZA2M_GR_MANGO/src/tensorflow_lite/src/tensorflow/lite/kernels/internal\types.h **** enum class PaddingType : uint8_t { kNone, kSame, kValid };
  34:C:/Renesas/e2studio_2021_01_workspace_RZA2M_ANPR/ANPR_RZA2M_GR_MANGO/src/tensorflow_lite/src/tensorflow/lite/kernels/internal\types.h **** 
  35:C:/Renesas/e2studio_2021_01_workspace_RZA2M_ANPR/ANPR_RZA2M_GR_MANGO/src/tensorflow_lite/src/tensorflow/lite/kernels/internal\types.h **** struct PaddingValues {
  36:C:/Renesas/e2studio_2021_01_workspace_RZA2M_ANPR/ANPR_RZA2M_GR_MANGO/src/tensorflow_lite/src/tensorflow/lite/kernels/internal\types.h ****   int16_t width;
  37:C:/Renesas/e2studio_2021_01_workspace_RZA2M_ANPR/ANPR_RZA2M_GR_MANGO/src/tensorflow_lite/src/tensorflow/lite/kernels/internal\types.h ****   int16_t height;
  38:C:/Renesas/e2studio_2021_01_workspace_RZA2M_ANPR/ANPR_RZA2M_GR_MANGO/src/tensorflow_lite/src/tensorflow/lite/kernels/internal\types.h ****   // offset is used for calculating "remaining" padding, for example, `width`
  39:C:/Renesas/e2studio_2021_01_workspace_RZA2M_ANPR/ANPR_RZA2M_GR_MANGO/src/tensorflow_lite/src/tensorflow/lite/kernels/internal\types.h ****   // is 1 and `width_offset` is 1, so padding_left is 1 while padding_right is
  40:C:/Renesas/e2studio_2021_01_workspace_RZA2M_ANPR/ANPR_RZA2M_GR_MANGO/src/tensorflow_lite/src/tensorflow/lite/kernels/internal\types.h ****   // 1 + 1 = 2.
  41:C:/Renesas/e2studio_2021_01_workspace_RZA2M_ANPR/ANPR_RZA2M_GR_MANGO/src/tensorflow_lite/src/tensorflow/lite/kernels/internal\types.h ****   int16_t width_offset;
  42:C:/Renesas/e2studio_2021_01_workspace_RZA2M_ANPR/ANPR_RZA2M_GR_MANGO/src/tensorflow_lite/src/tensorflow/lite/kernels/internal\types.h ****   // Same as width_offset except it's over the height dimension.
  43:C:/Renesas/e2studio_2021_01_workspace_RZA2M_ANPR/ANPR_RZA2M_GR_MANGO/src/tensorflow_lite/src/tensorflow/lite/kernels/internal\types.h ****   int16_t height_offset;
  44:C:/Renesas/e2studio_2021_01_workspace_RZA2M_ANPR/ANPR_RZA2M_GR_MANGO/src/tensorflow_lite/src/tensorflow/lite/kernels/internal\types.h **** };
  45:C:/Renesas/e2studio_2021_01_workspace_RZA2M_ANPR/ANPR_RZA2M_GR_MANGO/src/tensorflow_lite/src/tensorflow/lite/kernels/internal\types.h **** 
  46:C:/Renesas/e2studio_2021_01_workspace_RZA2M_ANPR/ANPR_RZA2M_GR_MANGO/src/tensorflow_lite/src/tensorflow/lite/kernels/internal\types.h **** struct Padding3DValues {
  47:C:/Renesas/e2studio_2021_01_workspace_RZA2M_ANPR/ANPR_RZA2M_GR_MANGO/src/tensorflow_lite/src/tensorflow/lite/kernels/internal\types.h ****   int16_t width;
  48:C:/Renesas/e2studio_2021_01_workspace_RZA2M_ANPR/ANPR_RZA2M_GR_MANGO/src/tensorflow_lite/src/tensorflow/lite/kernels/internal\types.h ****   int16_t height;
  49:C:/Renesas/e2studio_2021_01_workspace_RZA2M_ANPR/ANPR_RZA2M_GR_MANGO/src/tensorflow_lite/src/tensorflow/lite/kernels/internal\types.h ****   int16_t depth;
  50:C:/Renesas/e2studio_2021_01_workspace_RZA2M_ANPR/ANPR_RZA2M_GR_MANGO/src/tensorflow_lite/src/tensorflow/lite/kernels/internal\types.h ****   // offset is used for calculating "remaining" padding, for example, `width`
  51:C:/Renesas/e2studio_2021_01_workspace_RZA2M_ANPR/ANPR_RZA2M_GR_MANGO/src/tensorflow_lite/src/tensorflow/lite/kernels/internal\types.h ****   // is 1 and `width_offset` is 1, so padding_left is 1 while padding_right is
  52:C:/Renesas/e2studio_2021_01_workspace_RZA2M_ANPR/ANPR_RZA2M_GR_MANGO/src/tensorflow_lite/src/tensorflow/lite/kernels/internal\types.h ****   // 1 + 1 = 2.
  53:C:/Renesas/e2studio_2021_01_workspace_RZA2M_ANPR/ANPR_RZA2M_GR_MANGO/src/tensorflow_lite/src/tensorflow/lite/kernels/internal\types.h ****   int16_t width_offset;
  54:C:/Renesas/e2studio_2021_01_workspace_RZA2M_ANPR/ANPR_RZA2M_GR_MANGO/src/tensorflow_lite/src/tensorflow/lite/kernels/internal\types.h ****   // Same as width_offset except it's over the height dimension.
  55:C:/Renesas/e2studio_2021_01_workspace_RZA2M_ANPR/ANPR_RZA2M_GR_MANGO/src/tensorflow_lite/src/tensorflow/lite/kernels/internal\types.h ****   int16_t height_offset;
  56:C:/Renesas/e2studio_2021_01_workspace_RZA2M_ANPR/ANPR_RZA2M_GR_MANGO/src/tensorflow_lite/src/tensorflow/lite/kernels/internal\types.h ****   // Same as width_offset except it's over the depth dimension.
  57:C:/Renesas/e2studio_2021_01_workspace_RZA2M_ANPR/ANPR_RZA2M_GR_MANGO/src/tensorflow_lite/src/tensorflow/lite/kernels/internal\types.h ****   int16_t depth_offset;
  58:C:/Renesas/e2studio_2021_01_workspace_RZA2M_ANPR/ANPR_RZA2M_GR_MANGO/src/tensorflow_lite/src/tensorflow/lite/kernels/internal\types.h **** };
  59:C:/Renesas/e2studio_2021_01_workspace_RZA2M_ANPR/ANPR_RZA2M_GR_MANGO/src/tensorflow_lite/src/tensorflow/lite/kernels/internal\types.h **** 
  60:C:/Renesas/e2studio_2021_01_workspace_RZA2M_ANPR/ANPR_RZA2M_GR_MANGO/src/tensorflow_lite/src/tensorflow/lite/kernels/internal\types.h **** // This enumeration allows for non-default formats for the weights array
  61:C:/Renesas/e2studio_2021_01_workspace_RZA2M_ANPR/ANPR_RZA2M_GR_MANGO/src/tensorflow_lite/src/tensorflow/lite/kernels/internal\types.h **** // of a fully-connected operator, allowing the use of special optimized
  62:C:/Renesas/e2studio_2021_01_workspace_RZA2M_ANPR/ANPR_RZA2M_GR_MANGO/src/tensorflow_lite/src/tensorflow/lite/kernels/internal\types.h **** // runtime paths.
  63:C:/Renesas/e2studio_2021_01_workspace_RZA2M_ANPR/ANPR_RZA2M_GR_MANGO/src/tensorflow_lite/src/tensorflow/lite/kernels/internal\types.h **** enum class FullyConnectedWeightsFormat : uint8_t {
  64:C:/Renesas/e2studio_2021_01_workspace_RZA2M_ANPR/ANPR_RZA2M_GR_MANGO/src/tensorflow_lite/src/tensorflow/lite/kernels/internal\types.h ****   // Default format (flat 2D layout, the inner contiguous dimension
  65:C:/Renesas/e2studio_2021_01_workspace_RZA2M_ANPR/ANPR_RZA2M_GR_MANGO/src/tensorflow_lite/src/tensorflow/lite/kernels/internal\types.h ****   // is input_depth, the outer non-contiguous dimension is output_depth)
  66:C:/Renesas/e2studio_2021_01_workspace_RZA2M_ANPR/ANPR_RZA2M_GR_MANGO/src/tensorflow_lite/src/tensorflow/lite/kernels/internal\types.h ****   kDefault,
  67:C:/Renesas/e2studio_2021_01_workspace_RZA2M_ANPR/ANPR_RZA2M_GR_MANGO/src/tensorflow_lite/src/tensorflow/lite/kernels/internal\types.h ****   // Summary: optimized layout for fast CPU runtime implementation,
  68:C:/Renesas/e2studio_2021_01_workspace_RZA2M_ANPR/ANPR_RZA2M_GR_MANGO/src/tensorflow_lite/src/tensorflow/lite/kernels/internal\types.h ****   // aimed specifically at ARM CPUs at the moment, and specialized for
  69:C:/Renesas/e2studio_2021_01_workspace_RZA2M_ANPR/ANPR_RZA2M_GR_MANGO/src/tensorflow_lite/src/tensorflow/lite/kernels/internal\types.h ****   // 8-bit quantized layers.
  70:C:/Renesas/e2studio_2021_01_workspace_RZA2M_ANPR/ANPR_RZA2M_GR_MANGO/src/tensorflow_lite/src/tensorflow/lite/kernels/internal\types.h ****   //
  71:C:/Renesas/e2studio_2021_01_workspace_RZA2M_ANPR/ANPR_RZA2M_GR_MANGO/src/tensorflow_lite/src/tensorflow/lite/kernels/internal\types.h ****   // The use case we're concerned with here is: 8-bit quantization,
  72:C:/Renesas/e2studio_2021_01_workspace_RZA2M_ANPR/ANPR_RZA2M_GR_MANGO/src/tensorflow_lite/src/tensorflow/lite/kernels/internal\types.h ****   // large weights matrix that doesn't fit in cache (e.g. 4096x2048 in
  73:C:/Renesas/e2studio_2021_01_workspace_RZA2M_ANPR/ANPR_RZA2M_GR_MANGO/src/tensorflow_lite/src/tensorflow/lite/kernels/internal\types.h ****   // a key application that drove this), very small batch size (e.g. 1 -- 4).
  74:C:/Renesas/e2studio_2021_01_workspace_RZA2M_ANPR/ANPR_RZA2M_GR_MANGO/src/tensorflow_lite/src/tensorflow/lite/kernels/internal\types.h ****   //
  75:C:/Renesas/e2studio_2021_01_workspace_RZA2M_ANPR/ANPR_RZA2M_GR_MANGO/src/tensorflow_lite/src/tensorflow/lite/kernels/internal\types.h ****   // Even with 8-bit quantization of weights, the performance of memory
  76:C:/Renesas/e2studio_2021_01_workspace_RZA2M_ANPR/ANPR_RZA2M_GR_MANGO/src/tensorflow_lite/src/tensorflow/lite/kernels/internal\types.h ****   // accesses to the weights can become the dominant issue when
  77:C:/Renesas/e2studio_2021_01_workspace_RZA2M_ANPR/ANPR_RZA2M_GR_MANGO/src/tensorflow_lite/src/tensorflow/lite/kernels/internal\types.h ****   // the batch size is small, so each weight value is used in only a few
  78:C:/Renesas/e2studio_2021_01_workspace_RZA2M_ANPR/ANPR_RZA2M_GR_MANGO/src/tensorflow_lite/src/tensorflow/lite/kernels/internal\types.h ****   // arithmetic ops, i.e. the fully-connected node has a low arithmetic
  79:C:/Renesas/e2studio_2021_01_workspace_RZA2M_ANPR/ANPR_RZA2M_GR_MANGO/src/tensorflow_lite/src/tensorflow/lite/kernels/internal\types.h ****   // intensity. The specific issues that arise are of three kinds:
  80:C:/Renesas/e2studio_2021_01_workspace_RZA2M_ANPR/ANPR_RZA2M_GR_MANGO/src/tensorflow_lite/src/tensorflow/lite/kernels/internal\types.h ****   // (1) One may, ideally, max out DRAM bandwidth, i.e. be truly memory
  81:C:/Renesas/e2studio_2021_01_workspace_RZA2M_ANPR/ANPR_RZA2M_GR_MANGO/src/tensorflow_lite/src/tensorflow/lite/kernels/internal\types.h ****   //     bound. That's the "good" issue to run into.
  82:C:/Renesas/e2studio_2021_01_workspace_RZA2M_ANPR/ANPR_RZA2M_GR_MANGO/src/tensorflow_lite/src/tensorflow/lite/kernels/internal\types.h ****   // (2) One may run into sub-optimal pre-fetching: the data hasn't been
  83:C:/Renesas/e2studio_2021_01_workspace_RZA2M_ANPR/ANPR_RZA2M_GR_MANGO/src/tensorflow_lite/src/tensorflow/lite/kernels/internal\types.h ****   //     prefetched into the cache by the time we need it.
  84:C:/Renesas/e2studio_2021_01_workspace_RZA2M_ANPR/ANPR_RZA2M_GR_MANGO/src/tensorflow_lite/src/tensorflow/lite/kernels/internal\types.h ****   // (3) One may run into cache aliasing: multiple values that are
  85:C:/Renesas/e2studio_2021_01_workspace_RZA2M_ANPR/ANPR_RZA2M_GR_MANGO/src/tensorflow_lite/src/tensorflow/lite/kernels/internal\types.h ****   //     pre-fetched, alias each other in the L1 cache (which typically
  86:C:/Renesas/e2studio_2021_01_workspace_RZA2M_ANPR/ANPR_RZA2M_GR_MANGO/src/tensorflow_lite/src/tensorflow/lite/kernels/internal\types.h ****   //     has only 4-way set associativity in ARM CPUs) and thus evict
  87:C:/Renesas/e2studio_2021_01_workspace_RZA2M_ANPR/ANPR_RZA2M_GR_MANGO/src/tensorflow_lite/src/tensorflow/lite/kernels/internal\types.h ****   //     each other before we get to using them.
  88:C:/Renesas/e2studio_2021_01_workspace_RZA2M_ANPR/ANPR_RZA2M_GR_MANGO/src/tensorflow_lite/src/tensorflow/lite/kernels/internal\types.h ****   //
  89:C:/Renesas/e2studio_2021_01_workspace_RZA2M_ANPR/ANPR_RZA2M_GR_MANGO/src/tensorflow_lite/src/tensorflow/lite/kernels/internal\types.h ****   // The point of this shuffling is to avoid issues (2) and (3) so that
  90:C:/Renesas/e2studio_2021_01_workspace_RZA2M_ANPR/ANPR_RZA2M_GR_MANGO/src/tensorflow_lite/src/tensorflow/lite/kernels/internal\types.h ****   // we get as fast as possible given only the hard constraint (1).
  91:C:/Renesas/e2studio_2021_01_workspace_RZA2M_ANPR/ANPR_RZA2M_GR_MANGO/src/tensorflow_lite/src/tensorflow/lite/kernels/internal\types.h ****   // This is achieved by turning the difficulty into a solution: the
  92:C:/Renesas/e2studio_2021_01_workspace_RZA2M_ANPR/ANPR_RZA2M_GR_MANGO/src/tensorflow_lite/src/tensorflow/lite/kernels/internal\types.h ****   // difficulty, that each value loaded from memory is used only in
  93:C:/Renesas/e2studio_2021_01_workspace_RZA2M_ANPR/ANPR_RZA2M_GR_MANGO/src/tensorflow_lite/src/tensorflow/lite/kernels/internal\types.h ****   // one kernel iteration, making this operation memory-intensive, hints at
  94:C:/Renesas/e2studio_2021_01_workspace_RZA2M_ANPR/ANPR_RZA2M_GR_MANGO/src/tensorflow_lite/src/tensorflow/lite/kernels/internal\types.h ****   // the solution, of shuffling the weights so that they are stored in the
  95:C:/Renesas/e2studio_2021_01_workspace_RZA2M_ANPR/ANPR_RZA2M_GR_MANGO/src/tensorflow_lite/src/tensorflow/lite/kernels/internal\types.h ****   // exact order as the kernel needs to load them, so that the memory
  96:C:/Renesas/e2studio_2021_01_workspace_RZA2M_ANPR/ANPR_RZA2M_GR_MANGO/src/tensorflow_lite/src/tensorflow/lite/kernels/internal\types.h ****   // accesses made by the kernel are trivial. This solves (2) because the
  97:C:/Renesas/e2studio_2021_01_workspace_RZA2M_ANPR/ANPR_RZA2M_GR_MANGO/src/tensorflow_lite/src/tensorflow/lite/kernels/internal\types.h ****   // trivial memory access pattern allows the CPU's automatic prefetching
  98:C:/Renesas/e2studio_2021_01_workspace_RZA2M_ANPR/ANPR_RZA2M_GR_MANGO/src/tensorflow_lite/src/tensorflow/lite/kernels/internal\types.h ****   // to perform very well (no need even for preload instructions), and this
  99:C:/Renesas/e2studio_2021_01_workspace_RZA2M_ANPR/ANPR_RZA2M_GR_MANGO/src/tensorflow_lite/src/tensorflow/lite/kernels/internal\types.h ****   // solves (3) because the values being loaded concurrently are now
 100:C:/Renesas/e2studio_2021_01_workspace_RZA2M_ANPR/ANPR_RZA2M_GR_MANGO/src/tensorflow_lite/src/tensorflow/lite/kernels/internal\types.h ****   // contiguous in the address space, thus don't alias each other in the cache.
 101:C:/Renesas/e2studio_2021_01_workspace_RZA2M_ANPR/ANPR_RZA2M_GR_MANGO/src/tensorflow_lite/src/tensorflow/lite/kernels/internal\types.h ****   //
 102:C:/Renesas/e2studio_2021_01_workspace_RZA2M_ANPR/ANPR_RZA2M_GR_MANGO/src/tensorflow_lite/src/tensorflow/lite/kernels/internal\types.h ****   // On ARM, we typically want our kernel to process a 4x16 block of weights
 103:C:/Renesas/e2studio_2021_01_workspace_RZA2M_ANPR/ANPR_RZA2M_GR_MANGO/src/tensorflow_lite/src/tensorflow/lite/kernels/internal\types.h ****   // at a time, because:
 104:C:/Renesas/e2studio_2021_01_workspace_RZA2M_ANPR/ANPR_RZA2M_GR_MANGO/src/tensorflow_lite/src/tensorflow/lite/kernels/internal\types.h ****   //   - 16 is the number of bytes in a NEON register.
 105:C:/Renesas/e2studio_2021_01_workspace_RZA2M_ANPR/ANPR_RZA2M_GR_MANGO/src/tensorflow_lite/src/tensorflow/lite/kernels/internal\types.h ****   //   - 4 is how many rows we need to handle concurrently in the kernel in
 106:C:/Renesas/e2studio_2021_01_workspace_RZA2M_ANPR/ANPR_RZA2M_GR_MANGO/src/tensorflow_lite/src/tensorflow/lite/kernels/internal\types.h ****   //     order to have sufficient mutual independence of instructions to
 107:C:/Renesas/e2studio_2021_01_workspace_RZA2M_ANPR/ANPR_RZA2M_GR_MANGO/src/tensorflow_lite/src/tensorflow/lite/kernels/internal\types.h ****   //     maximize arithmetic throughput.
 108:C:/Renesas/e2studio_2021_01_workspace_RZA2M_ANPR/ANPR_RZA2M_GR_MANGO/src/tensorflow_lite/src/tensorflow/lite/kernels/internal\types.h ****   //
 109:C:/Renesas/e2studio_2021_01_workspace_RZA2M_ANPR/ANPR_RZA2M_GR_MANGO/src/tensorflow_lite/src/tensorflow/lite/kernels/internal\types.h ****   // Finally, the 'Int8' part in the name refers to the fact that this
 110:C:/Renesas/e2studio_2021_01_workspace_RZA2M_ANPR/ANPR_RZA2M_GR_MANGO/src/tensorflow_lite/src/tensorflow/lite/kernels/internal\types.h ****   // weights format has each weights value encoded as a signed int8_t value,
 111:C:/Renesas/e2studio_2021_01_workspace_RZA2M_ANPR/ANPR_RZA2M_GR_MANGO/src/tensorflow_lite/src/tensorflow/lite/kernels/internal\types.h ****   // even if the data type of the weights buffer is uint8_t.  This is intended
 112:C:/Renesas/e2studio_2021_01_workspace_RZA2M_ANPR/ANPR_RZA2M_GR_MANGO/src/tensorflow_lite/src/tensorflow/lite/kernels/internal\types.h ****   // to save runtime kernels the effort to have to XOR the top bit of these
 113:C:/Renesas/e2studio_2021_01_workspace_RZA2M_ANPR/ANPR_RZA2M_GR_MANGO/src/tensorflow_lite/src/tensorflow/lite/kernels/internal\types.h ****   // bytes before using them in signed arithmetic, see this file for more
 114:C:/Renesas/e2studio_2021_01_workspace_RZA2M_ANPR/ANPR_RZA2M_GR_MANGO/src/tensorflow_lite/src/tensorflow/lite/kernels/internal\types.h ****   // explanations on the 'signed int8_t trick' in matrix multiplication kernels:
 115:C:/Renesas/e2studio_2021_01_workspace_RZA2M_ANPR/ANPR_RZA2M_GR_MANGO/src/tensorflow_lite/src/tensorflow/lite/kernels/internal\types.h ****   //
 116:C:/Renesas/e2studio_2021_01_workspace_RZA2M_ANPR/ANPR_RZA2M_GR_MANGO/src/tensorflow_lite/src/tensorflow/lite/kernels/internal\types.h ****   //   tensorflow/lite/toco/graph_transformations/ensure_uint8_weights_safe_for_fast_int8_kernels.c
 117:C:/Renesas/e2studio_2021_01_workspace_RZA2M_ANPR/ANPR_RZA2M_GR_MANGO/src/tensorflow_lite/src/tensorflow/lite/kernels/internal\types.h ****   //
 118:C:/Renesas/e2studio_2021_01_workspace_RZA2M_ANPR/ANPR_RZA2M_GR_MANGO/src/tensorflow_lite/src/tensorflow/lite/kernels/internal\types.h ****   kShuffled4x16Int8,
 119:C:/Renesas/e2studio_2021_01_workspace_RZA2M_ANPR/ANPR_RZA2M_GR_MANGO/src/tensorflow_lite/src/tensorflow/lite/kernels/internal\types.h **** };
 120:C:/Renesas/e2studio_2021_01_workspace_RZA2M_ANPR/ANPR_RZA2M_GR_MANGO/src/tensorflow_lite/src/tensorflow/lite/kernels/internal\types.h **** 
 121:C:/Renesas/e2studio_2021_01_workspace_RZA2M_ANPR/ANPR_RZA2M_GR_MANGO/src/tensorflow_lite/src/tensorflow/lite/kernels/internal\types.h **** // Quantization parameters, determining the mapping of quantized values
 122:C:/Renesas/e2studio_2021_01_workspace_RZA2M_ANPR/ANPR_RZA2M_GR_MANGO/src/tensorflow_lite/src/tensorflow/lite/kernels/internal\types.h **** // to real values (i.e. determining how quantized values are mathematically
 123:C:/Renesas/e2studio_2021_01_workspace_RZA2M_ANPR/ANPR_RZA2M_GR_MANGO/src/tensorflow_lite/src/tensorflow/lite/kernels/internal\types.h **** // interpreted).
 124:C:/Renesas/e2studio_2021_01_workspace_RZA2M_ANPR/ANPR_RZA2M_GR_MANGO/src/tensorflow_lite/src/tensorflow/lite/kernels/internal\types.h **** //
 125:C:/Renesas/e2studio_2021_01_workspace_RZA2M_ANPR/ANPR_RZA2M_GR_MANGO/src/tensorflow_lite/src/tensorflow/lite/kernels/internal\types.h **** // The correspondence is as follows:
 126:C:/Renesas/e2studio_2021_01_workspace_RZA2M_ANPR/ANPR_RZA2M_GR_MANGO/src/tensorflow_lite/src/tensorflow/lite/kernels/internal\types.h **** //
 127:C:/Renesas/e2studio_2021_01_workspace_RZA2M_ANPR/ANPR_RZA2M_GR_MANGO/src/tensorflow_lite/src/tensorflow/lite/kernels/internal\types.h **** //   real_value = scale * (quantized_value - zero_point);
 128:C:/Renesas/e2studio_2021_01_workspace_RZA2M_ANPR/ANPR_RZA2M_GR_MANGO/src/tensorflow_lite/src/tensorflow/lite/kernels/internal\types.h **** //
 129:C:/Renesas/e2studio_2021_01_workspace_RZA2M_ANPR/ANPR_RZA2M_GR_MANGO/src/tensorflow_lite/src/tensorflow/lite/kernels/internal\types.h **** // In other words, zero_point designates which quantized value corresponds to
 130:C:/Renesas/e2studio_2021_01_workspace_RZA2M_ANPR/ANPR_RZA2M_GR_MANGO/src/tensorflow_lite/src/tensorflow/lite/kernels/internal\types.h **** // the real 0 value, and scale designates the difference between the real values
 131:C:/Renesas/e2studio_2021_01_workspace_RZA2M_ANPR/ANPR_RZA2M_GR_MANGO/src/tensorflow_lite/src/tensorflow/lite/kernels/internal\types.h **** // corresponding to consecutive quantized values differing by 1.
 132:C:/Renesas/e2studio_2021_01_workspace_RZA2M_ANPR/ANPR_RZA2M_GR_MANGO/src/tensorflow_lite/src/tensorflow/lite/kernels/internal\types.h **** struct QuantizationParams {
 133:C:/Renesas/e2studio_2021_01_workspace_RZA2M_ANPR/ANPR_RZA2M_GR_MANGO/src/tensorflow_lite/src/tensorflow/lite/kernels/internal\types.h ****   int32_t zero_point = 0;
 134:C:/Renesas/e2studio_2021_01_workspace_RZA2M_ANPR/ANPR_RZA2M_GR_MANGO/src/tensorflow_lite/src/tensorflow/lite/kernels/internal\types.h ****   double scale = 0.0;
 135:C:/Renesas/e2studio_2021_01_workspace_RZA2M_ANPR/ANPR_RZA2M_GR_MANGO/src/tensorflow_lite/src/tensorflow/lite/kernels/internal\types.h **** };
 136:C:/Renesas/e2studio_2021_01_workspace_RZA2M_ANPR/ANPR_RZA2M_GR_MANGO/src/tensorflow_lite/src/tensorflow/lite/kernels/internal\types.h **** 
 137:C:/Renesas/e2studio_2021_01_workspace_RZA2M_ANPR/ANPR_RZA2M_GR_MANGO/src/tensorflow_lite/src/tensorflow/lite/kernels/internal\types.h **** inline bool operator==(const QuantizationParams& qp1,
 138:C:/Renesas/e2studio_2021_01_workspace_RZA2M_ANPR/ANPR_RZA2M_GR_MANGO/src/tensorflow_lite/src/tensorflow/lite/kernels/internal\types.h ****                        const QuantizationParams& qp2) {
 139:C:/Renesas/e2studio_2021_01_workspace_RZA2M_ANPR/ANPR_RZA2M_GR_MANGO/src/tensorflow_lite/src/tensorflow/lite/kernels/internal\types.h ****   return qp1.zero_point == qp2.zero_point && qp1.scale == qp2.scale;
 140:C:/Renesas/e2studio_2021_01_workspace_RZA2M_ANPR/ANPR_RZA2M_GR_MANGO/src/tensorflow_lite/src/tensorflow/lite/kernels/internal\types.h **** }
 141:C:/Renesas/e2studio_2021_01_workspace_RZA2M_ANPR/ANPR_RZA2M_GR_MANGO/src/tensorflow_lite/src/tensorflow/lite/kernels/internal\types.h **** 
 142:C:/Renesas/e2studio_2021_01_workspace_RZA2M_ANPR/ANPR_RZA2M_GR_MANGO/src/tensorflow_lite/src/tensorflow/lite/kernels/internal\types.h **** template <int N>
 143:C:/Renesas/e2studio_2021_01_workspace_RZA2M_ANPR/ANPR_RZA2M_GR_MANGO/src/tensorflow_lite/src/tensorflow/lite/kernels/internal\types.h **** struct Dims {
 144:C:/Renesas/e2studio_2021_01_workspace_RZA2M_ANPR/ANPR_RZA2M_GR_MANGO/src/tensorflow_lite/src/tensorflow/lite/kernels/internal\types.h ****   int sizes[N];
 145:C:/Renesas/e2studio_2021_01_workspace_RZA2M_ANPR/ANPR_RZA2M_GR_MANGO/src/tensorflow_lite/src/tensorflow/lite/kernels/internal\types.h ****   int strides[N];
 146:C:/Renesas/e2studio_2021_01_workspace_RZA2M_ANPR/ANPR_RZA2M_GR_MANGO/src/tensorflow_lite/src/tensorflow/lite/kernels/internal\types.h **** };
 147:C:/Renesas/e2studio_2021_01_workspace_RZA2M_ANPR/ANPR_RZA2M_GR_MANGO/src/tensorflow_lite/src/tensorflow/lite/kernels/internal\types.h **** 
 148:C:/Renesas/e2studio_2021_01_workspace_RZA2M_ANPR/ANPR_RZA2M_GR_MANGO/src/tensorflow_lite/src/tensorflow/lite/kernels/internal\types.h **** class RuntimeShape {
 149:C:/Renesas/e2studio_2021_01_workspace_RZA2M_ANPR/ANPR_RZA2M_GR_MANGO/src/tensorflow_lite/src/tensorflow/lite/kernels/internal\types.h ****  public:
 150:C:/Renesas/e2studio_2021_01_workspace_RZA2M_ANPR/ANPR_RZA2M_GR_MANGO/src/tensorflow_lite/src/tensorflow/lite/kernels/internal\types.h ****   // Shapes with dimensions up to 5 are stored directly in the structure, while
 151:C:/Renesas/e2studio_2021_01_workspace_RZA2M_ANPR/ANPR_RZA2M_GR_MANGO/src/tensorflow_lite/src/tensorflow/lite/kernels/internal\types.h ****   // larger shapes are separately allocated.
 152:C:/Renesas/e2studio_2021_01_workspace_RZA2M_ANPR/ANPR_RZA2M_GR_MANGO/src/tensorflow_lite/src/tensorflow/lite/kernels/internal\types.h ****   static constexpr int kMaxSmallSize = 5;
 153:C:/Renesas/e2studio_2021_01_workspace_RZA2M_ANPR/ANPR_RZA2M_GR_MANGO/src/tensorflow_lite/src/tensorflow/lite/kernels/internal\types.h **** 
 154:C:/Renesas/e2studio_2021_01_workspace_RZA2M_ANPR/ANPR_RZA2M_GR_MANGO/src/tensorflow_lite/src/tensorflow/lite/kernels/internal\types.h ****   RuntimeShape& operator=(RuntimeShape const&) = delete;
 155:C:/Renesas/e2studio_2021_01_workspace_RZA2M_ANPR/ANPR_RZA2M_GR_MANGO/src/tensorflow_lite/src/tensorflow/lite/kernels/internal\types.h **** 
 156:C:/Renesas/e2studio_2021_01_workspace_RZA2M_ANPR/ANPR_RZA2M_GR_MANGO/src/tensorflow_lite/src/tensorflow/lite/kernels/internal\types.h ****   RuntimeShape() : size_(0) {}
 157:C:/Renesas/e2studio_2021_01_workspace_RZA2M_ANPR/ANPR_RZA2M_GR_MANGO/src/tensorflow_lite/src/tensorflow/lite/kernels/internal\types.h **** 
 158:C:/Renesas/e2studio_2021_01_workspace_RZA2M_ANPR/ANPR_RZA2M_GR_MANGO/src/tensorflow_lite/src/tensorflow/lite/kernels/internal\types.h ****   explicit RuntimeShape(int dimensions_count) : size_(dimensions_count) {
 159:C:/Renesas/e2studio_2021_01_workspace_RZA2M_ANPR/ANPR_RZA2M_GR_MANGO/src/tensorflow_lite/src/tensorflow/lite/kernels/internal\types.h ****     if (dimensions_count > kMaxSmallSize) {
 160:C:/Renesas/e2studio_2021_01_workspace_RZA2M_ANPR/ANPR_RZA2M_GR_MANGO/src/tensorflow_lite/src/tensorflow/lite/kernels/internal\types.h **** #ifdef TF_LITE_STATIC_MEMORY
 161:C:/Renesas/e2studio_2021_01_workspace_RZA2M_ANPR/ANPR_RZA2M_GR_MANGO/src/tensorflow_lite/src/tensorflow/lite/kernels/internal\types.h ****       TFLITE_CHECK(false && "No shape resizing supported on this platform");
 162:C:/Renesas/e2studio_2021_01_workspace_RZA2M_ANPR/ANPR_RZA2M_GR_MANGO/src/tensorflow_lite/src/tensorflow/lite/kernels/internal\types.h **** #else  // TF_LITE_STATIC_MEMORY
 163:C:/Renesas/e2studio_2021_01_workspace_RZA2M_ANPR/ANPR_RZA2M_GR_MANGO/src/tensorflow_lite/src/tensorflow/lite/kernels/internal\types.h ****       dims_pointer_ = new int32_t[dimensions_count];
 164:C:/Renesas/e2studio_2021_01_workspace_RZA2M_ANPR/ANPR_RZA2M_GR_MANGO/src/tensorflow_lite/src/tensorflow/lite/kernels/internal\types.h **** #endif  // TF_LITE_STATIC_MEMORY
 165:C:/Renesas/e2studio_2021_01_workspace_RZA2M_ANPR/ANPR_RZA2M_GR_MANGO/src/tensorflow_lite/src/tensorflow/lite/kernels/internal\types.h ****     }
 166:C:/Renesas/e2studio_2021_01_workspace_RZA2M_ANPR/ANPR_RZA2M_GR_MANGO/src/tensorflow_lite/src/tensorflow/lite/kernels/internal\types.h ****   }
 167:C:/Renesas/e2studio_2021_01_workspace_RZA2M_ANPR/ANPR_RZA2M_GR_MANGO/src/tensorflow_lite/src/tensorflow/lite/kernels/internal\types.h **** 
 168:C:/Renesas/e2studio_2021_01_workspace_RZA2M_ANPR/ANPR_RZA2M_GR_MANGO/src/tensorflow_lite/src/tensorflow/lite/kernels/internal\types.h ****   RuntimeShape(int shape_size, int32_t value) : size_(0) {
 169:C:/Renesas/e2studio_2021_01_workspace_RZA2M_ANPR/ANPR_RZA2M_GR_MANGO/src/tensorflow_lite/src/tensorflow/lite/kernels/internal\types.h ****     Resize(shape_size);
 170:C:/Renesas/e2studio_2021_01_workspace_RZA2M_ANPR/ANPR_RZA2M_GR_MANGO/src/tensorflow_lite/src/tensorflow/lite/kernels/internal\types.h ****     for (int i = 0; i < shape_size; ++i) {
 171:C:/Renesas/e2studio_2021_01_workspace_RZA2M_ANPR/ANPR_RZA2M_GR_MANGO/src/tensorflow_lite/src/tensorflow/lite/kernels/internal\types.h ****       SetDim(i, value);
 172:C:/Renesas/e2studio_2021_01_workspace_RZA2M_ANPR/ANPR_RZA2M_GR_MANGO/src/tensorflow_lite/src/tensorflow/lite/kernels/internal\types.h ****     }
 173:C:/Renesas/e2studio_2021_01_workspace_RZA2M_ANPR/ANPR_RZA2M_GR_MANGO/src/tensorflow_lite/src/tensorflow/lite/kernels/internal\types.h ****   }
 174:C:/Renesas/e2studio_2021_01_workspace_RZA2M_ANPR/ANPR_RZA2M_GR_MANGO/src/tensorflow_lite/src/tensorflow/lite/kernels/internal\types.h **** 
 175:C:/Renesas/e2studio_2021_01_workspace_RZA2M_ANPR/ANPR_RZA2M_GR_MANGO/src/tensorflow_lite/src/tensorflow/lite/kernels/internal\types.h ****   RuntimeShape(int dimensions_count, const int32_t* dims_data) : size_(0) {
 176:C:/Renesas/e2studio_2021_01_workspace_RZA2M_ANPR/ANPR_RZA2M_GR_MANGO/src/tensorflow_lite/src/tensorflow/lite/kernels/internal\types.h ****     ReplaceWith(dimensions_count, dims_data);
 177:C:/Renesas/e2studio_2021_01_workspace_RZA2M_ANPR/ANPR_RZA2M_GR_MANGO/src/tensorflow_lite/src/tensorflow/lite/kernels/internal\types.h ****   }
 178:C:/Renesas/e2studio_2021_01_workspace_RZA2M_ANPR/ANPR_RZA2M_GR_MANGO/src/tensorflow_lite/src/tensorflow/lite/kernels/internal\types.h **** 
 179:C:/Renesas/e2studio_2021_01_workspace_RZA2M_ANPR/ANPR_RZA2M_GR_MANGO/src/tensorflow_lite/src/tensorflow/lite/kernels/internal\types.h ****   RuntimeShape(const std::initializer_list<int> init_list) : size_(0) {
 180:C:/Renesas/e2studio_2021_01_workspace_RZA2M_ANPR/ANPR_RZA2M_GR_MANGO/src/tensorflow_lite/src/tensorflow/lite/kernels/internal\types.h ****     BuildFrom(init_list);
 181:C:/Renesas/e2studio_2021_01_workspace_RZA2M_ANPR/ANPR_RZA2M_GR_MANGO/src/tensorflow_lite/src/tensorflow/lite/kernels/internal\types.h ****   }
 182:C:/Renesas/e2studio_2021_01_workspace_RZA2M_ANPR/ANPR_RZA2M_GR_MANGO/src/tensorflow_lite/src/tensorflow/lite/kernels/internal\types.h **** 
 183:C:/Renesas/e2studio_2021_01_workspace_RZA2M_ANPR/ANPR_RZA2M_GR_MANGO/src/tensorflow_lite/src/tensorflow/lite/kernels/internal\types.h ****   // Avoid using this constructor.  We should be able to delete it when C++17
 184:C:/Renesas/e2studio_2021_01_workspace_RZA2M_ANPR/ANPR_RZA2M_GR_MANGO/src/tensorflow_lite/src/tensorflow/lite/kernels/internal\types.h ****   // rolls out.
 185:C:/Renesas/e2studio_2021_01_workspace_RZA2M_ANPR/ANPR_RZA2M_GR_MANGO/src/tensorflow_lite/src/tensorflow/lite/kernels/internal\types.h ****   RuntimeShape(RuntimeShape const& other) : size_(other.DimensionsCount()) {
 186:C:/Renesas/e2studio_2021_01_workspace_RZA2M_ANPR/ANPR_RZA2M_GR_MANGO/src/tensorflow_lite/src/tensorflow/lite/kernels/internal\types.h ****     if (size_ > kMaxSmallSize) {
 187:C:/Renesas/e2studio_2021_01_workspace_RZA2M_ANPR/ANPR_RZA2M_GR_MANGO/src/tensorflow_lite/src/tensorflow/lite/kernels/internal\types.h **** #ifdef TF_LITE_STATIC_MEMORY
 188:C:/Renesas/e2studio_2021_01_workspace_RZA2M_ANPR/ANPR_RZA2M_GR_MANGO/src/tensorflow_lite/src/tensorflow/lite/kernels/internal\types.h ****       TFLITE_CHECK(false && "No shape resizing supported on this platform");
 189:C:/Renesas/e2studio_2021_01_workspace_RZA2M_ANPR/ANPR_RZA2M_GR_MANGO/src/tensorflow_lite/src/tensorflow/lite/kernels/internal\types.h **** #else
 190:C:/Renesas/e2studio_2021_01_workspace_RZA2M_ANPR/ANPR_RZA2M_GR_MANGO/src/tensorflow_lite/src/tensorflow/lite/kernels/internal\types.h ****       dims_pointer_ = new int32_t[size_];
 191:C:/Renesas/e2studio_2021_01_workspace_RZA2M_ANPR/ANPR_RZA2M_GR_MANGO/src/tensorflow_lite/src/tensorflow/lite/kernels/internal\types.h **** #endif
 192:C:/Renesas/e2studio_2021_01_workspace_RZA2M_ANPR/ANPR_RZA2M_GR_MANGO/src/tensorflow_lite/src/tensorflow/lite/kernels/internal\types.h ****     }
 193:C:/Renesas/e2studio_2021_01_workspace_RZA2M_ANPR/ANPR_RZA2M_GR_MANGO/src/tensorflow_lite/src/tensorflow/lite/kernels/internal\types.h ****     std::memcpy(DimsData(), other.DimsData(), sizeof(int32_t) * size_);
 194:C:/Renesas/e2studio_2021_01_workspace_RZA2M_ANPR/ANPR_RZA2M_GR_MANGO/src/tensorflow_lite/src/tensorflow/lite/kernels/internal\types.h ****   }
 195:C:/Renesas/e2studio_2021_01_workspace_RZA2M_ANPR/ANPR_RZA2M_GR_MANGO/src/tensorflow_lite/src/tensorflow/lite/kernels/internal\types.h **** 
 196:C:/Renesas/e2studio_2021_01_workspace_RZA2M_ANPR/ANPR_RZA2M_GR_MANGO/src/tensorflow_lite/src/tensorflow/lite/kernels/internal\types.h ****   bool operator==(const RuntimeShape& comp) const {
 197:C:/Renesas/e2studio_2021_01_workspace_RZA2M_ANPR/ANPR_RZA2M_GR_MANGO/src/tensorflow_lite/src/tensorflow/lite/kernels/internal\types.h ****     return this->size_ == comp.size_ &&
 198:C:/Renesas/e2studio_2021_01_workspace_RZA2M_ANPR/ANPR_RZA2M_GR_MANGO/src/tensorflow_lite/src/tensorflow/lite/kernels/internal\types.h ****            std::memcmp(DimsData(), comp.DimsData(), size_ * sizeof(int32_t)) ==
 199:C:/Renesas/e2studio_2021_01_workspace_RZA2M_ANPR/ANPR_RZA2M_GR_MANGO/src/tensorflow_lite/src/tensorflow/lite/kernels/internal\types.h ****                0;
 200:C:/Renesas/e2studio_2021_01_workspace_RZA2M_ANPR/ANPR_RZA2M_GR_MANGO/src/tensorflow_lite/src/tensorflow/lite/kernels/internal\types.h ****   }
 201:C:/Renesas/e2studio_2021_01_workspace_RZA2M_ANPR/ANPR_RZA2M_GR_MANGO/src/tensorflow_lite/src/tensorflow/lite/kernels/internal\types.h **** 
 202:C:/Renesas/e2studio_2021_01_workspace_RZA2M_ANPR/ANPR_RZA2M_GR_MANGO/src/tensorflow_lite/src/tensorflow/lite/kernels/internal\types.h ****   ~RuntimeShape() {
 203:C:/Renesas/e2studio_2021_01_workspace_RZA2M_ANPR/ANPR_RZA2M_GR_MANGO/src/tensorflow_lite/src/tensorflow/lite/kernels/internal\types.h ****     if (size_ > kMaxSmallSize) {
 204:C:/Renesas/e2studio_2021_01_workspace_RZA2M_ANPR/ANPR_RZA2M_GR_MANGO/src/tensorflow_lite/src/tensorflow/lite/kernels/internal\types.h **** #ifdef TF_LITE_STATIC_MEMORY
 205:C:/Renesas/e2studio_2021_01_workspace_RZA2M_ANPR/ANPR_RZA2M_GR_MANGO/src/tensorflow_lite/src/tensorflow/lite/kernels/internal\types.h ****       TFLITE_CHECK(false && "No shape resizing supported on this platform");
 206:C:/Renesas/e2studio_2021_01_workspace_RZA2M_ANPR/ANPR_RZA2M_GR_MANGO/src/tensorflow_lite/src/tensorflow/lite/kernels/internal\types.h **** #else  // TF_LITE_STATIC_MEMORY
 207:C:/Renesas/e2studio_2021_01_workspace_RZA2M_ANPR/ANPR_RZA2M_GR_MANGO/src/tensorflow_lite/src/tensorflow/lite/kernels/internal\types.h ****       delete[] dims_pointer_;
 208:C:/Renesas/e2studio_2021_01_workspace_RZA2M_ANPR/ANPR_RZA2M_GR_MANGO/src/tensorflow_lite/src/tensorflow/lite/kernels/internal\types.h **** #endif  // TF_LITE_STATIC_MEMORY
 209:C:/Renesas/e2studio_2021_01_workspace_RZA2M_ANPR/ANPR_RZA2M_GR_MANGO/src/tensorflow_lite/src/tensorflow/lite/kernels/internal\types.h ****     }
 210:C:/Renesas/e2studio_2021_01_workspace_RZA2M_ANPR/ANPR_RZA2M_GR_MANGO/src/tensorflow_lite/src/tensorflow/lite/kernels/internal\types.h ****   }
 211:C:/Renesas/e2studio_2021_01_workspace_RZA2M_ANPR/ANPR_RZA2M_GR_MANGO/src/tensorflow_lite/src/tensorflow/lite/kernels/internal\types.h **** 
 212:C:/Renesas/e2studio_2021_01_workspace_RZA2M_ANPR/ANPR_RZA2M_GR_MANGO/src/tensorflow_lite/src/tensorflow/lite/kernels/internal\types.h ****   inline int32_t DimensionsCount() const { return size_; }
 213:C:/Renesas/e2studio_2021_01_workspace_RZA2M_ANPR/ANPR_RZA2M_GR_MANGO/src/tensorflow_lite/src/tensorflow/lite/kernels/internal\types.h ****   inline int32_t Dims(int i) const {
 214:C:/Renesas/e2studio_2021_01_workspace_RZA2M_ANPR/ANPR_RZA2M_GR_MANGO/src/tensorflow_lite/src/tensorflow/lite/kernels/internal\types.h ****     TFLITE_DCHECK_GE(i, 0);
 215:C:/Renesas/e2studio_2021_01_workspace_RZA2M_ANPR/ANPR_RZA2M_GR_MANGO/src/tensorflow_lite/src/tensorflow/lite/kernels/internal\types.h ****     TFLITE_DCHECK_LT(i, size_);
 216:C:/Renesas/e2studio_2021_01_workspace_RZA2M_ANPR/ANPR_RZA2M_GR_MANGO/src/tensorflow_lite/src/tensorflow/lite/kernels/internal\types.h ****     return size_ > kMaxSmallSize ? dims_pointer_[i] : dims_[i];
 172              		.loc 3 216 0
 173 009c B4309DE5 		ldr	r3, [sp, #180]
 174 00a0 043093E5 		ldr	r3, [r3, #4]
 175 00a4 0320A0E1 		mov	r2, r3
 176              	.LVL23:
 177 00a8 34308DE5 		str	r3, [sp, #52]
 178              	.LVL24:
 179              	.LBE290:
 180              	.LBE289:
 217:C:/Renesas/e2studio_2021_01_workspace_RZA2M_ANPR/ANPR_RZA2M_GR_MANGO/src/tensorflow_lite/src/tensorflow/lite/kernels/internal\types.h ****   }
 218:C:/Renesas/e2studio_2021_01_workspace_RZA2M_ANPR/ANPR_RZA2M_GR_MANGO/src/tensorflow_lite/src/tensorflow/lite/kernels/internal\types.h ****   inline void SetDim(int i, int32_t val) {
 219:C:/Renesas/e2studio_2021_01_workspace_RZA2M_ANPR/ANPR_RZA2M_GR_MANGO/src/tensorflow_lite/src/tensorflow/lite/kernels/internal\types.h ****     TFLITE_DCHECK_GE(i, 0);
 220:C:/Renesas/e2studio_2021_01_workspace_RZA2M_ANPR/ANPR_RZA2M_GR_MANGO/src/tensorflow_lite/src/tensorflow/lite/kernels/internal\types.h ****     TFLITE_DCHECK_LT(i, size_);
 221:C:/Renesas/e2studio_2021_01_workspace_RZA2M_ANPR/ANPR_RZA2M_GR_MANGO/src/tensorflow_lite/src/tensorflow/lite/kernels/internal\types.h ****     if (size_ > kMaxSmallSize) {
 222:C:/Renesas/e2studio_2021_01_workspace_RZA2M_ANPR/ANPR_RZA2M_GR_MANGO/src/tensorflow_lite/src/tensorflow/lite/kernels/internal\types.h ****       dims_pointer_[i] = val;
 223:C:/Renesas/e2studio_2021_01_workspace_RZA2M_ANPR/ANPR_RZA2M_GR_MANGO/src/tensorflow_lite/src/tensorflow/lite/kernels/internal\types.h ****     } else {
 224:C:/Renesas/e2studio_2021_01_workspace_RZA2M_ANPR/ANPR_RZA2M_GR_MANGO/src/tensorflow_lite/src/tensorflow/lite/kernels/internal\types.h ****       dims_[i] = val;
 225:C:/Renesas/e2studio_2021_01_workspace_RZA2M_ANPR/ANPR_RZA2M_GR_MANGO/src/tensorflow_lite/src/tensorflow/lite/kernels/internal\types.h ****     }
 226:C:/Renesas/e2studio_2021_01_workspace_RZA2M_ANPR/ANPR_RZA2M_GR_MANGO/src/tensorflow_lite/src/tensorflow/lite/kernels/internal\types.h ****   }
 227:C:/Renesas/e2studio_2021_01_workspace_RZA2M_ANPR/ANPR_RZA2M_GR_MANGO/src/tensorflow_lite/src/tensorflow/lite/kernels/internal\types.h **** 
 228:C:/Renesas/e2studio_2021_01_workspace_RZA2M_ANPR/ANPR_RZA2M_GR_MANGO/src/tensorflow_lite/src/tensorflow/lite/kernels/internal\types.h ****   inline int32_t* DimsData() {
 229:C:/Renesas/e2studio_2021_01_workspace_RZA2M_ANPR/ANPR_RZA2M_GR_MANGO/src/tensorflow_lite/src/tensorflow/lite/kernels/internal\types.h ****     return size_ > kMaxSmallSize ? dims_pointer_ : dims_;
 230:C:/Renesas/e2studio_2021_01_workspace_RZA2M_ANPR/ANPR_RZA2M_GR_MANGO/src/tensorflow_lite/src/tensorflow/lite/kernels/internal\types.h ****   }
 231:C:/Renesas/e2studio_2021_01_workspace_RZA2M_ANPR/ANPR_RZA2M_GR_MANGO/src/tensorflow_lite/src/tensorflow/lite/kernels/internal\types.h ****   inline const int32_t* DimsData() const {
 232:C:/Renesas/e2studio_2021_01_workspace_RZA2M_ANPR/ANPR_RZA2M_GR_MANGO/src/tensorflow_lite/src/tensorflow/lite/kernels/internal\types.h ****     return size_ > kMaxSmallSize ? dims_pointer_ : dims_;
 233:C:/Renesas/e2studio_2021_01_workspace_RZA2M_ANPR/ANPR_RZA2M_GR_MANGO/src/tensorflow_lite/src/tensorflow/lite/kernels/internal\types.h ****   }
 234:C:/Renesas/e2studio_2021_01_workspace_RZA2M_ANPR/ANPR_RZA2M_GR_MANGO/src/tensorflow_lite/src/tensorflow/lite/kernels/internal\types.h ****   // The caller must ensure that the shape is no bigger than 5-D.
 235:C:/Renesas/e2studio_2021_01_workspace_RZA2M_ANPR/ANPR_RZA2M_GR_MANGO/src/tensorflow_lite/src/tensorflow/lite/kernels/internal\types.h ****   inline const int32_t* DimsDataUpTo5D() const { return dims_; }
 236:C:/Renesas/e2studio_2021_01_workspace_RZA2M_ANPR/ANPR_RZA2M_GR_MANGO/src/tensorflow_lite/src/tensorflow/lite/kernels/internal\types.h **** 
 237:C:/Renesas/e2studio_2021_01_workspace_RZA2M_ANPR/ANPR_RZA2M_GR_MANGO/src/tensorflow_lite/src/tensorflow/lite/kernels/internal\types.h ****   inline void Resize(int dimensions_count) {
 238:C:/Renesas/e2studio_2021_01_workspace_RZA2M_ANPR/ANPR_RZA2M_GR_MANGO/src/tensorflow_lite/src/tensorflow/lite/kernels/internal\types.h ****     if (size_ > kMaxSmallSize) {
 239:C:/Renesas/e2studio_2021_01_workspace_RZA2M_ANPR/ANPR_RZA2M_GR_MANGO/src/tensorflow_lite/src/tensorflow/lite/kernels/internal\types.h **** #ifdef TF_LITE_STATIC_MEMORY
 240:C:/Renesas/e2studio_2021_01_workspace_RZA2M_ANPR/ANPR_RZA2M_GR_MANGO/src/tensorflow_lite/src/tensorflow/lite/kernels/internal\types.h ****       TFLITE_CHECK(false && "No shape resizing supported on this platform");
 241:C:/Renesas/e2studio_2021_01_workspace_RZA2M_ANPR/ANPR_RZA2M_GR_MANGO/src/tensorflow_lite/src/tensorflow/lite/kernels/internal\types.h **** #else  // TF_LITE_STATIC_MEMORY
 242:C:/Renesas/e2studio_2021_01_workspace_RZA2M_ANPR/ANPR_RZA2M_GR_MANGO/src/tensorflow_lite/src/tensorflow/lite/kernels/internal\types.h ****       delete[] dims_pointer_;
 243:C:/Renesas/e2studio_2021_01_workspace_RZA2M_ANPR/ANPR_RZA2M_GR_MANGO/src/tensorflow_lite/src/tensorflow/lite/kernels/internal\types.h **** #endif  // TF_LITE_STATIC_MEMORY
 244:C:/Renesas/e2studio_2021_01_workspace_RZA2M_ANPR/ANPR_RZA2M_GR_MANGO/src/tensorflow_lite/src/tensorflow/lite/kernels/internal\types.h ****     }
 245:C:/Renesas/e2studio_2021_01_workspace_RZA2M_ANPR/ANPR_RZA2M_GR_MANGO/src/tensorflow_lite/src/tensorflow/lite/kernels/internal\types.h ****     size_ = dimensions_count;
 246:C:/Renesas/e2studio_2021_01_workspace_RZA2M_ANPR/ANPR_RZA2M_GR_MANGO/src/tensorflow_lite/src/tensorflow/lite/kernels/internal\types.h ****     if (dimensions_count > kMaxSmallSize) {
 247:C:/Renesas/e2studio_2021_01_workspace_RZA2M_ANPR/ANPR_RZA2M_GR_MANGO/src/tensorflow_lite/src/tensorflow/lite/kernels/internal\types.h **** #ifdef TF_LITE_STATIC_MEMORY
 248:C:/Renesas/e2studio_2021_01_workspace_RZA2M_ANPR/ANPR_RZA2M_GR_MANGO/src/tensorflow_lite/src/tensorflow/lite/kernels/internal\types.h ****       TFLITE_CHECK(false && "No shape resizing supported on this platform");
 249:C:/Renesas/e2studio_2021_01_workspace_RZA2M_ANPR/ANPR_RZA2M_GR_MANGO/src/tensorflow_lite/src/tensorflow/lite/kernels/internal\types.h **** #else  // TF_LITE_STATIC_MEMORY
 250:C:/Renesas/e2studio_2021_01_workspace_RZA2M_ANPR/ANPR_RZA2M_GR_MANGO/src/tensorflow_lite/src/tensorflow/lite/kernels/internal\types.h ****       dims_pointer_ = new int32_t[dimensions_count];
 251:C:/Renesas/e2studio_2021_01_workspace_RZA2M_ANPR/ANPR_RZA2M_GR_MANGO/src/tensorflow_lite/src/tensorflow/lite/kernels/internal\types.h **** #endif  // TF_LITE_STATIC_MEMORY
 252:C:/Renesas/e2studio_2021_01_workspace_RZA2M_ANPR/ANPR_RZA2M_GR_MANGO/src/tensorflow_lite/src/tensorflow/lite/kernels/internal\types.h ****     }
 253:C:/Renesas/e2studio_2021_01_workspace_RZA2M_ANPR/ANPR_RZA2M_GR_MANGO/src/tensorflow_lite/src/tensorflow/lite/kernels/internal\types.h ****   }
 254:C:/Renesas/e2studio_2021_01_workspace_RZA2M_ANPR/ANPR_RZA2M_GR_MANGO/src/tensorflow_lite/src/tensorflow/lite/kernels/internal\types.h **** 
 255:C:/Renesas/e2studio_2021_01_workspace_RZA2M_ANPR/ANPR_RZA2M_GR_MANGO/src/tensorflow_lite/src/tensorflow/lite/kernels/internal\types.h ****   inline void ReplaceWith(int dimensions_count, const int32_t* dims_data) {
 256:C:/Renesas/e2studio_2021_01_workspace_RZA2M_ANPR/ANPR_RZA2M_GR_MANGO/src/tensorflow_lite/src/tensorflow/lite/kernels/internal\types.h ****     Resize(dimensions_count);
 257:C:/Renesas/e2studio_2021_01_workspace_RZA2M_ANPR/ANPR_RZA2M_GR_MANGO/src/tensorflow_lite/src/tensorflow/lite/kernels/internal\types.h ****     int32_t* dst_dims = DimsData();
 258:C:/Renesas/e2studio_2021_01_workspace_RZA2M_ANPR/ANPR_RZA2M_GR_MANGO/src/tensorflow_lite/src/tensorflow/lite/kernels/internal\types.h ****     std::memcpy(dst_dims, dims_data, dimensions_count * sizeof(int32_t));
 259:C:/Renesas/e2studio_2021_01_workspace_RZA2M_ANPR/ANPR_RZA2M_GR_MANGO/src/tensorflow_lite/src/tensorflow/lite/kernels/internal\types.h ****   }
 260:C:/Renesas/e2studio_2021_01_workspace_RZA2M_ANPR/ANPR_RZA2M_GR_MANGO/src/tensorflow_lite/src/tensorflow/lite/kernels/internal\types.h **** 
 261:C:/Renesas/e2studio_2021_01_workspace_RZA2M_ANPR/ANPR_RZA2M_GR_MANGO/src/tensorflow_lite/src/tensorflow/lite/kernels/internal\types.h ****   template <typename T>
 262:C:/Renesas/e2studio_2021_01_workspace_RZA2M_ANPR/ANPR_RZA2M_GR_MANGO/src/tensorflow_lite/src/tensorflow/lite/kernels/internal\types.h ****   inline void BuildFrom(const T& src_iterable) {
 263:C:/Renesas/e2studio_2021_01_workspace_RZA2M_ANPR/ANPR_RZA2M_GR_MANGO/src/tensorflow_lite/src/tensorflow/lite/kernels/internal\types.h ****     const int dimensions_count =
 264:C:/Renesas/e2studio_2021_01_workspace_RZA2M_ANPR/ANPR_RZA2M_GR_MANGO/src/tensorflow_lite/src/tensorflow/lite/kernels/internal\types.h ****         std::distance(src_iterable.begin(), src_iterable.end());
 265:C:/Renesas/e2studio_2021_01_workspace_RZA2M_ANPR/ANPR_RZA2M_GR_MANGO/src/tensorflow_lite/src/tensorflow/lite/kernels/internal\types.h ****     Resize(dimensions_count);
 266:C:/Renesas/e2studio_2021_01_workspace_RZA2M_ANPR/ANPR_RZA2M_GR_MANGO/src/tensorflow_lite/src/tensorflow/lite/kernels/internal\types.h ****     int32_t* data = DimsData();
 267:C:/Renesas/e2studio_2021_01_workspace_RZA2M_ANPR/ANPR_RZA2M_GR_MANGO/src/tensorflow_lite/src/tensorflow/lite/kernels/internal\types.h ****     for (auto it : src_iterable) {
 268:C:/Renesas/e2studio_2021_01_workspace_RZA2M_ANPR/ANPR_RZA2M_GR_MANGO/src/tensorflow_lite/src/tensorflow/lite/kernels/internal\types.h ****       *data = it;
 269:C:/Renesas/e2studio_2021_01_workspace_RZA2M_ANPR/ANPR_RZA2M_GR_MANGO/src/tensorflow_lite/src/tensorflow/lite/kernels/internal\types.h ****       ++data;
 270:C:/Renesas/e2studio_2021_01_workspace_RZA2M_ANPR/ANPR_RZA2M_GR_MANGO/src/tensorflow_lite/src/tensorflow/lite/kernels/internal\types.h ****     }
 271:C:/Renesas/e2studio_2021_01_workspace_RZA2M_ANPR/ANPR_RZA2M_GR_MANGO/src/tensorflow_lite/src/tensorflow/lite/kernels/internal\types.h ****   }
 272:C:/Renesas/e2studio_2021_01_workspace_RZA2M_ANPR/ANPR_RZA2M_GR_MANGO/src/tensorflow_lite/src/tensorflow/lite/kernels/internal\types.h **** 
 273:C:/Renesas/e2studio_2021_01_workspace_RZA2M_ANPR/ANPR_RZA2M_GR_MANGO/src/tensorflow_lite/src/tensorflow/lite/kernels/internal\types.h ****   // This will probably be factored out. Old code made substantial use of 4-D
 274:C:/Renesas/e2studio_2021_01_workspace_RZA2M_ANPR/ANPR_RZA2M_GR_MANGO/src/tensorflow_lite/src/tensorflow/lite/kernels/internal\types.h ****   // shapes, and so this function is used to extend smaller shapes. Note that
 275:C:/Renesas/e2studio_2021_01_workspace_RZA2M_ANPR/ANPR_RZA2M_GR_MANGO/src/tensorflow_lite/src/tensorflow/lite/kernels/internal\types.h ****   // (a) as Dims<4>-dependent code is eliminated, the reliance on this should be
 276:C:/Renesas/e2studio_2021_01_workspace_RZA2M_ANPR/ANPR_RZA2M_GR_MANGO/src/tensorflow_lite/src/tensorflow/lite/kernels/internal\types.h ****   // reduced, and (b) some kernels are stricly 4-D, but then the shapes of their
 277:C:/Renesas/e2studio_2021_01_workspace_RZA2M_ANPR/ANPR_RZA2M_GR_MANGO/src/tensorflow_lite/src/tensorflow/lite/kernels/internal\types.h ****   // inputs should already be 4-D, so this function should not be needed.
 278:C:/Renesas/e2studio_2021_01_workspace_RZA2M_ANPR/ANPR_RZA2M_GR_MANGO/src/tensorflow_lite/src/tensorflow/lite/kernels/internal\types.h ****   inline static RuntimeShape ExtendedShape(int new_shape_size,
 279:C:/Renesas/e2studio_2021_01_workspace_RZA2M_ANPR/ANPR_RZA2M_GR_MANGO/src/tensorflow_lite/src/tensorflow/lite/kernels/internal\types.h ****                                            const RuntimeShape& shape) {
 280:C:/Renesas/e2studio_2021_01_workspace_RZA2M_ANPR/ANPR_RZA2M_GR_MANGO/src/tensorflow_lite/src/tensorflow/lite/kernels/internal\types.h ****     return RuntimeShape(new_shape_size, shape, 1);
 281:C:/Renesas/e2studio_2021_01_workspace_RZA2M_ANPR/ANPR_RZA2M_GR_MANGO/src/tensorflow_lite/src/tensorflow/lite/kernels/internal\types.h ****   }
 282:C:/Renesas/e2studio_2021_01_workspace_RZA2M_ANPR/ANPR_RZA2M_GR_MANGO/src/tensorflow_lite/src/tensorflow/lite/kernels/internal\types.h **** 
 283:C:/Renesas/e2studio_2021_01_workspace_RZA2M_ANPR/ANPR_RZA2M_GR_MANGO/src/tensorflow_lite/src/tensorflow/lite/kernels/internal\types.h ****   inline void BuildFrom(const std::initializer_list<int> init_list) {
 284:C:/Renesas/e2studio_2021_01_workspace_RZA2M_ANPR/ANPR_RZA2M_GR_MANGO/src/tensorflow_lite/src/tensorflow/lite/kernels/internal\types.h ****     BuildFrom<const std::initializer_list<int>>(init_list);
 285:C:/Renesas/e2studio_2021_01_workspace_RZA2M_ANPR/ANPR_RZA2M_GR_MANGO/src/tensorflow_lite/src/tensorflow/lite/kernels/internal\types.h ****   }
 286:C:/Renesas/e2studio_2021_01_workspace_RZA2M_ANPR/ANPR_RZA2M_GR_MANGO/src/tensorflow_lite/src/tensorflow/lite/kernels/internal\types.h **** 
 287:C:/Renesas/e2studio_2021_01_workspace_RZA2M_ANPR/ANPR_RZA2M_GR_MANGO/src/tensorflow_lite/src/tensorflow/lite/kernels/internal\types.h ****   // Returns the total count of elements, that is the size when flattened into a
 288:C:/Renesas/e2studio_2021_01_workspace_RZA2M_ANPR/ANPR_RZA2M_GR_MANGO/src/tensorflow_lite/src/tensorflow/lite/kernels/internal\types.h ****   // vector.
 289:C:/Renesas/e2studio_2021_01_workspace_RZA2M_ANPR/ANPR_RZA2M_GR_MANGO/src/tensorflow_lite/src/tensorflow/lite/kernels/internal\types.h ****   inline int FlatSize() const {
 290:C:/Renesas/e2studio_2021_01_workspace_RZA2M_ANPR/ANPR_RZA2M_GR_MANGO/src/tensorflow_lite/src/tensorflow/lite/kernels/internal\types.h ****     int buffer_size = 1;
 291:C:/Renesas/e2studio_2021_01_workspace_RZA2M_ANPR/ANPR_RZA2M_GR_MANGO/src/tensorflow_lite/src/tensorflow/lite/kernels/internal\types.h ****     const int* dims_data = reinterpret_cast<const int*>(DimsData());
 292:C:/Renesas/e2studio_2021_01_workspace_RZA2M_ANPR/ANPR_RZA2M_GR_MANGO/src/tensorflow_lite/src/tensorflow/lite/kernels/internal\types.h ****     for (int i = 0; i < size_; i++) {
 293:C:/Renesas/e2studio_2021_01_workspace_RZA2M_ANPR/ANPR_RZA2M_GR_MANGO/src/tensorflow_lite/src/tensorflow/lite/kernels/internal\types.h ****       buffer_size *= dims_data[i];
 294:C:/Renesas/e2studio_2021_01_workspace_RZA2M_ANPR/ANPR_RZA2M_GR_MANGO/src/tensorflow_lite/src/tensorflow/lite/kernels/internal\types.h ****     }
 295:C:/Renesas/e2studio_2021_01_workspace_RZA2M_ANPR/ANPR_RZA2M_GR_MANGO/src/tensorflow_lite/src/tensorflow/lite/kernels/internal\types.h ****     return buffer_size;
 296:C:/Renesas/e2studio_2021_01_workspace_RZA2M_ANPR/ANPR_RZA2M_GR_MANGO/src/tensorflow_lite/src/tensorflow/lite/kernels/internal\types.h ****   }
 297:C:/Renesas/e2studio_2021_01_workspace_RZA2M_ANPR/ANPR_RZA2M_GR_MANGO/src/tensorflow_lite/src/tensorflow/lite/kernels/internal\types.h **** 
 298:C:/Renesas/e2studio_2021_01_workspace_RZA2M_ANPR/ANPR_RZA2M_GR_MANGO/src/tensorflow_lite/src/tensorflow/lite/kernels/internal\types.h ****   bool operator!=(const RuntimeShape& comp) const { return !((*this) == comp); }
 299:C:/Renesas/e2studio_2021_01_workspace_RZA2M_ANPR/ANPR_RZA2M_GR_MANGO/src/tensorflow_lite/src/tensorflow/lite/kernels/internal\types.h **** 
 300:C:/Renesas/e2studio_2021_01_workspace_RZA2M_ANPR/ANPR_RZA2M_GR_MANGO/src/tensorflow_lite/src/tensorflow/lite/kernels/internal\types.h ****  private:
 301:C:/Renesas/e2studio_2021_01_workspace_RZA2M_ANPR/ANPR_RZA2M_GR_MANGO/src/tensorflow_lite/src/tensorflow/lite/kernels/internal\types.h ****   // For use only by ExtendedShape(), written to guarantee (return-value) copy
 302:C:/Renesas/e2studio_2021_01_workspace_RZA2M_ANPR/ANPR_RZA2M_GR_MANGO/src/tensorflow_lite/src/tensorflow/lite/kernels/internal\types.h ****   // elision in C++17.
 303:C:/Renesas/e2studio_2021_01_workspace_RZA2M_ANPR/ANPR_RZA2M_GR_MANGO/src/tensorflow_lite/src/tensorflow/lite/kernels/internal\types.h ****   // This creates a shape padded to the desired size with the specified value.
 304:C:/Renesas/e2studio_2021_01_workspace_RZA2M_ANPR/ANPR_RZA2M_GR_MANGO/src/tensorflow_lite/src/tensorflow/lite/kernels/internal\types.h ****   RuntimeShape(int new_shape_size, const RuntimeShape& shape, int pad_value)
 305:C:/Renesas/e2studio_2021_01_workspace_RZA2M_ANPR/ANPR_RZA2M_GR_MANGO/src/tensorflow_lite/src/tensorflow/lite/kernels/internal\types.h ****       : size_(0) {
 306:C:/Renesas/e2studio_2021_01_workspace_RZA2M_ANPR/ANPR_RZA2M_GR_MANGO/src/tensorflow_lite/src/tensorflow/lite/kernels/internal\types.h ****     // If the following check fails, it is likely because a 4D-only kernel is
 307:C:/Renesas/e2studio_2021_01_workspace_RZA2M_ANPR/ANPR_RZA2M_GR_MANGO/src/tensorflow_lite/src/tensorflow/lite/kernels/internal\types.h ****     // being used with an array of larger dimension count.
 308:C:/Renesas/e2studio_2021_01_workspace_RZA2M_ANPR/ANPR_RZA2M_GR_MANGO/src/tensorflow_lite/src/tensorflow/lite/kernels/internal\types.h ****     TFLITE_CHECK_GE(new_shape_size, shape.DimensionsCount());
 309:C:/Renesas/e2studio_2021_01_workspace_RZA2M_ANPR/ANPR_RZA2M_GR_MANGO/src/tensorflow_lite/src/tensorflow/lite/kernels/internal\types.h ****     Resize(new_shape_size);
 310:C:/Renesas/e2studio_2021_01_workspace_RZA2M_ANPR/ANPR_RZA2M_GR_MANGO/src/tensorflow_lite/src/tensorflow/lite/kernels/internal\types.h ****     const int size_increase = new_shape_size - shape.DimensionsCount();
 311:C:/Renesas/e2studio_2021_01_workspace_RZA2M_ANPR/ANPR_RZA2M_GR_MANGO/src/tensorflow_lite/src/tensorflow/lite/kernels/internal\types.h ****     for (int i = 0; i < size_increase; ++i) {
 312:C:/Renesas/e2studio_2021_01_workspace_RZA2M_ANPR/ANPR_RZA2M_GR_MANGO/src/tensorflow_lite/src/tensorflow/lite/kernels/internal\types.h ****       SetDim(i, pad_value);
 313:C:/Renesas/e2studio_2021_01_workspace_RZA2M_ANPR/ANPR_RZA2M_GR_MANGO/src/tensorflow_lite/src/tensorflow/lite/kernels/internal\types.h ****     }
 314:C:/Renesas/e2studio_2021_01_workspace_RZA2M_ANPR/ANPR_RZA2M_GR_MANGO/src/tensorflow_lite/src/tensorflow/lite/kernels/internal\types.h ****     std::memcpy(DimsData() + size_increase, shape.DimsData(),
 315:C:/Renesas/e2studio_2021_01_workspace_RZA2M_ANPR/ANPR_RZA2M_GR_MANGO/src/tensorflow_lite/src/tensorflow/lite/kernels/internal\types.h ****                 sizeof(int32_t) * shape.DimensionsCount());
 316:C:/Renesas/e2studio_2021_01_workspace_RZA2M_ANPR/ANPR_RZA2M_GR_MANGO/src/tensorflow_lite/src/tensorflow/lite/kernels/internal\types.h ****   }
 317:C:/Renesas/e2studio_2021_01_workspace_RZA2M_ANPR/ANPR_RZA2M_GR_MANGO/src/tensorflow_lite/src/tensorflow/lite/kernels/internal\types.h **** 
 318:C:/Renesas/e2studio_2021_01_workspace_RZA2M_ANPR/ANPR_RZA2M_GR_MANGO/src/tensorflow_lite/src/tensorflow/lite/kernels/internal\types.h ****   int32_t size_;
 319:C:/Renesas/e2studio_2021_01_workspace_RZA2M_ANPR/ANPR_RZA2M_GR_MANGO/src/tensorflow_lite/src/tensorflow/lite/kernels/internal\types.h ****   union {
 320:C:/Renesas/e2studio_2021_01_workspace_RZA2M_ANPR/ANPR_RZA2M_GR_MANGO/src/tensorflow_lite/src/tensorflow/lite/kernels/internal\types.h ****     int32_t dims_[kMaxSmallSize];
 321:C:/Renesas/e2studio_2021_01_workspace_RZA2M_ANPR/ANPR_RZA2M_GR_MANGO/src/tensorflow_lite/src/tensorflow/lite/kernels/internal\types.h ****     int32_t* dims_pointer_;
 322:C:/Renesas/e2studio_2021_01_workspace_RZA2M_ANPR/ANPR_RZA2M_GR_MANGO/src/tensorflow_lite/src/tensorflow/lite/kernels/internal\types.h ****   };
 323:C:/Renesas/e2studio_2021_01_workspace_RZA2M_ANPR/ANPR_RZA2M_GR_MANGO/src/tensorflow_lite/src/tensorflow/lite/kernels/internal\types.h **** };
 324:C:/Renesas/e2studio_2021_01_workspace_RZA2M_ANPR/ANPR_RZA2M_GR_MANGO/src/tensorflow_lite/src/tensorflow/lite/kernels/internal\types.h **** 
 325:C:/Renesas/e2studio_2021_01_workspace_RZA2M_ANPR/ANPR_RZA2M_GR_MANGO/src/tensorflow_lite/src/tensorflow/lite/kernels/internal\types.h **** // Converts inference-style shape to legacy tflite::Dims<4>.
 326:C:/Renesas/e2studio_2021_01_workspace_RZA2M_ANPR/ANPR_RZA2M_GR_MANGO/src/tensorflow_lite/src/tensorflow/lite/kernels/internal\types.h **** inline tflite::Dims<4> ToRuntimeDims(const tflite::RuntimeShape& array_shape) {
 327:C:/Renesas/e2studio_2021_01_workspace_RZA2M_ANPR/ANPR_RZA2M_GR_MANGO/src/tensorflow_lite/src/tensorflow/lite/kernels/internal\types.h ****   tflite::Dims<4> result;
 328:C:/Renesas/e2studio_2021_01_workspace_RZA2M_ANPR/ANPR_RZA2M_GR_MANGO/src/tensorflow_lite/src/tensorflow/lite/kernels/internal\types.h ****   const int dimensions_count = array_shape.DimensionsCount();
 329:C:/Renesas/e2studio_2021_01_workspace_RZA2M_ANPR/ANPR_RZA2M_GR_MANGO/src/tensorflow_lite/src/tensorflow/lite/kernels/internal\types.h ****   TFLITE_CHECK_LE(dimensions_count, 4);
 330:C:/Renesas/e2studio_2021_01_workspace_RZA2M_ANPR/ANPR_RZA2M_GR_MANGO/src/tensorflow_lite/src/tensorflow/lite/kernels/internal\types.h ****   int cum_prod = 1;
 331:C:/Renesas/e2studio_2021_01_workspace_RZA2M_ANPR/ANPR_RZA2M_GR_MANGO/src/tensorflow_lite/src/tensorflow/lite/kernels/internal\types.h ****   for (int i = 0; i < 4; i++) {
 332:C:/Renesas/e2studio_2021_01_workspace_RZA2M_ANPR/ANPR_RZA2M_GR_MANGO/src/tensorflow_lite/src/tensorflow/lite/kernels/internal\types.h ****     const int new_dim =
 333:C:/Renesas/e2studio_2021_01_workspace_RZA2M_ANPR/ANPR_RZA2M_GR_MANGO/src/tensorflow_lite/src/tensorflow/lite/kernels/internal\types.h ****         (i < dimensions_count) ? array_shape.Dims(dimensions_count - 1 - i) : 1;
 334:C:/Renesas/e2studio_2021_01_workspace_RZA2M_ANPR/ANPR_RZA2M_GR_MANGO/src/tensorflow_lite/src/tensorflow/lite/kernels/internal\types.h ****     result.sizes[i] = new_dim;
 335:C:/Renesas/e2studio_2021_01_workspace_RZA2M_ANPR/ANPR_RZA2M_GR_MANGO/src/tensorflow_lite/src/tensorflow/lite/kernels/internal\types.h ****     result.strides[i] = cum_prod;
 336:C:/Renesas/e2studio_2021_01_workspace_RZA2M_ANPR/ANPR_RZA2M_GR_MANGO/src/tensorflow_lite/src/tensorflow/lite/kernels/internal\types.h ****     cum_prod *= new_dim;
 337:C:/Renesas/e2studio_2021_01_workspace_RZA2M_ANPR/ANPR_RZA2M_GR_MANGO/src/tensorflow_lite/src/tensorflow/lite/kernels/internal\types.h ****   }
 338:C:/Renesas/e2studio_2021_01_workspace_RZA2M_ANPR/ANPR_RZA2M_GR_MANGO/src/tensorflow_lite/src/tensorflow/lite/kernels/internal\types.h ****   return result;
 339:C:/Renesas/e2studio_2021_01_workspace_RZA2M_ANPR/ANPR_RZA2M_GR_MANGO/src/tensorflow_lite/src/tensorflow/lite/kernels/internal\types.h **** }
 340:C:/Renesas/e2studio_2021_01_workspace_RZA2M_ANPR/ANPR_RZA2M_GR_MANGO/src/tensorflow_lite/src/tensorflow/lite/kernels/internal\types.h **** 
 341:C:/Renesas/e2studio_2021_01_workspace_RZA2M_ANPR/ANPR_RZA2M_GR_MANGO/src/tensorflow_lite/src/tensorflow/lite/kernels/internal\types.h **** // TODO(b/80418076): Move to legacy ops file, update invocations.
 342:C:/Renesas/e2studio_2021_01_workspace_RZA2M_ANPR/ANPR_RZA2M_GR_MANGO/src/tensorflow_lite/src/tensorflow/lite/kernels/internal\types.h **** inline RuntimeShape DimsToShape(const tflite::Dims<4>& dims) {
 343:C:/Renesas/e2studio_2021_01_workspace_RZA2M_ANPR/ANPR_RZA2M_GR_MANGO/src/tensorflow_lite/src/tensorflow/lite/kernels/internal\types.h ****   return RuntimeShape(
 344:C:/Renesas/e2studio_2021_01_workspace_RZA2M_ANPR/ANPR_RZA2M_GR_MANGO/src/tensorflow_lite/src/tensorflow/lite/kernels/internal\types.h ****       {dims.sizes[3], dims.sizes[2], dims.sizes[1], dims.sizes[0]});
 345:C:/Renesas/e2studio_2021_01_workspace_RZA2M_ANPR/ANPR_RZA2M_GR_MANGO/src/tensorflow_lite/src/tensorflow/lite/kernels/internal\types.h **** }
 346:C:/Renesas/e2studio_2021_01_workspace_RZA2M_ANPR/ANPR_RZA2M_GR_MANGO/src/tensorflow_lite/src/tensorflow/lite/kernels/internal\types.h **** 
 347:C:/Renesas/e2studio_2021_01_workspace_RZA2M_ANPR/ANPR_RZA2M_GR_MANGO/src/tensorflow_lite/src/tensorflow/lite/kernels/internal\types.h **** // Gets next index to iterate through a multidimensional array.
 348:C:/Renesas/e2studio_2021_01_workspace_RZA2M_ANPR/ANPR_RZA2M_GR_MANGO/src/tensorflow_lite/src/tensorflow/lite/kernels/internal\types.h **** inline bool NextIndex(const int num_dims, const int* dims, int* current) {
 349:C:/Renesas/e2studio_2021_01_workspace_RZA2M_ANPR/ANPR_RZA2M_GR_MANGO/src/tensorflow_lite/src/tensorflow/lite/kernels/internal\types.h ****   if (num_dims == 0) {
 350:C:/Renesas/e2studio_2021_01_workspace_RZA2M_ANPR/ANPR_RZA2M_GR_MANGO/src/tensorflow_lite/src/tensorflow/lite/kernels/internal\types.h ****     return false;
 351:C:/Renesas/e2studio_2021_01_workspace_RZA2M_ANPR/ANPR_RZA2M_GR_MANGO/src/tensorflow_lite/src/tensorflow/lite/kernels/internal\types.h ****   }
 352:C:/Renesas/e2studio_2021_01_workspace_RZA2M_ANPR/ANPR_RZA2M_GR_MANGO/src/tensorflow_lite/src/tensorflow/lite/kernels/internal\types.h ****   TFLITE_DCHECK(dims != nullptr);
 353:C:/Renesas/e2studio_2021_01_workspace_RZA2M_ANPR/ANPR_RZA2M_GR_MANGO/src/tensorflow_lite/src/tensorflow/lite/kernels/internal\types.h ****   TFLITE_DCHECK(current != nullptr);
 354:C:/Renesas/e2studio_2021_01_workspace_RZA2M_ANPR/ANPR_RZA2M_GR_MANGO/src/tensorflow_lite/src/tensorflow/lite/kernels/internal\types.h ****   int carry = 1;
 355:C:/Renesas/e2studio_2021_01_workspace_RZA2M_ANPR/ANPR_RZA2M_GR_MANGO/src/tensorflow_lite/src/tensorflow/lite/kernels/internal\types.h ****   for (int idx = num_dims - 1; idx >= 0; --idx) {
 356:C:/Renesas/e2studio_2021_01_workspace_RZA2M_ANPR/ANPR_RZA2M_GR_MANGO/src/tensorflow_lite/src/tensorflow/lite/kernels/internal\types.h ****     int current_val = current[idx] + carry;
 357:C:/Renesas/e2studio_2021_01_workspace_RZA2M_ANPR/ANPR_RZA2M_GR_MANGO/src/tensorflow_lite/src/tensorflow/lite/kernels/internal\types.h ****     TFLITE_DCHECK_GE(dims[idx], current_val);
 358:C:/Renesas/e2studio_2021_01_workspace_RZA2M_ANPR/ANPR_RZA2M_GR_MANGO/src/tensorflow_lite/src/tensorflow/lite/kernels/internal\types.h ****     if (dims[idx] == current_val) {
 359:C:/Renesas/e2studio_2021_01_workspace_RZA2M_ANPR/ANPR_RZA2M_GR_MANGO/src/tensorflow_lite/src/tensorflow/lite/kernels/internal\types.h ****       current[idx] = 0;
 360:C:/Renesas/e2studio_2021_01_workspace_RZA2M_ANPR/ANPR_RZA2M_GR_MANGO/src/tensorflow_lite/src/tensorflow/lite/kernels/internal\types.h ****     } else {
 361:C:/Renesas/e2studio_2021_01_workspace_RZA2M_ANPR/ANPR_RZA2M_GR_MANGO/src/tensorflow_lite/src/tensorflow/lite/kernels/internal\types.h ****       current[idx] = current_val;
 362:C:/Renesas/e2studio_2021_01_workspace_RZA2M_ANPR/ANPR_RZA2M_GR_MANGO/src/tensorflow_lite/src/tensorflow/lite/kernels/internal\types.h ****       carry = 0;
 363:C:/Renesas/e2studio_2021_01_workspace_RZA2M_ANPR/ANPR_RZA2M_GR_MANGO/src/tensorflow_lite/src/tensorflow/lite/kernels/internal\types.h ****       break;
 364:C:/Renesas/e2studio_2021_01_workspace_RZA2M_ANPR/ANPR_RZA2M_GR_MANGO/src/tensorflow_lite/src/tensorflow/lite/kernels/internal\types.h ****     }
 365:C:/Renesas/e2studio_2021_01_workspace_RZA2M_ANPR/ANPR_RZA2M_GR_MANGO/src/tensorflow_lite/src/tensorflow/lite/kernels/internal\types.h ****   }
 366:C:/Renesas/e2studio_2021_01_workspace_RZA2M_ANPR/ANPR_RZA2M_GR_MANGO/src/tensorflow_lite/src/tensorflow/lite/kernels/internal\types.h ****   return (carry == 0);
 367:C:/Renesas/e2studio_2021_01_workspace_RZA2M_ANPR/ANPR_RZA2M_GR_MANGO/src/tensorflow_lite/src/tensorflow/lite/kernels/internal\types.h **** }
 368:C:/Renesas/e2studio_2021_01_workspace_RZA2M_ANPR/ANPR_RZA2M_GR_MANGO/src/tensorflow_lite/src/tensorflow/lite/kernels/internal\types.h **** 
 369:C:/Renesas/e2studio_2021_01_workspace_RZA2M_ANPR/ANPR_RZA2M_GR_MANGO/src/tensorflow_lite/src/tensorflow/lite/kernels/internal\types.h **** // Gets offset of index if reducing on axis. When reducing, the flattened offset
 370:C:/Renesas/e2studio_2021_01_workspace_RZA2M_ANPR/ANPR_RZA2M_GR_MANGO/src/tensorflow_lite/src/tensorflow/lite/kernels/internal\types.h **** // will not change, if the input index changes on the given axis. For example,
 371:C:/Renesas/e2studio_2021_01_workspace_RZA2M_ANPR/ANPR_RZA2M_GR_MANGO/src/tensorflow_lite/src/tensorflow/lite/kernels/internal\types.h **** // if you have a 3D tensor and you are reducing to 2D by eliminating axis 0,
 372:C:/Renesas/e2studio_2021_01_workspace_RZA2M_ANPR/ANPR_RZA2M_GR_MANGO/src/tensorflow_lite/src/tensorflow/lite/kernels/internal\types.h **** // then index (0, 1, 2) and index (1, 1, 2) will map to the same flattened
 373:C:/Renesas/e2studio_2021_01_workspace_RZA2M_ANPR/ANPR_RZA2M_GR_MANGO/src/tensorflow_lite/src/tensorflow/lite/kernels/internal\types.h **** // offset.
 374:C:/Renesas/e2studio_2021_01_workspace_RZA2M_ANPR/ANPR_RZA2M_GR_MANGO/src/tensorflow_lite/src/tensorflow/lite/kernels/internal\types.h **** // TODO(kanlig): uses Dims to represent dimensions.
 375:C:/Renesas/e2studio_2021_01_workspace_RZA2M_ANPR/ANPR_RZA2M_GR_MANGO/src/tensorflow_lite/src/tensorflow/lite/kernels/internal\types.h **** inline size_t ReducedOutputOffset(const int num_dims, const int* dims,
 376:C:/Renesas/e2studio_2021_01_workspace_RZA2M_ANPR/ANPR_RZA2M_GR_MANGO/src/tensorflow_lite/src/tensorflow/lite/kernels/internal\types.h ****                                   const int* index, const int num_axis,
 377:C:/Renesas/e2studio_2021_01_workspace_RZA2M_ANPR/ANPR_RZA2M_GR_MANGO/src/tensorflow_lite/src/tensorflow/lite/kernels/internal\types.h ****                                   const int* axis) {
 378:C:/Renesas/e2studio_2021_01_workspace_RZA2M_ANPR/ANPR_RZA2M_GR_MANGO/src/tensorflow_lite/src/tensorflow/lite/kernels/internal\types.h ****   if (num_dims == 0) {
 379:C:/Renesas/e2studio_2021_01_workspace_RZA2M_ANPR/ANPR_RZA2M_GR_MANGO/src/tensorflow_lite/src/tensorflow/lite/kernels/internal\types.h ****     return 0;
 380:C:/Renesas/e2studio_2021_01_workspace_RZA2M_ANPR/ANPR_RZA2M_GR_MANGO/src/tensorflow_lite/src/tensorflow/lite/kernels/internal\types.h ****   }
 381:C:/Renesas/e2studio_2021_01_workspace_RZA2M_ANPR/ANPR_RZA2M_GR_MANGO/src/tensorflow_lite/src/tensorflow/lite/kernels/internal\types.h ****   TFLITE_DCHECK(dims != nullptr);
 382:C:/Renesas/e2studio_2021_01_workspace_RZA2M_ANPR/ANPR_RZA2M_GR_MANGO/src/tensorflow_lite/src/tensorflow/lite/kernels/internal\types.h ****   TFLITE_DCHECK(index != nullptr);
 383:C:/Renesas/e2studio_2021_01_workspace_RZA2M_ANPR/ANPR_RZA2M_GR_MANGO/src/tensorflow_lite/src/tensorflow/lite/kernels/internal\types.h ****   size_t offset = 0;
 384:C:/Renesas/e2studio_2021_01_workspace_RZA2M_ANPR/ANPR_RZA2M_GR_MANGO/src/tensorflow_lite/src/tensorflow/lite/kernels/internal\types.h ****   for (int idx = 0; idx < num_dims; ++idx) {
 385:C:/Renesas/e2studio_2021_01_workspace_RZA2M_ANPR/ANPR_RZA2M_GR_MANGO/src/tensorflow_lite/src/tensorflow/lite/kernels/internal\types.h ****     // if we need to skip this axis
 386:C:/Renesas/e2studio_2021_01_workspace_RZA2M_ANPR/ANPR_RZA2M_GR_MANGO/src/tensorflow_lite/src/tensorflow/lite/kernels/internal\types.h ****     bool is_axis = false;
 387:C:/Renesas/e2studio_2021_01_workspace_RZA2M_ANPR/ANPR_RZA2M_GR_MANGO/src/tensorflow_lite/src/tensorflow/lite/kernels/internal\types.h ****     if (axis != nullptr) {
 388:C:/Renesas/e2studio_2021_01_workspace_RZA2M_ANPR/ANPR_RZA2M_GR_MANGO/src/tensorflow_lite/src/tensorflow/lite/kernels/internal\types.h ****       for (int axis_idx = 0; axis_idx < num_axis; ++axis_idx) {
 389:C:/Renesas/e2studio_2021_01_workspace_RZA2M_ANPR/ANPR_RZA2M_GR_MANGO/src/tensorflow_lite/src/tensorflow/lite/kernels/internal\types.h ****         if (idx == axis[axis_idx]) {
 390:C:/Renesas/e2studio_2021_01_workspace_RZA2M_ANPR/ANPR_RZA2M_GR_MANGO/src/tensorflow_lite/src/tensorflow/lite/kernels/internal\types.h ****           is_axis = true;
 391:C:/Renesas/e2studio_2021_01_workspace_RZA2M_ANPR/ANPR_RZA2M_GR_MANGO/src/tensorflow_lite/src/tensorflow/lite/kernels/internal\types.h ****           break;
 392:C:/Renesas/e2studio_2021_01_workspace_RZA2M_ANPR/ANPR_RZA2M_GR_MANGO/src/tensorflow_lite/src/tensorflow/lite/kernels/internal\types.h ****         }
 393:C:/Renesas/e2studio_2021_01_workspace_RZA2M_ANPR/ANPR_RZA2M_GR_MANGO/src/tensorflow_lite/src/tensorflow/lite/kernels/internal\types.h ****       }
 394:C:/Renesas/e2studio_2021_01_workspace_RZA2M_ANPR/ANPR_RZA2M_GR_MANGO/src/tensorflow_lite/src/tensorflow/lite/kernels/internal\types.h ****     }
 395:C:/Renesas/e2studio_2021_01_workspace_RZA2M_ANPR/ANPR_RZA2M_GR_MANGO/src/tensorflow_lite/src/tensorflow/lite/kernels/internal\types.h ****     if (!is_axis) {
 396:C:/Renesas/e2studio_2021_01_workspace_RZA2M_ANPR/ANPR_RZA2M_GR_MANGO/src/tensorflow_lite/src/tensorflow/lite/kernels/internal\types.h ****       offset = offset * static_cast<size_t>(dims[idx]) +
 397:C:/Renesas/e2studio_2021_01_workspace_RZA2M_ANPR/ANPR_RZA2M_GR_MANGO/src/tensorflow_lite/src/tensorflow/lite/kernels/internal\types.h ****                static_cast<size_t>(index[idx]);
 398:C:/Renesas/e2studio_2021_01_workspace_RZA2M_ANPR/ANPR_RZA2M_GR_MANGO/src/tensorflow_lite/src/tensorflow/lite/kernels/internal\types.h ****     }
 399:C:/Renesas/e2studio_2021_01_workspace_RZA2M_ANPR/ANPR_RZA2M_GR_MANGO/src/tensorflow_lite/src/tensorflow/lite/kernels/internal\types.h ****   }
 400:C:/Renesas/e2studio_2021_01_workspace_RZA2M_ANPR/ANPR_RZA2M_GR_MANGO/src/tensorflow_lite/src/tensorflow/lite/kernels/internal\types.h ****   return offset;
 401:C:/Renesas/e2studio_2021_01_workspace_RZA2M_ANPR/ANPR_RZA2M_GR_MANGO/src/tensorflow_lite/src/tensorflow/lite/kernels/internal\types.h **** }
 402:C:/Renesas/e2studio_2021_01_workspace_RZA2M_ANPR/ANPR_RZA2M_GR_MANGO/src/tensorflow_lite/src/tensorflow/lite/kernels/internal\types.h **** 
 403:C:/Renesas/e2studio_2021_01_workspace_RZA2M_ANPR/ANPR_RZA2M_GR_MANGO/src/tensorflow_lite/src/tensorflow/lite/kernels/internal\types.h **** inline int Offset(const RuntimeShape& shape, int i0, int i1, int i2, int i3) {
 404:C:/Renesas/e2studio_2021_01_workspace_RZA2M_ANPR/ANPR_RZA2M_GR_MANGO/src/tensorflow_lite/src/tensorflow/lite/kernels/internal\types.h ****   TFLITE_DCHECK_EQ(shape.DimensionsCount(), 4);
 405:C:/Renesas/e2studio_2021_01_workspace_RZA2M_ANPR/ANPR_RZA2M_GR_MANGO/src/tensorflow_lite/src/tensorflow/lite/kernels/internal\types.h ****   const int* dims_data = reinterpret_cast<const int*>(shape.DimsDataUpTo5D());
 406:C:/Renesas/e2studio_2021_01_workspace_RZA2M_ANPR/ANPR_RZA2M_GR_MANGO/src/tensorflow_lite/src/tensorflow/lite/kernels/internal\types.h ****   TFLITE_DCHECK(i0 >= 0 && i0 < dims_data[0]);
 407:C:/Renesas/e2studio_2021_01_workspace_RZA2M_ANPR/ANPR_RZA2M_GR_MANGO/src/tensorflow_lite/src/tensorflow/lite/kernels/internal\types.h ****   TFLITE_DCHECK(i1 >= 0 && i1 < dims_data[1]);
 408:C:/Renesas/e2studio_2021_01_workspace_RZA2M_ANPR/ANPR_RZA2M_GR_MANGO/src/tensorflow_lite/src/tensorflow/lite/kernels/internal\types.h ****   TFLITE_DCHECK(i2 >= 0 && i2 < dims_data[2]);
 409:C:/Renesas/e2studio_2021_01_workspace_RZA2M_ANPR/ANPR_RZA2M_GR_MANGO/src/tensorflow_lite/src/tensorflow/lite/kernels/internal\types.h ****   TFLITE_DCHECK(i3 >= 0 && i3 < dims_data[3]);
 410:C:/Renesas/e2studio_2021_01_workspace_RZA2M_ANPR/ANPR_RZA2M_GR_MANGO/src/tensorflow_lite/src/tensorflow/lite/kernels/internal\types.h ****   return ((i0 * dims_data[1] + i1) * dims_data[2] + i2) * dims_data[3] + i3;
 411:C:/Renesas/e2studio_2021_01_workspace_RZA2M_ANPR/ANPR_RZA2M_GR_MANGO/src/tensorflow_lite/src/tensorflow/lite/kernels/internal\types.h **** }
 412:C:/Renesas/e2studio_2021_01_workspace_RZA2M_ANPR/ANPR_RZA2M_GR_MANGO/src/tensorflow_lite/src/tensorflow/lite/kernels/internal\types.h **** 
 413:C:/Renesas/e2studio_2021_01_workspace_RZA2M_ANPR/ANPR_RZA2M_GR_MANGO/src/tensorflow_lite/src/tensorflow/lite/kernels/internal\types.h **** inline int Offset(const RuntimeShape& shape, int i0, int i1, int i2, int i3,
 414:C:/Renesas/e2studio_2021_01_workspace_RZA2M_ANPR/ANPR_RZA2M_GR_MANGO/src/tensorflow_lite/src/tensorflow/lite/kernels/internal\types.h ****                   int i4) {
 415:C:/Renesas/e2studio_2021_01_workspace_RZA2M_ANPR/ANPR_RZA2M_GR_MANGO/src/tensorflow_lite/src/tensorflow/lite/kernels/internal\types.h ****   TFLITE_DCHECK_EQ(shape.DimensionsCount(), 5);
 416:C:/Renesas/e2studio_2021_01_workspace_RZA2M_ANPR/ANPR_RZA2M_GR_MANGO/src/tensorflow_lite/src/tensorflow/lite/kernels/internal\types.h ****   const int* dims_data = reinterpret_cast<const int*>(shape.DimsDataUpTo5D());
 417:C:/Renesas/e2studio_2021_01_workspace_RZA2M_ANPR/ANPR_RZA2M_GR_MANGO/src/tensorflow_lite/src/tensorflow/lite/kernels/internal\types.h ****   TFLITE_DCHECK(i0 >= 0 && i0 < dims_data[0]);
 418:C:/Renesas/e2studio_2021_01_workspace_RZA2M_ANPR/ANPR_RZA2M_GR_MANGO/src/tensorflow_lite/src/tensorflow/lite/kernels/internal\types.h ****   TFLITE_DCHECK(i1 >= 0 && i1 < dims_data[1]);
 419:C:/Renesas/e2studio_2021_01_workspace_RZA2M_ANPR/ANPR_RZA2M_GR_MANGO/src/tensorflow_lite/src/tensorflow/lite/kernels/internal\types.h ****   TFLITE_DCHECK(i2 >= 0 && i2 < dims_data[2]);
 420:C:/Renesas/e2studio_2021_01_workspace_RZA2M_ANPR/ANPR_RZA2M_GR_MANGO/src/tensorflow_lite/src/tensorflow/lite/kernels/internal\types.h ****   TFLITE_DCHECK(i3 >= 0 && i3 < dims_data[3]);
 421:C:/Renesas/e2studio_2021_01_workspace_RZA2M_ANPR/ANPR_RZA2M_GR_MANGO/src/tensorflow_lite/src/tensorflow/lite/kernels/internal\types.h ****   TFLITE_DCHECK(i4 >= 0 && i4 < dims_data[4]);
 422:C:/Renesas/e2studio_2021_01_workspace_RZA2M_ANPR/ANPR_RZA2M_GR_MANGO/src/tensorflow_lite/src/tensorflow/lite/kernels/internal\types.h ****   return (((i0 * dims_data[1] + i1) * dims_data[2] + i2) * dims_data[3] + i3) *
 423:C:/Renesas/e2studio_2021_01_workspace_RZA2M_ANPR/ANPR_RZA2M_GR_MANGO/src/tensorflow_lite/src/tensorflow/lite/kernels/internal\types.h ****              dims_data[4] +
 424:C:/Renesas/e2studio_2021_01_workspace_RZA2M_ANPR/ANPR_RZA2M_GR_MANGO/src/tensorflow_lite/src/tensorflow/lite/kernels/internal\types.h ****          i4;
 425:C:/Renesas/e2studio_2021_01_workspace_RZA2M_ANPR/ANPR_RZA2M_GR_MANGO/src/tensorflow_lite/src/tensorflow/lite/kernels/internal\types.h **** }
 426:C:/Renesas/e2studio_2021_01_workspace_RZA2M_ANPR/ANPR_RZA2M_GR_MANGO/src/tensorflow_lite/src/tensorflow/lite/kernels/internal\types.h **** 
 427:C:/Renesas/e2studio_2021_01_workspace_RZA2M_ANPR/ANPR_RZA2M_GR_MANGO/src/tensorflow_lite/src/tensorflow/lite/kernels/internal\types.h **** inline int Offset(const Dims<4>& dims, int i0, int i1, int i2, int i3) {
 428:C:/Renesas/e2studio_2021_01_workspace_RZA2M_ANPR/ANPR_RZA2M_GR_MANGO/src/tensorflow_lite/src/tensorflow/lite/kernels/internal\types.h ****   TFLITE_DCHECK(i0 >= 0 && i0 < dims.sizes[0]);
 429:C:/Renesas/e2studio_2021_01_workspace_RZA2M_ANPR/ANPR_RZA2M_GR_MANGO/src/tensorflow_lite/src/tensorflow/lite/kernels/internal\types.h ****   TFLITE_DCHECK(i1 >= 0 && i1 < dims.sizes[1]);
 430:C:/Renesas/e2studio_2021_01_workspace_RZA2M_ANPR/ANPR_RZA2M_GR_MANGO/src/tensorflow_lite/src/tensorflow/lite/kernels/internal\types.h ****   TFLITE_DCHECK(i2 >= 0 && i2 < dims.sizes[2]);
 431:C:/Renesas/e2studio_2021_01_workspace_RZA2M_ANPR/ANPR_RZA2M_GR_MANGO/src/tensorflow_lite/src/tensorflow/lite/kernels/internal\types.h ****   TFLITE_DCHECK(i3 >= 0 && i3 < dims.sizes[3]);
 432:C:/Renesas/e2studio_2021_01_workspace_RZA2M_ANPR/ANPR_RZA2M_GR_MANGO/src/tensorflow_lite/src/tensorflow/lite/kernels/internal\types.h ****   return i0 * dims.strides[0] + i1 * dims.strides[1] + i2 * dims.strides[2] +
 433:C:/Renesas/e2studio_2021_01_workspace_RZA2M_ANPR/ANPR_RZA2M_GR_MANGO/src/tensorflow_lite/src/tensorflow/lite/kernels/internal\types.h ****          i3 * dims.strides[3];
 434:C:/Renesas/e2studio_2021_01_workspace_RZA2M_ANPR/ANPR_RZA2M_GR_MANGO/src/tensorflow_lite/src/tensorflow/lite/kernels/internal\types.h **** }
 435:C:/Renesas/e2studio_2021_01_workspace_RZA2M_ANPR/ANPR_RZA2M_GR_MANGO/src/tensorflow_lite/src/tensorflow/lite/kernels/internal\types.h **** 
 436:C:/Renesas/e2studio_2021_01_workspace_RZA2M_ANPR/ANPR_RZA2M_GR_MANGO/src/tensorflow_lite/src/tensorflow/lite/kernels/internal\types.h **** inline int Offset(const Dims<4>& dims, int* index) {
 437:C:/Renesas/e2studio_2021_01_workspace_RZA2M_ANPR/ANPR_RZA2M_GR_MANGO/src/tensorflow_lite/src/tensorflow/lite/kernels/internal\types.h ****   return Offset(dims, index[0], index[1], index[2], index[3]);
 438:C:/Renesas/e2studio_2021_01_workspace_RZA2M_ANPR/ANPR_RZA2M_GR_MANGO/src/tensorflow_lite/src/tensorflow/lite/kernels/internal\types.h **** }
 439:C:/Renesas/e2studio_2021_01_workspace_RZA2M_ANPR/ANPR_RZA2M_GR_MANGO/src/tensorflow_lite/src/tensorflow/lite/kernels/internal\types.h **** 
 440:C:/Renesas/e2studio_2021_01_workspace_RZA2M_ANPR/ANPR_RZA2M_GR_MANGO/src/tensorflow_lite/src/tensorflow/lite/kernels/internal\types.h **** inline int Offset(const RuntimeShape& shape, int* index) {
 441:C:/Renesas/e2studio_2021_01_workspace_RZA2M_ANPR/ANPR_RZA2M_GR_MANGO/src/tensorflow_lite/src/tensorflow/lite/kernels/internal\types.h ****   return Offset(shape, index[0], index[1], index[2], index[3]);
 442:C:/Renesas/e2studio_2021_01_workspace_RZA2M_ANPR/ANPR_RZA2M_GR_MANGO/src/tensorflow_lite/src/tensorflow/lite/kernels/internal\types.h **** }
 443:C:/Renesas/e2studio_2021_01_workspace_RZA2M_ANPR/ANPR_RZA2M_GR_MANGO/src/tensorflow_lite/src/tensorflow/lite/kernels/internal\types.h **** 
 444:C:/Renesas/e2studio_2021_01_workspace_RZA2M_ANPR/ANPR_RZA2M_GR_MANGO/src/tensorflow_lite/src/tensorflow/lite/kernels/internal\types.h **** // Get array size, DCHECKing that the dim index is in range.
 445:C:/Renesas/e2studio_2021_01_workspace_RZA2M_ANPR/ANPR_RZA2M_GR_MANGO/src/tensorflow_lite/src/tensorflow/lite/kernels/internal\types.h **** //
 446:C:/Renesas/e2studio_2021_01_workspace_RZA2M_ANPR/ANPR_RZA2M_GR_MANGO/src/tensorflow_lite/src/tensorflow/lite/kernels/internal\types.h **** // Note that this will be phased out with Dims<4>, since RuntimeShape::Dims()
 447:C:/Renesas/e2studio_2021_01_workspace_RZA2M_ANPR/ANPR_RZA2M_GR_MANGO/src/tensorflow_lite/src/tensorflow/lite/kernels/internal\types.h **** // already performs this check.
 448:C:/Renesas/e2studio_2021_01_workspace_RZA2M_ANPR/ANPR_RZA2M_GR_MANGO/src/tensorflow_lite/src/tensorflow/lite/kernels/internal\types.h **** template <int N>
 449:C:/Renesas/e2studio_2021_01_workspace_RZA2M_ANPR/ANPR_RZA2M_GR_MANGO/src/tensorflow_lite/src/tensorflow/lite/kernels/internal\types.h **** int ArraySize(const Dims<N>& array, int index) {
 450:C:/Renesas/e2studio_2021_01_workspace_RZA2M_ANPR/ANPR_RZA2M_GR_MANGO/src/tensorflow_lite/src/tensorflow/lite/kernels/internal\types.h ****   TFLITE_DCHECK(index >= 0 && index < N);
 451:C:/Renesas/e2studio_2021_01_workspace_RZA2M_ANPR/ANPR_RZA2M_GR_MANGO/src/tensorflow_lite/src/tensorflow/lite/kernels/internal\types.h ****   return array.sizes[index];
 452:C:/Renesas/e2studio_2021_01_workspace_RZA2M_ANPR/ANPR_RZA2M_GR_MANGO/src/tensorflow_lite/src/tensorflow/lite/kernels/internal\types.h **** }
 453:C:/Renesas/e2studio_2021_01_workspace_RZA2M_ANPR/ANPR_RZA2M_GR_MANGO/src/tensorflow_lite/src/tensorflow/lite/kernels/internal\types.h **** 
 454:C:/Renesas/e2studio_2021_01_workspace_RZA2M_ANPR/ANPR_RZA2M_GR_MANGO/src/tensorflow_lite/src/tensorflow/lite/kernels/internal\types.h **** // Get common array size, DCHECKing that they all agree.
 455:C:/Renesas/e2studio_2021_01_workspace_RZA2M_ANPR/ANPR_RZA2M_GR_MANGO/src/tensorflow_lite/src/tensorflow/lite/kernels/internal\types.h **** template <typename ArrayType1, typename ArrayType2>
 456:C:/Renesas/e2studio_2021_01_workspace_RZA2M_ANPR/ANPR_RZA2M_GR_MANGO/src/tensorflow_lite/src/tensorflow/lite/kernels/internal\types.h **** int MatchingArraySize(const ArrayType1& array1, int index1,
 457:C:/Renesas/e2studio_2021_01_workspace_RZA2M_ANPR/ANPR_RZA2M_GR_MANGO/src/tensorflow_lite/src/tensorflow/lite/kernels/internal\types.h ****                       const ArrayType2& array2, int index2) {
 458:C:/Renesas/e2studio_2021_01_workspace_RZA2M_ANPR/ANPR_RZA2M_GR_MANGO/src/tensorflow_lite/src/tensorflow/lite/kernels/internal\types.h ****   TFLITE_DCHECK_EQ(ArraySize(array1, index1), ArraySize(array2, index2));
 459:C:/Renesas/e2studio_2021_01_workspace_RZA2M_ANPR/ANPR_RZA2M_GR_MANGO/src/tensorflow_lite/src/tensorflow/lite/kernels/internal\types.h ****   return ArraySize(array1, index1);
 460:C:/Renesas/e2studio_2021_01_workspace_RZA2M_ANPR/ANPR_RZA2M_GR_MANGO/src/tensorflow_lite/src/tensorflow/lite/kernels/internal\types.h **** }
 461:C:/Renesas/e2studio_2021_01_workspace_RZA2M_ANPR/ANPR_RZA2M_GR_MANGO/src/tensorflow_lite/src/tensorflow/lite/kernels/internal\types.h **** 
 462:C:/Renesas/e2studio_2021_01_workspace_RZA2M_ANPR/ANPR_RZA2M_GR_MANGO/src/tensorflow_lite/src/tensorflow/lite/kernels/internal\types.h **** template <typename ArrayType1, typename ArrayType2, typename... Args>
 463:C:/Renesas/e2studio_2021_01_workspace_RZA2M_ANPR/ANPR_RZA2M_GR_MANGO/src/tensorflow_lite/src/tensorflow/lite/kernels/internal\types.h **** int MatchingArraySize(const ArrayType1& array1, int index1,
 464:C:/Renesas/e2studio_2021_01_workspace_RZA2M_ANPR/ANPR_RZA2M_GR_MANGO/src/tensorflow_lite/src/tensorflow/lite/kernels/internal\types.h ****                       const ArrayType2& array2, int index2, Args... args) {
 465:C:/Renesas/e2studio_2021_01_workspace_RZA2M_ANPR/ANPR_RZA2M_GR_MANGO/src/tensorflow_lite/src/tensorflow/lite/kernels/internal\types.h ****   TFLITE_DCHECK_EQ(ArraySize(array1, index1), ArraySize(array2, index2));
 466:C:/Renesas/e2studio_2021_01_workspace_RZA2M_ANPR/ANPR_RZA2M_GR_MANGO/src/tensorflow_lite/src/tensorflow/lite/kernels/internal\types.h ****   return MatchingArraySize(array1, index1, args...);
 467:C:/Renesas/e2studio_2021_01_workspace_RZA2M_ANPR/ANPR_RZA2M_GR_MANGO/src/tensorflow_lite/src/tensorflow/lite/kernels/internal\types.h **** }
 468:C:/Renesas/e2studio_2021_01_workspace_RZA2M_ANPR/ANPR_RZA2M_GR_MANGO/src/tensorflow_lite/src/tensorflow/lite/kernels/internal\types.h **** 
 469:C:/Renesas/e2studio_2021_01_workspace_RZA2M_ANPR/ANPR_RZA2M_GR_MANGO/src/tensorflow_lite/src/tensorflow/lite/kernels/internal\types.h **** // Get common shape dim, DCHECKing that they all agree.
 470:C:/Renesas/e2studio_2021_01_workspace_RZA2M_ANPR/ANPR_RZA2M_GR_MANGO/src/tensorflow_lite/src/tensorflow/lite/kernels/internal\types.h **** inline int MatchingDim(const RuntimeShape& shape1, int index1,
 471:C:/Renesas/e2studio_2021_01_workspace_RZA2M_ANPR/ANPR_RZA2M_GR_MANGO/src/tensorflow_lite/src/tensorflow/lite/kernels/internal\types.h ****                        const RuntimeShape& shape2, int index2) {
 472:C:/Renesas/e2studio_2021_01_workspace_RZA2M_ANPR/ANPR_RZA2M_GR_MANGO/src/tensorflow_lite/src/tensorflow/lite/kernels/internal\types.h ****   TFLITE_DCHECK_EQ(shape1.Dims(index1), shape2.Dims(index2));
 181              		.loc 3 472 0
 182 00ac 04309AE5 		ldr	r3, [r10, #4]
 183 00b0 030052E1 		cmp	r2, r3
 184 00b4 6C01001A 		bne	.L10
 185              	.LVL25:
 186              	.LBE288:
 187              	.LBE287:
 188              	.LBB291:
 189              	.LBB292:
 190              	.LBB293:
 191              	.LBB294:
 216:C:/Renesas/e2studio_2021_01_workspace_RZA2M_ANPR/ANPR_RZA2M_GR_MANGO/src/tensorflow_lite/src/tensorflow/lite/kernels/internal\types.h ****   }
 192              		.loc 3 216 0
 193 00b8 109098E5 		ldr	r9, [r8, #16]
 194              	.LVL26:
 195              	.LBE294:
 196              	.LBE293:
 197              		.loc 3 472 0
 198 00bc 10309AE5 		ldr	r3, [r10, #16]
 199 00c0 030059E1 		cmp	r9, r3
 200 00c4 6801001A 		bne	.L10
 201              	.LVL27:
 202              	.LBE292:
 203              	.LBE291:
 204              	.LBB295:
 205              	.LBB296:
 206              	.LBB297:
 207              	.LBB298:
 216:C:/Renesas/e2studio_2021_01_workspace_RZA2M_ANPR/ANPR_RZA2M_GR_MANGO/src/tensorflow_lite/src/tensorflow/lite/kernels/internal\types.h ****   }
 208              		.loc 3 216 0
 209 00c8 B4309DE5 		ldr	r3, [sp, #180]
 210 00cc 103093E5 		ldr	r3, [r3, #16]
 211 00d0 0320A0E1 		mov	r2, r3
 212 00d4 30308DE5 		str	r3, [sp, #48]
 213              	.LVL28:
 214              	.LBE298:
 215              	.LBE297:
 216              		.loc 3 472 0
 217 00d8 043098E5 		ldr	r3, [r8, #4]
 218 00dc 030052E1 		cmp	r2, r3
 219 00e0 6101001A 		bne	.L10
 220              	.LVL29:
 221              	.LBE296:
 222              	.LBE295:
 142:C:/Renesas/e2studio_2021_01_workspace_RZA2M_ANPR/ANPR_RZA2M_GR_MANGO/src/tensorflow_lite/src/tensorflow/lite/kernels/internal/reference/integer_ops\conv.h ****   const int batches = MatchingDim(input_shape, 0, output_shape, 0);
 143:C:/Renesas/e2studio_2021_01_workspace_RZA2M_ANPR/ANPR_RZA2M_GR_MANGO/src/tensorflow_lite/src/tensorflow/lite/kernels/internal/reference/integer_ops\conv.h ****   const int input_depth = MatchingDim(input_shape, 3, filter_shape, 3);
 144:C:/Renesas/e2studio_2021_01_workspace_RZA2M_ANPR/ANPR_RZA2M_GR_MANGO/src/tensorflow_lite/src/tensorflow/lite/kernels/internal/reference/integer_ops\conv.h ****   const int output_depth = MatchingDim(filter_shape, 0, output_shape, 3);
 145:C:/Renesas/e2studio_2021_01_workspace_RZA2M_ANPR/ANPR_RZA2M_GR_MANGO/src/tensorflow_lite/src/tensorflow/lite/kernels/internal/reference/integer_ops\conv.h ****   if (bias_data) {                                           // Temp_taka
 223              		.loc 2 145 0
 224 00e4 B0309DE5 		ldr	r3, [sp, #176]
 225 00e8 000053E3 		cmp	r3, #0
 226 00ec 5600000A 		beq	.L11
 227              	.LVL30:
 228              	.LBB299:
 229              	.LBB300:
 230              	.LBB301:
 231              	.LBB302:
 232:C:/Renesas/e2studio_2021_01_workspace_RZA2M_ANPR/ANPR_RZA2M_GR_MANGO/src/tensorflow_lite/src/tensorflow/lite/kernels/internal\types.h ****   }
 232              		.loc 3 232 0
 233 00f0 004090E5 		ldr	r4, [r0]
 234 00f4 050054E3 		cmp	r4, #5
 235 00f8 600100DA 		ble	.L12
 236 00fc 040090E5 		ldr	r0, [r0, #4]
 237              	.LVL31:
 238              	.L13:
 239 0100 5031A0E7 		sbfx	r3, r0, #2, #1
 240 0104 033003E2 		and	r3, r3, #3
 241 0108 040053E1 		cmp	r3, r4
 242 010c 0430A021 		movcs	r3, r4
 243 0110 080054E3 		cmp	r4, #8
 244              	.LBE302:
 245              	.LBE301:
 246              	.LBE300:
 247              	.LBE299:
 121:C:/Renesas/e2studio_2021_01_workspace_RZA2M_ANPR/ANPR_RZA2M_GR_MANGO/src/tensorflow_lite/src/tensorflow/lite/kernels/internal/reference/integer_ops\conv.h **** 
 248              		.loc 2 121 0
 249 0114 0430A0D1 		movle	r3, r4
 250 0118 5D0100CA 		bgt	.L85
 251              	.LVL32:
 252              	.L15:
 253 011c 010053E3 		cmp	r3, #1
 254              	.LBB310:
 255              	.LBB308:
 256              	.LBB304:
 293:C:/Renesas/e2studio_2021_01_workspace_RZA2M_ANPR/ANPR_RZA2M_GR_MANGO/src/tensorflow_lite/src/tensorflow/lite/kernels/internal\types.h ****     }
 257              		.loc 3 293 0
 258 0120 002090E5 		ldr	r2, [r0]
 259              	.LVL33:
 260 0124 5101000A 		beq	.L63
 261 0128 041090E5 		ldr	r1, [r0, #4]
 262 012c 020053E3 		cmp	r3, #2
 263 0130 910202E0 		mul	r2, r1, r2
 264              	.LVL34:
 265 0134 4D01000A 		beq	.L63
 266 0138 081090E5 		ldr	r1, [r0, #8]
 267 013c 030053E3 		cmp	r3, #3
 268 0140 910202E0 		mul	r2, r1, r2
 269              	.LVL35:
 270 0144 4901000A 		beq	.L63
 271 0148 0C1090E5 		ldr	r1, [r0, #12]
 272 014c 040053E3 		cmp	r3, #4
 273 0150 910202E0 		mul	r2, r1, r2
 274              	.LVL36:
 275 0154 4501000A 		beq	.L63
 276 0158 101090E5 		ldr	r1, [r0, #16]
 277 015c 050053E3 		cmp	r3, #5
 278 0160 910202E0 		mul	r2, r1, r2
 279              	.LVL37:
 280 0164 4101000A 		beq	.L63
 281 0168 141090E5 		ldr	r1, [r0, #20]
 282 016c 060053E3 		cmp	r3, #6
 283 0170 910202E0 		mul	r2, r1, r2
 284              	.LVL38:
 285 0174 3D01000A 		beq	.L63
 286 0178 181090E5 		ldr	r1, [r0, #24]
 287 017c 070053E3 		cmp	r3, #7
 288 0180 910202E0 		mul	r2, r1, r2
 289              	.LVL39:
 290 0184 3901000A 		beq	.L63
 291 0188 1CC090E5 		ldr	ip, [r0, #28]
 292:C:/Renesas/e2studio_2021_01_workspace_RZA2M_ANPR/ANPR_RZA2M_GR_MANGO/src/tensorflow_lite/src/tensorflow/lite/kernels/internal\types.h ****       buffer_size *= dims_data[i];
 292              		.loc 3 292 0
 293 018c 0810A0E3 		mov	r1, #8
 293:C:/Renesas/e2studio_2021_01_workspace_RZA2M_ANPR/ANPR_RZA2M_GR_MANGO/src/tensorflow_lite/src/tensorflow/lite/kernels/internal\types.h ****     }
 294              		.loc 3 293 0
 295 0190 9C0202E0 		mul	r2, ip, r2
 296              	.LVL40:
 297              	.L17:
 298 0194 040053E1 		cmp	r3, r4
 299 0198 2800000A 		beq	.L14
 300              	.LVL41:
 301              	.L16:
 302 019c 035044E0 		sub	r5, r4, r3
 303 01a0 01E044E2 		sub	lr, r4, #1
 304 01a4 04C045E2 		sub	ip, r5, #4
 305 01a8 03E04EE0 		sub	lr, lr, r3
 306 01ac 2CC1A0E1 		lsr	ip, ip, #2
 307 01b0 02005EE3 		cmp	lr, #2
 308 01b4 01C08CE2 		add	ip, ip, #1
 309 01b8 0C61A0E1 		lsl	r6, ip, #2
 310 01bc 1200009A 		bls	.L19
 311 01c0 033180E0 		add	r3, r0, r3, lsl #2
 292:C:/Renesas/e2studio_2021_01_workspace_RZA2M_ANPR/ANPR_RZA2M_GR_MANGO/src/tensorflow_lite/src/tensorflow/lite/kernels/internal\types.h ****       buffer_size *= dims_data[i];
 312              		.loc 3 292 0
 313 01c4 5140C0F2 		vmov.i32	q10, #1  @ v4si
 314 01c8 00E0A0E3 		mov	lr, #0
 315              	.L21:
 316 01cc 01E08EE2 		add	lr, lr, #1
 293:C:/Renesas/e2studio_2021_01_workspace_RZA2M_ANPR/ANPR_RZA2M_GR_MANGO/src/tensorflow_lite/src/tensorflow/lite/kernels/internal\types.h ****     }
 317              		.loc 3 293 0
 318 01d0 DF0A63F4 		vld1.64	{d16-d17}, [r3:64]
 319 01d4 0C005EE1 		cmp	lr, ip
 320 01d8 103083E2 		add	r3, r3, #16
 321 01dc F04964F2 		vmul.i32	q10, q10, q8
 322 01e0 F9FFFF3A 		bcc	.L21
 323 01e4 050056E1 		cmp	r6, r5
 324 01e8 061081E0 		add	r1, r1, r6
 325 01ec 5000C0F2 		vmov.i32	q8, #0  @ v4si
 326 01f0 E028F4F2 		vext.32	q9, q10, q8, #2
 327 01f4 F42962F2 		vmul.i32	q9, q9, q10
 328 01f8 E004F2F2 		vext.32	q8, q9, q8, #1
 329 01fc F20960F2 		vmul.i32	q8, q8, q9
 330 0200 903B10EE 		vmov.32	r3, d16[0]
 331 0204 930202E0 		mul	r2, r3, r2
 332 0208 0C00000A 		beq	.L14
 333              	.L19:
 334              	.LVL42:
 335 020c 01C190E7 		ldr	ip, [r0, r1, lsl #2]
 292:C:/Renesas/e2studio_2021_01_workspace_RZA2M_ANPR/ANPR_RZA2M_GR_MANGO/src/tensorflow_lite/src/tensorflow/lite/kernels/internal\types.h ****       buffer_size *= dims_data[i];
 336              		.loc 3 292 0
 337 0210 013081E2 		add	r3, r1, #1
 338 0214 030054E1 		cmp	r4, r3
 293:C:/Renesas/e2studio_2021_01_workspace_RZA2M_ANPR/ANPR_RZA2M_GR_MANGO/src/tensorflow_lite/src/tensorflow/lite/kernels/internal\types.h ****     }
 339              		.loc 3 293 0
 340 0218 0131A0E1 		lsl	r3, r1, #2
 341 021c 9C0202E0 		mul	r2, ip, r2
 342              	.LVL43:
 292:C:/Renesas/e2studio_2021_01_workspace_RZA2M_ANPR/ANPR_RZA2M_GR_MANGO/src/tensorflow_lite/src/tensorflow/lite/kernels/internal\types.h ****       buffer_size *= dims_data[i];
 343              		.loc 3 292 0
 344 0220 060000DA 		ble	.L14
 293:C:/Renesas/e2studio_2021_01_workspace_RZA2M_ANPR/ANPR_RZA2M_GR_MANGO/src/tensorflow_lite/src/tensorflow/lite/kernels/internal\types.h ****     }
 345              		.loc 3 293 0
 346 0224 030080E0 		add	r0, r0, r3
 292:C:/Renesas/e2studio_2021_01_workspace_RZA2M_ANPR/ANPR_RZA2M_GR_MANGO/src/tensorflow_lite/src/tensorflow/lite/kernels/internal\types.h ****       buffer_size *= dims_data[i];
 347              		.loc 3 292 0
 348 0228 021081E2 		add	r1, r1, #2
 293:C:/Renesas/e2studio_2021_01_workspace_RZA2M_ANPR/ANPR_RZA2M_GR_MANGO/src/tensorflow_lite/src/tensorflow/lite/kernels/internal\types.h ****     }
 349              		.loc 3 293 0
 350 022c 043090E5 		ldr	r3, [r0, #4]
 292:C:/Renesas/e2studio_2021_01_workspace_RZA2M_ANPR/ANPR_RZA2M_GR_MANGO/src/tensorflow_lite/src/tensorflow/lite/kernels/internal\types.h ****       buffer_size *= dims_data[i];
 351              		.loc 3 292 0
 352 0230 040051E1 		cmp	r1, r4
 293:C:/Renesas/e2studio_2021_01_workspace_RZA2M_ANPR/ANPR_RZA2M_GR_MANGO/src/tensorflow_lite/src/tensorflow/lite/kernels/internal\types.h ****     }
 353              		.loc 3 293 0
 354 0234 930202E0 		mul	r2, r3, r2
 355              	.LVL44:
 292:C:/Renesas/e2studio_2021_01_workspace_RZA2M_ANPR/ANPR_RZA2M_GR_MANGO/src/tensorflow_lite/src/tensorflow/lite/kernels/internal\types.h ****       buffer_size *= dims_data[i];
 356              		.loc 3 292 0
 293:C:/Renesas/e2studio_2021_01_workspace_RZA2M_ANPR/ANPR_RZA2M_GR_MANGO/src/tensorflow_lite/src/tensorflow/lite/kernels/internal\types.h ****     }
 357              		.loc 3 293 0
 358 0238 083090B5 		ldrlt	r3, [r0, #8]
 359 023c 930202B0 		mullt	r2, r3, r2
 360              	.LVL45:
 361              	.L14:
 362              	.LBE304:
 363              	.LBE308:
 364              	.LBE310:
 146:C:/Renesas/e2studio_2021_01_workspace_RZA2M_ANPR/ANPR_RZA2M_GR_MANGO/src/tensorflow_lite/src/tensorflow/lite/kernels/internal/reference/integer_ops\conv.h ****     TFLITE_DCHECK_EQ(bias_shape.FlatSize(), output_depth);   // Temp_taka
 365              		.loc 2 146 0
 366 0240 30309DE5 		ldr	r3, [sp, #48]
 367 0244 020053E1 		cmp	r3, r2
 368 0248 0701001A 		bne	.L10
 369              	.L11:
 370              	.LVL46:
 371              	.LBB311:
 147:C:/Renesas/e2studio_2021_01_workspace_RZA2M_ANPR/ANPR_RZA2M_GR_MANGO/src/tensorflow_lite/src/tensorflow/lite/kernels/internal/reference/integer_ops\conv.h ****   }                                                          // Temp_taka
 148:C:/Renesas/e2studio_2021_01_workspace_RZA2M_ANPR/ANPR_RZA2M_GR_MANGO/src/tensorflow_lite/src/tensorflow/lite/kernels/internal/reference/integer_ops\conv.h **** 
 149:C:/Renesas/e2studio_2021_01_workspace_RZA2M_ANPR/ANPR_RZA2M_GR_MANGO/src/tensorflow_lite/src/tensorflow/lite/kernels/internal/reference/integer_ops\conv.h ****   // Check dimensions of the tensors.
 150:C:/Renesas/e2studio_2021_01_workspace_RZA2M_ANPR/ANPR_RZA2M_GR_MANGO/src/tensorflow_lite/src/tensorflow/lite/kernels/internal/reference/integer_ops\conv.h ****   const int input_height = input_shape.Dims(1);
 151:C:/Renesas/e2studio_2021_01_workspace_RZA2M_ANPR/ANPR_RZA2M_GR_MANGO/src/tensorflow_lite/src/tensorflow/lite/kernels/internal/reference/integer_ops\conv.h ****   const int input_width = input_shape.Dims(2);
 152:C:/Renesas/e2studio_2021_01_workspace_RZA2M_ANPR/ANPR_RZA2M_GR_MANGO/src/tensorflow_lite/src/tensorflow/lite/kernels/internal/reference/integer_ops\conv.h ****   const int filter_height = filter_shape.Dims(1);
 153:C:/Renesas/e2studio_2021_01_workspace_RZA2M_ANPR/ANPR_RZA2M_GR_MANGO/src/tensorflow_lite/src/tensorflow/lite/kernels/internal/reference/integer_ops\conv.h ****   const int filter_width = filter_shape.Dims(2);
 154:C:/Renesas/e2studio_2021_01_workspace_RZA2M_ANPR/ANPR_RZA2M_GR_MANGO/src/tensorflow_lite/src/tensorflow/lite/kernels/internal/reference/integer_ops\conv.h ****   const int output_height = output_shape.Dims(1);
 155:C:/Renesas/e2studio_2021_01_workspace_RZA2M_ANPR/ANPR_RZA2M_GR_MANGO/src/tensorflow_lite/src/tensorflow/lite/kernels/internal/reference/integer_ops\conv.h ****   const int output_width = output_shape.Dims(2);
 156:C:/Renesas/e2studio_2021_01_workspace_RZA2M_ANPR/ANPR_RZA2M_GR_MANGO/src/tensorflow_lite/src/tensorflow/lite/kernels/internal/reference/integer_ops\conv.h **** 
 157:C:/Renesas/e2studio_2021_01_workspace_RZA2M_ANPR/ANPR_RZA2M_GR_MANGO/src/tensorflow_lite/src/tensorflow/lite/kernels/internal/reference/integer_ops\conv.h ****   for (int batch = 0; batch < batches; ++batch) {
 372              		.loc 2 157 0
 373 024c 34309DE5 		ldr	r3, [sp, #52]
 374 0250 000053E3 		cmp	r3, #0
 375              	.LBE311:
 376              	.LBB377:
 377              	.LBB378:
 216:C:/Renesas/e2studio_2021_01_workspace_RZA2M_ANPR/ANPR_RZA2M_GR_MANGO/src/tensorflow_lite/src/tensorflow/lite/kernels/internal\types.h ****   }
 378              		.loc 3 216 0
 379 0254 08309AE5 		ldr	r3, [r10, #8]
 380 0258 28308DE5 		str	r3, [sp, #40]
 381              	.LVL47:
 382              	.LBE378:
 383              	.LBE377:
 384              	.LBB379:
 385              	.LBB380:
 386 025c 0C309AE5 		ldr	r3, [r10, #12]
 387 0260 1C308DE5 		str	r3, [sp, #28]
 388              	.LVL48:
 389              	.LBE380:
 390              	.LBE379:
 391              	.LBB381:
 392              	.LBB382:
 393 0264 083098E5 		ldr	r3, [r8, #8]
 394 0268 20308DE5 		str	r3, [sp, #32]
 395              	.LVL49:
 396              	.LBE382:
 397              	.LBE381:
 398              	.LBB383:
 399              	.LBB384:
 400 026c 0C3098E5 		ldr	r3, [r8, #12]
 401 0270 14308DE5 		str	r3, [sp, #20]
 402              	.LVL50:
 403              	.LBE384:
 404              	.LBE383:
 405              	.LBB385:
 406              	.LBB386:
 407 0274 B4309DE5 		ldr	r3, [sp, #180]
 408 0278 083093E5 		ldr	r3, [r3, #8]
 409 027c 40308DE5 		str	r3, [sp, #64]
 410              	.LVL51:
 411              	.LBE386:
 412              	.LBE385:
 413              	.LBB387:
 414              	.LBB388:
 415 0280 B4309DE5 		ldr	r3, [sp, #180]
 416 0284 0C3093E5 		ldr	r3, [r3, #12]
 417 0288 3C308DE5 		str	r3, [sp, #60]
 418              	.LVL52:
 419              	.LBE388:
 420              	.LBE387:
 421              	.LBB389:
 422              		.loc 2 157 0
 423 028c F40000DA 		ble	.L8
 424              	.LBB312:
 425              	.LBB313:
 426              	.LBB314:
 427              	.LBB315:
 428              	.LBB316:
 429              	.LBB317:
 430              	.LBB318:
 431              	.LBB319:
 432              		.file 4 "C:/Renesas/e2studio_2021_01_workspace_RZA2M_ANPR/ANPR_RZA2M_GR_MANGO/src/tensorflow_lite/
   1:C:/Renesas/e2studio_2021_01_workspace_RZA2M_ANPR/ANPR_RZA2M_GR_MANGO/src/tensorflow_lite/src/third_party/gemmlowp/fixedpoint\fixedpoint.h **** // Copyright 2015 The Gemmlowp Authors. All Rights Reserved.
   2:C:/Renesas/e2studio_2021_01_workspace_RZA2M_ANPR/ANPR_RZA2M_GR_MANGO/src/tensorflow_lite/src/third_party/gemmlowp/fixedpoint\fixedpoint.h **** //
   3:C:/Renesas/e2studio_2021_01_workspace_RZA2M_ANPR/ANPR_RZA2M_GR_MANGO/src/tensorflow_lite/src/third_party/gemmlowp/fixedpoint\fixedpoint.h **** // Licensed under the Apache License, Version 2.0 (the "License");
   4:C:/Renesas/e2studio_2021_01_workspace_RZA2M_ANPR/ANPR_RZA2M_GR_MANGO/src/tensorflow_lite/src/third_party/gemmlowp/fixedpoint\fixedpoint.h **** // you may not use this file except in compliance with the License.
   5:C:/Renesas/e2studio_2021_01_workspace_RZA2M_ANPR/ANPR_RZA2M_GR_MANGO/src/tensorflow_lite/src/third_party/gemmlowp/fixedpoint\fixedpoint.h **** // You may obtain a copy of the License at
   6:C:/Renesas/e2studio_2021_01_workspace_RZA2M_ANPR/ANPR_RZA2M_GR_MANGO/src/tensorflow_lite/src/third_party/gemmlowp/fixedpoint\fixedpoint.h **** //
   7:C:/Renesas/e2studio_2021_01_workspace_RZA2M_ANPR/ANPR_RZA2M_GR_MANGO/src/tensorflow_lite/src/third_party/gemmlowp/fixedpoint\fixedpoint.h **** //     http://www.apache.org/licenses/LICENSE-2.0
   8:C:/Renesas/e2studio_2021_01_workspace_RZA2M_ANPR/ANPR_RZA2M_GR_MANGO/src/tensorflow_lite/src/third_party/gemmlowp/fixedpoint\fixedpoint.h **** //
   9:C:/Renesas/e2studio_2021_01_workspace_RZA2M_ANPR/ANPR_RZA2M_GR_MANGO/src/tensorflow_lite/src/third_party/gemmlowp/fixedpoint\fixedpoint.h **** // Unless required by applicable law or agreed to in writing, software
  10:C:/Renesas/e2studio_2021_01_workspace_RZA2M_ANPR/ANPR_RZA2M_GR_MANGO/src/tensorflow_lite/src/third_party/gemmlowp/fixedpoint\fixedpoint.h **** // distributed under the License is distributed on an "AS IS" BASIS,
  11:C:/Renesas/e2studio_2021_01_workspace_RZA2M_ANPR/ANPR_RZA2M_GR_MANGO/src/tensorflow_lite/src/third_party/gemmlowp/fixedpoint\fixedpoint.h **** // WITHOUT WARRANTIES OR CONDITIONS OF ANY KIND, either express or implied.
  12:C:/Renesas/e2studio_2021_01_workspace_RZA2M_ANPR/ANPR_RZA2M_GR_MANGO/src/tensorflow_lite/src/third_party/gemmlowp/fixedpoint\fixedpoint.h **** // See the License for the specific language governing permissions and
  13:C:/Renesas/e2studio_2021_01_workspace_RZA2M_ANPR/ANPR_RZA2M_GR_MANGO/src/tensorflow_lite/src/third_party/gemmlowp/fixedpoint\fixedpoint.h **** // limitations under the License.
  14:C:/Renesas/e2studio_2021_01_workspace_RZA2M_ANPR/ANPR_RZA2M_GR_MANGO/src/tensorflow_lite/src/third_party/gemmlowp/fixedpoint\fixedpoint.h **** 
  15:C:/Renesas/e2studio_2021_01_workspace_RZA2M_ANPR/ANPR_RZA2M_GR_MANGO/src/tensorflow_lite/src/third_party/gemmlowp/fixedpoint\fixedpoint.h **** // fixedpoint.h: fixed-point arithmetic, with basic operations and
  16:C:/Renesas/e2studio_2021_01_workspace_RZA2M_ANPR/ANPR_RZA2M_GR_MANGO/src/tensorflow_lite/src/third_party/gemmlowp/fixedpoint\fixedpoint.h **** // a few math functions such as tanh.
  17:C:/Renesas/e2studio_2021_01_workspace_RZA2M_ANPR/ANPR_RZA2M_GR_MANGO/src/tensorflow_lite/src/third_party/gemmlowp/fixedpoint\fixedpoint.h **** 
  18:C:/Renesas/e2studio_2021_01_workspace_RZA2M_ANPR/ANPR_RZA2M_GR_MANGO/src/tensorflow_lite/src/third_party/gemmlowp/fixedpoint\fixedpoint.h **** #ifndef GEMMLOWP_INTERNAL_FIXEDPOINT_H_
  19:C:/Renesas/e2studio_2021_01_workspace_RZA2M_ANPR/ANPR_RZA2M_GR_MANGO/src/tensorflow_lite/src/third_party/gemmlowp/fixedpoint\fixedpoint.h **** #define GEMMLOWP_INTERNAL_FIXEDPOINT_H_
  20:C:/Renesas/e2studio_2021_01_workspace_RZA2M_ANPR/ANPR_RZA2M_GR_MANGO/src/tensorflow_lite/src/third_party/gemmlowp/fixedpoint\fixedpoint.h **** 
  21:C:/Renesas/e2studio_2021_01_workspace_RZA2M_ANPR/ANPR_RZA2M_GR_MANGO/src/tensorflow_lite/src/third_party/gemmlowp/fixedpoint\fixedpoint.h **** #include <algorithm>
  22:C:/Renesas/e2studio_2021_01_workspace_RZA2M_ANPR/ANPR_RZA2M_GR_MANGO/src/tensorflow_lite/src/third_party/gemmlowp/fixedpoint\fixedpoint.h **** #include <cassert>
  23:C:/Renesas/e2studio_2021_01_workspace_RZA2M_ANPR/ANPR_RZA2M_GR_MANGO/src/tensorflow_lite/src/third_party/gemmlowp/fixedpoint\fixedpoint.h **** #include <cmath>
  24:C:/Renesas/e2studio_2021_01_workspace_RZA2M_ANPR/ANPR_RZA2M_GR_MANGO/src/tensorflow_lite/src/third_party/gemmlowp/fixedpoint\fixedpoint.h **** #include <cstdint>
  25:C:/Renesas/e2studio_2021_01_workspace_RZA2M_ANPR/ANPR_RZA2M_GR_MANGO/src/tensorflow_lite/src/third_party/gemmlowp/fixedpoint\fixedpoint.h **** #include <limits>
  26:C:/Renesas/e2studio_2021_01_workspace_RZA2M_ANPR/ANPR_RZA2M_GR_MANGO/src/tensorflow_lite/src/third_party/gemmlowp/fixedpoint\fixedpoint.h **** 
  27:C:/Renesas/e2studio_2021_01_workspace_RZA2M_ANPR/ANPR_RZA2M_GR_MANGO/src/tensorflow_lite/src/third_party/gemmlowp/fixedpoint\fixedpoint.h **** #include "../internal/detect_platform.h"
  28:C:/Renesas/e2studio_2021_01_workspace_RZA2M_ANPR/ANPR_RZA2M_GR_MANGO/src/tensorflow_lite/src/third_party/gemmlowp/fixedpoint\fixedpoint.h **** 
  29:C:/Renesas/e2studio_2021_01_workspace_RZA2M_ANPR/ANPR_RZA2M_GR_MANGO/src/tensorflow_lite/src/third_party/gemmlowp/fixedpoint\fixedpoint.h **** namespace gemmlowp {
  30:C:/Renesas/e2studio_2021_01_workspace_RZA2M_ANPR/ANPR_RZA2M_GR_MANGO/src/tensorflow_lite/src/third_party/gemmlowp/fixedpoint\fixedpoint.h **** 
  31:C:/Renesas/e2studio_2021_01_workspace_RZA2M_ANPR/ANPR_RZA2M_GR_MANGO/src/tensorflow_lite/src/third_party/gemmlowp/fixedpoint\fixedpoint.h **** // Part 1: Low-level integer-arithmetic primitives.
  32:C:/Renesas/e2studio_2021_01_workspace_RZA2M_ANPR/ANPR_RZA2M_GR_MANGO/src/tensorflow_lite/src/third_party/gemmlowp/fixedpoint\fixedpoint.h **** // The implementations here are generic implementations valid for
  33:C:/Renesas/e2studio_2021_01_workspace_RZA2M_ANPR/ANPR_RZA2M_GR_MANGO/src/tensorflow_lite/src/third_party/gemmlowp/fixedpoint\fixedpoint.h **** // scalar types (e.g. std::int32_t). Architecture-specific SIMD types
  34:C:/Renesas/e2studio_2021_01_workspace_RZA2M_ANPR/ANPR_RZA2M_GR_MANGO/src/tensorflow_lite/src/third_party/gemmlowp/fixedpoint\fixedpoint.h **** // (e.g. NEON int32x4_t) may be supported by providing
  35:C:/Renesas/e2studio_2021_01_workspace_RZA2M_ANPR/ANPR_RZA2M_GR_MANGO/src/tensorflow_lite/src/third_party/gemmlowp/fixedpoint\fixedpoint.h **** // specializations for them in separate files.
  36:C:/Renesas/e2studio_2021_01_workspace_RZA2M_ANPR/ANPR_RZA2M_GR_MANGO/src/tensorflow_lite/src/third_party/gemmlowp/fixedpoint\fixedpoint.h **** //
  37:C:/Renesas/e2studio_2021_01_workspace_RZA2M_ANPR/ANPR_RZA2M_GR_MANGO/src/tensorflow_lite/src/third_party/gemmlowp/fixedpoint\fixedpoint.h **** // The purpose of these primitives is two-fold:
  38:C:/Renesas/e2studio_2021_01_workspace_RZA2M_ANPR/ANPR_RZA2M_GR_MANGO/src/tensorflow_lite/src/third_party/gemmlowp/fixedpoint\fixedpoint.h **** //  - They will be used to implement higher-level fixed-point
  39:C:/Renesas/e2studio_2021_01_workspace_RZA2M_ANPR/ANPR_RZA2M_GR_MANGO/src/tensorflow_lite/src/third_party/gemmlowp/fixedpoint\fixedpoint.h **** //    abstractions, namely the FixedPoint class and its arithmetic
  40:C:/Renesas/e2studio_2021_01_workspace_RZA2M_ANPR/ANPR_RZA2M_GR_MANGO/src/tensorflow_lite/src/third_party/gemmlowp/fixedpoint\fixedpoint.h **** //    operators.
  41:C:/Renesas/e2studio_2021_01_workspace_RZA2M_ANPR/ANPR_RZA2M_GR_MANGO/src/tensorflow_lite/src/third_party/gemmlowp/fixedpoint\fixedpoint.h **** //  - They will be directly used to implement some more involved
  42:C:/Renesas/e2studio_2021_01_workspace_RZA2M_ANPR/ANPR_RZA2M_GR_MANGO/src/tensorflow_lite/src/third_party/gemmlowp/fixedpoint\fixedpoint.h **** //    fixed-point computations, e.g. the fixed-point implementation
  43:C:/Renesas/e2studio_2021_01_workspace_RZA2M_ANPR/ANPR_RZA2M_GR_MANGO/src/tensorflow_lite/src/third_party/gemmlowp/fixedpoint\fixedpoint.h **** //    of math functions such as tanh.
  44:C:/Renesas/e2studio_2021_01_workspace_RZA2M_ANPR/ANPR_RZA2M_GR_MANGO/src/tensorflow_lite/src/third_party/gemmlowp/fixedpoint\fixedpoint.h **** 
  45:C:/Renesas/e2studio_2021_01_workspace_RZA2M_ANPR/ANPR_RZA2M_GR_MANGO/src/tensorflow_lite/src/third_party/gemmlowp/fixedpoint\fixedpoint.h **** // Some compile-time traits around raw types to handle SIMD aspects:
  46:C:/Renesas/e2studio_2021_01_workspace_RZA2M_ANPR/ANPR_RZA2M_GR_MANGO/src/tensorflow_lite/src/third_party/gemmlowp/fixedpoint\fixedpoint.h **** // number of lanes, underlying scalar type.
  47:C:/Renesas/e2studio_2021_01_workspace_RZA2M_ANPR/ANPR_RZA2M_GR_MANGO/src/tensorflow_lite/src/third_party/gemmlowp/fixedpoint\fixedpoint.h **** template <typename tIntegerType>
  48:C:/Renesas/e2studio_2021_01_workspace_RZA2M_ANPR/ANPR_RZA2M_GR_MANGO/src/tensorflow_lite/src/third_party/gemmlowp/fixedpoint\fixedpoint.h **** struct FixedPointRawTypeTraits {};
  49:C:/Renesas/e2studio_2021_01_workspace_RZA2M_ANPR/ANPR_RZA2M_GR_MANGO/src/tensorflow_lite/src/third_party/gemmlowp/fixedpoint\fixedpoint.h **** 
  50:C:/Renesas/e2studio_2021_01_workspace_RZA2M_ANPR/ANPR_RZA2M_GR_MANGO/src/tensorflow_lite/src/third_party/gemmlowp/fixedpoint\fixedpoint.h **** template <>
  51:C:/Renesas/e2studio_2021_01_workspace_RZA2M_ANPR/ANPR_RZA2M_GR_MANGO/src/tensorflow_lite/src/third_party/gemmlowp/fixedpoint\fixedpoint.h **** struct FixedPointRawTypeTraits<std::int32_t> {
  52:C:/Renesas/e2studio_2021_01_workspace_RZA2M_ANPR/ANPR_RZA2M_GR_MANGO/src/tensorflow_lite/src/third_party/gemmlowp/fixedpoint\fixedpoint.h ****   typedef std::int32_t ScalarRawType;
  53:C:/Renesas/e2studio_2021_01_workspace_RZA2M_ANPR/ANPR_RZA2M_GR_MANGO/src/tensorflow_lite/src/third_party/gemmlowp/fixedpoint\fixedpoint.h ****   static constexpr int kLanes = 1;
  54:C:/Renesas/e2studio_2021_01_workspace_RZA2M_ANPR/ANPR_RZA2M_GR_MANGO/src/tensorflow_lite/src/third_party/gemmlowp/fixedpoint\fixedpoint.h **** };
  55:C:/Renesas/e2studio_2021_01_workspace_RZA2M_ANPR/ANPR_RZA2M_GR_MANGO/src/tensorflow_lite/src/third_party/gemmlowp/fixedpoint\fixedpoint.h **** 
  56:C:/Renesas/e2studio_2021_01_workspace_RZA2M_ANPR/ANPR_RZA2M_GR_MANGO/src/tensorflow_lite/src/third_party/gemmlowp/fixedpoint\fixedpoint.h **** template <>
  57:C:/Renesas/e2studio_2021_01_workspace_RZA2M_ANPR/ANPR_RZA2M_GR_MANGO/src/tensorflow_lite/src/third_party/gemmlowp/fixedpoint\fixedpoint.h **** struct FixedPointRawTypeTraits<std::int16_t> {
  58:C:/Renesas/e2studio_2021_01_workspace_RZA2M_ANPR/ANPR_RZA2M_GR_MANGO/src/tensorflow_lite/src/third_party/gemmlowp/fixedpoint\fixedpoint.h ****   typedef std::int16_t ScalarRawType;
  59:C:/Renesas/e2studio_2021_01_workspace_RZA2M_ANPR/ANPR_RZA2M_GR_MANGO/src/tensorflow_lite/src/third_party/gemmlowp/fixedpoint\fixedpoint.h ****   static constexpr int kLanes = 1;
  60:C:/Renesas/e2studio_2021_01_workspace_RZA2M_ANPR/ANPR_RZA2M_GR_MANGO/src/tensorflow_lite/src/third_party/gemmlowp/fixedpoint\fixedpoint.h **** };
  61:C:/Renesas/e2studio_2021_01_workspace_RZA2M_ANPR/ANPR_RZA2M_GR_MANGO/src/tensorflow_lite/src/third_party/gemmlowp/fixedpoint\fixedpoint.h **** 
  62:C:/Renesas/e2studio_2021_01_workspace_RZA2M_ANPR/ANPR_RZA2M_GR_MANGO/src/tensorflow_lite/src/third_party/gemmlowp/fixedpoint\fixedpoint.h **** // Returns a SIMD value duplicating a scalar value across all lanes.
  63:C:/Renesas/e2studio_2021_01_workspace_RZA2M_ANPR/ANPR_RZA2M_GR_MANGO/src/tensorflow_lite/src/third_party/gemmlowp/fixedpoint\fixedpoint.h **** template <typename tRawType>
  64:C:/Renesas/e2studio_2021_01_workspace_RZA2M_ANPR/ANPR_RZA2M_GR_MANGO/src/tensorflow_lite/src/third_party/gemmlowp/fixedpoint\fixedpoint.h **** tRawType Dup(typename FixedPointRawTypeTraits<tRawType>::ScalarRawType x) {
  65:C:/Renesas/e2studio_2021_01_workspace_RZA2M_ANPR/ANPR_RZA2M_GR_MANGO/src/tensorflow_lite/src/third_party/gemmlowp/fixedpoint\fixedpoint.h ****   return x;
  66:C:/Renesas/e2studio_2021_01_workspace_RZA2M_ANPR/ANPR_RZA2M_GR_MANGO/src/tensorflow_lite/src/third_party/gemmlowp/fixedpoint\fixedpoint.h **** }
  67:C:/Renesas/e2studio_2021_01_workspace_RZA2M_ANPR/ANPR_RZA2M_GR_MANGO/src/tensorflow_lite/src/third_party/gemmlowp/fixedpoint\fixedpoint.h **** 
  68:C:/Renesas/e2studio_2021_01_workspace_RZA2M_ANPR/ANPR_RZA2M_GR_MANGO/src/tensorflow_lite/src/third_party/gemmlowp/fixedpoint\fixedpoint.h **** // Plain bit-wise AND
  69:C:/Renesas/e2studio_2021_01_workspace_RZA2M_ANPR/ANPR_RZA2M_GR_MANGO/src/tensorflow_lite/src/third_party/gemmlowp/fixedpoint\fixedpoint.h **** template <typename tIntegerType>
  70:C:/Renesas/e2studio_2021_01_workspace_RZA2M_ANPR/ANPR_RZA2M_GR_MANGO/src/tensorflow_lite/src/third_party/gemmlowp/fixedpoint\fixedpoint.h **** tIntegerType BitAnd(tIntegerType a, tIntegerType b) {
  71:C:/Renesas/e2studio_2021_01_workspace_RZA2M_ANPR/ANPR_RZA2M_GR_MANGO/src/tensorflow_lite/src/third_party/gemmlowp/fixedpoint\fixedpoint.h ****   return a & b;
  72:C:/Renesas/e2studio_2021_01_workspace_RZA2M_ANPR/ANPR_RZA2M_GR_MANGO/src/tensorflow_lite/src/third_party/gemmlowp/fixedpoint\fixedpoint.h **** }
  73:C:/Renesas/e2studio_2021_01_workspace_RZA2M_ANPR/ANPR_RZA2M_GR_MANGO/src/tensorflow_lite/src/third_party/gemmlowp/fixedpoint\fixedpoint.h **** 
  74:C:/Renesas/e2studio_2021_01_workspace_RZA2M_ANPR/ANPR_RZA2M_GR_MANGO/src/tensorflow_lite/src/third_party/gemmlowp/fixedpoint\fixedpoint.h **** // Plain bit-wise OR
  75:C:/Renesas/e2studio_2021_01_workspace_RZA2M_ANPR/ANPR_RZA2M_GR_MANGO/src/tensorflow_lite/src/third_party/gemmlowp/fixedpoint\fixedpoint.h **** template <typename tIntegerType>
  76:C:/Renesas/e2studio_2021_01_workspace_RZA2M_ANPR/ANPR_RZA2M_GR_MANGO/src/tensorflow_lite/src/third_party/gemmlowp/fixedpoint\fixedpoint.h **** tIntegerType BitOr(tIntegerType a, tIntegerType b) {
  77:C:/Renesas/e2studio_2021_01_workspace_RZA2M_ANPR/ANPR_RZA2M_GR_MANGO/src/tensorflow_lite/src/third_party/gemmlowp/fixedpoint\fixedpoint.h ****   return a | b;
  78:C:/Renesas/e2studio_2021_01_workspace_RZA2M_ANPR/ANPR_RZA2M_GR_MANGO/src/tensorflow_lite/src/third_party/gemmlowp/fixedpoint\fixedpoint.h **** }
  79:C:/Renesas/e2studio_2021_01_workspace_RZA2M_ANPR/ANPR_RZA2M_GR_MANGO/src/tensorflow_lite/src/third_party/gemmlowp/fixedpoint\fixedpoint.h **** 
  80:C:/Renesas/e2studio_2021_01_workspace_RZA2M_ANPR/ANPR_RZA2M_GR_MANGO/src/tensorflow_lite/src/third_party/gemmlowp/fixedpoint\fixedpoint.h **** // Plain bit-wise XOR
  81:C:/Renesas/e2studio_2021_01_workspace_RZA2M_ANPR/ANPR_RZA2M_GR_MANGO/src/tensorflow_lite/src/third_party/gemmlowp/fixedpoint\fixedpoint.h **** template <typename tIntegerType>
  82:C:/Renesas/e2studio_2021_01_workspace_RZA2M_ANPR/ANPR_RZA2M_GR_MANGO/src/tensorflow_lite/src/third_party/gemmlowp/fixedpoint\fixedpoint.h **** tIntegerType BitXor(tIntegerType a, tIntegerType b) {
  83:C:/Renesas/e2studio_2021_01_workspace_RZA2M_ANPR/ANPR_RZA2M_GR_MANGO/src/tensorflow_lite/src/third_party/gemmlowp/fixedpoint\fixedpoint.h ****   return a ^ b;
  84:C:/Renesas/e2studio_2021_01_workspace_RZA2M_ANPR/ANPR_RZA2M_GR_MANGO/src/tensorflow_lite/src/third_party/gemmlowp/fixedpoint\fixedpoint.h **** }
  85:C:/Renesas/e2studio_2021_01_workspace_RZA2M_ANPR/ANPR_RZA2M_GR_MANGO/src/tensorflow_lite/src/third_party/gemmlowp/fixedpoint\fixedpoint.h **** 
  86:C:/Renesas/e2studio_2021_01_workspace_RZA2M_ANPR/ANPR_RZA2M_GR_MANGO/src/tensorflow_lite/src/third_party/gemmlowp/fixedpoint\fixedpoint.h **** // Plain bit-wise NOT
  87:C:/Renesas/e2studio_2021_01_workspace_RZA2M_ANPR/ANPR_RZA2M_GR_MANGO/src/tensorflow_lite/src/third_party/gemmlowp/fixedpoint\fixedpoint.h **** template <typename tIntegerType>
  88:C:/Renesas/e2studio_2021_01_workspace_RZA2M_ANPR/ANPR_RZA2M_GR_MANGO/src/tensorflow_lite/src/third_party/gemmlowp/fixedpoint\fixedpoint.h **** tIntegerType BitNot(tIntegerType a) {
  89:C:/Renesas/e2studio_2021_01_workspace_RZA2M_ANPR/ANPR_RZA2M_GR_MANGO/src/tensorflow_lite/src/third_party/gemmlowp/fixedpoint\fixedpoint.h ****   return ~a;
  90:C:/Renesas/e2studio_2021_01_workspace_RZA2M_ANPR/ANPR_RZA2M_GR_MANGO/src/tensorflow_lite/src/third_party/gemmlowp/fixedpoint\fixedpoint.h **** }
  91:C:/Renesas/e2studio_2021_01_workspace_RZA2M_ANPR/ANPR_RZA2M_GR_MANGO/src/tensorflow_lite/src/third_party/gemmlowp/fixedpoint\fixedpoint.h **** 
  92:C:/Renesas/e2studio_2021_01_workspace_RZA2M_ANPR/ANPR_RZA2M_GR_MANGO/src/tensorflow_lite/src/third_party/gemmlowp/fixedpoint\fixedpoint.h **** // Integer addition. Not saturating. Overflow is undefined behavior.
  93:C:/Renesas/e2studio_2021_01_workspace_RZA2M_ANPR/ANPR_RZA2M_GR_MANGO/src/tensorflow_lite/src/third_party/gemmlowp/fixedpoint\fixedpoint.h **** template <typename tIntegerType>
  94:C:/Renesas/e2studio_2021_01_workspace_RZA2M_ANPR/ANPR_RZA2M_GR_MANGO/src/tensorflow_lite/src/third_party/gemmlowp/fixedpoint\fixedpoint.h **** tIntegerType Add(tIntegerType a, tIntegerType b) {
  95:C:/Renesas/e2studio_2021_01_workspace_RZA2M_ANPR/ANPR_RZA2M_GR_MANGO/src/tensorflow_lite/src/third_party/gemmlowp/fixedpoint\fixedpoint.h ****   return a + b;
  96:C:/Renesas/e2studio_2021_01_workspace_RZA2M_ANPR/ANPR_RZA2M_GR_MANGO/src/tensorflow_lite/src/third_party/gemmlowp/fixedpoint\fixedpoint.h **** }
  97:C:/Renesas/e2studio_2021_01_workspace_RZA2M_ANPR/ANPR_RZA2M_GR_MANGO/src/tensorflow_lite/src/third_party/gemmlowp/fixedpoint\fixedpoint.h **** 
  98:C:/Renesas/e2studio_2021_01_workspace_RZA2M_ANPR/ANPR_RZA2M_GR_MANGO/src/tensorflow_lite/src/third_party/gemmlowp/fixedpoint\fixedpoint.h **** // Integer subtraction. Not saturating. Overflow is undefined behavior.
  99:C:/Renesas/e2studio_2021_01_workspace_RZA2M_ANPR/ANPR_RZA2M_GR_MANGO/src/tensorflow_lite/src/third_party/gemmlowp/fixedpoint\fixedpoint.h **** template <typename tIntegerType>
 100:C:/Renesas/e2studio_2021_01_workspace_RZA2M_ANPR/ANPR_RZA2M_GR_MANGO/src/tensorflow_lite/src/third_party/gemmlowp/fixedpoint\fixedpoint.h **** tIntegerType Mul(tIntegerType a, tIntegerType b) {
 101:C:/Renesas/e2studio_2021_01_workspace_RZA2M_ANPR/ANPR_RZA2M_GR_MANGO/src/tensorflow_lite/src/third_party/gemmlowp/fixedpoint\fixedpoint.h ****   return a * b;
 102:C:/Renesas/e2studio_2021_01_workspace_RZA2M_ANPR/ANPR_RZA2M_GR_MANGO/src/tensorflow_lite/src/third_party/gemmlowp/fixedpoint\fixedpoint.h **** }
 103:C:/Renesas/e2studio_2021_01_workspace_RZA2M_ANPR/ANPR_RZA2M_GR_MANGO/src/tensorflow_lite/src/third_party/gemmlowp/fixedpoint\fixedpoint.h **** 
 104:C:/Renesas/e2studio_2021_01_workspace_RZA2M_ANPR/ANPR_RZA2M_GR_MANGO/src/tensorflow_lite/src/third_party/gemmlowp/fixedpoint\fixedpoint.h **** template <typename tIntegerType>
 105:C:/Renesas/e2studio_2021_01_workspace_RZA2M_ANPR/ANPR_RZA2M_GR_MANGO/src/tensorflow_lite/src/third_party/gemmlowp/fixedpoint\fixedpoint.h **** tIntegerType Sub(tIntegerType a, tIntegerType b) {
 106:C:/Renesas/e2studio_2021_01_workspace_RZA2M_ANPR/ANPR_RZA2M_GR_MANGO/src/tensorflow_lite/src/third_party/gemmlowp/fixedpoint\fixedpoint.h ****   return a - b;
 107:C:/Renesas/e2studio_2021_01_workspace_RZA2M_ANPR/ANPR_RZA2M_GR_MANGO/src/tensorflow_lite/src/third_party/gemmlowp/fixedpoint\fixedpoint.h **** }
 108:C:/Renesas/e2studio_2021_01_workspace_RZA2M_ANPR/ANPR_RZA2M_GR_MANGO/src/tensorflow_lite/src/third_party/gemmlowp/fixedpoint\fixedpoint.h **** 
 109:C:/Renesas/e2studio_2021_01_workspace_RZA2M_ANPR/ANPR_RZA2M_GR_MANGO/src/tensorflow_lite/src/third_party/gemmlowp/fixedpoint\fixedpoint.h **** // Integer unary negative. Not saturating. Overflow is undefined behavior.
 110:C:/Renesas/e2studio_2021_01_workspace_RZA2M_ANPR/ANPR_RZA2M_GR_MANGO/src/tensorflow_lite/src/third_party/gemmlowp/fixedpoint\fixedpoint.h **** template <typename tIntegerType>
 111:C:/Renesas/e2studio_2021_01_workspace_RZA2M_ANPR/ANPR_RZA2M_GR_MANGO/src/tensorflow_lite/src/third_party/gemmlowp/fixedpoint\fixedpoint.h **** tIntegerType Neg(tIntegerType a) {
 112:C:/Renesas/e2studio_2021_01_workspace_RZA2M_ANPR/ANPR_RZA2M_GR_MANGO/src/tensorflow_lite/src/third_party/gemmlowp/fixedpoint\fixedpoint.h ****   return -a;
 113:C:/Renesas/e2studio_2021_01_workspace_RZA2M_ANPR/ANPR_RZA2M_GR_MANGO/src/tensorflow_lite/src/third_party/gemmlowp/fixedpoint\fixedpoint.h **** }
 114:C:/Renesas/e2studio_2021_01_workspace_RZA2M_ANPR/ANPR_RZA2M_GR_MANGO/src/tensorflow_lite/src/third_party/gemmlowp/fixedpoint\fixedpoint.h **** 
 115:C:/Renesas/e2studio_2021_01_workspace_RZA2M_ANPR/ANPR_RZA2M_GR_MANGO/src/tensorflow_lite/src/third_party/gemmlowp/fixedpoint\fixedpoint.h **** // Integer arithmetic left-shift, equivalent to multiplying with a power of two.
 116:C:/Renesas/e2studio_2021_01_workspace_RZA2M_ANPR/ANPR_RZA2M_GR_MANGO/src/tensorflow_lite/src/third_party/gemmlowp/fixedpoint\fixedpoint.h **** // Negative values are OK. In case of overflow, no Undefined
 117:C:/Renesas/e2studio_2021_01_workspace_RZA2M_ANPR/ANPR_RZA2M_GR_MANGO/src/tensorflow_lite/src/third_party/gemmlowp/fixedpoint\fixedpoint.h **** // Behavior, but the results are implementation-defined (in practice,
 118:C:/Renesas/e2studio_2021_01_workspace_RZA2M_ANPR/ANPR_RZA2M_GR_MANGO/src/tensorflow_lite/src/third_party/gemmlowp/fixedpoint\fixedpoint.h **** // they currently are saturated, but we make no commitment to that). The idea
 119:C:/Renesas/e2studio_2021_01_workspace_RZA2M_ANPR/ANPR_RZA2M_GR_MANGO/src/tensorflow_lite/src/third_party/gemmlowp/fixedpoint\fixedpoint.h **** // is that the caller will want to implement the overflowing cases with
 120:C:/Renesas/e2studio_2021_01_workspace_RZA2M_ANPR/ANPR_RZA2M_GR_MANGO/src/tensorflow_lite/src/third_party/gemmlowp/fixedpoint\fixedpoint.h **** // saturation with compare-and-mask, so we don't care about the results
 121:C:/Renesas/e2studio_2021_01_workspace_RZA2M_ANPR/ANPR_RZA2M_GR_MANGO/src/tensorflow_lite/src/third_party/gemmlowp/fixedpoint\fixedpoint.h **** // in the overflow case, we just want to avoid undefined behavior.
 122:C:/Renesas/e2studio_2021_01_workspace_RZA2M_ANPR/ANPR_RZA2M_GR_MANGO/src/tensorflow_lite/src/third_party/gemmlowp/fixedpoint\fixedpoint.h **** //
 123:C:/Renesas/e2studio_2021_01_workspace_RZA2M_ANPR/ANPR_RZA2M_GR_MANGO/src/tensorflow_lite/src/third_party/gemmlowp/fixedpoint\fixedpoint.h **** // tIntegerType may be int32 or any narrower signed type.
 124:C:/Renesas/e2studio_2021_01_workspace_RZA2M_ANPR/ANPR_RZA2M_GR_MANGO/src/tensorflow_lite/src/third_party/gemmlowp/fixedpoint\fixedpoint.h **** template <typename tIntegerType>
 125:C:/Renesas/e2studio_2021_01_workspace_RZA2M_ANPR/ANPR_RZA2M_GR_MANGO/src/tensorflow_lite/src/third_party/gemmlowp/fixedpoint\fixedpoint.h **** tIntegerType ShiftLeft(tIntegerType a, int offset) {
 126:C:/Renesas/e2studio_2021_01_workspace_RZA2M_ANPR/ANPR_RZA2M_GR_MANGO/src/tensorflow_lite/src/third_party/gemmlowp/fixedpoint\fixedpoint.h ****   const std::int64_t wide_a = static_cast<std::int64_t>(a);
 127:C:/Renesas/e2studio_2021_01_workspace_RZA2M_ANPR/ANPR_RZA2M_GR_MANGO/src/tensorflow_lite/src/third_party/gemmlowp/fixedpoint\fixedpoint.h ****   const std::int64_t wide_shifted = wide_a * (1 << offset);
 128:C:/Renesas/e2studio_2021_01_workspace_RZA2M_ANPR/ANPR_RZA2M_GR_MANGO/src/tensorflow_lite/src/third_party/gemmlowp/fixedpoint\fixedpoint.h ****   const auto min = std::numeric_limits<tIntegerType>::min();
 129:C:/Renesas/e2studio_2021_01_workspace_RZA2M_ANPR/ANPR_RZA2M_GR_MANGO/src/tensorflow_lite/src/third_party/gemmlowp/fixedpoint\fixedpoint.h ****   const auto max = std::numeric_limits<tIntegerType>::max();
 130:C:/Renesas/e2studio_2021_01_workspace_RZA2M_ANPR/ANPR_RZA2M_GR_MANGO/src/tensorflow_lite/src/third_party/gemmlowp/fixedpoint\fixedpoint.h ****   return wide_shifted < min
 131:C:/Renesas/e2studio_2021_01_workspace_RZA2M_ANPR/ANPR_RZA2M_GR_MANGO/src/tensorflow_lite/src/third_party/gemmlowp/fixedpoint\fixedpoint.h ****              ? min
 132:C:/Renesas/e2studio_2021_01_workspace_RZA2M_ANPR/ANPR_RZA2M_GR_MANGO/src/tensorflow_lite/src/third_party/gemmlowp/fixedpoint\fixedpoint.h ****              : wide_shifted > max ? max
 133:C:/Renesas/e2studio_2021_01_workspace_RZA2M_ANPR/ANPR_RZA2M_GR_MANGO/src/tensorflow_lite/src/third_party/gemmlowp/fixedpoint\fixedpoint.h ****                                   : static_cast<tIntegerType>(wide_shifted);
 134:C:/Renesas/e2studio_2021_01_workspace_RZA2M_ANPR/ANPR_RZA2M_GR_MANGO/src/tensorflow_lite/src/third_party/gemmlowp/fixedpoint\fixedpoint.h **** }
 135:C:/Renesas/e2studio_2021_01_workspace_RZA2M_ANPR/ANPR_RZA2M_GR_MANGO/src/tensorflow_lite/src/third_party/gemmlowp/fixedpoint\fixedpoint.h **** 
 136:C:/Renesas/e2studio_2021_01_workspace_RZA2M_ANPR/ANPR_RZA2M_GR_MANGO/src/tensorflow_lite/src/third_party/gemmlowp/fixedpoint\fixedpoint.h **** // Integer arithmetic right-shift. Not rounding.
 137:C:/Renesas/e2studio_2021_01_workspace_RZA2M_ANPR/ANPR_RZA2M_GR_MANGO/src/tensorflow_lite/src/third_party/gemmlowp/fixedpoint\fixedpoint.h **** // Relying on implementation-defined, but in-practice-consistent,
 138:C:/Renesas/e2studio_2021_01_workspace_RZA2M_ANPR/ANPR_RZA2M_GR_MANGO/src/tensorflow_lite/src/third_party/gemmlowp/fixedpoint\fixedpoint.h **** // C++ compiler behavior.
 139:C:/Renesas/e2studio_2021_01_workspace_RZA2M_ANPR/ANPR_RZA2M_GR_MANGO/src/tensorflow_lite/src/third_party/gemmlowp/fixedpoint\fixedpoint.h **** template <typename tIntegerType>
 140:C:/Renesas/e2studio_2021_01_workspace_RZA2M_ANPR/ANPR_RZA2M_GR_MANGO/src/tensorflow_lite/src/third_party/gemmlowp/fixedpoint\fixedpoint.h **** tIntegerType ShiftRight(tIntegerType a, int offset) {
 141:C:/Renesas/e2studio_2021_01_workspace_RZA2M_ANPR/ANPR_RZA2M_GR_MANGO/src/tensorflow_lite/src/third_party/gemmlowp/fixedpoint\fixedpoint.h ****   return a >> offset;
 142:C:/Renesas/e2studio_2021_01_workspace_RZA2M_ANPR/ANPR_RZA2M_GR_MANGO/src/tensorflow_lite/src/third_party/gemmlowp/fixedpoint\fixedpoint.h **** }
 143:C:/Renesas/e2studio_2021_01_workspace_RZA2M_ANPR/ANPR_RZA2M_GR_MANGO/src/tensorflow_lite/src/third_party/gemmlowp/fixedpoint\fixedpoint.h **** 
 144:C:/Renesas/e2studio_2021_01_workspace_RZA2M_ANPR/ANPR_RZA2M_GR_MANGO/src/tensorflow_lite/src/third_party/gemmlowp/fixedpoint\fixedpoint.h **** // Each bit of the result is set to the corresponding bit of either then_val or
 145:C:/Renesas/e2studio_2021_01_workspace_RZA2M_ANPR/ANPR_RZA2M_GR_MANGO/src/tensorflow_lite/src/third_party/gemmlowp/fixedpoint\fixedpoint.h **** // else_val depending on whether the corresponding bit of if_mask is set.
 146:C:/Renesas/e2studio_2021_01_workspace_RZA2M_ANPR/ANPR_RZA2M_GR_MANGO/src/tensorflow_lite/src/third_party/gemmlowp/fixedpoint\fixedpoint.h **** // Equivalent to the VBSL instruction in ARM NEON.
 147:C:/Renesas/e2studio_2021_01_workspace_RZA2M_ANPR/ANPR_RZA2M_GR_MANGO/src/tensorflow_lite/src/third_party/gemmlowp/fixedpoint\fixedpoint.h **** template <typename tIntegerType>
 148:C:/Renesas/e2studio_2021_01_workspace_RZA2M_ANPR/ANPR_RZA2M_GR_MANGO/src/tensorflow_lite/src/third_party/gemmlowp/fixedpoint\fixedpoint.h **** tIntegerType SelectUsingMask(tIntegerType if_mask, tIntegerType then_val,
 149:C:/Renesas/e2studio_2021_01_workspace_RZA2M_ANPR/ANPR_RZA2M_GR_MANGO/src/tensorflow_lite/src/third_party/gemmlowp/fixedpoint\fixedpoint.h ****                              tIntegerType else_val) {
 150:C:/Renesas/e2studio_2021_01_workspace_RZA2M_ANPR/ANPR_RZA2M_GR_MANGO/src/tensorflow_lite/src/third_party/gemmlowp/fixedpoint\fixedpoint.h ****   return BitXor(BitAnd(if_mask, then_val), BitAnd(BitNot(if_mask), else_val));
 151:C:/Renesas/e2studio_2021_01_workspace_RZA2M_ANPR/ANPR_RZA2M_GR_MANGO/src/tensorflow_lite/src/third_party/gemmlowp/fixedpoint\fixedpoint.h **** }
 152:C:/Renesas/e2studio_2021_01_workspace_RZA2M_ANPR/ANPR_RZA2M_GR_MANGO/src/tensorflow_lite/src/third_party/gemmlowp/fixedpoint\fixedpoint.h **** 
 153:C:/Renesas/e2studio_2021_01_workspace_RZA2M_ANPR/ANPR_RZA2M_GR_MANGO/src/tensorflow_lite/src/third_party/gemmlowp/fixedpoint\fixedpoint.h **** // For each input scalar, the corresponding bits of the result are set if the
 154:C:/Renesas/e2studio_2021_01_workspace_RZA2M_ANPR/ANPR_RZA2M_GR_MANGO/src/tensorflow_lite/src/third_party/gemmlowp/fixedpoint\fixedpoint.h **** // input scalar is non-zero.
 155:C:/Renesas/e2studio_2021_01_workspace_RZA2M_ANPR/ANPR_RZA2M_GR_MANGO/src/tensorflow_lite/src/third_party/gemmlowp/fixedpoint\fixedpoint.h **** template <typename tIntegerType>
 156:C:/Renesas/e2studio_2021_01_workspace_RZA2M_ANPR/ANPR_RZA2M_GR_MANGO/src/tensorflow_lite/src/third_party/gemmlowp/fixedpoint\fixedpoint.h **** tIntegerType MaskIfNonZero(tIntegerType a) {
 157:C:/Renesas/e2studio_2021_01_workspace_RZA2M_ANPR/ANPR_RZA2M_GR_MANGO/src/tensorflow_lite/src/third_party/gemmlowp/fixedpoint\fixedpoint.h ****   static constexpr tIntegerType zero = 0;
 158:C:/Renesas/e2studio_2021_01_workspace_RZA2M_ANPR/ANPR_RZA2M_GR_MANGO/src/tensorflow_lite/src/third_party/gemmlowp/fixedpoint\fixedpoint.h ****   return a ? BitNot(zero) : zero;
 159:C:/Renesas/e2studio_2021_01_workspace_RZA2M_ANPR/ANPR_RZA2M_GR_MANGO/src/tensorflow_lite/src/third_party/gemmlowp/fixedpoint\fixedpoint.h **** }
 160:C:/Renesas/e2studio_2021_01_workspace_RZA2M_ANPR/ANPR_RZA2M_GR_MANGO/src/tensorflow_lite/src/third_party/gemmlowp/fixedpoint\fixedpoint.h **** 
 161:C:/Renesas/e2studio_2021_01_workspace_RZA2M_ANPR/ANPR_RZA2M_GR_MANGO/src/tensorflow_lite/src/third_party/gemmlowp/fixedpoint\fixedpoint.h **** // For each input scalar, the corresponding bits of the result are set if the
 162:C:/Renesas/e2studio_2021_01_workspace_RZA2M_ANPR/ANPR_RZA2M_GR_MANGO/src/tensorflow_lite/src/third_party/gemmlowp/fixedpoint\fixedpoint.h **** // input scalar is zero.
 163:C:/Renesas/e2studio_2021_01_workspace_RZA2M_ANPR/ANPR_RZA2M_GR_MANGO/src/tensorflow_lite/src/third_party/gemmlowp/fixedpoint\fixedpoint.h **** template <typename tIntegerType>
 164:C:/Renesas/e2studio_2021_01_workspace_RZA2M_ANPR/ANPR_RZA2M_GR_MANGO/src/tensorflow_lite/src/third_party/gemmlowp/fixedpoint\fixedpoint.h **** tIntegerType MaskIfZero(tIntegerType a) {
 165:C:/Renesas/e2studio_2021_01_workspace_RZA2M_ANPR/ANPR_RZA2M_GR_MANGO/src/tensorflow_lite/src/third_party/gemmlowp/fixedpoint\fixedpoint.h ****   return MaskIfNonZero<tIntegerType>(!a);
 166:C:/Renesas/e2studio_2021_01_workspace_RZA2M_ANPR/ANPR_RZA2M_GR_MANGO/src/tensorflow_lite/src/third_party/gemmlowp/fixedpoint\fixedpoint.h **** }
 167:C:/Renesas/e2studio_2021_01_workspace_RZA2M_ANPR/ANPR_RZA2M_GR_MANGO/src/tensorflow_lite/src/third_party/gemmlowp/fixedpoint\fixedpoint.h **** 
 168:C:/Renesas/e2studio_2021_01_workspace_RZA2M_ANPR/ANPR_RZA2M_GR_MANGO/src/tensorflow_lite/src/third_party/gemmlowp/fixedpoint\fixedpoint.h **** // For each pair of input scalars, the corresponding bits of the result are
 169:C:/Renesas/e2studio_2021_01_workspace_RZA2M_ANPR/ANPR_RZA2M_GR_MANGO/src/tensorflow_lite/src/third_party/gemmlowp/fixedpoint\fixedpoint.h **** // set if the input scalars are equal.
 170:C:/Renesas/e2studio_2021_01_workspace_RZA2M_ANPR/ANPR_RZA2M_GR_MANGO/src/tensorflow_lite/src/third_party/gemmlowp/fixedpoint\fixedpoint.h **** template <typename tIntegerType>
 171:C:/Renesas/e2studio_2021_01_workspace_RZA2M_ANPR/ANPR_RZA2M_GR_MANGO/src/tensorflow_lite/src/third_party/gemmlowp/fixedpoint\fixedpoint.h **** tIntegerType MaskIfEqual(tIntegerType a, tIntegerType b) {
 172:C:/Renesas/e2studio_2021_01_workspace_RZA2M_ANPR/ANPR_RZA2M_GR_MANGO/src/tensorflow_lite/src/third_party/gemmlowp/fixedpoint\fixedpoint.h ****   return MaskIfNonZero<tIntegerType>(a == b);
 173:C:/Renesas/e2studio_2021_01_workspace_RZA2M_ANPR/ANPR_RZA2M_GR_MANGO/src/tensorflow_lite/src/third_party/gemmlowp/fixedpoint\fixedpoint.h **** }
 174:C:/Renesas/e2studio_2021_01_workspace_RZA2M_ANPR/ANPR_RZA2M_GR_MANGO/src/tensorflow_lite/src/third_party/gemmlowp/fixedpoint\fixedpoint.h **** 
 175:C:/Renesas/e2studio_2021_01_workspace_RZA2M_ANPR/ANPR_RZA2M_GR_MANGO/src/tensorflow_lite/src/third_party/gemmlowp/fixedpoint\fixedpoint.h **** // For each pair of input scalars, the corresponding bits of the result are
 176:C:/Renesas/e2studio_2021_01_workspace_RZA2M_ANPR/ANPR_RZA2M_GR_MANGO/src/tensorflow_lite/src/third_party/gemmlowp/fixedpoint\fixedpoint.h **** // set if the input scalars are not equal.
 177:C:/Renesas/e2studio_2021_01_workspace_RZA2M_ANPR/ANPR_RZA2M_GR_MANGO/src/tensorflow_lite/src/third_party/gemmlowp/fixedpoint\fixedpoint.h **** template <typename tIntegerType>
 178:C:/Renesas/e2studio_2021_01_workspace_RZA2M_ANPR/ANPR_RZA2M_GR_MANGO/src/tensorflow_lite/src/third_party/gemmlowp/fixedpoint\fixedpoint.h **** tIntegerType MaskIfNotEqual(tIntegerType a, tIntegerType b) {
 179:C:/Renesas/e2studio_2021_01_workspace_RZA2M_ANPR/ANPR_RZA2M_GR_MANGO/src/tensorflow_lite/src/third_party/gemmlowp/fixedpoint\fixedpoint.h ****   return MaskIfNonZero<tIntegerType>(a != b);
 180:C:/Renesas/e2studio_2021_01_workspace_RZA2M_ANPR/ANPR_RZA2M_GR_MANGO/src/tensorflow_lite/src/third_party/gemmlowp/fixedpoint\fixedpoint.h **** }
 181:C:/Renesas/e2studio_2021_01_workspace_RZA2M_ANPR/ANPR_RZA2M_GR_MANGO/src/tensorflow_lite/src/third_party/gemmlowp/fixedpoint\fixedpoint.h **** 
 182:C:/Renesas/e2studio_2021_01_workspace_RZA2M_ANPR/ANPR_RZA2M_GR_MANGO/src/tensorflow_lite/src/third_party/gemmlowp/fixedpoint\fixedpoint.h **** // For each pair of input scalars, the corresponding bits of the result are
 183:C:/Renesas/e2studio_2021_01_workspace_RZA2M_ANPR/ANPR_RZA2M_GR_MANGO/src/tensorflow_lite/src/third_party/gemmlowp/fixedpoint\fixedpoint.h **** // set if the input scalars a, b satisfy a > b.
 184:C:/Renesas/e2studio_2021_01_workspace_RZA2M_ANPR/ANPR_RZA2M_GR_MANGO/src/tensorflow_lite/src/third_party/gemmlowp/fixedpoint\fixedpoint.h **** template <typename tIntegerType>
 185:C:/Renesas/e2studio_2021_01_workspace_RZA2M_ANPR/ANPR_RZA2M_GR_MANGO/src/tensorflow_lite/src/third_party/gemmlowp/fixedpoint\fixedpoint.h **** tIntegerType MaskIfGreaterThan(tIntegerType a, tIntegerType b) {
 186:C:/Renesas/e2studio_2021_01_workspace_RZA2M_ANPR/ANPR_RZA2M_GR_MANGO/src/tensorflow_lite/src/third_party/gemmlowp/fixedpoint\fixedpoint.h ****   return MaskIfNonZero<tIntegerType>(a > b);
 187:C:/Renesas/e2studio_2021_01_workspace_RZA2M_ANPR/ANPR_RZA2M_GR_MANGO/src/tensorflow_lite/src/third_party/gemmlowp/fixedpoint\fixedpoint.h **** }
 188:C:/Renesas/e2studio_2021_01_workspace_RZA2M_ANPR/ANPR_RZA2M_GR_MANGO/src/tensorflow_lite/src/third_party/gemmlowp/fixedpoint\fixedpoint.h **** 
 189:C:/Renesas/e2studio_2021_01_workspace_RZA2M_ANPR/ANPR_RZA2M_GR_MANGO/src/tensorflow_lite/src/third_party/gemmlowp/fixedpoint\fixedpoint.h **** // For each pair of input scalars, the corresponding bits of the result are
 190:C:/Renesas/e2studio_2021_01_workspace_RZA2M_ANPR/ANPR_RZA2M_GR_MANGO/src/tensorflow_lite/src/third_party/gemmlowp/fixedpoint\fixedpoint.h **** // set if the input scalars a, b satisfy a >= b.
 191:C:/Renesas/e2studio_2021_01_workspace_RZA2M_ANPR/ANPR_RZA2M_GR_MANGO/src/tensorflow_lite/src/third_party/gemmlowp/fixedpoint\fixedpoint.h **** template <typename tIntegerType>
 192:C:/Renesas/e2studio_2021_01_workspace_RZA2M_ANPR/ANPR_RZA2M_GR_MANGO/src/tensorflow_lite/src/third_party/gemmlowp/fixedpoint\fixedpoint.h **** tIntegerType MaskIfGreaterThanOrEqual(tIntegerType a, tIntegerType b) {
 193:C:/Renesas/e2studio_2021_01_workspace_RZA2M_ANPR/ANPR_RZA2M_GR_MANGO/src/tensorflow_lite/src/third_party/gemmlowp/fixedpoint\fixedpoint.h ****   return MaskIfNonZero<tIntegerType>(a >= b);
 194:C:/Renesas/e2studio_2021_01_workspace_RZA2M_ANPR/ANPR_RZA2M_GR_MANGO/src/tensorflow_lite/src/third_party/gemmlowp/fixedpoint\fixedpoint.h **** }
 195:C:/Renesas/e2studio_2021_01_workspace_RZA2M_ANPR/ANPR_RZA2M_GR_MANGO/src/tensorflow_lite/src/third_party/gemmlowp/fixedpoint\fixedpoint.h **** 
 196:C:/Renesas/e2studio_2021_01_workspace_RZA2M_ANPR/ANPR_RZA2M_GR_MANGO/src/tensorflow_lite/src/third_party/gemmlowp/fixedpoint\fixedpoint.h **** // For each pair of input scalars, the corresponding bits of the result are
 197:C:/Renesas/e2studio_2021_01_workspace_RZA2M_ANPR/ANPR_RZA2M_GR_MANGO/src/tensorflow_lite/src/third_party/gemmlowp/fixedpoint\fixedpoint.h **** // set if the input scalars a, b satisfy a < b.
 198:C:/Renesas/e2studio_2021_01_workspace_RZA2M_ANPR/ANPR_RZA2M_GR_MANGO/src/tensorflow_lite/src/third_party/gemmlowp/fixedpoint\fixedpoint.h **** template <typename tIntegerType>
 199:C:/Renesas/e2studio_2021_01_workspace_RZA2M_ANPR/ANPR_RZA2M_GR_MANGO/src/tensorflow_lite/src/third_party/gemmlowp/fixedpoint\fixedpoint.h **** tIntegerType MaskIfLessThan(tIntegerType a, tIntegerType b) {
 200:C:/Renesas/e2studio_2021_01_workspace_RZA2M_ANPR/ANPR_RZA2M_GR_MANGO/src/tensorflow_lite/src/third_party/gemmlowp/fixedpoint\fixedpoint.h ****   return MaskIfNonZero<tIntegerType>(a < b);
 201:C:/Renesas/e2studio_2021_01_workspace_RZA2M_ANPR/ANPR_RZA2M_GR_MANGO/src/tensorflow_lite/src/third_party/gemmlowp/fixedpoint\fixedpoint.h **** }
 202:C:/Renesas/e2studio_2021_01_workspace_RZA2M_ANPR/ANPR_RZA2M_GR_MANGO/src/tensorflow_lite/src/third_party/gemmlowp/fixedpoint\fixedpoint.h **** 
 203:C:/Renesas/e2studio_2021_01_workspace_RZA2M_ANPR/ANPR_RZA2M_GR_MANGO/src/tensorflow_lite/src/third_party/gemmlowp/fixedpoint\fixedpoint.h **** // For each pair of input scalars, the corresponding bits of the result are
 204:C:/Renesas/e2studio_2021_01_workspace_RZA2M_ANPR/ANPR_RZA2M_GR_MANGO/src/tensorflow_lite/src/third_party/gemmlowp/fixedpoint\fixedpoint.h **** // set if the input scalars a, b satisfy a <= b.
 205:C:/Renesas/e2studio_2021_01_workspace_RZA2M_ANPR/ANPR_RZA2M_GR_MANGO/src/tensorflow_lite/src/third_party/gemmlowp/fixedpoint\fixedpoint.h **** template <typename tIntegerType>
 206:C:/Renesas/e2studio_2021_01_workspace_RZA2M_ANPR/ANPR_RZA2M_GR_MANGO/src/tensorflow_lite/src/third_party/gemmlowp/fixedpoint\fixedpoint.h **** tIntegerType MaskIfLessThanOrEqual(tIntegerType a, tIntegerType b) {
 207:C:/Renesas/e2studio_2021_01_workspace_RZA2M_ANPR/ANPR_RZA2M_GR_MANGO/src/tensorflow_lite/src/third_party/gemmlowp/fixedpoint\fixedpoint.h ****   return MaskIfNonZero<tIntegerType>(a <= b);
 208:C:/Renesas/e2studio_2021_01_workspace_RZA2M_ANPR/ANPR_RZA2M_GR_MANGO/src/tensorflow_lite/src/third_party/gemmlowp/fixedpoint\fixedpoint.h **** }
 209:C:/Renesas/e2studio_2021_01_workspace_RZA2M_ANPR/ANPR_RZA2M_GR_MANGO/src/tensorflow_lite/src/third_party/gemmlowp/fixedpoint\fixedpoint.h **** 
 210:C:/Renesas/e2studio_2021_01_workspace_RZA2M_ANPR/ANPR_RZA2M_GR_MANGO/src/tensorflow_lite/src/third_party/gemmlowp/fixedpoint\fixedpoint.h **** // Returns true if all of the input scalars are nonzero.
 211:C:/Renesas/e2studio_2021_01_workspace_RZA2M_ANPR/ANPR_RZA2M_GR_MANGO/src/tensorflow_lite/src/third_party/gemmlowp/fixedpoint\fixedpoint.h **** // This function may currently assume that each of the input scalars has either
 212:C:/Renesas/e2studio_2021_01_workspace_RZA2M_ANPR/ANPR_RZA2M_GR_MANGO/src/tensorflow_lite/src/third_party/gemmlowp/fixedpoint\fixedpoint.h **** // all or none of its bits set. Otherwise, its behavior is currently undefined.
 213:C:/Renesas/e2studio_2021_01_workspace_RZA2M_ANPR/ANPR_RZA2M_GR_MANGO/src/tensorflow_lite/src/third_party/gemmlowp/fixedpoint\fixedpoint.h **** template <typename tIntegerType>
 214:C:/Renesas/e2studio_2021_01_workspace_RZA2M_ANPR/ANPR_RZA2M_GR_MANGO/src/tensorflow_lite/src/third_party/gemmlowp/fixedpoint\fixedpoint.h **** bool All(tIntegerType a) {
 215:C:/Renesas/e2studio_2021_01_workspace_RZA2M_ANPR/ANPR_RZA2M_GR_MANGO/src/tensorflow_lite/src/third_party/gemmlowp/fixedpoint\fixedpoint.h ****   return a;
 216:C:/Renesas/e2studio_2021_01_workspace_RZA2M_ANPR/ANPR_RZA2M_GR_MANGO/src/tensorflow_lite/src/third_party/gemmlowp/fixedpoint\fixedpoint.h **** }
 217:C:/Renesas/e2studio_2021_01_workspace_RZA2M_ANPR/ANPR_RZA2M_GR_MANGO/src/tensorflow_lite/src/third_party/gemmlowp/fixedpoint\fixedpoint.h **** 
 218:C:/Renesas/e2studio_2021_01_workspace_RZA2M_ANPR/ANPR_RZA2M_GR_MANGO/src/tensorflow_lite/src/third_party/gemmlowp/fixedpoint\fixedpoint.h **** // Returns true if any of the input scalars are nonzero.
 219:C:/Renesas/e2studio_2021_01_workspace_RZA2M_ANPR/ANPR_RZA2M_GR_MANGO/src/tensorflow_lite/src/third_party/gemmlowp/fixedpoint\fixedpoint.h **** // This function may currently assume that each of the input scalars has either
 220:C:/Renesas/e2studio_2021_01_workspace_RZA2M_ANPR/ANPR_RZA2M_GR_MANGO/src/tensorflow_lite/src/third_party/gemmlowp/fixedpoint\fixedpoint.h **** // all or none of its bits set. Otherwise, its behavior is currently undefined.
 221:C:/Renesas/e2studio_2021_01_workspace_RZA2M_ANPR/ANPR_RZA2M_GR_MANGO/src/tensorflow_lite/src/third_party/gemmlowp/fixedpoint\fixedpoint.h **** template <typename tIntegerType>
 222:C:/Renesas/e2studio_2021_01_workspace_RZA2M_ANPR/ANPR_RZA2M_GR_MANGO/src/tensorflow_lite/src/third_party/gemmlowp/fixedpoint\fixedpoint.h **** bool Any(tIntegerType a) {
 223:C:/Renesas/e2studio_2021_01_workspace_RZA2M_ANPR/ANPR_RZA2M_GR_MANGO/src/tensorflow_lite/src/third_party/gemmlowp/fixedpoint\fixedpoint.h ****   return a;
 224:C:/Renesas/e2studio_2021_01_workspace_RZA2M_ANPR/ANPR_RZA2M_GR_MANGO/src/tensorflow_lite/src/third_party/gemmlowp/fixedpoint\fixedpoint.h **** }
 225:C:/Renesas/e2studio_2021_01_workspace_RZA2M_ANPR/ANPR_RZA2M_GR_MANGO/src/tensorflow_lite/src/third_party/gemmlowp/fixedpoint\fixedpoint.h **** 
 226:C:/Renesas/e2studio_2021_01_workspace_RZA2M_ANPR/ANPR_RZA2M_GR_MANGO/src/tensorflow_lite/src/third_party/gemmlowp/fixedpoint\fixedpoint.h **** // Returns (a+b)/2, rounded to the nearest integer.
 227:C:/Renesas/e2studio_2021_01_workspace_RZA2M_ANPR/ANPR_RZA2M_GR_MANGO/src/tensorflow_lite/src/third_party/gemmlowp/fixedpoint\fixedpoint.h **** // Equivalent to VRHADD in the ARM NEON instruction set.
 228:C:/Renesas/e2studio_2021_01_workspace_RZA2M_ANPR/ANPR_RZA2M_GR_MANGO/src/tensorflow_lite/src/third_party/gemmlowp/fixedpoint\fixedpoint.h **** template <typename IntegerType>
 229:C:/Renesas/e2studio_2021_01_workspace_RZA2M_ANPR/ANPR_RZA2M_GR_MANGO/src/tensorflow_lite/src/third_party/gemmlowp/fixedpoint\fixedpoint.h **** IntegerType RoundingHalfSum(IntegerType a, IntegerType b) {
 230:C:/Renesas/e2studio_2021_01_workspace_RZA2M_ANPR/ANPR_RZA2M_GR_MANGO/src/tensorflow_lite/src/third_party/gemmlowp/fixedpoint\fixedpoint.h ****   static_assert(std::is_same<IntegerType, void>::value, "unimplemented");
 231:C:/Renesas/e2studio_2021_01_workspace_RZA2M_ANPR/ANPR_RZA2M_GR_MANGO/src/tensorflow_lite/src/third_party/gemmlowp/fixedpoint\fixedpoint.h ****   (void)b;
 232:C:/Renesas/e2studio_2021_01_workspace_RZA2M_ANPR/ANPR_RZA2M_GR_MANGO/src/tensorflow_lite/src/third_party/gemmlowp/fixedpoint\fixedpoint.h ****   return a;
 233:C:/Renesas/e2studio_2021_01_workspace_RZA2M_ANPR/ANPR_RZA2M_GR_MANGO/src/tensorflow_lite/src/third_party/gemmlowp/fixedpoint\fixedpoint.h **** }
 234:C:/Renesas/e2studio_2021_01_workspace_RZA2M_ANPR/ANPR_RZA2M_GR_MANGO/src/tensorflow_lite/src/third_party/gemmlowp/fixedpoint\fixedpoint.h **** 
 235:C:/Renesas/e2studio_2021_01_workspace_RZA2M_ANPR/ANPR_RZA2M_GR_MANGO/src/tensorflow_lite/src/third_party/gemmlowp/fixedpoint\fixedpoint.h **** template <>
 236:C:/Renesas/e2studio_2021_01_workspace_RZA2M_ANPR/ANPR_RZA2M_GR_MANGO/src/tensorflow_lite/src/third_party/gemmlowp/fixedpoint\fixedpoint.h **** inline std::int32_t RoundingHalfSum(std::int32_t a, std::int32_t b) {
 237:C:/Renesas/e2studio_2021_01_workspace_RZA2M_ANPR/ANPR_RZA2M_GR_MANGO/src/tensorflow_lite/src/third_party/gemmlowp/fixedpoint\fixedpoint.h ****   std::int64_t a64 = a;
 238:C:/Renesas/e2studio_2021_01_workspace_RZA2M_ANPR/ANPR_RZA2M_GR_MANGO/src/tensorflow_lite/src/third_party/gemmlowp/fixedpoint\fixedpoint.h ****   std::int64_t b64 = b;
 239:C:/Renesas/e2studio_2021_01_workspace_RZA2M_ANPR/ANPR_RZA2M_GR_MANGO/src/tensorflow_lite/src/third_party/gemmlowp/fixedpoint\fixedpoint.h ****   std::int64_t sum = a64 + b64;
 240:C:/Renesas/e2studio_2021_01_workspace_RZA2M_ANPR/ANPR_RZA2M_GR_MANGO/src/tensorflow_lite/src/third_party/gemmlowp/fixedpoint\fixedpoint.h ****   std::int64_t sign = sum >= 0 ? 1 : -1;
 241:C:/Renesas/e2studio_2021_01_workspace_RZA2M_ANPR/ANPR_RZA2M_GR_MANGO/src/tensorflow_lite/src/third_party/gemmlowp/fixedpoint\fixedpoint.h ****   return static_cast<std::int32_t>((sum + sign) / 2);
 242:C:/Renesas/e2studio_2021_01_workspace_RZA2M_ANPR/ANPR_RZA2M_GR_MANGO/src/tensorflow_lite/src/third_party/gemmlowp/fixedpoint\fixedpoint.h **** }
 243:C:/Renesas/e2studio_2021_01_workspace_RZA2M_ANPR/ANPR_RZA2M_GR_MANGO/src/tensorflow_lite/src/third_party/gemmlowp/fixedpoint\fixedpoint.h **** 
 244:C:/Renesas/e2studio_2021_01_workspace_RZA2M_ANPR/ANPR_RZA2M_GR_MANGO/src/tensorflow_lite/src/third_party/gemmlowp/fixedpoint\fixedpoint.h **** template <>
 245:C:/Renesas/e2studio_2021_01_workspace_RZA2M_ANPR/ANPR_RZA2M_GR_MANGO/src/tensorflow_lite/src/third_party/gemmlowp/fixedpoint\fixedpoint.h **** inline std::int16_t RoundingHalfSum(std::int16_t a, std::int16_t b) {
 246:C:/Renesas/e2studio_2021_01_workspace_RZA2M_ANPR/ANPR_RZA2M_GR_MANGO/src/tensorflow_lite/src/third_party/gemmlowp/fixedpoint\fixedpoint.h ****   std::int32_t a32 = a;
 247:C:/Renesas/e2studio_2021_01_workspace_RZA2M_ANPR/ANPR_RZA2M_GR_MANGO/src/tensorflow_lite/src/third_party/gemmlowp/fixedpoint\fixedpoint.h ****   std::int32_t b32 = b;
 248:C:/Renesas/e2studio_2021_01_workspace_RZA2M_ANPR/ANPR_RZA2M_GR_MANGO/src/tensorflow_lite/src/third_party/gemmlowp/fixedpoint\fixedpoint.h ****   std::int32_t sum = a32 + b32;
 249:C:/Renesas/e2studio_2021_01_workspace_RZA2M_ANPR/ANPR_RZA2M_GR_MANGO/src/tensorflow_lite/src/third_party/gemmlowp/fixedpoint\fixedpoint.h ****   std::int32_t sign = sum >= 0 ? 1 : -1;
 250:C:/Renesas/e2studio_2021_01_workspace_RZA2M_ANPR/ANPR_RZA2M_GR_MANGO/src/tensorflow_lite/src/third_party/gemmlowp/fixedpoint\fixedpoint.h ****   return static_cast<std::int16_t>((sum + sign) / 2);
 251:C:/Renesas/e2studio_2021_01_workspace_RZA2M_ANPR/ANPR_RZA2M_GR_MANGO/src/tensorflow_lite/src/third_party/gemmlowp/fixedpoint\fixedpoint.h **** }
 252:C:/Renesas/e2studio_2021_01_workspace_RZA2M_ANPR/ANPR_RZA2M_GR_MANGO/src/tensorflow_lite/src/third_party/gemmlowp/fixedpoint\fixedpoint.h **** 
 253:C:/Renesas/e2studio_2021_01_workspace_RZA2M_ANPR/ANPR_RZA2M_GR_MANGO/src/tensorflow_lite/src/third_party/gemmlowp/fixedpoint\fixedpoint.h **** template <typename IntegerType>
 254:C:/Renesas/e2studio_2021_01_workspace_RZA2M_ANPR/ANPR_RZA2M_GR_MANGO/src/tensorflow_lite/src/third_party/gemmlowp/fixedpoint\fixedpoint.h **** IntegerType SaturatingAdd(IntegerType a, IntegerType b) {
 255:C:/Renesas/e2studio_2021_01_workspace_RZA2M_ANPR/ANPR_RZA2M_GR_MANGO/src/tensorflow_lite/src/third_party/gemmlowp/fixedpoint\fixedpoint.h ****   static_assert(std::is_same<IntegerType, void>::value, "unimplemented");
 256:C:/Renesas/e2studio_2021_01_workspace_RZA2M_ANPR/ANPR_RZA2M_GR_MANGO/src/tensorflow_lite/src/third_party/gemmlowp/fixedpoint\fixedpoint.h ****   (void)b;
 257:C:/Renesas/e2studio_2021_01_workspace_RZA2M_ANPR/ANPR_RZA2M_GR_MANGO/src/tensorflow_lite/src/third_party/gemmlowp/fixedpoint\fixedpoint.h ****   return a;
 258:C:/Renesas/e2studio_2021_01_workspace_RZA2M_ANPR/ANPR_RZA2M_GR_MANGO/src/tensorflow_lite/src/third_party/gemmlowp/fixedpoint\fixedpoint.h **** }
 259:C:/Renesas/e2studio_2021_01_workspace_RZA2M_ANPR/ANPR_RZA2M_GR_MANGO/src/tensorflow_lite/src/third_party/gemmlowp/fixedpoint\fixedpoint.h **** 
 260:C:/Renesas/e2studio_2021_01_workspace_RZA2M_ANPR/ANPR_RZA2M_GR_MANGO/src/tensorflow_lite/src/third_party/gemmlowp/fixedpoint\fixedpoint.h **** // So far this is only needed for int16.
 261:C:/Renesas/e2studio_2021_01_workspace_RZA2M_ANPR/ANPR_RZA2M_GR_MANGO/src/tensorflow_lite/src/third_party/gemmlowp/fixedpoint\fixedpoint.h **** template <>
 262:C:/Renesas/e2studio_2021_01_workspace_RZA2M_ANPR/ANPR_RZA2M_GR_MANGO/src/tensorflow_lite/src/third_party/gemmlowp/fixedpoint\fixedpoint.h **** inline std::int16_t SaturatingAdd(std::int16_t a, std::int16_t b) {
 263:C:/Renesas/e2studio_2021_01_workspace_RZA2M_ANPR/ANPR_RZA2M_GR_MANGO/src/tensorflow_lite/src/third_party/gemmlowp/fixedpoint\fixedpoint.h ****   std::int32_t a32 = a;
 264:C:/Renesas/e2studio_2021_01_workspace_RZA2M_ANPR/ANPR_RZA2M_GR_MANGO/src/tensorflow_lite/src/third_party/gemmlowp/fixedpoint\fixedpoint.h ****   std::int32_t b32 = b;
 265:C:/Renesas/e2studio_2021_01_workspace_RZA2M_ANPR/ANPR_RZA2M_GR_MANGO/src/tensorflow_lite/src/third_party/gemmlowp/fixedpoint\fixedpoint.h ****   std::int32_t sum = a32 + b32;
 266:C:/Renesas/e2studio_2021_01_workspace_RZA2M_ANPR/ANPR_RZA2M_GR_MANGO/src/tensorflow_lite/src/third_party/gemmlowp/fixedpoint\fixedpoint.h ****   return static_cast<std::int16_t>(
 267:C:/Renesas/e2studio_2021_01_workspace_RZA2M_ANPR/ANPR_RZA2M_GR_MANGO/src/tensorflow_lite/src/third_party/gemmlowp/fixedpoint\fixedpoint.h ****       std::min(static_cast<std::int32_t>(32767),
 268:C:/Renesas/e2studio_2021_01_workspace_RZA2M_ANPR/ANPR_RZA2M_GR_MANGO/src/tensorflow_lite/src/third_party/gemmlowp/fixedpoint\fixedpoint.h ****                std::max(static_cast<std::int32_t>(-32768), sum)));
 269:C:/Renesas/e2studio_2021_01_workspace_RZA2M_ANPR/ANPR_RZA2M_GR_MANGO/src/tensorflow_lite/src/third_party/gemmlowp/fixedpoint\fixedpoint.h **** }
 270:C:/Renesas/e2studio_2021_01_workspace_RZA2M_ANPR/ANPR_RZA2M_GR_MANGO/src/tensorflow_lite/src/third_party/gemmlowp/fixedpoint\fixedpoint.h **** 
 271:C:/Renesas/e2studio_2021_01_workspace_RZA2M_ANPR/ANPR_RZA2M_GR_MANGO/src/tensorflow_lite/src/third_party/gemmlowp/fixedpoint\fixedpoint.h **** // Returns a+b, saturating if the integers are 16bit or narrower,
 272:C:/Renesas/e2studio_2021_01_workspace_RZA2M_ANPR/ANPR_RZA2M_GR_MANGO/src/tensorflow_lite/src/third_party/gemmlowp/fixedpoint\fixedpoint.h **** // otherwise just a plain addition.
 273:C:/Renesas/e2studio_2021_01_workspace_RZA2M_ANPR/ANPR_RZA2M_GR_MANGO/src/tensorflow_lite/src/third_party/gemmlowp/fixedpoint\fixedpoint.h **** template <typename IntegerType, bool Is16Bit>
 274:C:/Renesas/e2studio_2021_01_workspace_RZA2M_ANPR/ANPR_RZA2M_GR_MANGO/src/tensorflow_lite/src/third_party/gemmlowp/fixedpoint\fixedpoint.h **** struct AddSaturatingIf16BitImpl {
 275:C:/Renesas/e2studio_2021_01_workspace_RZA2M_ANPR/ANPR_RZA2M_GR_MANGO/src/tensorflow_lite/src/third_party/gemmlowp/fixedpoint\fixedpoint.h ****   static IntegerType Run(IntegerType a, IntegerType b) { return Add(a, b); }
 276:C:/Renesas/e2studio_2021_01_workspace_RZA2M_ANPR/ANPR_RZA2M_GR_MANGO/src/tensorflow_lite/src/third_party/gemmlowp/fixedpoint\fixedpoint.h **** };
 277:C:/Renesas/e2studio_2021_01_workspace_RZA2M_ANPR/ANPR_RZA2M_GR_MANGO/src/tensorflow_lite/src/third_party/gemmlowp/fixedpoint\fixedpoint.h **** template <typename IntegerType>
 278:C:/Renesas/e2studio_2021_01_workspace_RZA2M_ANPR/ANPR_RZA2M_GR_MANGO/src/tensorflow_lite/src/third_party/gemmlowp/fixedpoint\fixedpoint.h **** struct AddSaturatingIf16BitImpl<IntegerType, true> {
 279:C:/Renesas/e2studio_2021_01_workspace_RZA2M_ANPR/ANPR_RZA2M_GR_MANGO/src/tensorflow_lite/src/third_party/gemmlowp/fixedpoint\fixedpoint.h ****   static IntegerType Run(IntegerType a, IntegerType b) {
 280:C:/Renesas/e2studio_2021_01_workspace_RZA2M_ANPR/ANPR_RZA2M_GR_MANGO/src/tensorflow_lite/src/third_party/gemmlowp/fixedpoint\fixedpoint.h ****     return SaturatingAdd(a, b);
 281:C:/Renesas/e2studio_2021_01_workspace_RZA2M_ANPR/ANPR_RZA2M_GR_MANGO/src/tensorflow_lite/src/third_party/gemmlowp/fixedpoint\fixedpoint.h ****   }
 282:C:/Renesas/e2studio_2021_01_workspace_RZA2M_ANPR/ANPR_RZA2M_GR_MANGO/src/tensorflow_lite/src/third_party/gemmlowp/fixedpoint\fixedpoint.h **** };
 283:C:/Renesas/e2studio_2021_01_workspace_RZA2M_ANPR/ANPR_RZA2M_GR_MANGO/src/tensorflow_lite/src/third_party/gemmlowp/fixedpoint\fixedpoint.h **** template <typename IntegerType>
 284:C:/Renesas/e2studio_2021_01_workspace_RZA2M_ANPR/ANPR_RZA2M_GR_MANGO/src/tensorflow_lite/src/third_party/gemmlowp/fixedpoint\fixedpoint.h **** IntegerType AddSaturatingIf16Bit(IntegerType a, IntegerType b) {
 285:C:/Renesas/e2studio_2021_01_workspace_RZA2M_ANPR/ANPR_RZA2M_GR_MANGO/src/tensorflow_lite/src/third_party/gemmlowp/fixedpoint\fixedpoint.h ****   using ScalarType =
 286:C:/Renesas/e2studio_2021_01_workspace_RZA2M_ANPR/ANPR_RZA2M_GR_MANGO/src/tensorflow_lite/src/third_party/gemmlowp/fixedpoint\fixedpoint.h ****       typename FixedPointRawTypeTraits<IntegerType>::ScalarRawType;
 287:C:/Renesas/e2studio_2021_01_workspace_RZA2M_ANPR/ANPR_RZA2M_GR_MANGO/src/tensorflow_lite/src/third_party/gemmlowp/fixedpoint\fixedpoint.h ****   return AddSaturatingIf16BitImpl<IntegerType, sizeof(ScalarType) == 2>::Run(a,
 288:C:/Renesas/e2studio_2021_01_workspace_RZA2M_ANPR/ANPR_RZA2M_GR_MANGO/src/tensorflow_lite/src/third_party/gemmlowp/fixedpoint\fixedpoint.h ****                                                                              b);
 289:C:/Renesas/e2studio_2021_01_workspace_RZA2M_ANPR/ANPR_RZA2M_GR_MANGO/src/tensorflow_lite/src/third_party/gemmlowp/fixedpoint\fixedpoint.h **** }
 290:C:/Renesas/e2studio_2021_01_workspace_RZA2M_ANPR/ANPR_RZA2M_GR_MANGO/src/tensorflow_lite/src/third_party/gemmlowp/fixedpoint\fixedpoint.h **** 
 291:C:/Renesas/e2studio_2021_01_workspace_RZA2M_ANPR/ANPR_RZA2M_GR_MANGO/src/tensorflow_lite/src/third_party/gemmlowp/fixedpoint\fixedpoint.h **** // Returns the integer that represents the product of two fixed-point
 292:C:/Renesas/e2studio_2021_01_workspace_RZA2M_ANPR/ANPR_RZA2M_GR_MANGO/src/tensorflow_lite/src/third_party/gemmlowp/fixedpoint\fixedpoint.h **** // numbers, interpreting all integers as fixed-point values in the
 293:C:/Renesas/e2studio_2021_01_workspace_RZA2M_ANPR/ANPR_RZA2M_GR_MANGO/src/tensorflow_lite/src/third_party/gemmlowp/fixedpoint\fixedpoint.h **** // interval [-1, 1), rounding to the nearest value, and saturating
 294:C:/Renesas/e2studio_2021_01_workspace_RZA2M_ANPR/ANPR_RZA2M_GR_MANGO/src/tensorflow_lite/src/third_party/gemmlowp/fixedpoint\fixedpoint.h **** // -1 * -1 to the maximum value (since 1 is not in the half-open
 295:C:/Renesas/e2studio_2021_01_workspace_RZA2M_ANPR/ANPR_RZA2M_GR_MANGO/src/tensorflow_lite/src/third_party/gemmlowp/fixedpoint\fixedpoint.h **** // interval [-1, 1)).
 296:C:/Renesas/e2studio_2021_01_workspace_RZA2M_ANPR/ANPR_RZA2M_GR_MANGO/src/tensorflow_lite/src/third_party/gemmlowp/fixedpoint\fixedpoint.h **** //
 297:C:/Renesas/e2studio_2021_01_workspace_RZA2M_ANPR/ANPR_RZA2M_GR_MANGO/src/tensorflow_lite/src/third_party/gemmlowp/fixedpoint\fixedpoint.h **** // [The explanation below specializes to std::int32_t for example purpose.]
 298:C:/Renesas/e2studio_2021_01_workspace_RZA2M_ANPR/ANPR_RZA2M_GR_MANGO/src/tensorflow_lite/src/third_party/gemmlowp/fixedpoint\fixedpoint.h **** //
 299:C:/Renesas/e2studio_2021_01_workspace_RZA2M_ANPR/ANPR_RZA2M_GR_MANGO/src/tensorflow_lite/src/third_party/gemmlowp/fixedpoint\fixedpoint.h **** // The mapping between IntegerType and the interval [-1, 1) is unique and
 300:C:/Renesas/e2studio_2021_01_workspace_RZA2M_ANPR/ANPR_RZA2M_GR_MANGO/src/tensorflow_lite/src/third_party/gemmlowp/fixedpoint\fixedpoint.h **** // implied by IntegerType, which is assumed to be signed. For example,
 301:C:/Renesas/e2studio_2021_01_workspace_RZA2M_ANPR/ANPR_RZA2M_GR_MANGO/src/tensorflow_lite/src/third_party/gemmlowp/fixedpoint\fixedpoint.h **** // for IntegerType==std::int32_t, the mapping is
 302:C:/Renesas/e2studio_2021_01_workspace_RZA2M_ANPR/ANPR_RZA2M_GR_MANGO/src/tensorflow_lite/src/third_party/gemmlowp/fixedpoint\fixedpoint.h **** //   real_value = integer_value / 2^31.
 303:C:/Renesas/e2studio_2021_01_workspace_RZA2M_ANPR/ANPR_RZA2M_GR_MANGO/src/tensorflow_lite/src/third_party/gemmlowp/fixedpoint\fixedpoint.h **** // So in this case, and leaving aside rounding and saturating, this
 304:C:/Renesas/e2studio_2021_01_workspace_RZA2M_ANPR/ANPR_RZA2M_GR_MANGO/src/tensorflow_lite/src/third_party/gemmlowp/fixedpoint\fixedpoint.h **** // function computes ((a / 2^31) * (b / 2^31)) * 2^31, which simplifies to
 305:C:/Renesas/e2studio_2021_01_workspace_RZA2M_ANPR/ANPR_RZA2M_GR_MANGO/src/tensorflow_lite/src/third_party/gemmlowp/fixedpoint\fixedpoint.h **** //   (a * b) / 2^31.
 306:C:/Renesas/e2studio_2021_01_workspace_RZA2M_ANPR/ANPR_RZA2M_GR_MANGO/src/tensorflow_lite/src/third_party/gemmlowp/fixedpoint\fixedpoint.h **** //
 307:C:/Renesas/e2studio_2021_01_workspace_RZA2M_ANPR/ANPR_RZA2M_GR_MANGO/src/tensorflow_lite/src/third_party/gemmlowp/fixedpoint\fixedpoint.h **** // The 'doubling' part in the name of this function comes from the fact that
 308:C:/Renesas/e2studio_2021_01_workspace_RZA2M_ANPR/ANPR_RZA2M_GR_MANGO/src/tensorflow_lite/src/third_party/gemmlowp/fixedpoint\fixedpoint.h **** // this operation is very close to a "multiply-high" operation, keeping only
 309:C:/Renesas/e2studio_2021_01_workspace_RZA2M_ANPR/ANPR_RZA2M_GR_MANGO/src/tensorflow_lite/src/third_party/gemmlowp/fixedpoint\fixedpoint.h **** // the top half bits, except that that would be effectively computing
 310:C:/Renesas/e2studio_2021_01_workspace_RZA2M_ANPR/ANPR_RZA2M_GR_MANGO/src/tensorflow_lite/src/third_party/gemmlowp/fixedpoint\fixedpoint.h **** //   (a * b) / 2^32,
 311:C:/Renesas/e2studio_2021_01_workspace_RZA2M_ANPR/ANPR_RZA2M_GR_MANGO/src/tensorflow_lite/src/third_party/gemmlowp/fixedpoint\fixedpoint.h **** // so here we are computing 2x that, since
 312:C:/Renesas/e2studio_2021_01_workspace_RZA2M_ANPR/ANPR_RZA2M_GR_MANGO/src/tensorflow_lite/src/third_party/gemmlowp/fixedpoint\fixedpoint.h **** //   1/2^31 = 2 * 1/2^32.
 313:C:/Renesas/e2studio_2021_01_workspace_RZA2M_ANPR/ANPR_RZA2M_GR_MANGO/src/tensorflow_lite/src/third_party/gemmlowp/fixedpoint\fixedpoint.h **** // The idea is to use all of the available 32 bits in the destination int32
 314:C:/Renesas/e2studio_2021_01_workspace_RZA2M_ANPR/ANPR_RZA2M_GR_MANGO/src/tensorflow_lite/src/third_party/gemmlowp/fixedpoint\fixedpoint.h **** // value.
 315:C:/Renesas/e2studio_2021_01_workspace_RZA2M_ANPR/ANPR_RZA2M_GR_MANGO/src/tensorflow_lite/src/third_party/gemmlowp/fixedpoint\fixedpoint.h **** //
 316:C:/Renesas/e2studio_2021_01_workspace_RZA2M_ANPR/ANPR_RZA2M_GR_MANGO/src/tensorflow_lite/src/third_party/gemmlowp/fixedpoint\fixedpoint.h **** // [End of the explanation specializing to int32.]
 317:C:/Renesas/e2studio_2021_01_workspace_RZA2M_ANPR/ANPR_RZA2M_GR_MANGO/src/tensorflow_lite/src/third_party/gemmlowp/fixedpoint\fixedpoint.h **** //
 318:C:/Renesas/e2studio_2021_01_workspace_RZA2M_ANPR/ANPR_RZA2M_GR_MANGO/src/tensorflow_lite/src/third_party/gemmlowp/fixedpoint\fixedpoint.h **** // This is equivalent to the VQRDMULH instruction in ARM NEON.
 319:C:/Renesas/e2studio_2021_01_workspace_RZA2M_ANPR/ANPR_RZA2M_GR_MANGO/src/tensorflow_lite/src/third_party/gemmlowp/fixedpoint\fixedpoint.h **** template <typename IntegerType>
 320:C:/Renesas/e2studio_2021_01_workspace_RZA2M_ANPR/ANPR_RZA2M_GR_MANGO/src/tensorflow_lite/src/third_party/gemmlowp/fixedpoint\fixedpoint.h **** IntegerType SaturatingRoundingDoublingHighMul(IntegerType a, IntegerType b) {
 321:C:/Renesas/e2studio_2021_01_workspace_RZA2M_ANPR/ANPR_RZA2M_GR_MANGO/src/tensorflow_lite/src/third_party/gemmlowp/fixedpoint\fixedpoint.h ****   static_assert(std::is_same<IntegerType, void>::value, "unimplemented");
 322:C:/Renesas/e2studio_2021_01_workspace_RZA2M_ANPR/ANPR_RZA2M_GR_MANGO/src/tensorflow_lite/src/third_party/gemmlowp/fixedpoint\fixedpoint.h ****   (void)b;
 323:C:/Renesas/e2studio_2021_01_workspace_RZA2M_ANPR/ANPR_RZA2M_GR_MANGO/src/tensorflow_lite/src/third_party/gemmlowp/fixedpoint\fixedpoint.h ****   return a;
 324:C:/Renesas/e2studio_2021_01_workspace_RZA2M_ANPR/ANPR_RZA2M_GR_MANGO/src/tensorflow_lite/src/third_party/gemmlowp/fixedpoint\fixedpoint.h **** }
 325:C:/Renesas/e2studio_2021_01_workspace_RZA2M_ANPR/ANPR_RZA2M_GR_MANGO/src/tensorflow_lite/src/third_party/gemmlowp/fixedpoint\fixedpoint.h **** 
 326:C:/Renesas/e2studio_2021_01_workspace_RZA2M_ANPR/ANPR_RZA2M_GR_MANGO/src/tensorflow_lite/src/third_party/gemmlowp/fixedpoint\fixedpoint.h **** // This function implements the same computation as the ARMv7 NEON VQRDMULH
 327:C:/Renesas/e2studio_2021_01_workspace_RZA2M_ANPR/ANPR_RZA2M_GR_MANGO/src/tensorflow_lite/src/third_party/gemmlowp/fixedpoint\fixedpoint.h **** // instruction.
 328:C:/Renesas/e2studio_2021_01_workspace_RZA2M_ANPR/ANPR_RZA2M_GR_MANGO/src/tensorflow_lite/src/third_party/gemmlowp/fixedpoint\fixedpoint.h **** template <>
 329:C:/Renesas/e2studio_2021_01_workspace_RZA2M_ANPR/ANPR_RZA2M_GR_MANGO/src/tensorflow_lite/src/third_party/gemmlowp/fixedpoint\fixedpoint.h **** inline std::int32_t SaturatingRoundingDoublingHighMul(std::int32_t a,
 330:C:/Renesas/e2studio_2021_01_workspace_RZA2M_ANPR/ANPR_RZA2M_GR_MANGO/src/tensorflow_lite/src/third_party/gemmlowp/fixedpoint\fixedpoint.h ****                                                       std::int32_t b) {
 331:C:/Renesas/e2studio_2021_01_workspace_RZA2M_ANPR/ANPR_RZA2M_GR_MANGO/src/tensorflow_lite/src/third_party/gemmlowp/fixedpoint\fixedpoint.h ****   bool overflow = a == b && a == std::numeric_limits<std::int32_t>::min();
 332:C:/Renesas/e2studio_2021_01_workspace_RZA2M_ANPR/ANPR_RZA2M_GR_MANGO/src/tensorflow_lite/src/third_party/gemmlowp/fixedpoint\fixedpoint.h ****   std::int64_t a_64(a);
 333:C:/Renesas/e2studio_2021_01_workspace_RZA2M_ANPR/ANPR_RZA2M_GR_MANGO/src/tensorflow_lite/src/third_party/gemmlowp/fixedpoint\fixedpoint.h ****   std::int64_t b_64(b);
 334:C:/Renesas/e2studio_2021_01_workspace_RZA2M_ANPR/ANPR_RZA2M_GR_MANGO/src/tensorflow_lite/src/third_party/gemmlowp/fixedpoint\fixedpoint.h ****   std::int64_t ab_64 = a_64 * b_64;
 335:C:/Renesas/e2studio_2021_01_workspace_RZA2M_ANPR/ANPR_RZA2M_GR_MANGO/src/tensorflow_lite/src/third_party/gemmlowp/fixedpoint\fixedpoint.h ****   std::int32_t nudge = ab_64 >= 0 ? (1 << 30) : (1 - (1 << 30));
 336:C:/Renesas/e2studio_2021_01_workspace_RZA2M_ANPR/ANPR_RZA2M_GR_MANGO/src/tensorflow_lite/src/third_party/gemmlowp/fixedpoint\fixedpoint.h ****   std::int32_t ab_x2_high32 =
 337:C:/Renesas/e2studio_2021_01_workspace_RZA2M_ANPR/ANPR_RZA2M_GR_MANGO/src/tensorflow_lite/src/third_party/gemmlowp/fixedpoint\fixedpoint.h ****       static_cast<std::int32_t>((ab_64 + nudge) / (1ll << 31));
 338:C:/Renesas/e2studio_2021_01_workspace_RZA2M_ANPR/ANPR_RZA2M_GR_MANGO/src/tensorflow_lite/src/third_party/gemmlowp/fixedpoint\fixedpoint.h ****   return overflow ? std::numeric_limits<std::int32_t>::max() : ab_x2_high32;
 339:C:/Renesas/e2studio_2021_01_workspace_RZA2M_ANPR/ANPR_RZA2M_GR_MANGO/src/tensorflow_lite/src/third_party/gemmlowp/fixedpoint\fixedpoint.h **** }
 340:C:/Renesas/e2studio_2021_01_workspace_RZA2M_ANPR/ANPR_RZA2M_GR_MANGO/src/tensorflow_lite/src/third_party/gemmlowp/fixedpoint\fixedpoint.h **** 
 341:C:/Renesas/e2studio_2021_01_workspace_RZA2M_ANPR/ANPR_RZA2M_GR_MANGO/src/tensorflow_lite/src/third_party/gemmlowp/fixedpoint\fixedpoint.h **** template <>
 342:C:/Renesas/e2studio_2021_01_workspace_RZA2M_ANPR/ANPR_RZA2M_GR_MANGO/src/tensorflow_lite/src/third_party/gemmlowp/fixedpoint\fixedpoint.h **** inline std::int16_t SaturatingRoundingDoublingHighMul(std::int16_t a,
 343:C:/Renesas/e2studio_2021_01_workspace_RZA2M_ANPR/ANPR_RZA2M_GR_MANGO/src/tensorflow_lite/src/third_party/gemmlowp/fixedpoint\fixedpoint.h ****                                                       std::int16_t b) {
 344:C:/Renesas/e2studio_2021_01_workspace_RZA2M_ANPR/ANPR_RZA2M_GR_MANGO/src/tensorflow_lite/src/third_party/gemmlowp/fixedpoint\fixedpoint.h ****   bool overflow = a == b && a == std::numeric_limits<std::int16_t>::min();
 345:C:/Renesas/e2studio_2021_01_workspace_RZA2M_ANPR/ANPR_RZA2M_GR_MANGO/src/tensorflow_lite/src/third_party/gemmlowp/fixedpoint\fixedpoint.h ****   std::int32_t a_32(a);
 346:C:/Renesas/e2studio_2021_01_workspace_RZA2M_ANPR/ANPR_RZA2M_GR_MANGO/src/tensorflow_lite/src/third_party/gemmlowp/fixedpoint\fixedpoint.h ****   std::int32_t b_32(b);
 347:C:/Renesas/e2studio_2021_01_workspace_RZA2M_ANPR/ANPR_RZA2M_GR_MANGO/src/tensorflow_lite/src/third_party/gemmlowp/fixedpoint\fixedpoint.h ****   std::int32_t ab_32 = a_32 * b_32;
 348:C:/Renesas/e2studio_2021_01_workspace_RZA2M_ANPR/ANPR_RZA2M_GR_MANGO/src/tensorflow_lite/src/third_party/gemmlowp/fixedpoint\fixedpoint.h ****   std::int16_t nudge = ab_32 >= 0 ? (1 << 14) : (1 - (1 << 14));
 349:C:/Renesas/e2studio_2021_01_workspace_RZA2M_ANPR/ANPR_RZA2M_GR_MANGO/src/tensorflow_lite/src/third_party/gemmlowp/fixedpoint\fixedpoint.h ****   std::int16_t ab_x2_high16 =
 350:C:/Renesas/e2studio_2021_01_workspace_RZA2M_ANPR/ANPR_RZA2M_GR_MANGO/src/tensorflow_lite/src/third_party/gemmlowp/fixedpoint\fixedpoint.h ****       static_cast<std::int16_t>((ab_32 + nudge) / (1 << 15));
 351:C:/Renesas/e2studio_2021_01_workspace_RZA2M_ANPR/ANPR_RZA2M_GR_MANGO/src/tensorflow_lite/src/third_party/gemmlowp/fixedpoint\fixedpoint.h ****   return overflow ? std::numeric_limits<std::int16_t>::max() : ab_x2_high16;
 352:C:/Renesas/e2studio_2021_01_workspace_RZA2M_ANPR/ANPR_RZA2M_GR_MANGO/src/tensorflow_lite/src/third_party/gemmlowp/fixedpoint\fixedpoint.h **** }
 353:C:/Renesas/e2studio_2021_01_workspace_RZA2M_ANPR/ANPR_RZA2M_GR_MANGO/src/tensorflow_lite/src/third_party/gemmlowp/fixedpoint\fixedpoint.h **** 
 354:C:/Renesas/e2studio_2021_01_workspace_RZA2M_ANPR/ANPR_RZA2M_GR_MANGO/src/tensorflow_lite/src/third_party/gemmlowp/fixedpoint\fixedpoint.h **** // Correctly-rounded-to-nearest division by a power-of-two.
 355:C:/Renesas/e2studio_2021_01_workspace_RZA2M_ANPR/ANPR_RZA2M_GR_MANGO/src/tensorflow_lite/src/third_party/gemmlowp/fixedpoint\fixedpoint.h **** // Also known as a rounding arithmetic right shift.
 356:C:/Renesas/e2studio_2021_01_workspace_RZA2M_ANPR/ANPR_RZA2M_GR_MANGO/src/tensorflow_lite/src/third_party/gemmlowp/fixedpoint\fixedpoint.h **** template <typename IntegerType>
 357:C:/Renesas/e2studio_2021_01_workspace_RZA2M_ANPR/ANPR_RZA2M_GR_MANGO/src/tensorflow_lite/src/third_party/gemmlowp/fixedpoint\fixedpoint.h **** inline IntegerType RoundingDivideByPOT(IntegerType x, int exponent) {
 358:C:/Renesas/e2studio_2021_01_workspace_RZA2M_ANPR/ANPR_RZA2M_GR_MANGO/src/tensorflow_lite/src/third_party/gemmlowp/fixedpoint\fixedpoint.h ****   assert(exponent >= 0);
 359:C:/Renesas/e2studio_2021_01_workspace_RZA2M_ANPR/ANPR_RZA2M_GR_MANGO/src/tensorflow_lite/src/third_party/gemmlowp/fixedpoint\fixedpoint.h ****   assert(exponent <= 31);
 360:C:/Renesas/e2studio_2021_01_workspace_RZA2M_ANPR/ANPR_RZA2M_GR_MANGO/src/tensorflow_lite/src/third_party/gemmlowp/fixedpoint\fixedpoint.h ****   const IntegerType mask = Dup<IntegerType>((1ll << exponent) - 1);
 433              		.loc 4 360 0 discriminator 1
 434 0290 F80BDFED 		vldr.64	d16, .L88	@ int
 435              	.LBE319:
 436              	.LBE318:
 437              	.LBE317:
 438              	.LBE316:
 439              	.LBE315:
 440              	.LBE314:
 441              	.LBE313:
 442              	.LBE312:
 443              		.loc 2 157 0 discriminator 1
 444 0294 0030A0E3 		mov	r3, #0
 445 0298 0C308DE5 		str	r3, [sp, #12]
 446              	.LVL53:
 447              	.L28:
 448              	.LBB375:
 158:C:/Renesas/e2studio_2021_01_workspace_RZA2M_ANPR/ANPR_RZA2M_GR_MANGO/src/tensorflow_lite/src/tensorflow/lite/kernels/internal/reference/integer_ops\conv.h ****     for (int out_y = 0; out_y < output_height; ++out_y) {
 449              		.loc 2 158 0 discriminator 1
 450 029c 40309DE5 		ldr	r3, [sp, #64]
 451 02a0 000053E3 		cmp	r3, #0
 452 02a4 E80000DA 		ble	.L30
 453 02a8 6C309DE5 		ldr	r3, [sp, #108]
 454 02ac 003063E2 		rsb	r3, r3, #0
 455 02b0 38308DE5 		str	r3, [sp, #56]
 456 02b4 0030A0E3 		mov	r3, #0
 457 02b8 50308DE5 		str	r3, [sp, #80]
 458              	.LVL54:
 459              	.L31:
 460              	.LBB373:
 159:C:/Renesas/e2studio_2021_01_workspace_RZA2M_ANPR/ANPR_RZA2M_GR_MANGO/src/tensorflow_lite/src/tensorflow/lite/kernels/internal/reference/integer_ops\conv.h ****       for (int out_x = 0; out_x < output_width; ++out_x) {
 461              		.loc 2 159 0 discriminator 1
 462 02bc 3C309DE5 		ldr	r3, [sp, #60]
 463 02c0 000053E3 		cmp	r3, #0
 464 02c4 D60000DA 		ble	.L33
 465 02c8 68309DE5 		ldr	r3, [sp, #104]
 466 02cc 003063E2 		rsb	r3, r3, #0
 467 02d0 24308DE5 		str	r3, [sp, #36]
 468              		.loc 2 159 0 is_stmt 0 discriminator 2
 469 02d4 0030A0E3 		mov	r3, #0
 470 02d8 4C308DE5 		str	r3, [sp, #76]
 471              	.LVL55:
 472              	.L34:
 473              	.LBB371:
 160:C:/Renesas/e2studio_2021_01_workspace_RZA2M_ANPR/ANPR_RZA2M_GR_MANGO/src/tensorflow_lite/src/tensorflow/lite/kernels/internal/reference/integer_ops\conv.h ****         for (int out_channel = 0; out_channel < output_depth; ++out_channel) {
 474              		.loc 2 160 0 is_stmt 1 discriminator 2
 475 02dc 30309DE5 		ldr	r3, [sp, #48]
 476 02e0 000053E3 		cmp	r3, #0
 477 02e4 C40000DA 		ble	.L48
 478 02e8 58309DE5 		ldr	r3, [sp, #88]
 479 02ec 043043E2 		sub	r3, r3, #4
 480 02f0 54308DE5 		str	r3, [sp, #84]
 481 02f4 5C309DE5 		ldr	r3, [sp, #92]
 482 02f8 043043E2 		sub	r3, r3, #4
 483 02fc 48308DE5 		str	r3, [sp, #72]
 484              		.loc 2 160 0 is_stmt 0
 485 0300 0030A0E3 		mov	r3, #0
 486 0304 08308DE5 		str	r3, [sp, #8]
 487              	.LVL56:
 488              	.L49:
 489              	.LBB368:
 490              	.LBB342:
 161:C:/Renesas/e2studio_2021_01_workspace_RZA2M_ANPR/ANPR_RZA2M_GR_MANGO/src/tensorflow_lite/src/tensorflow/lite/kernels/internal/reference/integer_ops\conv.h ****           const int in_x_origin = (out_x * stride_width) - pad_width;
 162:C:/Renesas/e2studio_2021_01_workspace_RZA2M_ANPR/ANPR_RZA2M_GR_MANGO/src/tensorflow_lite/src/tensorflow/lite/kernels/internal/reference/integer_ops\conv.h ****           const int in_y_origin = (out_y * stride_height) - pad_height;
 163:C:/Renesas/e2studio_2021_01_workspace_RZA2M_ANPR/ANPR_RZA2M_GR_MANGO/src/tensorflow_lite/src/tensorflow/lite/kernels/internal/reference/integer_ops\conv.h ****           int32 acc = 0;
 164:C:/Renesas/e2studio_2021_01_workspace_RZA2M_ANPR/ANPR_RZA2M_GR_MANGO/src/tensorflow_lite/src/tensorflow/lite/kernels/internal/reference/integer_ops\conv.h ****           for (int filter_y = 0; filter_y < filter_height; ++filter_y) {
 491              		.loc 2 164 0 is_stmt 1
 492 0308 20309DE5 		ldr	r3, [sp, #32]
 493              	.LBE342:
 163:C:/Renesas/e2studio_2021_01_workspace_RZA2M_ANPR/ANPR_RZA2M_GR_MANGO/src/tensorflow_lite/src/tensorflow/lite/kernels/internal/reference/integer_ops\conv.h ****           for (int filter_y = 0; filter_y < filter_height; ++filter_y) {
 494              		.loc 2 163 0
 495 030c 0070A0E3 		mov	r7, #0
 496              	.LBB359:
 497              		.loc 2 164 0
 498 0310 000053E3 		cmp	r3, #0
 499 0314 590000DA 		ble	.L35
 500              		.loc 2 164 0 is_stmt 0 discriminator 1
 501 0318 38509DE5 		ldr	r5, [sp, #56]
 502 031c 0760A0E1 		mov	r6, r7
 503              	.LVL57:
 504              	.L42:
 505              	.LBB343:
 165:C:/Renesas/e2studio_2021_01_workspace_RZA2M_ANPR/ANPR_RZA2M_GR_MANGO/src/tensorflow_lite/src/tensorflow/lite/kernels/internal/reference/integer_ops\conv.h ****             for (int filter_x = 0; filter_x < filter_width; ++filter_x) {
 506              		.loc 2 165 0 is_stmt 1 discriminator 1
 507 0320 14309DE5 		ldr	r3, [sp, #20]
 508 0324 000053E3 		cmp	r3, #0
 509 0328 4E0000DA 		ble	.L36
 510              	.LBB344:
 511              	.LBB345:
 166:C:/Renesas/e2studio_2021_01_workspace_RZA2M_ANPR/ANPR_RZA2M_GR_MANGO/src/tensorflow_lite/src/tensorflow/lite/kernels/internal/reference/integer_ops\conv.h ****               for (int in_channel = 0; in_channel < input_depth; ++in_channel) {
 167:C:/Renesas/e2studio_2021_01_workspace_RZA2M_ANPR/ANPR_RZA2M_GR_MANGO/src/tensorflow_lite/src/tensorflow/lite/kernels/internal/reference/integer_ops\conv.h ****                 const int in_x = in_x_origin + dilation_width_factor * filter_x;
 168:C:/Renesas/e2studio_2021_01_workspace_RZA2M_ANPR/ANPR_RZA2M_GR_MANGO/src/tensorflow_lite/src/tensorflow/lite/kernels/internal/reference/integer_ops\conv.h ****                 const int in_y =
 169:C:/Renesas/e2studio_2021_01_workspace_RZA2M_ANPR/ANPR_RZA2M_GR_MANGO/src/tensorflow_lite/src/tensorflow/lite/kernels/internal/reference/integer_ops\conv.h ****                     in_y_origin + dilation_height_factor * filter_y;
 170:C:/Renesas/e2studio_2021_01_workspace_RZA2M_ANPR/ANPR_RZA2M_GR_MANGO/src/tensorflow_lite/src/tensorflow/lite/kernels/internal/reference/integer_ops\conv.h ****                 // Zero padding by omitting the areas outside the image.
 171:C:/Renesas/e2studio_2021_01_workspace_RZA2M_ANPR/ANPR_RZA2M_GR_MANGO/src/tensorflow_lite/src/tensorflow/lite/kernels/internal/reference/integer_ops\conv.h ****                 const bool is_point_inside_image =
 172:C:/Renesas/e2studio_2021_01_workspace_RZA2M_ANPR/ANPR_RZA2M_GR_MANGO/src/tensorflow_lite/src/tensorflow/lite/kernels/internal/reference/integer_ops\conv.h ****                     (in_x >= 0) && (in_x < input_width) && (in_y >= 0) &&
 512              		.loc 2 172 0 discriminator 1
 513 032c 28309DE5 		ldr	r3, [sp, #40]
 514 0330 0040A0E3 		mov	r4, #0
 515 0334 24E09DE5 		ldr	lr, [sp, #36]
 516 0338 000055E3 		cmp	r5, #0
 517 033c 050053A1 		cmpge	r3, r5
 518 0340 0130A0C3 		movgt	r3, #1
 519 0344 0030A0D3 		movle	r3, #0
 520 0348 04308DE5 		str	r3, [sp, #4]
 521              	.LVL58:
 522              	.L41:
 523              	.LBE345:
 166:C:/Renesas/e2studio_2021_01_workspace_RZA2M_ANPR/ANPR_RZA2M_GR_MANGO/src/tensorflow_lite/src/tensorflow/lite/kernels/internal/reference/integer_ops\conv.h ****               for (int in_channel = 0; in_channel < input_depth; ++in_channel) {
 524              		.loc 2 166 0 discriminator 1
 525 034c 000059E3 		cmp	r9, #0
 526 0350 3E0000DA 		ble	.L37
 527 0354 1C309DE5 		ldr	r3, [sp, #28]
 528 0358 0EC0E0E1 		mvn	ip, lr
 529 035c ACCFA0E1 		lsr	ip, ip, #31
 166:C:/Renesas/e2studio_2021_01_workspace_RZA2M_ANPR/ANPR_RZA2M_GR_MANGO/src/tensorflow_lite/src/tensorflow/lite/kernels/internal/reference/integer_ops\conv.h ****               for (int in_channel = 0; in_channel < input_depth; ++in_channel) {
 530              		.loc 2 166 0 is_stmt 0
 531 0360 0000A0E3 		mov	r0, #0
 532 0364 00708DE5 		str	r7, [sp]
 533 0368 03005EE1 		cmp	lr, r3
 534 036c 00C0A0A3 		movge	ip, #0
 535              	.LVL59:
 536              	.L40:
 537              	.LBB358:
 538              		.loc 2 172 0 is_stmt 1
 539 0370 00005CE3 		cmp	ip, #0
 540 0374 3100000A 		beq	.L38
 541              		.loc 2 172 0 is_stmt 0 discriminator 1
 542 0378 04309DE5 		ldr	r3, [sp, #4]
 543 037c 000053E3 		cmp	r3, #0
 544 0380 2E00000A 		beq	.L38
 545              	.LVL60:
 546              	.LBB346:
 547              	.LBB347:
 548              	.LBB348:
 549              	.LBB349:
 404:C:/Renesas/e2studio_2021_01_workspace_RZA2M_ANPR/ANPR_RZA2M_GR_MANGO/src/tensorflow_lite/src/tensorflow/lite/kernels/internal\types.h ****   const int* dims_data = reinterpret_cast<const int*>(shape.DimsDataUpTo5D());
 550              		.loc 3 404 0 is_stmt 1
 551 0384 00309AE5 		ldr	r3, [r10]
 552 0388 040053E3 		cmp	r3, #4
 553 038c B600001A 		bne	.L10
 406:C:/Renesas/e2studio_2021_01_workspace_RZA2M_ANPR/ANPR_RZA2M_GR_MANGO/src/tensorflow_lite/src/tensorflow/lite/kernels/internal\types.h ****   TFLITE_DCHECK(i1 >= 0 && i1 < dims_data[1]);
 554              		.loc 3 406 0
 555 0390 04309AE5 		ldr	r3, [r10, #4]
 556 0394 0CB09DE5 		ldr	fp, [sp, #12]
 557 0398 0B0053E1 		cmp	r3, fp
 558 039c B20000DA 		ble	.L10
 407:C:/Renesas/e2studio_2021_01_workspace_RZA2M_ANPR/ANPR_RZA2M_GR_MANGO/src/tensorflow_lite/src/tensorflow/lite/kernels/internal\types.h ****   TFLITE_DCHECK(i2 >= 0 && i2 < dims_data[2]);
 559              		.loc 3 407 0
 560 03a0 08309AE5 		ldr	r3, [r10, #8]
 561 03a4 050053E1 		cmp	r3, r5
 562 03a8 AF0000DA 		ble	.L10
 408:C:/Renesas/e2studio_2021_01_workspace_RZA2M_ANPR/ANPR_RZA2M_GR_MANGO/src/tensorflow_lite/src/tensorflow/lite/kernels/internal\types.h ****   TFLITE_DCHECK(i3 >= 0 && i3 < dims_data[3]);
 563              		.loc 3 408 0
 564 03ac 0C109AE5 		ldr	r1, [r10, #12]
 565 03b0 01005EE1 		cmp	lr, r1
 566 03b4 AC0000AA 		bge	.L10
 409:C:/Renesas/e2studio_2021_01_workspace_RZA2M_ANPR/ANPR_RZA2M_GR_MANGO/src/tensorflow_lite/src/tensorflow/lite/kernels/internal\types.h ****   return ((i0 * dims_data[1] + i1) * dims_data[2] + i2) * dims_data[3] + i3;
 567              		.loc 3 409 0
 568 03b8 10209AE5 		ldr	r2, [r10, #16]
 569 03bc 020050E1 		cmp	r0, r2
 570 03c0 A90000AA 		bge	.L10
 571              	.LVL61:
 410:C:/Renesas/e2studio_2021_01_workspace_RZA2M_ANPR/ANPR_RZA2M_GR_MANGO/src/tensorflow_lite/src/tensorflow/lite/kernels/internal\types.h **** }
 572              		.loc 3 410 0
 573 03c4 9B5323E0 		mla	r3, fp, r3, r5
 574              	.LBE349:
 575              	.LBE348:
 576              	.LBB351:
 577              	.LBB352:
 404:C:/Renesas/e2studio_2021_01_workspace_RZA2M_ANPR/ANPR_RZA2M_GR_MANGO/src/tensorflow_lite/src/tensorflow/lite/kernels/internal\types.h ****   const int* dims_data = reinterpret_cast<const int*>(shape.DimsDataUpTo5D());
 578              		.loc 3 404 0
 579 03c8 00B098E5 		ldr	fp, [r8]
 580 03cc 04005BE3 		cmp	fp, #4
 581              	.LBE352:
 582              	.LBE351:
 583              	.LBB355:
 584              	.LBB350:
 410:C:/Renesas/e2studio_2021_01_workspace_RZA2M_ANPR/ANPR_RZA2M_GR_MANGO/src/tensorflow_lite/src/tensorflow/lite/kernels/internal\types.h **** }
 585              		.loc 3 410 0
 586 03d0 91E323E0 		mla	r3, r1, r3, lr
 587              	.LBE350:
 588              	.LBE355:
 173:C:/Renesas/e2studio_2021_01_workspace_RZA2M_ANPR/ANPR_RZA2M_GR_MANGO/src/tensorflow_lite/src/tensorflow/lite/kernels/internal/reference/integer_ops\conv.h ****                     (in_y < input_height);
 174:C:/Renesas/e2studio_2021_01_workspace_RZA2M_ANPR/ANPR_RZA2M_GR_MANGO/src/tensorflow_lite/src/tensorflow/lite/kernels/internal/reference/integer_ops\conv.h ****                 if (is_point_inside_image) {
 175:C:/Renesas/e2studio_2021_01_workspace_RZA2M_ANPR/ANPR_RZA2M_GR_MANGO/src/tensorflow_lite/src/tensorflow/lite/kernels/internal/reference/integer_ops\conv.h ****                   int32 input_val = input_data[Offset(input_shape, batch, in_y,
 176:C:/Renesas/e2studio_2021_01_workspace_RZA2M_ANPR/ANPR_RZA2M_GR_MANGO/src/tensorflow_lite/src/tensorflow/lite/kernels/internal/reference/integer_ops\conv.h ****                                                       in_x, in_channel)];
 589              		.loc 2 176 0
 590 03d4 A0109DE5 		ldr	r1, [sp, #160]
 591 03d8 921323E0 		mla	r3, r2, r3, r1
 592 03dc D02093E1 		ldrsb	r2, [r3, r0]
 593              	.LVL62:
 594              	.LBB356:
 595              	.LBB353:
 404:C:/Renesas/e2studio_2021_01_workspace_RZA2M_ANPR/ANPR_RZA2M_GR_MANGO/src/tensorflow_lite/src/tensorflow/lite/kernels/internal\types.h ****   const int* dims_data = reinterpret_cast<const int*>(shape.DimsDataUpTo5D());
 596              		.loc 3 404 0
 597 03e0 A100001A 		bne	.L10
 406:C:/Renesas/e2studio_2021_01_workspace_RZA2M_ANPR/ANPR_RZA2M_GR_MANGO/src/tensorflow_lite/src/tensorflow/lite/kernels/internal\types.h ****   TFLITE_DCHECK(i1 >= 0 && i1 < dims_data[1]);
 598              		.loc 3 406 0
 599 03e4 043098E5 		ldr	r3, [r8, #4]
 600 03e8 08109DE5 		ldr	r1, [sp, #8]
 601 03ec 010053E1 		cmp	r3, r1
 602 03f0 9D0000DA 		ble	.L10
 407:C:/Renesas/e2studio_2021_01_workspace_RZA2M_ANPR/ANPR_RZA2M_GR_MANGO/src/tensorflow_lite/src/tensorflow/lite/kernels/internal\types.h ****   TFLITE_DCHECK(i2 >= 0 && i2 < dims_data[2]);
 603              		.loc 3 407 0
 604 03f4 083098E5 		ldr	r3, [r8, #8]
 605 03f8 060053E1 		cmp	r3, r6
 606 03fc 9A0000DA 		ble	.L10
 408:C:/Renesas/e2studio_2021_01_workspace_RZA2M_ANPR/ANPR_RZA2M_GR_MANGO/src/tensorflow_lite/src/tensorflow/lite/kernels/internal\types.h ****   TFLITE_DCHECK(i3 >= 0 && i3 < dims_data[3]);
 607              		.loc 3 408 0
 608 0400 0CB098E5 		ldr	fp, [r8, #12]
 609 0404 04005BE1 		cmp	fp, r4
 610 0408 970000DA 		ble	.L10
 409:C:/Renesas/e2studio_2021_01_workspace_RZA2M_ANPR/ANPR_RZA2M_GR_MANGO/src/tensorflow_lite/src/tensorflow/lite/kernels/internal\types.h ****   return ((i0 * dims_data[1] + i1) * dims_data[2] + i2) * dims_data[3] + i3;
 611              		.loc 3 409 0
 612 040c 107098E5 		ldr	r7, [r8, #16]
 613 0410 070050E1 		cmp	r0, r7
 614 0414 940000AA 		bge	.L10
 615              	.LVL63:
 410:C:/Renesas/e2studio_2021_01_workspace_RZA2M_ANPR/ANPR_RZA2M_GR_MANGO/src/tensorflow_lite/src/tensorflow/lite/kernels/internal\types.h **** }
 616              		.loc 3 410 0
 617 0418 916323E0 		mla	r3, r1, r3, r6
 618              	.LVL64:
 619              	.LBE353:
 620              	.LBE356:
 177:C:/Renesas/e2studio_2021_01_workspace_RZA2M_ANPR/ANPR_RZA2M_GR_MANGO/src/tensorflow_lite/src/tensorflow/lite/kernels/internal/reference/integer_ops\conv.h ****                   int32 filter_val =
 178:C:/Renesas/e2studio_2021_01_workspace_RZA2M_ANPR/ANPR_RZA2M_GR_MANGO/src/tensorflow_lite/src/tensorflow/lite/kernels/internal/reference/integer_ops\conv.h ****                       filter_data[Offset(filter_shape, out_channel, filter_y,
 179:C:/Renesas/e2studio_2021_01_workspace_RZA2M_ANPR/ANPR_RZA2M_GR_MANGO/src/tensorflow_lite/src/tensorflow/lite/kernels/internal/reference/integer_ops\conv.h ****                                          filter_x, in_channel)];
 180:C:/Renesas/e2studio_2021_01_workspace_RZA2M_ANPR/ANPR_RZA2M_GR_MANGO/src/tensorflow_lite/src/tensorflow/lite/kernels/internal/reference/integer_ops\conv.h ****                   // Accumulate with 32 bits accumulator.
 181:C:/Renesas/e2studio_2021_01_workspace_RZA2M_ANPR/ANPR_RZA2M_GR_MANGO/src/tensorflow_lite/src/tensorflow/lite/kernels/internal/reference/integer_ops\conv.h ****                   // In the nudging process during model quantization, we force
 182:C:/Renesas/e2studio_2021_01_workspace_RZA2M_ANPR/ANPR_RZA2M_GR_MANGO/src/tensorflow_lite/src/tensorflow/lite/kernels/internal/reference/integer_ops\conv.h ****                   // real value of 0.0 be represented by a quantized value. This
 183:C:/Renesas/e2studio_2021_01_workspace_RZA2M_ANPR/ANPR_RZA2M_GR_MANGO/src/tensorflow_lite/src/tensorflow/lite/kernels/internal/reference/integer_ops\conv.h ****                   // guarantees that the input_offset is a int8, even though it
 184:C:/Renesas/e2studio_2021_01_workspace_RZA2M_ANPR/ANPR_RZA2M_GR_MANGO/src/tensorflow_lite/src/tensorflow/lite/kernels/internal/reference/integer_ops\conv.h ****                   // is represented using int32.
 185:C:/Renesas/e2studio_2021_01_workspace_RZA2M_ANPR/ANPR_RZA2M_GR_MANGO/src/tensorflow_lite/src/tensorflow/lite/kernels/internal/reference/integer_ops\conv.h ****                   // int32 += int8 * (int8 - int8) so the highest value we can
 186:C:/Renesas/e2studio_2021_01_workspace_RZA2M_ANPR/ANPR_RZA2M_GR_MANGO/src/tensorflow_lite/src/tensorflow/lite/kernels/internal/reference/integer_ops\conv.h ****                   // get from each accumulation is [-127, 127] * ([-128, 127] -
 187:C:/Renesas/e2studio_2021_01_workspace_RZA2M_ANPR/ANPR_RZA2M_GR_MANGO/src/tensorflow_lite/src/tensorflow/lite/kernels/internal/reference/integer_ops\conv.h ****                   // [-128, 127]), which is [-32512, 32512]. log2(32512)
 188:C:/Renesas/e2studio_2021_01_workspace_RZA2M_ANPR/ANPR_RZA2M_GR_MANGO/src/tensorflow_lite/src/tensorflow/lite/kernels/internal/reference/integer_ops\conv.h ****                   // = 14.98, which means we can accumulate at least 2^16
 189:C:/Renesas/e2studio_2021_01_workspace_RZA2M_ANPR/ANPR_RZA2M_GR_MANGO/src/tensorflow_lite/src/tensorflow/lite/kernels/internal/reference/integer_ops\conv.h ****                   // multiplications without overflow. The accumulator is
 190:C:/Renesas/e2studio_2021_01_workspace_RZA2M_ANPR/ANPR_RZA2M_GR_MANGO/src/tensorflow_lite/src/tensorflow/lite/kernels/internal/reference/integer_ops\conv.h ****                   // applied to a filter so the accumulation logic will hold as
 191:C:/Renesas/e2studio_2021_01_workspace_RZA2M_ANPR/ANPR_RZA2M_GR_MANGO/src/tensorflow_lite/src/tensorflow/lite/kernels/internal/reference/integer_ops\conv.h ****                   // long as the filter size (filter_y * filter_x * in_channel)
 192:C:/Renesas/e2studio_2021_01_workspace_RZA2M_ANPR/ANPR_RZA2M_GR_MANGO/src/tensorflow_lite/src/tensorflow/lite/kernels/internal/reference/integer_ops\conv.h ****                   // does not exceed 2^16, which is the case in all the models
 193:C:/Renesas/e2studio_2021_01_workspace_RZA2M_ANPR/ANPR_RZA2M_GR_MANGO/src/tensorflow_lite/src/tensorflow/lite/kernels/internal/reference/integer_ops\conv.h ****                   // we have seen so far.
 194:C:/Renesas/e2studio_2021_01_workspace_RZA2M_ANPR/ANPR_RZA2M_GR_MANGO/src/tensorflow_lite/src/tensorflow/lite/kernels/internal/reference/integer_ops\conv.h ****                   // TODO(jianlijianli): Add a check to make sure the
 195:C:/Renesas/e2studio_2021_01_workspace_RZA2M_ANPR/ANPR_RZA2M_GR_MANGO/src/tensorflow_lite/src/tensorflow/lite/kernels/internal/reference/integer_ops\conv.h ****                   // accumulator depth is smaller than 2^16.
 196:C:/Renesas/e2studio_2021_01_workspace_RZA2M_ANPR/ANPR_RZA2M_GR_MANGO/src/tensorflow_lite/src/tensorflow/lite/kernels/internal/reference/integer_ops\conv.h ****                   acc += filter_val * (input_val + input_offset);
 621              		.loc 2 196 0
 622 041c 10109DE5 		ldr	r1, [sp, #16]
 623              	.LVL65:
 624 0420 022081E0 		add	r2, r1, r2
 625              	.LVL66:
 179:C:/Renesas/e2studio_2021_01_workspace_RZA2M_ANPR/ANPR_RZA2M_GR_MANGO/src/tensorflow_lite/src/tensorflow/lite/kernels/internal/reference/integer_ops\conv.h ****                   // Accumulate with 32 bits accumulator.
 626              		.loc 2 179 0
 627 0424 A8109DE5 		ldr	r1, [sp, #168]
 628              	.LBB357:
 629              	.LBB354:
 410:C:/Renesas/e2studio_2021_01_workspace_RZA2M_ANPR/ANPR_RZA2M_GR_MANGO/src/tensorflow_lite/src/tensorflow/lite/kernels/internal\types.h **** }
 630              		.loc 3 410 0
 631 0428 9B4323E0 		mla	r3, fp, r3, r4
 632              	.LBE354:
 633              	.LBE357:
 179:C:/Renesas/e2studio_2021_01_workspace_RZA2M_ANPR/ANPR_RZA2M_GR_MANGO/src/tensorflow_lite/src/tensorflow/lite/kernels/internal/reference/integer_ops\conv.h ****                   // Accumulate with 32 bits accumulator.
 634              		.loc 2 179 0
 635 042c 971323E0 		mla	r3, r7, r3, r1
 636              		.loc 2 196 0
 637 0430 00109DE5 		ldr	r1, [sp]
 179:C:/Renesas/e2studio_2021_01_workspace_RZA2M_ANPR/ANPR_RZA2M_GR_MANGO/src/tensorflow_lite/src/tensorflow/lite/kernels/internal/reference/integer_ops\conv.h ****                   // Accumulate with 32 bits accumulator.
 638              		.loc 2 179 0
 639 0434 D03093E1 		ldrsb	r3, [r3, r0]
 640              		.loc 2 196 0
 641 0438 921323E0 		mla	r3, r2, r3, r1
 642 043c 00308DE5 		str	r3, [sp]
 643              	.LVL67:
 644              	.L38:
 645              	.LBE347:
 646              	.LBE346:
 647              	.LBE358:
 166:C:/Renesas/e2studio_2021_01_workspace_RZA2M_ANPR/ANPR_RZA2M_GR_MANGO/src/tensorflow_lite/src/tensorflow/lite/kernels/internal/reference/integer_ops\conv.h ****                 const int in_x = in_x_origin + dilation_width_factor * filter_x;
 648              		.loc 2 166 0 discriminator 2
 649 0440 010080E2 		add	r0, r0, #1
 650              	.LVL68:
 651 0444 090050E1 		cmp	r0, r9
 652 0448 C8FFFF1A 		bne	.L40
 653 044c 00709DE5 		ldr	r7, [sp]
 654              	.LVL69:
 655              	.L37:
 656 0450 18309DE5 		ldr	r3, [sp, #24]
 657              	.LBE344:
 165:C:/Renesas/e2studio_2021_01_workspace_RZA2M_ANPR/ANPR_RZA2M_GR_MANGO/src/tensorflow_lite/src/tensorflow/lite/kernels/internal/reference/integer_ops\conv.h ****               for (int in_channel = 0; in_channel < input_depth; ++in_channel) {
 658              		.loc 2 165 0 discriminator 2
 659 0454 014084E2 		add	r4, r4, #1
 660              	.LVL70:
 661 0458 03E08EE0 		add	lr, lr, r3
 662 045c 14309DE5 		ldr	r3, [sp, #20]
 663 0460 030054E1 		cmp	r4, r3
 664 0464 B8FFFF1A 		bne	.L41
 665              	.LVL71:
 666              	.L36:
 667 0468 2C309DE5 		ldr	r3, [sp, #44]
 668              	.LBE343:
 164:C:/Renesas/e2studio_2021_01_workspace_RZA2M_ANPR/ANPR_RZA2M_GR_MANGO/src/tensorflow_lite/src/tensorflow/lite/kernels/internal/reference/integer_ops\conv.h ****             for (int filter_x = 0; filter_x < filter_width; ++filter_x) {
 669              		.loc 2 164 0 discriminator 2
 670 046c 016086E2 		add	r6, r6, #1
 671              	.LVL72:
 672 0470 035085E0 		add	r5, r5, r3
 673 0474 20309DE5 		ldr	r3, [sp, #32]
 674 0478 030056E1 		cmp	r6, r3
 675 047c A7FFFF1A 		bne	.L42
 676              	.LVL73:
 677              	.L35:
 678              	.LBE359:
 197:C:/Renesas/e2studio_2021_01_workspace_RZA2M_ANPR/ANPR_RZA2M_GR_MANGO/src/tensorflow_lite/src/tensorflow/lite/kernels/internal/reference/integer_ops\conv.h ****                 }
 198:C:/Renesas/e2studio_2021_01_workspace_RZA2M_ANPR/ANPR_RZA2M_GR_MANGO/src/tensorflow_lite/src/tensorflow/lite/kernels/internal/reference/integer_ops\conv.h ****               }
 199:C:/Renesas/e2studio_2021_01_workspace_RZA2M_ANPR/ANPR_RZA2M_GR_MANGO/src/tensorflow_lite/src/tensorflow/lite/kernels/internal/reference/integer_ops\conv.h ****             }
 200:C:/Renesas/e2studio_2021_01_workspace_RZA2M_ANPR/ANPR_RZA2M_GR_MANGO/src/tensorflow_lite/src/tensorflow/lite/kernels/internal/reference/integer_ops\conv.h ****           }
 201:C:/Renesas/e2studio_2021_01_workspace_RZA2M_ANPR/ANPR_RZA2M_GR_MANGO/src/tensorflow_lite/src/tensorflow/lite/kernels/internal/reference/integer_ops\conv.h **** 
 202:C:/Renesas/e2studio_2021_01_workspace_RZA2M_ANPR/ANPR_RZA2M_GR_MANGO/src/tensorflow_lite/src/tensorflow/lite/kernels/internal/reference/integer_ops\conv.h ****           if (bias_data) {
 679              		.loc 2 202 0
 680 0480 B0309DE5 		ldr	r3, [sp, #176]
 203:C:/Renesas/e2studio_2021_01_workspace_RZA2M_ANPR/ANPR_RZA2M_GR_MANGO/src/tensorflow_lite/src/tensorflow/lite/kernels/internal/reference/integer_ops\conv.h ****             acc += bias_data[out_channel];
 204:C:/Renesas/e2studio_2021_01_workspace_RZA2M_ANPR/ANPR_RZA2M_GR_MANGO/src/tensorflow_lite/src/tensorflow/lite/kernels/internal/reference/integer_ops\conv.h ****           }
 205:C:/Renesas/e2studio_2021_01_workspace_RZA2M_ANPR/ANPR_RZA2M_GR_MANGO/src/tensorflow_lite/src/tensorflow/lite/kernels/internal/reference/integer_ops\conv.h **** 
 206:C:/Renesas/e2studio_2021_01_workspace_RZA2M_ANPR/ANPR_RZA2M_GR_MANGO/src/tensorflow_lite/src/tensorflow/lite/kernels/internal/reference/integer_ops\conv.h ****           acc = MultiplyByQuantizedMultiplier(
 681              		.loc 2 206 0
 682 0484 54109DE5 		ldr	r1, [sp, #84]
 202:C:/Renesas/e2studio_2021_01_workspace_RZA2M_ANPR/ANPR_RZA2M_GR_MANGO/src/tensorflow_lite/src/tensorflow/lite/kernels/internal/reference/integer_ops\conv.h ****             acc += bias_data[out_channel];
 683              		.loc 2 202 0
 684 0488 000053E3 		cmp	r3, #0
 203:C:/Renesas/e2studio_2021_01_workspace_RZA2M_ANPR/ANPR_RZA2M_GR_MANGO/src/tensorflow_lite/src/tensorflow/lite/kernels/internal/reference/integer_ops\conv.h ****             acc += bias_data[out_channel];
 685              		.loc 2 203 0
 686 048c 08209D15 		ldrne	r2, [sp, #8]
 687 0490 02319317 		ldrne	r3, [r3, r2, lsl #2]
 688              		.loc 2 206 0
 689 0494 48209DE5 		ldr	r2, [sp, #72]
 203:C:/Renesas/e2studio_2021_01_workspace_RZA2M_ANPR/ANPR_RZA2M_GR_MANGO/src/tensorflow_lite/src/tensorflow/lite/kernels/internal/reference/integer_ops\conv.h ****             acc += bias_data[out_channel];
 690              		.loc 2 203 0
 691 0498 03708710 		addne	r7, r7, r3
 692              	.LVL74:
 693              		.loc 2 206 0
 694 049c 0430B2E5 		ldr	r3, [r2, #4]!
 695 04a0 48208DE5 		str	r2, [sp, #72]
 696              	.LVL75:
 697              	.LBB360:
 698              	.LBB338:
 699              		.file 5 "C:/Renesas/e2studio_2021_01_workspace_RZA2M_ANPR/ANPR_RZA2M_GR_MANGO/src/tensorflow_lite/
   1:C:/Renesas/e2studio_2021_01_workspace_RZA2M_ANPR/ANPR_RZA2M_GR_MANGO/src/tensorflow_lite/src/tensorflow/lite/kernels/internal\common.h **** /* Copyright 2017 The TensorFlow Authors. All Rights Reserved.
   2:C:/Renesas/e2studio_2021_01_workspace_RZA2M_ANPR/ANPR_RZA2M_GR_MANGO/src/tensorflow_lite/src/tensorflow/lite/kernels/internal\common.h **** 
   3:C:/Renesas/e2studio_2021_01_workspace_RZA2M_ANPR/ANPR_RZA2M_GR_MANGO/src/tensorflow_lite/src/tensorflow/lite/kernels/internal\common.h **** Licensed under the Apache License, Version 2.0 (the "License");
   4:C:/Renesas/e2studio_2021_01_workspace_RZA2M_ANPR/ANPR_RZA2M_GR_MANGO/src/tensorflow_lite/src/tensorflow/lite/kernels/internal\common.h **** you may not use this file except in compliance with the License.
   5:C:/Renesas/e2studio_2021_01_workspace_RZA2M_ANPR/ANPR_RZA2M_GR_MANGO/src/tensorflow_lite/src/tensorflow/lite/kernels/internal\common.h **** You may obtain a copy of the License at
   6:C:/Renesas/e2studio_2021_01_workspace_RZA2M_ANPR/ANPR_RZA2M_GR_MANGO/src/tensorflow_lite/src/tensorflow/lite/kernels/internal\common.h **** 
   7:C:/Renesas/e2studio_2021_01_workspace_RZA2M_ANPR/ANPR_RZA2M_GR_MANGO/src/tensorflow_lite/src/tensorflow/lite/kernels/internal\common.h ****     http://www.apache.org/licenses/LICENSE-2.0
   8:C:/Renesas/e2studio_2021_01_workspace_RZA2M_ANPR/ANPR_RZA2M_GR_MANGO/src/tensorflow_lite/src/tensorflow/lite/kernels/internal\common.h **** 
   9:C:/Renesas/e2studio_2021_01_workspace_RZA2M_ANPR/ANPR_RZA2M_GR_MANGO/src/tensorflow_lite/src/tensorflow/lite/kernels/internal\common.h **** Unless required by applicable law or agreed to in writing, software
  10:C:/Renesas/e2studio_2021_01_workspace_RZA2M_ANPR/ANPR_RZA2M_GR_MANGO/src/tensorflow_lite/src/tensorflow/lite/kernels/internal\common.h **** distributed under the License is distributed on an "AS IS" BASIS,
  11:C:/Renesas/e2studio_2021_01_workspace_RZA2M_ANPR/ANPR_RZA2M_GR_MANGO/src/tensorflow_lite/src/tensorflow/lite/kernels/internal\common.h **** WITHOUT WARRANTIES OR CONDITIONS OF ANY KIND, either express or implied.
  12:C:/Renesas/e2studio_2021_01_workspace_RZA2M_ANPR/ANPR_RZA2M_GR_MANGO/src/tensorflow_lite/src/tensorflow/lite/kernels/internal\common.h **** See the License for the specific language governing permissions and
  13:C:/Renesas/e2studio_2021_01_workspace_RZA2M_ANPR/ANPR_RZA2M_GR_MANGO/src/tensorflow_lite/src/tensorflow/lite/kernels/internal\common.h **** limitations under the License.
  14:C:/Renesas/e2studio_2021_01_workspace_RZA2M_ANPR/ANPR_RZA2M_GR_MANGO/src/tensorflow_lite/src/tensorflow/lite/kernels/internal\common.h **** ==============================================================================*/
  15:C:/Renesas/e2studio_2021_01_workspace_RZA2M_ANPR/ANPR_RZA2M_GR_MANGO/src/tensorflow_lite/src/tensorflow/lite/kernels/internal\common.h **** #ifndef TENSORFLOW_LITE_KERNELS_INTERNAL_COMMON_H_
  16:C:/Renesas/e2studio_2021_01_workspace_RZA2M_ANPR/ANPR_RZA2M_GR_MANGO/src/tensorflow_lite/src/tensorflow/lite/kernels/internal\common.h **** #define TENSORFLOW_LITE_KERNELS_INTERNAL_COMMON_H_
  17:C:/Renesas/e2studio_2021_01_workspace_RZA2M_ANPR/ANPR_RZA2M_GR_MANGO/src/tensorflow_lite/src/tensorflow/lite/kernels/internal\common.h **** 
  18:C:/Renesas/e2studio_2021_01_workspace_RZA2M_ANPR/ANPR_RZA2M_GR_MANGO/src/tensorflow_lite/src/tensorflow/lite/kernels/internal\common.h **** #ifndef ALLOW_SLOW_GENERIC_DEPTHWISECONV_FALLBACK
  19:C:/Renesas/e2studio_2021_01_workspace_RZA2M_ANPR/ANPR_RZA2M_GR_MANGO/src/tensorflow_lite/src/tensorflow/lite/kernels/internal\common.h **** #ifdef GEMMLOWP_ALLOW_SLOW_SCALAR_FALLBACK
  20:C:/Renesas/e2studio_2021_01_workspace_RZA2M_ANPR/ANPR_RZA2M_GR_MANGO/src/tensorflow_lite/src/tensorflow/lite/kernels/internal\common.h **** #define ALLOW_SLOW_GENERIC_DEPTHWISECONV_FALLBACK
  21:C:/Renesas/e2studio_2021_01_workspace_RZA2M_ANPR/ANPR_RZA2M_GR_MANGO/src/tensorflow_lite/src/tensorflow/lite/kernels/internal\common.h **** #endif
  22:C:/Renesas/e2studio_2021_01_workspace_RZA2M_ANPR/ANPR_RZA2M_GR_MANGO/src/tensorflow_lite/src/tensorflow/lite/kernels/internal\common.h **** #endif
  23:C:/Renesas/e2studio_2021_01_workspace_RZA2M_ANPR/ANPR_RZA2M_GR_MANGO/src/tensorflow_lite/src/tensorflow/lite/kernels/internal\common.h **** 
  24:C:/Renesas/e2studio_2021_01_workspace_RZA2M_ANPR/ANPR_RZA2M_GR_MANGO/src/tensorflow_lite/src/tensorflow/lite/kernels/internal\common.h **** #include <functional>
  25:C:/Renesas/e2studio_2021_01_workspace_RZA2M_ANPR/ANPR_RZA2M_GR_MANGO/src/tensorflow_lite/src/tensorflow/lite/kernels/internal\common.h **** 
  26:C:/Renesas/e2studio_2021_01_workspace_RZA2M_ANPR/ANPR_RZA2M_GR_MANGO/src/tensorflow_lite/src/tensorflow/lite/kernels/internal\common.h **** #include "third_party/gemmlowp/fixedpoint/fixedpoint.h"
  27:C:/Renesas/e2studio_2021_01_workspace_RZA2M_ANPR/ANPR_RZA2M_GR_MANGO/src/tensorflow_lite/src/tensorflow/lite/kernels/internal\common.h **** #include "tensorflow/lite/kernels/internal/cppmath.h"
  28:C:/Renesas/e2studio_2021_01_workspace_RZA2M_ANPR/ANPR_RZA2M_GR_MANGO/src/tensorflow_lite/src/tensorflow/lite/kernels/internal\common.h **** #include "tensorflow/lite/kernels/internal/optimized/neon_check.h"
  29:C:/Renesas/e2studio_2021_01_workspace_RZA2M_ANPR/ANPR_RZA2M_GR_MANGO/src/tensorflow_lite/src/tensorflow/lite/kernels/internal\common.h **** #include "tensorflow/lite/kernels/internal/types.h"
  30:C:/Renesas/e2studio_2021_01_workspace_RZA2M_ANPR/ANPR_RZA2M_GR_MANGO/src/tensorflow_lite/src/tensorflow/lite/kernels/internal\common.h **** 
  31:C:/Renesas/e2studio_2021_01_workspace_RZA2M_ANPR/ANPR_RZA2M_GR_MANGO/src/tensorflow_lite/src/tensorflow/lite/kernels/internal\common.h **** namespace tflite {
  32:C:/Renesas/e2studio_2021_01_workspace_RZA2M_ANPR/ANPR_RZA2M_GR_MANGO/src/tensorflow_lite/src/tensorflow/lite/kernels/internal\common.h **** 
  33:C:/Renesas/e2studio_2021_01_workspace_RZA2M_ANPR/ANPR_RZA2M_GR_MANGO/src/tensorflow_lite/src/tensorflow/lite/kernels/internal\common.h **** constexpr int kReverseShift = -1;
  34:C:/Renesas/e2studio_2021_01_workspace_RZA2M_ANPR/ANPR_RZA2M_GR_MANGO/src/tensorflow_lite/src/tensorflow/lite/kernels/internal\common.h **** 
  35:C:/Renesas/e2studio_2021_01_workspace_RZA2M_ANPR/ANPR_RZA2M_GR_MANGO/src/tensorflow_lite/src/tensorflow/lite/kernels/internal\common.h **** inline void GetActivationMinMax(FusedActivationFunctionType ac,
  36:C:/Renesas/e2studio_2021_01_workspace_RZA2M_ANPR/ANPR_RZA2M_GR_MANGO/src/tensorflow_lite/src/tensorflow/lite/kernels/internal\common.h ****                                 float* output_activation_min,
  37:C:/Renesas/e2studio_2021_01_workspace_RZA2M_ANPR/ANPR_RZA2M_GR_MANGO/src/tensorflow_lite/src/tensorflow/lite/kernels/internal\common.h ****                                 float* output_activation_max) {
  38:C:/Renesas/e2studio_2021_01_workspace_RZA2M_ANPR/ANPR_RZA2M_GR_MANGO/src/tensorflow_lite/src/tensorflow/lite/kernels/internal\common.h ****   switch (ac) {
  39:C:/Renesas/e2studio_2021_01_workspace_RZA2M_ANPR/ANPR_RZA2M_GR_MANGO/src/tensorflow_lite/src/tensorflow/lite/kernels/internal\common.h ****     case FusedActivationFunctionType::kNone:
  40:C:/Renesas/e2studio_2021_01_workspace_RZA2M_ANPR/ANPR_RZA2M_GR_MANGO/src/tensorflow_lite/src/tensorflow/lite/kernels/internal\common.h ****       *output_activation_min = std::numeric_limits<float>::lowest();
  41:C:/Renesas/e2studio_2021_01_workspace_RZA2M_ANPR/ANPR_RZA2M_GR_MANGO/src/tensorflow_lite/src/tensorflow/lite/kernels/internal\common.h ****       *output_activation_max = std::numeric_limits<float>::max();
  42:C:/Renesas/e2studio_2021_01_workspace_RZA2M_ANPR/ANPR_RZA2M_GR_MANGO/src/tensorflow_lite/src/tensorflow/lite/kernels/internal\common.h ****       break;
  43:C:/Renesas/e2studio_2021_01_workspace_RZA2M_ANPR/ANPR_RZA2M_GR_MANGO/src/tensorflow_lite/src/tensorflow/lite/kernels/internal\common.h ****     case FusedActivationFunctionType::kRelu:
  44:C:/Renesas/e2studio_2021_01_workspace_RZA2M_ANPR/ANPR_RZA2M_GR_MANGO/src/tensorflow_lite/src/tensorflow/lite/kernels/internal\common.h ****       *output_activation_min = 0.f;
  45:C:/Renesas/e2studio_2021_01_workspace_RZA2M_ANPR/ANPR_RZA2M_GR_MANGO/src/tensorflow_lite/src/tensorflow/lite/kernels/internal\common.h ****       *output_activation_max = std::numeric_limits<float>::max();
  46:C:/Renesas/e2studio_2021_01_workspace_RZA2M_ANPR/ANPR_RZA2M_GR_MANGO/src/tensorflow_lite/src/tensorflow/lite/kernels/internal\common.h ****       break;
  47:C:/Renesas/e2studio_2021_01_workspace_RZA2M_ANPR/ANPR_RZA2M_GR_MANGO/src/tensorflow_lite/src/tensorflow/lite/kernels/internal\common.h ****     case FusedActivationFunctionType::kRelu1:
  48:C:/Renesas/e2studio_2021_01_workspace_RZA2M_ANPR/ANPR_RZA2M_GR_MANGO/src/tensorflow_lite/src/tensorflow/lite/kernels/internal\common.h ****       *output_activation_min = -1.f;
  49:C:/Renesas/e2studio_2021_01_workspace_RZA2M_ANPR/ANPR_RZA2M_GR_MANGO/src/tensorflow_lite/src/tensorflow/lite/kernels/internal\common.h ****       *output_activation_max = 1.f;
  50:C:/Renesas/e2studio_2021_01_workspace_RZA2M_ANPR/ANPR_RZA2M_GR_MANGO/src/tensorflow_lite/src/tensorflow/lite/kernels/internal\common.h ****       break;
  51:C:/Renesas/e2studio_2021_01_workspace_RZA2M_ANPR/ANPR_RZA2M_GR_MANGO/src/tensorflow_lite/src/tensorflow/lite/kernels/internal\common.h ****     case FusedActivationFunctionType::kRelu6:
  52:C:/Renesas/e2studio_2021_01_workspace_RZA2M_ANPR/ANPR_RZA2M_GR_MANGO/src/tensorflow_lite/src/tensorflow/lite/kernels/internal\common.h ****       *output_activation_min = 0.f;
  53:C:/Renesas/e2studio_2021_01_workspace_RZA2M_ANPR/ANPR_RZA2M_GR_MANGO/src/tensorflow_lite/src/tensorflow/lite/kernels/internal\common.h ****       *output_activation_max = 6.f;
  54:C:/Renesas/e2studio_2021_01_workspace_RZA2M_ANPR/ANPR_RZA2M_GR_MANGO/src/tensorflow_lite/src/tensorflow/lite/kernels/internal\common.h ****       break;
  55:C:/Renesas/e2studio_2021_01_workspace_RZA2M_ANPR/ANPR_RZA2M_GR_MANGO/src/tensorflow_lite/src/tensorflow/lite/kernels/internal\common.h ****   }
  56:C:/Renesas/e2studio_2021_01_workspace_RZA2M_ANPR/ANPR_RZA2M_GR_MANGO/src/tensorflow_lite/src/tensorflow/lite/kernels/internal\common.h **** }
  57:C:/Renesas/e2studio_2021_01_workspace_RZA2M_ANPR/ANPR_RZA2M_GR_MANGO/src/tensorflow_lite/src/tensorflow/lite/kernels/internal\common.h **** 
  58:C:/Renesas/e2studio_2021_01_workspace_RZA2M_ANPR/ANPR_RZA2M_GR_MANGO/src/tensorflow_lite/src/tensorflow/lite/kernels/internal\common.h **** template <typename T>
  59:C:/Renesas/e2studio_2021_01_workspace_RZA2M_ANPR/ANPR_RZA2M_GR_MANGO/src/tensorflow_lite/src/tensorflow/lite/kernels/internal\common.h **** inline T ActivationFunctionWithMinMax(T x, T output_activation_min,
  60:C:/Renesas/e2studio_2021_01_workspace_RZA2M_ANPR/ANPR_RZA2M_GR_MANGO/src/tensorflow_lite/src/tensorflow/lite/kernels/internal\common.h ****                                       T output_activation_max) {
  61:C:/Renesas/e2studio_2021_01_workspace_RZA2M_ANPR/ANPR_RZA2M_GR_MANGO/src/tensorflow_lite/src/tensorflow/lite/kernels/internal\common.h ****   using std::max;
  62:C:/Renesas/e2studio_2021_01_workspace_RZA2M_ANPR/ANPR_RZA2M_GR_MANGO/src/tensorflow_lite/src/tensorflow/lite/kernels/internal\common.h ****   using std::min;
  63:C:/Renesas/e2studio_2021_01_workspace_RZA2M_ANPR/ANPR_RZA2M_GR_MANGO/src/tensorflow_lite/src/tensorflow/lite/kernels/internal\common.h ****   return min(max(x, output_activation_min), output_activation_max);
  64:C:/Renesas/e2studio_2021_01_workspace_RZA2M_ANPR/ANPR_RZA2M_GR_MANGO/src/tensorflow_lite/src/tensorflow/lite/kernels/internal\common.h **** }
  65:C:/Renesas/e2studio_2021_01_workspace_RZA2M_ANPR/ANPR_RZA2M_GR_MANGO/src/tensorflow_lite/src/tensorflow/lite/kernels/internal\common.h **** 
  66:C:/Renesas/e2studio_2021_01_workspace_RZA2M_ANPR/ANPR_RZA2M_GR_MANGO/src/tensorflow_lite/src/tensorflow/lite/kernels/internal\common.h **** // Legacy function, left for compatibility only.
  67:C:/Renesas/e2studio_2021_01_workspace_RZA2M_ANPR/ANPR_RZA2M_GR_MANGO/src/tensorflow_lite/src/tensorflow/lite/kernels/internal\common.h **** template <FusedActivationFunctionType Ac>
  68:C:/Renesas/e2studio_2021_01_workspace_RZA2M_ANPR/ANPR_RZA2M_GR_MANGO/src/tensorflow_lite/src/tensorflow/lite/kernels/internal\common.h **** float ActivationFunction(float x) {
  69:C:/Renesas/e2studio_2021_01_workspace_RZA2M_ANPR/ANPR_RZA2M_GR_MANGO/src/tensorflow_lite/src/tensorflow/lite/kernels/internal\common.h ****   float output_activation_min, output_activation_max;
  70:C:/Renesas/e2studio_2021_01_workspace_RZA2M_ANPR/ANPR_RZA2M_GR_MANGO/src/tensorflow_lite/src/tensorflow/lite/kernels/internal\common.h ****   GetActivationMinMax(Ac, &output_activation_min, &output_activation_max);
  71:C:/Renesas/e2studio_2021_01_workspace_RZA2M_ANPR/ANPR_RZA2M_GR_MANGO/src/tensorflow_lite/src/tensorflow/lite/kernels/internal\common.h ****   return ActivationFunctionWithMinMax(x, output_activation_min,
  72:C:/Renesas/e2studio_2021_01_workspace_RZA2M_ANPR/ANPR_RZA2M_GR_MANGO/src/tensorflow_lite/src/tensorflow/lite/kernels/internal\common.h ****                                       output_activation_max);
  73:C:/Renesas/e2studio_2021_01_workspace_RZA2M_ANPR/ANPR_RZA2M_GR_MANGO/src/tensorflow_lite/src/tensorflow/lite/kernels/internal\common.h **** }
  74:C:/Renesas/e2studio_2021_01_workspace_RZA2M_ANPR/ANPR_RZA2M_GR_MANGO/src/tensorflow_lite/src/tensorflow/lite/kernels/internal\common.h **** 
  75:C:/Renesas/e2studio_2021_01_workspace_RZA2M_ANPR/ANPR_RZA2M_GR_MANGO/src/tensorflow_lite/src/tensorflow/lite/kernels/internal\common.h **** inline void BiasAndClamp(float clamp_min, float clamp_max, int bias_size,
  76:C:/Renesas/e2studio_2021_01_workspace_RZA2M_ANPR/ANPR_RZA2M_GR_MANGO/src/tensorflow_lite/src/tensorflow/lite/kernels/internal\common.h ****                          const float* bias_data, int array_size,
  77:C:/Renesas/e2studio_2021_01_workspace_RZA2M_ANPR/ANPR_RZA2M_GR_MANGO/src/tensorflow_lite/src/tensorflow/lite/kernels/internal\common.h ****                          float* array_data) {
  78:C:/Renesas/e2studio_2021_01_workspace_RZA2M_ANPR/ANPR_RZA2M_GR_MANGO/src/tensorflow_lite/src/tensorflow/lite/kernels/internal\common.h ****   // Note: see b/132215220: in May 2019 we thought it would be OK to replace
  79:C:/Renesas/e2studio_2021_01_workspace_RZA2M_ANPR/ANPR_RZA2M_GR_MANGO/src/tensorflow_lite/src/tensorflow/lite/kernels/internal\common.h ****   // this with the Eigen one-liner:
  80:C:/Renesas/e2studio_2021_01_workspace_RZA2M_ANPR/ANPR_RZA2M_GR_MANGO/src/tensorflow_lite/src/tensorflow/lite/kernels/internal\common.h ****   //   return (array.colwise() + bias).cwiseMin(clamp_max).cwiseMin(clamp_max).
  81:C:/Renesas/e2studio_2021_01_workspace_RZA2M_ANPR/ANPR_RZA2M_GR_MANGO/src/tensorflow_lite/src/tensorflow/lite/kernels/internal\common.h ****   // This turned out to severely regress performance: +4ms (i.e. 8%) on
  82:C:/Renesas/e2studio_2021_01_workspace_RZA2M_ANPR/ANPR_RZA2M_GR_MANGO/src/tensorflow_lite/src/tensorflow/lite/kernels/internal\common.h ****   // MobileNet v2 / 1.0 / 224. So we keep custom NEON code for now.
  83:C:/Renesas/e2studio_2021_01_workspace_RZA2M_ANPR/ANPR_RZA2M_GR_MANGO/src/tensorflow_lite/src/tensorflow/lite/kernels/internal\common.h ****   TFLITE_DCHECK_EQ((array_size % bias_size), 0);
  84:C:/Renesas/e2studio_2021_01_workspace_RZA2M_ANPR/ANPR_RZA2M_GR_MANGO/src/tensorflow_lite/src/tensorflow/lite/kernels/internal\common.h **** #ifdef USE_NEON
  85:C:/Renesas/e2studio_2021_01_workspace_RZA2M_ANPR/ANPR_RZA2M_GR_MANGO/src/tensorflow_lite/src/tensorflow/lite/kernels/internal\common.h ****   float* array_ptr = array_data;
  86:C:/Renesas/e2studio_2021_01_workspace_RZA2M_ANPR/ANPR_RZA2M_GR_MANGO/src/tensorflow_lite/src/tensorflow/lite/kernels/internal\common.h ****   float* array_end_ptr = array_ptr + array_size;
  87:C:/Renesas/e2studio_2021_01_workspace_RZA2M_ANPR/ANPR_RZA2M_GR_MANGO/src/tensorflow_lite/src/tensorflow/lite/kernels/internal\common.h ****   const auto clamp_min_vec = vdupq_n_f32(clamp_min);
  88:C:/Renesas/e2studio_2021_01_workspace_RZA2M_ANPR/ANPR_RZA2M_GR_MANGO/src/tensorflow_lite/src/tensorflow/lite/kernels/internal\common.h ****   const auto clamp_max_vec = vdupq_n_f32(clamp_max);
  89:C:/Renesas/e2studio_2021_01_workspace_RZA2M_ANPR/ANPR_RZA2M_GR_MANGO/src/tensorflow_lite/src/tensorflow/lite/kernels/internal\common.h ****   for (; array_ptr != array_end_ptr; array_ptr += bias_size) {
  90:C:/Renesas/e2studio_2021_01_workspace_RZA2M_ANPR/ANPR_RZA2M_GR_MANGO/src/tensorflow_lite/src/tensorflow/lite/kernels/internal\common.h ****     int i = 0;
  91:C:/Renesas/e2studio_2021_01_workspace_RZA2M_ANPR/ANPR_RZA2M_GR_MANGO/src/tensorflow_lite/src/tensorflow/lite/kernels/internal\common.h ****     for (; i <= bias_size - 16; i += 16) {
  92:C:/Renesas/e2studio_2021_01_workspace_RZA2M_ANPR/ANPR_RZA2M_GR_MANGO/src/tensorflow_lite/src/tensorflow/lite/kernels/internal\common.h ****       auto b0 = vld1q_f32(bias_data + i);
  93:C:/Renesas/e2studio_2021_01_workspace_RZA2M_ANPR/ANPR_RZA2M_GR_MANGO/src/tensorflow_lite/src/tensorflow/lite/kernels/internal\common.h ****       auto b1 = vld1q_f32(bias_data + i + 4);
  94:C:/Renesas/e2studio_2021_01_workspace_RZA2M_ANPR/ANPR_RZA2M_GR_MANGO/src/tensorflow_lite/src/tensorflow/lite/kernels/internal\common.h ****       auto b2 = vld1q_f32(bias_data + i + 8);
  95:C:/Renesas/e2studio_2021_01_workspace_RZA2M_ANPR/ANPR_RZA2M_GR_MANGO/src/tensorflow_lite/src/tensorflow/lite/kernels/internal\common.h ****       auto b3 = vld1q_f32(bias_data + i + 12);
  96:C:/Renesas/e2studio_2021_01_workspace_RZA2M_ANPR/ANPR_RZA2M_GR_MANGO/src/tensorflow_lite/src/tensorflow/lite/kernels/internal\common.h ****       auto a0 = vld1q_f32(array_ptr + i);
  97:C:/Renesas/e2studio_2021_01_workspace_RZA2M_ANPR/ANPR_RZA2M_GR_MANGO/src/tensorflow_lite/src/tensorflow/lite/kernels/internal\common.h ****       auto a1 = vld1q_f32(array_ptr + i + 4);
  98:C:/Renesas/e2studio_2021_01_workspace_RZA2M_ANPR/ANPR_RZA2M_GR_MANGO/src/tensorflow_lite/src/tensorflow/lite/kernels/internal\common.h ****       auto a2 = vld1q_f32(array_ptr + i + 8);
  99:C:/Renesas/e2studio_2021_01_workspace_RZA2M_ANPR/ANPR_RZA2M_GR_MANGO/src/tensorflow_lite/src/tensorflow/lite/kernels/internal\common.h ****       auto a3 = vld1q_f32(array_ptr + i + 12);
 100:C:/Renesas/e2studio_2021_01_workspace_RZA2M_ANPR/ANPR_RZA2M_GR_MANGO/src/tensorflow_lite/src/tensorflow/lite/kernels/internal\common.h ****       auto x0 = vaddq_f32(a0, b0);
 101:C:/Renesas/e2studio_2021_01_workspace_RZA2M_ANPR/ANPR_RZA2M_GR_MANGO/src/tensorflow_lite/src/tensorflow/lite/kernels/internal\common.h ****       auto x1 = vaddq_f32(a1, b1);
 102:C:/Renesas/e2studio_2021_01_workspace_RZA2M_ANPR/ANPR_RZA2M_GR_MANGO/src/tensorflow_lite/src/tensorflow/lite/kernels/internal\common.h ****       auto x2 = vaddq_f32(a2, b2);
 103:C:/Renesas/e2studio_2021_01_workspace_RZA2M_ANPR/ANPR_RZA2M_GR_MANGO/src/tensorflow_lite/src/tensorflow/lite/kernels/internal\common.h ****       auto x3 = vaddq_f32(a3, b3);
 104:C:/Renesas/e2studio_2021_01_workspace_RZA2M_ANPR/ANPR_RZA2M_GR_MANGO/src/tensorflow_lite/src/tensorflow/lite/kernels/internal\common.h ****       x0 = vmaxq_f32(clamp_min_vec, x0);
 105:C:/Renesas/e2studio_2021_01_workspace_RZA2M_ANPR/ANPR_RZA2M_GR_MANGO/src/tensorflow_lite/src/tensorflow/lite/kernels/internal\common.h ****       x1 = vmaxq_f32(clamp_min_vec, x1);
 106:C:/Renesas/e2studio_2021_01_workspace_RZA2M_ANPR/ANPR_RZA2M_GR_MANGO/src/tensorflow_lite/src/tensorflow/lite/kernels/internal\common.h ****       x2 = vmaxq_f32(clamp_min_vec, x2);
 107:C:/Renesas/e2studio_2021_01_workspace_RZA2M_ANPR/ANPR_RZA2M_GR_MANGO/src/tensorflow_lite/src/tensorflow/lite/kernels/internal\common.h ****       x3 = vmaxq_f32(clamp_min_vec, x3);
 108:C:/Renesas/e2studio_2021_01_workspace_RZA2M_ANPR/ANPR_RZA2M_GR_MANGO/src/tensorflow_lite/src/tensorflow/lite/kernels/internal\common.h ****       x0 = vminq_f32(clamp_max_vec, x0);
 109:C:/Renesas/e2studio_2021_01_workspace_RZA2M_ANPR/ANPR_RZA2M_GR_MANGO/src/tensorflow_lite/src/tensorflow/lite/kernels/internal\common.h ****       x1 = vminq_f32(clamp_max_vec, x1);
 110:C:/Renesas/e2studio_2021_01_workspace_RZA2M_ANPR/ANPR_RZA2M_GR_MANGO/src/tensorflow_lite/src/tensorflow/lite/kernels/internal\common.h ****       x2 = vminq_f32(clamp_max_vec, x2);
 111:C:/Renesas/e2studio_2021_01_workspace_RZA2M_ANPR/ANPR_RZA2M_GR_MANGO/src/tensorflow_lite/src/tensorflow/lite/kernels/internal\common.h ****       x3 = vminq_f32(clamp_max_vec, x3);
 112:C:/Renesas/e2studio_2021_01_workspace_RZA2M_ANPR/ANPR_RZA2M_GR_MANGO/src/tensorflow_lite/src/tensorflow/lite/kernels/internal\common.h ****       vst1q_f32(array_ptr + i, x0);
 113:C:/Renesas/e2studio_2021_01_workspace_RZA2M_ANPR/ANPR_RZA2M_GR_MANGO/src/tensorflow_lite/src/tensorflow/lite/kernels/internal\common.h ****       vst1q_f32(array_ptr + i + 4, x1);
 114:C:/Renesas/e2studio_2021_01_workspace_RZA2M_ANPR/ANPR_RZA2M_GR_MANGO/src/tensorflow_lite/src/tensorflow/lite/kernels/internal\common.h ****       vst1q_f32(array_ptr + i + 8, x2);
 115:C:/Renesas/e2studio_2021_01_workspace_RZA2M_ANPR/ANPR_RZA2M_GR_MANGO/src/tensorflow_lite/src/tensorflow/lite/kernels/internal\common.h ****       vst1q_f32(array_ptr + i + 12, x3);
 116:C:/Renesas/e2studio_2021_01_workspace_RZA2M_ANPR/ANPR_RZA2M_GR_MANGO/src/tensorflow_lite/src/tensorflow/lite/kernels/internal\common.h ****     }
 117:C:/Renesas/e2studio_2021_01_workspace_RZA2M_ANPR/ANPR_RZA2M_GR_MANGO/src/tensorflow_lite/src/tensorflow/lite/kernels/internal\common.h ****     for (; i <= bias_size - 4; i += 4) {
 118:C:/Renesas/e2studio_2021_01_workspace_RZA2M_ANPR/ANPR_RZA2M_GR_MANGO/src/tensorflow_lite/src/tensorflow/lite/kernels/internal\common.h ****       auto b = vld1q_f32(bias_data + i);
 119:C:/Renesas/e2studio_2021_01_workspace_RZA2M_ANPR/ANPR_RZA2M_GR_MANGO/src/tensorflow_lite/src/tensorflow/lite/kernels/internal\common.h ****       auto a = vld1q_f32(array_ptr + i);
 120:C:/Renesas/e2studio_2021_01_workspace_RZA2M_ANPR/ANPR_RZA2M_GR_MANGO/src/tensorflow_lite/src/tensorflow/lite/kernels/internal\common.h ****       auto x = vaddq_f32(a, b);
 121:C:/Renesas/e2studio_2021_01_workspace_RZA2M_ANPR/ANPR_RZA2M_GR_MANGO/src/tensorflow_lite/src/tensorflow/lite/kernels/internal\common.h ****       x = vmaxq_f32(clamp_min_vec, x);
 122:C:/Renesas/e2studio_2021_01_workspace_RZA2M_ANPR/ANPR_RZA2M_GR_MANGO/src/tensorflow_lite/src/tensorflow/lite/kernels/internal\common.h ****       x = vminq_f32(clamp_max_vec, x);
 123:C:/Renesas/e2studio_2021_01_workspace_RZA2M_ANPR/ANPR_RZA2M_GR_MANGO/src/tensorflow_lite/src/tensorflow/lite/kernels/internal\common.h ****       vst1q_f32(array_ptr + i, x);
 124:C:/Renesas/e2studio_2021_01_workspace_RZA2M_ANPR/ANPR_RZA2M_GR_MANGO/src/tensorflow_lite/src/tensorflow/lite/kernels/internal\common.h ****     }
 125:C:/Renesas/e2studio_2021_01_workspace_RZA2M_ANPR/ANPR_RZA2M_GR_MANGO/src/tensorflow_lite/src/tensorflow/lite/kernels/internal\common.h ****     for (; i < bias_size; i++) {
 126:C:/Renesas/e2studio_2021_01_workspace_RZA2M_ANPR/ANPR_RZA2M_GR_MANGO/src/tensorflow_lite/src/tensorflow/lite/kernels/internal\common.h ****       array_ptr[i] = ActivationFunctionWithMinMax(array_ptr[i] + bias_data[i],
 127:C:/Renesas/e2studio_2021_01_workspace_RZA2M_ANPR/ANPR_RZA2M_GR_MANGO/src/tensorflow_lite/src/tensorflow/lite/kernels/internal\common.h ****                                                   clamp_min, clamp_max);
 128:C:/Renesas/e2studio_2021_01_workspace_RZA2M_ANPR/ANPR_RZA2M_GR_MANGO/src/tensorflow_lite/src/tensorflow/lite/kernels/internal\common.h ****     }
 129:C:/Renesas/e2studio_2021_01_workspace_RZA2M_ANPR/ANPR_RZA2M_GR_MANGO/src/tensorflow_lite/src/tensorflow/lite/kernels/internal\common.h ****   }
 130:C:/Renesas/e2studio_2021_01_workspace_RZA2M_ANPR/ANPR_RZA2M_GR_MANGO/src/tensorflow_lite/src/tensorflow/lite/kernels/internal\common.h **** #else  // not NEON
 131:C:/Renesas/e2studio_2021_01_workspace_RZA2M_ANPR/ANPR_RZA2M_GR_MANGO/src/tensorflow_lite/src/tensorflow/lite/kernels/internal\common.h ****   for (int array_offset = 0; array_offset < array_size;
 132:C:/Renesas/e2studio_2021_01_workspace_RZA2M_ANPR/ANPR_RZA2M_GR_MANGO/src/tensorflow_lite/src/tensorflow/lite/kernels/internal\common.h ****        array_offset += bias_size) {
 133:C:/Renesas/e2studio_2021_01_workspace_RZA2M_ANPR/ANPR_RZA2M_GR_MANGO/src/tensorflow_lite/src/tensorflow/lite/kernels/internal\common.h ****     for (int i = 0; i < bias_size; i++) {
 134:C:/Renesas/e2studio_2021_01_workspace_RZA2M_ANPR/ANPR_RZA2M_GR_MANGO/src/tensorflow_lite/src/tensorflow/lite/kernels/internal\common.h ****       array_data[array_offset + i] = ActivationFunctionWithMinMax(
 135:C:/Renesas/e2studio_2021_01_workspace_RZA2M_ANPR/ANPR_RZA2M_GR_MANGO/src/tensorflow_lite/src/tensorflow/lite/kernels/internal\common.h ****           array_data[array_offset + i] + bias_data[i], clamp_min, clamp_max);
 136:C:/Renesas/e2studio_2021_01_workspace_RZA2M_ANPR/ANPR_RZA2M_GR_MANGO/src/tensorflow_lite/src/tensorflow/lite/kernels/internal\common.h ****     }
 137:C:/Renesas/e2studio_2021_01_workspace_RZA2M_ANPR/ANPR_RZA2M_GR_MANGO/src/tensorflow_lite/src/tensorflow/lite/kernels/internal\common.h ****   }
 138:C:/Renesas/e2studio_2021_01_workspace_RZA2M_ANPR/ANPR_RZA2M_GR_MANGO/src/tensorflow_lite/src/tensorflow/lite/kernels/internal\common.h **** #endif
 139:C:/Renesas/e2studio_2021_01_workspace_RZA2M_ANPR/ANPR_RZA2M_GR_MANGO/src/tensorflow_lite/src/tensorflow/lite/kernels/internal\common.h **** }
 140:C:/Renesas/e2studio_2021_01_workspace_RZA2M_ANPR/ANPR_RZA2M_GR_MANGO/src/tensorflow_lite/src/tensorflow/lite/kernels/internal\common.h **** 
 141:C:/Renesas/e2studio_2021_01_workspace_RZA2M_ANPR/ANPR_RZA2M_GR_MANGO/src/tensorflow_lite/src/tensorflow/lite/kernels/internal\common.h **** inline int32_t MultiplyByQuantizedMultiplierSmallerThanOneExp(
 142:C:/Renesas/e2studio_2021_01_workspace_RZA2M_ANPR/ANPR_RZA2M_GR_MANGO/src/tensorflow_lite/src/tensorflow/lite/kernels/internal\common.h ****     int32_t x, int32_t quantized_multiplier, int left_shift) {
 143:C:/Renesas/e2studio_2021_01_workspace_RZA2M_ANPR/ANPR_RZA2M_GR_MANGO/src/tensorflow_lite/src/tensorflow/lite/kernels/internal\common.h ****   using gemmlowp::RoundingDivideByPOT;
 144:C:/Renesas/e2studio_2021_01_workspace_RZA2M_ANPR/ANPR_RZA2M_GR_MANGO/src/tensorflow_lite/src/tensorflow/lite/kernels/internal\common.h ****   using gemmlowp::SaturatingRoundingDoublingHighMul;
 145:C:/Renesas/e2studio_2021_01_workspace_RZA2M_ANPR/ANPR_RZA2M_GR_MANGO/src/tensorflow_lite/src/tensorflow/lite/kernels/internal\common.h ****   return RoundingDivideByPOT(
 146:C:/Renesas/e2studio_2021_01_workspace_RZA2M_ANPR/ANPR_RZA2M_GR_MANGO/src/tensorflow_lite/src/tensorflow/lite/kernels/internal\common.h ****       SaturatingRoundingDoublingHighMul(x, quantized_multiplier), -left_shift);
 147:C:/Renesas/e2studio_2021_01_workspace_RZA2M_ANPR/ANPR_RZA2M_GR_MANGO/src/tensorflow_lite/src/tensorflow/lite/kernels/internal\common.h **** }
 148:C:/Renesas/e2studio_2021_01_workspace_RZA2M_ANPR/ANPR_RZA2M_GR_MANGO/src/tensorflow_lite/src/tensorflow/lite/kernels/internal\common.h **** 
 149:C:/Renesas/e2studio_2021_01_workspace_RZA2M_ANPR/ANPR_RZA2M_GR_MANGO/src/tensorflow_lite/src/tensorflow/lite/kernels/internal\common.h **** inline int32_t MultiplyByQuantizedMultiplierGreaterThanOne(
 150:C:/Renesas/e2studio_2021_01_workspace_RZA2M_ANPR/ANPR_RZA2M_GR_MANGO/src/tensorflow_lite/src/tensorflow/lite/kernels/internal\common.h ****     int32_t x, int32_t quantized_multiplier, int left_shift) {
 151:C:/Renesas/e2studio_2021_01_workspace_RZA2M_ANPR/ANPR_RZA2M_GR_MANGO/src/tensorflow_lite/src/tensorflow/lite/kernels/internal\common.h ****   using gemmlowp::SaturatingRoundingDoublingHighMul;
 152:C:/Renesas/e2studio_2021_01_workspace_RZA2M_ANPR/ANPR_RZA2M_GR_MANGO/src/tensorflow_lite/src/tensorflow/lite/kernels/internal\common.h ****   return SaturatingRoundingDoublingHighMul(x * (1 << left_shift),
 153:C:/Renesas/e2studio_2021_01_workspace_RZA2M_ANPR/ANPR_RZA2M_GR_MANGO/src/tensorflow_lite/src/tensorflow/lite/kernels/internal\common.h ****                                            quantized_multiplier);
 154:C:/Renesas/e2studio_2021_01_workspace_RZA2M_ANPR/ANPR_RZA2M_GR_MANGO/src/tensorflow_lite/src/tensorflow/lite/kernels/internal\common.h **** }
 155:C:/Renesas/e2studio_2021_01_workspace_RZA2M_ANPR/ANPR_RZA2M_GR_MANGO/src/tensorflow_lite/src/tensorflow/lite/kernels/internal\common.h **** 
 156:C:/Renesas/e2studio_2021_01_workspace_RZA2M_ANPR/ANPR_RZA2M_GR_MANGO/src/tensorflow_lite/src/tensorflow/lite/kernels/internal\common.h **** inline int32_t MultiplyByQuantizedMultiplier(int32_t x,
 157:C:/Renesas/e2studio_2021_01_workspace_RZA2M_ANPR/ANPR_RZA2M_GR_MANGO/src/tensorflow_lite/src/tensorflow/lite/kernels/internal\common.h ****                                              int32_t quantized_multiplier,
 158:C:/Renesas/e2studio_2021_01_workspace_RZA2M_ANPR/ANPR_RZA2M_GR_MANGO/src/tensorflow_lite/src/tensorflow/lite/kernels/internal\common.h ****                                              int shift) {
 159:C:/Renesas/e2studio_2021_01_workspace_RZA2M_ANPR/ANPR_RZA2M_GR_MANGO/src/tensorflow_lite/src/tensorflow/lite/kernels/internal\common.h ****   using gemmlowp::RoundingDivideByPOT;
 160:C:/Renesas/e2studio_2021_01_workspace_RZA2M_ANPR/ANPR_RZA2M_GR_MANGO/src/tensorflow_lite/src/tensorflow/lite/kernels/internal\common.h ****   using gemmlowp::SaturatingRoundingDoublingHighMul;
 161:C:/Renesas/e2studio_2021_01_workspace_RZA2M_ANPR/ANPR_RZA2M_GR_MANGO/src/tensorflow_lite/src/tensorflow/lite/kernels/internal\common.h ****   int left_shift = shift > 0 ? shift : 0;
 162:C:/Renesas/e2studio_2021_01_workspace_RZA2M_ANPR/ANPR_RZA2M_GR_MANGO/src/tensorflow_lite/src/tensorflow/lite/kernels/internal\common.h ****   int right_shift = shift > 0 ? 0 : -shift;
 700              		.loc 5 162 0
 701 04a4 000053E3 		cmp	r3, #0
 702              	.LBE338:
 703              	.LBE360:
 704              		.loc 2 206 0
 705 04a8 0420B1E5 		ldr	r2, [r1, #4]!
 706              	.LBB361:
 707              	.LBB339:
 708              		.loc 5 162 0
 709 04ac 000063D2 		rsble	r0, r3, #0
 710 04b0 0000A0C3 		movgt	r0, #0
 711              	.LBE339:
 712              	.LBE361:
 713              		.loc 2 206 0
 714 04b4 54108DE5 		str	r1, [sp, #84]
 715              	.LVL76:
 716              	.LBB362:
 717              	.LBB340:
 161:C:/Renesas/e2studio_2021_01_workspace_RZA2M_ANPR/ANPR_RZA2M_GR_MANGO/src/tensorflow_lite/src/tensorflow/lite/kernels/internal\common.h ****   int right_shift = shift > 0 ? 0 : -shift;
 718              		.loc 5 161 0
 719 04b8 C31FC3E1 		bic	r1, r3, r3, asr #31
 720              	.LVL77:
 163:C:/Renesas/e2studio_2021_01_workspace_RZA2M_ANPR/ANPR_RZA2M_GR_MANGO/src/tensorflow_lite/src/tensorflow/lite/kernels/internal\common.h ****   return RoundingDivideByPOT(SaturatingRoundingDoublingHighMul(
 721              		.loc 5 163 0
 722 04bc 1711A0E1 		lsl	r1, r7, r1
 723              	.LVL78:
 724              	.LBB332:
 725              	.LBB333:
 334:C:/Renesas/e2studio_2021_01_workspace_RZA2M_ANPR/ANPR_RZA2M_GR_MANGO/src/tensorflow_lite/src/third_party/gemmlowp/fixedpoint\fixedpoint.h ****   std::int32_t nudge = ab_64 >= 0 ? (1 << 30) : (1 - (1 << 30));
 726              		.loc 4 334 0
 727 04c0 9142C5E0 		smull	r4, r5, r1, r2
 331:C:/Renesas/e2studio_2021_01_workspace_RZA2M_ANPR/ANPR_RZA2M_GR_MANGO/src/tensorflow_lite/src/third_party/gemmlowp/fixedpoint\fixedpoint.h ****   std::int64_t a_64(a);
 728              		.loc 4 331 0
 729 04c4 010052E1 		cmp	r2, r1
 730 04c8 02015103 		cmpeq	r1, #-2147483648
 731 04cc 0110A003 		moveq	r1, #1
 732              	.LVL79:
 733 04d0 0010A013 		movne	r1, #0
 734              	.LVL80:
 335:C:/Renesas/e2studio_2021_01_workspace_RZA2M_ANPR/ANPR_RZA2M_GR_MANGO/src/tensorflow_lite/src/third_party/gemmlowp/fixedpoint\fixedpoint.h ****   std::int32_t ab_x2_high32 =
 735              		.loc 4 335 0
 736 04d4 000054E3 		cmp	r4, #0
 737 04d8 0030D5E2 		sbcs	r3, r5, #0
 738              	.LVL81:
 739 04dc 730000BA 		blt	.L66
 740 04e0 0121A0E3 		mov	r2, #1073741824
 741              	.LVL82:
 742 04e4 0030A0E3 		mov	r3, #0
 743              	.L45:
 744              	.LVL83:
 338:C:/Renesas/e2studio_2021_01_workspace_RZA2M_ANPR/ANPR_RZA2M_GR_MANGO/src/tensorflow_lite/src/third_party/gemmlowp/fixedpoint\fixedpoint.h **** }
 745              		.loc 4 338 0
 746 04e8 000051E3 		cmp	r1, #0
 747 04ec 6D00001A 		bne	.L86
 337:C:/Renesas/e2studio_2021_01_workspace_RZA2M_ANPR/ANPR_RZA2M_GR_MANGO/src/tensorflow_lite/src/third_party/gemmlowp/fixedpoint\fixedpoint.h ****   return overflow ? std::numeric_limits<std::int32_t>::max() : ab_x2_high32;
 748              		.loc 4 337 0
 749 04f0 024094E0 		adds	r4, r4, r2
 750              	.LVL84:
 751 04f4 0350A5E0 		adc	r5, r5, r3
 752 04f8 0030A0E3 		mov	r3, #0
 753 04fc C52FA0E1 		asr	r2, r5, #31
 754              	.LVL85:
 755 0500 0221C2E3 		bic	r2, r2, #-2147483648
 756 0504 042092E0 		adds	r2, r2, r4
 757 0508 A22FA0E1 		lsr	r2, r2, #31
 758 050c 0530A3E0 		adc	r3, r3, r5
 759 0510 832082E1 		orr	r2, r2, r3, lsl #1
 760              	.L51:
 761              	.LVL86:
 762              	.LBE333:
 763              	.LBE332:
 764              	.LBB335:
 765              	.LBB330:
 359:C:/Renesas/e2studio_2021_01_workspace_RZA2M_ANPR/ANPR_RZA2M_GR_MANGO/src/tensorflow_lite/src/third_party/gemmlowp/fixedpoint\fixedpoint.h ****   const IntegerType mask = Dup<IntegerType>((1ll << exponent) - 1);
 766              		.loc 4 359 0
 767 0514 1F0050E3 		cmp	r0, #31
 768 0518 670000CA 		bgt	.L87
 769              		.loc 4 360 0
 770 051c 900B02EE 		vmov.32	d18[0], r0
 771              	.LBB320:
 772              	.LBB321:
 141:C:/Renesas/e2studio_2021_01_workspace_RZA2M_ANPR/ANPR_RZA2M_GR_MANGO/src/tensorflow_lite/src/third_party/gemmlowp/fixedpoint\fixedpoint.h **** }
 773              		.loc 4 141 0
 774 0520 5200A0E1 		asr	r0, r2, r0
 775              	.LVL87:
 776              	.LBE321:
 777              	.LBE320:
 778              		.loc 4 360 0
 779 0524 A01472F3 		vshl.u64	d17, d16, d18
 780 0528 314B55EC 		vmov	r4, r5, d17	@ int
 781 052c 013044E2 		sub	r3, r4, #1
 782              	.LVL88:
 783              	.LBB322:
 784              	.LBB323:
 141:C:/Renesas/e2studio_2021_01_workspace_RZA2M_ANPR/ANPR_RZA2M_GR_MANGO/src/tensorflow_lite/src/third_party/gemmlowp/fixedpoint\fixedpoint.h **** }
 785              		.loc 4 141 0
 786 0530 C310A0E1 		asr	r1, r3, #1
 787              	.LBE323:
 788              	.LBE322:
 789              	.LBB324:
 790              	.LBB325:
  71:C:/Renesas/e2studio_2021_01_workspace_RZA2M_ANPR/ANPR_RZA2M_GR_MANGO/src/tensorflow_lite/src/third_party/gemmlowp/fixedpoint\fixedpoint.h **** }
 791              		.loc 4 71 0
 792 0534 023003E0 		and	r3, r3, r2
 793              	.LBE325:
 794              	.LBE324:
 795              	.LBB326:
 796              	.LBB327:
  95:C:/Renesas/e2studio_2021_01_workspace_RZA2M_ANPR/ANPR_RZA2M_GR_MANGO/src/tensorflow_lite/src/third_party/gemmlowp/fixedpoint\fixedpoint.h **** }
 797              		.loc 4 95 0
 798 0538 A22F81E0 		add	r2, r1, r2, lsr #31
 799              	.LBE327:
 800              	.LBE326:
 801              	.LBB328:
 802              	.LBB329:
 803 053c 020053E1 		cmp	r3, r2
 804 0540 0030A0D1 		movle	r3, r0
 805 0544 013080C2 		addgt	r3, r0, #1
 806              	.LBE329:
 807              	.LBE328:
 808              	.LBE330:
 809              	.LBE335:
 810              	.LBE340:
 811              	.LBE362:
 207:C:/Renesas/e2studio_2021_01_workspace_RZA2M_ANPR/ANPR_RZA2M_GR_MANGO/src/tensorflow_lite/src/tensorflow/lite/kernels/internal/reference/integer_ops\conv.h ****               acc, output_multiplier[out_channel], output_shift[out_channel]);
 208:C:/Renesas/e2studio_2021_01_workspace_RZA2M_ANPR/ANPR_RZA2M_GR_MANGO/src/tensorflow_lite/src/tensorflow/lite/kernels/internal/reference/integer_ops\conv.h ****           acc += output_offset;
 812              		.loc 2 208 0
 813 0548 70209DE5 		ldr	r2, [sp, #112]
 814 054c 023083E0 		add	r3, r3, r2
 815              	.LVL89:
 816              	.LBB363:
 817              	.LBB364:
 818              		.file 6 "c:\\program files (x86)\\gnu tools arm embedded\\6 2017-q2-update\\arm-none-eabi\\include
   1:c:\program files (x86)\gnu tools arm embedded\6 2017-q2-update\arm-none-eabi\include\c++\6.3.1\bits\stl_algobase.h **** // Core algorithmic facilities -*- C++ -*-
   2:c:\program files (x86)\gnu tools arm embedded\6 2017-q2-update\arm-none-eabi\include\c++\6.3.1\bits\stl_algobase.h **** 
   3:c:\program files (x86)\gnu tools arm embedded\6 2017-q2-update\arm-none-eabi\include\c++\6.3.1\bits\stl_algobase.h **** // Copyright (C) 2001-2016 Free Software Foundation, Inc.
   4:c:\program files (x86)\gnu tools arm embedded\6 2017-q2-update\arm-none-eabi\include\c++\6.3.1\bits\stl_algobase.h **** //
   5:c:\program files (x86)\gnu tools arm embedded\6 2017-q2-update\arm-none-eabi\include\c++\6.3.1\bits\stl_algobase.h **** // This file is part of the GNU ISO C++ Library.  This library is free
   6:c:\program files (x86)\gnu tools arm embedded\6 2017-q2-update\arm-none-eabi\include\c++\6.3.1\bits\stl_algobase.h **** // software; you can redistribute it and/or modify it under the
   7:c:\program files (x86)\gnu tools arm embedded\6 2017-q2-update\arm-none-eabi\include\c++\6.3.1\bits\stl_algobase.h **** // terms of the GNU General Public License as published by the
   8:c:\program files (x86)\gnu tools arm embedded\6 2017-q2-update\arm-none-eabi\include\c++\6.3.1\bits\stl_algobase.h **** // Free Software Foundation; either version 3, or (at your option)
   9:c:\program files (x86)\gnu tools arm embedded\6 2017-q2-update\arm-none-eabi\include\c++\6.3.1\bits\stl_algobase.h **** // any later version.
  10:c:\program files (x86)\gnu tools arm embedded\6 2017-q2-update\arm-none-eabi\include\c++\6.3.1\bits\stl_algobase.h **** 
  11:c:\program files (x86)\gnu tools arm embedded\6 2017-q2-update\arm-none-eabi\include\c++\6.3.1\bits\stl_algobase.h **** // This library is distributed in the hope that it will be useful,
  12:c:\program files (x86)\gnu tools arm embedded\6 2017-q2-update\arm-none-eabi\include\c++\6.3.1\bits\stl_algobase.h **** // but WITHOUT ANY WARRANTY; without even the implied warranty of
  13:c:\program files (x86)\gnu tools arm embedded\6 2017-q2-update\arm-none-eabi\include\c++\6.3.1\bits\stl_algobase.h **** // MERCHANTABILITY or FITNESS FOR A PARTICULAR PURPOSE.  See the
  14:c:\program files (x86)\gnu tools arm embedded\6 2017-q2-update\arm-none-eabi\include\c++\6.3.1\bits\stl_algobase.h **** // GNU General Public License for more details.
  15:c:\program files (x86)\gnu tools arm embedded\6 2017-q2-update\arm-none-eabi\include\c++\6.3.1\bits\stl_algobase.h **** 
  16:c:\program files (x86)\gnu tools arm embedded\6 2017-q2-update\arm-none-eabi\include\c++\6.3.1\bits\stl_algobase.h **** // Under Section 7 of GPL version 3, you are granted additional
  17:c:\program files (x86)\gnu tools arm embedded\6 2017-q2-update\arm-none-eabi\include\c++\6.3.1\bits\stl_algobase.h **** // permissions described in the GCC Runtime Library Exception, version
  18:c:\program files (x86)\gnu tools arm embedded\6 2017-q2-update\arm-none-eabi\include\c++\6.3.1\bits\stl_algobase.h **** // 3.1, as published by the Free Software Foundation.
  19:c:\program files (x86)\gnu tools arm embedded\6 2017-q2-update\arm-none-eabi\include\c++\6.3.1\bits\stl_algobase.h **** 
  20:c:\program files (x86)\gnu tools arm embedded\6 2017-q2-update\arm-none-eabi\include\c++\6.3.1\bits\stl_algobase.h **** // You should have received a copy of the GNU General Public License and
  21:c:\program files (x86)\gnu tools arm embedded\6 2017-q2-update\arm-none-eabi\include\c++\6.3.1\bits\stl_algobase.h **** // a copy of the GCC Runtime Library Exception along with this program;
  22:c:\program files (x86)\gnu tools arm embedded\6 2017-q2-update\arm-none-eabi\include\c++\6.3.1\bits\stl_algobase.h **** // see the files COPYING3 and COPYING.RUNTIME respectively.  If not, see
  23:c:\program files (x86)\gnu tools arm embedded\6 2017-q2-update\arm-none-eabi\include\c++\6.3.1\bits\stl_algobase.h **** // <http://www.gnu.org/licenses/>.
  24:c:\program files (x86)\gnu tools arm embedded\6 2017-q2-update\arm-none-eabi\include\c++\6.3.1\bits\stl_algobase.h **** 
  25:c:\program files (x86)\gnu tools arm embedded\6 2017-q2-update\arm-none-eabi\include\c++\6.3.1\bits\stl_algobase.h **** /*
  26:c:\program files (x86)\gnu tools arm embedded\6 2017-q2-update\arm-none-eabi\include\c++\6.3.1\bits\stl_algobase.h ****  *
  27:c:\program files (x86)\gnu tools arm embedded\6 2017-q2-update\arm-none-eabi\include\c++\6.3.1\bits\stl_algobase.h ****  * Copyright (c) 1994
  28:c:\program files (x86)\gnu tools arm embedded\6 2017-q2-update\arm-none-eabi\include\c++\6.3.1\bits\stl_algobase.h ****  * Hewlett-Packard Company
  29:c:\program files (x86)\gnu tools arm embedded\6 2017-q2-update\arm-none-eabi\include\c++\6.3.1\bits\stl_algobase.h ****  *
  30:c:\program files (x86)\gnu tools arm embedded\6 2017-q2-update\arm-none-eabi\include\c++\6.3.1\bits\stl_algobase.h ****  * Permission to use, copy, modify, distribute and sell this software
  31:c:\program files (x86)\gnu tools arm embedded\6 2017-q2-update\arm-none-eabi\include\c++\6.3.1\bits\stl_algobase.h ****  * and its documentation for any purpose is hereby granted without fee,
  32:c:\program files (x86)\gnu tools arm embedded\6 2017-q2-update\arm-none-eabi\include\c++\6.3.1\bits\stl_algobase.h ****  * provided that the above copyright notice appear in all copies and
  33:c:\program files (x86)\gnu tools arm embedded\6 2017-q2-update\arm-none-eabi\include\c++\6.3.1\bits\stl_algobase.h ****  * that both that copyright notice and this permission notice appear
  34:c:\program files (x86)\gnu tools arm embedded\6 2017-q2-update\arm-none-eabi\include\c++\6.3.1\bits\stl_algobase.h ****  * in supporting documentation.  Hewlett-Packard Company makes no
  35:c:\program files (x86)\gnu tools arm embedded\6 2017-q2-update\arm-none-eabi\include\c++\6.3.1\bits\stl_algobase.h ****  * representations about the suitability of this software for any
  36:c:\program files (x86)\gnu tools arm embedded\6 2017-q2-update\arm-none-eabi\include\c++\6.3.1\bits\stl_algobase.h ****  * purpose.  It is provided "as is" without express or implied warranty.
  37:c:\program files (x86)\gnu tools arm embedded\6 2017-q2-update\arm-none-eabi\include\c++\6.3.1\bits\stl_algobase.h ****  *
  38:c:\program files (x86)\gnu tools arm embedded\6 2017-q2-update\arm-none-eabi\include\c++\6.3.1\bits\stl_algobase.h ****  *
  39:c:\program files (x86)\gnu tools arm embedded\6 2017-q2-update\arm-none-eabi\include\c++\6.3.1\bits\stl_algobase.h ****  * Copyright (c) 1996-1998
  40:c:\program files (x86)\gnu tools arm embedded\6 2017-q2-update\arm-none-eabi\include\c++\6.3.1\bits\stl_algobase.h ****  * Silicon Graphics Computer Systems, Inc.
  41:c:\program files (x86)\gnu tools arm embedded\6 2017-q2-update\arm-none-eabi\include\c++\6.3.1\bits\stl_algobase.h ****  *
  42:c:\program files (x86)\gnu tools arm embedded\6 2017-q2-update\arm-none-eabi\include\c++\6.3.1\bits\stl_algobase.h ****  * Permission to use, copy, modify, distribute and sell this software
  43:c:\program files (x86)\gnu tools arm embedded\6 2017-q2-update\arm-none-eabi\include\c++\6.3.1\bits\stl_algobase.h ****  * and its documentation for any purpose is hereby granted without fee,
  44:c:\program files (x86)\gnu tools arm embedded\6 2017-q2-update\arm-none-eabi\include\c++\6.3.1\bits\stl_algobase.h ****  * provided that the above copyright notice appear in all copies and
  45:c:\program files (x86)\gnu tools arm embedded\6 2017-q2-update\arm-none-eabi\include\c++\6.3.1\bits\stl_algobase.h ****  * that both that copyright notice and this permission notice appear
  46:c:\program files (x86)\gnu tools arm embedded\6 2017-q2-update\arm-none-eabi\include\c++\6.3.1\bits\stl_algobase.h ****  * in supporting documentation.  Silicon Graphics makes no
  47:c:\program files (x86)\gnu tools arm embedded\6 2017-q2-update\arm-none-eabi\include\c++\6.3.1\bits\stl_algobase.h ****  * representations about the suitability of this software for any
  48:c:\program files (x86)\gnu tools arm embedded\6 2017-q2-update\arm-none-eabi\include\c++\6.3.1\bits\stl_algobase.h ****  * purpose.  It is provided "as is" without express or implied warranty.
  49:c:\program files (x86)\gnu tools arm embedded\6 2017-q2-update\arm-none-eabi\include\c++\6.3.1\bits\stl_algobase.h ****  */
  50:c:\program files (x86)\gnu tools arm embedded\6 2017-q2-update\arm-none-eabi\include\c++\6.3.1\bits\stl_algobase.h **** 
  51:c:\program files (x86)\gnu tools arm embedded\6 2017-q2-update\arm-none-eabi\include\c++\6.3.1\bits\stl_algobase.h **** /** @file bits/stl_algobase.h
  52:c:\program files (x86)\gnu tools arm embedded\6 2017-q2-update\arm-none-eabi\include\c++\6.3.1\bits\stl_algobase.h ****  *  This is an internal header file, included by other library headers.
  53:c:\program files (x86)\gnu tools arm embedded\6 2017-q2-update\arm-none-eabi\include\c++\6.3.1\bits\stl_algobase.h ****  *  Do not attempt to use it directly. @headername{algorithm}
  54:c:\program files (x86)\gnu tools arm embedded\6 2017-q2-update\arm-none-eabi\include\c++\6.3.1\bits\stl_algobase.h ****  */
  55:c:\program files (x86)\gnu tools arm embedded\6 2017-q2-update\arm-none-eabi\include\c++\6.3.1\bits\stl_algobase.h **** 
  56:c:\program files (x86)\gnu tools arm embedded\6 2017-q2-update\arm-none-eabi\include\c++\6.3.1\bits\stl_algobase.h **** #ifndef _STL_ALGOBASE_H
  57:c:\program files (x86)\gnu tools arm embedded\6 2017-q2-update\arm-none-eabi\include\c++\6.3.1\bits\stl_algobase.h **** #define _STL_ALGOBASE_H 1
  58:c:\program files (x86)\gnu tools arm embedded\6 2017-q2-update\arm-none-eabi\include\c++\6.3.1\bits\stl_algobase.h **** 
  59:c:\program files (x86)\gnu tools arm embedded\6 2017-q2-update\arm-none-eabi\include\c++\6.3.1\bits\stl_algobase.h **** #include <bits/c++config.h>
  60:c:\program files (x86)\gnu tools arm embedded\6 2017-q2-update\arm-none-eabi\include\c++\6.3.1\bits\stl_algobase.h **** #include <bits/functexcept.h>
  61:c:\program files (x86)\gnu tools arm embedded\6 2017-q2-update\arm-none-eabi\include\c++\6.3.1\bits\stl_algobase.h **** #include <bits/cpp_type_traits.h>
  62:c:\program files (x86)\gnu tools arm embedded\6 2017-q2-update\arm-none-eabi\include\c++\6.3.1\bits\stl_algobase.h **** #include <ext/type_traits.h>
  63:c:\program files (x86)\gnu tools arm embedded\6 2017-q2-update\arm-none-eabi\include\c++\6.3.1\bits\stl_algobase.h **** #include <ext/numeric_traits.h>
  64:c:\program files (x86)\gnu tools arm embedded\6 2017-q2-update\arm-none-eabi\include\c++\6.3.1\bits\stl_algobase.h **** #include <bits/stl_pair.h>
  65:c:\program files (x86)\gnu tools arm embedded\6 2017-q2-update\arm-none-eabi\include\c++\6.3.1\bits\stl_algobase.h **** #include <bits/stl_iterator_base_types.h>
  66:c:\program files (x86)\gnu tools arm embedded\6 2017-q2-update\arm-none-eabi\include\c++\6.3.1\bits\stl_algobase.h **** #include <bits/stl_iterator_base_funcs.h>
  67:c:\program files (x86)\gnu tools arm embedded\6 2017-q2-update\arm-none-eabi\include\c++\6.3.1\bits\stl_algobase.h **** #include <bits/stl_iterator.h>
  68:c:\program files (x86)\gnu tools arm embedded\6 2017-q2-update\arm-none-eabi\include\c++\6.3.1\bits\stl_algobase.h **** #include <bits/concept_check.h>
  69:c:\program files (x86)\gnu tools arm embedded\6 2017-q2-update\arm-none-eabi\include\c++\6.3.1\bits\stl_algobase.h **** #include <debug/debug.h>
  70:c:\program files (x86)\gnu tools arm embedded\6 2017-q2-update\arm-none-eabi\include\c++\6.3.1\bits\stl_algobase.h **** #include <bits/move.h> // For std::swap and _GLIBCXX_MOVE
  71:c:\program files (x86)\gnu tools arm embedded\6 2017-q2-update\arm-none-eabi\include\c++\6.3.1\bits\stl_algobase.h **** #include <bits/predefined_ops.h>
  72:c:\program files (x86)\gnu tools arm embedded\6 2017-q2-update\arm-none-eabi\include\c++\6.3.1\bits\stl_algobase.h **** 
  73:c:\program files (x86)\gnu tools arm embedded\6 2017-q2-update\arm-none-eabi\include\c++\6.3.1\bits\stl_algobase.h **** namespace std _GLIBCXX_VISIBILITY(default)
  74:c:\program files (x86)\gnu tools arm embedded\6 2017-q2-update\arm-none-eabi\include\c++\6.3.1\bits\stl_algobase.h **** {
  75:c:\program files (x86)\gnu tools arm embedded\6 2017-q2-update\arm-none-eabi\include\c++\6.3.1\bits\stl_algobase.h **** _GLIBCXX_BEGIN_NAMESPACE_VERSION
  76:c:\program files (x86)\gnu tools arm embedded\6 2017-q2-update\arm-none-eabi\include\c++\6.3.1\bits\stl_algobase.h **** 
  77:c:\program files (x86)\gnu tools arm embedded\6 2017-q2-update\arm-none-eabi\include\c++\6.3.1\bits\stl_algobase.h **** #if __cplusplus < 201103L
  78:c:\program files (x86)\gnu tools arm embedded\6 2017-q2-update\arm-none-eabi\include\c++\6.3.1\bits\stl_algobase.h ****   // See http://gcc.gnu.org/ml/libstdc++/2004-08/msg00167.html: in a
  79:c:\program files (x86)\gnu tools arm embedded\6 2017-q2-update\arm-none-eabi\include\c++\6.3.1\bits\stl_algobase.h ****   // nutshell, we are partially implementing the resolution of DR 187,
  80:c:\program files (x86)\gnu tools arm embedded\6 2017-q2-update\arm-none-eabi\include\c++\6.3.1\bits\stl_algobase.h ****   // when it's safe, i.e., the value_types are equal.
  81:c:\program files (x86)\gnu tools arm embedded\6 2017-q2-update\arm-none-eabi\include\c++\6.3.1\bits\stl_algobase.h ****   template<bool _BoolType>
  82:c:\program files (x86)\gnu tools arm embedded\6 2017-q2-update\arm-none-eabi\include\c++\6.3.1\bits\stl_algobase.h ****     struct __iter_swap
  83:c:\program files (x86)\gnu tools arm embedded\6 2017-q2-update\arm-none-eabi\include\c++\6.3.1\bits\stl_algobase.h ****     {
  84:c:\program files (x86)\gnu tools arm embedded\6 2017-q2-update\arm-none-eabi\include\c++\6.3.1\bits\stl_algobase.h ****       template<typename _ForwardIterator1, typename _ForwardIterator2>
  85:c:\program files (x86)\gnu tools arm embedded\6 2017-q2-update\arm-none-eabi\include\c++\6.3.1\bits\stl_algobase.h ****         static void
  86:c:\program files (x86)\gnu tools arm embedded\6 2017-q2-update\arm-none-eabi\include\c++\6.3.1\bits\stl_algobase.h ****         iter_swap(_ForwardIterator1 __a, _ForwardIterator2 __b)
  87:c:\program files (x86)\gnu tools arm embedded\6 2017-q2-update\arm-none-eabi\include\c++\6.3.1\bits\stl_algobase.h ****         {
  88:c:\program files (x86)\gnu tools arm embedded\6 2017-q2-update\arm-none-eabi\include\c++\6.3.1\bits\stl_algobase.h ****           typedef typename iterator_traits<_ForwardIterator1>::value_type
  89:c:\program files (x86)\gnu tools arm embedded\6 2017-q2-update\arm-none-eabi\include\c++\6.3.1\bits\stl_algobase.h ****             _ValueType1;
  90:c:\program files (x86)\gnu tools arm embedded\6 2017-q2-update\arm-none-eabi\include\c++\6.3.1\bits\stl_algobase.h ****           _ValueType1 __tmp = _GLIBCXX_MOVE(*__a);
  91:c:\program files (x86)\gnu tools arm embedded\6 2017-q2-update\arm-none-eabi\include\c++\6.3.1\bits\stl_algobase.h ****           *__a = _GLIBCXX_MOVE(*__b);
  92:c:\program files (x86)\gnu tools arm embedded\6 2017-q2-update\arm-none-eabi\include\c++\6.3.1\bits\stl_algobase.h ****           *__b = _GLIBCXX_MOVE(__tmp);
  93:c:\program files (x86)\gnu tools arm embedded\6 2017-q2-update\arm-none-eabi\include\c++\6.3.1\bits\stl_algobase.h **** 	}
  94:c:\program files (x86)\gnu tools arm embedded\6 2017-q2-update\arm-none-eabi\include\c++\6.3.1\bits\stl_algobase.h ****     };
  95:c:\program files (x86)\gnu tools arm embedded\6 2017-q2-update\arm-none-eabi\include\c++\6.3.1\bits\stl_algobase.h **** 
  96:c:\program files (x86)\gnu tools arm embedded\6 2017-q2-update\arm-none-eabi\include\c++\6.3.1\bits\stl_algobase.h ****   template<>
  97:c:\program files (x86)\gnu tools arm embedded\6 2017-q2-update\arm-none-eabi\include\c++\6.3.1\bits\stl_algobase.h ****     struct __iter_swap<true>
  98:c:\program files (x86)\gnu tools arm embedded\6 2017-q2-update\arm-none-eabi\include\c++\6.3.1\bits\stl_algobase.h ****     {
  99:c:\program files (x86)\gnu tools arm embedded\6 2017-q2-update\arm-none-eabi\include\c++\6.3.1\bits\stl_algobase.h ****       template<typename _ForwardIterator1, typename _ForwardIterator2>
 100:c:\program files (x86)\gnu tools arm embedded\6 2017-q2-update\arm-none-eabi\include\c++\6.3.1\bits\stl_algobase.h ****         static void 
 101:c:\program files (x86)\gnu tools arm embedded\6 2017-q2-update\arm-none-eabi\include\c++\6.3.1\bits\stl_algobase.h ****         iter_swap(_ForwardIterator1 __a, _ForwardIterator2 __b)
 102:c:\program files (x86)\gnu tools arm embedded\6 2017-q2-update\arm-none-eabi\include\c++\6.3.1\bits\stl_algobase.h ****         {
 103:c:\program files (x86)\gnu tools arm embedded\6 2017-q2-update\arm-none-eabi\include\c++\6.3.1\bits\stl_algobase.h ****           swap(*__a, *__b);
 104:c:\program files (x86)\gnu tools arm embedded\6 2017-q2-update\arm-none-eabi\include\c++\6.3.1\bits\stl_algobase.h ****         }
 105:c:\program files (x86)\gnu tools arm embedded\6 2017-q2-update\arm-none-eabi\include\c++\6.3.1\bits\stl_algobase.h ****     };
 106:c:\program files (x86)\gnu tools arm embedded\6 2017-q2-update\arm-none-eabi\include\c++\6.3.1\bits\stl_algobase.h **** #endif
 107:c:\program files (x86)\gnu tools arm embedded\6 2017-q2-update\arm-none-eabi\include\c++\6.3.1\bits\stl_algobase.h **** 
 108:c:\program files (x86)\gnu tools arm embedded\6 2017-q2-update\arm-none-eabi\include\c++\6.3.1\bits\stl_algobase.h ****   /**
 109:c:\program files (x86)\gnu tools arm embedded\6 2017-q2-update\arm-none-eabi\include\c++\6.3.1\bits\stl_algobase.h ****    *  @brief Swaps the contents of two iterators.
 110:c:\program files (x86)\gnu tools arm embedded\6 2017-q2-update\arm-none-eabi\include\c++\6.3.1\bits\stl_algobase.h ****    *  @ingroup mutating_algorithms
 111:c:\program files (x86)\gnu tools arm embedded\6 2017-q2-update\arm-none-eabi\include\c++\6.3.1\bits\stl_algobase.h ****    *  @param  __a  An iterator.
 112:c:\program files (x86)\gnu tools arm embedded\6 2017-q2-update\arm-none-eabi\include\c++\6.3.1\bits\stl_algobase.h ****    *  @param  __b  Another iterator.
 113:c:\program files (x86)\gnu tools arm embedded\6 2017-q2-update\arm-none-eabi\include\c++\6.3.1\bits\stl_algobase.h ****    *  @return   Nothing.
 114:c:\program files (x86)\gnu tools arm embedded\6 2017-q2-update\arm-none-eabi\include\c++\6.3.1\bits\stl_algobase.h ****    *
 115:c:\program files (x86)\gnu tools arm embedded\6 2017-q2-update\arm-none-eabi\include\c++\6.3.1\bits\stl_algobase.h ****    *  This function swaps the values pointed to by two iterators, not the
 116:c:\program files (x86)\gnu tools arm embedded\6 2017-q2-update\arm-none-eabi\include\c++\6.3.1\bits\stl_algobase.h ****    *  iterators themselves.
 117:c:\program files (x86)\gnu tools arm embedded\6 2017-q2-update\arm-none-eabi\include\c++\6.3.1\bits\stl_algobase.h ****   */
 118:c:\program files (x86)\gnu tools arm embedded\6 2017-q2-update\arm-none-eabi\include\c++\6.3.1\bits\stl_algobase.h ****   template<typename _ForwardIterator1, typename _ForwardIterator2>
 119:c:\program files (x86)\gnu tools arm embedded\6 2017-q2-update\arm-none-eabi\include\c++\6.3.1\bits\stl_algobase.h ****     inline void
 120:c:\program files (x86)\gnu tools arm embedded\6 2017-q2-update\arm-none-eabi\include\c++\6.3.1\bits\stl_algobase.h ****     iter_swap(_ForwardIterator1 __a, _ForwardIterator2 __b)
 121:c:\program files (x86)\gnu tools arm embedded\6 2017-q2-update\arm-none-eabi\include\c++\6.3.1\bits\stl_algobase.h ****     {
 122:c:\program files (x86)\gnu tools arm embedded\6 2017-q2-update\arm-none-eabi\include\c++\6.3.1\bits\stl_algobase.h ****       // concept requirements
 123:c:\program files (x86)\gnu tools arm embedded\6 2017-q2-update\arm-none-eabi\include\c++\6.3.1\bits\stl_algobase.h ****       __glibcxx_function_requires(_Mutable_ForwardIteratorConcept<
 124:c:\program files (x86)\gnu tools arm embedded\6 2017-q2-update\arm-none-eabi\include\c++\6.3.1\bits\stl_algobase.h **** 				  _ForwardIterator1>)
 125:c:\program files (x86)\gnu tools arm embedded\6 2017-q2-update\arm-none-eabi\include\c++\6.3.1\bits\stl_algobase.h ****       __glibcxx_function_requires(_Mutable_ForwardIteratorConcept<
 126:c:\program files (x86)\gnu tools arm embedded\6 2017-q2-update\arm-none-eabi\include\c++\6.3.1\bits\stl_algobase.h **** 				  _ForwardIterator2>)
 127:c:\program files (x86)\gnu tools arm embedded\6 2017-q2-update\arm-none-eabi\include\c++\6.3.1\bits\stl_algobase.h **** 
 128:c:\program files (x86)\gnu tools arm embedded\6 2017-q2-update\arm-none-eabi\include\c++\6.3.1\bits\stl_algobase.h **** #if __cplusplus < 201103L
 129:c:\program files (x86)\gnu tools arm embedded\6 2017-q2-update\arm-none-eabi\include\c++\6.3.1\bits\stl_algobase.h ****       typedef typename iterator_traits<_ForwardIterator1>::value_type
 130:c:\program files (x86)\gnu tools arm embedded\6 2017-q2-update\arm-none-eabi\include\c++\6.3.1\bits\stl_algobase.h **** 	_ValueType1;
 131:c:\program files (x86)\gnu tools arm embedded\6 2017-q2-update\arm-none-eabi\include\c++\6.3.1\bits\stl_algobase.h ****       typedef typename iterator_traits<_ForwardIterator2>::value_type
 132:c:\program files (x86)\gnu tools arm embedded\6 2017-q2-update\arm-none-eabi\include\c++\6.3.1\bits\stl_algobase.h **** 	_ValueType2;
 133:c:\program files (x86)\gnu tools arm embedded\6 2017-q2-update\arm-none-eabi\include\c++\6.3.1\bits\stl_algobase.h **** 
 134:c:\program files (x86)\gnu tools arm embedded\6 2017-q2-update\arm-none-eabi\include\c++\6.3.1\bits\stl_algobase.h ****       __glibcxx_function_requires(_ConvertibleConcept<_ValueType1,
 135:c:\program files (x86)\gnu tools arm embedded\6 2017-q2-update\arm-none-eabi\include\c++\6.3.1\bits\stl_algobase.h **** 				  _ValueType2>)
 136:c:\program files (x86)\gnu tools arm embedded\6 2017-q2-update\arm-none-eabi\include\c++\6.3.1\bits\stl_algobase.h ****       __glibcxx_function_requires(_ConvertibleConcept<_ValueType2,
 137:c:\program files (x86)\gnu tools arm embedded\6 2017-q2-update\arm-none-eabi\include\c++\6.3.1\bits\stl_algobase.h **** 				  _ValueType1>)
 138:c:\program files (x86)\gnu tools arm embedded\6 2017-q2-update\arm-none-eabi\include\c++\6.3.1\bits\stl_algobase.h **** 
 139:c:\program files (x86)\gnu tools arm embedded\6 2017-q2-update\arm-none-eabi\include\c++\6.3.1\bits\stl_algobase.h ****       typedef typename iterator_traits<_ForwardIterator1>::reference
 140:c:\program files (x86)\gnu tools arm embedded\6 2017-q2-update\arm-none-eabi\include\c++\6.3.1\bits\stl_algobase.h **** 	_ReferenceType1;
 141:c:\program files (x86)\gnu tools arm embedded\6 2017-q2-update\arm-none-eabi\include\c++\6.3.1\bits\stl_algobase.h ****       typedef typename iterator_traits<_ForwardIterator2>::reference
 142:c:\program files (x86)\gnu tools arm embedded\6 2017-q2-update\arm-none-eabi\include\c++\6.3.1\bits\stl_algobase.h **** 	_ReferenceType2;
 143:c:\program files (x86)\gnu tools arm embedded\6 2017-q2-update\arm-none-eabi\include\c++\6.3.1\bits\stl_algobase.h ****       std::__iter_swap<__are_same<_ValueType1, _ValueType2>::__value
 144:c:\program files (x86)\gnu tools arm embedded\6 2017-q2-update\arm-none-eabi\include\c++\6.3.1\bits\stl_algobase.h **** 	&& __are_same<_ValueType1&, _ReferenceType1>::__value
 145:c:\program files (x86)\gnu tools arm embedded\6 2017-q2-update\arm-none-eabi\include\c++\6.3.1\bits\stl_algobase.h **** 	&& __are_same<_ValueType2&, _ReferenceType2>::__value>::
 146:c:\program files (x86)\gnu tools arm embedded\6 2017-q2-update\arm-none-eabi\include\c++\6.3.1\bits\stl_algobase.h **** 	iter_swap(__a, __b);
 147:c:\program files (x86)\gnu tools arm embedded\6 2017-q2-update\arm-none-eabi\include\c++\6.3.1\bits\stl_algobase.h **** #else
 148:c:\program files (x86)\gnu tools arm embedded\6 2017-q2-update\arm-none-eabi\include\c++\6.3.1\bits\stl_algobase.h ****       swap(*__a, *__b);
 149:c:\program files (x86)\gnu tools arm embedded\6 2017-q2-update\arm-none-eabi\include\c++\6.3.1\bits\stl_algobase.h **** #endif
 150:c:\program files (x86)\gnu tools arm embedded\6 2017-q2-update\arm-none-eabi\include\c++\6.3.1\bits\stl_algobase.h ****     }
 151:c:\program files (x86)\gnu tools arm embedded\6 2017-q2-update\arm-none-eabi\include\c++\6.3.1\bits\stl_algobase.h **** 
 152:c:\program files (x86)\gnu tools arm embedded\6 2017-q2-update\arm-none-eabi\include\c++\6.3.1\bits\stl_algobase.h ****   /**
 153:c:\program files (x86)\gnu tools arm embedded\6 2017-q2-update\arm-none-eabi\include\c++\6.3.1\bits\stl_algobase.h ****    *  @brief Swap the elements of two sequences.
 154:c:\program files (x86)\gnu tools arm embedded\6 2017-q2-update\arm-none-eabi\include\c++\6.3.1\bits\stl_algobase.h ****    *  @ingroup mutating_algorithms
 155:c:\program files (x86)\gnu tools arm embedded\6 2017-q2-update\arm-none-eabi\include\c++\6.3.1\bits\stl_algobase.h ****    *  @param  __first1  A forward iterator.
 156:c:\program files (x86)\gnu tools arm embedded\6 2017-q2-update\arm-none-eabi\include\c++\6.3.1\bits\stl_algobase.h ****    *  @param  __last1   A forward iterator.
 157:c:\program files (x86)\gnu tools arm embedded\6 2017-q2-update\arm-none-eabi\include\c++\6.3.1\bits\stl_algobase.h ****    *  @param  __first2  A forward iterator.
 158:c:\program files (x86)\gnu tools arm embedded\6 2017-q2-update\arm-none-eabi\include\c++\6.3.1\bits\stl_algobase.h ****    *  @return   An iterator equal to @p first2+(last1-first1).
 159:c:\program files (x86)\gnu tools arm embedded\6 2017-q2-update\arm-none-eabi\include\c++\6.3.1\bits\stl_algobase.h ****    *
 160:c:\program files (x86)\gnu tools arm embedded\6 2017-q2-update\arm-none-eabi\include\c++\6.3.1\bits\stl_algobase.h ****    *  Swaps each element in the range @p [first1,last1) with the
 161:c:\program files (x86)\gnu tools arm embedded\6 2017-q2-update\arm-none-eabi\include\c++\6.3.1\bits\stl_algobase.h ****    *  corresponding element in the range @p [first2,(last1-first1)).
 162:c:\program files (x86)\gnu tools arm embedded\6 2017-q2-update\arm-none-eabi\include\c++\6.3.1\bits\stl_algobase.h ****    *  The ranges must not overlap.
 163:c:\program files (x86)\gnu tools arm embedded\6 2017-q2-update\arm-none-eabi\include\c++\6.3.1\bits\stl_algobase.h ****   */
 164:c:\program files (x86)\gnu tools arm embedded\6 2017-q2-update\arm-none-eabi\include\c++\6.3.1\bits\stl_algobase.h ****   template<typename _ForwardIterator1, typename _ForwardIterator2>
 165:c:\program files (x86)\gnu tools arm embedded\6 2017-q2-update\arm-none-eabi\include\c++\6.3.1\bits\stl_algobase.h ****     _ForwardIterator2
 166:c:\program files (x86)\gnu tools arm embedded\6 2017-q2-update\arm-none-eabi\include\c++\6.3.1\bits\stl_algobase.h ****     swap_ranges(_ForwardIterator1 __first1, _ForwardIterator1 __last1,
 167:c:\program files (x86)\gnu tools arm embedded\6 2017-q2-update\arm-none-eabi\include\c++\6.3.1\bits\stl_algobase.h **** 		_ForwardIterator2 __first2)
 168:c:\program files (x86)\gnu tools arm embedded\6 2017-q2-update\arm-none-eabi\include\c++\6.3.1\bits\stl_algobase.h ****     {
 169:c:\program files (x86)\gnu tools arm embedded\6 2017-q2-update\arm-none-eabi\include\c++\6.3.1\bits\stl_algobase.h ****       // concept requirements
 170:c:\program files (x86)\gnu tools arm embedded\6 2017-q2-update\arm-none-eabi\include\c++\6.3.1\bits\stl_algobase.h ****       __glibcxx_function_requires(_Mutable_ForwardIteratorConcept<
 171:c:\program files (x86)\gnu tools arm embedded\6 2017-q2-update\arm-none-eabi\include\c++\6.3.1\bits\stl_algobase.h **** 				  _ForwardIterator1>)
 172:c:\program files (x86)\gnu tools arm embedded\6 2017-q2-update\arm-none-eabi\include\c++\6.3.1\bits\stl_algobase.h ****       __glibcxx_function_requires(_Mutable_ForwardIteratorConcept<
 173:c:\program files (x86)\gnu tools arm embedded\6 2017-q2-update\arm-none-eabi\include\c++\6.3.1\bits\stl_algobase.h **** 				  _ForwardIterator2>)
 174:c:\program files (x86)\gnu tools arm embedded\6 2017-q2-update\arm-none-eabi\include\c++\6.3.1\bits\stl_algobase.h ****       __glibcxx_requires_valid_range(__first1, __last1);
 175:c:\program files (x86)\gnu tools arm embedded\6 2017-q2-update\arm-none-eabi\include\c++\6.3.1\bits\stl_algobase.h **** 
 176:c:\program files (x86)\gnu tools arm embedded\6 2017-q2-update\arm-none-eabi\include\c++\6.3.1\bits\stl_algobase.h ****       for (; __first1 != __last1; ++__first1, (void)++__first2)
 177:c:\program files (x86)\gnu tools arm embedded\6 2017-q2-update\arm-none-eabi\include\c++\6.3.1\bits\stl_algobase.h **** 	std::iter_swap(__first1, __first2);
 178:c:\program files (x86)\gnu tools arm embedded\6 2017-q2-update\arm-none-eabi\include\c++\6.3.1\bits\stl_algobase.h ****       return __first2;
 179:c:\program files (x86)\gnu tools arm embedded\6 2017-q2-update\arm-none-eabi\include\c++\6.3.1\bits\stl_algobase.h ****     }
 180:c:\program files (x86)\gnu tools arm embedded\6 2017-q2-update\arm-none-eabi\include\c++\6.3.1\bits\stl_algobase.h **** 
 181:c:\program files (x86)\gnu tools arm embedded\6 2017-q2-update\arm-none-eabi\include\c++\6.3.1\bits\stl_algobase.h ****   /**
 182:c:\program files (x86)\gnu tools arm embedded\6 2017-q2-update\arm-none-eabi\include\c++\6.3.1\bits\stl_algobase.h ****    *  @brief This does what you think it does.
 183:c:\program files (x86)\gnu tools arm embedded\6 2017-q2-update\arm-none-eabi\include\c++\6.3.1\bits\stl_algobase.h ****    *  @ingroup sorting_algorithms
 184:c:\program files (x86)\gnu tools arm embedded\6 2017-q2-update\arm-none-eabi\include\c++\6.3.1\bits\stl_algobase.h ****    *  @param  __a  A thing of arbitrary type.
 185:c:\program files (x86)\gnu tools arm embedded\6 2017-q2-update\arm-none-eabi\include\c++\6.3.1\bits\stl_algobase.h ****    *  @param  __b  Another thing of arbitrary type.
 186:c:\program files (x86)\gnu tools arm embedded\6 2017-q2-update\arm-none-eabi\include\c++\6.3.1\bits\stl_algobase.h ****    *  @return   The lesser of the parameters.
 187:c:\program files (x86)\gnu tools arm embedded\6 2017-q2-update\arm-none-eabi\include\c++\6.3.1\bits\stl_algobase.h ****    *
 188:c:\program files (x86)\gnu tools arm embedded\6 2017-q2-update\arm-none-eabi\include\c++\6.3.1\bits\stl_algobase.h ****    *  This is the simple classic generic implementation.  It will work on
 189:c:\program files (x86)\gnu tools arm embedded\6 2017-q2-update\arm-none-eabi\include\c++\6.3.1\bits\stl_algobase.h ****    *  temporary expressions, since they are only evaluated once, unlike a
 190:c:\program files (x86)\gnu tools arm embedded\6 2017-q2-update\arm-none-eabi\include\c++\6.3.1\bits\stl_algobase.h ****    *  preprocessor macro.
 191:c:\program files (x86)\gnu tools arm embedded\6 2017-q2-update\arm-none-eabi\include\c++\6.3.1\bits\stl_algobase.h ****   */
 192:c:\program files (x86)\gnu tools arm embedded\6 2017-q2-update\arm-none-eabi\include\c++\6.3.1\bits\stl_algobase.h ****   template<typename _Tp>
 193:c:\program files (x86)\gnu tools arm embedded\6 2017-q2-update\arm-none-eabi\include\c++\6.3.1\bits\stl_algobase.h ****     _GLIBCXX14_CONSTEXPR
 194:c:\program files (x86)\gnu tools arm embedded\6 2017-q2-update\arm-none-eabi\include\c++\6.3.1\bits\stl_algobase.h ****     inline const _Tp&
 195:c:\program files (x86)\gnu tools arm embedded\6 2017-q2-update\arm-none-eabi\include\c++\6.3.1\bits\stl_algobase.h ****     min(const _Tp& __a, const _Tp& __b)
 196:c:\program files (x86)\gnu tools arm embedded\6 2017-q2-update\arm-none-eabi\include\c++\6.3.1\bits\stl_algobase.h ****     {
 197:c:\program files (x86)\gnu tools arm embedded\6 2017-q2-update\arm-none-eabi\include\c++\6.3.1\bits\stl_algobase.h ****       // concept requirements
 198:c:\program files (x86)\gnu tools arm embedded\6 2017-q2-update\arm-none-eabi\include\c++\6.3.1\bits\stl_algobase.h ****       __glibcxx_function_requires(_LessThanComparableConcept<_Tp>)
 199:c:\program files (x86)\gnu tools arm embedded\6 2017-q2-update\arm-none-eabi\include\c++\6.3.1\bits\stl_algobase.h ****       //return __b < __a ? __b : __a;
 200:c:\program files (x86)\gnu tools arm embedded\6 2017-q2-update\arm-none-eabi\include\c++\6.3.1\bits\stl_algobase.h ****       if (__b < __a)
 201:c:\program files (x86)\gnu tools arm embedded\6 2017-q2-update\arm-none-eabi\include\c++\6.3.1\bits\stl_algobase.h **** 	return __b;
 202:c:\program files (x86)\gnu tools arm embedded\6 2017-q2-update\arm-none-eabi\include\c++\6.3.1\bits\stl_algobase.h ****       return __a;
 203:c:\program files (x86)\gnu tools arm embedded\6 2017-q2-update\arm-none-eabi\include\c++\6.3.1\bits\stl_algobase.h ****     }
 204:c:\program files (x86)\gnu tools arm embedded\6 2017-q2-update\arm-none-eabi\include\c++\6.3.1\bits\stl_algobase.h **** 
 205:c:\program files (x86)\gnu tools arm embedded\6 2017-q2-update\arm-none-eabi\include\c++\6.3.1\bits\stl_algobase.h ****   /**
 206:c:\program files (x86)\gnu tools arm embedded\6 2017-q2-update\arm-none-eabi\include\c++\6.3.1\bits\stl_algobase.h ****    *  @brief This does what you think it does.
 207:c:\program files (x86)\gnu tools arm embedded\6 2017-q2-update\arm-none-eabi\include\c++\6.3.1\bits\stl_algobase.h ****    *  @ingroup sorting_algorithms
 208:c:\program files (x86)\gnu tools arm embedded\6 2017-q2-update\arm-none-eabi\include\c++\6.3.1\bits\stl_algobase.h ****    *  @param  __a  A thing of arbitrary type.
 209:c:\program files (x86)\gnu tools arm embedded\6 2017-q2-update\arm-none-eabi\include\c++\6.3.1\bits\stl_algobase.h ****    *  @param  __b  Another thing of arbitrary type.
 210:c:\program files (x86)\gnu tools arm embedded\6 2017-q2-update\arm-none-eabi\include\c++\6.3.1\bits\stl_algobase.h ****    *  @return   The greater of the parameters.
 211:c:\program files (x86)\gnu tools arm embedded\6 2017-q2-update\arm-none-eabi\include\c++\6.3.1\bits\stl_algobase.h ****    *
 212:c:\program files (x86)\gnu tools arm embedded\6 2017-q2-update\arm-none-eabi\include\c++\6.3.1\bits\stl_algobase.h ****    *  This is the simple classic generic implementation.  It will work on
 213:c:\program files (x86)\gnu tools arm embedded\6 2017-q2-update\arm-none-eabi\include\c++\6.3.1\bits\stl_algobase.h ****    *  temporary expressions, since they are only evaluated once, unlike a
 214:c:\program files (x86)\gnu tools arm embedded\6 2017-q2-update\arm-none-eabi\include\c++\6.3.1\bits\stl_algobase.h ****    *  preprocessor macro.
 215:c:\program files (x86)\gnu tools arm embedded\6 2017-q2-update\arm-none-eabi\include\c++\6.3.1\bits\stl_algobase.h ****   */
 216:c:\program files (x86)\gnu tools arm embedded\6 2017-q2-update\arm-none-eabi\include\c++\6.3.1\bits\stl_algobase.h ****   template<typename _Tp>
 217:c:\program files (x86)\gnu tools arm embedded\6 2017-q2-update\arm-none-eabi\include\c++\6.3.1\bits\stl_algobase.h ****     _GLIBCXX14_CONSTEXPR
 218:c:\program files (x86)\gnu tools arm embedded\6 2017-q2-update\arm-none-eabi\include\c++\6.3.1\bits\stl_algobase.h ****     inline const _Tp&
 219:c:\program files (x86)\gnu tools arm embedded\6 2017-q2-update\arm-none-eabi\include\c++\6.3.1\bits\stl_algobase.h ****     max(const _Tp& __a, const _Tp& __b)
 220:c:\program files (x86)\gnu tools arm embedded\6 2017-q2-update\arm-none-eabi\include\c++\6.3.1\bits\stl_algobase.h ****     {
 221:c:\program files (x86)\gnu tools arm embedded\6 2017-q2-update\arm-none-eabi\include\c++\6.3.1\bits\stl_algobase.h ****       // concept requirements
 222:c:\program files (x86)\gnu tools arm embedded\6 2017-q2-update\arm-none-eabi\include\c++\6.3.1\bits\stl_algobase.h ****       __glibcxx_function_requires(_LessThanComparableConcept<_Tp>)
 223:c:\program files (x86)\gnu tools arm embedded\6 2017-q2-update\arm-none-eabi\include\c++\6.3.1\bits\stl_algobase.h ****       //return  __a < __b ? __b : __a;
 224:c:\program files (x86)\gnu tools arm embedded\6 2017-q2-update\arm-none-eabi\include\c++\6.3.1\bits\stl_algobase.h ****       if (__a < __b)
 819              		.loc 6 224 0
 820 0550 44209DE5 		ldr	r2, [sp, #68]
 821 0554 030052E1 		cmp	r2, r3
 822 0558 0200A0C1 		movgt	r0, r2
 823 055c 030000CA 		bgt	.L47
 824              	.LVL90:
 825 0560 74209DE5 		ldr	r2, [sp, #116]
 826 0564 030052E1 		cmp	r2, r3
 827 0568 0200A0B1 		movlt	r0, r2
 828 056c 0300A0A1 		movge	r0, r3
 829              	.LVL91:
 830              	.L47:
 831              	.LBE364:
 832              	.LBE363:
 833              	.LBB365:
 834              	.LBB366:
 404:C:/Renesas/e2studio_2021_01_workspace_RZA2M_ANPR/ANPR_RZA2M_GR_MANGO/src/tensorflow_lite/src/tensorflow/lite/kernels/internal\types.h ****   const int* dims_data = reinterpret_cast<const int*>(shape.DimsDataUpTo5D());
 835              		.loc 3 404 0
 836 0570 B4309DE5 		ldr	r3, [sp, #180]
 837 0574 003093E5 		ldr	r3, [r3]
 838 0578 040053E3 		cmp	r3, #4
 839 057c 3A00001A 		bne	.L10
 406:C:/Renesas/e2studio_2021_01_workspace_RZA2M_ANPR/ANPR_RZA2M_GR_MANGO/src/tensorflow_lite/src/tensorflow/lite/kernels/internal\types.h ****   TFLITE_DCHECK(i1 >= 0 && i1 < dims_data[1]);
 840              		.loc 3 406 0
 841 0580 B4309DE5 		ldr	r3, [sp, #180]
 842 0584 0CE09DE5 		ldr	lr, [sp, #12]
 843 0588 043093E5 		ldr	r3, [r3, #4]
 844 058c 03005EE1 		cmp	lr, r3
 845 0590 350000AA 		bge	.L10
 407:C:/Renesas/e2studio_2021_01_workspace_RZA2M_ANPR/ANPR_RZA2M_GR_MANGO/src/tensorflow_lite/src/tensorflow/lite/kernels/internal\types.h ****   TFLITE_DCHECK(i2 >= 0 && i2 < dims_data[2]);
 846              		.loc 3 407 0
 847 0594 B4309DE5 		ldr	r3, [sp, #180]
 848 0598 50409DE5 		ldr	r4, [sp, #80]
 849 059c 083093E5 		ldr	r3, [r3, #8]
 850 05a0 030054E1 		cmp	r4, r3
 851 05a4 300000AA 		bge	.L10
 408:C:/Renesas/e2studio_2021_01_workspace_RZA2M_ANPR/ANPR_RZA2M_GR_MANGO/src/tensorflow_lite/src/tensorflow/lite/kernels/internal\types.h ****   TFLITE_DCHECK(i3 >= 0 && i3 < dims_data[3]);
 852              		.loc 3 408 0
 853 05a8 B4209DE5 		ldr	r2, [sp, #180]
 854 05ac 4C509DE5 		ldr	r5, [sp, #76]
 855 05b0 0C1092E5 		ldr	r1, [r2, #12]
 856 05b4 010055E1 		cmp	r5, r1
 857 05b8 2B0000AA 		bge	.L10
 409:C:/Renesas/e2studio_2021_01_workspace_RZA2M_ANPR/ANPR_RZA2M_GR_MANGO/src/tensorflow_lite/src/tensorflow/lite/kernels/internal\types.h ****   return ((i0 * dims_data[1] + i1) * dims_data[2] + i2) * dims_data[3] + i3;
 858              		.loc 3 409 0
 859 05bc B4209DE5 		ldr	r2, [sp, #180]
 860 05c0 08C09DE5 		ldr	ip, [sp, #8]
 861 05c4 102092E5 		ldr	r2, [r2, #16]
 862 05c8 02005CE1 		cmp	ip, r2
 863 05cc 260000AA 		bge	.L10
 864              	.LVL92:
 410:C:/Renesas/e2studio_2021_01_workspace_RZA2M_ANPR/ANPR_RZA2M_GR_MANGO/src/tensorflow_lite/src/tensorflow/lite/kernels/internal\types.h **** }
 865              		.loc 3 410 0
 866 05d0 934E23E0 		mla	r3, r3, lr, r4
 867 05d4 05E0A0E1 		mov	lr, r5
 868 05d8 915323E0 		mla	r3, r1, r3, r5
 869              	.LBE366:
 870              	.LBE365:
 209:C:/Renesas/e2studio_2021_01_workspace_RZA2M_ANPR/ANPR_RZA2M_GR_MANGO/src/tensorflow_lite/src/tensorflow/lite/kernels/internal/reference/integer_ops\conv.h ****           acc = std::max(acc, output_activation_min);
 210:C:/Renesas/e2studio_2021_01_workspace_RZA2M_ANPR/ANPR_RZA2M_GR_MANGO/src/tensorflow_lite/src/tensorflow/lite/kernels/internal/reference/integer_ops\conv.h ****           acc = std::min(acc, output_activation_max);
 211:C:/Renesas/e2studio_2021_01_workspace_RZA2M_ANPR/ANPR_RZA2M_GR_MANGO/src/tensorflow_lite/src/tensorflow/lite/kernels/internal/reference/integer_ops\conv.h ****           output_data[Offset(output_shape, batch, out_y, out_x, out_channel)] =
 871              		.loc 2 211 0
 872 05dc B8109DE5 		ldr	r1, [sp, #184]
 873 05e0 921323E0 		mla	r3, r2, r3, r1
 874              	.LBE368:
 160:C:/Renesas/e2studio_2021_01_workspace_RZA2M_ANPR/ANPR_RZA2M_GR_MANGO/src/tensorflow_lite/src/tensorflow/lite/kernels/internal/reference/integer_ops\conv.h ****           const int in_x_origin = (out_x * stride_width) - pad_width;
 875              		.loc 2 160 0
 876 05e4 30209DE5 		ldr	r2, [sp, #48]
 877              	.LBB369:
 212:C:/Renesas/e2studio_2021_01_workspace_RZA2M_ANPR/ANPR_RZA2M_GR_MANGO/src/tensorflow_lite/src/tensorflow/lite/kernels/internal/reference/integer_ops\conv.h ****               static_cast<int8_t>(acc);
 878              		.loc 2 212 0
 879 05e8 0C00C3E7 		strb	r0, [r3, ip]
 880              	.LVL93:
 881              	.LBE369:
 160:C:/Renesas/e2studio_2021_01_workspace_RZA2M_ANPR/ANPR_RZA2M_GR_MANGO/src/tensorflow_lite/src/tensorflow/lite/kernels/internal/reference/integer_ops\conv.h ****           const int in_x_origin = (out_x * stride_width) - pad_width;
 882              		.loc 2 160 0
 883 05ec 01308CE2 		add	r3, ip, #1
 884 05f0 020053E1 		cmp	r3, r2
 885 05f4 08308DE5 		str	r3, [sp, #8]
 886              	.LVL94:
 887 05f8 42FFFF1A 		bne	.L49
 888              	.LVL95:
 889              	.L48:
 890 05fc 24209DE5 		ldr	r2, [sp, #36]
 891 0600 60109DE5 		ldr	r1, [sp, #96]
 892              	.LBE371:
 159:C:/Renesas/e2studio_2021_01_workspace_RZA2M_ANPR/ANPR_RZA2M_GR_MANGO/src/tensorflow_lite/src/tensorflow/lite/kernels/internal/reference/integer_ops\conv.h ****         for (int out_channel = 0; out_channel < output_depth; ++out_channel) {
 893              		.loc 2 159 0
 894 0604 4C309DE5 		ldr	r3, [sp, #76]
 895 0608 012082E0 		add	r2, r2, r1
 896 060c 24208DE5 		str	r2, [sp, #36]
 897 0610 013083E2 		add	r3, r3, #1
 898 0614 3C209DE5 		ldr	r2, [sp, #60]
 899 0618 4C308DE5 		str	r3, [sp, #76]
 900              	.LVL96:
 901 061c 020053E1 		cmp	r3, r2
 902 0620 2DFFFF1A 		bne	.L34
 903              	.LVL97:
 904              	.L33:
 905 0624 38209DE5 		ldr	r2, [sp, #56]
 906 0628 64109DE5 		ldr	r1, [sp, #100]
 907              	.LBE373:
 158:C:/Renesas/e2studio_2021_01_workspace_RZA2M_ANPR/ANPR_RZA2M_GR_MANGO/src/tensorflow_lite/src/tensorflow/lite/kernels/internal/reference/integer_ops\conv.h ****       for (int out_x = 0; out_x < output_width; ++out_x) {
 908              		.loc 2 158 0
 909 062c 50309DE5 		ldr	r3, [sp, #80]
 910 0630 012082E0 		add	r2, r2, r1
 911 0634 38208DE5 		str	r2, [sp, #56]
 912 0638 013083E2 		add	r3, r3, #1
 913 063c 40209DE5 		ldr	r2, [sp, #64]
 914 0640 50308DE5 		str	r3, [sp, #80]
 915              	.LVL98:
 916 0644 020053E1 		cmp	r3, r2
 917 0648 1BFFFF1A 		bne	.L31
 918              	.LVL99:
 919              	.L30:
 920              	.LBE375:
 157:C:/Renesas/e2studio_2021_01_workspace_RZA2M_ANPR/ANPR_RZA2M_GR_MANGO/src/tensorflow_lite/src/tensorflow/lite/kernels/internal/reference/integer_ops\conv.h ****     for (int out_y = 0; out_y < output_height; ++out_y) {
 921              		.loc 2 157 0
 922 064c 0C309DE5 		ldr	r3, [sp, #12]
 923 0650 34209DE5 		ldr	r2, [sp, #52]
 924 0654 013083E2 		add	r3, r3, #1
 925 0658 020053E1 		cmp	r3, r2
 926 065c 0C308DE5 		str	r3, [sp, #12]
 927              	.LVL100:
 928 0660 0DFFFF1A 		bne	.L28
 929              	.LVL101:
 930              	.L8:
 931              	.LBE389:
 213:C:/Renesas/e2studio_2021_01_workspace_RZA2M_ANPR/ANPR_RZA2M_GR_MANGO/src/tensorflow_lite/src/tensorflow/lite/kernels/internal/reference/integer_ops\conv.h ****         }
 214:C:/Renesas/e2studio_2021_01_workspace_RZA2M_ANPR/ANPR_RZA2M_GR_MANGO/src/tensorflow_lite/src/tensorflow/lite/kernels/internal/reference/integer_ops\conv.h ****       }
 215:C:/Renesas/e2studio_2021_01_workspace_RZA2M_ANPR/ANPR_RZA2M_GR_MANGO/src/tensorflow_lite/src/tensorflow/lite/kernels/internal/reference/integer_ops\conv.h ****     }
 216:C:/Renesas/e2studio_2021_01_workspace_RZA2M_ANPR/ANPR_RZA2M_GR_MANGO/src/tensorflow_lite/src/tensorflow/lite/kernels/internal/reference/integer_ops\conv.h ****   }
 217:C:/Renesas/e2studio_2021_01_workspace_RZA2M_ANPR/ANPR_RZA2M_GR_MANGO/src/tensorflow_lite/src/tensorflow/lite/kernels/internal/reference/integer_ops\conv.h **** 
 218:C:/Renesas/e2studio_2021_01_workspace_RZA2M_ANPR/ANPR_RZA2M_GR_MANGO/src/tensorflow_lite/src/tensorflow/lite/kernels/internal/reference/integer_ops\conv.h **** }
 932              		.loc 2 218 0
 933 0664 7CD08DE2 		add	sp, sp, #124
 934              		.cfi_remember_state
 935              		.cfi_def_cfa_offset 36
 936              		@ sp needed
 937 0668 F08FBDE8 		pop	{r4, r5, r6, r7, r8, r9, r10, fp, pc}
 938              	.LVL102:
 939              	.L10:
 940              		.cfi_restore_state
 138:C:/Renesas/e2studio_2021_01_workspace_RZA2M_ANPR/ANPR_RZA2M_GR_MANGO/src/tensorflow_lite/src/tensorflow/lite/kernels/internal/reference/integer_ops\conv.h ****   TFLITE_DCHECK_EQ(input_shape.DimensionsCount(), 4);
 941              		.loc 2 138 0 discriminator 1
 942 066c FEFFFFEB 		bl	abort
 943              	.LVL103:
 944              	.L63:
 945              	.LBB390:
 946              	.LBB309:
 947              	.LBB305:
 292:C:/Renesas/e2studio_2021_01_workspace_RZA2M_ANPR/ANPR_RZA2M_GR_MANGO/src/tensorflow_lite/src/tensorflow/lite/kernels/internal\types.h ****       buffer_size *= dims_data[i];
 948              		.loc 3 292 0
 949 0670 0310A0E1 		mov	r1, r3
 950 0674 C6FEFFEA 		b	.L17
 951              	.L89:
 952              		.align	3
 953              	.L88:
 954 0678 01000000 		.word	1
 955 067c 00000000 		.word	0
 956              	.LVL104:
 957              	.L12:
 958 0680 000054E3 		cmp	r4, #0
 959              	.LBE305:
 960              	.LBB306:
 961              	.LBB303:
 232:C:/Renesas/e2studio_2021_01_workspace_RZA2M_ANPR/ANPR_RZA2M_GR_MANGO/src/tensorflow_lite/src/tensorflow/lite/kernels/internal\types.h ****   }
 962              		.loc 3 232 0
 963 0684 040080E2 		add	r0, r0, #4
 964              	.LVL105:
 965              	.LBE303:
 966              	.LBE306:
 290:C:/Renesas/e2studio_2021_01_workspace_RZA2M_ANPR/ANPR_RZA2M_GR_MANGO/src/tensorflow_lite/src/tensorflow/lite/kernels/internal\types.h ****     const int* dims_data = reinterpret_cast<const int*>(DimsData());
 967              		.loc 3 290 0
 968 0688 0120A0D3 		movle	r2, #1
 969              	.LBB307:
 292:C:/Renesas/e2studio_2021_01_workspace_RZA2M_ANPR/ANPR_RZA2M_GR_MANGO/src/tensorflow_lite/src/tensorflow/lite/kernels/internal\types.h ****       buffer_size *= dims_data[i];
 970              		.loc 3 292 0
 971 068c 9BFEFFCA 		bgt	.L13
 972 0690 EAFEFFEA 		b	.L14
 973              	.L85:
 974 0694 000053E3 		cmp	r3, #0
 975 0698 0120A003 		moveq	r2, #1
 976 069c 0310A001 		moveq	r1, r3
 977              	.LVL106:
 978 06a0 BDFEFF0A 		beq	.L16
 979 06a4 9CFEFFEA 		b	.L15
 980              	.LVL107:
 981              	.L86:
 982              	.LBE307:
 983              	.LBE309:
 984              	.LBE390:
 985              	.LBB391:
 986              	.LBB376:
 987              	.LBB374:
 988              	.LBB372:
 989              	.LBB370:
 990              	.LBB367:
 991              	.LBB341:
 992              	.LBB336:
 993              	.LBB334:
 338:C:/Renesas/e2studio_2021_01_workspace_RZA2M_ANPR/ANPR_RZA2M_GR_MANGO/src/tensorflow_lite/src/third_party/gemmlowp/fixedpoint\fixedpoint.h **** }
 994              		.loc 4 338 0
 995 06a8 0221E0E3 		mvn	r2, #-2147483648
 996              	.LVL108:
 997 06ac 98FFFFEA 		b	.L51
 998              	.LVL109:
 999              	.L66:
 335:C:/Renesas/e2studio_2021_01_workspace_RZA2M_ANPR/ANPR_RZA2M_GR_MANGO/src/tensorflow_lite/src/third_party/gemmlowp/fixedpoint\fixedpoint.h ****   std::int32_t ab_x2_high32 =
 1000              		.loc 4 335 0
 1001 06b0 0721A0E3 		mov	r2, #-1073741823
 1002              	.LVL110:
 1003 06b4 0030E0E3 		mvn	r3, #0
 1004 06b8 8AFFFFEA 		b	.L45
 1005              	.LVL111:
 1006              	.L87:
 1007              	.LBE334:
 1008              	.LBE336:
 1009              	.LBB337:
 1010              	.LBB331:
 359:C:/Renesas/e2studio_2021_01_workspace_RZA2M_ANPR/ANPR_RZA2M_GR_MANGO/src/tensorflow_lite/src/third_party/gemmlowp/fixedpoint\fixedpoint.h ****   const IntegerType mask = Dup<IntegerType>((1ll << exponent) - 1);
 1011              		.loc 4 359 0
 1012 06bc 003000E3 		movw	r3, #:lower16:.LC1
 1013 06c0 002000E3 		movw	r2, #:lower16:.LANCHOR0
 1014 06c4 000000E3 		movw	r0, #:lower16:.LC2
 1015              	.LVL112:
 1016 06c8 003040E3 		movt	r3, #:upper16:.LC1
 1017 06cc 002040E3 		movt	r2, #:upper16:.LANCHOR0
 1018 06d0 000040E3 		movt	r0, #:upper16:.LC2
 1019 06d4 671100E3 		movw	r1, #359
 1020 06d8 FEFFFFEB 		bl	__assert_func
 1021              	.LVL113:
 1022              	.LBE331:
 1023              	.LBE337:
 1024              	.LBE341:
 1025              	.LBE367:
 1026              	.LBE370:
 1027              	.LBE372:
 1028              	.LBE374:
 1029              	.LBE376:
 1030              	.LBE391:
 1031              		.cfi_endproc
 1032              	.LFE4149:
 1033              		.fnend
 1035              		.section	.text._ZN6tflite12_GLOBAL__N_14EvalEP13TfLiteContextP10TfLiteNode,"ax",%progbits
 1036              		.align	2
 1037              		.syntax unified
 1038              		.arm
 1039              		.fpu neon
 1041              	_ZN6tflite12_GLOBAL__N_14EvalEP13TfLiteContextP10TfLiteNode:
 1042              		.fnstart
 1043              	.LFB4182:
  35:../src/tensorflow_lite/src/tensorflow/lite/micro/kernels/conv.cpp **** }
  36:../src/tensorflow_lite/src/tensorflow/lite/micro/kernels/conv.cpp **** 
  37:../src/tensorflow_lite/src/tensorflow/lite/micro/kernels/conv.cpp **** TfLiteStatus Eval(TfLiteContext* context, TfLiteNode* node) {
 1044              		.loc 1 37 0
 1045              		.cfi_startproc
 1046              		.cfi_personality 0,__gxx_personality_v0
 1047              		.cfi_lsda 0,.LLSDA4182
 1048              		@ args = 0, pretend = 0, frame = 344
 1049              		@ frame_needed = 0, uses_anonymous_args = 0
 1050              	.LVL114:
 1051 0000 F04F2DE9 		push	{r4, r5, r6, r7, r8, r9, r10, fp, lr}
 1052              		.save {r4, r5, r6, r7, r8, r9, r10, fp, lr}
 1053              		.cfi_def_cfa_offset 36
 1054              		.cfi_offset 4, -36
 1055              		.cfi_offset 5, -32
 1056              		.cfi_offset 6, -28
 1057              		.cfi_offset 7, -24
 1058              		.cfi_offset 8, -20
 1059              		.cfi_offset 9, -16
 1060              		.cfi_offset 10, -12
 1061              		.cfi_offset 11, -8
 1062              		.cfi_offset 14, -4
  38:../src/tensorflow_lite/src/tensorflow/lite/micro/kernels/conv.cpp ****   const TfLiteEvalTensor* input =
  39:../src/tensorflow_lite/src/tensorflow/lite/micro/kernels/conv.cpp ****       tflite::micro::GetEvalInput(context, node, kConvInputTensor);
 1063              		.loc 1 39 0
 1064 0004 003000E3 		movw	r3, #:lower16:_ZN6tflite16kConvInputTensorE
 1065              	.LBB540:
 1066              	.LBB541:
 1067              	.LBB542:
 1068              		.file 7 "C:/Renesas/e2studio_2021_01_workspace_RZA2M_ANPR/ANPR_RZA2M_GR_MANGO/src/tensorflow_lite/
   1:C:/Renesas/e2studio_2021_01_workspace_RZA2M_ANPR/ANPR_RZA2M_GR_MANGO/src/tensorflow_lite/src/tensorflow/lite/micro/kernels\kernel_util.h **** /* Copyright 2020 The TensorFlow Authors. All Rights Reserved.
   2:C:/Renesas/e2studio_2021_01_workspace_RZA2M_ANPR/ANPR_RZA2M_GR_MANGO/src/tensorflow_lite/src/tensorflow/lite/micro/kernels\kernel_util.h **** 
   3:C:/Renesas/e2studio_2021_01_workspace_RZA2M_ANPR/ANPR_RZA2M_GR_MANGO/src/tensorflow_lite/src/tensorflow/lite/micro/kernels\kernel_util.h **** Licensed under the Apache License, Version 2.0 (the "License");
   4:C:/Renesas/e2studio_2021_01_workspace_RZA2M_ANPR/ANPR_RZA2M_GR_MANGO/src/tensorflow_lite/src/tensorflow/lite/micro/kernels\kernel_util.h **** you may not use this file except in compliance with the License.
   5:C:/Renesas/e2studio_2021_01_workspace_RZA2M_ANPR/ANPR_RZA2M_GR_MANGO/src/tensorflow_lite/src/tensorflow/lite/micro/kernels\kernel_util.h **** You may obtain a copy of the License at
   6:C:/Renesas/e2studio_2021_01_workspace_RZA2M_ANPR/ANPR_RZA2M_GR_MANGO/src/tensorflow_lite/src/tensorflow/lite/micro/kernels\kernel_util.h **** 
   7:C:/Renesas/e2studio_2021_01_workspace_RZA2M_ANPR/ANPR_RZA2M_GR_MANGO/src/tensorflow_lite/src/tensorflow/lite/micro/kernels\kernel_util.h ****     http://www.apache.org/licenses/LICENSE-2.0
   8:C:/Renesas/e2studio_2021_01_workspace_RZA2M_ANPR/ANPR_RZA2M_GR_MANGO/src/tensorflow_lite/src/tensorflow/lite/micro/kernels\kernel_util.h **** 
   9:C:/Renesas/e2studio_2021_01_workspace_RZA2M_ANPR/ANPR_RZA2M_GR_MANGO/src/tensorflow_lite/src/tensorflow/lite/micro/kernels\kernel_util.h **** Unless required by applicable law or agreed to in writing, software
  10:C:/Renesas/e2studio_2021_01_workspace_RZA2M_ANPR/ANPR_RZA2M_GR_MANGO/src/tensorflow_lite/src/tensorflow/lite/micro/kernels\kernel_util.h **** distributed under the License is distributed on an "AS IS" BASIS,
  11:C:/Renesas/e2studio_2021_01_workspace_RZA2M_ANPR/ANPR_RZA2M_GR_MANGO/src/tensorflow_lite/src/tensorflow/lite/micro/kernels\kernel_util.h **** WITHOUT WARRANTIES OR CONDITIONS OF ANY KIND, either express or implied.
  12:C:/Renesas/e2studio_2021_01_workspace_RZA2M_ANPR/ANPR_RZA2M_GR_MANGO/src/tensorflow_lite/src/tensorflow/lite/micro/kernels\kernel_util.h **** See the License for the specific language governing permissions and
  13:C:/Renesas/e2studio_2021_01_workspace_RZA2M_ANPR/ANPR_RZA2M_GR_MANGO/src/tensorflow_lite/src/tensorflow/lite/micro/kernels\kernel_util.h **** limitations under the License.
  14:C:/Renesas/e2studio_2021_01_workspace_RZA2M_ANPR/ANPR_RZA2M_GR_MANGO/src/tensorflow_lite/src/tensorflow/lite/micro/kernels\kernel_util.h **** ==============================================================================*/
  15:C:/Renesas/e2studio_2021_01_workspace_RZA2M_ANPR/ANPR_RZA2M_GR_MANGO/src/tensorflow_lite/src/tensorflow/lite/micro/kernels\kernel_util.h **** 
  16:C:/Renesas/e2studio_2021_01_workspace_RZA2M_ANPR/ANPR_RZA2M_GR_MANGO/src/tensorflow_lite/src/tensorflow/lite/micro/kernels\kernel_util.h **** #ifndef TENSORFLOW_LITE_MICRO_KERNELS_KERNEL_UTIL_H_
  17:C:/Renesas/e2studio_2021_01_workspace_RZA2M_ANPR/ANPR_RZA2M_GR_MANGO/src/tensorflow_lite/src/tensorflow/lite/micro/kernels\kernel_util.h **** #define TENSORFLOW_LITE_MICRO_KERNELS_KERNEL_UTIL_H_
  18:C:/Renesas/e2studio_2021_01_workspace_RZA2M_ANPR/ANPR_RZA2M_GR_MANGO/src/tensorflow_lite/src/tensorflow/lite/micro/kernels\kernel_util.h **** 
  19:C:/Renesas/e2studio_2021_01_workspace_RZA2M_ANPR/ANPR_RZA2M_GR_MANGO/src/tensorflow_lite/src/tensorflow/lite/micro/kernels\kernel_util.h **** #include <cstdint>
  20:C:/Renesas/e2studio_2021_01_workspace_RZA2M_ANPR/ANPR_RZA2M_GR_MANGO/src/tensorflow_lite/src/tensorflow/lite/micro/kernels\kernel_util.h **** 
  21:C:/Renesas/e2studio_2021_01_workspace_RZA2M_ANPR/ANPR_RZA2M_GR_MANGO/src/tensorflow_lite/src/tensorflow/lite/micro/kernels\kernel_util.h **** #include "tensorflow/lite/c/builtin_op_data.h"
  22:C:/Renesas/e2studio_2021_01_workspace_RZA2M_ANPR/ANPR_RZA2M_GR_MANGO/src/tensorflow_lite/src/tensorflow/lite/micro/kernels\kernel_util.h **** #include "tensorflow/lite/c/common.h"
  23:C:/Renesas/e2studio_2021_01_workspace_RZA2M_ANPR/ANPR_RZA2M_GR_MANGO/src/tensorflow_lite/src/tensorflow/lite/micro/kernels\kernel_util.h **** #include "tensorflow/lite/kernels/internal/compatibility.h"
  24:C:/Renesas/e2studio_2021_01_workspace_RZA2M_ANPR/ANPR_RZA2M_GR_MANGO/src/tensorflow_lite/src/tensorflow/lite/micro/kernels\kernel_util.h **** #include "tensorflow/lite/kernels/internal/types.h"
  25:C:/Renesas/e2studio_2021_01_workspace_RZA2M_ANPR/ANPR_RZA2M_GR_MANGO/src/tensorflow_lite/src/tensorflow/lite/micro/kernels\kernel_util.h **** 
  26:C:/Renesas/e2studio_2021_01_workspace_RZA2M_ANPR/ANPR_RZA2M_GR_MANGO/src/tensorflow_lite/src/tensorflow/lite/micro/kernels\kernel_util.h **** namespace tflite {
  27:C:/Renesas/e2studio_2021_01_workspace_RZA2M_ANPR/ANPR_RZA2M_GR_MANGO/src/tensorflow_lite/src/tensorflow/lite/micro/kernels\kernel_util.h **** namespace micro {
  28:C:/Renesas/e2studio_2021_01_workspace_RZA2M_ANPR/ANPR_RZA2M_GR_MANGO/src/tensorflow_lite/src/tensorflow/lite/micro/kernels\kernel_util.h **** 
  29:C:/Renesas/e2studio_2021_01_workspace_RZA2M_ANPR/ANPR_RZA2M_GR_MANGO/src/tensorflow_lite/src/tensorflow/lite/micro/kernels\kernel_util.h **** // Returns a mutable tensor for a given input index. is_variable must be checked
  30:C:/Renesas/e2studio_2021_01_workspace_RZA2M_ANPR/ANPR_RZA2M_GR_MANGO/src/tensorflow_lite/src/tensorflow/lite/micro/kernels\kernel_util.h **** // during prepare when the full TfLiteTensor is available.
  31:C:/Renesas/e2studio_2021_01_workspace_RZA2M_ANPR/ANPR_RZA2M_GR_MANGO/src/tensorflow_lite/src/tensorflow/lite/micro/kernels\kernel_util.h **** inline TfLiteEvalTensor* GetMutableEvalInput(const TfLiteContext* context,
  32:C:/Renesas/e2studio_2021_01_workspace_RZA2M_ANPR/ANPR_RZA2M_GR_MANGO/src/tensorflow_lite/src/tensorflow/lite/micro/kernels\kernel_util.h ****                                              const TfLiteNode* node,
  33:C:/Renesas/e2studio_2021_01_workspace_RZA2M_ANPR/ANPR_RZA2M_GR_MANGO/src/tensorflow_lite/src/tensorflow/lite/micro/kernels\kernel_util.h ****                                              int index) {
  34:C:/Renesas/e2studio_2021_01_workspace_RZA2M_ANPR/ANPR_RZA2M_GR_MANGO/src/tensorflow_lite/src/tensorflow/lite/micro/kernels\kernel_util.h ****   TFLITE_DCHECK(context != nullptr);
 1069              		.loc 7 34 0
 1070 0008 009050E2 		subs	r9, r0, #0
 1071              	.LBE542:
 1072              	.LBE541:
 1073              	.LBE540:
 1074              		.loc 1 39 0
 1075 000c 003040E3 		movt	r3, #:upper16:_ZN6tflite16kConvInputTensorE
  37:../src/tensorflow_lite/src/tensorflow/lite/micro/kernels/conv.cpp ****   const TfLiteEvalTensor* input =
 1076              		.loc 1 37 0
 1077 0010 0160A0E1 		mov	r6, r1
 1078              		.pad #380
 1079 0014 5FDF4DE2 		sub	sp, sp, #380
 1080              		.cfi_def_cfa_offset 416
 1081              		.loc 1 39 0
 1082 0018 001093E5 		ldr	r1, [r3]
 1083              	.LVL115:
 1084              	.LBB549:
 1085              	.LBB546:
 1086              	.LBB543:
 1087              		.loc 7 34 0
 1088 001c DF02000A 		beq	.L92
  35:C:/Renesas/e2studio_2021_01_workspace_RZA2M_ANPR/ANPR_RZA2M_GR_MANGO/src/tensorflow_lite/src/tensorflow/lite/micro/kernels\kernel_util.h ****   TFLITE_DCHECK(node != nullptr);
 1089              		.loc 7 35 0
 1090 0020 000056E3 		cmp	r6, #0
 1091 0024 DD02000A 		beq	.L92
  36:C:/Renesas/e2studio_2021_01_workspace_RZA2M_ANPR/ANPR_RZA2M_GR_MANGO/src/tensorflow_lite/src/tensorflow/lite/micro/kernels\kernel_util.h ****   return context->GetEvalTensor(context, node->inputs->data[index]);
 1092              		.loc 7 36 0
 1093 0028 003096E5 		ldr	r3, [r6]
 1094 002c 542099E5 		ldr	r2, [r9, #84]
 1095 0030 013183E0 		add	r3, r3, r1, lsl #2
 1096 0034 041093E5 		ldr	r1, [r3, #4]
 1097              	.LVL116:
 1098              	.LEHB0:
 1099 0038 32FF2FE1 		blx	r2
 1100              	.LVL117:
 1101              	.LBE543:
 1102              	.LBE546:
 1103              	.LBE549:
 1104              	.LBB550:
 1105              	.LBB551:
 1106              	.LBB552:
 1107 003c 002000E3 		movw	r2, #:lower16:_ZN6tflite18kConvWeightsTensorE
 1108 0040 003096E5 		ldr	r3, [r6]
 1109 0044 002040E3 		movt	r2, #:upper16:_ZN6tflite18kConvWeightsTensorE
 1110              	.LBE552:
 1111              	.LBE551:
 1112              	.LBE550:
 1113              	.LBB555:
 1114              	.LBB547:
 1115              	.LBB544:
 1116 0048 0070A0E1 		mov	r7, r0
 1117              	.LVL118:
 1118              	.LBE544:
 1119              	.LBE547:
 1120              	.LBE555:
 1121              	.LBB556:
 1122              	.LBB554:
 1123              	.LBB553:
 1124 004c 002092E5 		ldr	r2, [r2]
 1125 0050 0900A0E1 		mov	r0, r9
 1126 0054 544099E5 		ldr	r4, [r9, #84]
 1127 0058 023183E0 		add	r3, r3, r2, lsl #2
 1128 005c 041093E5 		ldr	r1, [r3, #4]
 1129 0060 34FF2FE1 		blx	r4
 1130              	.LVL119:
 1131 0064 003096E5 		ldr	r3, [r6]
 1132 0068 0080A0E1 		mov	r8, r0
 1133              	.LVL120:
 1134              	.LBE553:
 1135              	.LBE554:
 1136              	.LBE556:
  40:../src/tensorflow_lite/src/tensorflow/lite/micro/kernels/conv.cpp ****   const TfLiteEvalTensor* filter =
  41:../src/tensorflow_lite/src/tensorflow/lite/micro/kernels/conv.cpp ****       tflite::micro::GetEvalInput(context, node, kConvWeightsTensor);
  42:../src/tensorflow_lite/src/tensorflow/lite/micro/kernels/conv.cpp ****   const TfLiteEvalTensor* bias =
  43:../src/tensorflow_lite/src/tensorflow/lite/micro/kernels/conv.cpp ****       (NumInputs(node) == 3)
  44:../src/tensorflow_lite/src/tensorflow/lite/micro/kernels/conv.cpp ****           ? tflite::micro::GetEvalInput(context, node, kConvBiasTensor)
 1137              		.loc 1 44 0
 1138 006c 002093E5 		ldr	r2, [r3]
 1139 0070 030052E3 		cmp	r2, #3
 1140 0074 0050A013 		movne	r5, #0
 1141 0078 8600000A 		beq	.L292
 1142              	.L93:
 1143              	.LVL121:
 1144              	.LBB557:
 1145              	.LBB558:
  37:C:/Renesas/e2studio_2021_01_workspace_RZA2M_ANPR/ANPR_RZA2M_GR_MANGO/src/tensorflow_lite/src/tensorflow/lite/micro/kernels\kernel_util.h **** }
  38:C:/Renesas/e2studio_2021_01_workspace_RZA2M_ANPR/ANPR_RZA2M_GR_MANGO/src/tensorflow_lite/src/tensorflow/lite/micro/kernels\kernel_util.h **** 
  39:C:/Renesas/e2studio_2021_01_workspace_RZA2M_ANPR/ANPR_RZA2M_GR_MANGO/src/tensorflow_lite/src/tensorflow/lite/micro/kernels\kernel_util.h **** // Returns the TfLiteEvalTensor struct for a given input index in a node.
  40:C:/Renesas/e2studio_2021_01_workspace_RZA2M_ANPR/ANPR_RZA2M_GR_MANGO/src/tensorflow_lite/src/tensorflow/lite/micro/kernels\kernel_util.h **** inline const TfLiteEvalTensor* GetEvalInput(const TfLiteContext* context,
  41:C:/Renesas/e2studio_2021_01_workspace_RZA2M_ANPR/ANPR_RZA2M_GR_MANGO/src/tensorflow_lite/src/tensorflow/lite/micro/kernels\kernel_util.h ****                                             const TfLiteNode* node, int index) {
  42:C:/Renesas/e2studio_2021_01_workspace_RZA2M_ANPR/ANPR_RZA2M_GR_MANGO/src/tensorflow_lite/src/tensorflow/lite/micro/kernels\kernel_util.h ****   return GetMutableEvalInput(context, node, index);
  43:C:/Renesas/e2studio_2021_01_workspace_RZA2M_ANPR/ANPR_RZA2M_GR_MANGO/src/tensorflow_lite/src/tensorflow/lite/micro/kernels\kernel_util.h **** }
  44:C:/Renesas/e2studio_2021_01_workspace_RZA2M_ANPR/ANPR_RZA2M_GR_MANGO/src/tensorflow_lite/src/tensorflow/lite/micro/kernels\kernel_util.h **** 
  45:C:/Renesas/e2studio_2021_01_workspace_RZA2M_ANPR/ANPR_RZA2M_GR_MANGO/src/tensorflow_lite/src/tensorflow/lite/micro/kernels\kernel_util.h **** // Returns the TfLiteEvalTensor struct for a given output index in a node.
  46:C:/Renesas/e2studio_2021_01_workspace_RZA2M_ANPR/ANPR_RZA2M_GR_MANGO/src/tensorflow_lite/src/tensorflow/lite/micro/kernels\kernel_util.h **** inline TfLiteEvalTensor* GetEvalOutput(const TfLiteContext* context,
  47:C:/Renesas/e2studio_2021_01_workspace_RZA2M_ANPR/ANPR_RZA2M_GR_MANGO/src/tensorflow_lite/src/tensorflow/lite/micro/kernels\kernel_util.h ****                                        const TfLiteNode* node, int index) {
  48:C:/Renesas/e2studio_2021_01_workspace_RZA2M_ANPR/ANPR_RZA2M_GR_MANGO/src/tensorflow_lite/src/tensorflow/lite/micro/kernels\kernel_util.h ****   TFLITE_DCHECK(context != nullptr);
  49:C:/Renesas/e2studio_2021_01_workspace_RZA2M_ANPR/ANPR_RZA2M_GR_MANGO/src/tensorflow_lite/src/tensorflow/lite/micro/kernels\kernel_util.h ****   TFLITE_DCHECK(node != nullptr);
  50:C:/Renesas/e2studio_2021_01_workspace_RZA2M_ANPR/ANPR_RZA2M_GR_MANGO/src/tensorflow_lite/src/tensorflow/lite/micro/kernels\kernel_util.h ****   return context->GetEvalTensor(context, node->outputs->data[index]);
 1146              		.loc 7 50 0
 1147 007c 002000E3 		movw	r2, #:lower16:_ZN6tflite17kConvOutputTensorE
 1148 0080 043096E5 		ldr	r3, [r6, #4]
 1149 0084 002040E3 		movt	r2, #:upper16:_ZN6tflite17kConvOutputTensorE
 1150 0088 544099E5 		ldr	r4, [r9, #84]
 1151 008c 002092E5 		ldr	r2, [r2]
 1152 0090 0900A0E1 		mov	r0, r9
 1153 0094 023183E0 		add	r3, r3, r2, lsl #2
 1154 0098 041093E5 		ldr	r1, [r3, #4]
 1155 009c 34FF2FE1 		blx	r4
 1156              	.LVL122:
 1157              	.LBE558:
 1158              	.LBE557:
  45:../src/tensorflow_lite/src/tensorflow/lite/micro/kernels/conv.cpp ****           : nullptr;
  46:../src/tensorflow_lite/src/tensorflow/lite/micro/kernels/conv.cpp ****   TfLiteEvalTensor* output =
  47:../src/tensorflow_lite/src/tensorflow/lite/micro/kernels/conv.cpp ****       tflite::micro::GetEvalOutput(context, node, kConvOutputTensor);
  48:../src/tensorflow_lite/src/tensorflow/lite/micro/kernels/conv.cpp **** 
  49:../src/tensorflow_lite/src/tensorflow/lite/micro/kernels/conv.cpp ****   TFLITE_DCHECK(node->builtin_data != nullptr);
 1159              		.loc 1 49 0
 1160 00a0 141096E5 		ldr	r1, [r6, #20]
 1161              	.LBB560:
 1162              	.LBB559:
 1163              		.loc 7 50 0
 1164 00a4 0040A0E1 		mov	r4, r0
 1165              	.LVL123:
 1166              	.LBE559:
 1167              	.LBE560:
 1168              		.loc 1 49 0
 1169 00a8 000051E3 		cmp	r1, #0
 1170 00ac BB02000A 		beq	.L92
 1171              	.LVL124:
  50:../src/tensorflow_lite/src/tensorflow/lite/micro/kernels/conv.cpp ****   const auto& params =
  51:../src/tensorflow_lite/src/tensorflow/lite/micro/kernels/conv.cpp ****       *(reinterpret_cast<TfLiteConvParams*>(node->builtin_data));
  52:../src/tensorflow_lite/src/tensorflow/lite/micro/kernels/conv.cpp ****   TFLITE_DCHECK(node->user_data != nullptr);
 1172              		.loc 1 52 0
 1173 00b0 10B096E5 		ldr	fp, [r6, #16]
 1174 00b4 00005BE3 		cmp	fp, #0
 1175 00b8 B802000A 		beq	.L92
 1176              	.LVL125:
  53:../src/tensorflow_lite/src/tensorflow/lite/micro/kernels/conv.cpp ****   const auto& data = *(static_cast<const OpDataConv*>(node->user_data));
  54:../src/tensorflow_lite/src/tensorflow/lite/micro/kernels/conv.cpp **** 
  55:../src/tensorflow_lite/src/tensorflow/lite/micro/kernels/conv.cpp ****   TF_LITE_ENSURE_EQ(context, input->type, output->type);
 1177              		.loc 1 55 0
 1178 00bc 0830D7E5 		ldrb	r3, [r7, #8]	@ zero_extendqisi2
 1179 00c0 0800D0E5 		ldrb	r0, [r0, #8]	@ zero_extendqisi2
 1180 00c4 000053E1 		cmp	r3, r0
 1181 00c8 5400001A 		bne	.L293
  56:../src/tensorflow_lite/src/tensorflow/lite/micro/kernels/conv.cpp ****   TF_LITE_ENSURE_MSG(context, input->type == filter->type,
 1182              		.loc 1 56 0
 1183 00cc 0800D8E5 		ldrb	r0, [r8, #8]	@ zero_extendqisi2
 1184 00d0 030050E1 		cmp	r0, r3
 1185 00d4 4900001A 		bne	.L294
  57:../src/tensorflow_lite/src/tensorflow/lite/micro/kernels/conv.cpp ****                      "Hybrid models are not supported on TFLite Micro.");
  58:../src/tensorflow_lite/src/tensorflow/lite/micro/kernels/conv.cpp **** 
  59:../src/tensorflow_lite/src/tensorflow/lite/micro/kernels/conv.cpp ****   switch (input->type) {  // Already know in/out types are same.
 1186              		.loc 1 59 0
 1187 00d8 010050E3 		cmp	r0, #1
 1188 00dc 7700000A 		beq	.L98
 1189 00e0 090050E3 		cmp	r0, #9
 1190 00e4 6000001A 		bne	.L295
  60:../src/tensorflow_lite/src/tensorflow/lite/micro/kernels/conv.cpp ****     case kTfLiteFloat32: {
  61:../src/tensorflow_lite/src/tensorflow/lite/micro/kernels/conv.cpp ****       tflite::reference_ops::Conv(
  62:../src/tensorflow_lite/src/tensorflow/lite/micro/kernels/conv.cpp ****           ConvParamsFloat(params, data), tflite::micro::GetTensorShape(input),
  63:../src/tensorflow_lite/src/tensorflow/lite/micro/kernels/conv.cpp ****           tflite::micro::GetTensorData<float>(input),
  64:../src/tensorflow_lite/src/tensorflow/lite/micro/kernels/conv.cpp ****           tflite::micro::GetTensorShape(filter),
  65:../src/tensorflow_lite/src/tensorflow/lite/micro/kernels/conv.cpp ****           tflite::micro::GetTensorData<float>(filter),
  66:../src/tensorflow_lite/src/tensorflow/lite/micro/kernels/conv.cpp ****           tflite::micro::GetTensorShape(bias),
  67:../src/tensorflow_lite/src/tensorflow/lite/micro/kernels/conv.cpp ****           tflite::micro::GetTensorData<float>(bias),
  68:../src/tensorflow_lite/src/tensorflow/lite/micro/kernels/conv.cpp ****           tflite::micro::GetTensorShape(output),
  69:../src/tensorflow_lite/src/tensorflow/lite/micro/kernels/conv.cpp ****           tflite::micro::GetTensorData<float>(output),
  70:../src/tensorflow_lite/src/tensorflow/lite/micro/kernels/conv.cpp ****           tflite::micro::GetTensorShape(nullptr), nullptr);
  71:../src/tensorflow_lite/src/tensorflow/lite/micro/kernels/conv.cpp ****       break;
  72:../src/tensorflow_lite/src/tensorflow/lite/micro/kernels/conv.cpp ****     }
  73:../src/tensorflow_lite/src/tensorflow/lite/micro/kernels/conv.cpp ****     case kTfLiteInt8: {
  74:../src/tensorflow_lite/src/tensorflow/lite/micro/kernels/conv.cpp ****       reference_integer_ops::ConvPerChannel(
  75:../src/tensorflow_lite/src/tensorflow/lite/micro/kernels/conv.cpp ****           ConvParamsQuantized(params, data), data.per_channel_output_multiplier,
 1191              		.loc 1 75 0
 1192 00e8 0B20A0E1 		mov	r2, fp
 1193 00ec 050D8DE2 		add	r0, sp, #320
 1194 00f0 FEFFFFEB 		bl	_ZN6tflite19ConvParamsQuantizedERK16TfLiteConvParamsRKNS_10OpDataConvE
 1195              	.LVL126:
  76:../src/tensorflow_lite/src/tensorflow/lite/micro/kernels/conv.cpp ****           data.per_channel_output_shift, tflite::micro::GetTensorShape(input),
 1196              		.loc 1 76 0
 1197 00f4 E0008DE2 		add	r0, sp, #224
 1198 00f8 0710A0E1 		mov	r1, r7
  75:../src/tensorflow_lite/src/tensorflow/lite/micro/kernels/conv.cpp ****           data.per_channel_output_shift, tflite::micro::GetTensorShape(input),
 1199              		.loc 1 75 0
 1200 00fc 24A09BE5 		ldr	r10, [fp, #36]
  77:../src/tensorflow_lite/src/tensorflow/lite/micro/kernels/conv.cpp ****           tflite::micro::GetTensorData<int8_t>(input),
  78:../src/tensorflow_lite/src/tensorflow/lite/micro/kernels/conv.cpp ****           tflite::micro::GetTensorShape(filter),
 1201              		.loc 1 78 0
 1202 0100 F8608DE2 		add	r6, sp, #248
 1203              	.LVL127:
  76:../src/tensorflow_lite/src/tensorflow/lite/micro/kernels/conv.cpp ****           tflite::micro::GetTensorData<int8_t>(input),
 1204              		.loc 1 76 0
 1205 0104 28B09BE5 		ldr	fp, [fp, #40]
 1206              	.LVL128:
 1207 0108 FEFFFFEB 		bl	_ZN6tflite5micro14GetTensorShapeEPK16TfLiteEvalTensor
 1208              	.LVL129:
 1209              	.LEHE0:
 1210              	.LBB561:
 1211              	.LBB562:
  51:C:/Renesas/e2studio_2021_01_workspace_RZA2M_ANPR/ANPR_RZA2M_GR_MANGO/src/tensorflow_lite/src/tensorflow/lite/micro/kernels\kernel_util.h **** }
  52:C:/Renesas/e2studio_2021_01_workspace_RZA2M_ANPR/ANPR_RZA2M_GR_MANGO/src/tensorflow_lite/src/tensorflow/lite/micro/kernels\kernel_util.h **** 
  53:C:/Renesas/e2studio_2021_01_workspace_RZA2M_ANPR/ANPR_RZA2M_GR_MANGO/src/tensorflow_lite/src/tensorflow/lite/micro/kernels\kernel_util.h **** // Returns data for a TfLiteEvalTensor struct.
  54:C:/Renesas/e2studio_2021_01_workspace_RZA2M_ANPR/ANPR_RZA2M_GR_MANGO/src/tensorflow_lite/src/tensorflow/lite/micro/kernels\kernel_util.h **** template <typename T>
  55:C:/Renesas/e2studio_2021_01_workspace_RZA2M_ANPR/ANPR_RZA2M_GR_MANGO/src/tensorflow_lite/src/tensorflow/lite/micro/kernels\kernel_util.h **** T* GetTensorData(TfLiteEvalTensor* tensor) {
  56:C:/Renesas/e2studio_2021_01_workspace_RZA2M_ANPR/ANPR_RZA2M_GR_MANGO/src/tensorflow_lite/src/tensorflow/lite/micro/kernels\kernel_util.h ****   return tensor != nullptr ? reinterpret_cast<T*>(tensor->data.raw) : nullptr;
  57:C:/Renesas/e2studio_2021_01_workspace_RZA2M_ANPR/ANPR_RZA2M_GR_MANGO/src/tensorflow_lite/src/tensorflow/lite/micro/kernels\kernel_util.h **** }
  58:C:/Renesas/e2studio_2021_01_workspace_RZA2M_ANPR/ANPR_RZA2M_GR_MANGO/src/tensorflow_lite/src/tensorflow/lite/micro/kernels\kernel_util.h **** 
  59:C:/Renesas/e2studio_2021_01_workspace_RZA2M_ANPR/ANPR_RZA2M_GR_MANGO/src/tensorflow_lite/src/tensorflow/lite/micro/kernels\kernel_util.h **** // Returns const data for a TfLiteEvalTensor struct.
  60:C:/Renesas/e2studio_2021_01_workspace_RZA2M_ANPR/ANPR_RZA2M_GR_MANGO/src/tensorflow_lite/src/tensorflow/lite/micro/kernels\kernel_util.h **** template <typename T>
  61:C:/Renesas/e2studio_2021_01_workspace_RZA2M_ANPR/ANPR_RZA2M_GR_MANGO/src/tensorflow_lite/src/tensorflow/lite/micro/kernels\kernel_util.h **** const T* GetTensorData(const TfLiteEvalTensor* tensor) {
  62:C:/Renesas/e2studio_2021_01_workspace_RZA2M_ANPR/ANPR_RZA2M_GR_MANGO/src/tensorflow_lite/src/tensorflow/lite/micro/kernels\kernel_util.h ****   TFLITE_DCHECK(tensor != nullptr);
  63:C:/Renesas/e2studio_2021_01_workspace_RZA2M_ANPR/ANPR_RZA2M_GR_MANGO/src/tensorflow_lite/src/tensorflow/lite/micro/kernels\kernel_util.h ****   return reinterpret_cast<const T*>(tensor->data.raw);
 1212              		.loc 7 63 0
 1213 010c 003097E5 		ldr	r3, [r7]
 1214              	.LBE562:
 1215              	.LBE561:
 1216              		.loc 1 78 0
 1217 0110 0600A0E1 		mov	r0, r6
 1218 0114 0810A0E1 		mov	r1, r8
 1219              	.LBB564:
 1220              	.LBB563:
 1221              		.loc 7 63 0
 1222 0118 24308DE5 		str	r3, [sp, #36]
 1223              	.LEHB1:
 1224              	.LBE563:
 1225              	.LBE564:
 1226              		.loc 1 78 0
 1227 011c FEFFFFEB 		bl	_ZN6tflite5micro14GetTensorShapeEPK16TfLiteEvalTensor
 1228              	.LVL130:
 1229              	.LEHE1:
  79:../src/tensorflow_lite/src/tensorflow/lite/micro/kernels/conv.cpp ****           tflite::micro::GetTensorData<int8_t>(filter),
  80:../src/tensorflow_lite/src/tensorflow/lite/micro/kernels/conv.cpp ****           tflite::micro::GetTensorShape(bias),
 1230              		.loc 1 80 0
 1231 0120 117E8DE2 		add	r7, sp, #272
 1232 0124 0510A0E1 		mov	r1, r5
 1233 0128 0700A0E1 		mov	r0, r7
 1234              	.LBB565:
 1235              	.LBB566:
 1236              		.loc 7 63 0
 1237 012c 009098E5 		ldr	r9, [r8]
 1238              	.LVL131:
 1239              	.LEHB2:
 1240              	.LBE566:
 1241              	.LBE565:
 1242              		.loc 1 80 0
 1243 0130 FEFFFFEB 		bl	_ZN6tflite5micro14GetTensorShapeEPK16TfLiteEvalTensor
 1244              	.LVL132:
 1245              	.LEHE2:
 1246              	.LBB567:
 1247              	.LBB568:
  62:C:/Renesas/e2studio_2021_01_workspace_RZA2M_ANPR/ANPR_RZA2M_GR_MANGO/src/tensorflow_lite/src/tensorflow/lite/micro/kernels\kernel_util.h ****   return reinterpret_cast<const T*>(tensor->data.raw);
 1248              		.loc 7 62 0
 1249 0134 000055E3 		cmp	r5, #0
 1250 0138 9502000A 		beq	.L296
 1251              	.LBE568:
 1252              	.LBE567:
  81:../src/tensorflow_lite/src/tensorflow/lite/micro/kernels/conv.cpp ****           tflite::micro::GetTensorData<int32_t>(bias),
  82:../src/tensorflow_lite/src/tensorflow/lite/micro/kernels/conv.cpp ****           tflite::micro::GetTensorShape(output),
 1253              		.loc 1 82 0
 1254 013c 4A8F8DE2 		add	r8, sp, #296
 1255 0140 0410A0E1 		mov	r1, r4
 1256 0144 0800A0E1 		mov	r0, r8
 1257              	.LBB571:
 1258              	.LBB569:
 1259              		.loc 7 63 0
 1260 0148 005095E5 		ldr	r5, [r5]
 1261              	.LVL133:
 1262              	.LEHB3:
 1263              	.LBE569:
 1264              	.LBE571:
 1265              		.loc 1 82 0
 1266 014c FEFFFFEB 		bl	_ZN6tflite5micro14GetTensorShapeEPK16TfLiteEvalTensor
 1267              	.LVL134:
 1268              	.LEHE3:
  83:../src/tensorflow_lite/src/tensorflow/lite/micro/kernels/conv.cpp ****           tflite::micro::GetTensorData<int8_t>(output));
 1269              		.loc 1 83 0
 1270 0150 000094E5 		ldr	r0, [r4]
 1271 0154 E0308DE2 		add	r3, sp, #224
 1272 0158 24C09DE5 		ldr	ip, [sp, #36]
 1273 015c 0B20A0E1 		mov	r2, fp
 1274 0160 14808DE5 		str	r8, [sp, #20]
 1275 0164 0A10A0E1 		mov	r1, r10
 1276 0168 18008DE5 		str	r0, [sp, #24]
 1277 016c 050D8DE2 		add	r0, sp, #320
 1278 0170 10508DE5 		str	r5, [sp, #16]
 1279 0174 0C708DE5 		str	r7, [sp, #12]
 1280 0178 40028DE9 		stmib	sp, {r6, r9}
 1281 017c 00C08DE5 		str	ip, [sp]
 1282              	.LEHB4:
 1283 0180 FEFFFFEB 		bl	_ZN6tflite21reference_integer_ops14ConvPerChannelERKNS_10ConvParamsEPKlS5_RKNS_12RuntimeShapeEP
 1284              	.LVL135:
 1285              	.LEHE4:
 1286              	.LBB572:
 1287              	.LBB573:
 203:C:/Renesas/e2studio_2021_01_workspace_RZA2M_ANPR/ANPR_RZA2M_GR_MANGO/src/tensorflow_lite/src/tensorflow/lite/kernels/internal\types.h **** #ifdef TF_LITE_STATIC_MEMORY
 1288              		.loc 3 203 0
 1289 0184 28319DE5 		ldr	r3, [sp, #296]
 1290 0188 050053E3 		cmp	r3, #5
 1291 018c 030000DA 		ble	.L162
 207:C:/Renesas/e2studio_2021_01_workspace_RZA2M_ANPR/ANPR_RZA2M_GR_MANGO/src/tensorflow_lite/src/tensorflow/lite/kernels/internal\types.h **** #endif  // TF_LITE_STATIC_MEMORY
 1292              		.loc 3 207 0
 1293 0190 2C019DE5 		ldr	r0, [sp, #300]
 1294 0194 000050E3 		cmp	r0, #0
 1295 0198 0000000A 		beq	.L162
 1296 019c FEFFFFEB 		bl	_ZdaPv
 1297              	.LVL136:
 1298              	.L162:
 1299              	.LBE573:
 1300              	.LBE572:
 1301              	.LBB574:
 1302              	.LBB575:
 203:C:/Renesas/e2studio_2021_01_workspace_RZA2M_ANPR/ANPR_RZA2M_GR_MANGO/src/tensorflow_lite/src/tensorflow/lite/kernels/internal\types.h **** #ifdef TF_LITE_STATIC_MEMORY
 1303              		.loc 3 203 0
 1304 01a0 10319DE5 		ldr	r3, [sp, #272]
 1305 01a4 050053E3 		cmp	r3, #5
 1306 01a8 030000DA 		ble	.L163
 207:C:/Renesas/e2studio_2021_01_workspace_RZA2M_ANPR/ANPR_RZA2M_GR_MANGO/src/tensorflow_lite/src/tensorflow/lite/kernels/internal\types.h **** #endif  // TF_LITE_STATIC_MEMORY
 1307              		.loc 3 207 0
 1308 01ac 14019DE5 		ldr	r0, [sp, #276]
 1309 01b0 000050E3 		cmp	r0, #0
 1310 01b4 0000000A 		beq	.L163
 1311 01b8 FEFFFFEB 		bl	_ZdaPv
 1312              	.LVL137:
 1313              	.L163:
 1314              	.LBE575:
 1315              	.LBE574:
 1316              	.LBB576:
 1317              	.LBB577:
 203:C:/Renesas/e2studio_2021_01_workspace_RZA2M_ANPR/ANPR_RZA2M_GR_MANGO/src/tensorflow_lite/src/tensorflow/lite/kernels/internal\types.h **** #ifdef TF_LITE_STATIC_MEMORY
 1318              		.loc 3 203 0
 1319 01bc F8309DE5 		ldr	r3, [sp, #248]
 1320 01c0 050053E3 		cmp	r3, #5
 1321 01c4 030000DA 		ble	.L164
 207:C:/Renesas/e2studio_2021_01_workspace_RZA2M_ANPR/ANPR_RZA2M_GR_MANGO/src/tensorflow_lite/src/tensorflow/lite/kernels/internal\types.h **** #endif  // TF_LITE_STATIC_MEMORY
 1322              		.loc 3 207 0
 1323 01c8 FC009DE5 		ldr	r0, [sp, #252]
 1324 01cc 000050E3 		cmp	r0, #0
 1325 01d0 0000000A 		beq	.L164
 1326 01d4 FEFFFFEB 		bl	_ZdaPv
 1327              	.LVL138:
 1328              	.L164:
 1329              	.LBE577:
 1330              	.LBE576:
 1331              	.LBB578:
 1332              	.LBB579:
 203:C:/Renesas/e2studio_2021_01_workspace_RZA2M_ANPR/ANPR_RZA2M_GR_MANGO/src/tensorflow_lite/src/tensorflow/lite/kernels/internal\types.h **** #ifdef TF_LITE_STATIC_MEMORY
 1333              		.loc 3 203 0
 1334 01d8 E0309DE5 		ldr	r3, [sp, #224]
 1335 01dc 050053E3 		cmp	r3, #5
 1336 01e0 030000DA 		ble	.L165
 207:C:/Renesas/e2studio_2021_01_workspace_RZA2M_ANPR/ANPR_RZA2M_GR_MANGO/src/tensorflow_lite/src/tensorflow/lite/kernels/internal\types.h **** #endif  // TF_LITE_STATIC_MEMORY
 1337              		.loc 3 207 0
 1338 01e4 E4009DE5 		ldr	r0, [sp, #228]
 1339 01e8 000050E3 		cmp	r0, #0
 1340 01ec 0000000A 		beq	.L165
 1341              	.LVL139:
 1342              	.L288:
 1343 01f0 FEFFFFEB 		bl	_ZdaPv
 1344              	.LVL140:
 1345              	.L165:
 1346              	.LBE579:
 1347              	.LBE578:
  84:../src/tensorflow_lite/src/tensorflow/lite/micro/kernels/conv.cpp ****       break;
  85:../src/tensorflow_lite/src/tensorflow/lite/micro/kernels/conv.cpp ****     }
  86:../src/tensorflow_lite/src/tensorflow/lite/micro/kernels/conv.cpp ****     default:
  87:../src/tensorflow_lite/src/tensorflow/lite/micro/kernels/conv.cpp ****       TF_LITE_KERNEL_LOG(context, "Type %s (%d) not supported.",
  88:../src/tensorflow_lite/src/tensorflow/lite/micro/kernels/conv.cpp ****                          TfLiteTypeGetName(input->type), input->type);
  89:../src/tensorflow_lite/src/tensorflow/lite/micro/kernels/conv.cpp ****       return kTfLiteError;
  90:../src/tensorflow_lite/src/tensorflow/lite/micro/kernels/conv.cpp ****   }
  91:../src/tensorflow_lite/src/tensorflow/lite/micro/kernels/conv.cpp ****   return kTfLiteOk;
 1348              		.loc 1 91 0
 1349 01f4 0000A0E3 		mov	r0, #0
  92:../src/tensorflow_lite/src/tensorflow/lite/micro/kernels/conv.cpp **** }
 1350              		.loc 1 92 0
 1351 01f8 5FDF8DE2 		add	sp, sp, #380
 1352              		.cfi_remember_state
 1353              		.cfi_def_cfa_offset 36
 1354              		@ sp needed
 1355 01fc F08FBDE8 		pop	{r4, r5, r6, r7, r8, r9, r10, fp, pc}
 1356              	.LVL141:
 1357              	.L294:
 1358              		.cfi_restore_state
  56:../src/tensorflow_lite/src/tensorflow/lite/micro/kernels/conv.cpp ****                      "Hybrid models are not supported on TFLite Micro.");
 1359              		.loc 1 56 0 discriminator 1
 1360 0200 001000E3 		movw	r1, #:lower16:.LC7
 1361              	.LVL142:
 1362 0204 0900A0E1 		mov	r0, r9
 1363 0208 143099E5 		ldr	r3, [r9, #20]
 1364 020c 001040E3 		movt	r1, #:upper16:.LC7
 1365              	.LEHB5:
 1366 0210 33FF2FE1 		blx	r3
 1367              	.LVL143:
 1368 0214 0100A0E3 		mov	r0, #1
 1369              		.loc 1 92 0 discriminator 1
 1370 0218 5FDF8DE2 		add	sp, sp, #380
 1371              		.cfi_remember_state
 1372              		.cfi_def_cfa_offset 36
 1373              		@ sp needed
 1374 021c F08FBDE8 		pop	{r4, r5, r6, r7, r8, r9, r10, fp, pc}
 1375              	.LVL144:
 1376              	.L293:
 1377              		.cfi_restore_state
  55:../src/tensorflow_lite/src/tensorflow/lite/micro/kernels/conv.cpp ****   TF_LITE_ENSURE_MSG(context, input->type == filter->type,
 1378              		.loc 1 55 0 discriminator 1
 1379 0220 00E000E3 		movw	lr, #:lower16:.LC5
 1380 0224 00C000E3 		movw	ip, #:lower16:.LC6
 1381 0228 00E040E3 		movt	lr, #:upper16:.LC5
 1382 022c 00C040E3 		movt	ip, #:upper16:.LC6
 1383 0230 002000E3 		movw	r2, #:lower16:.LC3
 1384 0234 001000E3 		movw	r1, #:lower16:.LC4
 1385              	.LVL145:
 1386 0238 0C008DE5 		str	r0, [sp, #12]
 1387              	.LVL146:
 1388 023c 002040E3 		movt	r2, #:upper16:.LC3
 1389 0240 08308DE5 		str	r3, [sp, #8]
 1390 0244 0900A0E1 		mov	r0, r9
 1391 0248 04E08DE5 		str	lr, [sp, #4]
 1392 024c 001040E3 		movt	r1, #:upper16:.LC4
 1393 0250 00C08DE5 		str	ip, [sp]
 1394 0254 3730A0E3 		mov	r3, #55
 1395 0258 144099E5 		ldr	r4, [r9, #20]
 1396 025c 34FF2FE1 		blx	r4
 1397              	.LVL147:
 1398 0260 0100A0E3 		mov	r0, #1
 1399              		.loc 1 92 0 discriminator 1
 1400 0264 5FDF8DE2 		add	sp, sp, #380
 1401              		.cfi_remember_state
 1402              		.cfi_def_cfa_offset 36
 1403              		@ sp needed
 1404 0268 F08FBDE8 		pop	{r4, r5, r6, r7, r8, r9, r10, fp, pc}
 1405              	.LVL148:
 1406              	.L295:
 1407              		.cfi_restore_state
  87:../src/tensorflow_lite/src/tensorflow/lite/micro/kernels/conv.cpp ****                          TfLiteTypeGetName(input->type), input->type);
 1408              		.loc 1 87 0
 1409 026c 144099E5 		ldr	r4, [r9, #20]
 1410 0270 FEFFFFEB 		bl	TfLiteTypeGetName
 1411              	.LVL149:
 1412 0274 001000E3 		movw	r1, #:lower16:.LC8
 1413 0278 0020A0E1 		mov	r2, r0
 1414 027c 0830D7E5 		ldrb	r3, [r7, #8]	@ zero_extendqisi2
 1415 0280 0900A0E1 		mov	r0, r9
 1416 0284 001040E3 		movt	r1, #:upper16:.LC8
 1417 0288 34FF2FE1 		blx	r4
 1418              	.LVL150:
  89:../src/tensorflow_lite/src/tensorflow/lite/micro/kernels/conv.cpp ****   }
 1419              		.loc 1 89 0
 1420 028c 0100A0E3 		mov	r0, #1
 1421              		.loc 1 92 0
 1422 0290 5FDF8DE2 		add	sp, sp, #380
 1423              		.cfi_remember_state
 1424              		.cfi_def_cfa_offset 36
 1425              		@ sp needed
 1426 0294 F08FBDE8 		pop	{r4, r5, r6, r7, r8, r9, r10, fp, pc}
 1427              	.LVL151:
 1428              	.L292:
 1429              		.cfi_restore_state
 1430              	.LBB580:
 1431              	.LBB581:
 1432              	.LBB582:
  36:C:/Renesas/e2studio_2021_01_workspace_RZA2M_ANPR/ANPR_RZA2M_GR_MANGO/src/tensorflow_lite/src/tensorflow/lite/micro/kernels\kernel_util.h **** }
 1433              		.loc 7 36 0 discriminator 1
 1434 0298 002000E3 		movw	r2, #:lower16:_ZN6tflite15kConvBiasTensorE
 1435 029c 544099E5 		ldr	r4, [r9, #84]
 1436 02a0 002040E3 		movt	r2, #:upper16:_ZN6tflite15kConvBiasTensorE
 1437 02a4 0900A0E1 		mov	r0, r9
 1438 02a8 002092E5 		ldr	r2, [r2]
 1439 02ac 023183E0 		add	r3, r3, r2, lsl #2
 1440 02b0 041093E5 		ldr	r1, [r3, #4]
 1441 02b4 34FF2FE1 		blx	r4
 1442              	.LVL152:
 1443 02b8 0050A0E1 		mov	r5, r0
 1444              	.LVL153:
 1445              	.LBE582:
 1446              	.LBE581:
 1447              	.LBE580:
 1448 02bc 6EFFFFEA 		b	.L93
 1449              	.LVL154:
 1450              	.L98:
  62:../src/tensorflow_lite/src/tensorflow/lite/micro/kernels/conv.cpp ****           tflite::micro::GetTensorData<float>(input),
 1451              		.loc 1 62 0
 1452 02c0 0B20A0E1 		mov	r2, fp
 1453 02c4 050D8DE2 		add	r0, sp, #320
 1454 02c8 FEFFFFEB 		bl	_ZN6tflite15ConvParamsFloatERK16TfLiteConvParamsRKNS_10OpDataConvE
 1455              	.LVL155:
 1456 02cc 0710A0E1 		mov	r1, r7
 1457 02d0 C8008DE2 		add	r0, sp, #200
 1458 02d4 FEFFFFEB 		bl	_ZN6tflite5micro14GetTensorShapeEPK16TfLiteEvalTensor
 1459              	.LVL156:
 1460              	.LEHE5:
  64:../src/tensorflow_lite/src/tensorflow/lite/micro/kernels/conv.cpp ****           tflite::micro::GetTensorData<float>(filter),
 1461              		.loc 1 64 0
 1462 02d8 0810A0E1 		mov	r1, r8
 1463 02dc E0008DE2 		add	r0, sp, #224
 1464              	.LBB583:
 1465              	.LBB584:
 1466              		.loc 7 63 0
 1467 02e0 006097E5 		ldr	r6, [r7]
 1468              	.LVL157:
 1469              	.LEHB6:
 1470              	.LBE584:
 1471              	.LBE583:
  64:../src/tensorflow_lite/src/tensorflow/lite/micro/kernels/conv.cpp ****           tflite::micro::GetTensorData<float>(filter),
 1472              		.loc 1 64 0
 1473 02e4 FEFFFFEB 		bl	_ZN6tflite5micro14GetTensorShapeEPK16TfLiteEvalTensor
 1474              	.LVL158:
 1475              	.LEHE6:
 1476              	.LBB585:
 1477              	.LBB586:
 1478              		.loc 7 63 0
 1479 02e8 003098E5 		ldr	r3, [r8]
 1480              	.LBE586:
 1481              	.LBE585:
  66:../src/tensorflow_lite/src/tensorflow/lite/micro/kernels/conv.cpp ****           tflite::micro::GetTensorData<float>(bias),
 1482              		.loc 1 66 0
 1483 02ec 0510A0E1 		mov	r1, r5
 1484 02f0 F8008DE2 		add	r0, sp, #248
 1485              	.LBB588:
 1486              	.LBB587:
 1487              		.loc 7 63 0
 1488 02f4 94308DE5 		str	r3, [sp, #148]
 1489              	.LEHB7:
 1490              	.LBE587:
 1491              	.LBE588:
  66:../src/tensorflow_lite/src/tensorflow/lite/micro/kernels/conv.cpp ****           tflite::micro::GetTensorData<float>(bias),
 1492              		.loc 1 66 0
 1493 02f8 FEFFFFEB 		bl	_ZN6tflite5micro14GetTensorShapeEPK16TfLiteEvalTensor
 1494              	.LVL159:
 1495              	.LEHE7:
 1496              	.LBB589:
 1497              	.LBB590:
  62:C:/Renesas/e2studio_2021_01_workspace_RZA2M_ANPR/ANPR_RZA2M_GR_MANGO/src/tensorflow_lite/src/tensorflow/lite/micro/kernels\kernel_util.h ****   return reinterpret_cast<const T*>(tensor->data.raw);
 1498              		.loc 7 62 0
 1499 02fc 000055E3 		cmp	r5, #0
 1500 0300 1902000A 		beq	.L297
 1501              		.loc 7 63 0
 1502 0304 003095E5 		ldr	r3, [r5]
 1503              	.LBE590:
 1504              	.LBE589:
  68:../src/tensorflow_lite/src/tensorflow/lite/micro/kernels/conv.cpp ****           tflite::micro::GetTensorData<float>(output),
 1505              		.loc 1 68 0
 1506 0308 0410A0E1 		mov	r1, r4
 1507 030c 110E8DE2 		add	r0, sp, #272
 1508              	.LBB593:
 1509              	.LBB591:
 1510              		.loc 7 63 0
 1511 0310 74308DE5 		str	r3, [sp, #116]
 1512              	.LVL160:
 1513              	.LEHB8:
 1514              	.LBE591:
 1515              	.LBE593:
  68:../src/tensorflow_lite/src/tensorflow/lite/micro/kernels/conv.cpp ****           tflite::micro::GetTensorData<float>(output),
 1516              		.loc 1 68 0
 1517 0314 FEFFFFEB 		bl	_ZN6tflite5micro14GetTensorShapeEPK16TfLiteEvalTensor
 1518              	.LVL161:
 1519              	.LEHE8:
 1520              	.LBB594:
 1521              	.LBB595:
  56:C:/Renesas/e2studio_2021_01_workspace_RZA2M_ANPR/ANPR_RZA2M_GR_MANGO/src/tensorflow_lite/src/tensorflow/lite/micro/kernels\kernel_util.h **** }
 1522              		.loc 7 56 0
 1523 0318 003094E5 		ldr	r3, [r4]
 1524              	.LBE595:
 1525              	.LBE594:
  70:../src/tensorflow_lite/src/tensorflow/lite/micro/kernels/conv.cpp ****       break;
 1526              		.loc 1 70 0
 1527 031c 0010A0E3 		mov	r1, #0
 1528 0320 4A0F8DE2 		add	r0, sp, #296
 1529              	.LBB597:
 1530              	.LBB596:
  56:C:/Renesas/e2studio_2021_01_workspace_RZA2M_ANPR/ANPR_RZA2M_GR_MANGO/src/tensorflow_lite/src/tensorflow/lite/micro/kernels\kernel_util.h **** }
 1531              		.loc 7 56 0
 1532 0324 24308DE5 		str	r3, [sp, #36]
 1533              	.LEHB9:
 1534              	.LBE596:
 1535              	.LBE597:
  70:../src/tensorflow_lite/src/tensorflow/lite/micro/kernels/conv.cpp ****       break;
 1536              		.loc 1 70 0
 1537 0328 FEFFFFEB 		bl	_ZN6tflite5micro14GetTensorShapeEPK16TfLiteEvalTensor
 1538              	.LVL162:
 1539              	.LEHE9:
 1540              	.LBB598:
 1541              	.LBB599:
 1542              		.file 8 "C:/Renesas/e2studio_2021_01_workspace_RZA2M_ANPR/ANPR_RZA2M_GR_MANGO/src/tensorflow_lite/
   1:C:/Renesas/e2studio_2021_01_workspace_RZA2M_ANPR/ANPR_RZA2M_GR_MANGO/src/tensorflow_lite/src/tensorflow/lite/kernels/internal/reference\conv.h **** /* Copyright 2019 The TensorFlow Authors. All Rights Reserved.
   2:C:/Renesas/e2studio_2021_01_workspace_RZA2M_ANPR/ANPR_RZA2M_GR_MANGO/src/tensorflow_lite/src/tensorflow/lite/kernels/internal/reference\conv.h **** 
   3:C:/Renesas/e2studio_2021_01_workspace_RZA2M_ANPR/ANPR_RZA2M_GR_MANGO/src/tensorflow_lite/src/tensorflow/lite/kernels/internal/reference\conv.h **** Licensed under the Apache License, Version 2.0 (the "License");
   4:C:/Renesas/e2studio_2021_01_workspace_RZA2M_ANPR/ANPR_RZA2M_GR_MANGO/src/tensorflow_lite/src/tensorflow/lite/kernels/internal/reference\conv.h **** you may not use this file except in compliance with the License.
   5:C:/Renesas/e2studio_2021_01_workspace_RZA2M_ANPR/ANPR_RZA2M_GR_MANGO/src/tensorflow_lite/src/tensorflow/lite/kernels/internal/reference\conv.h **** You may obtain a copy of the License at
   6:C:/Renesas/e2studio_2021_01_workspace_RZA2M_ANPR/ANPR_RZA2M_GR_MANGO/src/tensorflow_lite/src/tensorflow/lite/kernels/internal/reference\conv.h **** 
   7:C:/Renesas/e2studio_2021_01_workspace_RZA2M_ANPR/ANPR_RZA2M_GR_MANGO/src/tensorflow_lite/src/tensorflow/lite/kernels/internal/reference\conv.h ****     http://www.apache.org/licenses/LICENSE-2.0
   8:C:/Renesas/e2studio_2021_01_workspace_RZA2M_ANPR/ANPR_RZA2M_GR_MANGO/src/tensorflow_lite/src/tensorflow/lite/kernels/internal/reference\conv.h **** 
   9:C:/Renesas/e2studio_2021_01_workspace_RZA2M_ANPR/ANPR_RZA2M_GR_MANGO/src/tensorflow_lite/src/tensorflow/lite/kernels/internal/reference\conv.h **** Unless required by applicable law or agreed to in writing, software
  10:C:/Renesas/e2studio_2021_01_workspace_RZA2M_ANPR/ANPR_RZA2M_GR_MANGO/src/tensorflow_lite/src/tensorflow/lite/kernels/internal/reference\conv.h **** distributed under the License is distributed on an "AS IS" BASIS,
  11:C:/Renesas/e2studio_2021_01_workspace_RZA2M_ANPR/ANPR_RZA2M_GR_MANGO/src/tensorflow_lite/src/tensorflow/lite/kernels/internal/reference\conv.h **** WITHOUT WARRANTIES OR CONDITIONS OF ANY KIND, either express or implied.
  12:C:/Renesas/e2studio_2021_01_workspace_RZA2M_ANPR/ANPR_RZA2M_GR_MANGO/src/tensorflow_lite/src/tensorflow/lite/kernels/internal/reference\conv.h **** See the License for the specific language governing permissions and
  13:C:/Renesas/e2studio_2021_01_workspace_RZA2M_ANPR/ANPR_RZA2M_GR_MANGO/src/tensorflow_lite/src/tensorflow/lite/kernels/internal/reference\conv.h **** limitations under the License.
  14:C:/Renesas/e2studio_2021_01_workspace_RZA2M_ANPR/ANPR_RZA2M_GR_MANGO/src/tensorflow_lite/src/tensorflow/lite/kernels/internal/reference\conv.h **** ==============================================================================*/
  15:C:/Renesas/e2studio_2021_01_workspace_RZA2M_ANPR/ANPR_RZA2M_GR_MANGO/src/tensorflow_lite/src/tensorflow/lite/kernels/internal/reference\conv.h **** #ifndef TENSORFLOW_LITE_KERNELS_INTERNAL_REFERENCE_CONV_H_
  16:C:/Renesas/e2studio_2021_01_workspace_RZA2M_ANPR/ANPR_RZA2M_GR_MANGO/src/tensorflow_lite/src/tensorflow/lite/kernels/internal/reference\conv.h **** #define TENSORFLOW_LITE_KERNELS_INTERNAL_REFERENCE_CONV_H_
  17:C:/Renesas/e2studio_2021_01_workspace_RZA2M_ANPR/ANPR_RZA2M_GR_MANGO/src/tensorflow_lite/src/tensorflow/lite/kernels/internal/reference\conv.h **** 
  18:C:/Renesas/e2studio_2021_01_workspace_RZA2M_ANPR/ANPR_RZA2M_GR_MANGO/src/tensorflow_lite/src/tensorflow/lite/kernels/internal/reference\conv.h **** #include "tensorflow/lite/kernels/internal/common.h"
  19:C:/Renesas/e2studio_2021_01_workspace_RZA2M_ANPR/ANPR_RZA2M_GR_MANGO/src/tensorflow_lite/src/tensorflow/lite/kernels/internal/reference\conv.h **** #include "tensorflow/lite/kernels/internal/types.h"
  20:C:/Renesas/e2studio_2021_01_workspace_RZA2M_ANPR/ANPR_RZA2M_GR_MANGO/src/tensorflow_lite/src/tensorflow/lite/kernels/internal/reference\conv.h **** 
  21:C:/Renesas/e2studio_2021_01_workspace_RZA2M_ANPR/ANPR_RZA2M_GR_MANGO/src/tensorflow_lite/src/tensorflow/lite/kernels/internal/reference\conv.h **** namespace tflite {
  22:C:/Renesas/e2studio_2021_01_workspace_RZA2M_ANPR/ANPR_RZA2M_GR_MANGO/src/tensorflow_lite/src/tensorflow/lite/kernels/internal/reference\conv.h **** 
  23:C:/Renesas/e2studio_2021_01_workspace_RZA2M_ANPR/ANPR_RZA2M_GR_MANGO/src/tensorflow_lite/src/tensorflow/lite/kernels/internal/reference\conv.h **** namespace reference_ops {
  24:C:/Renesas/e2studio_2021_01_workspace_RZA2M_ANPR/ANPR_RZA2M_GR_MANGO/src/tensorflow_lite/src/tensorflow/lite/kernels/internal/reference\conv.h **** 
  25:C:/Renesas/e2studio_2021_01_workspace_RZA2M_ANPR/ANPR_RZA2M_GR_MANGO/src/tensorflow_lite/src/tensorflow/lite/kernels/internal/reference\conv.h **** inline void Conv(const ConvParams& params, const RuntimeShape& input_shape,
  26:C:/Renesas/e2studio_2021_01_workspace_RZA2M_ANPR/ANPR_RZA2M_GR_MANGO/src/tensorflow_lite/src/tensorflow/lite/kernels/internal/reference\conv.h ****                  const float* input_data, const RuntimeShape& filter_shape,
  27:C:/Renesas/e2studio_2021_01_workspace_RZA2M_ANPR/ANPR_RZA2M_GR_MANGO/src/tensorflow_lite/src/tensorflow/lite/kernels/internal/reference\conv.h ****                  const float* filter_data, const RuntimeShape& bias_shape,
  28:C:/Renesas/e2studio_2021_01_workspace_RZA2M_ANPR/ANPR_RZA2M_GR_MANGO/src/tensorflow_lite/src/tensorflow/lite/kernels/internal/reference\conv.h ****                  const float* bias_data, const RuntimeShape& output_shape,
  29:C:/Renesas/e2studio_2021_01_workspace_RZA2M_ANPR/ANPR_RZA2M_GR_MANGO/src/tensorflow_lite/src/tensorflow/lite/kernels/internal/reference\conv.h ****                  float* output_data, const RuntimeShape& im2col_shape,
  30:C:/Renesas/e2studio_2021_01_workspace_RZA2M_ANPR/ANPR_RZA2M_GR_MANGO/src/tensorflow_lite/src/tensorflow/lite/kernels/internal/reference\conv.h ****                  float* im2col_data) {
  31:C:/Renesas/e2studio_2021_01_workspace_RZA2M_ANPR/ANPR_RZA2M_GR_MANGO/src/tensorflow_lite/src/tensorflow/lite/kernels/internal/reference\conv.h ****   const int stride_width = params.stride_width;
  32:C:/Renesas/e2studio_2021_01_workspace_RZA2M_ANPR/ANPR_RZA2M_GR_MANGO/src/tensorflow_lite/src/tensorflow/lite/kernels/internal/reference\conv.h ****   const int stride_height = params.stride_height;
  33:C:/Renesas/e2studio_2021_01_workspace_RZA2M_ANPR/ANPR_RZA2M_GR_MANGO/src/tensorflow_lite/src/tensorflow/lite/kernels/internal/reference\conv.h ****   const int dilation_width_factor = params.dilation_width_factor;
  34:C:/Renesas/e2studio_2021_01_workspace_RZA2M_ANPR/ANPR_RZA2M_GR_MANGO/src/tensorflow_lite/src/tensorflow/lite/kernels/internal/reference\conv.h ****   const int dilation_height_factor = params.dilation_height_factor;
  35:C:/Renesas/e2studio_2021_01_workspace_RZA2M_ANPR/ANPR_RZA2M_GR_MANGO/src/tensorflow_lite/src/tensorflow/lite/kernels/internal/reference\conv.h ****   const int pad_width = params.padding_values.width;
  36:C:/Renesas/e2studio_2021_01_workspace_RZA2M_ANPR/ANPR_RZA2M_GR_MANGO/src/tensorflow_lite/src/tensorflow/lite/kernels/internal/reference\conv.h ****   const int pad_height = params.padding_values.height;
  37:C:/Renesas/e2studio_2021_01_workspace_RZA2M_ANPR/ANPR_RZA2M_GR_MANGO/src/tensorflow_lite/src/tensorflow/lite/kernels/internal/reference\conv.h ****   const float output_activation_min = params.float_activation_min;
  38:C:/Renesas/e2studio_2021_01_workspace_RZA2M_ANPR/ANPR_RZA2M_GR_MANGO/src/tensorflow_lite/src/tensorflow/lite/kernels/internal/reference\conv.h ****   const float output_activation_max = params.float_activation_max;
  39:C:/Renesas/e2studio_2021_01_workspace_RZA2M_ANPR/ANPR_RZA2M_GR_MANGO/src/tensorflow_lite/src/tensorflow/lite/kernels/internal/reference\conv.h ****   TFLITE_DCHECK_EQ(input_shape.DimensionsCount(), 4);
 1543              		.loc 8 39 0
 1544 032c C8309DE5 		ldr	r3, [sp, #200]
  31:C:/Renesas/e2studio_2021_01_workspace_RZA2M_ANPR/ANPR_RZA2M_GR_MANGO/src/tensorflow_lite/src/tensorflow/lite/kernels/internal/reference\conv.h ****   const int stride_height = params.stride_height;
 1545              		.loc 8 31 0
 1546 0330 522F8DE2 		add	r2, sp, #328
 1547 0334 022082E2 		add	r2, r2, #2
  37:C:/Renesas/e2studio_2021_01_workspace_RZA2M_ANPR/ANPR_RZA2M_GR_MANGO/src/tensorflow_lite/src/tensorflow/lite/kernels/internal/reference\conv.h ****   const float output_activation_max = params.float_activation_max;
 1548              		.loc 8 37 0
 1549 0338 5C6A9DED 		vldr.32	s12, [sp, #368]
  31:C:/Renesas/e2studio_2021_01_workspace_RZA2M_ANPR/ANPR_RZA2M_GR_MANGO/src/tensorflow_lite/src/tensorflow/lite/kernels/internal/reference\conv.h ****   const int stride_height = params.stride_height;
 1550              		.loc 8 31 0
 1551 033c F020D2E1 		ldrsh	r2, [r2]
 1552              		.loc 8 39 0
 1553 0340 040053E3 		cmp	r3, #4
  33:C:/Renesas/e2studio_2021_01_workspace_RZA2M_ANPR/ANPR_RZA2M_GR_MANGO/src/tensorflow_lite/src/tensorflow/lite/kernels/internal/reference\conv.h ****   const int dilation_height_factor = params.dilation_height_factor;
 1554              		.loc 8 33 0
 1555 0344 533F8DE2 		add	r3, sp, #332
 1556 0348 023083E2 		add	r3, r3, #2
 1557 034c F0A0D3E1 		ldrsh	r10, [r3]
  34:C:/Renesas/e2studio_2021_01_workspace_RZA2M_ANPR/ANPR_RZA2M_GR_MANGO/src/tensorflow_lite/src/tensorflow/lite/kernels/internal/reference\conv.h ****   const int pad_width = params.padding_values.width;
 1558              		.loc 8 34 0
 1559 0350 153E8DE2 		add	r3, sp, #336
  31:C:/Renesas/e2studio_2021_01_workspace_RZA2M_ANPR/ANPR_RZA2M_GR_MANGO/src/tensorflow_lite/src/tensorflow/lite/kernels/internal/reference\conv.h ****   const int stride_height = params.stride_height;
 1560              		.loc 8 31 0
 1561 0354 AC208DE5 		str	r2, [sp, #172]
 1562              	.LVL163:
  34:C:/Renesas/e2studio_2021_01_workspace_RZA2M_ANPR/ANPR_RZA2M_GR_MANGO/src/tensorflow_lite/src/tensorflow/lite/kernels/internal/reference\conv.h ****   const int pad_width = params.padding_values.width;
 1563              		.loc 8 34 0
 1564 0358 F030D3E1 		ldrsh	r3, [r3]
  32:C:/Renesas/e2studio_2021_01_workspace_RZA2M_ANPR/ANPR_RZA2M_GR_MANGO/src/tensorflow_lite/src/tensorflow/lite/kernels/internal/reference\conv.h ****   const int dilation_width_factor = params.dilation_width_factor;
 1565              		.loc 8 32 0
 1566 035c 532F8DE2 		add	r2, sp, #332
 1567 0360 F020D2E1 		ldrsh	r2, [r2]
  38:C:/Renesas/e2studio_2021_01_workspace_RZA2M_ANPR/ANPR_RZA2M_GR_MANGO/src/tensorflow_lite/src/tensorflow/lite/kernels/internal/reference\conv.h ****   TFLITE_DCHECK_EQ(input_shape.DimensionsCount(), 4);
 1568              		.loc 8 38 0
 1569 0364 5D5ADDED 		vldr.32	s11, [sp, #372]
  34:C:/Renesas/e2studio_2021_01_workspace_RZA2M_ANPR/ANPR_RZA2M_GR_MANGO/src/tensorflow_lite/src/tensorflow/lite/kernels/internal/reference\conv.h ****   const int pad_width = params.padding_values.width;
 1570              		.loc 8 34 0
 1571 0368 50308DE5 		str	r3, [sp, #80]
  35:C:/Renesas/e2studio_2021_01_workspace_RZA2M_ANPR/ANPR_RZA2M_GR_MANGO/src/tensorflow_lite/src/tensorflow/lite/kernels/internal/reference\conv.h ****   const int pad_height = params.padding_values.height;
 1572              		.loc 8 35 0
 1573 036c 053D8DE2 		add	r3, sp, #320
 1574              	.LVL164:
 1575 0370 023083E2 		add	r3, r3, #2
 1576              	.LVL165:
  32:C:/Renesas/e2studio_2021_01_workspace_RZA2M_ANPR/ANPR_RZA2M_GR_MANGO/src/tensorflow_lite/src/tensorflow/lite/kernels/internal/reference\conv.h ****   const int dilation_width_factor = params.dilation_width_factor;
 1577              		.loc 8 32 0
 1578 0374 80208DE5 		str	r2, [sp, #128]
 1579              	.LVL166:
  35:C:/Renesas/e2studio_2021_01_workspace_RZA2M_ANPR/ANPR_RZA2M_GR_MANGO/src/tensorflow_lite/src/tensorflow/lite/kernels/internal/reference\conv.h ****   const int pad_height = params.padding_values.height;
 1580              		.loc 8 35 0
 1581 0378 F030D3E1 		ldrsh	r3, [r3]
 1582              	.LVL167:
 1583 037c 98308DE5 		str	r3, [sp, #152]
 1584              	.LVL168:
  36:C:/Renesas/e2studio_2021_01_workspace_RZA2M_ANPR/ANPR_RZA2M_GR_MANGO/src/tensorflow_lite/src/tensorflow/lite/kernels/internal/reference\conv.h ****   const float output_activation_min = params.float_activation_min;
 1585              		.loc 8 36 0
 1586 0380 513F8DE2 		add	r3, sp, #324
 1587              	.LVL169:
 1588 0384 F070D3E1 		ldrsh	r7, [r3]
 1589              	.LVL170:
 1590              		.loc 8 39 0
 1591 0388 FA01001A 		bne	.L298
 1592              	.LVL171:
  40:C:/Renesas/e2studio_2021_01_workspace_RZA2M_ANPR/ANPR_RZA2M_GR_MANGO/src/tensorflow_lite/src/tensorflow/lite/kernels/internal/reference\conv.h ****   TFLITE_DCHECK_EQ(filter_shape.DimensionsCount(), 4);
 1593              		.loc 8 40 0
 1594 038c E0309DE5 		ldr	r3, [sp, #224]
 1595 0390 040053E3 		cmp	r3, #4
 1596 0394 F601001A 		bne	.L299
 1597              	.LVL172:
  41:C:/Renesas/e2studio_2021_01_workspace_RZA2M_ANPR/ANPR_RZA2M_GR_MANGO/src/tensorflow_lite/src/tensorflow/lite/kernels/internal/reference\conv.h ****   TFLITE_DCHECK_EQ(output_shape.DimensionsCount(), 4);
 1598              		.loc 8 41 0
 1599 0398 10319DE5 		ldr	r3, [sp, #272]
 1600 039c 040053E3 		cmp	r3, #4
 1601 03a0 EE01001A 		bne	.L300
 1602              	.LVL173:
 1603              	.LBB600:
 1604              	.LBB601:
 1605              	.LBB602:
 1606              	.LBB603:
 216:C:/Renesas/e2studio_2021_01_workspace_RZA2M_ANPR/ANPR_RZA2M_GR_MANGO/src/tensorflow_lite/src/tensorflow/lite/kernels/internal\types.h ****   }
 1607              		.loc 3 216 0
 1608 03a4 CC309DE5 		ldr	r3, [sp, #204]
 1609              	.LBE603:
 1610              	.LBE602:
 1611              	.LBB605:
 1612              	.LBB606:
 1613 03a8 14219DE5 		ldr	r2, [sp, #276]
 1614              	.LBE606:
 1615              	.LBE605:
 1616              	.LBB608:
 1617              	.LBB604:
 1618 03ac 70308DE5 		str	r3, [sp, #112]
 1619              	.LVL174:
 1620              	.LBE604:
 1621              	.LBE608:
 1622              		.loc 3 472 0
 1623 03b0 020053E1 		cmp	r3, r2
 1624              	.LBB609:
 1625              	.LBB607:
 216:C:/Renesas/e2studio_2021_01_workspace_RZA2M_ANPR/ANPR_RZA2M_GR_MANGO/src/tensorflow_lite/src/tensorflow/lite/kernels/internal\types.h ****   }
 1626              		.loc 3 216 0
 1627 03b4 44208DE5 		str	r2, [sp, #68]
 1628              	.LVL175:
 1629              	.LBE607:
 1630              	.LBE609:
 1631              		.loc 3 472 0
 1632 03b8 E701001A 		bne	.L301
 1633              	.LVL176:
 1634              	.LBE601:
 1635              	.LBE600:
 1636              	.LBB611:
 1637              	.LBB612:
 1638              	.LBB613:
 1639              	.LBB614:
 216:C:/Renesas/e2studio_2021_01_workspace_RZA2M_ANPR/ANPR_RZA2M_GR_MANGO/src/tensorflow_lite/src/tensorflow/lite/kernels/internal\types.h ****   }
 1640              		.loc 3 216 0
 1641 03bc D8809DE5 		ldr	r8, [sp, #216]
 1642              	.LVL177:
 1643              	.LBE614:
 1644              	.LBE613:
 1645              	.LBB615:
 1646              	.LBB616:
 1647 03c0 F0509DE5 		ldr	r5, [sp, #240]
 1648              	.LVL178:
 1649              	.LBE616:
 1650              	.LBE615:
 1651              		.loc 3 472 0
 1652 03c4 050058E1 		cmp	r8, r5
 1653 03c8 E201001A 		bne	.L302
 1654              	.LVL179:
 1655              	.LBE612:
 1656              	.LBE611:
 1657              	.LBB618:
 1658              	.LBB619:
 1659              	.LBB620:
 1660              	.LBB621:
 216:C:/Renesas/e2studio_2021_01_workspace_RZA2M_ANPR/ANPR_RZA2M_GR_MANGO/src/tensorflow_lite/src/tensorflow/lite/kernels/internal\types.h ****   }
 1661              		.loc 3 216 0
 1662 03cc E4309DE5 		ldr	r3, [sp, #228]
 1663              	.LBE621:
 1664              	.LBE620:
 1665              	.LBB623:
 1666              	.LBB624:
 1667 03d0 20219DE5 		ldr	r2, [sp, #288]
 1668              	.LBE624:
 1669              	.LBE623:
 1670              	.LBB626:
 1671              	.LBB622:
 1672 03d4 58308DE5 		str	r3, [sp, #88]
 1673              	.LVL180:
 1674              	.LBE622:
 1675              	.LBE626:
 1676              		.loc 3 472 0
 1677 03d8 020053E1 		cmp	r3, r2
 1678              	.LBB627:
 1679              	.LBB625:
 216:C:/Renesas/e2studio_2021_01_workspace_RZA2M_ANPR/ANPR_RZA2M_GR_MANGO/src/tensorflow_lite/src/tensorflow/lite/kernels/internal\types.h ****   }
 1680              		.loc 3 216 0
 1681 03dc 48208DE5 		str	r2, [sp, #72]
 1682              	.LVL181:
 1683              	.LBE625:
 1684              	.LBE627:
 1685              		.loc 3 472 0
 1686 03e0 DB01001A 		bne	.L303
 1687              	.LVL182:
 1688              	.LBE619:
 1689              	.LBE618:
  42:C:/Renesas/e2studio_2021_01_workspace_RZA2M_ANPR/ANPR_RZA2M_GR_MANGO/src/tensorflow_lite/src/tensorflow/lite/kernels/internal/reference\conv.h **** 
  43:C:/Renesas/e2studio_2021_01_workspace_RZA2M_ANPR/ANPR_RZA2M_GR_MANGO/src/tensorflow_lite/src/tensorflow/lite/kernels/internal/reference\conv.h ****   (void)im2col_data;   // only used in optimized code.
  44:C:/Renesas/e2studio_2021_01_workspace_RZA2M_ANPR/ANPR_RZA2M_GR_MANGO/src/tensorflow_lite/src/tensorflow/lite/kernels/internal/reference\conv.h ****   (void)im2col_shape;  // only used in optimized code.
  45:C:/Renesas/e2studio_2021_01_workspace_RZA2M_ANPR/ANPR_RZA2M_GR_MANGO/src/tensorflow_lite/src/tensorflow/lite/kernels/internal/reference\conv.h ****   const int batches = MatchingDim(input_shape, 0, output_shape, 0);
  46:C:/Renesas/e2studio_2021_01_workspace_RZA2M_ANPR/ANPR_RZA2M_GR_MANGO/src/tensorflow_lite/src/tensorflow/lite/kernels/internal/reference\conv.h ****   const int input_depth = MatchingDim(input_shape, 3, filter_shape, 3);
  47:C:/Renesas/e2studio_2021_01_workspace_RZA2M_ANPR/ANPR_RZA2M_GR_MANGO/src/tensorflow_lite/src/tensorflow/lite/kernels/internal/reference\conv.h ****   const int output_depth = MatchingDim(filter_shape, 0, output_shape, 3);
  48:C:/Renesas/e2studio_2021_01_workspace_RZA2M_ANPR/ANPR_RZA2M_GR_MANGO/src/tensorflow_lite/src/tensorflow/lite/kernels/internal/reference\conv.h ****   if (bias_data) {
 1690              		.loc 8 48 0
 1691 03e4 74309DE5 		ldr	r3, [sp, #116]
 1692 03e8 000053E3 		cmp	r3, #0
 1693 03ec 5600000A 		beq	.L107
 1694              	.LVL183:
 1695              	.LBB629:
 1696              	.LBB630:
 1697              	.LBB631:
 1698              	.LBB632:
 232:C:/Renesas/e2studio_2021_01_workspace_RZA2M_ANPR/ANPR_RZA2M_GR_MANGO/src/tensorflow_lite/src/tensorflow/lite/kernels/internal\types.h ****   }
 1699              		.loc 3 232 0
 1700 03f0 F8109DE5 		ldr	r1, [sp, #248]
 1701 03f4 050051E3 		cmp	r1, #5
 1702 03f8 810100DA 		ble	.L108
 1703 03fc FC009DE5 		ldr	r0, [sp, #252]
 1704              	.LVL184:
 1705              	.L109:
 1706 0400 5031A0E7 		sbfx	r3, r0, #2, #1
 1707 0404 033003E2 		and	r3, r3, #3
 1708 0408 010053E1 		cmp	r3, r1
 1709 040c 0130A021 		movcs	r3, r1
 1710 0410 080051E3 		cmp	r1, #8
 1711 0414 0130A0D1 		movle	r3, r1
 1712 0418 7E0100CA 		bgt	.L304
 1713              	.L111:
 1714 041c 010053E3 		cmp	r3, #1
 1715              	.LBE632:
 1716              	.LBE631:
 1717              	.LBB634:
 293:C:/Renesas/e2studio_2021_01_workspace_RZA2M_ANPR/ANPR_RZA2M_GR_MANGO/src/tensorflow_lite/src/tensorflow/lite/kernels/internal\types.h ****     }
 1718              		.loc 3 293 0
 1719 0420 002090E5 		ldr	r2, [r0]
 1720              	.LVL185:
 1721 0424 7401000A 		beq	.L194
 1722 0428 04C090E5 		ldr	ip, [r0, #4]
 1723 042c 020053E3 		cmp	r3, #2
 1724 0430 9C0202E0 		mul	r2, ip, r2
 1725              	.LVL186:
 1726 0434 7001000A 		beq	.L194
 1727 0438 08C090E5 		ldr	ip, [r0, #8]
 1728 043c 030053E3 		cmp	r3, #3
 1729 0440 9C0202E0 		mul	r2, ip, r2
 1730              	.LVL187:
 1731 0444 6C01000A 		beq	.L194
 1732 0448 0CC090E5 		ldr	ip, [r0, #12]
 1733 044c 040053E3 		cmp	r3, #4
 1734 0450 9C0202E0 		mul	r2, ip, r2
 1735              	.LVL188:
 1736 0454 6801000A 		beq	.L194
 1737 0458 10C090E5 		ldr	ip, [r0, #16]
 1738 045c 050053E3 		cmp	r3, #5
 1739 0460 9C0202E0 		mul	r2, ip, r2
 1740              	.LVL189:
 1741 0464 6401000A 		beq	.L194
 1742 0468 14C090E5 		ldr	ip, [r0, #20]
 1743 046c 060053E3 		cmp	r3, #6
 1744 0470 9C0202E0 		mul	r2, ip, r2
 1745              	.LVL190:
 1746 0474 6001000A 		beq	.L194
 1747 0478 18C090E5 		ldr	ip, [r0, #24]
 1748 047c 070053E3 		cmp	r3, #7
 1749 0480 9C0202E0 		mul	r2, ip, r2
 1750              	.LVL191:
 1751 0484 5C01000A 		beq	.L194
 1752 0488 1CE090E5 		ldr	lr, [r0, #28]
 292:C:/Renesas/e2studio_2021_01_workspace_RZA2M_ANPR/ANPR_RZA2M_GR_MANGO/src/tensorflow_lite/src/tensorflow/lite/kernels/internal\types.h ****       buffer_size *= dims_data[i];
 1753              		.loc 3 292 0
 1754 048c 08C0A0E3 		mov	ip, #8
 293:C:/Renesas/e2studio_2021_01_workspace_RZA2M_ANPR/ANPR_RZA2M_GR_MANGO/src/tensorflow_lite/src/tensorflow/lite/kernels/internal\types.h ****     }
 1755              		.loc 3 293 0
 1756 0490 9E0202E0 		mul	r2, lr, r2
 1757              	.LVL192:
 1758              	.L113:
 1759 0494 030051E1 		cmp	r1, r3
 1760 0498 2800000A 		beq	.L110
 1761              	.LVL193:
 1762              	.L112:
 1763 049c 03B041E0 		sub	fp, r1, r3
 1764              	.LVL194:
 1765 04a0 014041E2 		sub	r4, r1, #1
 1766 04a4 04E04BE2 		sub	lr, fp, #4
 1767 04a8 034044E0 		sub	r4, r4, r3
 1768 04ac 2EE1A0E1 		lsr	lr, lr, #2
 1769 04b0 020054E3 		cmp	r4, #2
 1770 04b4 01E08EE2 		add	lr, lr, #1
 1771 04b8 0E91A0E1 		lsl	r9, lr, #2
 1772              	.LVL195:
 1773 04bc 1200009A 		bls	.L115
 1774 04c0 033180E0 		add	r3, r0, r3, lsl #2
 292:C:/Renesas/e2studio_2021_01_workspace_RZA2M_ANPR/ANPR_RZA2M_GR_MANGO/src/tensorflow_lite/src/tensorflow/lite/kernels/internal\types.h ****       buffer_size *= dims_data[i];
 1775              		.loc 3 292 0
 1776 04c4 5120C0F2 		vmov.i32	q9, #1  @ v4si
 1777 04c8 0040A0E3 		mov	r4, #0
 1778              	.L117:
 1779 04cc 014084E2 		add	r4, r4, #1
 293:C:/Renesas/e2studio_2021_01_workspace_RZA2M_ANPR/ANPR_RZA2M_GR_MANGO/src/tensorflow_lite/src/tensorflow/lite/kernels/internal\types.h ****     }
 1780              		.loc 3 293 0
 1781 04d0 DF0A63F4 		vld1.64	{d16-d17}, [r3:64]
 1782 04d4 04005EE1 		cmp	lr, r4
 1783 04d8 103083E2 		add	r3, r3, #16
 1784 04dc F02962F2 		vmul.i32	q9, q9, q8
 1785 04e0 F9FFFF8A 		bhi	.L117
 1786 04e4 0B0059E1 		cmp	r9, fp
 1787 04e8 09C08CE0 		add	ip, ip, r9
 1788 04ec 5000C0F2 		vmov.i32	q8, #0  @ v4si
 1789 04f0 E048F2F2 		vext.32	q10, q9, q8, #2
 1790 04f4 F22964F2 		vmul.i32	q9, q10, q9
 1791 04f8 E004F2F2 		vext.32	q8, q9, q8, #1
 1792 04fc F20960F2 		vmul.i32	q8, q8, q9
 1793 0500 903B10EE 		vmov.32	r3, d16[0]
 1794 0504 930202E0 		mul	r2, r3, r2
 1795 0508 0C00000A 		beq	.L110
 1796              	.L115:
 1797              	.LVL196:
 1798 050c 0CE190E7 		ldr	lr, [r0, ip, lsl #2]
 292:C:/Renesas/e2studio_2021_01_workspace_RZA2M_ANPR/ANPR_RZA2M_GR_MANGO/src/tensorflow_lite/src/tensorflow/lite/kernels/internal\types.h ****       buffer_size *= dims_data[i];
 1799              		.loc 3 292 0
 1800 0510 01308CE2 		add	r3, ip, #1
 1801 0514 030051E1 		cmp	r1, r3
 293:C:/Renesas/e2studio_2021_01_workspace_RZA2M_ANPR/ANPR_RZA2M_GR_MANGO/src/tensorflow_lite/src/tensorflow/lite/kernels/internal\types.h ****     }
 1802              		.loc 3 293 0
 1803 0518 0C31A0E1 		lsl	r3, ip, #2
 1804 051c 9E0202E0 		mul	r2, lr, r2
 1805              	.LVL197:
 292:C:/Renesas/e2studio_2021_01_workspace_RZA2M_ANPR/ANPR_RZA2M_GR_MANGO/src/tensorflow_lite/src/tensorflow/lite/kernels/internal\types.h ****       buffer_size *= dims_data[i];
 1806              		.loc 3 292 0
 1807 0520 060000DA 		ble	.L110
 293:C:/Renesas/e2studio_2021_01_workspace_RZA2M_ANPR/ANPR_RZA2M_GR_MANGO/src/tensorflow_lite/src/tensorflow/lite/kernels/internal\types.h ****     }
 1808              		.loc 3 293 0
 1809 0524 030080E0 		add	r0, r0, r3
 292:C:/Renesas/e2studio_2021_01_workspace_RZA2M_ANPR/ANPR_RZA2M_GR_MANGO/src/tensorflow_lite/src/tensorflow/lite/kernels/internal\types.h ****       buffer_size *= dims_data[i];
 1810              		.loc 3 292 0
 1811 0528 02C08CE2 		add	ip, ip, #2
 293:C:/Renesas/e2studio_2021_01_workspace_RZA2M_ANPR/ANPR_RZA2M_GR_MANGO/src/tensorflow_lite/src/tensorflow/lite/kernels/internal\types.h ****     }
 1812              		.loc 3 293 0
 1813 052c 043090E5 		ldr	r3, [r0, #4]
 292:C:/Renesas/e2studio_2021_01_workspace_RZA2M_ANPR/ANPR_RZA2M_GR_MANGO/src/tensorflow_lite/src/tensorflow/lite/kernels/internal\types.h ****       buffer_size *= dims_data[i];
 1814              		.loc 3 292 0
 1815 0530 0C0051E1 		cmp	r1, ip
 293:C:/Renesas/e2studio_2021_01_workspace_RZA2M_ANPR/ANPR_RZA2M_GR_MANGO/src/tensorflow_lite/src/tensorflow/lite/kernels/internal\types.h ****     }
 1816              		.loc 3 293 0
 1817 0534 930202E0 		mul	r2, r3, r2
 1818              	.LVL198:
 292:C:/Renesas/e2studio_2021_01_workspace_RZA2M_ANPR/ANPR_RZA2M_GR_MANGO/src/tensorflow_lite/src/tensorflow/lite/kernels/internal\types.h ****       buffer_size *= dims_data[i];
 1819              		.loc 3 292 0
 293:C:/Renesas/e2studio_2021_01_workspace_RZA2M_ANPR/ANPR_RZA2M_GR_MANGO/src/tensorflow_lite/src/tensorflow/lite/kernels/internal\types.h ****     }
 1820              		.loc 3 293 0
 1821 0538 083090C5 		ldrgt	r3, [r0, #8]
 1822 053c 930202C0 		mulgt	r2, r3, r2
 1823              	.LVL199:
 1824              	.L110:
 1825              	.LBE634:
 1826              	.LBE630:
 1827              	.LBE629:
  49:C:/Renesas/e2studio_2021_01_workspace_RZA2M_ANPR/ANPR_RZA2M_GR_MANGO/src/tensorflow_lite/src/tensorflow/lite/kernels/internal/reference\conv.h ****     TFLITE_DCHECK_EQ(bias_shape.FlatSize(), output_depth);
 1828              		.loc 8 49 0
 1829 0540 58309DE5 		ldr	r3, [sp, #88]
 1830 0544 020053E1 		cmp	r3, r2
 1831 0548 8501001A 		bne	.L305
 1832              	.L107:
 1833              	.LVL200:
 1834              	.LBB640:
  50:C:/Renesas/e2studio_2021_01_workspace_RZA2M_ANPR/ANPR_RZA2M_GR_MANGO/src/tensorflow_lite/src/tensorflow/lite/kernels/internal/reference\conv.h ****   }
  51:C:/Renesas/e2studio_2021_01_workspace_RZA2M_ANPR/ANPR_RZA2M_GR_MANGO/src/tensorflow_lite/src/tensorflow/lite/kernels/internal/reference\conv.h ****   const int input_height = input_shape.Dims(1);
  52:C:/Renesas/e2studio_2021_01_workspace_RZA2M_ANPR/ANPR_RZA2M_GR_MANGO/src/tensorflow_lite/src/tensorflow/lite/kernels/internal/reference\conv.h ****   const int input_width = input_shape.Dims(2);
  53:C:/Renesas/e2studio_2021_01_workspace_RZA2M_ANPR/ANPR_RZA2M_GR_MANGO/src/tensorflow_lite/src/tensorflow/lite/kernels/internal/reference\conv.h ****   const int filter_height = filter_shape.Dims(1);
  54:C:/Renesas/e2studio_2021_01_workspace_RZA2M_ANPR/ANPR_RZA2M_GR_MANGO/src/tensorflow_lite/src/tensorflow/lite/kernels/internal/reference\conv.h ****   const int filter_width = filter_shape.Dims(2);
  55:C:/Renesas/e2studio_2021_01_workspace_RZA2M_ANPR/ANPR_RZA2M_GR_MANGO/src/tensorflow_lite/src/tensorflow/lite/kernels/internal/reference\conv.h ****   const int output_height = output_shape.Dims(1);
  56:C:/Renesas/e2studio_2021_01_workspace_RZA2M_ANPR/ANPR_RZA2M_GR_MANGO/src/tensorflow_lite/src/tensorflow/lite/kernels/internal/reference\conv.h ****   const int output_width = output_shape.Dims(2);
  57:C:/Renesas/e2studio_2021_01_workspace_RZA2M_ANPR/ANPR_RZA2M_GR_MANGO/src/tensorflow_lite/src/tensorflow/lite/kernels/internal/reference\conv.h ****   for (int batch = 0; batch < batches; ++batch) {
 1835              		.loc 8 57 0
 1836 054c 70309DE5 		ldr	r3, [sp, #112]
 1837              	.LBE640:
 1838              	.LBB711:
 1839              	.LBB712:
 216:C:/Renesas/e2studio_2021_01_workspace_RZA2M_ANPR/ANPR_RZA2M_GR_MANGO/src/tensorflow_lite/src/tensorflow/lite/kernels/internal\types.h ****   }
 1840              		.loc 3 216 0
 1841 0550 D4909DE5 		ldr	r9, [sp, #212]
 1842              	.LBE712:
 1843              	.LBE711:
 1844              	.LBB713:
 1845              	.LBB714:
 1846 0554 ECB09DE5 		ldr	fp, [sp, #236]
 1847              	.LBE714:
 1848              	.LBE713:
 1849              	.LBB715:
 1850              		.loc 8 57 0
 1851 0558 000053E3 		cmp	r3, #0
 1852              	.LBE715:
 1853              	.LBB716:
 1854              	.LBB717:
 216:C:/Renesas/e2studio_2021_01_workspace_RZA2M_ANPR/ANPR_RZA2M_GR_MANGO/src/tensorflow_lite/src/tensorflow/lite/kernels/internal\types.h ****   }
 1855              		.loc 3 216 0
 1856 055c D0309DE5 		ldr	r3, [sp, #208]
 1857 0560 4C308DE5 		str	r3, [sp, #76]
 1858              	.LVL201:
 1859              	.LBE717:
 1860              	.LBE716:
 1861              	.LBB718:
 1862              	.LBB719:
 1863 0564 E8309DE5 		ldr	r3, [sp, #232]
 1864 0568 30308DE5 		str	r3, [sp, #48]
 1865              	.LVL202:
 1866              	.LBE719:
 1867              	.LBE718:
 1868              	.LBB720:
 1869              	.LBB721:
 1870 056c 18319DE5 		ldr	r3, [sp, #280]
 1871 0570 64308DE5 		str	r3, [sp, #100]
 1872              	.LVL203:
 1873              	.LBE721:
 1874              	.LBE720:
 1875              	.LBB722:
 1876              	.LBB723:
 1877 0574 1C319DE5 		ldr	r3, [sp, #284]
 1878 0578 68308DE5 		str	r3, [sp, #104]
 1879              	.LVL204:
 1880              	.LBE723:
 1881              	.LBE722:
 1882              	.LBB724:
 1883              		.loc 8 57 0
 1884 057c FB0000DA 		ble	.L125
 1885 0580 64209DE5 		ldr	r2, [sp, #100]
 1886 0584 0300A0E1 		mov	r0, r3
 1887 0588 58C09DE5 		ldr	ip, [sp, #88]
 1888 058c 24109DE5 		ldr	r1, [sp, #36]
 1889 0590 930202E0 		mul	r2, r3, r2
 1890 0594 003067E2 		rsb	r3, r7, #0
 1891 0598 03E0A0E1 		mov	lr, r3
 1892 059c 9C308DE5 		str	r3, [sp, #156]
 1893 05a0 0C31A0E1 		lsl	r3, ip, #2
 1894 05a4 8C108DE5 		str	r1, [sp, #140]
 1895 05a8 0010A0E3 		mov	r1, #0
 1896 05ac 9C0000E0 		mul	r0, ip, r0
 1897 05b0 B8308DE5 		str	r3, [sp, #184]
 1898 05b4 0221A0E1 		lsl	r2, r2, #2
 1899 05b8 30309DE5 		ldr	r3, [sp, #48]
 1900 05bc 0871A0E1 		lsl	r7, r8, #2
 1901              	.LVL205:
 1902 05c0 40108DE5 		str	r1, [sp, #64]
 1903 05c4 980B01E0 		mul	r1, r8, fp
 1904 05c8 9C0202E0 		mul	r2, ip, r2
 1905 05cc 9B0303E0 		mul	r3, fp, r3
 1906 05d0 C0208DE5 		str	r2, [sp, #192]
 1907 05d4 0021A0E1 		lsl	r2, r0, #2
 1908 05d8 0331A0E1 		lsl	r3, r3, #2
 1909 05dc B4208DE5 		str	r2, [sp, #180]
 1910 05e0 980303E0 		mul	r3, r8, r3
 1911 05e4 B0308DE5 		str	r3, [sp, #176]
 1912 05e8 0131A0E1 		lsl	r3, r1, #2
 1913 05ec 5C308DE5 		str	r3, [sp, #92]
 1914 05f0 990E03E0 		mul	r3, r9, lr
 1915 05f4 90308DE5 		str	r3, [sp, #144]
 1916 05f8 4C309DE5 		ldr	r3, [sp, #76]
 1917 05fc 990303E0 		mul	r3, r9, r3
 1918 0600 C4308DE5 		str	r3, [sp, #196]
 1919 0604 80309DE5 		ldr	r3, [sp, #128]
 1920 0608 990303E0 		mul	r3, r9, r3
 1921 060c BC308DE5 		str	r3, [sp, #188]
 1922 0610 50309DE5 		ldr	r3, [sp, #80]
 1923 0614 990303E0 		mul	r3, r9, r3
 1924 0618 60308DE5 		str	r3, [sp, #96]
 1925 061c 0B30A0E1 		mov	r3, fp
 1926 0620 06B0A0E1 		mov	fp, r6
 1927 0624 0960A0E1 		mov	r6, r9
 1928              	.LVL206:
 1929 0628 0790A0E1 		mov	r9, r7
 1930 062c 0570A0E1 		mov	r7, r5
 1931 0630 0350A0E1 		mov	r5, r3
 1932              	.LVL207:
 1933              	.L126:
 1934              	.LBB641:
  58:C:/Renesas/e2studio_2021_01_workspace_RZA2M_ANPR/ANPR_RZA2M_GR_MANGO/src/tensorflow_lite/src/tensorflow/lite/kernels/internal/reference\conv.h ****     for (int out_y = 0; out_y < output_height; ++out_y) {
 1935              		.loc 8 58 0
 1936 0634 64309DE5 		ldr	r3, [sp, #100]
 1937 0638 000053E3 		cmp	r3, #0
 1938 063c BD0000DA 		ble	.L128
 1939 0640 9C309DE5 		ldr	r3, [sp, #156]
 1940 0644 7C308DE5 		str	r3, [sp, #124]
 1941 0648 90309DE5 		ldr	r3, [sp, #144]
 1942 064c 78308DE5 		str	r3, [sp, #120]
 1943 0650 8C309DE5 		ldr	r3, [sp, #140]
 1944 0654 84308DE5 		str	r3, [sp, #132]
 1945 0658 0030A0E3 		mov	r3, #0
 1946 065c A8308DE5 		str	r3, [sp, #168]
 1947              	.LVL208:
 1948              	.L129:
 1949              	.LBB642:
 1950              	.LBB643:
  59:C:/Renesas/e2studio_2021_01_workspace_RZA2M_ANPR/ANPR_RZA2M_GR_MANGO/src/tensorflow_lite/src/tensorflow/lite/kernels/internal/reference\conv.h ****       const int in_y_origin = (out_y * stride_height) - pad_height;
  60:C:/Renesas/e2studio_2021_01_workspace_RZA2M_ANPR/ANPR_RZA2M_GR_MANGO/src/tensorflow_lite/src/tensorflow/lite/kernels/internal/reference\conv.h ****       for (int out_x = 0; out_x < output_width; ++out_x) {
 1951              		.loc 8 60 0
 1952 0660 68309DE5 		ldr	r3, [sp, #104]
 1953 0664 000053E3 		cmp	r3, #0
 1954 0668 A00000DA 		ble	.L131
 1955 066c 98309DE5 		ldr	r3, [sp, #152]
 1956 0670 003063E2 		rsb	r3, r3, #0
 1957 0674 54308DE5 		str	r3, [sp, #84]
 1958 0678 84309DE5 		ldr	r3, [sp, #132]
 1959 067c 88308DE5 		str	r3, [sp, #136]
 1960 0680 0030A0E3 		mov	r3, #0
 1961 0684 A4308DE5 		str	r3, [sp, #164]
 1962              	.LVL209:
 1963              	.L132:
 1964              	.LBB644:
 1965              	.LBB645:
  61:C:/Renesas/e2studio_2021_01_workspace_RZA2M_ANPR/ANPR_RZA2M_GR_MANGO/src/tensorflow_lite/src/tensorflow/lite/kernels/internal/reference\conv.h ****         const int in_x_origin = (out_x * stride_width) - pad_width;
  62:C:/Renesas/e2studio_2021_01_workspace_RZA2M_ANPR/ANPR_RZA2M_GR_MANGO/src/tensorflow_lite/src/tensorflow/lite/kernels/internal/reference\conv.h ****         for (int out_channel = 0; out_channel < output_depth; ++out_channel) {
 1966              		.loc 8 62 0
 1967 0688 58309DE5 		ldr	r3, [sp, #88]
 1968 068c 000053E3 		cmp	r3, #0
 1969 0690 880000DA 		ble	.L155
 1970 0694 94309DE5 		ldr	r3, [sp, #148]
 1971 0698 6C308DE5 		str	r3, [sp, #108]
 1972 069c 88309DE5 		ldr	r3, [sp, #136]
 1973 06a0 A0308DE5 		str	r3, [sp, #160]
 1974 06a4 0030A0E3 		mov	r3, #0
 1975 06a8 3C308DE5 		str	r3, [sp, #60]
 1976              	.LVL210:
 1977              	.L156:
 1978              	.LBB646:
 1979              	.LBB647:
  63:C:/Renesas/e2studio_2021_01_workspace_RZA2M_ANPR/ANPR_RZA2M_GR_MANGO/src/tensorflow_lite/src/tensorflow/lite/kernels/internal/reference\conv.h ****           float total = 0.f;
  64:C:/Renesas/e2studio_2021_01_workspace_RZA2M_ANPR/ANPR_RZA2M_GR_MANGO/src/tensorflow_lite/src/tensorflow/lite/kernels/internal/reference\conv.h ****           for (int filter_y = 0; filter_y < filter_height; ++filter_y) {
 1980              		.loc 8 64 0
 1981 06ac 30309DE5 		ldr	r3, [sp, #48]
 1982 06b0 DE7ADFED 		vldr.32	s15, .L313
 1983 06b4 000053E3 		cmp	r3, #0
 1984 06b8 550000DA 		ble	.L133
 1985 06bc 7C309DE5 		ldr	r3, [sp, #124]
 1986 06c0 34308DE5 		str	r3, [sp, #52]
 1987 06c4 78309DE5 		ldr	r3, [sp, #120]
 1988 06c8 2C308DE5 		str	r3, [sp, #44]
 1989 06cc 6C309DE5 		ldr	r3, [sp, #108]
 1990 06d0 38308DE5 		str	r3, [sp, #56]
 1991 06d4 0030A0E3 		mov	r3, #0
 1992 06d8 28308DE5 		str	r3, [sp, #40]
 1993              	.LVL211:
 1994              	.L147:
 1995              	.LBB648:
 1996              	.LBB649:
  65:C:/Renesas/e2studio_2021_01_workspace_RZA2M_ANPR/ANPR_RZA2M_GR_MANGO/src/tensorflow_lite/src/tensorflow/lite/kernels/internal/reference\conv.h ****             const int in_y = in_y_origin + dilation_height_factor * filter_y;
  66:C:/Renesas/e2studio_2021_01_workspace_RZA2M_ANPR/ANPR_RZA2M_GR_MANGO/src/tensorflow_lite/src/tensorflow/lite/kernels/internal/reference\conv.h ****             for (int filter_x = 0; filter_x < filter_width; ++filter_x) {
 1997              		.loc 8 66 0
 1998 06dc 000055E3 		cmp	r5, #0
 1999 06e0 390000DA 		ble	.L134
 2000              	.LBB650:
  67:C:/Renesas/e2studio_2021_01_workspace_RZA2M_ANPR/ANPR_RZA2M_GR_MANGO/src/tensorflow_lite/src/tensorflow/lite/kernels/internal/reference\conv.h ****               const int in_x = in_x_origin + dilation_width_factor * filter_x;
  68:C:/Renesas/e2studio_2021_01_workspace_RZA2M_ANPR/ANPR_RZA2M_GR_MANGO/src/tensorflow_lite/src/tensorflow/lite/kernels/internal/reference\conv.h **** 
  69:C:/Renesas/e2studio_2021_01_workspace_RZA2M_ANPR/ANPR_RZA2M_GR_MANGO/src/tensorflow_lite/src/tensorflow/lite/kernels/internal/reference\conv.h ****               // Zero padding by omitting the areas outside the image.
  70:C:/Renesas/e2studio_2021_01_workspace_RZA2M_ANPR/ANPR_RZA2M_GR_MANGO/src/tensorflow_lite/src/tensorflow/lite/kernels/internal/reference\conv.h ****               const bool is_point_inside_image =
  71:C:/Renesas/e2studio_2021_01_workspace_RZA2M_ANPR/ANPR_RZA2M_GR_MANGO/src/tensorflow_lite/src/tensorflow/lite/kernels/internal/reference\conv.h ****                   (in_x >= 0) && (in_x < input_width) && (in_y >= 0) &&
 2001              		.loc 8 71 0
 2002 06e4 34209DE5 		ldr	r2, [sp, #52]
 2003 06e8 00E0A0E3 		mov	lr, #0
 2004 06ec 4C109DE5 		ldr	r1, [sp, #76]
 2005 06f0 38409DE5 		ldr	r4, [sp, #56]
 2006 06f4 54C09DE5 		ldr	ip, [sp, #84]
 2007 06f8 0230E0E1 		mvn	r3, r2
 2008 06fc A33FA0E1 		lsr	r3, r3, #31
 2009 0700 010052E1 		cmp	r2, r1
 2010 0704 0030A0A3 		movge	r3, #0
 2011 0708 24308DE5 		str	r3, [sp, #36]
 2012              	.LVL212:
 2013              	.L146:
 2014 070c 00005CE3 		cmp	ip, #0
 2015 0710 0C0056A1 		cmpge	r6, ip
 2016 0714 270000DA 		ble	.L135
 2017 0718 24309DE5 		ldr	r3, [sp, #36]
 2018 071c 000053E3 		cmp	r3, #0
 2019 0720 2400000A 		beq	.L135
 2020              	.LVL213:
 2021              	.LBB651:
  72:C:/Renesas/e2studio_2021_01_workspace_RZA2M_ANPR/ANPR_RZA2M_GR_MANGO/src/tensorflow_lite/src/tensorflow/lite/kernels/internal/reference\conv.h ****                   (in_y < input_height);
  73:C:/Renesas/e2studio_2021_01_workspace_RZA2M_ANPR/ANPR_RZA2M_GR_MANGO/src/tensorflow_lite/src/tensorflow/lite/kernels/internal/reference\conv.h **** 
  74:C:/Renesas/e2studio_2021_01_workspace_RZA2M_ANPR/ANPR_RZA2M_GR_MANGO/src/tensorflow_lite/src/tensorflow/lite/kernels/internal/reference\conv.h ****               if (!is_point_inside_image) {
  75:C:/Renesas/e2studio_2021_01_workspace_RZA2M_ANPR/ANPR_RZA2M_GR_MANGO/src/tensorflow_lite/src/tensorflow/lite/kernels/internal/reference\conv.h ****                 continue;
  76:C:/Renesas/e2studio_2021_01_workspace_RZA2M_ANPR/ANPR_RZA2M_GR_MANGO/src/tensorflow_lite/src/tensorflow/lite/kernels/internal/reference\conv.h ****               }
  77:C:/Renesas/e2studio_2021_01_workspace_RZA2M_ANPR/ANPR_RZA2M_GR_MANGO/src/tensorflow_lite/src/tensorflow/lite/kernels/internal/reference\conv.h **** 
  78:C:/Renesas/e2studio_2021_01_workspace_RZA2M_ANPR/ANPR_RZA2M_GR_MANGO/src/tensorflow_lite/src/tensorflow/lite/kernels/internal/reference\conv.h ****               for (int in_channel = 0; in_channel < input_depth; ++in_channel) {
 2022              		.loc 8 78 0
 2023 0724 000058E3 		cmp	r8, #0
 2024 0728 220000DA 		ble	.L135
 2025              	.LVL214:
 2026              	.LBB652:
 2027              	.LBB653:
 2028              	.LBB654:
 406:C:/Renesas/e2studio_2021_01_workspace_RZA2M_ANPR/ANPR_RZA2M_GR_MANGO/src/tensorflow_lite/src/tensorflow/lite/kernels/internal\types.h ****   TFLITE_DCHECK(i1 >= 0 && i1 < dims_data[1]);
 2029              		.loc 3 406 0
 2030 072c 44309DE5 		ldr	r3, [sp, #68]
 2031 0730 40209DE5 		ldr	r2, [sp, #64]
 2032 0734 020053E1 		cmp	r3, r2
 2033 0738 E20000DA 		ble	.L136
 409:C:/Renesas/e2studio_2021_01_workspace_RZA2M_ANPR/ANPR_RZA2M_GR_MANGO/src/tensorflow_lite/src/tensorflow/lite/kernels/internal\types.h ****   return ((i0 * dims_data[1] + i1) * dims_data[2] + i2) * dims_data[3] + i3;
 2034              		.loc 3 409 0
 2035 073c 000057E3 		cmp	r7, #0
 2036 0740 DF0000DA 		ble	.L138
 2037 0744 48309DE5 		ldr	r3, [sp, #72]
 2038 0748 3C209DE5 		ldr	r2, [sp, #60]
 2039 074c 020053E1 		cmp	r3, r2
 2040 0750 2C309DE5 		ldr	r3, [sp, #44]
 2041 0754 0C0083E0 		add	r0, r3, ip
 2042 0758 DF0000DA 		ble	.L306
 2043 075c 05005EE1 		cmp	lr, r5
 2044 0760 28309DE5 		ldr	r3, [sp, #40]
 2045 0764 30209DE5 		ldr	r2, [sp, #48]
 2046 0768 D80000AA 		bge	.L307
 2047 076c 020053E1 		cmp	r3, r2
 2048 0770 AD0000AA 		bge	.L142
 2049 0774 0410A0E1 		mov	r1, r4
 2050 0778 0820A0E1 		mov	r2, r8
 2051 077c 0030A0E3 		mov	r3, #0
 2052 0780 020000EA 		b	.L139
 2053              	.LVL215:
 2054              	.L145:
 2055 0784 070053E1 		cmp	r3, r7
 2056 0788 CD00000A 		beq	.L138
 2057 078c 0720A0E1 		mov	r2, r7
 2058              	.LVL216:
 2059              	.L139:
 2060              	.LBE654:
 2061              	.LBE653:
  79:C:/Renesas/e2studio_2021_01_workspace_RZA2M_ANPR/ANPR_RZA2M_GR_MANGO/src/tensorflow_lite/src/tensorflow/lite/kernels/internal/reference\conv.h ****                 float input_value = input_data[Offset(input_shape, batch, in_y,
  80:C:/Renesas/e2studio_2021_01_workspace_RZA2M_ANPR/ANPR_RZA2M_GR_MANGO/src/tensorflow_lite/src/tensorflow/lite/kernels/internal/reference\conv.h ****                                                       in_x, in_channel)];
 2062              		.loc 8 80 0
 2063 0790 923022E0 		mla	r2, r2, r0, r3
 2064              	.LBB656:
 2065              	.LBB657:
 409:C:/Renesas/e2studio_2021_01_workspace_RZA2M_ANPR/ANPR_RZA2M_GR_MANGO/src/tensorflow_lite/src/tensorflow/lite/kernels/internal\types.h ****   return ((i0 * dims_data[1] + i1) * dims_data[2] + i2) * dims_data[3] + i3;
 2066              		.loc 3 409 0
 2067 0794 080053E1 		cmp	r3, r8
 2068              	.LBE657:
 2069              	.LBE656:
 2070              		.loc 8 80 0
 2071 0798 02218BE0 		add	r2, fp, r2, lsl #2
 2072 079c 006AD2ED 		vldr.32	s13, [r2]
 2073              	.LVL217:
 2074              	.LBB661:
 2075              	.LBB658:
 409:C:/Renesas/e2studio_2021_01_workspace_RZA2M_ANPR/ANPR_RZA2M_GR_MANGO/src/tensorflow_lite/src/tensorflow/lite/kernels/internal\types.h ****   return ((i0 * dims_data[1] + i1) * dims_data[2] + i2) * dims_data[3] + i3;
 2076              		.loc 3 409 0
 2077 07a0 C900000A 		beq	.L308
 2078              	.LVL218:
 2079              	.LBE658:
 2080              	.LBE661:
  81:C:/Renesas/e2studio_2021_01_workspace_RZA2M_ANPR/ANPR_RZA2M_GR_MANGO/src/tensorflow_lite/src/tensorflow/lite/kernels/internal/reference\conv.h ****                 float filter_value = filter_data[Offset(
  82:C:/Renesas/e2studio_2021_01_workspace_RZA2M_ANPR/ANPR_RZA2M_GR_MANGO/src/tensorflow_lite/src/tensorflow/lite/kernels/internal/reference\conv.h ****                     filter_shape, out_channel, filter_y, filter_x, in_channel)];
 2081              		.loc 8 82 0
 2082 07a4 017AB1EC 		vldmia.32	r1!, {s14}
 2083              	.LVL219:
 2084              	.LBE652:
  78:C:/Renesas/e2studio_2021_01_workspace_RZA2M_ANPR/ANPR_RZA2M_GR_MANGO/src/tensorflow_lite/src/tensorflow/lite/kernels/internal/reference\conv.h ****                 float input_value = input_data[Offset(input_shape, batch, in_y,
 2085              		.loc 8 78 0
 2086 07a8 013083E2 		add	r3, r3, #1
 2087              	.LVL220:
 2088 07ac 080053E1 		cmp	r3, r8
 2089              	.LBB665:
  83:C:/Renesas/e2studio_2021_01_workspace_RZA2M_ANPR/ANPR_RZA2M_GR_MANGO/src/tensorflow_lite/src/tensorflow/lite/kernels/internal/reference\conv.h ****                 total += (input_value * filter_value);
 2090              		.loc 8 83 0
 2091 07b0 877A46EE 		vmla.f32	s15, s13, s14
 2092              	.LVL221:
 2093              	.LBE665:
  78:C:/Renesas/e2studio_2021_01_workspace_RZA2M_ANPR/ANPR_RZA2M_GR_MANGO/src/tensorflow_lite/src/tensorflow/lite/kernels/internal/reference\conv.h ****                 float input_value = input_data[Offset(input_shape, batch, in_y,
 2094              		.loc 8 78 0
 2095 07b4 F2FFFF1A 		bne	.L145
 2096              	.LVL222:
 2097              	.L135:
 2098              	.LBE651:
 2099              	.LBE650:
  66:C:/Renesas/e2studio_2021_01_workspace_RZA2M_ANPR/ANPR_RZA2M_GR_MANGO/src/tensorflow_lite/src/tensorflow/lite/kernels/internal/reference\conv.h ****               const int in_x = in_x_origin + dilation_width_factor * filter_x;
 2100              		.loc 8 66 0
 2101 07b8 01E08EE2 		add	lr, lr, #1
 2102              	.LVL223:
 2103 07bc 0AC08CE0 		add	ip, ip, r10
 2104 07c0 05005EE1 		cmp	lr, r5
 2105 07c4 094084E0 		add	r4, r4, r9
 2106 07c8 CFFFFF1A 		bne	.L146
 2107              	.LVL224:
 2108              	.L134:
 2109 07cc 38209DE5 		ldr	r2, [sp, #56]
 2110 07d0 5C109DE5 		ldr	r1, [sp, #92]
 2111              	.LBE649:
 2112              	.LBE648:
  64:C:/Renesas/e2studio_2021_01_workspace_RZA2M_ANPR/ANPR_RZA2M_GR_MANGO/src/tensorflow_lite/src/tensorflow/lite/kernels/internal/reference\conv.h ****             const int in_y = in_y_origin + dilation_height_factor * filter_y;
 2113              		.loc 8 64 0
 2114 07d4 28309DE5 		ldr	r3, [sp, #40]
 2115 07d8 012082E0 		add	r2, r2, r1
 2116 07dc 38208DE5 		str	r2, [sp, #56]
 2117 07e0 013083E2 		add	r3, r3, #1
 2118              	.LVL225:
 2119 07e4 30209DE5 		ldr	r2, [sp, #48]
 2120 07e8 28308DE5 		str	r3, [sp, #40]
 2121 07ec 020053E1 		cmp	r3, r2
 2122 07f0 2C309DE5 		ldr	r3, [sp, #44]
 2123              	.LVL226:
 2124 07f4 60209DE5 		ldr	r2, [sp, #96]
 2125 07f8 023083E0 		add	r3, r3, r2
 2126 07fc 50209DE5 		ldr	r2, [sp, #80]
 2127 0800 2C308DE5 		str	r3, [sp, #44]
 2128 0804 34309DE5 		ldr	r3, [sp, #52]
 2129 0808 023083E0 		add	r3, r3, r2
 2130 080c 34308DE5 		str	r3, [sp, #52]
 2131 0810 B1FFFF1A 		bne	.L147
 2132              	.LVL227:
 2133              	.L133:
 2134              	.LBE647:
  84:C:/Renesas/e2studio_2021_01_workspace_RZA2M_ANPR/ANPR_RZA2M_GR_MANGO/src/tensorflow_lite/src/tensorflow/lite/kernels/internal/reference\conv.h ****               }
  85:C:/Renesas/e2studio_2021_01_workspace_RZA2M_ANPR/ANPR_RZA2M_GR_MANGO/src/tensorflow_lite/src/tensorflow/lite/kernels/internal/reference\conv.h ****             }
  86:C:/Renesas/e2studio_2021_01_workspace_RZA2M_ANPR/ANPR_RZA2M_GR_MANGO/src/tensorflow_lite/src/tensorflow/lite/kernels/internal/reference\conv.h ****           }
  87:C:/Renesas/e2studio_2021_01_workspace_RZA2M_ANPR/ANPR_RZA2M_GR_MANGO/src/tensorflow_lite/src/tensorflow/lite/kernels/internal/reference\conv.h ****           float bias_value = 0.0f;
  88:C:/Renesas/e2studio_2021_01_workspace_RZA2M_ANPR/ANPR_RZA2M_GR_MANGO/src/tensorflow_lite/src/tensorflow/lite/kernels/internal/reference\conv.h ****           if (bias_data) {
 2135              		.loc 8 88 0
 2136 0814 74309DE5 		ldr	r3, [sp, #116]
 2137 0818 000053E3 		cmp	r3, #0
  89:C:/Renesas/e2studio_2021_01_workspace_RZA2M_ANPR/ANPR_RZA2M_GR_MANGO/src/tensorflow_lite/src/tensorflow/lite/kernels/internal/reference\conv.h ****             bias_value = bias_data[out_channel];
 2138              		.loc 8 89 0
 2139 081c 3C209D15 		ldrne	r2, [sp, #60]
  87:C:/Renesas/e2studio_2021_01_workspace_RZA2M_ANPR/ANPR_RZA2M_GR_MANGO/src/tensorflow_lite/src/tensorflow/lite/kernels/internal/reference\conv.h ****           if (bias_data) {
 2140              		.loc 8 87 0
 2141 0820 827A9F0D 		vldreq.32	s14, .L313
 2142              		.loc 8 89 0
 2143 0824 02318310 		addne	r3, r3, r2, lsl #2
 2144              	.LBB676:
 2145              	.LBB677:
 406:C:/Renesas/e2studio_2021_01_workspace_RZA2M_ANPR/ANPR_RZA2M_GR_MANGO/src/tensorflow_lite/src/tensorflow/lite/kernels/internal\types.h ****   TFLITE_DCHECK(i1 >= 0 && i1 < dims_data[1]);
 2146              		.loc 3 406 0
 2147 0828 40209DE5 		ldr	r2, [sp, #64]
 2148              	.LBE677:
 2149              	.LBE676:
 2150              		.loc 8 89 0
 2151 082c 007A931D 		vldrne.32	s14, [r3]
 2152              	.LVL228:
 2153              	.LBB680:
 2154              	.LBB678:
 406:C:/Renesas/e2studio_2021_01_workspace_RZA2M_ANPR/ANPR_RZA2M_GR_MANGO/src/tensorflow_lite/src/tensorflow/lite/kernels/internal\types.h ****   TFLITE_DCHECK(i1 >= 0 && i1 < dims_data[1]);
 2155              		.loc 3 406 0
 2156 0830 70309DE5 		ldr	r3, [sp, #112]
 2157 0834 020053E1 		cmp	r3, r2
 2158 0838 D40000DA 		ble	.L309
 407:C:/Renesas/e2studio_2021_01_workspace_RZA2M_ANPR/ANPR_RZA2M_GR_MANGO/src/tensorflow_lite/src/tensorflow/lite/kernels/internal\types.h ****   TFLITE_DCHECK(i2 >= 0 && i2 < dims_data[2]);
 2159              		.loc 3 407 0
 2160 083c A8309DE5 		ldr	r3, [sp, #168]
 2161 0840 64209DE5 		ldr	r2, [sp, #100]
 2162              	.LVL229:
 2163 0844 020053E1 		cmp	r3, r2
 2164 0848 CF0000AA 		bge	.L310
 408:C:/Renesas/e2studio_2021_01_workspace_RZA2M_ANPR/ANPR_RZA2M_GR_MANGO/src/tensorflow_lite/src/tensorflow/lite/kernels/internal\types.h ****   TFLITE_DCHECK(i3 >= 0 && i3 < dims_data[3]);
 2165              		.loc 3 408 0
 2166 084c 68309DE5 		ldr	r3, [sp, #104]
 2167 0850 A4209DE5 		ldr	r2, [sp, #164]
 2168 0854 020053E1 		cmp	r3, r2
 2169 0858 CA0000DA 		ble	.L311
 409:C:/Renesas/e2studio_2021_01_workspace_RZA2M_ANPR/ANPR_RZA2M_GR_MANGO/src/tensorflow_lite/src/tensorflow/lite/kernels/internal\types.h ****   return ((i0 * dims_data[1] + i1) * dims_data[2] + i2) * dims_data[3] + i3;
 2170              		.loc 3 409 0
 2171 085c 58309DE5 		ldr	r3, [sp, #88]
 2172 0860 3C209DE5 		ldr	r2, [sp, #60]
 2173 0864 020053E1 		cmp	r3, r2
 2174 0868 C500000A 		beq	.L312
 2175              	.LVL230:
 2176              	.LBE678:
 2177              	.LBE680:
  90:C:/Renesas/e2studio_2021_01_workspace_RZA2M_ANPR/ANPR_RZA2M_GR_MANGO/src/tensorflow_lite/src/tensorflow/lite/kernels/internal/reference\conv.h ****           }
  91:C:/Renesas/e2studio_2021_01_workspace_RZA2M_ANPR/ANPR_RZA2M_GR_MANGO/src/tensorflow_lite/src/tensorflow/lite/kernels/internal/reference\conv.h ****           output_data[Offset(output_shape, batch, out_y, out_x, out_channel)] =
  92:C:/Renesas/e2studio_2021_01_workspace_RZA2M_ANPR/ANPR_RZA2M_GR_MANGO/src/tensorflow_lite/src/tensorflow/lite/kernels/internal/reference\conv.h ****               ActivationFunctionWithMinMax(total + bias_value,
 2178              		.loc 8 92 0
 2179 086c 877A77EE 		vadd.f32	s15, s15, s14
 2180              	.LVL231:
 2181              	.LBE646:
  62:C:/Renesas/e2studio_2021_01_workspace_RZA2M_ANPR/ANPR_RZA2M_GR_MANGO/src/tensorflow_lite/src/tensorflow/lite/kernels/internal/reference\conv.h ****           float total = 0.f;
 2182              		.loc 8 62 0
 2183 0870 013082E2 		add	r3, r2, #1
 2184 0874 B0109DE5 		ldr	r1, [sp, #176]
 2185 0878 6C209DE5 		ldr	r2, [sp, #108]
 2186 087c 3C308DE5 		str	r3, [sp, #60]
 2187              	.LBB690:
 2188              	.LBB681:
 2189              	.LBB682:
 2190              	.LBB683:
 225:c:\program files (x86)\gnu tools arm embedded\6 2017-q2-update\arm-none-eabi\include\c++\6.3.1\bits\stl_algobase.h **** 	return __b;
 2191              		.loc 6 225 0
 2192 0880 676AB4EE 		vcmp.f32	s12, s15
 2193 0884 10FAF1EE 		vmrs	APSR_nzcv, FPSCR
 2194 0888 012082E0 		add	r2, r2, r1
 2195 088c 467AF0CE 		vmovgt.f32	s15, s12
 2196              	.LVL232:
 2197 0890 6C208DE5 		str	r2, [sp, #108]
 2198              	.LBE683:
 2199              	.LBE682:
 2200              	.LBE681:
 2201              	.LBE690:
  62:C:/Renesas/e2studio_2021_01_workspace_RZA2M_ANPR/ANPR_RZA2M_GR_MANGO/src/tensorflow_lite/src/tensorflow/lite/kernels/internal/reference\conv.h ****           float total = 0.f;
 2202              		.loc 8 62 0
 2203 0894 58209DE5 		ldr	r2, [sp, #88]
 2204              	.LBB691:
 2205              	.LBB686:
 2206              	.LBB684:
 2207              	.LBB685:
 201:c:\program files (x86)\gnu tools arm embedded\6 2017-q2-update\arm-none-eabi\include\c++\6.3.1\bits\stl_algobase.h ****       return __a;
 2208              		.loc 6 201 0
 2209 0898 675AF4EE 		vcmp.f32	s11, s15
 2210 089c 10FAF1EE 		vmrs	APSR_nzcv, FPSCR
 2211 08a0 657AF04E 		vmovmi.f32	s15, s11
 2212              	.LVL233:
 2213              	.LBE685:
 2214              	.LBE684:
 2215              	.LBE686:
 2216              	.LBE691:
  62:C:/Renesas/e2studio_2021_01_workspace_RZA2M_ANPR/ANPR_RZA2M_GR_MANGO/src/tensorflow_lite/src/tensorflow/lite/kernels/internal/reference\conv.h ****           float total = 0.f;
 2217              		.loc 8 62 0
 2218 08a4 020053E1 		cmp	r3, r2
 2219              	.LBB692:
  91:C:/Renesas/e2studio_2021_01_workspace_RZA2M_ANPR/ANPR_RZA2M_GR_MANGO/src/tensorflow_lite/src/tensorflow/lite/kernels/internal/reference\conv.h ****               ActivationFunctionWithMinMax(total + bias_value,
 2220              		.loc 8 91 0
 2221 08a8 A0309DE5 		ldr	r3, [sp, #160]
 2222 08ac 017AE3EC 		vstmia.32	r3!, {s15}
 2223 08b0 A0308DE5 		str	r3, [sp, #160]
 2224              	.LBE692:
  62:C:/Renesas/e2studio_2021_01_workspace_RZA2M_ANPR/ANPR_RZA2M_GR_MANGO/src/tensorflow_lite/src/tensorflow/lite/kernels/internal/reference\conv.h ****           float total = 0.f;
 2225              		.loc 8 62 0
 2226 08b4 7CFFFF1A 		bne	.L156
 2227              	.LVL234:
 2228              	.L155:
 2229 08b8 88209DE5 		ldr	r2, [sp, #136]
 2230 08bc B8109DE5 		ldr	r1, [sp, #184]
 2231              	.LBE645:
 2232              	.LBE644:
  60:C:/Renesas/e2studio_2021_01_workspace_RZA2M_ANPR/ANPR_RZA2M_GR_MANGO/src/tensorflow_lite/src/tensorflow/lite/kernels/internal/reference\conv.h ****         const int in_x_origin = (out_x * stride_width) - pad_width;
 2233              		.loc 8 60 0
 2234 08c0 A4309DE5 		ldr	r3, [sp, #164]
 2235 08c4 012082E0 		add	r2, r2, r1
 2236 08c8 88208DE5 		str	r2, [sp, #136]
 2237 08cc 013083E2 		add	r3, r3, #1
 2238 08d0 68209DE5 		ldr	r2, [sp, #104]
 2239 08d4 A4308DE5 		str	r3, [sp, #164]
 2240              	.LVL235:
 2241 08d8 020053E1 		cmp	r3, r2
 2242 08dc 54309DE5 		ldr	r3, [sp, #84]
 2243              	.LVL236:
 2244 08e0 AC209DE5 		ldr	r2, [sp, #172]
 2245 08e4 023083E0 		add	r3, r3, r2
 2246 08e8 54308DE5 		str	r3, [sp, #84]
 2247 08ec 65FFFF1A 		bne	.L132
 2248              	.LVL237:
 2249              	.L131:
 2250 08f0 84209DE5 		ldr	r2, [sp, #132]
 2251 08f4 B4109DE5 		ldr	r1, [sp, #180]
 2252              	.LBE643:
 2253              	.LBE642:
  58:C:/Renesas/e2studio_2021_01_workspace_RZA2M_ANPR/ANPR_RZA2M_GR_MANGO/src/tensorflow_lite/src/tensorflow/lite/kernels/internal/reference\conv.h ****       const int in_y_origin = (out_y * stride_height) - pad_height;
 2254              		.loc 8 58 0
 2255 08f8 A8309DE5 		ldr	r3, [sp, #168]
 2256 08fc 012082E0 		add	r2, r2, r1
 2257 0900 84208DE5 		str	r2, [sp, #132]
 2258 0904 013083E2 		add	r3, r3, #1
 2259 0908 64209DE5 		ldr	r2, [sp, #100]
 2260 090c A8308DE5 		str	r3, [sp, #168]
 2261              	.LVL238:
 2262 0910 020053E1 		cmp	r3, r2
 2263 0914 78309DE5 		ldr	r3, [sp, #120]
 2264              	.LVL239:
 2265 0918 BC209DE5 		ldr	r2, [sp, #188]
 2266 091c 023083E0 		add	r3, r3, r2
 2267 0920 80209DE5 		ldr	r2, [sp, #128]
 2268 0924 78308DE5 		str	r3, [sp, #120]
 2269 0928 7C309DE5 		ldr	r3, [sp, #124]
 2270 092c 023083E0 		add	r3, r3, r2
 2271 0930 7C308DE5 		str	r3, [sp, #124]
 2272 0934 49FFFF1A 		bne	.L129
 2273              	.LVL240:
 2274              	.L128:
 2275 0938 8C209DE5 		ldr	r2, [sp, #140]
 2276 093c C0109DE5 		ldr	r1, [sp, #192]
 2277              	.LBE641:
  57:C:/Renesas/e2studio_2021_01_workspace_RZA2M_ANPR/ANPR_RZA2M_GR_MANGO/src/tensorflow_lite/src/tensorflow/lite/kernels/internal/reference\conv.h ****     for (int out_y = 0; out_y < output_height; ++out_y) {
 2278              		.loc 8 57 0
 2279 0940 40309DE5 		ldr	r3, [sp, #64]
 2280 0944 012082E0 		add	r2, r2, r1
 2281 0948 8C208DE5 		str	r2, [sp, #140]
 2282 094c 013083E2 		add	r3, r3, #1
 2283 0950 70209DE5 		ldr	r2, [sp, #112]
 2284 0954 40308DE5 		str	r3, [sp, #64]
 2285              	.LVL241:
 2286 0958 020053E1 		cmp	r3, r2
 2287 095c 90309DE5 		ldr	r3, [sp, #144]
 2288              	.LVL242:
 2289 0960 C4209DE5 		ldr	r2, [sp, #196]
 2290 0964 023083E0 		add	r3, r3, r2
 2291 0968 90308DE5 		str	r3, [sp, #144]
 2292 096c 30FFFF1A 		bne	.L126
 2293              	.LVL243:
 2294              	.L125:
 2295              	.LBE724:
 2296              	.LBE599:
 2297              	.LBE598:
 2298              	.LBB736:
 2299              	.LBB737:
 203:C:/Renesas/e2studio_2021_01_workspace_RZA2M_ANPR/ANPR_RZA2M_GR_MANGO/src/tensorflow_lite/src/tensorflow/lite/kernels/internal\types.h **** #ifdef TF_LITE_STATIC_MEMORY
 2300              		.loc 3 203 0
 2301 0970 28319DE5 		ldr	r3, [sp, #296]
 2302 0974 050053E3 		cmp	r3, #5
 2303 0978 0A0000DA 		ble	.L157
 207:C:/Renesas/e2studio_2021_01_workspace_RZA2M_ANPR/ANPR_RZA2M_GR_MANGO/src/tensorflow_lite/src/tensorflow/lite/kernels/internal\types.h **** #endif  // TF_LITE_STATIC_MEMORY
 2304              		.loc 3 207 0
 2305 097c 2C019DE5 		ldr	r0, [sp, #300]
 2306 0980 000050E3 		cmp	r0, #0
 2307 0984 0700000A 		beq	.L157
 2308 0988 FEFFFFEB 		bl	_ZdaPv
 2309              	.LVL244:
 2310 098c 10319DE5 		ldr	r3, [sp, #272]
 2311              	.LVL245:
 2312              	.LBE737:
 2313              	.LBE736:
 2314              	.LBB738:
 2315              	.LBB739:
 203:C:/Renesas/e2studio_2021_01_workspace_RZA2M_ANPR/ANPR_RZA2M_GR_MANGO/src/tensorflow_lite/src/tensorflow/lite/kernels/internal\types.h **** #ifdef TF_LITE_STATIC_MEMORY
 2316              		.loc 3 203 0
 2317 0990 050053E3 		cmp	r3, #5
 2318 0994 030000DA 		ble	.L157
 207:C:/Renesas/e2studio_2021_01_workspace_RZA2M_ANPR/ANPR_RZA2M_GR_MANGO/src/tensorflow_lite/src/tensorflow/lite/kernels/internal\types.h **** #endif  // TF_LITE_STATIC_MEMORY
 2319              		.loc 3 207 0
 2320 0998 14019DE5 		ldr	r0, [sp, #276]
 2321 099c 000050E3 		cmp	r0, #0
 2322 09a0 0000000A 		beq	.L157
 2323 09a4 FEFFFFEB 		bl	_ZdaPv
 2324              	.LVL246:
 2325              	.L157:
 2326              	.LBE739:
 2327              	.LBE738:
 2328              	.LBB740:
 2329              	.LBB741:
 203:C:/Renesas/e2studio_2021_01_workspace_RZA2M_ANPR/ANPR_RZA2M_GR_MANGO/src/tensorflow_lite/src/tensorflow/lite/kernels/internal\types.h **** #ifdef TF_LITE_STATIC_MEMORY
 2330              		.loc 3 203 0
 2331 09a8 F8309DE5 		ldr	r3, [sp, #248]
 2332 09ac 050053E3 		cmp	r3, #5
 2333 09b0 030000DA 		ble	.L158
 207:C:/Renesas/e2studio_2021_01_workspace_RZA2M_ANPR/ANPR_RZA2M_GR_MANGO/src/tensorflow_lite/src/tensorflow/lite/kernels/internal\types.h **** #endif  // TF_LITE_STATIC_MEMORY
 2334              		.loc 3 207 0
 2335 09b4 FC009DE5 		ldr	r0, [sp, #252]
 2336 09b8 000050E3 		cmp	r0, #0
 2337 09bc 0000000A 		beq	.L158
 2338 09c0 FEFFFFEB 		bl	_ZdaPv
 2339              	.LVL247:
 2340              	.L158:
 2341              	.LBE741:
 2342              	.LBE740:
 2343              	.LBB742:
 2344              	.LBB743:
 203:C:/Renesas/e2studio_2021_01_workspace_RZA2M_ANPR/ANPR_RZA2M_GR_MANGO/src/tensorflow_lite/src/tensorflow/lite/kernels/internal\types.h **** #ifdef TF_LITE_STATIC_MEMORY
 2345              		.loc 3 203 0
 2346 09c4 E0309DE5 		ldr	r3, [sp, #224]
 2347 09c8 050053E3 		cmp	r3, #5
 2348 09cc 030000DA 		ble	.L159
 207:C:/Renesas/e2studio_2021_01_workspace_RZA2M_ANPR/ANPR_RZA2M_GR_MANGO/src/tensorflow_lite/src/tensorflow/lite/kernels/internal\types.h **** #endif  // TF_LITE_STATIC_MEMORY
 2349              		.loc 3 207 0
 2350 09d0 E4009DE5 		ldr	r0, [sp, #228]
 2351 09d4 000050E3 		cmp	r0, #0
 2352 09d8 0000000A 		beq	.L159
 2353 09dc FEFFFFEB 		bl	_ZdaPv
 2354              	.LVL248:
 2355              	.L159:
 2356              	.LBE743:
 2357              	.LBE742:
 2358              	.LBB744:
 2359              	.LBB745:
 203:C:/Renesas/e2studio_2021_01_workspace_RZA2M_ANPR/ANPR_RZA2M_GR_MANGO/src/tensorflow_lite/src/tensorflow/lite/kernels/internal\types.h **** #ifdef TF_LITE_STATIC_MEMORY
 2360              		.loc 3 203 0
 2361 09e0 C8309DE5 		ldr	r3, [sp, #200]
 2362 09e4 050053E3 		cmp	r3, #5
 2363 09e8 01FEFFDA 		ble	.L165
 207:C:/Renesas/e2studio_2021_01_workspace_RZA2M_ANPR/ANPR_RZA2M_GR_MANGO/src/tensorflow_lite/src/tensorflow/lite/kernels/internal\types.h **** #endif  // TF_LITE_STATIC_MEMORY
 2364              		.loc 3 207 0
 2365 09ec CC009DE5 		ldr	r0, [sp, #204]
 2366 09f0 000050E3 		cmp	r0, #0
 2367 09f4 FDFDFF1A 		bne	.L288
 2368 09f8 FDFDFFEA 		b	.L165
 2369              	.LVL249:
 2370              	.L194:
 2371              	.LBE745:
 2372              	.LBE744:
 2373              	.LBB746:
 2374              	.LBB732:
 2375              	.LBB725:
 2376              	.LBB639:
 2377              	.LBB635:
 292:C:/Renesas/e2studio_2021_01_workspace_RZA2M_ANPR/ANPR_RZA2M_GR_MANGO/src/tensorflow_lite/src/tensorflow/lite/kernels/internal\types.h ****       buffer_size *= dims_data[i];
 2378              		.loc 3 292 0
 2379 09fc 03C0A0E1 		mov	ip, r3
 2380 0a00 A3FEFFEA 		b	.L113
 2381              	.LVL250:
 2382              	.L108:
 2383 0a04 000051E3 		cmp	r1, #0
 2384              	.LBE635:
 290:C:/Renesas/e2studio_2021_01_workspace_RZA2M_ANPR/ANPR_RZA2M_GR_MANGO/src/tensorflow_lite/src/tensorflow/lite/kernels/internal\types.h ****     const int* dims_data = reinterpret_cast<const int*>(DimsData());
 2385              		.loc 3 290 0
 2386 0a08 0120A0D3 		movle	r2, #1
 2387              	.LBB636:
 292:C:/Renesas/e2studio_2021_01_workspace_RZA2M_ANPR/ANPR_RZA2M_GR_MANGO/src/tensorflow_lite/src/tensorflow/lite/kernels/internal\types.h ****       buffer_size *= dims_data[i];
 2388              		.loc 3 292 0
 2389 0a0c CBFEFFDA 		ble	.L110
 2390              	.LBE636:
 2391              	.LBB637:
 2392              	.LBB633:
 232:C:/Renesas/e2studio_2021_01_workspace_RZA2M_ANPR/ANPR_RZA2M_GR_MANGO/src/tensorflow_lite/src/tensorflow/lite/kernels/internal\types.h ****   }
 2393              		.loc 3 232 0
 2394 0a10 FC008DE2 		add	r0, sp, #252
 2395 0a14 79FEFFEA 		b	.L109
 2396              	.LVL251:
 2397              	.L304:
 2398 0a18 000053E3 		cmp	r3, #0
 2399              	.LBE633:
 2400              	.LBE637:
 2401              	.LBB638:
 292:C:/Renesas/e2studio_2021_01_workspace_RZA2M_ANPR/ANPR_RZA2M_GR_MANGO/src/tensorflow_lite/src/tensorflow/lite/kernels/internal\types.h ****       buffer_size *= dims_data[i];
 2402              		.loc 3 292 0
 2403 0a1c 0120A003 		moveq	r2, #1
 2404 0a20 03C0A001 		moveq	ip, r3
 2405 0a24 9CFEFF0A 		beq	.L112
 2406 0a28 7BFEFFEA 		b	.L111
 2407              	.LVL252:
 2408              	.L142:
 2409              	.LEHB10:
 2410              	.LBE638:
 2411              	.LBE639:
 2412              	.LBE725:
 2413              	.LBB726:
 2414              	.LBB708:
 2415              	.LBB705:
 2416              	.LBB702:
 2417              	.LBB699:
 2418              	.LBB696:
 2419              	.LBB693:
 2420              	.LBB687:
 2421              	.LBB674:
 2422              	.LBB672:
 2423              	.LBB670:
 2424              	.LBB668:
 2425              	.LBB666:
 2426              	.LBB662:
 2427              	.LBB659:
 407:C:/Renesas/e2studio_2021_01_workspace_RZA2M_ANPR/ANPR_RZA2M_GR_MANGO/src/tensorflow_lite/src/tensorflow/lite/kernels/internal\types.h ****   TFLITE_DCHECK(i2 >= 0 && i2 < dims_data[2]);
 2428              		.loc 3 407 0
 2429 0a2c FEFFFFEB 		bl	abort
 2430              	.LVL253:
 2431              	.LEHE10:
 2432              	.L314:
 2433              		.align	2
 2434              	.L313:
 2435 0a30 00000000 		.word	0
 2436              	.LVL254:
 2437              	.L204:
 2438              	.LBE659:
 2439              	.LBE662:
 2440              	.LBE666:
 2441              	.LBE668:
 2442              	.LBE670:
 2443              	.LBE672:
 2444              	.LBE674:
 2445              	.LBE687:
 2446              	.LBE693:
 2447              	.LBE696:
 2448              	.LBE699:
 2449              	.LBE702:
 2450              	.LBE705:
 2451              	.LBE708:
 2452              	.LBE726:
 2453              	.LBE732:
 2454              	.LBE746:
 2455              	.LBB747:
 2456              	.LBB748:
 203:C:/Renesas/e2studio_2021_01_workspace_RZA2M_ANPR/ANPR_RZA2M_GR_MANGO/src/tensorflow_lite/src/tensorflow/lite/kernels/internal\types.h **** #ifdef TF_LITE_STATIC_MEMORY
 2457              		.loc 3 203 0
 2458 0a34 28319DE5 		ldr	r3, [sp, #296]
 2459 0a38 050053E3 		cmp	r3, #5
 2460 0a3c 030000DA 		ble	.L168
 207:C:/Renesas/e2studio_2021_01_workspace_RZA2M_ANPR/ANPR_RZA2M_GR_MANGO/src/tensorflow_lite/src/tensorflow/lite/kernels/internal\types.h **** #endif  // TF_LITE_STATIC_MEMORY
 2461              		.loc 3 207 0
 2462 0a40 2C019DE5 		ldr	r0, [sp, #300]
 2463 0a44 000050E3 		cmp	r0, #0
 2464 0a48 0000000A 		beq	.L168
 2465 0a4c FEFFFFEB 		bl	_ZdaPv
 2466              	.LVL255:
 2467              	.L168:
 2468              	.LBE748:
 2469              	.LBE747:
 2470              	.LBB749:
 2471              	.LBB750:
 203:C:/Renesas/e2studio_2021_01_workspace_RZA2M_ANPR/ANPR_RZA2M_GR_MANGO/src/tensorflow_lite/src/tensorflow/lite/kernels/internal\types.h **** #ifdef TF_LITE_STATIC_MEMORY
 2472              		.loc 3 203 0
 2473 0a50 10319DE5 		ldr	r3, [sp, #272]
 2474 0a54 050053E3 		cmp	r3, #5
 2475 0a58 030000DA 		ble	.L170
 207:C:/Renesas/e2studio_2021_01_workspace_RZA2M_ANPR/ANPR_RZA2M_GR_MANGO/src/tensorflow_lite/src/tensorflow/lite/kernels/internal\types.h **** #endif  // TF_LITE_STATIC_MEMORY
 2476              		.loc 3 207 0
 2477 0a5c 14019DE5 		ldr	r0, [sp, #276]
 2478 0a60 000050E3 		cmp	r0, #0
 2479 0a64 0000000A 		beq	.L170
 2480 0a68 FEFFFFEB 		bl	_ZdaPv
 2481              	.LVL256:
 2482              	.L170:
 2483              	.LBE750:
 2484              	.LBE749:
 2485              	.LBB751:
 2486              	.LBB752:
 203:C:/Renesas/e2studio_2021_01_workspace_RZA2M_ANPR/ANPR_RZA2M_GR_MANGO/src/tensorflow_lite/src/tensorflow/lite/kernels/internal\types.h **** #ifdef TF_LITE_STATIC_MEMORY
 2487              		.loc 3 203 0
 2488 0a6c F8309DE5 		ldr	r3, [sp, #248]
 2489 0a70 050053E3 		cmp	r3, #5
 2490 0a74 030000DA 		ble	.L172
 207:C:/Renesas/e2studio_2021_01_workspace_RZA2M_ANPR/ANPR_RZA2M_GR_MANGO/src/tensorflow_lite/src/tensorflow/lite/kernels/internal\types.h **** #endif  // TF_LITE_STATIC_MEMORY
 2491              		.loc 3 207 0
 2492 0a78 FC009DE5 		ldr	r0, [sp, #252]
 2493 0a7c 000050E3 		cmp	r0, #0
 2494 0a80 0000000A 		beq	.L172
 2495 0a84 FEFFFFEB 		bl	_ZdaPv
 2496              	.LVL257:
 2497              	.L172:
 2498              	.LBE752:
 2499              	.LBE751:
 2500              	.LBB753:
 2501              	.LBB754:
 203:C:/Renesas/e2studio_2021_01_workspace_RZA2M_ANPR/ANPR_RZA2M_GR_MANGO/src/tensorflow_lite/src/tensorflow/lite/kernels/internal\types.h **** #ifdef TF_LITE_STATIC_MEMORY
 2502              		.loc 3 203 0
 2503 0a88 E0309DE5 		ldr	r3, [sp, #224]
 2504 0a8c 050053E3 		cmp	r3, #5
 2505 0a90 030000DA 		ble	.L174
 207:C:/Renesas/e2studio_2021_01_workspace_RZA2M_ANPR/ANPR_RZA2M_GR_MANGO/src/tensorflow_lite/src/tensorflow/lite/kernels/internal\types.h **** #endif  // TF_LITE_STATIC_MEMORY
 2506              		.loc 3 207 0
 2507 0a94 E4009DE5 		ldr	r0, [sp, #228]
 2508 0a98 000050E3 		cmp	r0, #0
 2509 0a9c 0000000A 		beq	.L174
 2510 0aa0 FEFFFFEB 		bl	_ZdaPv
 2511              	.LVL258:
 2512              	.L174:
 2513              	.LBE754:
 2514              	.LBE753:
 2515              	.LBB755:
 2516              	.LBB756:
 203:C:/Renesas/e2studio_2021_01_workspace_RZA2M_ANPR/ANPR_RZA2M_GR_MANGO/src/tensorflow_lite/src/tensorflow/lite/kernels/internal\types.h **** #ifdef TF_LITE_STATIC_MEMORY
 2517              		.loc 3 203 0
 2518 0aa4 C8309DE5 		ldr	r3, [sp, #200]
 2519 0aa8 050053E3 		cmp	r3, #5
 2520 0aac 030000DA 		ble	.L183
 207:C:/Renesas/e2studio_2021_01_workspace_RZA2M_ANPR/ANPR_RZA2M_GR_MANGO/src/tensorflow_lite/src/tensorflow/lite/kernels/internal\types.h **** #endif  // TF_LITE_STATIC_MEMORY
 2521              		.loc 3 207 0
 2522 0ab0 CC009DE5 		ldr	r0, [sp, #204]
 2523 0ab4 000050E3 		cmp	r0, #0
 2524 0ab8 0000000A 		beq	.L183
 2525              	.LVL259:
 2526              	.L289:
 2527              	.LBE756:
 2528              	.LBE755:
 2529              	.LBB757:
 2530              	.LBB758:
 2531 0abc FEFFFFEB 		bl	_ZdaPv
 2532              	.LVL260:
 2533              	.L183:
 2534              	.LEHB11:
 2535 0ac0 FEFFFFEB 		bl	__cxa_end_cleanup
 2536              	.LVL261:
 2537              	.LEHE11:
 2538              	.L138:
 2539              	.LEHB12:
 2540              	.LBE758:
 2541              	.LBE757:
 2542              	.LBB760:
 2543              	.LBB733:
 2544              	.LBB727:
 2545              	.LBB709:
 2546              	.LBB706:
 2547              	.LBB703:
 2548              	.LBB700:
 2549              	.LBB697:
 2550              	.LBB694:
 2551              	.LBB688:
 2552              	.LBB675:
 2553              	.LBB673:
 2554              	.LBB671:
 2555              	.LBB669:
 2556              	.LBB667:
 2557              	.LBB663:
 2558              	.LBB655:
 409:C:/Renesas/e2studio_2021_01_workspace_RZA2M_ANPR/ANPR_RZA2M_GR_MANGO/src/tensorflow_lite/src/tensorflow/lite/kernels/internal\types.h ****   return ((i0 * dims_data[1] + i1) * dims_data[2] + i2) * dims_data[3] + i3;
 2559              		.loc 3 409 0
 2560 0ac4 FEFFFFEB 		bl	abort
 2561              	.LVL262:
 2562              	.L136:
 406:C:/Renesas/e2studio_2021_01_workspace_RZA2M_ANPR/ANPR_RZA2M_GR_MANGO/src/tensorflow_lite/src/tensorflow/lite/kernels/internal\types.h ****   TFLITE_DCHECK(i1 >= 0 && i1 < dims_data[1]);
 2563              		.loc 3 406 0
 2564 0ac8 FEFFFFEB 		bl	abort
 2565              	.LVL263:
 2566              	.L308:
 2567              	.LBE655:
 2568              	.LBE663:
 2569              	.LBB664:
 2570              	.LBB660:
 409:C:/Renesas/e2studio_2021_01_workspace_RZA2M_ANPR/ANPR_RZA2M_GR_MANGO/src/tensorflow_lite/src/tensorflow/lite/kernels/internal\types.h ****   return ((i0 * dims_data[1] + i1) * dims_data[2] + i2) * dims_data[3] + i3;
 2571              		.loc 3 409 0
 2572 0acc FEFFFFEB 		bl	abort
 2573              	.LVL264:
 2574              	.L307:
 2575 0ad0 020053E1 		cmp	r3, r2
 2576 0ad4 D4FFFFAA 		bge	.L142
 2577              	.LVL265:
 408:C:/Renesas/e2studio_2021_01_workspace_RZA2M_ANPR/ANPR_RZA2M_GR_MANGO/src/tensorflow_lite/src/tensorflow/lite/kernels/internal\types.h ****   TFLITE_DCHECK(i3 >= 0 && i3 < dims_data[3]);
 2578              		.loc 3 408 0
 2579 0ad8 FEFFFFEB 		bl	abort
 2580              	.LVL266:
 2581              	.L306:
 406:C:/Renesas/e2studio_2021_01_workspace_RZA2M_ANPR/ANPR_RZA2M_GR_MANGO/src/tensorflow_lite/src/tensorflow/lite/kernels/internal\types.h ****   TFLITE_DCHECK(i1 >= 0 && i1 < dims_data[1]);
 2582              		.loc 3 406 0
 2583 0adc FEFFFFEB 		bl	abort
 2584              	.LVL267:
 2585              	.L208:
 2586              	.LBE660:
 2587              	.LBE664:
 2588              	.LBE667:
 2589              	.LBE669:
 2590              	.LBE671:
 2591              	.LBE673:
 2592              	.LBE675:
 2593              	.LBE688:
 2594              	.LBE694:
 2595              	.LBE697:
 2596              	.LBE700:
 2597              	.LBE703:
 2598              	.LBE706:
 2599              	.LBE709:
 2600              	.LBE727:
 2601              	.LBE733:
 2602              	.LBE760:
 2603              	.LBB761:
 2604              	.LBB762:
 203:C:/Renesas/e2studio_2021_01_workspace_RZA2M_ANPR/ANPR_RZA2M_GR_MANGO/src/tensorflow_lite/src/tensorflow/lite/kernels/internal\types.h **** #ifdef TF_LITE_STATIC_MEMORY
 2605              		.loc 3 203 0
 2606 0ae0 28319DE5 		ldr	r3, [sp, #296]
 2607 0ae4 050053E3 		cmp	r3, #5
 2608 0ae8 030000DA 		ble	.L178
 207:C:/Renesas/e2studio_2021_01_workspace_RZA2M_ANPR/ANPR_RZA2M_GR_MANGO/src/tensorflow_lite/src/tensorflow/lite/kernels/internal\types.h **** #endif  // TF_LITE_STATIC_MEMORY
 2609              		.loc 3 207 0
 2610 0aec 2C019DE5 		ldr	r0, [sp, #300]
 2611 0af0 000050E3 		cmp	r0, #0
 2612 0af4 0000000A 		beq	.L178
 2613 0af8 FEFFFFEB 		bl	_ZdaPv
 2614              	.LVL268:
 2615              	.L178:
 2616              	.LBE762:
 2617              	.LBE761:
 2618              	.LBB763:
 2619              	.LBB764:
 203:C:/Renesas/e2studio_2021_01_workspace_RZA2M_ANPR/ANPR_RZA2M_GR_MANGO/src/tensorflow_lite/src/tensorflow/lite/kernels/internal\types.h **** #ifdef TF_LITE_STATIC_MEMORY
 2620              		.loc 3 203 0
 2621 0afc 10319DE5 		ldr	r3, [sp, #272]
 2622 0b00 050053E3 		cmp	r3, #5
 2623 0b04 030000DA 		ble	.L180
 207:C:/Renesas/e2studio_2021_01_workspace_RZA2M_ANPR/ANPR_RZA2M_GR_MANGO/src/tensorflow_lite/src/tensorflow/lite/kernels/internal\types.h **** #endif  // TF_LITE_STATIC_MEMORY
 2624              		.loc 3 207 0
 2625 0b08 14019DE5 		ldr	r0, [sp, #276]
 2626 0b0c 000050E3 		cmp	r0, #0
 2627 0b10 0000000A 		beq	.L180
 2628 0b14 FEFFFFEB 		bl	_ZdaPv
 2629              	.LVL269:
 2630              	.L180:
 2631              	.LBE764:
 2632              	.LBE763:
 2633              	.LBB765:
 2634              	.LBB766:
 203:C:/Renesas/e2studio_2021_01_workspace_RZA2M_ANPR/ANPR_RZA2M_GR_MANGO/src/tensorflow_lite/src/tensorflow/lite/kernels/internal\types.h **** #ifdef TF_LITE_STATIC_MEMORY
 2635              		.loc 3 203 0
 2636 0b18 F8309DE5 		ldr	r3, [sp, #248]
 2637 0b1c 050053E3 		cmp	r3, #5
 2638 0b20 030000DA 		ble	.L182
 207:C:/Renesas/e2studio_2021_01_workspace_RZA2M_ANPR/ANPR_RZA2M_GR_MANGO/src/tensorflow_lite/src/tensorflow/lite/kernels/internal\types.h **** #endif  // TF_LITE_STATIC_MEMORY
 2639              		.loc 3 207 0
 2640 0b24 FC009DE5 		ldr	r0, [sp, #252]
 2641 0b28 000050E3 		cmp	r0, #0
 2642 0b2c 0000000A 		beq	.L182
 2643 0b30 FEFFFFEB 		bl	_ZdaPv
 2644              	.LVL270:
 2645              	.L182:
 2646              	.LBE766:
 2647              	.LBE765:
 2648              	.LBB767:
 2649              	.LBB759:
 203:C:/Renesas/e2studio_2021_01_workspace_RZA2M_ANPR/ANPR_RZA2M_GR_MANGO/src/tensorflow_lite/src/tensorflow/lite/kernels/internal\types.h **** #ifdef TF_LITE_STATIC_MEMORY
 2650              		.loc 3 203 0
 2651 0b34 E0309DE5 		ldr	r3, [sp, #224]
 2652 0b38 050053E3 		cmp	r3, #5
 2653 0b3c DFFFFFDA 		ble	.L183
 207:C:/Renesas/e2studio_2021_01_workspace_RZA2M_ANPR/ANPR_RZA2M_GR_MANGO/src/tensorflow_lite/src/tensorflow/lite/kernels/internal\types.h **** #endif  // TF_LITE_STATIC_MEMORY
 2654              		.loc 3 207 0
 2655 0b40 E4009DE5 		ldr	r0, [sp, #228]
 2656 0b44 000050E3 		cmp	r0, #0
 2657 0b48 DBFFFF1A 		bne	.L289
 2658 0b4c DBFFFFEA 		b	.L183
 2659              	.LVL271:
 2660              	.L207:
 2661 0b50 E9FFFFEA 		b	.L178
 2662              	.LVL272:
 2663              	.L303:
 2664              	.LBE759:
 2665              	.LBE767:
 2666              	.LBB768:
 2667              	.LBB734:
 2668              	.LBB728:
 2669              	.LBB628:
 2670              		.loc 3 472 0
 2671 0b54 FEFFFFEB 		bl	abort
 2672              	.LVL273:
 2673              	.L302:
 2674              	.LBE628:
 2675              	.LBE728:
 2676              	.LBB729:
 2677              	.LBB617:
 2678 0b58 FEFFFFEB 		bl	abort
 2679              	.LVL274:
 2680              	.L301:
 2681              	.LBE617:
 2682              	.LBE729:
 2683              	.LBB730:
 2684              	.LBB610:
 2685 0b5c FEFFFFEB 		bl	abort
 2686              	.LVL275:
 2687              	.L300:
 2688              	.LBE610:
 2689              	.LBE730:
  41:C:/Renesas/e2studio_2021_01_workspace_RZA2M_ANPR/ANPR_RZA2M_GR_MANGO/src/tensorflow_lite/src/tensorflow/lite/kernels/internal/reference\conv.h **** 
 2690              		.loc 8 41 0
 2691 0b60 FEFFFFEB 		bl	abort
 2692              	.LVL276:
 2693              	.L305:
  49:C:/Renesas/e2studio_2021_01_workspace_RZA2M_ANPR/ANPR_RZA2M_GR_MANGO/src/tensorflow_lite/src/tensorflow/lite/kernels/internal/reference\conv.h ****   }
 2694              		.loc 8 49 0
 2695 0b64 FEFFFFEB 		bl	abort
 2696              	.LVL277:
 2697              	.LEHE12:
 2698              	.L200:
 2699 0b68 CDFFFFEA 		b	.L174
 2700              	.LVL278:
 2701              	.L297:
 2702              	.LEHB13:
 2703              	.LBE734:
 2704              	.LBE768:
 2705              	.LBB769:
 2706              	.LBB592:
  62:C:/Renesas/e2studio_2021_01_workspace_RZA2M_ANPR/ANPR_RZA2M_GR_MANGO/src/tensorflow_lite/src/tensorflow/lite/micro/kernels\kernel_util.h ****   return reinterpret_cast<const T*>(tensor->data.raw);
 2707              		.loc 7 62 0
 2708 0b6c FEFFFFEB 		bl	abort
 2709              	.LVL279:
 2710              	.LEHE13:
 2711              	.L201:
 2712 0b70 C4FFFFEA 		b	.L172
 2713              	.LVL280:
 2714              	.L299:
 2715              	.LEHB14:
 2716              	.LBE592:
 2717              	.LBE769:
 2718              	.LBB770:
 2719              	.LBB735:
  40:C:/Renesas/e2studio_2021_01_workspace_RZA2M_ANPR/ANPR_RZA2M_GR_MANGO/src/tensorflow_lite/src/tensorflow/lite/kernels/internal/reference\conv.h ****   TFLITE_DCHECK_EQ(output_shape.DimensionsCount(), 4);
 2720              		.loc 8 40 0
 2721 0b74 FEFFFFEB 		bl	abort
 2722              	.LVL281:
 2723              	.L298:
  39:C:/Renesas/e2studio_2021_01_workspace_RZA2M_ANPR/ANPR_RZA2M_GR_MANGO/src/tensorflow_lite/src/tensorflow/lite/kernels/internal/reference\conv.h ****   TFLITE_DCHECK_EQ(filter_shape.DimensionsCount(), 4);
 2724              		.loc 8 39 0
 2725 0b78 FEFFFFEB 		bl	abort
 2726              	.LVL282:
 2727              	.L203:
 2728 0b7c B3FFFFEA 		b	.L168
 2729              	.L202:
 2730 0b80 B9FFFFEA 		b	.L170
 2731              	.LVL283:
 2732              	.L312:
 2733              	.LBB731:
 2734              	.LBB710:
 2735              	.LBB707:
 2736              	.LBB704:
 2737              	.LBB701:
 2738              	.LBB698:
 2739              	.LBB695:
 2740              	.LBB689:
 2741              	.LBB679:
 409:C:/Renesas/e2studio_2021_01_workspace_RZA2M_ANPR/ANPR_RZA2M_GR_MANGO/src/tensorflow_lite/src/tensorflow/lite/kernels/internal\types.h ****   return ((i0 * dims_data[1] + i1) * dims_data[2] + i2) * dims_data[3] + i3;
 2742              		.loc 3 409 0
 2743 0b84 FEFFFFEB 		bl	abort
 2744              	.LVL284:
 2745              	.L311:
 408:C:/Renesas/e2studio_2021_01_workspace_RZA2M_ANPR/ANPR_RZA2M_GR_MANGO/src/tensorflow_lite/src/tensorflow/lite/kernels/internal\types.h ****   TFLITE_DCHECK(i3 >= 0 && i3 < dims_data[3]);
 2746              		.loc 3 408 0
 2747 0b88 FEFFFFEB 		bl	abort
 2748              	.LVL285:
 2749              	.L310:
 407:C:/Renesas/e2studio_2021_01_workspace_RZA2M_ANPR/ANPR_RZA2M_GR_MANGO/src/tensorflow_lite/src/tensorflow/lite/kernels/internal\types.h ****   TFLITE_DCHECK(i2 >= 0 && i2 < dims_data[2]);
 2750              		.loc 3 407 0
 2751 0b8c FEFFFFEB 		bl	abort
 2752              	.LVL286:
 2753              	.L309:
 406:C:/Renesas/e2studio_2021_01_workspace_RZA2M_ANPR/ANPR_RZA2M_GR_MANGO/src/tensorflow_lite/src/tensorflow/lite/kernels/internal\types.h ****   TFLITE_DCHECK(i1 >= 0 && i1 < dims_data[1]);
 2754              		.loc 3 406 0
 2755 0b90 FEFFFFEB 		bl	abort
 2756              	.LVL287:
 2757              	.LEHE14:
 2758              	.L296:
 2759              	.LEHB15:
 2760              	.LBE679:
 2761              	.LBE689:
 2762              	.LBE695:
 2763              	.LBE698:
 2764              	.LBE701:
 2765              	.LBE704:
 2766              	.LBE707:
 2767              	.LBE710:
 2768              	.LBE731:
 2769              	.LBE735:
 2770              	.LBE770:
 2771              	.LBB771:
 2772              	.LBB570:
  62:C:/Renesas/e2studio_2021_01_workspace_RZA2M_ANPR/ANPR_RZA2M_GR_MANGO/src/tensorflow_lite/src/tensorflow/lite/micro/kernels\kernel_util.h ****   return reinterpret_cast<const T*>(tensor->data.raw);
 2773              		.loc 7 62 0
 2774 0b94 FEFFFFEB 		bl	abort
 2775              	.LVL288:
 2776              	.LEHE15:
 2777              	.L206:
 2778 0b98 DEFFFFEA 		b	.L180
 2779              	.LVL289:
 2780              	.L205:
 2781 0b9c E4FFFFEA 		b	.L182
 2782              	.LVL290:
 2783              	.L92:
 2784              	.LEHB16:
 2785              	.LBE570:
 2786              	.LBE771:
 2787              	.LBB772:
 2788              	.LBB548:
 2789              	.LBB545:
  34:C:/Renesas/e2studio_2021_01_workspace_RZA2M_ANPR/ANPR_RZA2M_GR_MANGO/src/tensorflow_lite/src/tensorflow/lite/micro/kernels\kernel_util.h ****   TFLITE_DCHECK(node != nullptr);
 2790              		.loc 7 34 0
 2791 0ba0 FEFFFFEB 		bl	abort
 2792              	.LVL291:
 2793              	.LEHE16:
 2794              	.LBE545:
 2795              	.LBE548:
 2796              	.LBE772:
 2797              		.cfi_endproc
 2798              	.LFE4182:
 2799              		.global	__gxx_personality_v0
 2800              		.personality	__gxx_personality_v0
 2801              		.handlerdata
 2802              	.LLSDA4182:
 2803 0008 FF       		.byte	0xff
 2804 0009 FF       		.byte	0xff
 2805 000a 01       		.byte	0x1
 2806 000b 64       		.uleb128 .LLSDACSE4182-.LLSDACSB4182
 2807              	.LLSDACSB4182:
 2808 000c 38       		.uleb128 .LEHB0-.LFB4182
 2809 000d D401     		.uleb128 .LEHE0-.LEHB0
 2810 000f 00       		.uleb128 0
 2811 0010 00       		.uleb128 0
 2812 0011 9C02     		.uleb128 .LEHB1-.LFB4182
 2813 0013 04       		.uleb128 .LEHE1-.LEHB1
 2814 0014 9C17     		.uleb128 .L205-.LFB4182
 2815 0016 00       		.uleb128 0
 2816 0017 B002     		.uleb128 .LEHB2-.LFB4182
 2817 0019 04       		.uleb128 .LEHE2-.LEHB2
 2818 001a 9817     		.uleb128 .L206-.LFB4182
 2819 001c 00       		.uleb128 0
 2820 001d CC02     		.uleb128 .LEHB3-.LFB4182
 2821 001f 04       		.uleb128 .LEHE3-.LEHB3
 2822 0020 D016     		.uleb128 .L207-.LFB4182
 2823 0022 00       		.uleb128 0
 2824 0023 8003     		.uleb128 .LEHB4-.LFB4182
 2825 0025 04       		.uleb128 .LEHE4-.LEHB4
 2826 0026 E015     		.uleb128 .L208-.LFB4182
 2827 0028 00       		.uleb128 0
 2828 0029 9004     		.uleb128 .LEHB5-.LFB4182
 2829 002b C801     		.uleb128 .LEHE5-.LEHB5
 2830 002d 00       		.uleb128 0
 2831 002e 00       		.uleb128 0
 2832 002f E405     		.uleb128 .LEHB6-.LFB4182
 2833 0031 04       		.uleb128 .LEHE6-.LEHB6
 2834 0032 E816     		.uleb128 .L200-.LFB4182
 2835 0034 00       		.uleb128 0
 2836 0035 F805     		.uleb128 .LEHB7-.LFB4182
 2837 0037 04       		.uleb128 .LEHE7-.LEHB7
 2838 0038 F016     		.uleb128 .L201-.LFB4182
 2839 003a 00       		.uleb128 0
 2840 003b 9406     		.uleb128 .LEHB8-.LFB4182
 2841 003d 04       		.uleb128 .LEHE8-.LEHB8
 2842 003e 8017     		.uleb128 .L202-.LFB4182
 2843 0040 00       		.uleb128 0
 2844 0041 A806     		.uleb128 .LEHB9-.LFB4182
 2845 0043 04       		.uleb128 .LEHE9-.LEHB9
 2846 0044 FC16     		.uleb128 .L203-.LFB4182
 2847 0046 00       		.uleb128 0
 2848 0047 AC14     		.uleb128 .LEHB10-.LFB4182
 2849 0049 04       		.uleb128 .LEHE10-.LEHB10
 2850 004a B414     		.uleb128 .L204-.LFB4182
 2851 004c 00       		.uleb128 0
 2852 004d C015     		.uleb128 .LEHB11-.LFB4182
 2853 004f 04       		.uleb128 .LEHE11-.LEHB11
 2854 0050 00       		.uleb128 0
 2855 0051 00       		.uleb128 0
 2856 0052 C415     		.uleb128 .LEHB12-.LFB4182
 2857 0054 A401     		.uleb128 .LEHE12-.LEHB12
 2858 0056 B414     		.uleb128 .L204-.LFB4182
 2859 0058 00       		.uleb128 0
 2860 0059 EC16     		.uleb128 .LEHB13-.LFB4182
 2861 005b 04       		.uleb128 .LEHE13-.LEHB13
 2862 005c 8017     		.uleb128 .L202-.LFB4182
 2863 005e 00       		.uleb128 0
 2864 005f F416     		.uleb128 .LEHB14-.LFB4182
 2865 0061 20       		.uleb128 .LEHE14-.LEHB14
 2866 0062 B414     		.uleb128 .L204-.LFB4182
 2867 0064 00       		.uleb128 0
 2868 0065 9417     		.uleb128 .LEHB15-.LFB4182
 2869 0067 04       		.uleb128 .LEHE15-.LEHB15
 2870 0068 D016     		.uleb128 .L207-.LFB4182
 2871 006a 00       		.uleb128 0
 2872 006b A017     		.uleb128 .LEHB16-.LFB4182
 2873 006d 04       		.uleb128 .LEHE16-.LEHB16
 2874 006e 00       		.uleb128 0
 2875 006f 00       		.uleb128 0
 2876              	.LLSDACSE4182:
 2877              		.section	.text._ZN6tflite12_GLOBAL__N_14EvalEP13TfLiteContextP10TfLiteNode
 2878              		.fnend
 2880              		.section	.text._ZN6tflite16Register_CONV_2DEv,"ax",%progbits
 2881              		.align	2
 2882              		.global	_ZN6tflite16Register_CONV_2DEv
 2883              		.syntax unified
 2884              		.arm
 2885              		.fpu neon
 2887              	_ZN6tflite16Register_CONV_2DEv:
 2888              		.fnstart
 2889              	.LFB4183:
  93:../src/tensorflow_lite/src/tensorflow/lite/micro/kernels/conv.cpp **** 
  94:../src/tensorflow_lite/src/tensorflow/lite/micro/kernels/conv.cpp **** }  // namespace
  95:../src/tensorflow_lite/src/tensorflow/lite/micro/kernels/conv.cpp **** 
  96:../src/tensorflow_lite/src/tensorflow/lite/micro/kernels/conv.cpp **** TfLiteRegistration Register_CONV_2D() {
 2890              		.loc 1 96 0
 2891              		.cfi_startproc
 2892              		@ args = 0, pretend = 0, frame = 0
 2893              		@ frame_needed = 0, uses_anonymous_args = 0
 2894              	.LVL292:
  97:../src/tensorflow_lite/src/tensorflow/lite/micro/kernels/conv.cpp ****   return {/*init=*/Init,
  98:../src/tensorflow_lite/src/tensorflow/lite/micro/kernels/conv.cpp ****           /*free=*/nullptr,
  99:../src/tensorflow_lite/src/tensorflow/lite/micro/kernels/conv.cpp ****           /*prepare=*/ConvPrepare,
 100:../src/tensorflow_lite/src/tensorflow/lite/micro/kernels/conv.cpp ****           /*invoke=*/Eval,
 101:../src/tensorflow_lite/src/tensorflow/lite/micro/kernels/conv.cpp ****           /*profiling_string=*/nullptr,
 102:../src/tensorflow_lite/src/tensorflow/lite/micro/kernels/conv.cpp ****           /*builtin_code=*/0,
 103:../src/tensorflow_lite/src/tensorflow/lite/micro/kernels/conv.cpp ****           /*custom_name=*/nullptr,
 104:../src/tensorflow_lite/src/tensorflow/lite/micro/kernels/conv.cpp ****           /*version=*/0};
 2895              		.loc 1 104 0
 2896 0000 00C000E3 		movw	ip, #:lower16:.LANCHOR1
  96:../src/tensorflow_lite/src/tensorflow/lite/micro/kernels/conv.cpp ****   return {/*init=*/Init,
 2897              		.loc 1 96 0
 2898 0004 10402DE9 		push	{r4, lr}
 2899              		.cfi_def_cfa_offset 8
 2900              		.cfi_offset 4, -8
 2901              		.cfi_offset 14, -4
 2902              		.loc 1 104 0
 2903 0008 00C040E3 		movt	ip, #:upper16:.LANCHOR1
  96:../src/tensorflow_lite/src/tensorflow/lite/micro/kernels/conv.cpp ****   return {/*init=*/Init,
 2904              		.loc 1 96 0
 2905 000c 0040A0E1 		mov	r4, r0
 2906              		.loc 1 104 0
 2907 0010 00E0A0E1 		mov	lr, r0
 2908 0014 0F00BCE8 		ldmia	ip!, {r0, r1, r2, r3}
 2909              	.LVL293:
 2910 0018 0F00AEE8 		stmia	lr!, {r0, r1, r2, r3}
 2911 001c 0F009CE8 		ldm	ip, {r0, r1, r2, r3}
 2912 0020 0F008EE8 		stm	lr, {r0, r1, r2, r3}
 105:../src/tensorflow_lite/src/tensorflow/lite/micro/kernels/conv.cpp **** }
 2913              		.loc 1 105 0
 2914 0024 0400A0E1 		mov	r0, r4
 2915 0028 1080BDE8 		pop	{r4, pc}
 2916              		.cfi_endproc
 2917              	.LFE4183:
 2918              		.cantunwind
 2919              		.fnend
 2921              		.section	.rodata
 2922              		.align	2
 2923              		.set	.LANCHOR1,. + 0
 2924              	.LC0:
 2925 0000 00000000 		.word	_ZN6tflite12_GLOBAL__N_14InitEP13TfLiteContextPKcj
 2926 0004 00000000 		.word	0
 2927 0008 00000000 		.word	_ZN6tflite11ConvPrepareEP13TfLiteContextP10TfLiteNode
 2928 000c 00000000 		.word	_ZN6tflite12_GLOBAL__N_14EvalEP13TfLiteContextP10TfLiteNode
 2929 0010 00000000 		.word	0
 2930 0014 00000000 		.word	0
 2931 0018 00000000 		.word	0
 2932 001c 00000000 		.word	0
 2933              		.section	.bss._ZN6tflite21reference_integer_opsL14drp_lib_statusE,"aw",%nobits
 2934              		.align	3
 2937              	_ZN6tflite21reference_integer_opsL14drp_lib_statusE:
 2938 0000 00000000 		.space	6
 2938      0000
 2939              		.section	.rodata._ZN6tflite12_GLOBAL__N_14EvalEP13TfLiteContextP10TfLiteNode.str1.4,"aMS",%progbit
 2940              		.align	2
 2941              	.LC3:
 2942 0000 2E2E2F73 		.ascii	"../src/tensorflow_lite/src/tensorflow/lite/micro/ke"
 2942      72632F74 
 2942      656E736F 
 2942      72666C6F 
 2942      775F6C69 
 2943 0033 726E656C 		.ascii	"rnels/conv.cpp\000"
 2943      732F636F 
 2943      6E762E63 
 2943      707000
 2944 0042 0000     		.space	2
 2945              	.LC4:
 2946 0044 25733A25 		.ascii	"%s:%d %s != %s (%d != %d)\000"
 2946      64202573 
 2946      20213D20 
 2946      25732028 
 2946      25642021 
 2947 005e 0000     		.space	2
 2948              	.LC5:
 2949 0060 6F757470 		.ascii	"output->type\000"
 2949      75742D3E 
 2949      74797065 
 2949      00
 2950 006d 000000   		.space	3
 2951              	.LC6:
 2952 0070 696E7075 		.ascii	"input->type\000"
 2952      742D3E74 
 2952      79706500 
 2953              	.LC7:
 2954 007c 2E2E2F73 		.ascii	"../src/tensorflow_lite/src/tensorflow/lite/micro/ke"
 2954      72632F74 
 2954      656E736F 
 2954      72666C6F 
 2954      775F6C69 
 2955 00af 726E656C 		.ascii	"rnels/conv.cpp Hybrid models are not supported on T"
 2955      732F636F 
 2955      6E762E63 
 2955      70702048 
 2955      79627269 
 2956 00e2 464C6974 		.ascii	"FLite Micro.\000"
 2956      65204D69 
 2956      63726F2E 
 2956      00
 2957 00ef 00       		.space	1
 2958              	.LC8:
 2959 00f0 54797065 		.ascii	"Type %s (%d) not supported.\000"
 2959      20257320 
 2959      28256429 
 2959      206E6F74 
 2959      20737570 
 2960              		.section	.rodata._ZN6tflite21reference_integer_ops14ConvPerChannelERKNS_10ConvParamsEPKlS5_RKNS_12
 2961              		.align	2
 2962              	.LC1:
 2963 0000 6578706F 		.ascii	"exponent <= 31\000"
 2963      6E656E74 
 2963      203C3D20 
 2963      333100
 2964 000f 00       		.space	1
 2965              	.LC2:
 2966 0010 433A2F52 		.ascii	"C:/Renesas/e2studio_2021_01_workspace_RZA2M_ANPR/AN"
 2966      656E6573 
 2966      61732F65 
 2966      32737475 
 2966      64696F5F 
 2967 0043 50525F52 		.ascii	"PR_RZA2M_GR_MANGO/src/tensorflow_lite/src/third_par"
 2967      5A41324D 
 2967      5F47525F 
 2967      4D414E47 
 2967      4F2F7372 
 2968 0076 74792F67 		.ascii	"ty/gemmlowp/fixedpoint/fixedpoint.h\000"
 2968      656D6D6C 
 2968      6F77702F 
 2968      66697865 
 2968      64706F69 
 2969              		.section	.rodata._ZZN8gemmlowp19RoundingDivideByPOTIlEET_S1_iE19__PRETTY_FUNCTION__,"a",%progbits
 2970              		.align	3
 2971              		.set	.LANCHOR0,. + 0
 2974              	_ZZN8gemmlowp19RoundingDivideByPOTIlEET_S1_iE19__PRETTY_FUNCTION__:
 2975 0000 496E7465 		.ascii	"IntegerType gemmlowp::RoundingDivideByPOT(IntegerTy"
 2975      67657254 
 2975      79706520 
 2975      67656D6D 
 2975      6C6F7770 
 2976 0033 70652C20 		.ascii	"pe, int) [with IntegerType = long int]\000"
 2976      696E7429 
 2976      205B7769 
 2976      74682049 
 2976      6E746567 
 2977              		.text
 2978              	.Letext0:
 2979              		.file 9 "c:\\program files (x86)\\gnu tools arm embedded\\6 2017-q2-update\\arm-none-eabi\\include
 2980              		.file 10 "c:\\program files (x86)\\gnu tools arm embedded\\6 2017-q2-update\\arm-none-eabi\\includ
 2981              		.file 11 "c:\\program files (x86)\\gnu tools arm embedded\\6 2017-q2-update\\arm-none-eabi\\includ
 2982              		.file 12 "c:\\program files (x86)\\gnu tools arm embedded\\6 2017-q2-update\\arm-none-eabi\\includ
 2983              		.file 13 "c:\\program files (x86)\\gnu tools arm embedded\\6 2017-q2-update\\arm-none-eabi\\includ
 2984              		.file 14 "c:\\program files (x86)\\gnu tools arm embedded\\6 2017-q2-update\\arm-none-eabi\\includ
 2985              		.file 15 "c:\\program files (x86)\\gnu tools arm embedded\\6 2017-q2-update\\arm-none-eabi\\includ
 2986              		.file 16 "c:\\program files (x86)\\gnu tools arm embedded\\6 2017-q2-update\\arm-none-eabi\\includ
 2987              		.file 17 "c:\\program files (x86)\\gnu tools arm embedded\\6 2017-q2-update\\arm-none-eabi\\includ
 2988              		.file 18 "c:\\program files (x86)\\gnu tools arm embedded\\6 2017-q2-update\\arm-none-eabi\\includ
 2989              		.file 19 "c:\\program files (x86)\\gnu tools arm embedded\\6 2017-q2-update\\arm-none-eabi\\includ
 2990              		.file 20 "c:\\program files (x86)\\gnu tools arm embedded\\6 2017-q2-update\\arm-none-eabi\\includ
 2991              		.file 21 "c:\\program files (x86)\\gnu tools arm embedded\\6 2017-q2-update\\arm-none-eabi\\includ
 2992              		.file 22 "c:\\program files (x86)\\gnu tools arm embedded\\6 2017-q2-update\\arm-none-eabi\\includ
 2993              		.file 23 "c:\\program files (x86)\\gnu tools arm embedded\\6 2017-q2-update\\arm-none-eabi\\includ
 2994              		.file 24 "c:\\program files (x86)\\gnu tools arm embedded\\6 2017-q2-update\\arm-none-eabi\\includ
 2995              		.file 25 "c:\\program files (x86)\\gnu tools arm embedded\\6 2017-q2-update\\arm-none-eabi\\includ
 2996              		.file 26 "c:\\program files (x86)\\gnu tools arm embedded\\6 2017-q2-update\\arm-none-eabi\\includ
 2997              		.file 27 "c:\\program files (x86)\\gnu tools arm embedded\\6 2017-q2-update\\arm-none-eabi\\includ
 2998              		.file 28 "c:\\program files (x86)\\gnu tools arm embedded\\6 2017-q2-update\\arm-none-eabi\\includ
 2999              		.file 29 "c:\\program files (x86)\\gnu tools arm embedded\\6 2017-q2-update\\arm-none-eabi\\includ
 3000              		.file 30 "c:\\program files (x86)\\gnu tools arm embedded\\6 2017-q2-update\\arm-none-eabi\\includ
 3001              		.file 31 "c:\\program files (x86)\\gnu tools arm embedded\\6 2017-q2-update\\arm-none-eabi\\includ
 3002              		.file 32 "c:\\program files (x86)\\gnu tools arm embedded\\6 2017-q2-update\\arm-none-eabi\\includ
 3003              		.file 33 "c:\\program files (x86)\\gnu tools arm embedded\\6 2017-q2-update\\arm-none-eabi\\includ
 3004              		.file 34 "c:\\program files (x86)\\gnu tools arm embedded\\6 2017-q2-update\\lib\\gcc\\arm-none-ea
 3005              		.file 35 "C:/Renesas/e2studio_2021_01_workspace_RZA2M_ANPR/ANPR_RZA2M_GR_MANGO/src/tensorflow_lite
 3006              		.file 36 "C:/Renesas/e2studio_2021_01_workspace_RZA2M_ANPR/ANPR_RZA2M_GR_MANGO/src/tensorflow_lite
 3007              		.file 37 "C:/Renesas/e2studio_2021_01_workspace_RZA2M_ANPR/ANPR_RZA2M_GR_MANGO/src/tensorflow_lite
 3008              		.file 38 "c:\\program files (x86)\\gnu tools arm embedded\\6 2017-q2-update\\arm-none-eabi\\includ
 3009              		.file 39 "c:\\program files (x86)\\gnu tools arm embedded\\6 2017-q2-update\\arm-none-eabi\\includ
 3010              		.file 40 "c:\\program files (x86)\\gnu tools arm embedded\\6 2017-q2-update\\arm-none-eabi\\includ
 3011              		.file 41 "c:\\program files (x86)\\gnu tools arm embedded\\6 2017-q2-update\\arm-none-eabi\\includ
 3012              		.file 42 "c:\\program files (x86)\\gnu tools arm embedded\\6 2017-q2-update\\arm-none-eabi\\includ
 3013              		.file 43 "c:\\program files (x86)\\gnu tools arm embedded\\6 2017-q2-update\\lib\\gcc\\arm-none-ea
 3014              		.file 44 "<built-in>"
 3015              		.file 45 "c:\\program files (x86)\\gnu tools arm embedded\\6 2017-q2-update\\arm-none-eabi\\includ
 3016              		.file 46 "C:/Renesas/e2studio_2021_01_workspace_RZA2M_ANPR/ANPR_RZA2M_GR_MANGO/src/tensorflow_lite
 3017              		.file 47 "C:/Renesas/e2studio_2021_01_workspace_RZA2M_ANPR/ANPR_RZA2M_GR_MANGO/src/tensorflow_lite
 3018              		.file 48 "C:/Renesas/e2studio_2021_01_workspace_RZA2M_ANPR/ANPR_RZA2M_GR_MANGO/src/tensorflow_lite
 3019              		.file 49 "c:\\program files (x86)\\gnu tools arm embedded\\6 2017-q2-update\\arm-none-eabi\\includ
 3020              		.file 50 "c:\\program files (x86)\\gnu tools arm embedded\\6 2017-q2-update\\arm-none-eabi\\includ
 3021              		.file 51 "c:\\program files (x86)\\gnu tools arm embedded\\6 2017-q2-update\\arm-none-eabi\\includ
 3022              		.file 52 "c:\\program files (x86)\\gnu tools arm embedded\\6 2017-q2-update\\arm-none-eabi\\includ
 3023              		.file 53 "c:\\program files (x86)\\gnu tools arm embedded\\6 2017-q2-update\\arm-none-eabi\\includ
 3024              		.file 54 "c:\\program files (x86)\\gnu tools arm embedded\\6 2017-q2-update\\arm-none-eabi\\includ
 3025              		.file 55 "c:\\renesas\\e2studio_2021_01_workspace_rza2m_anpr\\anpr_rza2m_gr_mango\\generate\\sc_dr
 3026              		.file 56 "c:\\program files (x86)\\gnu tools arm embedded\\6 2017-q2-update\\arm-none-eabi\\includ
DEFINED SYMBOLS
                            *ABS*:00000000 conv.cpp
C:\Users\a5050395\AppData\Local\Temp\ccu9uHqG.s:17     .text._ZN6tflite12_GLOBAL__N_14InitEP13TfLiteContextPKcj:00000000 $a
C:\Users\a5050395\AppData\Local\Temp\ccu9uHqG.s:22     .text._ZN6tflite12_GLOBAL__N_14InitEP13TfLiteContextPKcj:00000000 _ZN6tflite12_GLOBAL__N_14InitEP13TfLiteContextPKcj
.ARM.exidx.text._ZN6tflite12_GLOBAL__N_14InitEP13TfLiteContextPKcj:00000000 $d
C:\Users\a5050395\AppData\Local\Temp\ccu9uHqG.s:55     .text._ZN6tflite21reference_integer_ops14ConvPerChannelERKNS_10ConvParamsEPKlS5_RKNS_12RuntimeShapeEPKaS8_SA_S8_S5_S8_Pa:00000000 $a
C:\Users\a5050395\AppData\Local\Temp\ccu9uHqG.s:61     .text._ZN6tflite21reference_integer_ops14ConvPerChannelERKNS_10ConvParamsEPKlS5_RKNS_12RuntimeShapeEPKaS8_SA_S8_S5_S8_Pa:00000000 _ZN6tflite21reference_integer_ops14ConvPerChannelERKNS_10ConvParamsEPKlS5_RKNS_12RuntimeShapeEPKaS8_SA_S8_S5_S8_Pa
C:\Users\a5050395\AppData\Local\Temp\ccu9uHqG.s:954    .text._ZN6tflite21reference_integer_ops14ConvPerChannelERKNS_10ConvParamsEPKlS5_RKNS_12RuntimeShapeEPKaS8_SA_S8_S5_S8_Pa:00000678 $d
C:\Users\a5050395\AppData\Local\Temp\ccu9uHqG.s:958    .text._ZN6tflite21reference_integer_ops14ConvPerChannelERKNS_10ConvParamsEPKlS5_RKNS_12RuntimeShapeEPKaS8_SA_S8_S5_S8_Pa:00000680 $a
C:\Users\a5050395\AppData\Local\Temp\ccu9uHqG.s:2962   .rodata._ZN6tflite21reference_integer_ops14ConvPerChannelERKNS_10ConvParamsEPKlS5_RKNS_12RuntimeShapeEPKaS8_SA_S8_S5_S8_Pa.str1.4:00000000 .LC1
C:\Users\a5050395\AppData\Local\Temp\ccu9uHqG.s:2971   .rodata._ZZN8gemmlowp19RoundingDivideByPOTIlEET_S1_iE19__PRETTY_FUNCTION__:00000000 .LANCHOR0
C:\Users\a5050395\AppData\Local\Temp\ccu9uHqG.s:2965   .rodata._ZN6tflite21reference_integer_ops14ConvPerChannelERKNS_10ConvParamsEPKlS5_RKNS_12RuntimeShapeEPKaS8_SA_S8_S5_S8_Pa.str1.4:00000010 .LC2
.ARM.exidx.text._ZN6tflite21reference_integer_ops14ConvPerChannelERKNS_10ConvParamsEPKlS5_RKNS_12RuntimeShapeEPKaS8_SA_S8_S5_S8_Pa:00000000 $d
C:\Users\a5050395\AppData\Local\Temp\ccu9uHqG.s:1036   .text._ZN6tflite12_GLOBAL__N_14EvalEP13TfLiteContextP10TfLiteNode:00000000 $a
C:\Users\a5050395\AppData\Local\Temp\ccu9uHqG.s:1041   .text._ZN6tflite12_GLOBAL__N_14EvalEP13TfLiteContextP10TfLiteNode:00000000 _ZN6tflite12_GLOBAL__N_14EvalEP13TfLiteContextP10TfLiteNode
C:\Users\a5050395\AppData\Local\Temp\ccu9uHqG.s:2953   .rodata._ZN6tflite12_GLOBAL__N_14EvalEP13TfLiteContextP10TfLiteNode.str1.4:0000007c .LC7
C:\Users\a5050395\AppData\Local\Temp\ccu9uHqG.s:2948   .rodata._ZN6tflite12_GLOBAL__N_14EvalEP13TfLiteContextP10TfLiteNode.str1.4:00000060 .LC5
C:\Users\a5050395\AppData\Local\Temp\ccu9uHqG.s:2951   .rodata._ZN6tflite12_GLOBAL__N_14EvalEP13TfLiteContextP10TfLiteNode.str1.4:00000070 .LC6
C:\Users\a5050395\AppData\Local\Temp\ccu9uHqG.s:2941   .rodata._ZN6tflite12_GLOBAL__N_14EvalEP13TfLiteContextP10TfLiteNode.str1.4:00000000 .LC3
C:\Users\a5050395\AppData\Local\Temp\ccu9uHqG.s:2945   .rodata._ZN6tflite12_GLOBAL__N_14EvalEP13TfLiteContextP10TfLiteNode.str1.4:00000044 .LC4
C:\Users\a5050395\AppData\Local\Temp\ccu9uHqG.s:2958   .rodata._ZN6tflite12_GLOBAL__N_14EvalEP13TfLiteContextP10TfLiteNode.str1.4:000000f0 .LC8
C:\Users\a5050395\AppData\Local\Temp\ccu9uHqG.s:2435   .text._ZN6tflite12_GLOBAL__N_14EvalEP13TfLiteContextP10TfLiteNode:00000a30 $d
C:\Users\a5050395\AppData\Local\Temp\ccu9uHqG.s:2458   .text._ZN6tflite12_GLOBAL__N_14EvalEP13TfLiteContextP10TfLiteNode:00000a34 $a
.ARM.extab.text._ZN6tflite12_GLOBAL__N_14EvalEP13TfLiteContextP10TfLiteNode:00000000 $d
.ARM.exidx.text._ZN6tflite12_GLOBAL__N_14EvalEP13TfLiteContextP10TfLiteNode:00000000 $d
C:\Users\a5050395\AppData\Local\Temp\ccu9uHqG.s:2881   .text._ZN6tflite16Register_CONV_2DEv:00000000 $a
C:\Users\a5050395\AppData\Local\Temp\ccu9uHqG.s:2887   .text._ZN6tflite16Register_CONV_2DEv:00000000 _ZN6tflite16Register_CONV_2DEv
C:\Users\a5050395\AppData\Local\Temp\ccu9uHqG.s:2923   .rodata:00000000 .LANCHOR1
.ARM.exidx.text._ZN6tflite16Register_CONV_2DEv:00000000 $d
C:\Users\a5050395\AppData\Local\Temp\ccu9uHqG.s:2922   .rodata:00000000 $d
C:\Users\a5050395\AppData\Local\Temp\ccu9uHqG.s:2934   .bss._ZN6tflite21reference_integer_opsL14drp_lib_statusE:00000000 $d
C:\Users\a5050395\AppData\Local\Temp\ccu9uHqG.s:2937   .bss._ZN6tflite21reference_integer_opsL14drp_lib_statusE:00000000 _ZN6tflite21reference_integer_opsL14drp_lib_statusE
C:\Users\a5050395\AppData\Local\Temp\ccu9uHqG.s:2940   .rodata._ZN6tflite12_GLOBAL__N_14EvalEP13TfLiteContextP10TfLiteNode.str1.4:00000000 $d
C:\Users\a5050395\AppData\Local\Temp\ccu9uHqG.s:2961   .rodata._ZN6tflite21reference_integer_ops14ConvPerChannelERKNS_10ConvParamsEPKlS5_RKNS_12RuntimeShapeEPKaS8_SA_S8_S5_S8_Pa.str1.4:00000000 $d
C:\Users\a5050395\AppData\Local\Temp\ccu9uHqG.s:2970   .rodata._ZZN8gemmlowp19RoundingDivideByPOTIlEET_S1_iE19__PRETTY_FUNCTION__:00000000 $d
C:\Users\a5050395\AppData\Local\Temp\ccu9uHqG.s:2974   .rodata._ZZN8gemmlowp19RoundingDivideByPOTIlEET_S1_iE19__PRETTY_FUNCTION__:00000000 _ZZN8gemmlowp19RoundingDivideByPOTIlEET_S1_iE19__PRETTY_FUNCTION__
                     .debug_frame:00000010 $d
                           .group:00000000 wm4.0.3e1481985cce1e923928453d8be0a65b
                           .group:00000000 wm4.cconfig.h.31.1472b8c7bd4952a63a52f3f4f718f872
                           .group:00000000 wm4.cpu_defines.h.31.54d44f9d3e7c42875c5a7fd49795eb93
                           .group:00000000 wm4.cconfig.h.515.5e729db314ae74226e291b4ae081e353
                           .group:00000000 wm4.stdint.h.4.659be5aa44c4ab4eb7c7cc2b24d8ceee
                           .group:00000000 wm4._newlib_version.h.4.3572908597b70d672d181fc7fc501c19
                           .group:00000000 wm4.features.h.33.7b36b8b41abe4293fbb29540b719705c
                           .group:00000000 wm4._default_types.h.15.247e5cd201eca3442cbf5404108c4935
                           .group:00000000 wm4._intsup.h.10.cce27fed8484c08a33f522034c30d2b5
                           .group:00000000 wm4._stdint.h.10.c24fa3af3bc1706662bb5593a907e841
                           .group:00000000 wm4.stdint.h.23.d53047a68f4a85177f80b422d52785ed
                           .group:00000000 wm4.stdbool.h.29.01580e438512fc255c0619569742ffd3
                           .group:00000000 wm4.stddef.h.39.fa2e86d241f4df50b9327c72832885e1
                           .group:00000000 wm4.c_api_types.h.20.9b09175981ed746180e205cc0b4b2bfd
                           .group:00000000 wm4.common.h.77.124de099ec0ac4f95ebf1618a5f42cf6
                           .group:00000000 wm4.concept_check.h.31.f19605d278e56917c68a56d378be308c
                           .group:00000000 wm4.type_traits.30.2c7323a483bcd7601e8b71d2546ae284
                           .group:00000000 wm4.move.h.152.41d7b9e6779674d169b7813982cfa003
                           .group:00000000 wm4.exception_defines.h.31.ca6841b9be3287386aafc5c717935b2e
                           .group:00000000 wm4.cpp_type_traits.h.33.9f2bfd8c4471a9a299f6da3ec24c745c
                           .group:00000000 wm4.numeric_traits.h.30.aa01a98564b7e55086aad9e53c7e5c53
                           .group:00000000 wm4.assertions.h.30.51d443923f0d242550e04246a7819b39
                           .group:00000000 wm4.stl_iterator.h.1250.45f349a262f1b0d836d8edbc4b7b98ff
                           .group:00000000 wm4.debug.h.30.5c1f223b12199e851d4d42805b788ccf
                           .group:00000000 wm4.stl_algobase.h.491.aa250b69c90aafa2a0a62b8c58cd5f30
                           .group:00000000 wm4.cstdlib.44.52c5efdfb0f3c176bd11e611a0b94959
                           .group:00000000 wm4.newlib.h.8.5f2124c7e712be65f83b91ff86a0b1c1
                           .group:00000000 wm4.config.h.219.65a553ab5bef5482f0d7880b0d33015e
                           .group:00000000 wm4._ansi.h.23.1ee1144430bedaab1a14c7b57a6c8384
                           .group:00000000 wm4.stdlib.h.13.4ed386f5c1a80d71e72172885d946ef2
                           .group:00000000 wm4.stddef.h.161.38688f2eb958a8ed58fdb61ffe554c94
                           .group:00000000 wm4.lock.h.2.1461d1fff82dffe8bfddc23307f6484f
                           .group:00000000 wm4._types.h.125.5cf8a495f1f7ef36777ad868a1e32068
                           .group:00000000 wm4.stddef.h.161.7e98c9c86da0ed2d27af2ef92af7d013
                           .group:00000000 wm4._types.h.183.c226d164ceca1f2ecb9ae9360c54a098
                           .group:00000000 wm4.reent.h.17.23b059516345f8f5abfa01ddc379570f
                           .group:00000000 wm4.cdefs.h.47.9bc8274c84fddbf05edd550eb0bf48cd
                           .group:00000000 wm4.stdlib.h.56.b4ddaf162082f284ba35b4444af99a9a
                           .group:00000000 wm4.cstdlib.76.ae666499c8f9b0ace1b4b23fe143da2c
                           .group:00000000 wm4.atomic_lockfree_defines.h.31.d5c6334fb1e95c9462b052951f1411df
                           .group:00000000 wm4.limits.38.55aefcf041805b6211ca3649dd2ab1b5
                           .group:00000000 wm4.string.h.8.c4b8571ce60dff2817f43fec8b86aecd
                           .group:00000000 wm4.cstring.45.6ab09de7fb97b576e744347688ddc8d7
                           .group:00000000 wm4.stdio.h.27.3fc80220048df77954e38daec3bb9670
                           .group:00000000 wm4.stdarg.h.34.3a23a216c0c293b3d2ea2e89281481e6
                           .group:00000000 wm4.types.h.40.e8c16e7ec36ba55f133d0616070e25fc
                           .group:00000000 wm4.types.h.114.fb65732f4f5f288a036a25898de2c91f
                           .group:00000000 wm4.stdio.h.2.4aa87247282eca6c8f36f9de33d8df1a
                           .group:00000000 wm4.stdio.h.81.7ccf35811a8d906c9cfd8de381f5758a
                           .group:00000000 wm4.cstdio.45.ba8d321feb18bfc8923454067605c368
                           .group:00000000 wm4.op_macros.h.42.7b718cb416a067e7bb07e7699647769b
                           .group:00000000 wm4.compatibility.h.23.702d6356326ea59aded8ef5c6c4626d5
                           .group:00000000 wm4.wchar.h.2.f837619576d797e948eb58c44fac4678
                           .group:00000000 wm4.stddef.h.161.9f48187563b2a85291a91832aa425498
                           .group:00000000 wm4.wchar.h.41.5fcdbd5b6b1cf85dc976edff28470d8f
                           .group:00000000 wm4.cwchar.48.c4e882638bf84f6da89479dda6fe8e17
                           .group:00000000 wm4.allocator.h.52.0ceafb36dc1b82dbfa6b05003082e3f5
                           .group:00000000 wm4.locale.h.8.27d0fe4c0abbb6f8893a1fa7c1799fd9
                           .group:00000000 wm4.locale.h.16.524572cf3c2ed9856516685acdc598fe
                           .group:00000000 wm4.clocale.45.c36d2d5b631a875aa5273176b54fdf0f
                           .group:00000000 wm4.ctype.h.2.da310d2ad165ccf8b86542f76fdb938d
                           .group:00000000 wm4.cctype.45.0da5714876b0be7f2d816b53d9670403
                           .group:00000000 wm4.gthr.h.27.ceb1c66b926f052afcba57e8784df0d4
                           .group:00000000 wm4.gthrdefault.h.27.edc94d4398c0534988962be77dc3c2e1
                           .group:00000000 wm4.atomic_word.h.30.9e0ac69fd462d5e650933e05133b4afa
                           .group:00000000 wm4.errno.h.2.ba016d646105af6cad23be83630b6a3f
                           .group:00000000 wm4.errno.h.9.1ecd7b1049497a0ab61da0f6cbd4b0c6
                           .group:00000000 wm4.functional_hash.h.31.bccc014fee6fc3f930045d809df6f486
                           .group:00000000 wm4.functional.549.0bc5b448cf999863d3841495cd6fe920
                           .group:00000000 wm4.assert.h.11.a5d97ca77559a42890313c4941c01fd9
                           .group:00000000 wm4.math.h.13.e7cbdea54f4da98ab8f7fad4d23502b2
                           .group:00000000 wm4.cmath.46.d6e5b776115d39075860ed881d18f087
                           .group:00000000 wm4.detect_platform.h.19.a1891273c0cad215067ddb8219400136
                           .group:00000000 wm4.fixedpoint.h.567.8a6371d9452be19811601bace78b0abc
                           .group:00000000 wm4.cmath.44.b3bcbb5fe53ec6617dec8aa8eb7b03cc
                           .group:00000000 wm4.cppmath.h.27.51580d700716589df4b364298e2ef577
                           .group:00000000 wm4.r_dk2_if.h.44.223150472df261837cef18980da84798
                           .group:00000000 wm4.r_typedefs.h.38.3b32591f3a0a8fe6de76e7165a8c2779
                           .group:00000000 wm4.driver.h.34.180df73e0731406f5e50150641059ede
                           .group:00000000 wm4.r_cache_lld_rza2m.h.47.60fd1c425e79f0ee4cd5b4a9383d982b
                           .group:00000000 wm4.conv.h.56.cd43a94c5581bcc61d7ba01dc0bd646d

UNDEFINED SYMBOLS
abort
__aeabi_unwind_cpp_pr0
__assert_func
__gxx_personality_v0
_ZN6tflite16kConvInputTensorE
_ZN6tflite18kConvWeightsTensorE
_ZN6tflite17kConvOutputTensorE
_ZN6tflite19ConvParamsQuantizedERK16TfLiteConvParamsRKNS_10OpDataConvE
_ZN6tflite5micro14GetTensorShapeEPK16TfLiteEvalTensor
_ZdaPv
TfLiteTypeGetName
_ZN6tflite15kConvBiasTensorE
_ZN6tflite15ConvParamsFloatERK16TfLiteConvParamsRKNS_10OpDataConvE
__cxa_end_cleanup
_ZN6tflite11ConvPrepareEP13TfLiteContextP10TfLiteNode
