   1              		.cpu cortex-a9
   2              		.eabi_attribute 28, 1
   3              		.eabi_attribute 20, 1
   4              		.eabi_attribute 21, 1
   5              		.eabi_attribute 23, 3
   6              		.eabi_attribute 24, 1
   7              		.eabi_attribute 25, 1
   8              		.eabi_attribute 26, 1
   9              		.eabi_attribute 30, 2
  10              		.eabi_attribute 34, 0
  11              		.eabi_attribute 18, 4
  12              		.file	"depth_to_space.cpp"
  13              		.text
  14              	.Ltext0:
  15              		.cfi_sections	.debug_frame
  16              		.global	__aeabi_idiv
  17              		.section	.text._ZN6tflite12_GLOBAL__N_17PrepareEP13TfLiteContextP10TfLiteNode,"ax",%progbits
  18              		.align	2
  19              		.syntax unified
  20              		.arm
  21              		.fpu neon
  23              	_ZN6tflite12_GLOBAL__N_17PrepareEP13TfLiteContextP10TfLiteNode:
  24              		.fnstart
  25              	.LFB914:
  26              		.file 1 "../src/tensorflow_lite/src/tensorflow/lite/micro/kernels/depth_to_space.cpp"
   1:../src/tensorflow_lite/src/tensorflow/lite/micro/kernels/depth_to_space.cpp **** /* Copyright 2021 The TensorFlow Authors. All Rights Reserved.
   2:../src/tensorflow_lite/src/tensorflow/lite/micro/kernels/depth_to_space.cpp **** 
   3:../src/tensorflow_lite/src/tensorflow/lite/micro/kernels/depth_to_space.cpp **** Licensed under the Apache License, Version 2.0 (the "License");
   4:../src/tensorflow_lite/src/tensorflow/lite/micro/kernels/depth_to_space.cpp **** you may not use this file except in compliance with the License.
   5:../src/tensorflow_lite/src/tensorflow/lite/micro/kernels/depth_to_space.cpp **** You may obtain a copy of the License at
   6:../src/tensorflow_lite/src/tensorflow/lite/micro/kernels/depth_to_space.cpp **** 
   7:../src/tensorflow_lite/src/tensorflow/lite/micro/kernels/depth_to_space.cpp ****     http://www.apache.org/licenses/LICENSE-2.0
   8:../src/tensorflow_lite/src/tensorflow/lite/micro/kernels/depth_to_space.cpp **** 
   9:../src/tensorflow_lite/src/tensorflow/lite/micro/kernels/depth_to_space.cpp **** Unless required by applicable law or agreed to in writing, software
  10:../src/tensorflow_lite/src/tensorflow/lite/micro/kernels/depth_to_space.cpp **** distributed under the License is distributed on an "AS IS" BASIS,
  11:../src/tensorflow_lite/src/tensorflow/lite/micro/kernels/depth_to_space.cpp **** WITHOUT WARRANTIES OR CONDITIONS OF ANY KIND, either express or implied.
  12:../src/tensorflow_lite/src/tensorflow/lite/micro/kernels/depth_to_space.cpp **** See the License for the specific language governing permissions and
  13:../src/tensorflow_lite/src/tensorflow/lite/micro/kernels/depth_to_space.cpp **** limitations under the License.
  14:../src/tensorflow_lite/src/tensorflow/lite/micro/kernels/depth_to_space.cpp **** ==============================================================================*/
  15:../src/tensorflow_lite/src/tensorflow/lite/micro/kernels/depth_to_space.cpp **** #include "tensorflow/lite/kernels/internal/reference/depth_to_space.h"
  16:../src/tensorflow_lite/src/tensorflow/lite/micro/kernels/depth_to_space.cpp **** 
  17:../src/tensorflow_lite/src/tensorflow/lite/micro/kernels/depth_to_space.cpp **** #include <stdint.h>
  18:../src/tensorflow_lite/src/tensorflow/lite/micro/kernels/depth_to_space.cpp **** 
  19:../src/tensorflow_lite/src/tensorflow/lite/micro/kernels/depth_to_space.cpp **** #include "tensorflow/lite/c/common.h"
  20:../src/tensorflow_lite/src/tensorflow/lite/micro/kernels/depth_to_space.cpp **** #include "tensorflow/lite/kernels/internal/types.h"
  21:../src/tensorflow_lite/src/tensorflow/lite/micro/kernels/depth_to_space.cpp **** #include "tensorflow/lite/kernels/kernel_util.h"
  22:../src/tensorflow_lite/src/tensorflow/lite/micro/kernels/depth_to_space.cpp **** #include "tensorflow/lite/micro/kernels/kernel_util.h"
  23:../src/tensorflow_lite/src/tensorflow/lite/micro/kernels/depth_to_space.cpp **** 
  24:../src/tensorflow_lite/src/tensorflow/lite/micro/kernels/depth_to_space.cpp **** namespace tflite {
  25:../src/tensorflow_lite/src/tensorflow/lite/micro/kernels/depth_to_space.cpp **** namespace {
  26:../src/tensorflow_lite/src/tensorflow/lite/micro/kernels/depth_to_space.cpp **** 
  27:../src/tensorflow_lite/src/tensorflow/lite/micro/kernels/depth_to_space.cpp **** constexpr int kInputTensor = 0;
  28:../src/tensorflow_lite/src/tensorflow/lite/micro/kernels/depth_to_space.cpp **** constexpr int kOutputTensor = 0;
  29:../src/tensorflow_lite/src/tensorflow/lite/micro/kernels/depth_to_space.cpp **** 
  30:../src/tensorflow_lite/src/tensorflow/lite/micro/kernels/depth_to_space.cpp **** // input/output tensor shape rank associations
  31:../src/tensorflow_lite/src/tensorflow/lite/micro/kernels/depth_to_space.cpp **** constexpr int kBatchRank = 0;
  32:../src/tensorflow_lite/src/tensorflow/lite/micro/kernels/depth_to_space.cpp **** constexpr int kHeightRank = 1;
  33:../src/tensorflow_lite/src/tensorflow/lite/micro/kernels/depth_to_space.cpp **** constexpr int kWidthRank = 2;
  34:../src/tensorflow_lite/src/tensorflow/lite/micro/kernels/depth_to_space.cpp **** constexpr int kDepthRank = 3;
  35:../src/tensorflow_lite/src/tensorflow/lite/micro/kernels/depth_to_space.cpp **** 
  36:../src/tensorflow_lite/src/tensorflow/lite/micro/kernels/depth_to_space.cpp **** TfLiteStatus CalculateOpData(TfLiteContext* context, TfLiteNode* node) {
  37:../src/tensorflow_lite/src/tensorflow/lite/micro/kernels/depth_to_space.cpp ****   auto* params =
  38:../src/tensorflow_lite/src/tensorflow/lite/micro/kernels/depth_to_space.cpp ****       reinterpret_cast<TfLiteDepthToSpaceParams*>(node->builtin_data);
  39:../src/tensorflow_lite/src/tensorflow/lite/micro/kernels/depth_to_space.cpp **** 
  40:../src/tensorflow_lite/src/tensorflow/lite/micro/kernels/depth_to_space.cpp ****   TF_LITE_ENSURE_EQ(context, NumInputs(node), 1);
  41:../src/tensorflow_lite/src/tensorflow/lite/micro/kernels/depth_to_space.cpp ****   TF_LITE_ENSURE_EQ(context, NumOutputs(node), 1);
  42:../src/tensorflow_lite/src/tensorflow/lite/micro/kernels/depth_to_space.cpp **** 
  43:../src/tensorflow_lite/src/tensorflow/lite/micro/kernels/depth_to_space.cpp ****   const TfLiteTensor* input;
  44:../src/tensorflow_lite/src/tensorflow/lite/micro/kernels/depth_to_space.cpp ****   TF_LITE_ENSURE_OK(context, GetInputSafe(context, node, kInputTensor, &input));
  45:../src/tensorflow_lite/src/tensorflow/lite/micro/kernels/depth_to_space.cpp ****   TfLiteTensor* output;
  46:../src/tensorflow_lite/src/tensorflow/lite/micro/kernels/depth_to_space.cpp ****   TF_LITE_ENSURE_OK(context,
  47:../src/tensorflow_lite/src/tensorflow/lite/micro/kernels/depth_to_space.cpp ****                     GetOutputSafe(context, node, kOutputTensor, &output));
  48:../src/tensorflow_lite/src/tensorflow/lite/micro/kernels/depth_to_space.cpp **** 
  49:../src/tensorflow_lite/src/tensorflow/lite/micro/kernels/depth_to_space.cpp ****   TF_LITE_ENSURE_EQ(context, NumDimensions(input), 4);
  50:../src/tensorflow_lite/src/tensorflow/lite/micro/kernels/depth_to_space.cpp **** 
  51:../src/tensorflow_lite/src/tensorflow/lite/micro/kernels/depth_to_space.cpp ****   auto data_type = output->type;
  52:../src/tensorflow_lite/src/tensorflow/lite/micro/kernels/depth_to_space.cpp ****   TF_LITE_ENSURE(context,
  53:../src/tensorflow_lite/src/tensorflow/lite/micro/kernels/depth_to_space.cpp ****                  data_type == kTfLiteFloat32 || data_type == kTfLiteInt8);
  54:../src/tensorflow_lite/src/tensorflow/lite/micro/kernels/depth_to_space.cpp ****   TF_LITE_ENSURE_TYPES_EQ(context, input->type, output->type);
  55:../src/tensorflow_lite/src/tensorflow/lite/micro/kernels/depth_to_space.cpp **** 
  56:../src/tensorflow_lite/src/tensorflow/lite/micro/kernels/depth_to_space.cpp ****   const int block_size = params->block_size;
  57:../src/tensorflow_lite/src/tensorflow/lite/micro/kernels/depth_to_space.cpp ****   TF_LITE_ENSURE(context, block_size > 0);
  58:../src/tensorflow_lite/src/tensorflow/lite/micro/kernels/depth_to_space.cpp ****   const int input_height = input->dims->data[kHeightRank];
  59:../src/tensorflow_lite/src/tensorflow/lite/micro/kernels/depth_to_space.cpp ****   const int input_width = input->dims->data[kWidthRank];
  60:../src/tensorflow_lite/src/tensorflow/lite/micro/kernels/depth_to_space.cpp ****   const int input_channels = input->dims->data[kDepthRank];
  61:../src/tensorflow_lite/src/tensorflow/lite/micro/kernels/depth_to_space.cpp ****   int output_height = input_height * block_size;
  62:../src/tensorflow_lite/src/tensorflow/lite/micro/kernels/depth_to_space.cpp ****   int output_width = input_width * block_size;
  63:../src/tensorflow_lite/src/tensorflow/lite/micro/kernels/depth_to_space.cpp ****   int output_channels = input_channels / block_size / block_size;
  64:../src/tensorflow_lite/src/tensorflow/lite/micro/kernels/depth_to_space.cpp **** 
  65:../src/tensorflow_lite/src/tensorflow/lite/micro/kernels/depth_to_space.cpp ****   TF_LITE_ENSURE_EQ(context, input_height, output_height / block_size);
  66:../src/tensorflow_lite/src/tensorflow/lite/micro/kernels/depth_to_space.cpp ****   TF_LITE_ENSURE_EQ(context, input_width, output_width / block_size);
  67:../src/tensorflow_lite/src/tensorflow/lite/micro/kernels/depth_to_space.cpp ****   TF_LITE_ENSURE_EQ(context, input_channels,
  68:../src/tensorflow_lite/src/tensorflow/lite/micro/kernels/depth_to_space.cpp ****                     output_channels * block_size * block_size);
  69:../src/tensorflow_lite/src/tensorflow/lite/micro/kernels/depth_to_space.cpp **** 
  70:../src/tensorflow_lite/src/tensorflow/lite/micro/kernels/depth_to_space.cpp ****   // We must update the output tensor dimensions.
  71:../src/tensorflow_lite/src/tensorflow/lite/micro/kernels/depth_to_space.cpp ****   // The dims storage is expected to be the same area in memory
  72:../src/tensorflow_lite/src/tensorflow/lite/micro/kernels/depth_to_space.cpp ****   // for both TfLiteTensor and TfLiteEvalTensor.  This is important
  73:../src/tensorflow_lite/src/tensorflow/lite/micro/kernels/depth_to_space.cpp ****   // because TfLiteTensor in the MicroInterpreter is a temporary
  74:../src/tensorflow_lite/src/tensorflow/lite/micro/kernels/depth_to_space.cpp ****   // allocation.  For the KernelRunner interpreter, TfLiteEvalTensor
  75:../src/tensorflow_lite/src/tensorflow/lite/micro/kernels/depth_to_space.cpp ****   // is a temporary allocation.  We must therefore relocate the dims
  76:../src/tensorflow_lite/src/tensorflow/lite/micro/kernels/depth_to_space.cpp ****   // from the FlatBuffer to the persistant storage arena.
  77:../src/tensorflow_lite/src/tensorflow/lite/micro/kernels/depth_to_space.cpp ****   TfLiteEvalTensor* output_eval =
  78:../src/tensorflow_lite/src/tensorflow/lite/micro/kernels/depth_to_space.cpp ****       tflite::micro::GetEvalOutput(context, node, kOutputTensor);
  79:../src/tensorflow_lite/src/tensorflow/lite/micro/kernels/depth_to_space.cpp ****   TF_LITE_ENSURE_OK(context, tflite::micro::CreateWritableTensorDimsWithCopy(
  80:../src/tensorflow_lite/src/tensorflow/lite/micro/kernels/depth_to_space.cpp ****                                  context, output, output_eval));
  81:../src/tensorflow_lite/src/tensorflow/lite/micro/kernels/depth_to_space.cpp ****   output->dims->data[kBatchRank] = input->dims->data[kBatchRank];
  82:../src/tensorflow_lite/src/tensorflow/lite/micro/kernels/depth_to_space.cpp ****   output->dims->data[kHeightRank] = output_height;
  83:../src/tensorflow_lite/src/tensorflow/lite/micro/kernels/depth_to_space.cpp ****   output->dims->data[kWidthRank] = output_width;
  84:../src/tensorflow_lite/src/tensorflow/lite/micro/kernels/depth_to_space.cpp ****   output->dims->data[kDepthRank] = output_channels;
  85:../src/tensorflow_lite/src/tensorflow/lite/micro/kernels/depth_to_space.cpp **** 
  86:../src/tensorflow_lite/src/tensorflow/lite/micro/kernels/depth_to_space.cpp ****   return kTfLiteOk;
  87:../src/tensorflow_lite/src/tensorflow/lite/micro/kernels/depth_to_space.cpp **** }
  88:../src/tensorflow_lite/src/tensorflow/lite/micro/kernels/depth_to_space.cpp **** 
  89:../src/tensorflow_lite/src/tensorflow/lite/micro/kernels/depth_to_space.cpp **** TfLiteStatus Prepare(TfLiteContext* context, TfLiteNode* node) {
  27              		.loc 1 89 0
  28              		.cfi_startproc
  29              		@ args = 0, pretend = 0, frame = 8
  30              		@ frame_needed = 0, uses_anonymous_args = 0
  31              	.LVL0:
  32              	.LBB141:
  33              	.LBB142:
  34              	.LBB143:
  35              	.LBB144:
  36              		.file 2 "C:/Renesas/e2studio_2021_01_workspace_RZA2M_ANPR/ANPR_RZA2M_GR_MANGO/src/tensorflow_lite/
   1:C:/Renesas/e2studio_2021_01_workspace_RZA2M_ANPR/ANPR_RZA2M_GR_MANGO/src/tensorflow_lite/src/tensorflow/lite/kernels\kernel_util.h **** /* Copyright 2017 The TensorFlow Authors. All Rights Reserved.
   2:C:/Renesas/e2studio_2021_01_workspace_RZA2M_ANPR/ANPR_RZA2M_GR_MANGO/src/tensorflow_lite/src/tensorflow/lite/kernels\kernel_util.h **** 
   3:C:/Renesas/e2studio_2021_01_workspace_RZA2M_ANPR/ANPR_RZA2M_GR_MANGO/src/tensorflow_lite/src/tensorflow/lite/kernels\kernel_util.h **** Licensed under the Apache License, Version 2.0 (the "License");
   4:C:/Renesas/e2studio_2021_01_workspace_RZA2M_ANPR/ANPR_RZA2M_GR_MANGO/src/tensorflow_lite/src/tensorflow/lite/kernels\kernel_util.h **** you may not use this file except in compliance with the License.
   5:C:/Renesas/e2studio_2021_01_workspace_RZA2M_ANPR/ANPR_RZA2M_GR_MANGO/src/tensorflow_lite/src/tensorflow/lite/kernels\kernel_util.h **** You may obtain a copy of the License at
   6:C:/Renesas/e2studio_2021_01_workspace_RZA2M_ANPR/ANPR_RZA2M_GR_MANGO/src/tensorflow_lite/src/tensorflow/lite/kernels\kernel_util.h **** 
   7:C:/Renesas/e2studio_2021_01_workspace_RZA2M_ANPR/ANPR_RZA2M_GR_MANGO/src/tensorflow_lite/src/tensorflow/lite/kernels\kernel_util.h ****     http://www.apache.org/licenses/LICENSE-2.0
   8:C:/Renesas/e2studio_2021_01_workspace_RZA2M_ANPR/ANPR_RZA2M_GR_MANGO/src/tensorflow_lite/src/tensorflow/lite/kernels\kernel_util.h **** 
   9:C:/Renesas/e2studio_2021_01_workspace_RZA2M_ANPR/ANPR_RZA2M_GR_MANGO/src/tensorflow_lite/src/tensorflow/lite/kernels\kernel_util.h **** Unless required by applicable law or agreed to in writing, software
  10:C:/Renesas/e2studio_2021_01_workspace_RZA2M_ANPR/ANPR_RZA2M_GR_MANGO/src/tensorflow_lite/src/tensorflow/lite/kernels\kernel_util.h **** distributed under the License is distributed on an "AS IS" BASIS,
  11:C:/Renesas/e2studio_2021_01_workspace_RZA2M_ANPR/ANPR_RZA2M_GR_MANGO/src/tensorflow_lite/src/tensorflow/lite/kernels\kernel_util.h **** WITHOUT WARRANTIES OR CONDITIONS OF ANY KIND, either express or implied.
  12:C:/Renesas/e2studio_2021_01_workspace_RZA2M_ANPR/ANPR_RZA2M_GR_MANGO/src/tensorflow_lite/src/tensorflow/lite/kernels\kernel_util.h **** See the License for the specific language governing permissions and
  13:C:/Renesas/e2studio_2021_01_workspace_RZA2M_ANPR/ANPR_RZA2M_GR_MANGO/src/tensorflow_lite/src/tensorflow/lite/kernels\kernel_util.h **** limitations under the License.
  14:C:/Renesas/e2studio_2021_01_workspace_RZA2M_ANPR/ANPR_RZA2M_GR_MANGO/src/tensorflow_lite/src/tensorflow/lite/kernels\kernel_util.h **** ==============================================================================*/
  15:C:/Renesas/e2studio_2021_01_workspace_RZA2M_ANPR/ANPR_RZA2M_GR_MANGO/src/tensorflow_lite/src/tensorflow/lite/kernels\kernel_util.h **** #ifndef TENSORFLOW_LITE_KERNELS_KERNEL_UTIL_H_
  16:C:/Renesas/e2studio_2021_01_workspace_RZA2M_ANPR/ANPR_RZA2M_GR_MANGO/src/tensorflow_lite/src/tensorflow/lite/kernels\kernel_util.h **** #define TENSORFLOW_LITE_KERNELS_KERNEL_UTIL_H_
  17:C:/Renesas/e2studio_2021_01_workspace_RZA2M_ANPR/ANPR_RZA2M_GR_MANGO/src/tensorflow_lite/src/tensorflow/lite/kernels\kernel_util.h **** 
  18:C:/Renesas/e2studio_2021_01_workspace_RZA2M_ANPR/ANPR_RZA2M_GR_MANGO/src/tensorflow_lite/src/tensorflow/lite/kernels\kernel_util.h **** #include <stdint.h>
  19:C:/Renesas/e2studio_2021_01_workspace_RZA2M_ANPR/ANPR_RZA2M_GR_MANGO/src/tensorflow_lite/src/tensorflow/lite/kernels\kernel_util.h **** 
  20:C:/Renesas/e2studio_2021_01_workspace_RZA2M_ANPR/ANPR_RZA2M_GR_MANGO/src/tensorflow_lite/src/tensorflow/lite/kernels\kernel_util.h **** #include <limits>
  21:C:/Renesas/e2studio_2021_01_workspace_RZA2M_ANPR/ANPR_RZA2M_GR_MANGO/src/tensorflow_lite/src/tensorflow/lite/kernels\kernel_util.h **** 
  22:C:/Renesas/e2studio_2021_01_workspace_RZA2M_ANPR/ANPR_RZA2M_GR_MANGO/src/tensorflow_lite/src/tensorflow/lite/kernels\kernel_util.h **** #include "tensorflow/lite/c/builtin_op_data.h"
  23:C:/Renesas/e2studio_2021_01_workspace_RZA2M_ANPR/ANPR_RZA2M_GR_MANGO/src/tensorflow_lite/src/tensorflow/lite/kernels\kernel_util.h **** #include "tensorflow/lite/c/common.h"
  24:C:/Renesas/e2studio_2021_01_workspace_RZA2M_ANPR/ANPR_RZA2M_GR_MANGO/src/tensorflow_lite/src/tensorflow/lite/kernels\kernel_util.h **** 
  25:C:/Renesas/e2studio_2021_01_workspace_RZA2M_ANPR/ANPR_RZA2M_GR_MANGO/src/tensorflow_lite/src/tensorflow/lite/kernels\kernel_util.h **** namespace tflite {
  26:C:/Renesas/e2studio_2021_01_workspace_RZA2M_ANPR/ANPR_RZA2M_GR_MANGO/src/tensorflow_lite/src/tensorflow/lite/kernels\kernel_util.h **** 
  27:C:/Renesas/e2studio_2021_01_workspace_RZA2M_ANPR/ANPR_RZA2M_GR_MANGO/src/tensorflow_lite/src/tensorflow/lite/kernels\kernel_util.h **** // A fair number of functions in this header have historically been inline.
  28:C:/Renesas/e2studio_2021_01_workspace_RZA2M_ANPR/ANPR_RZA2M_GR_MANGO/src/tensorflow_lite/src/tensorflow/lite/kernels\kernel_util.h **** // It is ok to change functions to not be inline if the latency with
  29:C:/Renesas/e2studio_2021_01_workspace_RZA2M_ANPR/ANPR_RZA2M_GR_MANGO/src/tensorflow_lite/src/tensorflow/lite/kernels\kernel_util.h **** // benchmark_model for MobileNet + MobileBERT is unaffected. If such a change is
  30:C:/Renesas/e2studio_2021_01_workspace_RZA2M_ANPR/ANPR_RZA2M_GR_MANGO/src/tensorflow_lite/src/tensorflow/lite/kernels\kernel_util.h **** // made, move the newly non-inlined function declarations to the top of this
  31:C:/Renesas/e2studio_2021_01_workspace_RZA2M_ANPR/ANPR_RZA2M_GR_MANGO/src/tensorflow_lite/src/tensorflow/lite/kernels\kernel_util.h **** // header file.
  32:C:/Renesas/e2studio_2021_01_workspace_RZA2M_ANPR/ANPR_RZA2M_GR_MANGO/src/tensorflow_lite/src/tensorflow/lite/kernels\kernel_util.h **** 
  33:C:/Renesas/e2studio_2021_01_workspace_RZA2M_ANPR/ANPR_RZA2M_GR_MANGO/src/tensorflow_lite/src/tensorflow/lite/kernels\kernel_util.h **** // Note: You must check if result is not null:
  34:C:/Renesas/e2studio_2021_01_workspace_RZA2M_ANPR/ANPR_RZA2M_GR_MANGO/src/tensorflow_lite/src/tensorflow/lite/kernels\kernel_util.h **** //
  35:C:/Renesas/e2studio_2021_01_workspace_RZA2M_ANPR/ANPR_RZA2M_GR_MANGO/src/tensorflow_lite/src/tensorflow/lite/kernels\kernel_util.h **** //   TfLiteTensor* my_tensor = GetInput(context, node, kMyTensorIdx);
  36:C:/Renesas/e2studio_2021_01_workspace_RZA2M_ANPR/ANPR_RZA2M_GR_MANGO/src/tensorflow_lite/src/tensorflow/lite/kernels\kernel_util.h **** //   TF_LITE_ENSURE(context, my_tensor != nullptr);
  37:C:/Renesas/e2studio_2021_01_workspace_RZA2M_ANPR/ANPR_RZA2M_GR_MANGO/src/tensorflow_lite/src/tensorflow/lite/kernels\kernel_util.h **** //
  38:C:/Renesas/e2studio_2021_01_workspace_RZA2M_ANPR/ANPR_RZA2M_GR_MANGO/src/tensorflow_lite/src/tensorflow/lite/kernels\kernel_util.h **** // This is because the index might point to the optional tensor constant
  39:C:/Renesas/e2studio_2021_01_workspace_RZA2M_ANPR/ANPR_RZA2M_GR_MANGO/src/tensorflow_lite/src/tensorflow/lite/kernels\kernel_util.h **** // (kTfLiteOptionalTensor) in which case there is no tensor to return.
  40:C:/Renesas/e2studio_2021_01_workspace_RZA2M_ANPR/ANPR_RZA2M_GR_MANGO/src/tensorflow_lite/src/tensorflow/lite/kernels\kernel_util.h **** const TfLiteTensor* GetInput(const TfLiteContext* context,
  41:C:/Renesas/e2studio_2021_01_workspace_RZA2M_ANPR/ANPR_RZA2M_GR_MANGO/src/tensorflow_lite/src/tensorflow/lite/kernels\kernel_util.h ****                              const TfLiteNode* node, int index);
  42:C:/Renesas/e2studio_2021_01_workspace_RZA2M_ANPR/ANPR_RZA2M_GR_MANGO/src/tensorflow_lite/src/tensorflow/lite/kernels\kernel_util.h **** 
  43:C:/Renesas/e2studio_2021_01_workspace_RZA2M_ANPR/ANPR_RZA2M_GR_MANGO/src/tensorflow_lite/src/tensorflow/lite/kernels\kernel_util.h **** // Same as `GetInput` but returns boolean and uses output argument for tensor.
  44:C:/Renesas/e2studio_2021_01_workspace_RZA2M_ANPR/ANPR_RZA2M_GR_MANGO/src/tensorflow_lite/src/tensorflow/lite/kernels\kernel_util.h **** //
  45:C:/Renesas/e2studio_2021_01_workspace_RZA2M_ANPR/ANPR_RZA2M_GR_MANGO/src/tensorflow_lite/src/tensorflow/lite/kernels\kernel_util.h **** //   TfLiteTensor* my_tensor;
  46:C:/Renesas/e2studio_2021_01_workspace_RZA2M_ANPR/ANPR_RZA2M_GR_MANGO/src/tensorflow_lite/src/tensorflow/lite/kernels\kernel_util.h **** //   TF_LITE_ENSURE_OK(context,
  47:C:/Renesas/e2studio_2021_01_workspace_RZA2M_ANPR/ANPR_RZA2M_GR_MANGO/src/tensorflow_lite/src/tensorflow/lite/kernels\kernel_util.h **** //                     GetInputSafe(context, node, kMyTensorIdx, &my_tensor));
  48:C:/Renesas/e2studio_2021_01_workspace_RZA2M_ANPR/ANPR_RZA2M_GR_MANGO/src/tensorflow_lite/src/tensorflow/lite/kernels\kernel_util.h **** //   // can use my_tensor directly from here onwards, it is not nullptr
  49:C:/Renesas/e2studio_2021_01_workspace_RZA2M_ANPR/ANPR_RZA2M_GR_MANGO/src/tensorflow_lite/src/tensorflow/lite/kernels\kernel_util.h **** //
  50:C:/Renesas/e2studio_2021_01_workspace_RZA2M_ANPR/ANPR_RZA2M_GR_MANGO/src/tensorflow_lite/src/tensorflow/lite/kernels\kernel_util.h **** // Should be used in cases where the binary size is too large.
  51:C:/Renesas/e2studio_2021_01_workspace_RZA2M_ANPR/ANPR_RZA2M_GR_MANGO/src/tensorflow_lite/src/tensorflow/lite/kernels\kernel_util.h **** TfLiteStatus GetInputSafe(const TfLiteContext* context, const TfLiteNode* node,
  52:C:/Renesas/e2studio_2021_01_workspace_RZA2M_ANPR/ANPR_RZA2M_GR_MANGO/src/tensorflow_lite/src/tensorflow/lite/kernels\kernel_util.h ****                           int index, const TfLiteTensor** tensor);
  53:C:/Renesas/e2studio_2021_01_workspace_RZA2M_ANPR/ANPR_RZA2M_GR_MANGO/src/tensorflow_lite/src/tensorflow/lite/kernels\kernel_util.h **** 
  54:C:/Renesas/e2studio_2021_01_workspace_RZA2M_ANPR/ANPR_RZA2M_GR_MANGO/src/tensorflow_lite/src/tensorflow/lite/kernels\kernel_util.h **** // Note: You must check if result is not null:
  55:C:/Renesas/e2studio_2021_01_workspace_RZA2M_ANPR/ANPR_RZA2M_GR_MANGO/src/tensorflow_lite/src/tensorflow/lite/kernels\kernel_util.h **** //
  56:C:/Renesas/e2studio_2021_01_workspace_RZA2M_ANPR/ANPR_RZA2M_GR_MANGO/src/tensorflow_lite/src/tensorflow/lite/kernels\kernel_util.h **** //   TfLiteTensor* my_tensor = GetVariableInput(context, node, kMyTensorIdx);
  57:C:/Renesas/e2studio_2021_01_workspace_RZA2M_ANPR/ANPR_RZA2M_GR_MANGO/src/tensorflow_lite/src/tensorflow/lite/kernels\kernel_util.h **** //   TF_LITE_ENSURE(context, my_tensor != nullptr);
  58:C:/Renesas/e2studio_2021_01_workspace_RZA2M_ANPR/ANPR_RZA2M_GR_MANGO/src/tensorflow_lite/src/tensorflow/lite/kernels\kernel_util.h **** //
  59:C:/Renesas/e2studio_2021_01_workspace_RZA2M_ANPR/ANPR_RZA2M_GR_MANGO/src/tensorflow_lite/src/tensorflow/lite/kernels\kernel_util.h **** // This is because the index might point to the optional tensor constant
  60:C:/Renesas/e2studio_2021_01_workspace_RZA2M_ANPR/ANPR_RZA2M_GR_MANGO/src/tensorflow_lite/src/tensorflow/lite/kernels\kernel_util.h **** // (kTfLiteOptionalTensor) in which case there is no tensor to return.
  61:C:/Renesas/e2studio_2021_01_workspace_RZA2M_ANPR/ANPR_RZA2M_GR_MANGO/src/tensorflow_lite/src/tensorflow/lite/kernels\kernel_util.h **** TfLiteTensor* GetVariableInput(TfLiteContext* context, const TfLiteNode* node,
  62:C:/Renesas/e2studio_2021_01_workspace_RZA2M_ANPR/ANPR_RZA2M_GR_MANGO/src/tensorflow_lite/src/tensorflow/lite/kernels\kernel_util.h ****                                int index);
  63:C:/Renesas/e2studio_2021_01_workspace_RZA2M_ANPR/ANPR_RZA2M_GR_MANGO/src/tensorflow_lite/src/tensorflow/lite/kernels\kernel_util.h **** 
  64:C:/Renesas/e2studio_2021_01_workspace_RZA2M_ANPR/ANPR_RZA2M_GR_MANGO/src/tensorflow_lite/src/tensorflow/lite/kernels\kernel_util.h **** // Note: You must check if result is not null:
  65:C:/Renesas/e2studio_2021_01_workspace_RZA2M_ANPR/ANPR_RZA2M_GR_MANGO/src/tensorflow_lite/src/tensorflow/lite/kernels\kernel_util.h **** //
  66:C:/Renesas/e2studio_2021_01_workspace_RZA2M_ANPR/ANPR_RZA2M_GR_MANGO/src/tensorflow_lite/src/tensorflow/lite/kernels\kernel_util.h **** //   TfLiteTensor* my_tensor = GetOutput(context, node, kMyTensorIdx);
  67:C:/Renesas/e2studio_2021_01_workspace_RZA2M_ANPR/ANPR_RZA2M_GR_MANGO/src/tensorflow_lite/src/tensorflow/lite/kernels\kernel_util.h **** //   TF_LITE_ENSURE(context, my_tensor != nullptr);
  68:C:/Renesas/e2studio_2021_01_workspace_RZA2M_ANPR/ANPR_RZA2M_GR_MANGO/src/tensorflow_lite/src/tensorflow/lite/kernels\kernel_util.h **** //
  69:C:/Renesas/e2studio_2021_01_workspace_RZA2M_ANPR/ANPR_RZA2M_GR_MANGO/src/tensorflow_lite/src/tensorflow/lite/kernels\kernel_util.h **** // This is because the index might point to the optional tensor constant
  70:C:/Renesas/e2studio_2021_01_workspace_RZA2M_ANPR/ANPR_RZA2M_GR_MANGO/src/tensorflow_lite/src/tensorflow/lite/kernels\kernel_util.h **** // (kTfLiteOptionalTensor) in which case there is no tensor to return.
  71:C:/Renesas/e2studio_2021_01_workspace_RZA2M_ANPR/ANPR_RZA2M_GR_MANGO/src/tensorflow_lite/src/tensorflow/lite/kernels\kernel_util.h **** TfLiteTensor* GetOutput(TfLiteContext* context, const TfLiteNode* node,
  72:C:/Renesas/e2studio_2021_01_workspace_RZA2M_ANPR/ANPR_RZA2M_GR_MANGO/src/tensorflow_lite/src/tensorflow/lite/kernels\kernel_util.h ****                         int index);
  73:C:/Renesas/e2studio_2021_01_workspace_RZA2M_ANPR/ANPR_RZA2M_GR_MANGO/src/tensorflow_lite/src/tensorflow/lite/kernels\kernel_util.h **** 
  74:C:/Renesas/e2studio_2021_01_workspace_RZA2M_ANPR/ANPR_RZA2M_GR_MANGO/src/tensorflow_lite/src/tensorflow/lite/kernels\kernel_util.h **** // Same as `GetOutput` but returns boolean and uses output argument for tensor.
  75:C:/Renesas/e2studio_2021_01_workspace_RZA2M_ANPR/ANPR_RZA2M_GR_MANGO/src/tensorflow_lite/src/tensorflow/lite/kernels\kernel_util.h **** //
  76:C:/Renesas/e2studio_2021_01_workspace_RZA2M_ANPR/ANPR_RZA2M_GR_MANGO/src/tensorflow_lite/src/tensorflow/lite/kernels\kernel_util.h **** //   TfLiteTensor* my_tensor;
  77:C:/Renesas/e2studio_2021_01_workspace_RZA2M_ANPR/ANPR_RZA2M_GR_MANGO/src/tensorflow_lite/src/tensorflow/lite/kernels\kernel_util.h **** //   TF_LITE_ENSURE_OK(context,
  78:C:/Renesas/e2studio_2021_01_workspace_RZA2M_ANPR/ANPR_RZA2M_GR_MANGO/src/tensorflow_lite/src/tensorflow/lite/kernels\kernel_util.h **** //                     GetOutputSafe(context, node, kMyTensorIdx, &my_tensor));
  79:C:/Renesas/e2studio_2021_01_workspace_RZA2M_ANPR/ANPR_RZA2M_GR_MANGO/src/tensorflow_lite/src/tensorflow/lite/kernels\kernel_util.h **** //   // can use my_tensor directly from here onwards, it is not nullptr
  80:C:/Renesas/e2studio_2021_01_workspace_RZA2M_ANPR/ANPR_RZA2M_GR_MANGO/src/tensorflow_lite/src/tensorflow/lite/kernels\kernel_util.h **** //
  81:C:/Renesas/e2studio_2021_01_workspace_RZA2M_ANPR/ANPR_RZA2M_GR_MANGO/src/tensorflow_lite/src/tensorflow/lite/kernels\kernel_util.h **** // Should be used in cases where the binary size is too large.
  82:C:/Renesas/e2studio_2021_01_workspace_RZA2M_ANPR/ANPR_RZA2M_GR_MANGO/src/tensorflow_lite/src/tensorflow/lite/kernels\kernel_util.h **** TfLiteStatus GetOutputSafe(const TfLiteContext* context, const TfLiteNode* node,
  83:C:/Renesas/e2studio_2021_01_workspace_RZA2M_ANPR/ANPR_RZA2M_GR_MANGO/src/tensorflow_lite/src/tensorflow/lite/kernels\kernel_util.h ****                            int index, TfLiteTensor** tensor);
  84:C:/Renesas/e2studio_2021_01_workspace_RZA2M_ANPR/ANPR_RZA2M_GR_MANGO/src/tensorflow_lite/src/tensorflow/lite/kernels\kernel_util.h **** 
  85:C:/Renesas/e2studio_2021_01_workspace_RZA2M_ANPR/ANPR_RZA2M_GR_MANGO/src/tensorflow_lite/src/tensorflow/lite/kernels\kernel_util.h **** // Note: You must check if result is not null:
  86:C:/Renesas/e2studio_2021_01_workspace_RZA2M_ANPR/ANPR_RZA2M_GR_MANGO/src/tensorflow_lite/src/tensorflow/lite/kernels\kernel_util.h **** //
  87:C:/Renesas/e2studio_2021_01_workspace_RZA2M_ANPR/ANPR_RZA2M_GR_MANGO/src/tensorflow_lite/src/tensorflow/lite/kernels\kernel_util.h **** //   TfLiteTensor* my_tensor = GetOptionalInputTensor(context, node, kIdx);
  88:C:/Renesas/e2studio_2021_01_workspace_RZA2M_ANPR/ANPR_RZA2M_GR_MANGO/src/tensorflow_lite/src/tensorflow/lite/kernels\kernel_util.h **** //   TF_LITE_ENSURE(context, my_tensor != nullptr);
  89:C:/Renesas/e2studio_2021_01_workspace_RZA2M_ANPR/ANPR_RZA2M_GR_MANGO/src/tensorflow_lite/src/tensorflow/lite/kernels\kernel_util.h **** //
  90:C:/Renesas/e2studio_2021_01_workspace_RZA2M_ANPR/ANPR_RZA2M_GR_MANGO/src/tensorflow_lite/src/tensorflow/lite/kernels\kernel_util.h **** // This is because the index might point to the optional tensor constant
  91:C:/Renesas/e2studio_2021_01_workspace_RZA2M_ANPR/ANPR_RZA2M_GR_MANGO/src/tensorflow_lite/src/tensorflow/lite/kernels\kernel_util.h **** // (kTfLiteOptionalTensor) in which case there is no tensor to return.
  92:C:/Renesas/e2studio_2021_01_workspace_RZA2M_ANPR/ANPR_RZA2M_GR_MANGO/src/tensorflow_lite/src/tensorflow/lite/kernels\kernel_util.h **** //
  93:C:/Renesas/e2studio_2021_01_workspace_RZA2M_ANPR/ANPR_RZA2M_GR_MANGO/src/tensorflow_lite/src/tensorflow/lite/kernels\kernel_util.h **** // Deprecated. GetInput has the same functionality.
  94:C:/Renesas/e2studio_2021_01_workspace_RZA2M_ANPR/ANPR_RZA2M_GR_MANGO/src/tensorflow_lite/src/tensorflow/lite/kernels\kernel_util.h **** const TfLiteTensor* GetOptionalInputTensor(const TfLiteContext* context,
  95:C:/Renesas/e2studio_2021_01_workspace_RZA2M_ANPR/ANPR_RZA2M_GR_MANGO/src/tensorflow_lite/src/tensorflow/lite/kernels\kernel_util.h ****                                            const TfLiteNode* node, int index);
  96:C:/Renesas/e2studio_2021_01_workspace_RZA2M_ANPR/ANPR_RZA2M_GR_MANGO/src/tensorflow_lite/src/tensorflow/lite/kernels\kernel_util.h **** 
  97:C:/Renesas/e2studio_2021_01_workspace_RZA2M_ANPR/ANPR_RZA2M_GR_MANGO/src/tensorflow_lite/src/tensorflow/lite/kernels\kernel_util.h **** #ifndef TF_LITE_STATIC_MEMORY
  98:C:/Renesas/e2studio_2021_01_workspace_RZA2M_ANPR/ANPR_RZA2M_GR_MANGO/src/tensorflow_lite/src/tensorflow/lite/kernels\kernel_util.h **** // Note: You must check if result is not null:
  99:C:/Renesas/e2studio_2021_01_workspace_RZA2M_ANPR/ANPR_RZA2M_GR_MANGO/src/tensorflow_lite/src/tensorflow/lite/kernels\kernel_util.h **** //
 100:C:/Renesas/e2studio_2021_01_workspace_RZA2M_ANPR/ANPR_RZA2M_GR_MANGO/src/tensorflow_lite/src/tensorflow/lite/kernels\kernel_util.h **** //   TfLiteTensor* my_tensor = GetTemporary(context, node, kMyTensorIdx);
 101:C:/Renesas/e2studio_2021_01_workspace_RZA2M_ANPR/ANPR_RZA2M_GR_MANGO/src/tensorflow_lite/src/tensorflow/lite/kernels\kernel_util.h **** //   TF_LITE_ENSURE(context, my_tensor != nullptr);
 102:C:/Renesas/e2studio_2021_01_workspace_RZA2M_ANPR/ANPR_RZA2M_GR_MANGO/src/tensorflow_lite/src/tensorflow/lite/kernels\kernel_util.h **** //
 103:C:/Renesas/e2studio_2021_01_workspace_RZA2M_ANPR/ANPR_RZA2M_GR_MANGO/src/tensorflow_lite/src/tensorflow/lite/kernels\kernel_util.h **** // This is because the index might point to the optional tensor constant
 104:C:/Renesas/e2studio_2021_01_workspace_RZA2M_ANPR/ANPR_RZA2M_GR_MANGO/src/tensorflow_lite/src/tensorflow/lite/kernels\kernel_util.h **** // (kTfLiteOptionalTensor) in which case there is no tensor to return.
 105:C:/Renesas/e2studio_2021_01_workspace_RZA2M_ANPR/ANPR_RZA2M_GR_MANGO/src/tensorflow_lite/src/tensorflow/lite/kernels\kernel_util.h **** TfLiteTensor* GetTemporary(TfLiteContext* context, const TfLiteNode* node,
 106:C:/Renesas/e2studio_2021_01_workspace_RZA2M_ANPR/ANPR_RZA2M_GR_MANGO/src/tensorflow_lite/src/tensorflow/lite/kernels\kernel_util.h ****                            int index);
 107:C:/Renesas/e2studio_2021_01_workspace_RZA2M_ANPR/ANPR_RZA2M_GR_MANGO/src/tensorflow_lite/src/tensorflow/lite/kernels\kernel_util.h **** 
 108:C:/Renesas/e2studio_2021_01_workspace_RZA2M_ANPR/ANPR_RZA2M_GR_MANGO/src/tensorflow_lite/src/tensorflow/lite/kernels\kernel_util.h **** // Same as `GetTemporary` but returns boolean and uses output argument for
 109:C:/Renesas/e2studio_2021_01_workspace_RZA2M_ANPR/ANPR_RZA2M_GR_MANGO/src/tensorflow_lite/src/tensorflow/lite/kernels\kernel_util.h **** // tensor.
 110:C:/Renesas/e2studio_2021_01_workspace_RZA2M_ANPR/ANPR_RZA2M_GR_MANGO/src/tensorflow_lite/src/tensorflow/lite/kernels\kernel_util.h **** //
 111:C:/Renesas/e2studio_2021_01_workspace_RZA2M_ANPR/ANPR_RZA2M_GR_MANGO/src/tensorflow_lite/src/tensorflow/lite/kernels\kernel_util.h **** //   TfLiteTensor* my_tensor;
 112:C:/Renesas/e2studio_2021_01_workspace_RZA2M_ANPR/ANPR_RZA2M_GR_MANGO/src/tensorflow_lite/src/tensorflow/lite/kernels\kernel_util.h **** //   TF_LITE_ENSURE_OK(context,
 113:C:/Renesas/e2studio_2021_01_workspace_RZA2M_ANPR/ANPR_RZA2M_GR_MANGO/src/tensorflow_lite/src/tensorflow/lite/kernels\kernel_util.h **** //                     GetTemporarySafe(context, node, kMyTensorIdx,
 114:C:/Renesas/e2studio_2021_01_workspace_RZA2M_ANPR/ANPR_RZA2M_GR_MANGO/src/tensorflow_lite/src/tensorflow/lite/kernels\kernel_util.h **** //                     &my_tensor));
 115:C:/Renesas/e2studio_2021_01_workspace_RZA2M_ANPR/ANPR_RZA2M_GR_MANGO/src/tensorflow_lite/src/tensorflow/lite/kernels\kernel_util.h **** //   // can use my_tensor directly from here onwards, it is not nullptr
 116:C:/Renesas/e2studio_2021_01_workspace_RZA2M_ANPR/ANPR_RZA2M_GR_MANGO/src/tensorflow_lite/src/tensorflow/lite/kernels\kernel_util.h **** //
 117:C:/Renesas/e2studio_2021_01_workspace_RZA2M_ANPR/ANPR_RZA2M_GR_MANGO/src/tensorflow_lite/src/tensorflow/lite/kernels\kernel_util.h **** // Should be used in cases where the binary size is too large.
 118:C:/Renesas/e2studio_2021_01_workspace_RZA2M_ANPR/ANPR_RZA2M_GR_MANGO/src/tensorflow_lite/src/tensorflow/lite/kernels\kernel_util.h **** TfLiteStatus GetTemporarySafe(const TfLiteContext* context,
 119:C:/Renesas/e2studio_2021_01_workspace_RZA2M_ANPR/ANPR_RZA2M_GR_MANGO/src/tensorflow_lite/src/tensorflow/lite/kernels\kernel_util.h ****                               const TfLiteNode* node, int index,
 120:C:/Renesas/e2studio_2021_01_workspace_RZA2M_ANPR/ANPR_RZA2M_GR_MANGO/src/tensorflow_lite/src/tensorflow/lite/kernels\kernel_util.h ****                               TfLiteTensor** tensor);
 121:C:/Renesas/e2studio_2021_01_workspace_RZA2M_ANPR/ANPR_RZA2M_GR_MANGO/src/tensorflow_lite/src/tensorflow/lite/kernels\kernel_util.h **** 
 122:C:/Renesas/e2studio_2021_01_workspace_RZA2M_ANPR/ANPR_RZA2M_GR_MANGO/src/tensorflow_lite/src/tensorflow/lite/kernels\kernel_util.h **** // Note: You must check if result is not null:
 123:C:/Renesas/e2studio_2021_01_workspace_RZA2M_ANPR/ANPR_RZA2M_GR_MANGO/src/tensorflow_lite/src/tensorflow/lite/kernels\kernel_util.h **** //
 124:C:/Renesas/e2studio_2021_01_workspace_RZA2M_ANPR/ANPR_RZA2M_GR_MANGO/src/tensorflow_lite/src/tensorflow/lite/kernels\kernel_util.h **** //   TfLiteTensor* my_tensor = GetIntermediates(context, node, kMyTensorIdx);
 125:C:/Renesas/e2studio_2021_01_workspace_RZA2M_ANPR/ANPR_RZA2M_GR_MANGO/src/tensorflow_lite/src/tensorflow/lite/kernels\kernel_util.h **** //   TF_LITE_ENSURE(context, my_tensor != nullptr);
 126:C:/Renesas/e2studio_2021_01_workspace_RZA2M_ANPR/ANPR_RZA2M_GR_MANGO/src/tensorflow_lite/src/tensorflow/lite/kernels\kernel_util.h **** //
 127:C:/Renesas/e2studio_2021_01_workspace_RZA2M_ANPR/ANPR_RZA2M_GR_MANGO/src/tensorflow_lite/src/tensorflow/lite/kernels\kernel_util.h **** // This is because the index might point to the optional tensor constant
 128:C:/Renesas/e2studio_2021_01_workspace_RZA2M_ANPR/ANPR_RZA2M_GR_MANGO/src/tensorflow_lite/src/tensorflow/lite/kernels\kernel_util.h **** // (kTfLiteOptionalTensor) in which case there is no tensor to return.
 129:C:/Renesas/e2studio_2021_01_workspace_RZA2M_ANPR/ANPR_RZA2M_GR_MANGO/src/tensorflow_lite/src/tensorflow/lite/kernels\kernel_util.h **** const TfLiteTensor* GetIntermediates(TfLiteContext* context,
 130:C:/Renesas/e2studio_2021_01_workspace_RZA2M_ANPR/ANPR_RZA2M_GR_MANGO/src/tensorflow_lite/src/tensorflow/lite/kernels\kernel_util.h ****                                      const TfLiteNode* node, int index);
 131:C:/Renesas/e2studio_2021_01_workspace_RZA2M_ANPR/ANPR_RZA2M_GR_MANGO/src/tensorflow_lite/src/tensorflow/lite/kernels\kernel_util.h **** 
 132:C:/Renesas/e2studio_2021_01_workspace_RZA2M_ANPR/ANPR_RZA2M_GR_MANGO/src/tensorflow_lite/src/tensorflow/lite/kernels\kernel_util.h **** // Same as `GetIntermediates` but returns boolean and uses output argument for
 133:C:/Renesas/e2studio_2021_01_workspace_RZA2M_ANPR/ANPR_RZA2M_GR_MANGO/src/tensorflow_lite/src/tensorflow/lite/kernels\kernel_util.h **** // tensor.
 134:C:/Renesas/e2studio_2021_01_workspace_RZA2M_ANPR/ANPR_RZA2M_GR_MANGO/src/tensorflow_lite/src/tensorflow/lite/kernels\kernel_util.h **** //
 135:C:/Renesas/e2studio_2021_01_workspace_RZA2M_ANPR/ANPR_RZA2M_GR_MANGO/src/tensorflow_lite/src/tensorflow/lite/kernels\kernel_util.h **** //   TfLiteTensor* my_tensor;
 136:C:/Renesas/e2studio_2021_01_workspace_RZA2M_ANPR/ANPR_RZA2M_GR_MANGO/src/tensorflow_lite/src/tensorflow/lite/kernels\kernel_util.h **** //   TF_LITE_ENSURE_OK(context,
 137:C:/Renesas/e2studio_2021_01_workspace_RZA2M_ANPR/ANPR_RZA2M_GR_MANGO/src/tensorflow_lite/src/tensorflow/lite/kernels\kernel_util.h **** //                     GetIntermediatesSafe(context, node, kMyTensorIdx,
 138:C:/Renesas/e2studio_2021_01_workspace_RZA2M_ANPR/ANPR_RZA2M_GR_MANGO/src/tensorflow_lite/src/tensorflow/lite/kernels\kernel_util.h **** //                     &my_tensor));
 139:C:/Renesas/e2studio_2021_01_workspace_RZA2M_ANPR/ANPR_RZA2M_GR_MANGO/src/tensorflow_lite/src/tensorflow/lite/kernels\kernel_util.h **** //   // can use my_tensor directly from here onwards, it is not nullptr
 140:C:/Renesas/e2studio_2021_01_workspace_RZA2M_ANPR/ANPR_RZA2M_GR_MANGO/src/tensorflow_lite/src/tensorflow/lite/kernels\kernel_util.h **** //
 141:C:/Renesas/e2studio_2021_01_workspace_RZA2M_ANPR/ANPR_RZA2M_GR_MANGO/src/tensorflow_lite/src/tensorflow/lite/kernels\kernel_util.h **** // Should be used in cases where the binary size is too large.
 142:C:/Renesas/e2studio_2021_01_workspace_RZA2M_ANPR/ANPR_RZA2M_GR_MANGO/src/tensorflow_lite/src/tensorflow/lite/kernels\kernel_util.h **** TfLiteStatus GetIntermediatesSafe(const TfLiteContext* context,
 143:C:/Renesas/e2studio_2021_01_workspace_RZA2M_ANPR/ANPR_RZA2M_GR_MANGO/src/tensorflow_lite/src/tensorflow/lite/kernels\kernel_util.h ****                                   const TfLiteNode* node, int index,
 144:C:/Renesas/e2studio_2021_01_workspace_RZA2M_ANPR/ANPR_RZA2M_GR_MANGO/src/tensorflow_lite/src/tensorflow/lite/kernels\kernel_util.h ****                                   TfLiteTensor** tensor);
 145:C:/Renesas/e2studio_2021_01_workspace_RZA2M_ANPR/ANPR_RZA2M_GR_MANGO/src/tensorflow_lite/src/tensorflow/lite/kernels\kernel_util.h **** #endif  // TF_LITE_STATIC_MEMORY
 146:C:/Renesas/e2studio_2021_01_workspace_RZA2M_ANPR/ANPR_RZA2M_GR_MANGO/src/tensorflow_lite/src/tensorflow/lite/kernels\kernel_util.h **** 
 147:C:/Renesas/e2studio_2021_01_workspace_RZA2M_ANPR/ANPR_RZA2M_GR_MANGO/src/tensorflow_lite/src/tensorflow/lite/kernels\kernel_util.h **** inline int NumDimensions(const TfLiteTensor* t) { return t->dims->size; }
 148:C:/Renesas/e2studio_2021_01_workspace_RZA2M_ANPR/ANPR_RZA2M_GR_MANGO/src/tensorflow_lite/src/tensorflow/lite/kernels\kernel_util.h **** inline int SizeOfDimension(const TfLiteTensor* t, int dim) {
 149:C:/Renesas/e2studio_2021_01_workspace_RZA2M_ANPR/ANPR_RZA2M_GR_MANGO/src/tensorflow_lite/src/tensorflow/lite/kernels\kernel_util.h ****   return t->dims->data[dim];
 150:C:/Renesas/e2studio_2021_01_workspace_RZA2M_ANPR/ANPR_RZA2M_GR_MANGO/src/tensorflow_lite/src/tensorflow/lite/kernels\kernel_util.h **** }
 151:C:/Renesas/e2studio_2021_01_workspace_RZA2M_ANPR/ANPR_RZA2M_GR_MANGO/src/tensorflow_lite/src/tensorflow/lite/kernels\kernel_util.h **** 
 152:C:/Renesas/e2studio_2021_01_workspace_RZA2M_ANPR/ANPR_RZA2M_GR_MANGO/src/tensorflow_lite/src/tensorflow/lite/kernels\kernel_util.h **** inline int NumInputs(const TfLiteNode* node) { return node->inputs->size; }
  37              		.loc 2 152 0
  38 0000 003091E5 		ldr	r3, [r1]
  39              	.LBE144:
  40              	.LBE143:
  41              	.LBE142:
  42              	.LBE141:
  43              		.loc 1 89 0
  44 0004 F0472DE9 		push	{r4, r5, r6, r7, r8, r9, r10, lr}
  45              		.save {r4, r5, r6, r7, r8, r9, r10, lr}
  46              		.cfi_def_cfa_offset 32
  47              		.cfi_offset 4, -32
  48              		.cfi_offset 5, -28
  49              		.cfi_offset 6, -24
  50              		.cfi_offset 7, -20
  51              		.cfi_offset 8, -16
  52              		.cfi_offset 9, -12
  53              		.cfi_offset 10, -8
  54              		.cfi_offset 14, -4
  55 0008 0070A0E1 		mov	r7, r0
  56              	.LVL1:
  57              		.pad #24
  58 000c 18D04DE2 		sub	sp, sp, #24
  59              		.cfi_def_cfa_offset 56
  60              	.LBB162:
  61              	.LBB159:
  62              	.LBB146:
  63              	.LBB145:
  64              		.loc 2 152 0
  65 0010 005093E5 		ldr	r5, [r3]
  66              	.LBE145:
  67              	.LBE146:
  40:../src/tensorflow_lite/src/tensorflow/lite/micro/kernels/depth_to_space.cpp ****   TF_LITE_ENSURE_EQ(context, NumOutputs(node), 1);
  68              		.loc 1 40 0
  69 0014 010055E3 		cmp	r5, #1
  70 0018 5D00001A 		bne	.L15
  71              	.LBB147:
  72              	.LBB148:
 153:C:/Renesas/e2studio_2021_01_workspace_RZA2M_ANPR/ANPR_RZA2M_GR_MANGO/src/tensorflow_lite/src/tensorflow/lite/kernels\kernel_util.h **** inline int NumOutputs(const TfLiteNode* node) { return node->outputs->size; }
  73              		.loc 2 153 0
  74 001c 043091E5 		ldr	r3, [r1, #4]
  75 0020 0160A0E1 		mov	r6, r1
  76              	.LVL2:
  77 0024 008093E5 		ldr	r8, [r3]
  78              	.LBE148:
  79              	.LBE147:
  41:../src/tensorflow_lite/src/tensorflow/lite/micro/kernels/depth_to_space.cpp **** 
  80              		.loc 1 41 0
  81 0028 010058E3 		cmp	r8, #1
  82 002c 1000000A 		beq	.L4
  83              	.LVL3:
  84 0030 00E000E3 		movw	lr, #:lower16:.LC3
  85 0034 00C000E3 		movw	ip, #:lower16:.LC5
  86 0038 00E040E3 		movt	lr, #:upper16:.LC3
  87 003c 00C040E3 		movt	ip, #:upper16:.LC5
  88 0040 002000E3 		movw	r2, #:lower16:.LC1
  89 0044 001000E3 		movw	r1, #:lower16:.LC2
  90              	.LVL4:
  91 0048 0C508DE5 		str	r5, [sp, #12]
  92              	.LVL5:
  93 004c 002040E3 		movt	r2, #:upper16:.LC1
  94 0050 08808DE5 		str	r8, [sp, #8]
  95 0054 001040E3 		movt	r1, #:upper16:.LC2
  96 0058 144090E5 		ldr	r4, [r0, #20]
  97 005c 2930A0E3 		mov	r3, #41
  98 0060 00508DE8 		stm	sp, {ip, lr}
  99 0064 34FF2FE1 		blx	r4
 100              	.LVL6:
 101 0068 0500A0E1 		mov	r0, r5
 102              	.LVL7:
 103              	.L3:
 104              	.LBE159:
 105              	.LBE162:
  90:../src/tensorflow_lite/src/tensorflow/lite/micro/kernels/depth_to_space.cpp ****   return CalculateOpData(context, node);
  91:../src/tensorflow_lite/src/tensorflow/lite/micro/kernels/depth_to_space.cpp **** }
 106              		.loc 1 91 0
 107 006c 18D08DE2 		add	sp, sp, #24
 108              		.cfi_remember_state
 109              		.cfi_def_cfa_offset 32
 110              		@ sp needed
 111 0070 F087BDE8 		pop	{r4, r5, r6, r7, r8, r9, r10, pc}
 112              	.LVL8:
 113              	.L4:
 114              		.cfi_restore_state
 115              	.LBB163:
 116              	.LBB160:
 117              	.LBB149:
  44:../src/tensorflow_lite/src/tensorflow/lite/micro/kernels/depth_to_space.cpp ****   TfLiteTensor* output;
 118              		.loc 1 44 0
 119 0074 10308DE2 		add	r3, sp, #16
 120 0078 0020A0E3 		mov	r2, #0
 121              	.LBE149:
  38:../src/tensorflow_lite/src/tensorflow/lite/micro/kernels/depth_to_space.cpp **** 
 122              		.loc 1 38 0
 123 007c 145091E5 		ldr	r5, [r1, #20]
 124              	.LBB150:
  44:../src/tensorflow_lite/src/tensorflow/lite/micro/kernels/depth_to_space.cpp ****   TfLiteTensor* output;
 125              		.loc 1 44 0
 126 0080 FEFFFFEB 		bl	_ZN6tflite12GetInputSafeEPK13TfLiteContextPK10TfLiteNodeiPPK12TfLiteTensor
 127              	.LVL9:
 128 0084 000050E3 		cmp	r0, #0
 129              	.LVL10:
 130 0088 F7FFFF1A 		bne	.L3
 131              	.LBE150:
 132              	.LBB151:
  46:../src/tensorflow_lite/src/tensorflow/lite/micro/kernels/depth_to_space.cpp ****                     GetOutputSafe(context, node, kOutputTensor, &output));
 133              		.loc 1 46 0
 134 008c 0020A0E1 		mov	r2, r0
 135 0090 14308DE2 		add	r3, sp, #20
 136 0094 0610A0E1 		mov	r1, r6
 137 0098 0700A0E1 		mov	r0, r7
 138 009c FEFFFFEB 		bl	_ZN6tflite13GetOutputSafeEPK13TfLiteContextPK10TfLiteNodeiPP12TfLiteTensor
 139              	.LVL11:
 140 00a0 000050E3 		cmp	r0, #0
 141              	.LVL12:
 142 00a4 F0FFFF1A 		bne	.L3
 143              	.LBE151:
  49:../src/tensorflow_lite/src/tensorflow/lite/micro/kernels/depth_to_space.cpp **** 
 144              		.loc 1 49 0
 145 00a8 10309DE5 		ldr	r3, [sp, #16]
 146 00ac 089093E5 		ldr	r9, [r3, #8]
 147              	.LVL13:
 148              	.LBB152:
 149              	.LBB153:
 147:C:/Renesas/e2studio_2021_01_workspace_RZA2M_ANPR/ANPR_RZA2M_GR_MANGO/src/tensorflow_lite/src/tensorflow/lite/kernels\kernel_util.h **** inline int SizeOfDimension(const TfLiteTensor* t, int dim) {
 150              		.loc 2 147 0
 151 00b0 000099E5 		ldr	r0, [r9]
 152              	.LBE153:
 153              	.LBE152:
  49:../src/tensorflow_lite/src/tensorflow/lite/micro/kernels/depth_to_space.cpp **** 
 154              		.loc 1 49 0
 155 00b4 040050E3 		cmp	r0, #4
 156 00b8 4800001A 		bne	.L16
  51:../src/tensorflow_lite/src/tensorflow/lite/micro/kernels/depth_to_space.cpp ****   TF_LITE_ENSURE(context,
 157              		.loc 1 51 0
 158 00bc 14209DE5 		ldr	r2, [sp, #20]
 159 00c0 0020D2E5 		ldrb	r2, [r2]	@ zero_extendqisi2
 160              	.LVL14:
  52:../src/tensorflow_lite/src/tensorflow/lite/micro/kernels/depth_to_space.cpp ****                  data_type == kTfLiteFloat32 || data_type == kTfLiteInt8);
 161              		.loc 1 52 0
 162 00c4 F74002E2 		and	r4, r2, #247
 163 00c8 010054E3 		cmp	r4, #1
 164 00cc 6D00001A 		bne	.L17
  54:../src/tensorflow_lite/src/tensorflow/lite/micro/kernels/depth_to_space.cpp **** 
 165              		.loc 1 54 0
 166 00d0 0000D3E5 		ldrb	r0, [r3]	@ zero_extendqisi2
 167 00d4 000052E1 		cmp	r2, r0
 168 00d8 5300001A 		bne	.L18
  56:../src/tensorflow_lite/src/tensorflow/lite/micro/kernels/depth_to_space.cpp ****   TF_LITE_ENSURE(context, block_size > 0);
 169              		.loc 1 56 0
 170 00dc 005095E5 		ldr	r5, [r5]
 171              	.LVL15:
  57:../src/tensorflow_lite/src/tensorflow/lite/micro/kernels/depth_to_space.cpp ****   const int input_height = input->dims->data[kHeightRank];
 172              		.loc 1 57 0
 173 00e0 000055E3 		cmp	r5, #0
 174 00e4 AF0000DA 		ble	.L19
  58:../src/tensorflow_lite/src/tensorflow/lite/micro/kernels/depth_to_space.cpp ****   const int input_width = input->dims->data[kWidthRank];
 175              		.loc 1 58 0
 176 00e8 08A099E5 		ldr	r10, [r9, #8]
 177              	.LVL16:
  65:../src/tensorflow_lite/src/tensorflow/lite/micro/kernels/depth_to_space.cpp ****   TF_LITE_ENSURE_EQ(context, input_width, output_width / block_size);
 178              		.loc 1 65 0
 179 00ec 0510A0E1 		mov	r1, r5
  61:../src/tensorflow_lite/src/tensorflow/lite/micro/kernels/depth_to_space.cpp ****   int output_width = input_width * block_size;
 180              		.loc 1 61 0
 181 00f0 9A0508E0 		mul	r8, r10, r5
 182              	.LVL17:
  65:../src/tensorflow_lite/src/tensorflow/lite/micro/kernels/depth_to_space.cpp ****   TF_LITE_ENSURE_EQ(context, input_width, output_width / block_size);
 183              		.loc 1 65 0
 184 00f4 0800A0E1 		mov	r0, r8
 185 00f8 FEFFFFEB 		bl	__aeabi_idiv
 186              	.LVL18:
 187 00fc 00005AE1 		cmp	r10, r0
 188 0100 6D00001A 		bne	.L20
  59:../src/tensorflow_lite/src/tensorflow/lite/micro/kernels/depth_to_space.cpp ****   const int input_channels = input->dims->data[kDepthRank];
 189              		.loc 1 59 0
 190 0104 0CA099E5 		ldr	r10, [r9, #12]
 191              	.LVL19:
  66:../src/tensorflow_lite/src/tensorflow/lite/micro/kernels/depth_to_space.cpp ****   TF_LITE_ENSURE_EQ(context, input_channels,
 192              		.loc 1 66 0
 193 0108 0510A0E1 		mov	r1, r5
  62:../src/tensorflow_lite/src/tensorflow/lite/micro/kernels/depth_to_space.cpp ****   int output_channels = input_channels / block_size / block_size;
 194              		.loc 1 62 0
 195 010c 9A0504E0 		mul	r4, r10, r5
  66:../src/tensorflow_lite/src/tensorflow/lite/micro/kernels/depth_to_space.cpp ****   TF_LITE_ENSURE_EQ(context, input_channels,
 196              		.loc 1 66 0
 197 0110 0400A0E1 		mov	r0, r4
 198 0114 FEFFFFEB 		bl	__aeabi_idiv
 199              	.LVL20:
 200 0118 00005AE1 		cmp	r10, r0
 201 011c 7800001A 		bne	.L21
  60:../src/tensorflow_lite/src/tensorflow/lite/micro/kernels/depth_to_space.cpp ****   int output_height = input_height * block_size;
 202              		.loc 1 60 0
 203 0120 109099E5 		ldr	r9, [r9, #16]
 204              	.LVL21:
  63:../src/tensorflow_lite/src/tensorflow/lite/micro/kernels/depth_to_space.cpp **** 
 205              		.loc 1 63 0
 206 0124 0510A0E1 		mov	r1, r5
 207 0128 0900A0E1 		mov	r0, r9
 208 012c FEFFFFEB 		bl	__aeabi_idiv
 209              	.LVL22:
 210 0130 0510A0E1 		mov	r1, r5
 211 0134 FEFFFFEB 		bl	__aeabi_idiv
 212              	.LVL23:
  67:../src/tensorflow_lite/src/tensorflow/lite/micro/kernels/depth_to_space.cpp ****                     output_channels * block_size * block_size);
 213              		.loc 1 67 0
 214 0138 900503E0 		mul	r3, r0, r5
  63:../src/tensorflow_lite/src/tensorflow/lite/micro/kernels/depth_to_space.cpp **** 
 215              		.loc 1 63 0
 216 013c 00A0A0E1 		mov	r10, r0
 217              	.LVL24:
  67:../src/tensorflow_lite/src/tensorflow/lite/micro/kernels/depth_to_space.cpp ****                     output_channels * block_size * block_size);
 218              		.loc 1 67 0
 219 0140 950305E0 		mul	r5, r5, r3
 220              	.LVL25:
 221 0144 050059E1 		cmp	r9, r5
 222 0148 7F00000A 		beq	.L11
 223 014c 000000E3 		movw	r0, #:lower16:.LC18
 224 0150 003000E3 		movw	r3, #:lower16:.LC19
 225 0154 000040E3 		movt	r0, #:upper16:.LC18
 226 0158 003040E3 		movt	r3, #:upper16:.LC19
 227 015c 002000E3 		movw	r2, #:lower16:.LC1
 228 0160 001000E3 		movw	r1, #:lower16:.LC2
 229 0164 04008DE5 		str	r0, [sp, #4]
 230 0168 002040E3 		movt	r2, #:upper16:.LC1
 231 016c 00308DE5 		str	r3, [sp]
 232 0170 0700A0E1 		mov	r0, r7
 233 0174 0C508DE5 		str	r5, [sp, #12]
 234 0178 001040E3 		movt	r1, #:upper16:.LC2
 235 017c 08908DE5 		str	r9, [sp, #8]
 236 0180 4430A0E3 		mov	r3, #68
 237 0184 144097E5 		ldr	r4, [r7, #20]
 238 0188 34FF2FE1 		blx	r4
 239              	.LVL26:
 240 018c 0100A0E3 		mov	r0, #1
 241 0190 B5FFFFEA 		b	.L3
 242              	.LVL27:
 243              	.L15:
  40:../src/tensorflow_lite/src/tensorflow/lite/micro/kernels/depth_to_space.cpp ****   TF_LITE_ENSURE_EQ(context, NumOutputs(node), 1);
 244              		.loc 1 40 0
 245 0194 00C000E3 		movw	ip, #:lower16:.LC3
 246 0198 003000E3 		movw	r3, #:lower16:.LC4
 247 019c 00C040E3 		movt	ip, #:upper16:.LC3
 248 01a0 0140A0E3 		mov	r4, #1
 249 01a4 003040E3 		movt	r3, #:upper16:.LC4
 250 01a8 002000E3 		movw	r2, #:lower16:.LC1
 251 01ac 001000E3 		movw	r1, #:lower16:.LC2
 252              	.LVL28:
 253 01b0 08508DE5 		str	r5, [sp, #8]
 254              	.LVL29:
 255 01b4 002040E3 		movt	r2, #:upper16:.LC1
 256 01b8 145090E5 		ldr	r5, [r0, #20]
 257 01bc 001040E3 		movt	r1, #:upper16:.LC2
 258 01c0 00308DE5 		str	r3, [sp]
 259 01c4 04C08DE5 		str	ip, [sp, #4]
 260 01c8 2830A0E3 		mov	r3, #40
 261 01cc 0C408DE5 		str	r4, [sp, #12]
 262 01d0 35FF2FE1 		blx	r5
 263              	.LVL30:
 264 01d4 0400A0E1 		mov	r0, r4
 265              	.LVL31:
 266              	.LBE160:
 267              	.LBE163:
 268              		.loc 1 91 0
 269 01d8 18D08DE2 		add	sp, sp, #24
 270              		.cfi_remember_state
 271              		.cfi_def_cfa_offset 32
 272              		@ sp needed
 273 01dc F087BDE8 		pop	{r4, r5, r6, r7, r8, r9, r10, pc}
 274              	.LVL32:
 275              	.L16:
 276              		.cfi_restore_state
 277              	.LBB164:
 278              	.LBB161:
  49:../src/tensorflow_lite/src/tensorflow/lite/micro/kernels/depth_to_space.cpp **** 
 279              		.loc 1 49 0
 280 01e0 00C000E3 		movw	ip, #:lower16:.LC6
 281 01e4 003000E3 		movw	r3, #:lower16:.LC7
 282              	.LVL33:
 283 01e8 00C040E3 		movt	ip, #:upper16:.LC6
 284 01ec 003040E3 		movt	r3, #:upper16:.LC7
 285 01f0 04E0A0E3 		mov	lr, #4
 286 01f4 002000E3 		movw	r2, #:lower16:.LC1
 287 01f8 001000E3 		movw	r1, #:lower16:.LC2
 288 01fc 08008DE5 		str	r0, [sp, #8]
 289 0200 00308DE5 		str	r3, [sp]
 290 0204 0700A0E1 		mov	r0, r7
 291 0208 04C08DE5 		str	ip, [sp, #4]
 292 020c 002040E3 		movt	r2, #:upper16:.LC1
 293 0210 0CE08DE5 		str	lr, [sp, #12]
 294 0214 001040E3 		movt	r1, #:upper16:.LC2
 295 0218 144097E5 		ldr	r4, [r7, #20]
 296 021c 3130A0E3 		mov	r3, #49
 297 0220 34FF2FE1 		blx	r4
 298              	.LVL34:
 299 0224 0800A0E1 		mov	r0, r8
 300 0228 8FFFFFEA 		b	.L3
 301              	.LVL35:
 302              	.L18:
  54:../src/tensorflow_lite/src/tensorflow/lite/micro/kernels/depth_to_space.cpp **** 
 303              		.loc 1 54 0
 304 022c 145097E5 		ldr	r5, [r7, #20]
 305 0230 FEFFFFEB 		bl	TfLiteTypeGetName
 306              	.LVL36:
 307 0234 14309DE5 		ldr	r3, [sp, #20]
 308 0238 0060A0E1 		mov	r6, r0
 309              	.LVL37:
 310 023c 0000D3E5 		ldrb	r0, [r3]	@ zero_extendqisi2
 311 0240 FEFFFFEB 		bl	TfLiteTypeGetName
 312              	.LVL38:
 313 0244 00C000E3 		movw	ip, #:lower16:.LC11
 314 0248 003000E3 		movw	r3, #:lower16:.LC12
 315 024c 00C040E3 		movt	ip, #:upper16:.LC11
 316 0250 003040E3 		movt	r3, #:upper16:.LC12
 317 0254 002000E3 		movw	r2, #:lower16:.LC1
 318 0258 001000E3 		movw	r1, #:lower16:.LC10
 319 025c 0C008DE5 		str	r0, [sp, #12]
 320 0260 002040E3 		movt	r2, #:upper16:.LC1
 321 0264 0700A0E1 		mov	r0, r7
 322 0268 00308DE5 		str	r3, [sp]
 323 026c 08608DE5 		str	r6, [sp, #8]
 324 0270 001040E3 		movt	r1, #:upper16:.LC10
 325 0274 04C08DE5 		str	ip, [sp, #4]
 326 0278 3630A0E3 		mov	r3, #54
 327 027c 35FF2FE1 		blx	r5
 328              	.LVL39:
 329 0280 0400A0E1 		mov	r0, r4
 330 0284 78FFFFEA 		b	.L3
 331              	.LVL40:
 332              	.L17:
  52:../src/tensorflow_lite/src/tensorflow/lite/micro/kernels/depth_to_space.cpp ****                  data_type == kTfLiteFloat32 || data_type == kTfLiteInt8);
 333              		.loc 1 52 0
 334 0288 003000E3 		movw	r3, #:lower16:.LC9
 335              	.LVL41:
 336 028c 002000E3 		movw	r2, #:lower16:.LC1
 337              	.LVL42:
 338 0290 003040E3 		movt	r3, #:upper16:.LC9
 339 0294 001000E3 		movw	r1, #:lower16:.LC8
 340 0298 00308DE5 		str	r3, [sp]
 341              	.LVL43:
 342 029c 0700A0E1 		mov	r0, r7
 343 02a0 002040E3 		movt	r2, #:upper16:.LC1
 344 02a4 001040E3 		movt	r1, #:upper16:.LC8
 345 02a8 144097E5 		ldr	r4, [r7, #20]
 346 02ac 3530A0E3 		mov	r3, #53
 347 02b0 34FF2FE1 		blx	r4
 348              	.LVL44:
 349 02b4 0800A0E1 		mov	r0, r8
 350 02b8 6BFFFFEA 		b	.L3
 351              	.LVL45:
 352              	.L20:
  65:../src/tensorflow_lite/src/tensorflow/lite/micro/kernels/depth_to_space.cpp ****   TF_LITE_ENSURE_EQ(context, input_width, output_width / block_size);
 353              		.loc 1 65 0
 354 02bc 00C000E3 		movw	ip, #:lower16:.LC14
 355 02c0 003000E3 		movw	r3, #:lower16:.LC15
 356 02c4 00C040E3 		movt	ip, #:upper16:.LC14
 357 02c8 003040E3 		movt	r3, #:upper16:.LC15
 358 02cc 002000E3 		movw	r2, #:lower16:.LC1
 359 02d0 001000E3 		movw	r1, #:lower16:.LC2
 360 02d4 0C008DE5 		str	r0, [sp, #12]
 361 02d8 002040E3 		movt	r2, #:upper16:.LC1
 362 02dc 00308DE5 		str	r3, [sp]
 363 02e0 0700A0E1 		mov	r0, r7
 364 02e4 08A08DE5 		str	r10, [sp, #8]
 365 02e8 001040E3 		movt	r1, #:upper16:.LC2
 366 02ec 04C08DE5 		str	ip, [sp, #4]
 367 02f0 4130A0E3 		mov	r3, #65
 368 02f4 145097E5 		ldr	r5, [r7, #20]
 369              	.LVL46:
 370 02f8 35FF2FE1 		blx	r5
 371              	.LVL47:
 372 02fc 0400A0E1 		mov	r0, r4
 373 0300 59FFFFEA 		b	.L3
 374              	.LVL48:
 375              	.L21:
  66:../src/tensorflow_lite/src/tensorflow/lite/micro/kernels/depth_to_space.cpp ****   TF_LITE_ENSURE_EQ(context, input_channels,
 376              		.loc 1 66 0
 377 0304 00C000E3 		movw	ip, #:lower16:.LC16
 378 0308 003000E3 		movw	r3, #:lower16:.LC17
 379 030c 00C040E3 		movt	ip, #:upper16:.LC16
 380 0310 003040E3 		movt	r3, #:upper16:.LC17
 381 0314 002000E3 		movw	r2, #:lower16:.LC1
 382 0318 001000E3 		movw	r1, #:lower16:.LC2
 383 031c 0C008DE5 		str	r0, [sp, #12]
 384 0320 002040E3 		movt	r2, #:upper16:.LC1
 385 0324 00308DE5 		str	r3, [sp]
 386 0328 0700A0E1 		mov	r0, r7
 387 032c 08A08DE5 		str	r10, [sp, #8]
 388 0330 001040E3 		movt	r1, #:upper16:.LC2
 389 0334 04C08DE5 		str	ip, [sp, #4]
 390 0338 4230A0E3 		mov	r3, #66
 391 033c 144097E5 		ldr	r4, [r7, #20]
 392 0340 34FF2FE1 		blx	r4
 393              	.LVL49:
 394 0344 0100A0E3 		mov	r0, #1
 395 0348 47FFFFEA 		b	.L3
 396              	.LVL50:
 397              	.L11:
 398              	.LBB154:
 399              	.LBB155:
 400              		.file 3 "C:/Renesas/e2studio_2021_01_workspace_RZA2M_ANPR/ANPR_RZA2M_GR_MANGO/src/tensorflow_lite/
   1:C:/Renesas/e2studio_2021_01_workspace_RZA2M_ANPR/ANPR_RZA2M_GR_MANGO/src/tensorflow_lite/src/tensorflow/lite/micro/kernels\kernel_util.h **** /* Copyright 2020 The TensorFlow Authors. All Rights Reserved.
   2:C:/Renesas/e2studio_2021_01_workspace_RZA2M_ANPR/ANPR_RZA2M_GR_MANGO/src/tensorflow_lite/src/tensorflow/lite/micro/kernels\kernel_util.h **** 
   3:C:/Renesas/e2studio_2021_01_workspace_RZA2M_ANPR/ANPR_RZA2M_GR_MANGO/src/tensorflow_lite/src/tensorflow/lite/micro/kernels\kernel_util.h **** Licensed under the Apache License, Version 2.0 (the "License");
   4:C:/Renesas/e2studio_2021_01_workspace_RZA2M_ANPR/ANPR_RZA2M_GR_MANGO/src/tensorflow_lite/src/tensorflow/lite/micro/kernels\kernel_util.h **** you may not use this file except in compliance with the License.
   5:C:/Renesas/e2studio_2021_01_workspace_RZA2M_ANPR/ANPR_RZA2M_GR_MANGO/src/tensorflow_lite/src/tensorflow/lite/micro/kernels\kernel_util.h **** You may obtain a copy of the License at
   6:C:/Renesas/e2studio_2021_01_workspace_RZA2M_ANPR/ANPR_RZA2M_GR_MANGO/src/tensorflow_lite/src/tensorflow/lite/micro/kernels\kernel_util.h **** 
   7:C:/Renesas/e2studio_2021_01_workspace_RZA2M_ANPR/ANPR_RZA2M_GR_MANGO/src/tensorflow_lite/src/tensorflow/lite/micro/kernels\kernel_util.h ****     http://www.apache.org/licenses/LICENSE-2.0
   8:C:/Renesas/e2studio_2021_01_workspace_RZA2M_ANPR/ANPR_RZA2M_GR_MANGO/src/tensorflow_lite/src/tensorflow/lite/micro/kernels\kernel_util.h **** 
   9:C:/Renesas/e2studio_2021_01_workspace_RZA2M_ANPR/ANPR_RZA2M_GR_MANGO/src/tensorflow_lite/src/tensorflow/lite/micro/kernels\kernel_util.h **** Unless required by applicable law or agreed to in writing, software
  10:C:/Renesas/e2studio_2021_01_workspace_RZA2M_ANPR/ANPR_RZA2M_GR_MANGO/src/tensorflow_lite/src/tensorflow/lite/micro/kernels\kernel_util.h **** distributed under the License is distributed on an "AS IS" BASIS,
  11:C:/Renesas/e2studio_2021_01_workspace_RZA2M_ANPR/ANPR_RZA2M_GR_MANGO/src/tensorflow_lite/src/tensorflow/lite/micro/kernels\kernel_util.h **** WITHOUT WARRANTIES OR CONDITIONS OF ANY KIND, either express or implied.
  12:C:/Renesas/e2studio_2021_01_workspace_RZA2M_ANPR/ANPR_RZA2M_GR_MANGO/src/tensorflow_lite/src/tensorflow/lite/micro/kernels\kernel_util.h **** See the License for the specific language governing permissions and
  13:C:/Renesas/e2studio_2021_01_workspace_RZA2M_ANPR/ANPR_RZA2M_GR_MANGO/src/tensorflow_lite/src/tensorflow/lite/micro/kernels\kernel_util.h **** limitations under the License.
  14:C:/Renesas/e2studio_2021_01_workspace_RZA2M_ANPR/ANPR_RZA2M_GR_MANGO/src/tensorflow_lite/src/tensorflow/lite/micro/kernels\kernel_util.h **** ==============================================================================*/
  15:C:/Renesas/e2studio_2021_01_workspace_RZA2M_ANPR/ANPR_RZA2M_GR_MANGO/src/tensorflow_lite/src/tensorflow/lite/micro/kernels\kernel_util.h **** 
  16:C:/Renesas/e2studio_2021_01_workspace_RZA2M_ANPR/ANPR_RZA2M_GR_MANGO/src/tensorflow_lite/src/tensorflow/lite/micro/kernels\kernel_util.h **** #ifndef TENSORFLOW_LITE_MICRO_KERNELS_KERNEL_UTIL_H_
  17:C:/Renesas/e2studio_2021_01_workspace_RZA2M_ANPR/ANPR_RZA2M_GR_MANGO/src/tensorflow_lite/src/tensorflow/lite/micro/kernels\kernel_util.h **** #define TENSORFLOW_LITE_MICRO_KERNELS_KERNEL_UTIL_H_
  18:C:/Renesas/e2studio_2021_01_workspace_RZA2M_ANPR/ANPR_RZA2M_GR_MANGO/src/tensorflow_lite/src/tensorflow/lite/micro/kernels\kernel_util.h **** 
  19:C:/Renesas/e2studio_2021_01_workspace_RZA2M_ANPR/ANPR_RZA2M_GR_MANGO/src/tensorflow_lite/src/tensorflow/lite/micro/kernels\kernel_util.h **** #include <cstdint>
  20:C:/Renesas/e2studio_2021_01_workspace_RZA2M_ANPR/ANPR_RZA2M_GR_MANGO/src/tensorflow_lite/src/tensorflow/lite/micro/kernels\kernel_util.h **** 
  21:C:/Renesas/e2studio_2021_01_workspace_RZA2M_ANPR/ANPR_RZA2M_GR_MANGO/src/tensorflow_lite/src/tensorflow/lite/micro/kernels\kernel_util.h **** #include "tensorflow/lite/c/builtin_op_data.h"
  22:C:/Renesas/e2studio_2021_01_workspace_RZA2M_ANPR/ANPR_RZA2M_GR_MANGO/src/tensorflow_lite/src/tensorflow/lite/micro/kernels\kernel_util.h **** #include "tensorflow/lite/c/common.h"
  23:C:/Renesas/e2studio_2021_01_workspace_RZA2M_ANPR/ANPR_RZA2M_GR_MANGO/src/tensorflow_lite/src/tensorflow/lite/micro/kernels\kernel_util.h **** #include "tensorflow/lite/kernels/internal/compatibility.h"
  24:C:/Renesas/e2studio_2021_01_workspace_RZA2M_ANPR/ANPR_RZA2M_GR_MANGO/src/tensorflow_lite/src/tensorflow/lite/micro/kernels\kernel_util.h **** #include "tensorflow/lite/kernels/internal/types.h"
  25:C:/Renesas/e2studio_2021_01_workspace_RZA2M_ANPR/ANPR_RZA2M_GR_MANGO/src/tensorflow_lite/src/tensorflow/lite/micro/kernels\kernel_util.h **** 
  26:C:/Renesas/e2studio_2021_01_workspace_RZA2M_ANPR/ANPR_RZA2M_GR_MANGO/src/tensorflow_lite/src/tensorflow/lite/micro/kernels\kernel_util.h **** namespace tflite {
  27:C:/Renesas/e2studio_2021_01_workspace_RZA2M_ANPR/ANPR_RZA2M_GR_MANGO/src/tensorflow_lite/src/tensorflow/lite/micro/kernels\kernel_util.h **** namespace micro {
  28:C:/Renesas/e2studio_2021_01_workspace_RZA2M_ANPR/ANPR_RZA2M_GR_MANGO/src/tensorflow_lite/src/tensorflow/lite/micro/kernels\kernel_util.h **** 
  29:C:/Renesas/e2studio_2021_01_workspace_RZA2M_ANPR/ANPR_RZA2M_GR_MANGO/src/tensorflow_lite/src/tensorflow/lite/micro/kernels\kernel_util.h **** // Returns a mutable tensor for a given input index. is_variable must be checked
  30:C:/Renesas/e2studio_2021_01_workspace_RZA2M_ANPR/ANPR_RZA2M_GR_MANGO/src/tensorflow_lite/src/tensorflow/lite/micro/kernels\kernel_util.h **** // during prepare when the full TfLiteTensor is available.
  31:C:/Renesas/e2studio_2021_01_workspace_RZA2M_ANPR/ANPR_RZA2M_GR_MANGO/src/tensorflow_lite/src/tensorflow/lite/micro/kernels\kernel_util.h **** inline TfLiteEvalTensor* GetMutableEvalInput(const TfLiteContext* context,
  32:C:/Renesas/e2studio_2021_01_workspace_RZA2M_ANPR/ANPR_RZA2M_GR_MANGO/src/tensorflow_lite/src/tensorflow/lite/micro/kernels\kernel_util.h ****                                              const TfLiteNode* node,
  33:C:/Renesas/e2studio_2021_01_workspace_RZA2M_ANPR/ANPR_RZA2M_GR_MANGO/src/tensorflow_lite/src/tensorflow/lite/micro/kernels\kernel_util.h ****                                              int index) {
  34:C:/Renesas/e2studio_2021_01_workspace_RZA2M_ANPR/ANPR_RZA2M_GR_MANGO/src/tensorflow_lite/src/tensorflow/lite/micro/kernels\kernel_util.h ****   TFLITE_DCHECK(context != nullptr);
  35:C:/Renesas/e2studio_2021_01_workspace_RZA2M_ANPR/ANPR_RZA2M_GR_MANGO/src/tensorflow_lite/src/tensorflow/lite/micro/kernels\kernel_util.h ****   TFLITE_DCHECK(node != nullptr);
  36:C:/Renesas/e2studio_2021_01_workspace_RZA2M_ANPR/ANPR_RZA2M_GR_MANGO/src/tensorflow_lite/src/tensorflow/lite/micro/kernels\kernel_util.h ****   return context->GetEvalTensor(context, node->inputs->data[index]);
  37:C:/Renesas/e2studio_2021_01_workspace_RZA2M_ANPR/ANPR_RZA2M_GR_MANGO/src/tensorflow_lite/src/tensorflow/lite/micro/kernels\kernel_util.h **** }
  38:C:/Renesas/e2studio_2021_01_workspace_RZA2M_ANPR/ANPR_RZA2M_GR_MANGO/src/tensorflow_lite/src/tensorflow/lite/micro/kernels\kernel_util.h **** 
  39:C:/Renesas/e2studio_2021_01_workspace_RZA2M_ANPR/ANPR_RZA2M_GR_MANGO/src/tensorflow_lite/src/tensorflow/lite/micro/kernels\kernel_util.h **** // Returns the TfLiteEvalTensor struct for a given input index in a node.
  40:C:/Renesas/e2studio_2021_01_workspace_RZA2M_ANPR/ANPR_RZA2M_GR_MANGO/src/tensorflow_lite/src/tensorflow/lite/micro/kernels\kernel_util.h **** inline const TfLiteEvalTensor* GetEvalInput(const TfLiteContext* context,
  41:C:/Renesas/e2studio_2021_01_workspace_RZA2M_ANPR/ANPR_RZA2M_GR_MANGO/src/tensorflow_lite/src/tensorflow/lite/micro/kernels\kernel_util.h ****                                             const TfLiteNode* node, int index) {
  42:C:/Renesas/e2studio_2021_01_workspace_RZA2M_ANPR/ANPR_RZA2M_GR_MANGO/src/tensorflow_lite/src/tensorflow/lite/micro/kernels\kernel_util.h ****   return GetMutableEvalInput(context, node, index);
  43:C:/Renesas/e2studio_2021_01_workspace_RZA2M_ANPR/ANPR_RZA2M_GR_MANGO/src/tensorflow_lite/src/tensorflow/lite/micro/kernels\kernel_util.h **** }
  44:C:/Renesas/e2studio_2021_01_workspace_RZA2M_ANPR/ANPR_RZA2M_GR_MANGO/src/tensorflow_lite/src/tensorflow/lite/micro/kernels\kernel_util.h **** 
  45:C:/Renesas/e2studio_2021_01_workspace_RZA2M_ANPR/ANPR_RZA2M_GR_MANGO/src/tensorflow_lite/src/tensorflow/lite/micro/kernels\kernel_util.h **** // Returns the TfLiteEvalTensor struct for a given output index in a node.
  46:C:/Renesas/e2studio_2021_01_workspace_RZA2M_ANPR/ANPR_RZA2M_GR_MANGO/src/tensorflow_lite/src/tensorflow/lite/micro/kernels\kernel_util.h **** inline TfLiteEvalTensor* GetEvalOutput(const TfLiteContext* context,
  47:C:/Renesas/e2studio_2021_01_workspace_RZA2M_ANPR/ANPR_RZA2M_GR_MANGO/src/tensorflow_lite/src/tensorflow/lite/micro/kernels\kernel_util.h ****                                        const TfLiteNode* node, int index) {
  48:C:/Renesas/e2studio_2021_01_workspace_RZA2M_ANPR/ANPR_RZA2M_GR_MANGO/src/tensorflow_lite/src/tensorflow/lite/micro/kernels\kernel_util.h ****   TFLITE_DCHECK(context != nullptr);
 401              		.loc 3 48 0
 402 034c 000057E3 		cmp	r7, #0
 403 0350 2100000A 		beq	.L22
  49:C:/Renesas/e2studio_2021_01_workspace_RZA2M_ANPR/ANPR_RZA2M_GR_MANGO/src/tensorflow_lite/src/tensorflow/lite/micro/kernels\kernel_util.h ****   TFLITE_DCHECK(node != nullptr);
  50:C:/Renesas/e2studio_2021_01_workspace_RZA2M_ANPR/ANPR_RZA2M_GR_MANGO/src/tensorflow_lite/src/tensorflow/lite/micro/kernels\kernel_util.h ****   return context->GetEvalTensor(context, node->outputs->data[index]);
 404              		.loc 3 50 0
 405 0354 042096E5 		ldr	r2, [r6, #4]
 406 0358 0700A0E1 		mov	r0, r7
 407 035c 543097E5 		ldr	r3, [r7, #84]
 408 0360 041092E5 		ldr	r1, [r2, #4]
 409 0364 33FF2FE1 		blx	r3
 410              	.LVL51:
 411              	.LBE155:
 412              	.LBE154:
 413              	.LBB157:
  79:../src/tensorflow_lite/src/tensorflow/lite/micro/kernels/depth_to_space.cpp ****                                  context, output, output_eval));
 414              		.loc 1 79 0
 415 0368 14109DE5 		ldr	r1, [sp, #20]
 416 036c 0020A0E1 		mov	r2, r0
 417 0370 0700A0E1 		mov	r0, r7
 418 0374 FEFFFFEB 		bl	_ZN6tflite5micro32CreateWritableTensorDimsWithCopyEP13TfLiteContextP12TfLiteTensorP16TfLiteEval
 419              	.LVL52:
 420 0378 000050E3 		cmp	r0, #0
 421              	.LVL53:
 422 037c 3AFFFF1A 		bne	.L3
 423              	.LBE157:
  81:../src/tensorflow_lite/src/tensorflow/lite/micro/kernels/depth_to_space.cpp ****   output->dims->data[kHeightRank] = output_height;
 424              		.loc 1 81 0
 425 0380 10209DE5 		ldr	r2, [sp, #16]
 426 0384 14309DE5 		ldr	r3, [sp, #20]
 427 0388 082092E5 		ldr	r2, [r2, #8]
 428 038c 083093E5 		ldr	r3, [r3, #8]
 429 0390 042092E5 		ldr	r2, [r2, #4]
  82:../src/tensorflow_lite/src/tensorflow/lite/micro/kernels/depth_to_space.cpp ****   output->dims->data[kWidthRank] = output_width;
 430              		.loc 1 82 0
 431 0394 088083E5 		str	r8, [r3, #8]
  83:../src/tensorflow_lite/src/tensorflow/lite/micro/kernels/depth_to_space.cpp ****   output->dims->data[kDepthRank] = output_channels;
 432              		.loc 1 83 0
 433 0398 0C4083E5 		str	r4, [r3, #12]
  81:../src/tensorflow_lite/src/tensorflow/lite/micro/kernels/depth_to_space.cpp ****   output->dims->data[kHeightRank] = output_height;
 434              		.loc 1 81 0
 435 039c 042083E5 		str	r2, [r3, #4]
  84:../src/tensorflow_lite/src/tensorflow/lite/micro/kernels/depth_to_space.cpp **** 
 436              		.loc 1 84 0
 437 03a0 10A083E5 		str	r10, [r3, #16]
 438 03a4 30FFFFEA 		b	.L3
 439              	.LVL54:
 440              	.L19:
  57:../src/tensorflow_lite/src/tensorflow/lite/micro/kernels/depth_to_space.cpp ****   const int input_height = input->dims->data[kHeightRank];
 441              		.loc 1 57 0
 442 03a8 003000E3 		movw	r3, #:lower16:.LC13
 443              	.LVL55:
 444 03ac 002000E3 		movw	r2, #:lower16:.LC1
 445              	.LVL56:
 446 03b0 003040E3 		movt	r3, #:upper16:.LC13
 447 03b4 001000E3 		movw	r1, #:lower16:.LC8
 448 03b8 00308DE5 		str	r3, [sp]
 449              	.LVL57:
 450 03bc 0700A0E1 		mov	r0, r7
 451 03c0 002040E3 		movt	r2, #:upper16:.LC1
 452 03c4 001040E3 		movt	r1, #:upper16:.LC8
 453 03c8 145097E5 		ldr	r5, [r7, #20]
 454              	.LVL58:
 455 03cc 3930A0E3 		mov	r3, #57
 456 03d0 35FF2FE1 		blx	r5
 457              	.LVL59:
 458 03d4 0400A0E1 		mov	r0, r4
 459 03d8 23FFFFEA 		b	.L3
 460              	.LVL60:
 461              	.L22:
 462              	.LBB158:
 463              	.LBB156:
  48:C:/Renesas/e2studio_2021_01_workspace_RZA2M_ANPR/ANPR_RZA2M_GR_MANGO/src/tensorflow_lite/src/tensorflow/lite/micro/kernels\kernel_util.h ****   TFLITE_DCHECK(node != nullptr);
 464              		.loc 3 48 0
 465 03dc FEFFFFEB 		bl	abort
 466              	.LVL61:
 467              	.LBE156:
 468              	.LBE158:
 469              	.LBE161:
 470              	.LBE164:
 471              		.cfi_endproc
 472              	.LFE914:
 473              		.fnend
 475              		.global	__aeabi_idivmod
 476              		.section	.text._ZN6tflite12_GLOBAL__N_14EvalEP13TfLiteContextP10TfLiteNode,"ax",%progbits
 477              		.align	2
 478              		.syntax unified
 479              		.arm
 480              		.fpu neon
 482              	_ZN6tflite12_GLOBAL__N_14EvalEP13TfLiteContextP10TfLiteNode:
 483              		.fnstart
 484              	.LFB915:
  92:../src/tensorflow_lite/src/tensorflow/lite/micro/kernels/depth_to_space.cpp **** 
  93:../src/tensorflow_lite/src/tensorflow/lite/micro/kernels/depth_to_space.cpp **** TfLiteStatus Eval(TfLiteContext* context, TfLiteNode* node) {
 485              		.loc 1 93 0
 486              		.cfi_startproc
 487              		.cfi_personality 0,__gxx_personality_v0
 488              		.cfi_lsda 0,.LLSDA915
 489              		@ args = 0, pretend = 0, frame = 176
 490              		@ frame_needed = 0, uses_anonymous_args = 0
 491              	.LVL62:
 492 0000 F04F2DE9 		push	{r4, r5, r6, r7, r8, r9, r10, fp, lr}
 493              		.save {r4, r5, r6, r7, r8, r9, r10, fp, lr}
 494              		.cfi_def_cfa_offset 36
 495              		.cfi_offset 4, -36
 496              		.cfi_offset 5, -32
 497              		.cfi_offset 6, -28
 498              		.cfi_offset 7, -24
 499              		.cfi_offset 8, -20
 500              		.cfi_offset 9, -16
 501              		.cfi_offset 10, -12
 502              		.cfi_offset 11, -8
 503              		.cfi_offset 14, -4
 504              	.LBB337:
 505              	.LBB338:
 506              	.LBB339:
  34:C:/Renesas/e2studio_2021_01_workspace_RZA2M_ANPR/ANPR_RZA2M_GR_MANGO/src/tensorflow_lite/src/tensorflow/lite/micro/kernels\kernel_util.h ****   TFLITE_DCHECK(node != nullptr);
 507              		.loc 3 34 0
 508 0004 005050E2 		subs	r5, r0, #0
 509              	.LBE339:
 510              	.LBE338:
 511              	.LBE337:
 512              		.loc 1 93 0
 513              		.pad #180
 514 0008 B4D04DE2 		sub	sp, sp, #180
 515              		.cfi_def_cfa_offset 216
  94:../src/tensorflow_lite/src/tensorflow/lite/micro/kernels/depth_to_space.cpp ****   auto* params =
  95:../src/tensorflow_lite/src/tensorflow/lite/micro/kernels/depth_to_space.cpp ****       reinterpret_cast<TfLiteDepthToSpaceParams*>(node->builtin_data);
 516              		.loc 1 95 0
 517 000c 147091E5 		ldr	r7, [r1, #20]
 518              	.LVL63:
 519              	.LBB346:
 520              	.LBB343:
 521              	.LBB340:
  34:C:/Renesas/e2studio_2021_01_workspace_RZA2M_ANPR/ANPR_RZA2M_GR_MANGO/src/tensorflow_lite/src/tensorflow/lite/micro/kernels\kernel_util.h ****   TFLITE_DCHECK(node != nullptr);
 522              		.loc 3 34 0
 523 0010 AB02000A 		beq	.L420
  36:C:/Renesas/e2studio_2021_01_workspace_RZA2M_ANPR/ANPR_RZA2M_GR_MANGO/src/tensorflow_lite/src/tensorflow/lite/micro/kernels\kernel_util.h **** }
 524              		.loc 3 36 0
 525 0014 002091E5 		ldr	r2, [r1]
 526 0018 0140A0E1 		mov	r4, r1
 527 001c 543095E5 		ldr	r3, [r5, #84]
 528 0020 041092E5 		ldr	r1, [r2, #4]
 529              	.LVL64:
 530              	.LEHB0:
 531 0024 33FF2FE1 		blx	r3
 532              	.LVL65:
 533              	.LBE340:
 534              	.LBE343:
 535              	.LBE346:
 536              	.LBB347:
 537              	.LBB348:
 538              		.loc 3 50 0
 539 0028 042094E5 		ldr	r2, [r4, #4]
 540              	.LBE348:
 541              	.LBE347:
 542              	.LBB351:
 543              	.LBB344:
 544              	.LBB341:
  36:C:/Renesas/e2studio_2021_01_workspace_RZA2M_ANPR/ANPR_RZA2M_GR_MANGO/src/tensorflow_lite/src/tensorflow/lite/micro/kernels\kernel_util.h **** }
 545              		.loc 3 36 0
 546 002c 0060A0E1 		mov	r6, r0
 547              	.LVL66:
 548              	.LBE341:
 549              	.LBE344:
 550              	.LBE351:
 551              	.LBB352:
 552              	.LBB349:
 553              		.loc 3 50 0
 554 0030 543095E5 		ldr	r3, [r5, #84]
 555 0034 0500A0E1 		mov	r0, r5
 556 0038 041092E5 		ldr	r1, [r2, #4]
 557 003c 33FF2FE1 		blx	r3
 558              	.LVL67:
 559              	.LBE349:
 560              	.LBE352:
  96:../src/tensorflow_lite/src/tensorflow/lite/micro/kernels/depth_to_space.cpp **** 
  97:../src/tensorflow_lite/src/tensorflow/lite/micro/kernels/depth_to_space.cpp ****   const TfLiteEvalTensor* input =
  98:../src/tensorflow_lite/src/tensorflow/lite/micro/kernels/depth_to_space.cpp ****       tflite::micro::GetEvalInput(context, node, kInputTensor);
  99:../src/tensorflow_lite/src/tensorflow/lite/micro/kernels/depth_to_space.cpp ****   TfLiteEvalTensor* output =
 100:../src/tensorflow_lite/src/tensorflow/lite/micro/kernels/depth_to_space.cpp ****       tflite::micro::GetEvalOutput(context, node, kOutputTensor);
 101:../src/tensorflow_lite/src/tensorflow/lite/micro/kernels/depth_to_space.cpp **** 
 102:../src/tensorflow_lite/src/tensorflow/lite/micro/kernels/depth_to_space.cpp ****   tflite::DepthToSpaceParams op_params;
 103:../src/tensorflow_lite/src/tensorflow/lite/micro/kernels/depth_to_space.cpp ****   op_params.block_size = static_cast<int32_t>(params->block_size);
 104:../src/tensorflow_lite/src/tensorflow/lite/micro/kernels/depth_to_space.cpp **** 
 105:../src/tensorflow_lite/src/tensorflow/lite/micro/kernels/depth_to_space.cpp ****   switch (input->type) {  // Already know in/out types are same.
 561              		.loc 1 105 0
 562 0040 0830D6E5 		ldrb	r3, [r6, #8]	@ zero_extendqisi2
 563              	.LBB353:
 564              	.LBB350:
 565              		.loc 3 50 0
 566 0044 0040A0E1 		mov	r4, r0
 567              	.LVL68:
 568              	.LBE350:
 569              	.LBE353:
 103:../src/tensorflow_lite/src/tensorflow/lite/micro/kernels/depth_to_space.cpp **** 
 570              		.loc 1 103 0
 571 0048 00A097E5 		ldr	r10, [r7]
 572              		.loc 1 105 0
 573 004c 010053E3 		cmp	r3, #1
 574 0050 2E00000A 		beq	.L26
 575 0054 090053E3 		cmp	r3, #9
 576 0058 2100001A 		bne	.L421
 106:../src/tensorflow_lite/src/tensorflow/lite/micro/kernels/depth_to_space.cpp ****     case kTfLiteFloat32:
 107:../src/tensorflow_lite/src/tensorflow/lite/micro/kernels/depth_to_space.cpp ****       reference_ops::DepthToSpace(op_params,
 108:../src/tensorflow_lite/src/tensorflow/lite/micro/kernels/depth_to_space.cpp ****                                   tflite::micro::GetTensorShape(input),
 109:../src/tensorflow_lite/src/tensorflow/lite/micro/kernels/depth_to_space.cpp ****                                   tflite::micro::GetTensorData<float>(input),
 110:../src/tensorflow_lite/src/tensorflow/lite/micro/kernels/depth_to_space.cpp ****                                   tflite::micro::GetTensorShape(output),
 111:../src/tensorflow_lite/src/tensorflow/lite/micro/kernels/depth_to_space.cpp ****                                   tflite::micro::GetTensorData<float>(output));
 112:../src/tensorflow_lite/src/tensorflow/lite/micro/kernels/depth_to_space.cpp ****       break;
 113:../src/tensorflow_lite/src/tensorflow/lite/micro/kernels/depth_to_space.cpp ****     case kTfLiteInt8:
 114:../src/tensorflow_lite/src/tensorflow/lite/micro/kernels/depth_to_space.cpp ****       reference_ops::DepthToSpace(op_params,
 115:../src/tensorflow_lite/src/tensorflow/lite/micro/kernels/depth_to_space.cpp ****                                   tflite::micro::GetTensorShape(input),
 577              		.loc 1 115 0
 578 005c 0610A0E1 		mov	r1, r6
 579 0060 50008DE2 		add	r0, sp, #80
 580 0064 FEFFFFEB 		bl	_ZN6tflite5micro14GetTensorShapeEPK16TfLiteEvalTensor
 581              	.LVL69:
 582              	.LEHE0:
 583              	.LBB354:
 584              	.LBB355:
  51:C:/Renesas/e2studio_2021_01_workspace_RZA2M_ANPR/ANPR_RZA2M_GR_MANGO/src/tensorflow_lite/src/tensorflow/lite/micro/kernels\kernel_util.h **** }
  52:C:/Renesas/e2studio_2021_01_workspace_RZA2M_ANPR/ANPR_RZA2M_GR_MANGO/src/tensorflow_lite/src/tensorflow/lite/micro/kernels\kernel_util.h **** 
  53:C:/Renesas/e2studio_2021_01_workspace_RZA2M_ANPR/ANPR_RZA2M_GR_MANGO/src/tensorflow_lite/src/tensorflow/lite/micro/kernels\kernel_util.h **** // Returns data for a TfLiteEvalTensor struct.
  54:C:/Renesas/e2studio_2021_01_workspace_RZA2M_ANPR/ANPR_RZA2M_GR_MANGO/src/tensorflow_lite/src/tensorflow/lite/micro/kernels\kernel_util.h **** template <typename T>
  55:C:/Renesas/e2studio_2021_01_workspace_RZA2M_ANPR/ANPR_RZA2M_GR_MANGO/src/tensorflow_lite/src/tensorflow/lite/micro/kernels\kernel_util.h **** T* GetTensorData(TfLiteEvalTensor* tensor) {
  56:C:/Renesas/e2studio_2021_01_workspace_RZA2M_ANPR/ANPR_RZA2M_GR_MANGO/src/tensorflow_lite/src/tensorflow/lite/micro/kernels\kernel_util.h ****   return tensor != nullptr ? reinterpret_cast<T*>(tensor->data.raw) : nullptr;
  57:C:/Renesas/e2studio_2021_01_workspace_RZA2M_ANPR/ANPR_RZA2M_GR_MANGO/src/tensorflow_lite/src/tensorflow/lite/micro/kernels\kernel_util.h **** }
  58:C:/Renesas/e2studio_2021_01_workspace_RZA2M_ANPR/ANPR_RZA2M_GR_MANGO/src/tensorflow_lite/src/tensorflow/lite/micro/kernels\kernel_util.h **** 
  59:C:/Renesas/e2studio_2021_01_workspace_RZA2M_ANPR/ANPR_RZA2M_GR_MANGO/src/tensorflow_lite/src/tensorflow/lite/micro/kernels\kernel_util.h **** // Returns const data for a TfLiteEvalTensor struct.
  60:C:/Renesas/e2studio_2021_01_workspace_RZA2M_ANPR/ANPR_RZA2M_GR_MANGO/src/tensorflow_lite/src/tensorflow/lite/micro/kernels\kernel_util.h **** template <typename T>
  61:C:/Renesas/e2studio_2021_01_workspace_RZA2M_ANPR/ANPR_RZA2M_GR_MANGO/src/tensorflow_lite/src/tensorflow/lite/micro/kernels\kernel_util.h **** const T* GetTensorData(const TfLiteEvalTensor* tensor) {
  62:C:/Renesas/e2studio_2021_01_workspace_RZA2M_ANPR/ANPR_RZA2M_GR_MANGO/src/tensorflow_lite/src/tensorflow/lite/micro/kernels\kernel_util.h ****   TFLITE_DCHECK(tensor != nullptr);
  63:C:/Renesas/e2studio_2021_01_workspace_RZA2M_ANPR/ANPR_RZA2M_GR_MANGO/src/tensorflow_lite/src/tensorflow/lite/micro/kernels\kernel_util.h ****   return reinterpret_cast<const T*>(tensor->data.raw);
 585              		.loc 3 63 0
 586 0068 003096E5 		ldr	r3, [r6]
 587              	.LBE355:
 588              	.LBE354:
 116:../src/tensorflow_lite/src/tensorflow/lite/micro/kernels/depth_to_space.cpp ****                                   tflite::micro::GetTensorData<int8_t>(input),
 117:../src/tensorflow_lite/src/tensorflow/lite/micro/kernels/depth_to_space.cpp ****                                   tflite::micro::GetTensorShape(output),
 589              		.loc 1 117 0
 590 006c 0410A0E1 		mov	r1, r4
 591 0070 68008DE2 		add	r0, sp, #104
 592              	.LBB357:
 593              	.LBB356:
 594              		.loc 3 63 0
 595 0074 28308DE5 		str	r3, [sp, #40]
 596              	.LEHB1:
 597              	.LBE356:
 598              	.LBE357:
 599              		.loc 1 117 0
 600 0078 FEFFFFEB 		bl	_ZN6tflite5micro14GetTensorShapeEPK16TfLiteEvalTensor
 601              	.LVL70:
 602              	.LEHE1:
 603 007c 50209DE5 		ldr	r2, [sp, #80]
 604              	.LBB358:
 605              	.LBB359:
  56:C:/Renesas/e2studio_2021_01_workspace_RZA2M_ANPR/ANPR_RZA2M_GR_MANGO/src/tensorflow_lite/src/tensorflow/lite/micro/kernels\kernel_util.h **** }
 606              		.loc 3 56 0
 607 0080 000054E3 		cmp	r4, #0
 608 0084 00409415 		ldrne	r4, [r4]
 609              	.LVL71:
 610              	.LBE359:
 611              	.LBE358:
 612              	.LBB360:
 613              	.LBB361:
 614              		.file 4 "C:/Renesas/e2studio_2021_01_workspace_RZA2M_ANPR/ANPR_RZA2M_GR_MANGO/src/tensorflow_lite/
   1:C:/Renesas/e2studio_2021_01_workspace_RZA2M_ANPR/ANPR_RZA2M_GR_MANGO/src/tensorflow_lite/src/tensorflow/lite/kernels/internal/reference\depth_to_space.h **** /* Copyright 2020 The TensorFlow Authors. All Rights Reserved.
   2:C:/Renesas/e2studio_2021_01_workspace_RZA2M_ANPR/ANPR_RZA2M_GR_MANGO/src/tensorflow_lite/src/tensorflow/lite/kernels/internal/reference\depth_to_space.h **** 
   3:C:/Renesas/e2studio_2021_01_workspace_RZA2M_ANPR/ANPR_RZA2M_GR_MANGO/src/tensorflow_lite/src/tensorflow/lite/kernels/internal/reference\depth_to_space.h **** Licensed under the Apache License, Version 2.0 (the "License");
   4:C:/Renesas/e2studio_2021_01_workspace_RZA2M_ANPR/ANPR_RZA2M_GR_MANGO/src/tensorflow_lite/src/tensorflow/lite/kernels/internal/reference\depth_to_space.h **** you may not use this file except in compliance with the License.
   5:C:/Renesas/e2studio_2021_01_workspace_RZA2M_ANPR/ANPR_RZA2M_GR_MANGO/src/tensorflow_lite/src/tensorflow/lite/kernels/internal/reference\depth_to_space.h **** You may obtain a copy of the License at
   6:C:/Renesas/e2studio_2021_01_workspace_RZA2M_ANPR/ANPR_RZA2M_GR_MANGO/src/tensorflow_lite/src/tensorflow/lite/kernels/internal/reference\depth_to_space.h **** 
   7:C:/Renesas/e2studio_2021_01_workspace_RZA2M_ANPR/ANPR_RZA2M_GR_MANGO/src/tensorflow_lite/src/tensorflow/lite/kernels/internal/reference\depth_to_space.h ****     http://www.apache.org/licenses/LICENSE-2.0
   8:C:/Renesas/e2studio_2021_01_workspace_RZA2M_ANPR/ANPR_RZA2M_GR_MANGO/src/tensorflow_lite/src/tensorflow/lite/kernels/internal/reference\depth_to_space.h **** 
   9:C:/Renesas/e2studio_2021_01_workspace_RZA2M_ANPR/ANPR_RZA2M_GR_MANGO/src/tensorflow_lite/src/tensorflow/lite/kernels/internal/reference\depth_to_space.h **** Unless required by applicable law or agreed to in writing, software
  10:C:/Renesas/e2studio_2021_01_workspace_RZA2M_ANPR/ANPR_RZA2M_GR_MANGO/src/tensorflow_lite/src/tensorflow/lite/kernels/internal/reference\depth_to_space.h **** distributed under the License is distributed on an "AS IS" BASIS,
  11:C:/Renesas/e2studio_2021_01_workspace_RZA2M_ANPR/ANPR_RZA2M_GR_MANGO/src/tensorflow_lite/src/tensorflow/lite/kernels/internal/reference\depth_to_space.h **** WITHOUT WARRANTIES OR CONDITIONS OF ANY KIND, either express or implied.
  12:C:/Renesas/e2studio_2021_01_workspace_RZA2M_ANPR/ANPR_RZA2M_GR_MANGO/src/tensorflow_lite/src/tensorflow/lite/kernels/internal/reference\depth_to_space.h **** See the License for the specific language governing permissions and
  13:C:/Renesas/e2studio_2021_01_workspace_RZA2M_ANPR/ANPR_RZA2M_GR_MANGO/src/tensorflow_lite/src/tensorflow/lite/kernels/internal/reference\depth_to_space.h **** limitations under the License.
  14:C:/Renesas/e2studio_2021_01_workspace_RZA2M_ANPR/ANPR_RZA2M_GR_MANGO/src/tensorflow_lite/src/tensorflow/lite/kernels/internal/reference\depth_to_space.h **** ==============================================================================*/
  15:C:/Renesas/e2studio_2021_01_workspace_RZA2M_ANPR/ANPR_RZA2M_GR_MANGO/src/tensorflow_lite/src/tensorflow/lite/kernels/internal/reference\depth_to_space.h **** #ifndef TENSORFLOW_LITE_KERNELS_INTERNAL_REFERENCE_DEPTH_TO_SPACE_H_
  16:C:/Renesas/e2studio_2021_01_workspace_RZA2M_ANPR/ANPR_RZA2M_GR_MANGO/src/tensorflow_lite/src/tensorflow/lite/kernels/internal/reference\depth_to_space.h **** #define TENSORFLOW_LITE_KERNELS_INTERNAL_REFERENCE_DEPTH_TO_SPACE_H_
  17:C:/Renesas/e2studio_2021_01_workspace_RZA2M_ANPR/ANPR_RZA2M_GR_MANGO/src/tensorflow_lite/src/tensorflow/lite/kernels/internal/reference\depth_to_space.h **** 
  18:C:/Renesas/e2studio_2021_01_workspace_RZA2M_ANPR/ANPR_RZA2M_GR_MANGO/src/tensorflow_lite/src/tensorflow/lite/kernels/internal/reference\depth_to_space.h **** #include "tensorflow/lite/kernels/internal/types.h"
  19:C:/Renesas/e2studio_2021_01_workspace_RZA2M_ANPR/ANPR_RZA2M_GR_MANGO/src/tensorflow_lite/src/tensorflow/lite/kernels/internal/reference\depth_to_space.h **** 
  20:C:/Renesas/e2studio_2021_01_workspace_RZA2M_ANPR/ANPR_RZA2M_GR_MANGO/src/tensorflow_lite/src/tensorflow/lite/kernels/internal/reference\depth_to_space.h **** namespace tflite {
  21:C:/Renesas/e2studio_2021_01_workspace_RZA2M_ANPR/ANPR_RZA2M_GR_MANGO/src/tensorflow_lite/src/tensorflow/lite/kernels/internal/reference\depth_to_space.h **** namespace reference_ops {
  22:C:/Renesas/e2studio_2021_01_workspace_RZA2M_ANPR/ANPR_RZA2M_GR_MANGO/src/tensorflow_lite/src/tensorflow/lite/kernels/internal/reference\depth_to_space.h **** 
  23:C:/Renesas/e2studio_2021_01_workspace_RZA2M_ANPR/ANPR_RZA2M_GR_MANGO/src/tensorflow_lite/src/tensorflow/lite/kernels/internal/reference\depth_to_space.h **** template <typename T>
  24:C:/Renesas/e2studio_2021_01_workspace_RZA2M_ANPR/ANPR_RZA2M_GR_MANGO/src/tensorflow_lite/src/tensorflow/lite/kernels/internal/reference\depth_to_space.h **** inline void DepthToSpace(const tflite::DepthToSpaceParams& op_params,
  25:C:/Renesas/e2studio_2021_01_workspace_RZA2M_ANPR/ANPR_RZA2M_GR_MANGO/src/tensorflow_lite/src/tensorflow/lite/kernels/internal/reference\depth_to_space.h ****                          const RuntimeShape& unextended_input_shape,
  26:C:/Renesas/e2studio_2021_01_workspace_RZA2M_ANPR/ANPR_RZA2M_GR_MANGO/src/tensorflow_lite/src/tensorflow/lite/kernels/internal/reference\depth_to_space.h ****                          const T* input_data,
  27:C:/Renesas/e2studio_2021_01_workspace_RZA2M_ANPR/ANPR_RZA2M_GR_MANGO/src/tensorflow_lite/src/tensorflow/lite/kernels/internal/reference\depth_to_space.h ****                          const RuntimeShape& unextended_output_shape,
  28:C:/Renesas/e2studio_2021_01_workspace_RZA2M_ANPR/ANPR_RZA2M_GR_MANGO/src/tensorflow_lite/src/tensorflow/lite/kernels/internal/reference\depth_to_space.h ****                          T* output_data) {
  29:C:/Renesas/e2studio_2021_01_workspace_RZA2M_ANPR/ANPR_RZA2M_GR_MANGO/src/tensorflow_lite/src/tensorflow/lite/kernels/internal/reference\depth_to_space.h ****   TFLITE_DCHECK_LE(unextended_input_shape.DimensionsCount(), 4);
 615              		.loc 4 29 0
 616 0088 040052E3 		cmp	r2, #4
 617 008c 3D0200CA 		bgt	.L422
 618 0090 68509DE5 		ldr	r5, [sp, #104]
 619              	.LVL72:
  30:C:/Renesas/e2studio_2021_01_workspace_RZA2M_ANPR/ANPR_RZA2M_GR_MANGO/src/tensorflow_lite/src/tensorflow/lite/kernels/internal/reference\depth_to_space.h ****   TFLITE_DCHECK_LE(unextended_output_shape.DimensionsCount(), 4);
 620              		.loc 4 30 0
 621 0094 040055E3 		cmp	r5, #4
 622 0098 6E0200CA 		bgt	.L423
 623              	.LVL73:
 624              	.LBB362:
 625              	.LBB363:
 626              	.LBB364:
 627              	.LBB365:
 628              	.LBB366:
 629              		.file 5 "C:/Renesas/e2studio_2021_01_workspace_RZA2M_ANPR/ANPR_RZA2M_GR_MANGO/src/tensorflow_lite/
   1:C:/Renesas/e2studio_2021_01_workspace_RZA2M_ANPR/ANPR_RZA2M_GR_MANGO/src/tensorflow_lite/src/tensorflow/lite/kernels/internal\types.h **** /* Copyright 2018 The TensorFlow Authors. All Rights Reserved.
   2:C:/Renesas/e2studio_2021_01_workspace_RZA2M_ANPR/ANPR_RZA2M_GR_MANGO/src/tensorflow_lite/src/tensorflow/lite/kernels/internal\types.h **** 
   3:C:/Renesas/e2studio_2021_01_workspace_RZA2M_ANPR/ANPR_RZA2M_GR_MANGO/src/tensorflow_lite/src/tensorflow/lite/kernels/internal\types.h **** Licensed under the Apache License, Version 2.0 (the "License");
   4:C:/Renesas/e2studio_2021_01_workspace_RZA2M_ANPR/ANPR_RZA2M_GR_MANGO/src/tensorflow_lite/src/tensorflow/lite/kernels/internal\types.h **** you may not use this file except in compliance with the License.
   5:C:/Renesas/e2studio_2021_01_workspace_RZA2M_ANPR/ANPR_RZA2M_GR_MANGO/src/tensorflow_lite/src/tensorflow/lite/kernels/internal\types.h **** You may obtain a copy of the License at
   6:C:/Renesas/e2studio_2021_01_workspace_RZA2M_ANPR/ANPR_RZA2M_GR_MANGO/src/tensorflow_lite/src/tensorflow/lite/kernels/internal\types.h **** 
   7:C:/Renesas/e2studio_2021_01_workspace_RZA2M_ANPR/ANPR_RZA2M_GR_MANGO/src/tensorflow_lite/src/tensorflow/lite/kernels/internal\types.h ****     http://www.apache.org/licenses/LICENSE-2.0
   8:C:/Renesas/e2studio_2021_01_workspace_RZA2M_ANPR/ANPR_RZA2M_GR_MANGO/src/tensorflow_lite/src/tensorflow/lite/kernels/internal\types.h **** 
   9:C:/Renesas/e2studio_2021_01_workspace_RZA2M_ANPR/ANPR_RZA2M_GR_MANGO/src/tensorflow_lite/src/tensorflow/lite/kernels/internal\types.h **** Unless required by applicable law or agreed to in writing, software
  10:C:/Renesas/e2studio_2021_01_workspace_RZA2M_ANPR/ANPR_RZA2M_GR_MANGO/src/tensorflow_lite/src/tensorflow/lite/kernels/internal\types.h **** distributed under the License is distributed on an "AS IS" BASIS,
  11:C:/Renesas/e2studio_2021_01_workspace_RZA2M_ANPR/ANPR_RZA2M_GR_MANGO/src/tensorflow_lite/src/tensorflow/lite/kernels/internal\types.h **** WITHOUT WARRANTIES OR CONDITIONS OF ANY KIND, either express or implied.
  12:C:/Renesas/e2studio_2021_01_workspace_RZA2M_ANPR/ANPR_RZA2M_GR_MANGO/src/tensorflow_lite/src/tensorflow/lite/kernels/internal\types.h **** See the License for the specific language governing permissions and
  13:C:/Renesas/e2studio_2021_01_workspace_RZA2M_ANPR/ANPR_RZA2M_GR_MANGO/src/tensorflow_lite/src/tensorflow/lite/kernels/internal\types.h **** limitations under the License.
  14:C:/Renesas/e2studio_2021_01_workspace_RZA2M_ANPR/ANPR_RZA2M_GR_MANGO/src/tensorflow_lite/src/tensorflow/lite/kernels/internal\types.h **** ==============================================================================*/
  15:C:/Renesas/e2studio_2021_01_workspace_RZA2M_ANPR/ANPR_RZA2M_GR_MANGO/src/tensorflow_lite/src/tensorflow/lite/kernels/internal\types.h **** #ifndef TENSORFLOW_LITE_KERNELS_INTERNAL_TYPES_H_
  16:C:/Renesas/e2studio_2021_01_workspace_RZA2M_ANPR/ANPR_RZA2M_GR_MANGO/src/tensorflow_lite/src/tensorflow/lite/kernels/internal\types.h **** #define TENSORFLOW_LITE_KERNELS_INTERNAL_TYPES_H_
  17:C:/Renesas/e2studio_2021_01_workspace_RZA2M_ANPR/ANPR_RZA2M_GR_MANGO/src/tensorflow_lite/src/tensorflow/lite/kernels/internal\types.h **** 
  18:C:/Renesas/e2studio_2021_01_workspace_RZA2M_ANPR/ANPR_RZA2M_GR_MANGO/src/tensorflow_lite/src/tensorflow/lite/kernels/internal\types.h **** #include <algorithm>
  19:C:/Renesas/e2studio_2021_01_workspace_RZA2M_ANPR/ANPR_RZA2M_GR_MANGO/src/tensorflow_lite/src/tensorflow/lite/kernels/internal\types.h **** #include <cstdint>
  20:C:/Renesas/e2studio_2021_01_workspace_RZA2M_ANPR/ANPR_RZA2M_GR_MANGO/src/tensorflow_lite/src/tensorflow/lite/kernels/internal\types.h **** #include <cstring>
  21:C:/Renesas/e2studio_2021_01_workspace_RZA2M_ANPR/ANPR_RZA2M_GR_MANGO/src/tensorflow_lite/src/tensorflow/lite/kernels/internal\types.h **** #include <initializer_list>
  22:C:/Renesas/e2studio_2021_01_workspace_RZA2M_ANPR/ANPR_RZA2M_GR_MANGO/src/tensorflow_lite/src/tensorflow/lite/kernels/internal\types.h **** 
  23:C:/Renesas/e2studio_2021_01_workspace_RZA2M_ANPR/ANPR_RZA2M_GR_MANGO/src/tensorflow_lite/src/tensorflow/lite/kernels/internal\types.h **** #include "tensorflow/lite/kernels/internal/compatibility.h"
  24:C:/Renesas/e2studio_2021_01_workspace_RZA2M_ANPR/ANPR_RZA2M_GR_MANGO/src/tensorflow_lite/src/tensorflow/lite/kernels/internal\types.h **** 
  25:C:/Renesas/e2studio_2021_01_workspace_RZA2M_ANPR/ANPR_RZA2M_GR_MANGO/src/tensorflow_lite/src/tensorflow/lite/kernels/internal\types.h **** namespace tflite {
  26:C:/Renesas/e2studio_2021_01_workspace_RZA2M_ANPR/ANPR_RZA2M_GR_MANGO/src/tensorflow_lite/src/tensorflow/lite/kernels/internal\types.h **** 
  27:C:/Renesas/e2studio_2021_01_workspace_RZA2M_ANPR/ANPR_RZA2M_GR_MANGO/src/tensorflow_lite/src/tensorflow/lite/kernels/internal\types.h **** enum class FusedActivationFunctionType : uint8_t {
  28:C:/Renesas/e2studio_2021_01_workspace_RZA2M_ANPR/ANPR_RZA2M_GR_MANGO/src/tensorflow_lite/src/tensorflow/lite/kernels/internal\types.h ****   kNone,
  29:C:/Renesas/e2studio_2021_01_workspace_RZA2M_ANPR/ANPR_RZA2M_GR_MANGO/src/tensorflow_lite/src/tensorflow/lite/kernels/internal\types.h ****   kRelu6,
  30:C:/Renesas/e2studio_2021_01_workspace_RZA2M_ANPR/ANPR_RZA2M_GR_MANGO/src/tensorflow_lite/src/tensorflow/lite/kernels/internal\types.h ****   kRelu1,
  31:C:/Renesas/e2studio_2021_01_workspace_RZA2M_ANPR/ANPR_RZA2M_GR_MANGO/src/tensorflow_lite/src/tensorflow/lite/kernels/internal\types.h ****   kRelu
  32:C:/Renesas/e2studio_2021_01_workspace_RZA2M_ANPR/ANPR_RZA2M_GR_MANGO/src/tensorflow_lite/src/tensorflow/lite/kernels/internal\types.h **** };
  33:C:/Renesas/e2studio_2021_01_workspace_RZA2M_ANPR/ANPR_RZA2M_GR_MANGO/src/tensorflow_lite/src/tensorflow/lite/kernels/internal\types.h **** enum class PaddingType : uint8_t { kNone, kSame, kValid };
  34:C:/Renesas/e2studio_2021_01_workspace_RZA2M_ANPR/ANPR_RZA2M_GR_MANGO/src/tensorflow_lite/src/tensorflow/lite/kernels/internal\types.h **** 
  35:C:/Renesas/e2studio_2021_01_workspace_RZA2M_ANPR/ANPR_RZA2M_GR_MANGO/src/tensorflow_lite/src/tensorflow/lite/kernels/internal\types.h **** struct PaddingValues {
  36:C:/Renesas/e2studio_2021_01_workspace_RZA2M_ANPR/ANPR_RZA2M_GR_MANGO/src/tensorflow_lite/src/tensorflow/lite/kernels/internal\types.h ****   int16_t width;
  37:C:/Renesas/e2studio_2021_01_workspace_RZA2M_ANPR/ANPR_RZA2M_GR_MANGO/src/tensorflow_lite/src/tensorflow/lite/kernels/internal\types.h ****   int16_t height;
  38:C:/Renesas/e2studio_2021_01_workspace_RZA2M_ANPR/ANPR_RZA2M_GR_MANGO/src/tensorflow_lite/src/tensorflow/lite/kernels/internal\types.h ****   // offset is used for calculating "remaining" padding, for example, `width`
  39:C:/Renesas/e2studio_2021_01_workspace_RZA2M_ANPR/ANPR_RZA2M_GR_MANGO/src/tensorflow_lite/src/tensorflow/lite/kernels/internal\types.h ****   // is 1 and `width_offset` is 1, so padding_left is 1 while padding_right is
  40:C:/Renesas/e2studio_2021_01_workspace_RZA2M_ANPR/ANPR_RZA2M_GR_MANGO/src/tensorflow_lite/src/tensorflow/lite/kernels/internal\types.h ****   // 1 + 1 = 2.
  41:C:/Renesas/e2studio_2021_01_workspace_RZA2M_ANPR/ANPR_RZA2M_GR_MANGO/src/tensorflow_lite/src/tensorflow/lite/kernels/internal\types.h ****   int16_t width_offset;
  42:C:/Renesas/e2studio_2021_01_workspace_RZA2M_ANPR/ANPR_RZA2M_GR_MANGO/src/tensorflow_lite/src/tensorflow/lite/kernels/internal\types.h ****   // Same as width_offset except it's over the height dimension.
  43:C:/Renesas/e2studio_2021_01_workspace_RZA2M_ANPR/ANPR_RZA2M_GR_MANGO/src/tensorflow_lite/src/tensorflow/lite/kernels/internal\types.h ****   int16_t height_offset;
  44:C:/Renesas/e2studio_2021_01_workspace_RZA2M_ANPR/ANPR_RZA2M_GR_MANGO/src/tensorflow_lite/src/tensorflow/lite/kernels/internal\types.h **** };
  45:C:/Renesas/e2studio_2021_01_workspace_RZA2M_ANPR/ANPR_RZA2M_GR_MANGO/src/tensorflow_lite/src/tensorflow/lite/kernels/internal\types.h **** 
  46:C:/Renesas/e2studio_2021_01_workspace_RZA2M_ANPR/ANPR_RZA2M_GR_MANGO/src/tensorflow_lite/src/tensorflow/lite/kernels/internal\types.h **** struct Padding3DValues {
  47:C:/Renesas/e2studio_2021_01_workspace_RZA2M_ANPR/ANPR_RZA2M_GR_MANGO/src/tensorflow_lite/src/tensorflow/lite/kernels/internal\types.h ****   int16_t width;
  48:C:/Renesas/e2studio_2021_01_workspace_RZA2M_ANPR/ANPR_RZA2M_GR_MANGO/src/tensorflow_lite/src/tensorflow/lite/kernels/internal\types.h ****   int16_t height;
  49:C:/Renesas/e2studio_2021_01_workspace_RZA2M_ANPR/ANPR_RZA2M_GR_MANGO/src/tensorflow_lite/src/tensorflow/lite/kernels/internal\types.h ****   int16_t depth;
  50:C:/Renesas/e2studio_2021_01_workspace_RZA2M_ANPR/ANPR_RZA2M_GR_MANGO/src/tensorflow_lite/src/tensorflow/lite/kernels/internal\types.h ****   // offset is used for calculating "remaining" padding, for example, `width`
  51:C:/Renesas/e2studio_2021_01_workspace_RZA2M_ANPR/ANPR_RZA2M_GR_MANGO/src/tensorflow_lite/src/tensorflow/lite/kernels/internal\types.h ****   // is 1 and `width_offset` is 1, so padding_left is 1 while padding_right is
  52:C:/Renesas/e2studio_2021_01_workspace_RZA2M_ANPR/ANPR_RZA2M_GR_MANGO/src/tensorflow_lite/src/tensorflow/lite/kernels/internal\types.h ****   // 1 + 1 = 2.
  53:C:/Renesas/e2studio_2021_01_workspace_RZA2M_ANPR/ANPR_RZA2M_GR_MANGO/src/tensorflow_lite/src/tensorflow/lite/kernels/internal\types.h ****   int16_t width_offset;
  54:C:/Renesas/e2studio_2021_01_workspace_RZA2M_ANPR/ANPR_RZA2M_GR_MANGO/src/tensorflow_lite/src/tensorflow/lite/kernels/internal\types.h ****   // Same as width_offset except it's over the height dimension.
  55:C:/Renesas/e2studio_2021_01_workspace_RZA2M_ANPR/ANPR_RZA2M_GR_MANGO/src/tensorflow_lite/src/tensorflow/lite/kernels/internal\types.h ****   int16_t height_offset;
  56:C:/Renesas/e2studio_2021_01_workspace_RZA2M_ANPR/ANPR_RZA2M_GR_MANGO/src/tensorflow_lite/src/tensorflow/lite/kernels/internal\types.h ****   // Same as width_offset except it's over the depth dimension.
  57:C:/Renesas/e2studio_2021_01_workspace_RZA2M_ANPR/ANPR_RZA2M_GR_MANGO/src/tensorflow_lite/src/tensorflow/lite/kernels/internal\types.h ****   int16_t depth_offset;
  58:C:/Renesas/e2studio_2021_01_workspace_RZA2M_ANPR/ANPR_RZA2M_GR_MANGO/src/tensorflow_lite/src/tensorflow/lite/kernels/internal\types.h **** };
  59:C:/Renesas/e2studio_2021_01_workspace_RZA2M_ANPR/ANPR_RZA2M_GR_MANGO/src/tensorflow_lite/src/tensorflow/lite/kernels/internal\types.h **** 
  60:C:/Renesas/e2studio_2021_01_workspace_RZA2M_ANPR/ANPR_RZA2M_GR_MANGO/src/tensorflow_lite/src/tensorflow/lite/kernels/internal\types.h **** // This enumeration allows for non-default formats for the weights array
  61:C:/Renesas/e2studio_2021_01_workspace_RZA2M_ANPR/ANPR_RZA2M_GR_MANGO/src/tensorflow_lite/src/tensorflow/lite/kernels/internal\types.h **** // of a fully-connected operator, allowing the use of special optimized
  62:C:/Renesas/e2studio_2021_01_workspace_RZA2M_ANPR/ANPR_RZA2M_GR_MANGO/src/tensorflow_lite/src/tensorflow/lite/kernels/internal\types.h **** // runtime paths.
  63:C:/Renesas/e2studio_2021_01_workspace_RZA2M_ANPR/ANPR_RZA2M_GR_MANGO/src/tensorflow_lite/src/tensorflow/lite/kernels/internal\types.h **** enum class FullyConnectedWeightsFormat : uint8_t {
  64:C:/Renesas/e2studio_2021_01_workspace_RZA2M_ANPR/ANPR_RZA2M_GR_MANGO/src/tensorflow_lite/src/tensorflow/lite/kernels/internal\types.h ****   // Default format (flat 2D layout, the inner contiguous dimension
  65:C:/Renesas/e2studio_2021_01_workspace_RZA2M_ANPR/ANPR_RZA2M_GR_MANGO/src/tensorflow_lite/src/tensorflow/lite/kernels/internal\types.h ****   // is input_depth, the outer non-contiguous dimension is output_depth)
  66:C:/Renesas/e2studio_2021_01_workspace_RZA2M_ANPR/ANPR_RZA2M_GR_MANGO/src/tensorflow_lite/src/tensorflow/lite/kernels/internal\types.h ****   kDefault,
  67:C:/Renesas/e2studio_2021_01_workspace_RZA2M_ANPR/ANPR_RZA2M_GR_MANGO/src/tensorflow_lite/src/tensorflow/lite/kernels/internal\types.h ****   // Summary: optimized layout for fast CPU runtime implementation,
  68:C:/Renesas/e2studio_2021_01_workspace_RZA2M_ANPR/ANPR_RZA2M_GR_MANGO/src/tensorflow_lite/src/tensorflow/lite/kernels/internal\types.h ****   // aimed specifically at ARM CPUs at the moment, and specialized for
  69:C:/Renesas/e2studio_2021_01_workspace_RZA2M_ANPR/ANPR_RZA2M_GR_MANGO/src/tensorflow_lite/src/tensorflow/lite/kernels/internal\types.h ****   // 8-bit quantized layers.
  70:C:/Renesas/e2studio_2021_01_workspace_RZA2M_ANPR/ANPR_RZA2M_GR_MANGO/src/tensorflow_lite/src/tensorflow/lite/kernels/internal\types.h ****   //
  71:C:/Renesas/e2studio_2021_01_workspace_RZA2M_ANPR/ANPR_RZA2M_GR_MANGO/src/tensorflow_lite/src/tensorflow/lite/kernels/internal\types.h ****   // The use case we're concerned with here is: 8-bit quantization,
  72:C:/Renesas/e2studio_2021_01_workspace_RZA2M_ANPR/ANPR_RZA2M_GR_MANGO/src/tensorflow_lite/src/tensorflow/lite/kernels/internal\types.h ****   // large weights matrix that doesn't fit in cache (e.g. 4096x2048 in
  73:C:/Renesas/e2studio_2021_01_workspace_RZA2M_ANPR/ANPR_RZA2M_GR_MANGO/src/tensorflow_lite/src/tensorflow/lite/kernels/internal\types.h ****   // a key application that drove this), very small batch size (e.g. 1 -- 4).
  74:C:/Renesas/e2studio_2021_01_workspace_RZA2M_ANPR/ANPR_RZA2M_GR_MANGO/src/tensorflow_lite/src/tensorflow/lite/kernels/internal\types.h ****   //
  75:C:/Renesas/e2studio_2021_01_workspace_RZA2M_ANPR/ANPR_RZA2M_GR_MANGO/src/tensorflow_lite/src/tensorflow/lite/kernels/internal\types.h ****   // Even with 8-bit quantization of weights, the performance of memory
  76:C:/Renesas/e2studio_2021_01_workspace_RZA2M_ANPR/ANPR_RZA2M_GR_MANGO/src/tensorflow_lite/src/tensorflow/lite/kernels/internal\types.h ****   // accesses to the weights can become the dominant issue when
  77:C:/Renesas/e2studio_2021_01_workspace_RZA2M_ANPR/ANPR_RZA2M_GR_MANGO/src/tensorflow_lite/src/tensorflow/lite/kernels/internal\types.h ****   // the batch size is small, so each weight value is used in only a few
  78:C:/Renesas/e2studio_2021_01_workspace_RZA2M_ANPR/ANPR_RZA2M_GR_MANGO/src/tensorflow_lite/src/tensorflow/lite/kernels/internal\types.h ****   // arithmetic ops, i.e. the fully-connected node has a low arithmetic
  79:C:/Renesas/e2studio_2021_01_workspace_RZA2M_ANPR/ANPR_RZA2M_GR_MANGO/src/tensorflow_lite/src/tensorflow/lite/kernels/internal\types.h ****   // intensity. The specific issues that arise are of three kinds:
  80:C:/Renesas/e2studio_2021_01_workspace_RZA2M_ANPR/ANPR_RZA2M_GR_MANGO/src/tensorflow_lite/src/tensorflow/lite/kernels/internal\types.h ****   // (1) One may, ideally, max out DRAM bandwidth, i.e. be truly memory
  81:C:/Renesas/e2studio_2021_01_workspace_RZA2M_ANPR/ANPR_RZA2M_GR_MANGO/src/tensorflow_lite/src/tensorflow/lite/kernels/internal\types.h ****   //     bound. That's the "good" issue to run into.
  82:C:/Renesas/e2studio_2021_01_workspace_RZA2M_ANPR/ANPR_RZA2M_GR_MANGO/src/tensorflow_lite/src/tensorflow/lite/kernels/internal\types.h ****   // (2) One may run into sub-optimal pre-fetching: the data hasn't been
  83:C:/Renesas/e2studio_2021_01_workspace_RZA2M_ANPR/ANPR_RZA2M_GR_MANGO/src/tensorflow_lite/src/tensorflow/lite/kernels/internal\types.h ****   //     prefetched into the cache by the time we need it.
  84:C:/Renesas/e2studio_2021_01_workspace_RZA2M_ANPR/ANPR_RZA2M_GR_MANGO/src/tensorflow_lite/src/tensorflow/lite/kernels/internal\types.h ****   // (3) One may run into cache aliasing: multiple values that are
  85:C:/Renesas/e2studio_2021_01_workspace_RZA2M_ANPR/ANPR_RZA2M_GR_MANGO/src/tensorflow_lite/src/tensorflow/lite/kernels/internal\types.h ****   //     pre-fetched, alias each other in the L1 cache (which typically
  86:C:/Renesas/e2studio_2021_01_workspace_RZA2M_ANPR/ANPR_RZA2M_GR_MANGO/src/tensorflow_lite/src/tensorflow/lite/kernels/internal\types.h ****   //     has only 4-way set associativity in ARM CPUs) and thus evict
  87:C:/Renesas/e2studio_2021_01_workspace_RZA2M_ANPR/ANPR_RZA2M_GR_MANGO/src/tensorflow_lite/src/tensorflow/lite/kernels/internal\types.h ****   //     each other before we get to using them.
  88:C:/Renesas/e2studio_2021_01_workspace_RZA2M_ANPR/ANPR_RZA2M_GR_MANGO/src/tensorflow_lite/src/tensorflow/lite/kernels/internal\types.h ****   //
  89:C:/Renesas/e2studio_2021_01_workspace_RZA2M_ANPR/ANPR_RZA2M_GR_MANGO/src/tensorflow_lite/src/tensorflow/lite/kernels/internal\types.h ****   // The point of this shuffling is to avoid issues (2) and (3) so that
  90:C:/Renesas/e2studio_2021_01_workspace_RZA2M_ANPR/ANPR_RZA2M_GR_MANGO/src/tensorflow_lite/src/tensorflow/lite/kernels/internal\types.h ****   // we get as fast as possible given only the hard constraint (1).
  91:C:/Renesas/e2studio_2021_01_workspace_RZA2M_ANPR/ANPR_RZA2M_GR_MANGO/src/tensorflow_lite/src/tensorflow/lite/kernels/internal\types.h ****   // This is achieved by turning the difficulty into a solution: the
  92:C:/Renesas/e2studio_2021_01_workspace_RZA2M_ANPR/ANPR_RZA2M_GR_MANGO/src/tensorflow_lite/src/tensorflow/lite/kernels/internal\types.h ****   // difficulty, that each value loaded from memory is used only in
  93:C:/Renesas/e2studio_2021_01_workspace_RZA2M_ANPR/ANPR_RZA2M_GR_MANGO/src/tensorflow_lite/src/tensorflow/lite/kernels/internal\types.h ****   // one kernel iteration, making this operation memory-intensive, hints at
  94:C:/Renesas/e2studio_2021_01_workspace_RZA2M_ANPR/ANPR_RZA2M_GR_MANGO/src/tensorflow_lite/src/tensorflow/lite/kernels/internal\types.h ****   // the solution, of shuffling the weights so that they are stored in the
  95:C:/Renesas/e2studio_2021_01_workspace_RZA2M_ANPR/ANPR_RZA2M_GR_MANGO/src/tensorflow_lite/src/tensorflow/lite/kernels/internal\types.h ****   // exact order as the kernel needs to load them, so that the memory
  96:C:/Renesas/e2studio_2021_01_workspace_RZA2M_ANPR/ANPR_RZA2M_GR_MANGO/src/tensorflow_lite/src/tensorflow/lite/kernels/internal\types.h ****   // accesses made by the kernel are trivial. This solves (2) because the
  97:C:/Renesas/e2studio_2021_01_workspace_RZA2M_ANPR/ANPR_RZA2M_GR_MANGO/src/tensorflow_lite/src/tensorflow/lite/kernels/internal\types.h ****   // trivial memory access pattern allows the CPU's automatic prefetching
  98:C:/Renesas/e2studio_2021_01_workspace_RZA2M_ANPR/ANPR_RZA2M_GR_MANGO/src/tensorflow_lite/src/tensorflow/lite/kernels/internal\types.h ****   // to perform very well (no need even for preload instructions), and this
  99:C:/Renesas/e2studio_2021_01_workspace_RZA2M_ANPR/ANPR_RZA2M_GR_MANGO/src/tensorflow_lite/src/tensorflow/lite/kernels/internal\types.h ****   // solves (3) because the values being loaded concurrently are now
 100:C:/Renesas/e2studio_2021_01_workspace_RZA2M_ANPR/ANPR_RZA2M_GR_MANGO/src/tensorflow_lite/src/tensorflow/lite/kernels/internal\types.h ****   // contiguous in the address space, thus don't alias each other in the cache.
 101:C:/Renesas/e2studio_2021_01_workspace_RZA2M_ANPR/ANPR_RZA2M_GR_MANGO/src/tensorflow_lite/src/tensorflow/lite/kernels/internal\types.h ****   //
 102:C:/Renesas/e2studio_2021_01_workspace_RZA2M_ANPR/ANPR_RZA2M_GR_MANGO/src/tensorflow_lite/src/tensorflow/lite/kernels/internal\types.h ****   // On ARM, we typically want our kernel to process a 4x16 block of weights
 103:C:/Renesas/e2studio_2021_01_workspace_RZA2M_ANPR/ANPR_RZA2M_GR_MANGO/src/tensorflow_lite/src/tensorflow/lite/kernels/internal\types.h ****   // at a time, because:
 104:C:/Renesas/e2studio_2021_01_workspace_RZA2M_ANPR/ANPR_RZA2M_GR_MANGO/src/tensorflow_lite/src/tensorflow/lite/kernels/internal\types.h ****   //   - 16 is the number of bytes in a NEON register.
 105:C:/Renesas/e2studio_2021_01_workspace_RZA2M_ANPR/ANPR_RZA2M_GR_MANGO/src/tensorflow_lite/src/tensorflow/lite/kernels/internal\types.h ****   //   - 4 is how many rows we need to handle concurrently in the kernel in
 106:C:/Renesas/e2studio_2021_01_workspace_RZA2M_ANPR/ANPR_RZA2M_GR_MANGO/src/tensorflow_lite/src/tensorflow/lite/kernels/internal\types.h ****   //     order to have sufficient mutual independence of instructions to
 107:C:/Renesas/e2studio_2021_01_workspace_RZA2M_ANPR/ANPR_RZA2M_GR_MANGO/src/tensorflow_lite/src/tensorflow/lite/kernels/internal\types.h ****   //     maximize arithmetic throughput.
 108:C:/Renesas/e2studio_2021_01_workspace_RZA2M_ANPR/ANPR_RZA2M_GR_MANGO/src/tensorflow_lite/src/tensorflow/lite/kernels/internal\types.h ****   //
 109:C:/Renesas/e2studio_2021_01_workspace_RZA2M_ANPR/ANPR_RZA2M_GR_MANGO/src/tensorflow_lite/src/tensorflow/lite/kernels/internal\types.h ****   // Finally, the 'Int8' part in the name refers to the fact that this
 110:C:/Renesas/e2studio_2021_01_workspace_RZA2M_ANPR/ANPR_RZA2M_GR_MANGO/src/tensorflow_lite/src/tensorflow/lite/kernels/internal\types.h ****   // weights format has each weights value encoded as a signed int8_t value,
 111:C:/Renesas/e2studio_2021_01_workspace_RZA2M_ANPR/ANPR_RZA2M_GR_MANGO/src/tensorflow_lite/src/tensorflow/lite/kernels/internal\types.h ****   // even if the data type of the weights buffer is uint8_t.  This is intended
 112:C:/Renesas/e2studio_2021_01_workspace_RZA2M_ANPR/ANPR_RZA2M_GR_MANGO/src/tensorflow_lite/src/tensorflow/lite/kernels/internal\types.h ****   // to save runtime kernels the effort to have to XOR the top bit of these
 113:C:/Renesas/e2studio_2021_01_workspace_RZA2M_ANPR/ANPR_RZA2M_GR_MANGO/src/tensorflow_lite/src/tensorflow/lite/kernels/internal\types.h ****   // bytes before using them in signed arithmetic, see this file for more
 114:C:/Renesas/e2studio_2021_01_workspace_RZA2M_ANPR/ANPR_RZA2M_GR_MANGO/src/tensorflow_lite/src/tensorflow/lite/kernels/internal\types.h ****   // explanations on the 'signed int8_t trick' in matrix multiplication kernels:
 115:C:/Renesas/e2studio_2021_01_workspace_RZA2M_ANPR/ANPR_RZA2M_GR_MANGO/src/tensorflow_lite/src/tensorflow/lite/kernels/internal\types.h ****   //
 116:C:/Renesas/e2studio_2021_01_workspace_RZA2M_ANPR/ANPR_RZA2M_GR_MANGO/src/tensorflow_lite/src/tensorflow/lite/kernels/internal\types.h ****   //   tensorflow/lite/toco/graph_transformations/ensure_uint8_weights_safe_for_fast_int8_kernels.c
 117:C:/Renesas/e2studio_2021_01_workspace_RZA2M_ANPR/ANPR_RZA2M_GR_MANGO/src/tensorflow_lite/src/tensorflow/lite/kernels/internal\types.h ****   //
 118:C:/Renesas/e2studio_2021_01_workspace_RZA2M_ANPR/ANPR_RZA2M_GR_MANGO/src/tensorflow_lite/src/tensorflow/lite/kernels/internal\types.h ****   kShuffled4x16Int8,
 119:C:/Renesas/e2studio_2021_01_workspace_RZA2M_ANPR/ANPR_RZA2M_GR_MANGO/src/tensorflow_lite/src/tensorflow/lite/kernels/internal\types.h **** };
 120:C:/Renesas/e2studio_2021_01_workspace_RZA2M_ANPR/ANPR_RZA2M_GR_MANGO/src/tensorflow_lite/src/tensorflow/lite/kernels/internal\types.h **** 
 121:C:/Renesas/e2studio_2021_01_workspace_RZA2M_ANPR/ANPR_RZA2M_GR_MANGO/src/tensorflow_lite/src/tensorflow/lite/kernels/internal\types.h **** // Quantization parameters, determining the mapping of quantized values
 122:C:/Renesas/e2studio_2021_01_workspace_RZA2M_ANPR/ANPR_RZA2M_GR_MANGO/src/tensorflow_lite/src/tensorflow/lite/kernels/internal\types.h **** // to real values (i.e. determining how quantized values are mathematically
 123:C:/Renesas/e2studio_2021_01_workspace_RZA2M_ANPR/ANPR_RZA2M_GR_MANGO/src/tensorflow_lite/src/tensorflow/lite/kernels/internal\types.h **** // interpreted).
 124:C:/Renesas/e2studio_2021_01_workspace_RZA2M_ANPR/ANPR_RZA2M_GR_MANGO/src/tensorflow_lite/src/tensorflow/lite/kernels/internal\types.h **** //
 125:C:/Renesas/e2studio_2021_01_workspace_RZA2M_ANPR/ANPR_RZA2M_GR_MANGO/src/tensorflow_lite/src/tensorflow/lite/kernels/internal\types.h **** // The correspondence is as follows:
 126:C:/Renesas/e2studio_2021_01_workspace_RZA2M_ANPR/ANPR_RZA2M_GR_MANGO/src/tensorflow_lite/src/tensorflow/lite/kernels/internal\types.h **** //
 127:C:/Renesas/e2studio_2021_01_workspace_RZA2M_ANPR/ANPR_RZA2M_GR_MANGO/src/tensorflow_lite/src/tensorflow/lite/kernels/internal\types.h **** //   real_value = scale * (quantized_value - zero_point);
 128:C:/Renesas/e2studio_2021_01_workspace_RZA2M_ANPR/ANPR_RZA2M_GR_MANGO/src/tensorflow_lite/src/tensorflow/lite/kernels/internal\types.h **** //
 129:C:/Renesas/e2studio_2021_01_workspace_RZA2M_ANPR/ANPR_RZA2M_GR_MANGO/src/tensorflow_lite/src/tensorflow/lite/kernels/internal\types.h **** // In other words, zero_point designates which quantized value corresponds to
 130:C:/Renesas/e2studio_2021_01_workspace_RZA2M_ANPR/ANPR_RZA2M_GR_MANGO/src/tensorflow_lite/src/tensorflow/lite/kernels/internal\types.h **** // the real 0 value, and scale designates the difference between the real values
 131:C:/Renesas/e2studio_2021_01_workspace_RZA2M_ANPR/ANPR_RZA2M_GR_MANGO/src/tensorflow_lite/src/tensorflow/lite/kernels/internal\types.h **** // corresponding to consecutive quantized values differing by 1.
 132:C:/Renesas/e2studio_2021_01_workspace_RZA2M_ANPR/ANPR_RZA2M_GR_MANGO/src/tensorflow_lite/src/tensorflow/lite/kernels/internal\types.h **** struct QuantizationParams {
 133:C:/Renesas/e2studio_2021_01_workspace_RZA2M_ANPR/ANPR_RZA2M_GR_MANGO/src/tensorflow_lite/src/tensorflow/lite/kernels/internal\types.h ****   int32_t zero_point = 0;
 134:C:/Renesas/e2studio_2021_01_workspace_RZA2M_ANPR/ANPR_RZA2M_GR_MANGO/src/tensorflow_lite/src/tensorflow/lite/kernels/internal\types.h ****   double scale = 0.0;
 135:C:/Renesas/e2studio_2021_01_workspace_RZA2M_ANPR/ANPR_RZA2M_GR_MANGO/src/tensorflow_lite/src/tensorflow/lite/kernels/internal\types.h **** };
 136:C:/Renesas/e2studio_2021_01_workspace_RZA2M_ANPR/ANPR_RZA2M_GR_MANGO/src/tensorflow_lite/src/tensorflow/lite/kernels/internal\types.h **** 
 137:C:/Renesas/e2studio_2021_01_workspace_RZA2M_ANPR/ANPR_RZA2M_GR_MANGO/src/tensorflow_lite/src/tensorflow/lite/kernels/internal\types.h **** inline bool operator==(const QuantizationParams& qp1,
 138:C:/Renesas/e2studio_2021_01_workspace_RZA2M_ANPR/ANPR_RZA2M_GR_MANGO/src/tensorflow_lite/src/tensorflow/lite/kernels/internal\types.h ****                        const QuantizationParams& qp2) {
 139:C:/Renesas/e2studio_2021_01_workspace_RZA2M_ANPR/ANPR_RZA2M_GR_MANGO/src/tensorflow_lite/src/tensorflow/lite/kernels/internal\types.h ****   return qp1.zero_point == qp2.zero_point && qp1.scale == qp2.scale;
 140:C:/Renesas/e2studio_2021_01_workspace_RZA2M_ANPR/ANPR_RZA2M_GR_MANGO/src/tensorflow_lite/src/tensorflow/lite/kernels/internal\types.h **** }
 141:C:/Renesas/e2studio_2021_01_workspace_RZA2M_ANPR/ANPR_RZA2M_GR_MANGO/src/tensorflow_lite/src/tensorflow/lite/kernels/internal\types.h **** 
 142:C:/Renesas/e2studio_2021_01_workspace_RZA2M_ANPR/ANPR_RZA2M_GR_MANGO/src/tensorflow_lite/src/tensorflow/lite/kernels/internal\types.h **** template <int N>
 143:C:/Renesas/e2studio_2021_01_workspace_RZA2M_ANPR/ANPR_RZA2M_GR_MANGO/src/tensorflow_lite/src/tensorflow/lite/kernels/internal\types.h **** struct Dims {
 144:C:/Renesas/e2studio_2021_01_workspace_RZA2M_ANPR/ANPR_RZA2M_GR_MANGO/src/tensorflow_lite/src/tensorflow/lite/kernels/internal\types.h ****   int sizes[N];
 145:C:/Renesas/e2studio_2021_01_workspace_RZA2M_ANPR/ANPR_RZA2M_GR_MANGO/src/tensorflow_lite/src/tensorflow/lite/kernels/internal\types.h ****   int strides[N];
 146:C:/Renesas/e2studio_2021_01_workspace_RZA2M_ANPR/ANPR_RZA2M_GR_MANGO/src/tensorflow_lite/src/tensorflow/lite/kernels/internal\types.h **** };
 147:C:/Renesas/e2studio_2021_01_workspace_RZA2M_ANPR/ANPR_RZA2M_GR_MANGO/src/tensorflow_lite/src/tensorflow/lite/kernels/internal\types.h **** 
 148:C:/Renesas/e2studio_2021_01_workspace_RZA2M_ANPR/ANPR_RZA2M_GR_MANGO/src/tensorflow_lite/src/tensorflow/lite/kernels/internal\types.h **** class RuntimeShape {
 149:C:/Renesas/e2studio_2021_01_workspace_RZA2M_ANPR/ANPR_RZA2M_GR_MANGO/src/tensorflow_lite/src/tensorflow/lite/kernels/internal\types.h ****  public:
 150:C:/Renesas/e2studio_2021_01_workspace_RZA2M_ANPR/ANPR_RZA2M_GR_MANGO/src/tensorflow_lite/src/tensorflow/lite/kernels/internal\types.h ****   // Shapes with dimensions up to 5 are stored directly in the structure, while
 151:C:/Renesas/e2studio_2021_01_workspace_RZA2M_ANPR/ANPR_RZA2M_GR_MANGO/src/tensorflow_lite/src/tensorflow/lite/kernels/internal\types.h ****   // larger shapes are separately allocated.
 152:C:/Renesas/e2studio_2021_01_workspace_RZA2M_ANPR/ANPR_RZA2M_GR_MANGO/src/tensorflow_lite/src/tensorflow/lite/kernels/internal\types.h ****   static constexpr int kMaxSmallSize = 5;
 153:C:/Renesas/e2studio_2021_01_workspace_RZA2M_ANPR/ANPR_RZA2M_GR_MANGO/src/tensorflow_lite/src/tensorflow/lite/kernels/internal\types.h **** 
 154:C:/Renesas/e2studio_2021_01_workspace_RZA2M_ANPR/ANPR_RZA2M_GR_MANGO/src/tensorflow_lite/src/tensorflow/lite/kernels/internal\types.h ****   RuntimeShape& operator=(RuntimeShape const&) = delete;
 155:C:/Renesas/e2studio_2021_01_workspace_RZA2M_ANPR/ANPR_RZA2M_GR_MANGO/src/tensorflow_lite/src/tensorflow/lite/kernels/internal\types.h **** 
 156:C:/Renesas/e2studio_2021_01_workspace_RZA2M_ANPR/ANPR_RZA2M_GR_MANGO/src/tensorflow_lite/src/tensorflow/lite/kernels/internal\types.h ****   RuntimeShape() : size_(0) {}
 157:C:/Renesas/e2studio_2021_01_workspace_RZA2M_ANPR/ANPR_RZA2M_GR_MANGO/src/tensorflow_lite/src/tensorflow/lite/kernels/internal\types.h **** 
 158:C:/Renesas/e2studio_2021_01_workspace_RZA2M_ANPR/ANPR_RZA2M_GR_MANGO/src/tensorflow_lite/src/tensorflow/lite/kernels/internal\types.h ****   explicit RuntimeShape(int dimensions_count) : size_(dimensions_count) {
 159:C:/Renesas/e2studio_2021_01_workspace_RZA2M_ANPR/ANPR_RZA2M_GR_MANGO/src/tensorflow_lite/src/tensorflow/lite/kernels/internal\types.h ****     if (dimensions_count > kMaxSmallSize) {
 160:C:/Renesas/e2studio_2021_01_workspace_RZA2M_ANPR/ANPR_RZA2M_GR_MANGO/src/tensorflow_lite/src/tensorflow/lite/kernels/internal\types.h **** #ifdef TF_LITE_STATIC_MEMORY
 161:C:/Renesas/e2studio_2021_01_workspace_RZA2M_ANPR/ANPR_RZA2M_GR_MANGO/src/tensorflow_lite/src/tensorflow/lite/kernels/internal\types.h ****       TFLITE_CHECK(false && "No shape resizing supported on this platform");
 162:C:/Renesas/e2studio_2021_01_workspace_RZA2M_ANPR/ANPR_RZA2M_GR_MANGO/src/tensorflow_lite/src/tensorflow/lite/kernels/internal\types.h **** #else  // TF_LITE_STATIC_MEMORY
 163:C:/Renesas/e2studio_2021_01_workspace_RZA2M_ANPR/ANPR_RZA2M_GR_MANGO/src/tensorflow_lite/src/tensorflow/lite/kernels/internal\types.h ****       dims_pointer_ = new int32_t[dimensions_count];
 164:C:/Renesas/e2studio_2021_01_workspace_RZA2M_ANPR/ANPR_RZA2M_GR_MANGO/src/tensorflow_lite/src/tensorflow/lite/kernels/internal\types.h **** #endif  // TF_LITE_STATIC_MEMORY
 165:C:/Renesas/e2studio_2021_01_workspace_RZA2M_ANPR/ANPR_RZA2M_GR_MANGO/src/tensorflow_lite/src/tensorflow/lite/kernels/internal\types.h ****     }
 166:C:/Renesas/e2studio_2021_01_workspace_RZA2M_ANPR/ANPR_RZA2M_GR_MANGO/src/tensorflow_lite/src/tensorflow/lite/kernels/internal\types.h ****   }
 167:C:/Renesas/e2studio_2021_01_workspace_RZA2M_ANPR/ANPR_RZA2M_GR_MANGO/src/tensorflow_lite/src/tensorflow/lite/kernels/internal\types.h **** 
 168:C:/Renesas/e2studio_2021_01_workspace_RZA2M_ANPR/ANPR_RZA2M_GR_MANGO/src/tensorflow_lite/src/tensorflow/lite/kernels/internal\types.h ****   RuntimeShape(int shape_size, int32_t value) : size_(0) {
 169:C:/Renesas/e2studio_2021_01_workspace_RZA2M_ANPR/ANPR_RZA2M_GR_MANGO/src/tensorflow_lite/src/tensorflow/lite/kernels/internal\types.h ****     Resize(shape_size);
 170:C:/Renesas/e2studio_2021_01_workspace_RZA2M_ANPR/ANPR_RZA2M_GR_MANGO/src/tensorflow_lite/src/tensorflow/lite/kernels/internal\types.h ****     for (int i = 0; i < shape_size; ++i) {
 171:C:/Renesas/e2studio_2021_01_workspace_RZA2M_ANPR/ANPR_RZA2M_GR_MANGO/src/tensorflow_lite/src/tensorflow/lite/kernels/internal\types.h ****       SetDim(i, value);
 172:C:/Renesas/e2studio_2021_01_workspace_RZA2M_ANPR/ANPR_RZA2M_GR_MANGO/src/tensorflow_lite/src/tensorflow/lite/kernels/internal\types.h ****     }
 173:C:/Renesas/e2studio_2021_01_workspace_RZA2M_ANPR/ANPR_RZA2M_GR_MANGO/src/tensorflow_lite/src/tensorflow/lite/kernels/internal\types.h ****   }
 174:C:/Renesas/e2studio_2021_01_workspace_RZA2M_ANPR/ANPR_RZA2M_GR_MANGO/src/tensorflow_lite/src/tensorflow/lite/kernels/internal\types.h **** 
 175:C:/Renesas/e2studio_2021_01_workspace_RZA2M_ANPR/ANPR_RZA2M_GR_MANGO/src/tensorflow_lite/src/tensorflow/lite/kernels/internal\types.h ****   RuntimeShape(int dimensions_count, const int32_t* dims_data) : size_(0) {
 176:C:/Renesas/e2studio_2021_01_workspace_RZA2M_ANPR/ANPR_RZA2M_GR_MANGO/src/tensorflow_lite/src/tensorflow/lite/kernels/internal\types.h ****     ReplaceWith(dimensions_count, dims_data);
 177:C:/Renesas/e2studio_2021_01_workspace_RZA2M_ANPR/ANPR_RZA2M_GR_MANGO/src/tensorflow_lite/src/tensorflow/lite/kernels/internal\types.h ****   }
 178:C:/Renesas/e2studio_2021_01_workspace_RZA2M_ANPR/ANPR_RZA2M_GR_MANGO/src/tensorflow_lite/src/tensorflow/lite/kernels/internal\types.h **** 
 179:C:/Renesas/e2studio_2021_01_workspace_RZA2M_ANPR/ANPR_RZA2M_GR_MANGO/src/tensorflow_lite/src/tensorflow/lite/kernels/internal\types.h ****   RuntimeShape(const std::initializer_list<int> init_list) : size_(0) {
 180:C:/Renesas/e2studio_2021_01_workspace_RZA2M_ANPR/ANPR_RZA2M_GR_MANGO/src/tensorflow_lite/src/tensorflow/lite/kernels/internal\types.h ****     BuildFrom(init_list);
 181:C:/Renesas/e2studio_2021_01_workspace_RZA2M_ANPR/ANPR_RZA2M_GR_MANGO/src/tensorflow_lite/src/tensorflow/lite/kernels/internal\types.h ****   }
 182:C:/Renesas/e2studio_2021_01_workspace_RZA2M_ANPR/ANPR_RZA2M_GR_MANGO/src/tensorflow_lite/src/tensorflow/lite/kernels/internal\types.h **** 
 183:C:/Renesas/e2studio_2021_01_workspace_RZA2M_ANPR/ANPR_RZA2M_GR_MANGO/src/tensorflow_lite/src/tensorflow/lite/kernels/internal\types.h ****   // Avoid using this constructor.  We should be able to delete it when C++17
 184:C:/Renesas/e2studio_2021_01_workspace_RZA2M_ANPR/ANPR_RZA2M_GR_MANGO/src/tensorflow_lite/src/tensorflow/lite/kernels/internal\types.h ****   // rolls out.
 185:C:/Renesas/e2studio_2021_01_workspace_RZA2M_ANPR/ANPR_RZA2M_GR_MANGO/src/tensorflow_lite/src/tensorflow/lite/kernels/internal\types.h ****   RuntimeShape(RuntimeShape const& other) : size_(other.DimensionsCount()) {
 186:C:/Renesas/e2studio_2021_01_workspace_RZA2M_ANPR/ANPR_RZA2M_GR_MANGO/src/tensorflow_lite/src/tensorflow/lite/kernels/internal\types.h ****     if (size_ > kMaxSmallSize) {
 187:C:/Renesas/e2studio_2021_01_workspace_RZA2M_ANPR/ANPR_RZA2M_GR_MANGO/src/tensorflow_lite/src/tensorflow/lite/kernels/internal\types.h **** #ifdef TF_LITE_STATIC_MEMORY
 188:C:/Renesas/e2studio_2021_01_workspace_RZA2M_ANPR/ANPR_RZA2M_GR_MANGO/src/tensorflow_lite/src/tensorflow/lite/kernels/internal\types.h ****       TFLITE_CHECK(false && "No shape resizing supported on this platform");
 189:C:/Renesas/e2studio_2021_01_workspace_RZA2M_ANPR/ANPR_RZA2M_GR_MANGO/src/tensorflow_lite/src/tensorflow/lite/kernels/internal\types.h **** #else
 190:C:/Renesas/e2studio_2021_01_workspace_RZA2M_ANPR/ANPR_RZA2M_GR_MANGO/src/tensorflow_lite/src/tensorflow/lite/kernels/internal\types.h ****       dims_pointer_ = new int32_t[size_];
 191:C:/Renesas/e2studio_2021_01_workspace_RZA2M_ANPR/ANPR_RZA2M_GR_MANGO/src/tensorflow_lite/src/tensorflow/lite/kernels/internal\types.h **** #endif
 192:C:/Renesas/e2studio_2021_01_workspace_RZA2M_ANPR/ANPR_RZA2M_GR_MANGO/src/tensorflow_lite/src/tensorflow/lite/kernels/internal\types.h ****     }
 193:C:/Renesas/e2studio_2021_01_workspace_RZA2M_ANPR/ANPR_RZA2M_GR_MANGO/src/tensorflow_lite/src/tensorflow/lite/kernels/internal\types.h ****     std::memcpy(DimsData(), other.DimsData(), sizeof(int32_t) * size_);
 194:C:/Renesas/e2studio_2021_01_workspace_RZA2M_ANPR/ANPR_RZA2M_GR_MANGO/src/tensorflow_lite/src/tensorflow/lite/kernels/internal\types.h ****   }
 195:C:/Renesas/e2studio_2021_01_workspace_RZA2M_ANPR/ANPR_RZA2M_GR_MANGO/src/tensorflow_lite/src/tensorflow/lite/kernels/internal\types.h **** 
 196:C:/Renesas/e2studio_2021_01_workspace_RZA2M_ANPR/ANPR_RZA2M_GR_MANGO/src/tensorflow_lite/src/tensorflow/lite/kernels/internal\types.h ****   bool operator==(const RuntimeShape& comp) const {
 197:C:/Renesas/e2studio_2021_01_workspace_RZA2M_ANPR/ANPR_RZA2M_GR_MANGO/src/tensorflow_lite/src/tensorflow/lite/kernels/internal\types.h ****     return this->size_ == comp.size_ &&
 198:C:/Renesas/e2studio_2021_01_workspace_RZA2M_ANPR/ANPR_RZA2M_GR_MANGO/src/tensorflow_lite/src/tensorflow/lite/kernels/internal\types.h ****            std::memcmp(DimsData(), comp.DimsData(), size_ * sizeof(int32_t)) ==
 199:C:/Renesas/e2studio_2021_01_workspace_RZA2M_ANPR/ANPR_RZA2M_GR_MANGO/src/tensorflow_lite/src/tensorflow/lite/kernels/internal\types.h ****                0;
 200:C:/Renesas/e2studio_2021_01_workspace_RZA2M_ANPR/ANPR_RZA2M_GR_MANGO/src/tensorflow_lite/src/tensorflow/lite/kernels/internal\types.h ****   }
 201:C:/Renesas/e2studio_2021_01_workspace_RZA2M_ANPR/ANPR_RZA2M_GR_MANGO/src/tensorflow_lite/src/tensorflow/lite/kernels/internal\types.h **** 
 202:C:/Renesas/e2studio_2021_01_workspace_RZA2M_ANPR/ANPR_RZA2M_GR_MANGO/src/tensorflow_lite/src/tensorflow/lite/kernels/internal\types.h ****   ~RuntimeShape() {
 203:C:/Renesas/e2studio_2021_01_workspace_RZA2M_ANPR/ANPR_RZA2M_GR_MANGO/src/tensorflow_lite/src/tensorflow/lite/kernels/internal\types.h ****     if (size_ > kMaxSmallSize) {
 204:C:/Renesas/e2studio_2021_01_workspace_RZA2M_ANPR/ANPR_RZA2M_GR_MANGO/src/tensorflow_lite/src/tensorflow/lite/kernels/internal\types.h **** #ifdef TF_LITE_STATIC_MEMORY
 205:C:/Renesas/e2studio_2021_01_workspace_RZA2M_ANPR/ANPR_RZA2M_GR_MANGO/src/tensorflow_lite/src/tensorflow/lite/kernels/internal\types.h ****       TFLITE_CHECK(false && "No shape resizing supported on this platform");
 206:C:/Renesas/e2studio_2021_01_workspace_RZA2M_ANPR/ANPR_RZA2M_GR_MANGO/src/tensorflow_lite/src/tensorflow/lite/kernels/internal\types.h **** #else  // TF_LITE_STATIC_MEMORY
 207:C:/Renesas/e2studio_2021_01_workspace_RZA2M_ANPR/ANPR_RZA2M_GR_MANGO/src/tensorflow_lite/src/tensorflow/lite/kernels/internal\types.h ****       delete[] dims_pointer_;
 208:C:/Renesas/e2studio_2021_01_workspace_RZA2M_ANPR/ANPR_RZA2M_GR_MANGO/src/tensorflow_lite/src/tensorflow/lite/kernels/internal\types.h **** #endif  // TF_LITE_STATIC_MEMORY
 209:C:/Renesas/e2studio_2021_01_workspace_RZA2M_ANPR/ANPR_RZA2M_GR_MANGO/src/tensorflow_lite/src/tensorflow/lite/kernels/internal\types.h ****     }
 210:C:/Renesas/e2studio_2021_01_workspace_RZA2M_ANPR/ANPR_RZA2M_GR_MANGO/src/tensorflow_lite/src/tensorflow/lite/kernels/internal\types.h ****   }
 211:C:/Renesas/e2studio_2021_01_workspace_RZA2M_ANPR/ANPR_RZA2M_GR_MANGO/src/tensorflow_lite/src/tensorflow/lite/kernels/internal\types.h **** 
 212:C:/Renesas/e2studio_2021_01_workspace_RZA2M_ANPR/ANPR_RZA2M_GR_MANGO/src/tensorflow_lite/src/tensorflow/lite/kernels/internal\types.h ****   inline int32_t DimensionsCount() const { return size_; }
 213:C:/Renesas/e2studio_2021_01_workspace_RZA2M_ANPR/ANPR_RZA2M_GR_MANGO/src/tensorflow_lite/src/tensorflow/lite/kernels/internal\types.h ****   inline int32_t Dims(int i) const {
 214:C:/Renesas/e2studio_2021_01_workspace_RZA2M_ANPR/ANPR_RZA2M_GR_MANGO/src/tensorflow_lite/src/tensorflow/lite/kernels/internal\types.h ****     TFLITE_DCHECK_GE(i, 0);
 215:C:/Renesas/e2studio_2021_01_workspace_RZA2M_ANPR/ANPR_RZA2M_GR_MANGO/src/tensorflow_lite/src/tensorflow/lite/kernels/internal\types.h ****     TFLITE_DCHECK_LT(i, size_);
 216:C:/Renesas/e2studio_2021_01_workspace_RZA2M_ANPR/ANPR_RZA2M_GR_MANGO/src/tensorflow_lite/src/tensorflow/lite/kernels/internal\types.h ****     return size_ > kMaxSmallSize ? dims_pointer_[i] : dims_[i];
 217:C:/Renesas/e2studio_2021_01_workspace_RZA2M_ANPR/ANPR_RZA2M_GR_MANGO/src/tensorflow_lite/src/tensorflow/lite/kernels/internal\types.h ****   }
 218:C:/Renesas/e2studio_2021_01_workspace_RZA2M_ANPR/ANPR_RZA2M_GR_MANGO/src/tensorflow_lite/src/tensorflow/lite/kernels/internal\types.h ****   inline void SetDim(int i, int32_t val) {
 219:C:/Renesas/e2studio_2021_01_workspace_RZA2M_ANPR/ANPR_RZA2M_GR_MANGO/src/tensorflow_lite/src/tensorflow/lite/kernels/internal\types.h ****     TFLITE_DCHECK_GE(i, 0);
 220:C:/Renesas/e2studio_2021_01_workspace_RZA2M_ANPR/ANPR_RZA2M_GR_MANGO/src/tensorflow_lite/src/tensorflow/lite/kernels/internal\types.h ****     TFLITE_DCHECK_LT(i, size_);
 221:C:/Renesas/e2studio_2021_01_workspace_RZA2M_ANPR/ANPR_RZA2M_GR_MANGO/src/tensorflow_lite/src/tensorflow/lite/kernels/internal\types.h ****     if (size_ > kMaxSmallSize) {
 222:C:/Renesas/e2studio_2021_01_workspace_RZA2M_ANPR/ANPR_RZA2M_GR_MANGO/src/tensorflow_lite/src/tensorflow/lite/kernels/internal\types.h ****       dims_pointer_[i] = val;
 223:C:/Renesas/e2studio_2021_01_workspace_RZA2M_ANPR/ANPR_RZA2M_GR_MANGO/src/tensorflow_lite/src/tensorflow/lite/kernels/internal\types.h ****     } else {
 224:C:/Renesas/e2studio_2021_01_workspace_RZA2M_ANPR/ANPR_RZA2M_GR_MANGO/src/tensorflow_lite/src/tensorflow/lite/kernels/internal\types.h ****       dims_[i] = val;
 225:C:/Renesas/e2studio_2021_01_workspace_RZA2M_ANPR/ANPR_RZA2M_GR_MANGO/src/tensorflow_lite/src/tensorflow/lite/kernels/internal\types.h ****     }
 226:C:/Renesas/e2studio_2021_01_workspace_RZA2M_ANPR/ANPR_RZA2M_GR_MANGO/src/tensorflow_lite/src/tensorflow/lite/kernels/internal\types.h ****   }
 227:C:/Renesas/e2studio_2021_01_workspace_RZA2M_ANPR/ANPR_RZA2M_GR_MANGO/src/tensorflow_lite/src/tensorflow/lite/kernels/internal\types.h **** 
 228:C:/Renesas/e2studio_2021_01_workspace_RZA2M_ANPR/ANPR_RZA2M_GR_MANGO/src/tensorflow_lite/src/tensorflow/lite/kernels/internal\types.h ****   inline int32_t* DimsData() {
 229:C:/Renesas/e2studio_2021_01_workspace_RZA2M_ANPR/ANPR_RZA2M_GR_MANGO/src/tensorflow_lite/src/tensorflow/lite/kernels/internal\types.h ****     return size_ > kMaxSmallSize ? dims_pointer_ : dims_;
 230:C:/Renesas/e2studio_2021_01_workspace_RZA2M_ANPR/ANPR_RZA2M_GR_MANGO/src/tensorflow_lite/src/tensorflow/lite/kernels/internal\types.h ****   }
 231:C:/Renesas/e2studio_2021_01_workspace_RZA2M_ANPR/ANPR_RZA2M_GR_MANGO/src/tensorflow_lite/src/tensorflow/lite/kernels/internal\types.h ****   inline const int32_t* DimsData() const {
 232:C:/Renesas/e2studio_2021_01_workspace_RZA2M_ANPR/ANPR_RZA2M_GR_MANGO/src/tensorflow_lite/src/tensorflow/lite/kernels/internal\types.h ****     return size_ > kMaxSmallSize ? dims_pointer_ : dims_;
 233:C:/Renesas/e2studio_2021_01_workspace_RZA2M_ANPR/ANPR_RZA2M_GR_MANGO/src/tensorflow_lite/src/tensorflow/lite/kernels/internal\types.h ****   }
 234:C:/Renesas/e2studio_2021_01_workspace_RZA2M_ANPR/ANPR_RZA2M_GR_MANGO/src/tensorflow_lite/src/tensorflow/lite/kernels/internal\types.h ****   // The caller must ensure that the shape is no bigger than 5-D.
 235:C:/Renesas/e2studio_2021_01_workspace_RZA2M_ANPR/ANPR_RZA2M_GR_MANGO/src/tensorflow_lite/src/tensorflow/lite/kernels/internal\types.h ****   inline const int32_t* DimsDataUpTo5D() const { return dims_; }
 236:C:/Renesas/e2studio_2021_01_workspace_RZA2M_ANPR/ANPR_RZA2M_GR_MANGO/src/tensorflow_lite/src/tensorflow/lite/kernels/internal\types.h **** 
 237:C:/Renesas/e2studio_2021_01_workspace_RZA2M_ANPR/ANPR_RZA2M_GR_MANGO/src/tensorflow_lite/src/tensorflow/lite/kernels/internal\types.h ****   inline void Resize(int dimensions_count) {
 238:C:/Renesas/e2studio_2021_01_workspace_RZA2M_ANPR/ANPR_RZA2M_GR_MANGO/src/tensorflow_lite/src/tensorflow/lite/kernels/internal\types.h ****     if (size_ > kMaxSmallSize) {
 239:C:/Renesas/e2studio_2021_01_workspace_RZA2M_ANPR/ANPR_RZA2M_GR_MANGO/src/tensorflow_lite/src/tensorflow/lite/kernels/internal\types.h **** #ifdef TF_LITE_STATIC_MEMORY
 240:C:/Renesas/e2studio_2021_01_workspace_RZA2M_ANPR/ANPR_RZA2M_GR_MANGO/src/tensorflow_lite/src/tensorflow/lite/kernels/internal\types.h ****       TFLITE_CHECK(false && "No shape resizing supported on this platform");
 241:C:/Renesas/e2studio_2021_01_workspace_RZA2M_ANPR/ANPR_RZA2M_GR_MANGO/src/tensorflow_lite/src/tensorflow/lite/kernels/internal\types.h **** #else  // TF_LITE_STATIC_MEMORY
 242:C:/Renesas/e2studio_2021_01_workspace_RZA2M_ANPR/ANPR_RZA2M_GR_MANGO/src/tensorflow_lite/src/tensorflow/lite/kernels/internal\types.h ****       delete[] dims_pointer_;
 243:C:/Renesas/e2studio_2021_01_workspace_RZA2M_ANPR/ANPR_RZA2M_GR_MANGO/src/tensorflow_lite/src/tensorflow/lite/kernels/internal\types.h **** #endif  // TF_LITE_STATIC_MEMORY
 244:C:/Renesas/e2studio_2021_01_workspace_RZA2M_ANPR/ANPR_RZA2M_GR_MANGO/src/tensorflow_lite/src/tensorflow/lite/kernels/internal\types.h ****     }
 245:C:/Renesas/e2studio_2021_01_workspace_RZA2M_ANPR/ANPR_RZA2M_GR_MANGO/src/tensorflow_lite/src/tensorflow/lite/kernels/internal\types.h ****     size_ = dimensions_count;
 246:C:/Renesas/e2studio_2021_01_workspace_RZA2M_ANPR/ANPR_RZA2M_GR_MANGO/src/tensorflow_lite/src/tensorflow/lite/kernels/internal\types.h ****     if (dimensions_count > kMaxSmallSize) {
 247:C:/Renesas/e2studio_2021_01_workspace_RZA2M_ANPR/ANPR_RZA2M_GR_MANGO/src/tensorflow_lite/src/tensorflow/lite/kernels/internal\types.h **** #ifdef TF_LITE_STATIC_MEMORY
 248:C:/Renesas/e2studio_2021_01_workspace_RZA2M_ANPR/ANPR_RZA2M_GR_MANGO/src/tensorflow_lite/src/tensorflow/lite/kernels/internal\types.h ****       TFLITE_CHECK(false && "No shape resizing supported on this platform");
 249:C:/Renesas/e2studio_2021_01_workspace_RZA2M_ANPR/ANPR_RZA2M_GR_MANGO/src/tensorflow_lite/src/tensorflow/lite/kernels/internal\types.h **** #else  // TF_LITE_STATIC_MEMORY
 250:C:/Renesas/e2studio_2021_01_workspace_RZA2M_ANPR/ANPR_RZA2M_GR_MANGO/src/tensorflow_lite/src/tensorflow/lite/kernels/internal\types.h ****       dims_pointer_ = new int32_t[dimensions_count];
 251:C:/Renesas/e2studio_2021_01_workspace_RZA2M_ANPR/ANPR_RZA2M_GR_MANGO/src/tensorflow_lite/src/tensorflow/lite/kernels/internal\types.h **** #endif  // TF_LITE_STATIC_MEMORY
 252:C:/Renesas/e2studio_2021_01_workspace_RZA2M_ANPR/ANPR_RZA2M_GR_MANGO/src/tensorflow_lite/src/tensorflow/lite/kernels/internal\types.h ****     }
 253:C:/Renesas/e2studio_2021_01_workspace_RZA2M_ANPR/ANPR_RZA2M_GR_MANGO/src/tensorflow_lite/src/tensorflow/lite/kernels/internal\types.h ****   }
 254:C:/Renesas/e2studio_2021_01_workspace_RZA2M_ANPR/ANPR_RZA2M_GR_MANGO/src/tensorflow_lite/src/tensorflow/lite/kernels/internal\types.h **** 
 255:C:/Renesas/e2studio_2021_01_workspace_RZA2M_ANPR/ANPR_RZA2M_GR_MANGO/src/tensorflow_lite/src/tensorflow/lite/kernels/internal\types.h ****   inline void ReplaceWith(int dimensions_count, const int32_t* dims_data) {
 256:C:/Renesas/e2studio_2021_01_workspace_RZA2M_ANPR/ANPR_RZA2M_GR_MANGO/src/tensorflow_lite/src/tensorflow/lite/kernels/internal\types.h ****     Resize(dimensions_count);
 257:C:/Renesas/e2studio_2021_01_workspace_RZA2M_ANPR/ANPR_RZA2M_GR_MANGO/src/tensorflow_lite/src/tensorflow/lite/kernels/internal\types.h ****     int32_t* dst_dims = DimsData();
 258:C:/Renesas/e2studio_2021_01_workspace_RZA2M_ANPR/ANPR_RZA2M_GR_MANGO/src/tensorflow_lite/src/tensorflow/lite/kernels/internal\types.h ****     std::memcpy(dst_dims, dims_data, dimensions_count * sizeof(int32_t));
 259:C:/Renesas/e2studio_2021_01_workspace_RZA2M_ANPR/ANPR_RZA2M_GR_MANGO/src/tensorflow_lite/src/tensorflow/lite/kernels/internal\types.h ****   }
 260:C:/Renesas/e2studio_2021_01_workspace_RZA2M_ANPR/ANPR_RZA2M_GR_MANGO/src/tensorflow_lite/src/tensorflow/lite/kernels/internal\types.h **** 
 261:C:/Renesas/e2studio_2021_01_workspace_RZA2M_ANPR/ANPR_RZA2M_GR_MANGO/src/tensorflow_lite/src/tensorflow/lite/kernels/internal\types.h ****   template <typename T>
 262:C:/Renesas/e2studio_2021_01_workspace_RZA2M_ANPR/ANPR_RZA2M_GR_MANGO/src/tensorflow_lite/src/tensorflow/lite/kernels/internal\types.h ****   inline void BuildFrom(const T& src_iterable) {
 263:C:/Renesas/e2studio_2021_01_workspace_RZA2M_ANPR/ANPR_RZA2M_GR_MANGO/src/tensorflow_lite/src/tensorflow/lite/kernels/internal\types.h ****     const int dimensions_count =
 264:C:/Renesas/e2studio_2021_01_workspace_RZA2M_ANPR/ANPR_RZA2M_GR_MANGO/src/tensorflow_lite/src/tensorflow/lite/kernels/internal\types.h ****         std::distance(src_iterable.begin(), src_iterable.end());
 265:C:/Renesas/e2studio_2021_01_workspace_RZA2M_ANPR/ANPR_RZA2M_GR_MANGO/src/tensorflow_lite/src/tensorflow/lite/kernels/internal\types.h ****     Resize(dimensions_count);
 266:C:/Renesas/e2studio_2021_01_workspace_RZA2M_ANPR/ANPR_RZA2M_GR_MANGO/src/tensorflow_lite/src/tensorflow/lite/kernels/internal\types.h ****     int32_t* data = DimsData();
 267:C:/Renesas/e2studio_2021_01_workspace_RZA2M_ANPR/ANPR_RZA2M_GR_MANGO/src/tensorflow_lite/src/tensorflow/lite/kernels/internal\types.h ****     for (auto it : src_iterable) {
 268:C:/Renesas/e2studio_2021_01_workspace_RZA2M_ANPR/ANPR_RZA2M_GR_MANGO/src/tensorflow_lite/src/tensorflow/lite/kernels/internal\types.h ****       *data = it;
 269:C:/Renesas/e2studio_2021_01_workspace_RZA2M_ANPR/ANPR_RZA2M_GR_MANGO/src/tensorflow_lite/src/tensorflow/lite/kernels/internal\types.h ****       ++data;
 270:C:/Renesas/e2studio_2021_01_workspace_RZA2M_ANPR/ANPR_RZA2M_GR_MANGO/src/tensorflow_lite/src/tensorflow/lite/kernels/internal\types.h ****     }
 271:C:/Renesas/e2studio_2021_01_workspace_RZA2M_ANPR/ANPR_RZA2M_GR_MANGO/src/tensorflow_lite/src/tensorflow/lite/kernels/internal\types.h ****   }
 272:C:/Renesas/e2studio_2021_01_workspace_RZA2M_ANPR/ANPR_RZA2M_GR_MANGO/src/tensorflow_lite/src/tensorflow/lite/kernels/internal\types.h **** 
 273:C:/Renesas/e2studio_2021_01_workspace_RZA2M_ANPR/ANPR_RZA2M_GR_MANGO/src/tensorflow_lite/src/tensorflow/lite/kernels/internal\types.h ****   // This will probably be factored out. Old code made substantial use of 4-D
 274:C:/Renesas/e2studio_2021_01_workspace_RZA2M_ANPR/ANPR_RZA2M_GR_MANGO/src/tensorflow_lite/src/tensorflow/lite/kernels/internal\types.h ****   // shapes, and so this function is used to extend smaller shapes. Note that
 275:C:/Renesas/e2studio_2021_01_workspace_RZA2M_ANPR/ANPR_RZA2M_GR_MANGO/src/tensorflow_lite/src/tensorflow/lite/kernels/internal\types.h ****   // (a) as Dims<4>-dependent code is eliminated, the reliance on this should be
 276:C:/Renesas/e2studio_2021_01_workspace_RZA2M_ANPR/ANPR_RZA2M_GR_MANGO/src/tensorflow_lite/src/tensorflow/lite/kernels/internal\types.h ****   // reduced, and (b) some kernels are stricly 4-D, but then the shapes of their
 277:C:/Renesas/e2studio_2021_01_workspace_RZA2M_ANPR/ANPR_RZA2M_GR_MANGO/src/tensorflow_lite/src/tensorflow/lite/kernels/internal\types.h ****   // inputs should already be 4-D, so this function should not be needed.
 278:C:/Renesas/e2studio_2021_01_workspace_RZA2M_ANPR/ANPR_RZA2M_GR_MANGO/src/tensorflow_lite/src/tensorflow/lite/kernels/internal\types.h ****   inline static RuntimeShape ExtendedShape(int new_shape_size,
 279:C:/Renesas/e2studio_2021_01_workspace_RZA2M_ANPR/ANPR_RZA2M_GR_MANGO/src/tensorflow_lite/src/tensorflow/lite/kernels/internal\types.h ****                                            const RuntimeShape& shape) {
 280:C:/Renesas/e2studio_2021_01_workspace_RZA2M_ANPR/ANPR_RZA2M_GR_MANGO/src/tensorflow_lite/src/tensorflow/lite/kernels/internal\types.h ****     return RuntimeShape(new_shape_size, shape, 1);
 281:C:/Renesas/e2studio_2021_01_workspace_RZA2M_ANPR/ANPR_RZA2M_GR_MANGO/src/tensorflow_lite/src/tensorflow/lite/kernels/internal\types.h ****   }
 282:C:/Renesas/e2studio_2021_01_workspace_RZA2M_ANPR/ANPR_RZA2M_GR_MANGO/src/tensorflow_lite/src/tensorflow/lite/kernels/internal\types.h **** 
 283:C:/Renesas/e2studio_2021_01_workspace_RZA2M_ANPR/ANPR_RZA2M_GR_MANGO/src/tensorflow_lite/src/tensorflow/lite/kernels/internal\types.h ****   inline void BuildFrom(const std::initializer_list<int> init_list) {
 284:C:/Renesas/e2studio_2021_01_workspace_RZA2M_ANPR/ANPR_RZA2M_GR_MANGO/src/tensorflow_lite/src/tensorflow/lite/kernels/internal\types.h ****     BuildFrom<const std::initializer_list<int>>(init_list);
 285:C:/Renesas/e2studio_2021_01_workspace_RZA2M_ANPR/ANPR_RZA2M_GR_MANGO/src/tensorflow_lite/src/tensorflow/lite/kernels/internal\types.h ****   }
 286:C:/Renesas/e2studio_2021_01_workspace_RZA2M_ANPR/ANPR_RZA2M_GR_MANGO/src/tensorflow_lite/src/tensorflow/lite/kernels/internal\types.h **** 
 287:C:/Renesas/e2studio_2021_01_workspace_RZA2M_ANPR/ANPR_RZA2M_GR_MANGO/src/tensorflow_lite/src/tensorflow/lite/kernels/internal\types.h ****   // Returns the total count of elements, that is the size when flattened into a
 288:C:/Renesas/e2studio_2021_01_workspace_RZA2M_ANPR/ANPR_RZA2M_GR_MANGO/src/tensorflow_lite/src/tensorflow/lite/kernels/internal\types.h ****   // vector.
 289:C:/Renesas/e2studio_2021_01_workspace_RZA2M_ANPR/ANPR_RZA2M_GR_MANGO/src/tensorflow_lite/src/tensorflow/lite/kernels/internal\types.h ****   inline int FlatSize() const {
 290:C:/Renesas/e2studio_2021_01_workspace_RZA2M_ANPR/ANPR_RZA2M_GR_MANGO/src/tensorflow_lite/src/tensorflow/lite/kernels/internal\types.h ****     int buffer_size = 1;
 291:C:/Renesas/e2studio_2021_01_workspace_RZA2M_ANPR/ANPR_RZA2M_GR_MANGO/src/tensorflow_lite/src/tensorflow/lite/kernels/internal\types.h ****     const int* dims_data = reinterpret_cast<const int*>(DimsData());
 292:C:/Renesas/e2studio_2021_01_workspace_RZA2M_ANPR/ANPR_RZA2M_GR_MANGO/src/tensorflow_lite/src/tensorflow/lite/kernels/internal\types.h ****     for (int i = 0; i < size_; i++) {
 293:C:/Renesas/e2studio_2021_01_workspace_RZA2M_ANPR/ANPR_RZA2M_GR_MANGO/src/tensorflow_lite/src/tensorflow/lite/kernels/internal\types.h ****       buffer_size *= dims_data[i];
 294:C:/Renesas/e2studio_2021_01_workspace_RZA2M_ANPR/ANPR_RZA2M_GR_MANGO/src/tensorflow_lite/src/tensorflow/lite/kernels/internal\types.h ****     }
 295:C:/Renesas/e2studio_2021_01_workspace_RZA2M_ANPR/ANPR_RZA2M_GR_MANGO/src/tensorflow_lite/src/tensorflow/lite/kernels/internal\types.h ****     return buffer_size;
 296:C:/Renesas/e2studio_2021_01_workspace_RZA2M_ANPR/ANPR_RZA2M_GR_MANGO/src/tensorflow_lite/src/tensorflow/lite/kernels/internal\types.h ****   }
 297:C:/Renesas/e2studio_2021_01_workspace_RZA2M_ANPR/ANPR_RZA2M_GR_MANGO/src/tensorflow_lite/src/tensorflow/lite/kernels/internal\types.h **** 
 298:C:/Renesas/e2studio_2021_01_workspace_RZA2M_ANPR/ANPR_RZA2M_GR_MANGO/src/tensorflow_lite/src/tensorflow/lite/kernels/internal\types.h ****   bool operator!=(const RuntimeShape& comp) const { return !((*this) == comp); }
 299:C:/Renesas/e2studio_2021_01_workspace_RZA2M_ANPR/ANPR_RZA2M_GR_MANGO/src/tensorflow_lite/src/tensorflow/lite/kernels/internal\types.h **** 
 300:C:/Renesas/e2studio_2021_01_workspace_RZA2M_ANPR/ANPR_RZA2M_GR_MANGO/src/tensorflow_lite/src/tensorflow/lite/kernels/internal\types.h ****  private:
 301:C:/Renesas/e2studio_2021_01_workspace_RZA2M_ANPR/ANPR_RZA2M_GR_MANGO/src/tensorflow_lite/src/tensorflow/lite/kernels/internal\types.h ****   // For use only by ExtendedShape(), written to guarantee (return-value) copy
 302:C:/Renesas/e2studio_2021_01_workspace_RZA2M_ANPR/ANPR_RZA2M_GR_MANGO/src/tensorflow_lite/src/tensorflow/lite/kernels/internal\types.h ****   // elision in C++17.
 303:C:/Renesas/e2studio_2021_01_workspace_RZA2M_ANPR/ANPR_RZA2M_GR_MANGO/src/tensorflow_lite/src/tensorflow/lite/kernels/internal\types.h ****   // This creates a shape padded to the desired size with the specified value.
 304:C:/Renesas/e2studio_2021_01_workspace_RZA2M_ANPR/ANPR_RZA2M_GR_MANGO/src/tensorflow_lite/src/tensorflow/lite/kernels/internal\types.h ****   RuntimeShape(int new_shape_size, const RuntimeShape& shape, int pad_value)
 305:C:/Renesas/e2studio_2021_01_workspace_RZA2M_ANPR/ANPR_RZA2M_GR_MANGO/src/tensorflow_lite/src/tensorflow/lite/kernels/internal\types.h ****       : size_(0) {
 306:C:/Renesas/e2studio_2021_01_workspace_RZA2M_ANPR/ANPR_RZA2M_GR_MANGO/src/tensorflow_lite/src/tensorflow/lite/kernels/internal\types.h ****     // If the following check fails, it is likely because a 4D-only kernel is
 307:C:/Renesas/e2studio_2021_01_workspace_RZA2M_ANPR/ANPR_RZA2M_GR_MANGO/src/tensorflow_lite/src/tensorflow/lite/kernels/internal\types.h ****     // being used with an array of larger dimension count.
 308:C:/Renesas/e2studio_2021_01_workspace_RZA2M_ANPR/ANPR_RZA2M_GR_MANGO/src/tensorflow_lite/src/tensorflow/lite/kernels/internal\types.h ****     TFLITE_CHECK_GE(new_shape_size, shape.DimensionsCount());
 309:C:/Renesas/e2studio_2021_01_workspace_RZA2M_ANPR/ANPR_RZA2M_GR_MANGO/src/tensorflow_lite/src/tensorflow/lite/kernels/internal\types.h ****     Resize(new_shape_size);
 310:C:/Renesas/e2studio_2021_01_workspace_RZA2M_ANPR/ANPR_RZA2M_GR_MANGO/src/tensorflow_lite/src/tensorflow/lite/kernels/internal\types.h ****     const int size_increase = new_shape_size - shape.DimensionsCount();
 311:C:/Renesas/e2studio_2021_01_workspace_RZA2M_ANPR/ANPR_RZA2M_GR_MANGO/src/tensorflow_lite/src/tensorflow/lite/kernels/internal\types.h ****     for (int i = 0; i < size_increase; ++i) {
 630              		.loc 5 311 0
 631 009c 040072E2 		rsbs	r0, r2, #4
 632              	.LBE366:
 633              	.LBB377:
 634              	.LBB378:
 245:C:/Renesas/e2studio_2021_01_workspace_RZA2M_ANPR/ANPR_RZA2M_GR_MANGO/src/tensorflow_lite/src/tensorflow/lite/kernels/internal\types.h ****     if (dimensions_count > kMaxSmallSize) {
 635              		.loc 5 245 0
 636 00a0 0430A0E3 		mov	r3, #4
 637 00a4 80308DE5 		str	r3, [sp, #128]
 638              	.LVL74:
 639              	.LBE378:
 640              	.LBE377:
 641              	.LBB379:
 642              		.loc 5 311 0
 643 00a8 3A00000A 		beq	.L102
 644              	.LVL75:
 645 00ac 010050E3 		cmp	r0, #1
 646              	.LBB367:
 647              	.LBB368:
 224:C:/Renesas/e2studio_2021_01_workspace_RZA2M_ANPR/ANPR_RZA2M_GR_MANGO/src/tensorflow_lite/src/tensorflow/lite/kernels/internal\types.h ****     }
 648              		.loc 5 224 0
 649 00b0 0130A0E3 		mov	r3, #1
 650 00b4 84308DE5 		str	r3, [sp, #132]
 651              	.LVL76:
 652              	.LBE368:
 653              	.LBE367:
 654              		.loc 5 311 0
 655 00b8 3600000A 		beq	.L102
 656              	.LVL77:
 657 00bc 020050E3 		cmp	r0, #2
 658              	.LBB373:
 659              	.LBB369:
 224:C:/Renesas/e2studio_2021_01_workspace_RZA2M_ANPR/ANPR_RZA2M_GR_MANGO/src/tensorflow_lite/src/tensorflow/lite/kernels/internal\types.h ****     }
 660              		.loc 5 224 0
 661 00c0 88308DE5 		str	r3, [sp, #136]
 662              	.LVL78:
 663              	.LBE369:
 664              	.LBE373:
 665              		.loc 5 311 0
 666 00c4 3300000A 		beq	.L102
 667              	.LVL79:
 668 00c8 030050E3 		cmp	r0, #3
 669              	.LBB374:
 670              	.LBB370:
 224:C:/Renesas/e2studio_2021_01_workspace_RZA2M_ANPR/ANPR_RZA2M_GR_MANGO/src/tensorflow_lite/src/tensorflow/lite/kernels/internal\types.h ****     }
 671              		.loc 5 224 0
 672 00cc 8C308DE5 		str	r3, [sp, #140]
 673              	.LVL80:
 674              	.LBE370:
 675              	.LBE374:
 676              		.loc 5 311 0
 677 00d0 3000000A 		beq	.L102
 678              	.LVL81:
 679 00d4 040050E3 		cmp	r0, #4
 680              	.LBB375:
 681              	.LBB371:
 224:C:/Renesas/e2studio_2021_01_workspace_RZA2M_ANPR/ANPR_RZA2M_GR_MANGO/src/tensorflow_lite/src/tensorflow/lite/kernels/internal\types.h ****     }
 682              		.loc 5 224 0
 683 00d8 90308DE5 		str	r3, [sp, #144]
 684              	.LVL82:
 685              	.LBE371:
 686              	.LBE375:
 687              		.loc 5 311 0
 688 00dc 2D00000A 		beq	.L102
 689              	.LVL83:
 690              	.LEHB2:
 691              	.LBB376:
 692              	.LBB372:
 220:C:/Renesas/e2studio_2021_01_workspace_RZA2M_ANPR/ANPR_RZA2M_GR_MANGO/src/tensorflow_lite/src/tensorflow/lite/kernels/internal\types.h ****     if (size_ > kMaxSmallSize) {
 693              		.loc 5 220 0
 694 00e0 FEFFFFEB 		bl	abort
 695              	.LVL84:
 696              	.LEHE2:
 697              	.L421:
 698              	.LBE372:
 699              	.LBE376:
 700              	.LBE379:
 701              	.LBE365:
 702              	.LBE364:
 703              	.LBE363:
 704              	.LBE362:
 705              	.LBE361:
 706              	.LBE360:
 118:../src/tensorflow_lite/src/tensorflow/lite/micro/kernels/depth_to_space.cpp ****                                   tflite::micro::GetTensorData<int8_t>(output));
 119:../src/tensorflow_lite/src/tensorflow/lite/micro/kernels/depth_to_space.cpp ****       break;
 120:../src/tensorflow_lite/src/tensorflow/lite/micro/kernels/depth_to_space.cpp ****     default:
 121:../src/tensorflow_lite/src/tensorflow/lite/micro/kernels/depth_to_space.cpp ****       TF_LITE_KERNEL_LOG(
 707              		.loc 1 121 0
 708 00e4 0800D0E5 		ldrb	r0, [r0, #8]	@ zero_extendqisi2
 709 00e8 144095E5 		ldr	r4, [r5, #20]
 710              	.LEHB3:
 711 00ec FEFFFFEB 		bl	TfLiteTypeGetName
 712              	.LVL85:
 713 00f0 001000E3 		movw	r1, #:lower16:.LC20
 714 00f4 0020A0E1 		mov	r2, r0
 715 00f8 001040E3 		movt	r1, #:upper16:.LC20
 716 00fc 0500A0E1 		mov	r0, r5
 717 0100 34FF2FE1 		blx	r4
 718              	.LVL86:
 122:../src/tensorflow_lite/src/tensorflow/lite/micro/kernels/depth_to_space.cpp ****           context, "DEPTH_TO_SPACE only supports FLOAT32 and INT8, got %s.",
 123:../src/tensorflow_lite/src/tensorflow/lite/micro/kernels/depth_to_space.cpp ****           TfLiteTypeGetName(output->type));
 124:../src/tensorflow_lite/src/tensorflow/lite/micro/kernels/depth_to_space.cpp ****       return kTfLiteError;
 719              		.loc 1 124 0
 720 0104 0100A0E3 		mov	r0, #1
 721              	.LVL87:
 722              	.L327:
 125:../src/tensorflow_lite/src/tensorflow/lite/micro/kernels/depth_to_space.cpp ****   }
 126:../src/tensorflow_lite/src/tensorflow/lite/micro/kernels/depth_to_space.cpp **** 
 127:../src/tensorflow_lite/src/tensorflow/lite/micro/kernels/depth_to_space.cpp ****   return kTfLiteOk;
 128:../src/tensorflow_lite/src/tensorflow/lite/micro/kernels/depth_to_space.cpp **** }
 723              		.loc 1 128 0
 724 0108 B4D08DE2 		add	sp, sp, #180
 725              		.cfi_remember_state
 726              		.cfi_def_cfa_offset 36
 727              		@ sp needed
 728 010c F08FBDE8 		pop	{r4, r5, r6, r7, r8, r9, r10, fp, pc}
 729              	.LVL88:
 730              	.L26:
 731              		.cfi_restore_state
 108:../src/tensorflow_lite/src/tensorflow/lite/micro/kernels/depth_to_space.cpp ****                                   tflite::micro::GetTensorData<float>(input),
 732              		.loc 1 108 0
 733 0110 0610A0E1 		mov	r1, r6
 734 0114 50008DE2 		add	r0, sp, #80
 735 0118 FEFFFFEB 		bl	_ZN6tflite5micro14GetTensorShapeEPK16TfLiteEvalTensor
 736              	.LVL89:
 737              	.LEHE3:
 738              	.LBB571:
 739              	.LBB572:
 740              		.loc 3 63 0
 741 011c 003096E5 		ldr	r3, [r6]
 742              	.LBE572:
 743              	.LBE571:
 110:../src/tensorflow_lite/src/tensorflow/lite/micro/kernels/depth_to_space.cpp ****                                   tflite::micro::GetTensorData<float>(output));
 744              		.loc 1 110 0
 745 0120 0410A0E1 		mov	r1, r4
 746 0124 68008DE2 		add	r0, sp, #104
 747              	.LBB574:
 748              	.LBB573:
 749              		.loc 3 63 0
 750 0128 28308DE5 		str	r3, [sp, #40]
 751              	.LEHB4:
 752              	.LBE573:
 753              	.LBE574:
 110:../src/tensorflow_lite/src/tensorflow/lite/micro/kernels/depth_to_space.cpp ****                                   tflite::micro::GetTensorData<float>(output));
 754              		.loc 1 110 0
 755 012c FEFFFFEB 		bl	_ZN6tflite5micro14GetTensorShapeEPK16TfLiteEvalTensor
 756              	.LVL90:
 757              	.LEHE4:
 758 0130 50209DE5 		ldr	r2, [sp, #80]
 759              	.LBB575:
 760              	.LBB576:
  56:C:/Renesas/e2studio_2021_01_workspace_RZA2M_ANPR/ANPR_RZA2M_GR_MANGO/src/tensorflow_lite/src/tensorflow/lite/micro/kernels\kernel_util.h **** }
 761              		.loc 3 56 0
 762 0134 000054E3 		cmp	r4, #0
 763 0138 00409415 		ldrne	r4, [r4]
 764              	.LVL91:
 765              	.LBE576:
 766              	.LBE575:
 767              	.LBB577:
 768              	.LBB578:
  29:C:/Renesas/e2studio_2021_01_workspace_RZA2M_ANPR/ANPR_RZA2M_GR_MANGO/src/tensorflow_lite/src/tensorflow/lite/kernels/internal/reference\depth_to_space.h ****   TFLITE_DCHECK_LE(unextended_output_shape.DimensionsCount(), 4);
 769              		.loc 4 29 0
 770 013c 040052E3 		cmp	r2, #4
 771 0140 450200CA 		bgt	.L424
 772 0144 68509DE5 		ldr	r5, [sp, #104]
 773              	.LVL92:
 774              		.loc 4 30 0
 775 0148 040055E3 		cmp	r5, #4
 776 014c 430200CA 		bgt	.L425
 777              	.LVL93:
 778              	.LBB579:
 779              	.LBB580:
 780              	.LBB581:
 781              	.LBB582:
 782              	.LBB583:
 783              		.loc 5 311 0
 784 0150 040072E2 		rsbs	r0, r2, #4
 785              	.LBE583:
 786              	.LBB594:
 787              	.LBB595:
 245:C:/Renesas/e2studio_2021_01_workspace_RZA2M_ANPR/ANPR_RZA2M_GR_MANGO/src/tensorflow_lite/src/tensorflow/lite/kernels/internal\types.h ****     if (dimensions_count > kMaxSmallSize) {
 788              		.loc 5 245 0
 789 0154 0430A0E3 		mov	r3, #4
 790 0158 80308DE5 		str	r3, [sp, #128]
 791              	.LVL94:
 792              	.LBE595:
 793              	.LBE594:
 794              	.LBB596:
 795              		.loc 5 311 0
 796 015c 2400000A 		beq	.L34
 797              	.LVL95:
 798 0160 010050E3 		cmp	r0, #1
 799              	.LBB584:
 800              	.LBB585:
 224:C:/Renesas/e2studio_2021_01_workspace_RZA2M_ANPR/ANPR_RZA2M_GR_MANGO/src/tensorflow_lite/src/tensorflow/lite/kernels/internal\types.h ****     }
 801              		.loc 5 224 0
 802 0164 0130A0E3 		mov	r3, #1
 803 0168 84308DE5 		str	r3, [sp, #132]
 804              	.LVL96:
 805              	.LBE585:
 806              	.LBE584:
 807              		.loc 5 311 0
 808 016c 2000000A 		beq	.L34
 809              	.LVL97:
 810 0170 020050E3 		cmp	r0, #2
 811              	.LBB590:
 812              	.LBB586:
 224:C:/Renesas/e2studio_2021_01_workspace_RZA2M_ANPR/ANPR_RZA2M_GR_MANGO/src/tensorflow_lite/src/tensorflow/lite/kernels/internal\types.h ****     }
 813              		.loc 5 224 0
 814 0174 88308DE5 		str	r3, [sp, #136]
 815              	.LVL98:
 816              	.LBE586:
 817              	.LBE590:
 818              		.loc 5 311 0
 819 0178 1D00000A 		beq	.L34
 820              	.LVL99:
 821 017c 030050E3 		cmp	r0, #3
 822              	.LBB591:
 823              	.LBB587:
 224:C:/Renesas/e2studio_2021_01_workspace_RZA2M_ANPR/ANPR_RZA2M_GR_MANGO/src/tensorflow_lite/src/tensorflow/lite/kernels/internal\types.h ****     }
 824              		.loc 5 224 0
 825 0180 8C308DE5 		str	r3, [sp, #140]
 826              	.LVL100:
 827              	.LBE587:
 828              	.LBE591:
 829              		.loc 5 311 0
 830 0184 1A00000A 		beq	.L34
 831              	.LVL101:
 832 0188 040050E3 		cmp	r0, #4
 833              	.LBB592:
 834              	.LBB588:
 224:C:/Renesas/e2studio_2021_01_workspace_RZA2M_ANPR/ANPR_RZA2M_GR_MANGO/src/tensorflow_lite/src/tensorflow/lite/kernels/internal\types.h ****     }
 835              		.loc 5 224 0
 836 018c 90308DE5 		str	r3, [sp, #144]
 837              	.LVL102:
 838              	.LBE588:
 839              	.LBE592:
 840              		.loc 5 311 0
 841 0190 1700000A 		beq	.L34
 842              	.LVL103:
 843              	.LEHB5:
 844              	.LBB593:
 845              	.LBB589:
 220:C:/Renesas/e2studio_2021_01_workspace_RZA2M_ANPR/ANPR_RZA2M_GR_MANGO/src/tensorflow_lite/src/tensorflow/lite/kernels/internal\types.h ****     if (size_ > kMaxSmallSize) {
 846              		.loc 5 220 0
 847 0194 FEFFFFEB 		bl	abort
 848              	.LVL104:
 849              	.LEHE5:
 850              	.L102:
 851              	.LBE589:
 852              	.LBE593:
 853              	.LBE596:
 854              	.LBE582:
 855              	.LBE581:
 856              	.LBE580:
 857              	.LBE579:
 858              	.LBE578:
 859              	.LBE577:
 860              	.LBB753:
 861              	.LBB559:
 862              	.LBB383:
 863              	.LBB382:
 864              	.LBB381:
 865              	.LBB380:
 312:C:/Renesas/e2studio_2021_01_workspace_RZA2M_ANPR/ANPR_RZA2M_GR_MANGO/src/tensorflow_lite/src/tensorflow/lite/kernels/internal\types.h ****       SetDim(i, pad_value);
 313:C:/Renesas/e2studio_2021_01_workspace_RZA2M_ANPR/ANPR_RZA2M_GR_MANGO/src/tensorflow_lite/src/tensorflow/lite/kernels/internal\types.h ****     }
 314:C:/Renesas/e2studio_2021_01_workspace_RZA2M_ANPR/ANPR_RZA2M_GR_MANGO/src/tensorflow_lite/src/tensorflow/lite/kernels/internal\types.h ****     std::memcpy(DimsData() + size_increase, shape.DimsData(),
 315:C:/Renesas/e2studio_2021_01_workspace_RZA2M_ANPR/ANPR_RZA2M_GR_MANGO/src/tensorflow_lite/src/tensorflow/lite/kernels/internal\types.h ****                 sizeof(int32_t) * shape.DimensionsCount());
 866              		.loc 5 315 0
 867 0198 84308DE2 		add	r3, sp, #132
 868 019c 0221A0E1 		lsl	r2, r2, #2
 869 01a0 000183E0 		add	r0, r3, r0, lsl #2
 870              	.LVL105:
 871 01a4 54108DE2 		add	r1, sp, #84
 872 01a8 FEFFFFEB 		bl	memcpy
 873              	.LVL106:
 874              	.LBE380:
 875              	.LBE381:
 876              	.LBE382:
 877              	.LBE383:
 878              	.LBB384:
 879              	.LBB385:
 880              	.LBB386:
 881              	.LBB387:
 882              	.LBB388:
 311:C:/Renesas/e2studio_2021_01_workspace_RZA2M_ANPR/ANPR_RZA2M_GR_MANGO/src/tensorflow_lite/src/tensorflow/lite/kernels/internal\types.h ****       SetDim(i, pad_value);
 883              		.loc 5 311 0
 884 01ac 040075E2 		rsbs	r0, r5, #4
 885              	.LBE388:
 886              	.LBB399:
 887              	.LBB400:
 245:C:/Renesas/e2studio_2021_01_workspace_RZA2M_ANPR/ANPR_RZA2M_GR_MANGO/src/tensorflow_lite/src/tensorflow/lite/kernels/internal\types.h ****     if (dimensions_count > kMaxSmallSize) {
 888              		.loc 5 245 0
 889 01b0 0430A0E3 		mov	r3, #4
 890 01b4 98308DE5 		str	r3, [sp, #152]
 891              	.LVL107:
 892              	.LBE400:
 893              	.LBE399:
 894              	.LBB401:
 311:C:/Renesas/e2studio_2021_01_workspace_RZA2M_ANPR/ANPR_RZA2M_GR_MANGO/src/tensorflow_lite/src/tensorflow/lite/kernels/internal\types.h ****       SetDim(i, pad_value);
 895              		.loc 5 311 0
 896 01b8 2400000A 		beq	.L100
 897              	.LVL108:
 898 01bc 010050E3 		cmp	r0, #1
 899              	.LBB389:
 900              	.LBB390:
 224:C:/Renesas/e2studio_2021_01_workspace_RZA2M_ANPR/ANPR_RZA2M_GR_MANGO/src/tensorflow_lite/src/tensorflow/lite/kernels/internal\types.h ****     }
 901              		.loc 5 224 0
 902 01c0 0130A0E3 		mov	r3, #1
 903 01c4 9C308DE5 		str	r3, [sp, #156]
 904              	.LVL109:
 905              	.LBE390:
 906              	.LBE389:
 311:C:/Renesas/e2studio_2021_01_workspace_RZA2M_ANPR/ANPR_RZA2M_GR_MANGO/src/tensorflow_lite/src/tensorflow/lite/kernels/internal\types.h ****       SetDim(i, pad_value);
 907              		.loc 5 311 0
 908 01c8 2000000A 		beq	.L100
 909              	.LVL110:
 910 01cc 020050E3 		cmp	r0, #2
 911              	.LBB395:
 912              	.LBB391:
 224:C:/Renesas/e2studio_2021_01_workspace_RZA2M_ANPR/ANPR_RZA2M_GR_MANGO/src/tensorflow_lite/src/tensorflow/lite/kernels/internal\types.h ****     }
 913              		.loc 5 224 0
 914 01d0 A0308DE5 		str	r3, [sp, #160]
 915              	.LVL111:
 916              	.LBE391:
 917              	.LBE395:
 311:C:/Renesas/e2studio_2021_01_workspace_RZA2M_ANPR/ANPR_RZA2M_GR_MANGO/src/tensorflow_lite/src/tensorflow/lite/kernels/internal\types.h ****       SetDim(i, pad_value);
 918              		.loc 5 311 0
 919 01d4 1D00000A 		beq	.L100
 920              	.LVL112:
 921 01d8 030050E3 		cmp	r0, #3
 922              	.LBB396:
 923              	.LBB392:
 224:C:/Renesas/e2studio_2021_01_workspace_RZA2M_ANPR/ANPR_RZA2M_GR_MANGO/src/tensorflow_lite/src/tensorflow/lite/kernels/internal\types.h ****     }
 924              		.loc 5 224 0
 925 01dc A4308DE5 		str	r3, [sp, #164]
 926              	.LVL113:
 927              	.LBE392:
 928              	.LBE396:
 311:C:/Renesas/e2studio_2021_01_workspace_RZA2M_ANPR/ANPR_RZA2M_GR_MANGO/src/tensorflow_lite/src/tensorflow/lite/kernels/internal\types.h ****       SetDim(i, pad_value);
 929              		.loc 5 311 0
 930 01e0 1A00000A 		beq	.L100
 931              	.LVL114:
 932 01e4 040050E3 		cmp	r0, #4
 933              	.LBB397:
 934              	.LBB393:
 224:C:/Renesas/e2studio_2021_01_workspace_RZA2M_ANPR/ANPR_RZA2M_GR_MANGO/src/tensorflow_lite/src/tensorflow/lite/kernels/internal\types.h ****     }
 935              		.loc 5 224 0
 936 01e8 A8308DE5 		str	r3, [sp, #168]
 937              	.LVL115:
 938              	.LBE393:
 939              	.LBE397:
 311:C:/Renesas/e2studio_2021_01_workspace_RZA2M_ANPR/ANPR_RZA2M_GR_MANGO/src/tensorflow_lite/src/tensorflow/lite/kernels/internal\types.h ****       SetDim(i, pad_value);
 940              		.loc 5 311 0
 941 01ec 1700000A 		beq	.L100
 942              	.LVL116:
 943              	.LEHB6:
 944              	.LBB398:
 945              	.LBB394:
 220:C:/Renesas/e2studio_2021_01_workspace_RZA2M_ANPR/ANPR_RZA2M_GR_MANGO/src/tensorflow_lite/src/tensorflow/lite/kernels/internal\types.h ****     if (size_ > kMaxSmallSize) {
 946              		.loc 5 220 0
 947 01f0 FEFFFFEB 		bl	abort
 948              	.LVL117:
 949              	.LEHE6:
 950              	.L34:
 951              	.LBE394:
 952              	.LBE398:
 953              	.LBE401:
 954              	.LBE387:
 955              	.LBE386:
 956              	.LBE385:
 957              	.LBE384:
 958              	.LBE559:
 959              	.LBE753:
 960              	.LBB754:
 961              	.LBB742:
 962              	.LBB600:
 963              	.LBB599:
 964              	.LBB598:
 965              	.LBB597:
 966              		.loc 5 315 0
 967 01f4 84308DE2 		add	r3, sp, #132
 968 01f8 0221A0E1 		lsl	r2, r2, #2
 969 01fc 000183E0 		add	r0, r3, r0, lsl #2
 970              	.LVL118:
 971 0200 54108DE2 		add	r1, sp, #84
 972 0204 FEFFFFEB 		bl	memcpy
 973              	.LVL119:
 974              	.LBE597:
 975              	.LBE598:
 976              	.LBE599:
 977              	.LBE600:
 978              	.LBB601:
 979              	.LBB602:
 980              	.LBB603:
 981              	.LBB604:
 982              	.LBB605:
 311:C:/Renesas/e2studio_2021_01_workspace_RZA2M_ANPR/ANPR_RZA2M_GR_MANGO/src/tensorflow_lite/src/tensorflow/lite/kernels/internal\types.h ****       SetDim(i, pad_value);
 983              		.loc 5 311 0
 984 0208 040075E2 		rsbs	r0, r5, #4
 985              	.LBE605:
 986              	.LBB616:
 987              	.LBB617:
 245:C:/Renesas/e2studio_2021_01_workspace_RZA2M_ANPR/ANPR_RZA2M_GR_MANGO/src/tensorflow_lite/src/tensorflow/lite/kernels/internal\types.h ****     if (dimensions_count > kMaxSmallSize) {
 988              		.loc 5 245 0
 989 020c 0430A0E3 		mov	r3, #4
 990 0210 98308DE5 		str	r3, [sp, #152]
 991              	.LVL120:
 992              	.LBE617:
 993              	.LBE616:
 994              	.LBB618:
 311:C:/Renesas/e2studio_2021_01_workspace_RZA2M_ANPR/ANPR_RZA2M_GR_MANGO/src/tensorflow_lite/src/tensorflow/lite/kernels/internal\types.h ****       SetDim(i, pad_value);
 995              		.loc 5 311 0
 996 0214 E300000A 		beq	.L32
 997              	.LVL121:
 998 0218 010050E3 		cmp	r0, #1
 999              	.LBB606:
 1000              	.LBB607:
 224:C:/Renesas/e2studio_2021_01_workspace_RZA2M_ANPR/ANPR_RZA2M_GR_MANGO/src/tensorflow_lite/src/tensorflow/lite/kernels/internal\types.h ****     }
 1001              		.loc 5 224 0
 1002 021c 0130A0E3 		mov	r3, #1
 1003 0220 9C308DE5 		str	r3, [sp, #156]
 1004              	.LVL122:
 1005              	.LBE607:
 1006              	.LBE606:
 311:C:/Renesas/e2studio_2021_01_workspace_RZA2M_ANPR/ANPR_RZA2M_GR_MANGO/src/tensorflow_lite/src/tensorflow/lite/kernels/internal\types.h ****       SetDim(i, pad_value);
 1007              		.loc 5 311 0
 1008 0224 DF00000A 		beq	.L32
 1009              	.LVL123:
 1010 0228 020050E3 		cmp	r0, #2
 1011              	.LBB612:
 1012              	.LBB608:
 224:C:/Renesas/e2studio_2021_01_workspace_RZA2M_ANPR/ANPR_RZA2M_GR_MANGO/src/tensorflow_lite/src/tensorflow/lite/kernels/internal\types.h ****     }
 1013              		.loc 5 224 0
 1014 022c A0308DE5 		str	r3, [sp, #160]
 1015              	.LVL124:
 1016              	.LBE608:
 1017              	.LBE612:
 311:C:/Renesas/e2studio_2021_01_workspace_RZA2M_ANPR/ANPR_RZA2M_GR_MANGO/src/tensorflow_lite/src/tensorflow/lite/kernels/internal\types.h ****       SetDim(i, pad_value);
 1018              		.loc 5 311 0
 1019 0230 DC00000A 		beq	.L32
 1020              	.LVL125:
 1021 0234 030050E3 		cmp	r0, #3
 1022              	.LBB613:
 1023              	.LBB609:
 224:C:/Renesas/e2studio_2021_01_workspace_RZA2M_ANPR/ANPR_RZA2M_GR_MANGO/src/tensorflow_lite/src/tensorflow/lite/kernels/internal\types.h ****     }
 1024              		.loc 5 224 0
 1025 0238 A4308DE5 		str	r3, [sp, #164]
 1026              	.LVL126:
 1027              	.LBE609:
 1028              	.LBE613:
 311:C:/Renesas/e2studio_2021_01_workspace_RZA2M_ANPR/ANPR_RZA2M_GR_MANGO/src/tensorflow_lite/src/tensorflow/lite/kernels/internal\types.h ****       SetDim(i, pad_value);
 1029              		.loc 5 311 0
 1030 023c D900000A 		beq	.L32
 1031              	.LVL127:
 1032 0240 040050E3 		cmp	r0, #4
 1033              	.LBB614:
 1034              	.LBB610:
 224:C:/Renesas/e2studio_2021_01_workspace_RZA2M_ANPR/ANPR_RZA2M_GR_MANGO/src/tensorflow_lite/src/tensorflow/lite/kernels/internal\types.h ****     }
 1035              		.loc 5 224 0
 1036 0244 A8308DE5 		str	r3, [sp, #168]
 1037              	.LVL128:
 1038              	.LBE610:
 1039              	.LBE614:
 311:C:/Renesas/e2studio_2021_01_workspace_RZA2M_ANPR/ANPR_RZA2M_GR_MANGO/src/tensorflow_lite/src/tensorflow/lite/kernels/internal\types.h ****       SetDim(i, pad_value);
 1040              		.loc 5 311 0
 1041 0248 D600000A 		beq	.L32
 1042              	.LVL129:
 1043              	.LEHB7:
 1044              	.LBB615:
 1045              	.LBB611:
 220:C:/Renesas/e2studio_2021_01_workspace_RZA2M_ANPR/ANPR_RZA2M_GR_MANGO/src/tensorflow_lite/src/tensorflow/lite/kernels/internal\types.h ****     if (size_ > kMaxSmallSize) {
 1046              		.loc 5 220 0
 1047 024c FEFFFFEB 		bl	abort
 1048              	.LVL130:
 1049              	.LEHE7:
 1050              	.L100:
 1051              	.LBE611:
 1052              	.LBE615:
 1053              	.LBE618:
 1054              	.LBE604:
 1055              	.LBE603:
 1056              	.LBE602:
 1057              	.LBE601:
 1058              	.LBE742:
 1059              	.LBE754:
 1060              	.LBB755:
 1061              	.LBB560:
 1062              	.LBB405:
 1063              	.LBB404:
 1064              	.LBB403:
 1065              	.LBB402:
 1066              		.loc 5 315 0
 1067 0250 9C308DE2 		add	r3, sp, #156
 1068 0254 0521A0E1 		lsl	r2, r5, #2
 1069 0258 000183E0 		add	r0, r3, r0, lsl #2
 1070              	.LVL131:
 1071 025c 6C108DE2 		add	r1, sp, #108
 1072 0260 FEFFFFEB 		bl	memcpy
 1073              	.LVL132:
 1074              	.LBE402:
 1075              	.LBE403:
 1076              	.LBE404:
 1077              	.LBE405:
 1078              	.LBB406:
 1079              	.LBB407:
 215:C:/Renesas/e2studio_2021_01_workspace_RZA2M_ANPR/ANPR_RZA2M_GR_MANGO/src/tensorflow_lite/src/tensorflow/lite/kernels/internal\types.h ****     return size_ > kMaxSmallSize ? dims_pointer_[i] : dims_[i];
 1080              		.loc 5 215 0
 1081 0264 80309DE5 		ldr	r3, [sp, #128]
 1082 0268 030053E3 		cmp	r3, #3
 1083 026c 10308DE5 		str	r3, [sp, #16]
 1084 0270 F30100DA 		ble	.L426
 216:C:/Renesas/e2studio_2021_01_workspace_RZA2M_ANPR/ANPR_RZA2M_GR_MANGO/src/tensorflow_lite/src/tensorflow/lite/kernels/internal\types.h ****   }
 1085              		.loc 5 216 0
 1086 0274 050053E3 		cmp	r3, #5
 1087              	.LBE407:
 1088              	.LBE406:
 1089              	.LBB411:
 1090              	.LBB412:
 215:C:/Renesas/e2studio_2021_01_workspace_RZA2M_ANPR/ANPR_RZA2M_GR_MANGO/src/tensorflow_lite/src/tensorflow/lite/kernels/internal\types.h ****     return size_ > kMaxSmallSize ? dims_pointer_[i] : dims_[i];
 1091              		.loc 5 215 0
 1092 0278 98809DE5 		ldr	r8, [sp, #152]
 1093              	.LBE412:
 1094              	.LBE411:
 1095              	.LBB419:
 1096              	.LBB408:
 216:C:/Renesas/e2studio_2021_01_workspace_RZA2M_ANPR/ANPR_RZA2M_GR_MANGO/src/tensorflow_lite/src/tensorflow/lite/kernels/internal\types.h ****   }
 1097              		.loc 5 216 0
 1098 027c 84209DC5 		ldrgt	r2, [sp, #132]
 1099              	.LBE408:
 1100              	.LBE419:
 1101              	.LBB420:
 1102              	.LBB421:
 1103 0280 84209DD5 		ldrle	r2, [sp, #132]
 1104              	.LBE421:
 1105              	.LBE420:
 1106              	.LBB424:
 1107              	.LBB409:
 1108 0284 90109DD5 		ldrle	r1, [sp, #144]
 1109 0288 0C1092C5 		ldrgt	r1, [r2, #12]
 1110              	.LVL133:
 1111              	.LBE409:
 1112              	.LBE424:
 1113              	.LBB425:
 1114              	.LBB426:
 1115 028c 083092C5 		ldrgt	r3, [r2, #8]
 1116              	.LVL134:
 1117              	.LBE426:
 1118              	.LBE425:
 1119              	.LBB428:
 1120              	.LBB422:
 1121 0290 041092C8 		ldmgt	r2, {r2, ip}
 1122              	.LBE422:
 1123              	.LBE428:
 1124              	.LBB429:
 1125              	.LBB427:
 1126 0294 8C309DD5 		ldrle	r3, [sp, #140]
 1127              	.LVL135:
 1128              	.LBE427:
 1129              	.LBE429:
 1130              	.LBB430:
 1131              	.LBB431:
 1132 0298 88C09DD5 		ldrle	ip, [sp, #136]
 1133              	.LVL136:
 1134              	.LBE431:
 1135              	.LBE430:
 1136              	.LBB432:
 1137              	.LBB413:
 215:C:/Renesas/e2studio_2021_01_workspace_RZA2M_ANPR/ANPR_RZA2M_GR_MANGO/src/tensorflow_lite/src/tensorflow/lite/kernels/internal\types.h ****     return size_ > kMaxSmallSize ? dims_pointer_[i] : dims_[i];
 1138              		.loc 5 215 0
 1139 029c 030058E3 		cmp	r8, #3
 1140              	.LBE413:
 1141              	.LBE432:
 1142              	.LBB433:
 1143              	.LBB423:
 216:C:/Renesas/e2studio_2021_01_workspace_RZA2M_ANPR/ANPR_RZA2M_GR_MANGO/src/tensorflow_lite/src/tensorflow/lite/kernels/internal\types.h ****   }
 1144              		.loc 5 216 0
 1145 02a0 40208DE5 		str	r2, [sp, #64]
 1146              	.LVL137:
 1147              	.LBE423:
 1148              	.LBE433:
 1149              	.LBB434:
 1150              	.LBB414:
 215:C:/Renesas/e2studio_2021_01_workspace_RZA2M_ANPR/ANPR_RZA2M_GR_MANGO/src/tensorflow_lite/src/tensorflow/lite/kernels/internal\types.h ****     return size_ > kMaxSmallSize ? dims_pointer_[i] : dims_[i];
 1151              		.loc 5 215 0
 1152 02a4 030200DA 		ble	.L427
 216:C:/Renesas/e2studio_2021_01_workspace_RZA2M_ANPR/ANPR_RZA2M_GR_MANGO/src/tensorflow_lite/src/tensorflow/lite/kernels/internal\types.h ****   }
 1153              		.loc 5 216 0
 1154 02a8 050058E3 		cmp	r8, #5
 1155 02ac 7B0100CA 		bgt	.L428
 1156              	.LBE414:
 1157              	.LBE434:
 1158              	.LBB435:
 1159              	.LBB436:
 1160 02b0 A4209DE5 		ldr	r2, [sp, #164]
 1161              	.LBE436:
 1162              	.LBE435:
 1163              	.LBB440:
 1164              	.LBB415:
 1165 02b4 A8509DE5 		ldr	r5, [sp, #168]
 1166              	.LVL138:
 1167              	.LBE415:
 1168              	.LBE440:
 1169              	.LBB441:
 1170              	.LBB442:
 1171 02b8 A0009DE5 		ldr	r0, [sp, #160]
 1172              	.LBE442:
 1173              	.LBE441:
 1174              	.LBB444:
 1175              	.LBB437:
 1176 02bc 14208DE5 		str	r2, [sp, #20]
 1177              	.LVL139:
 1178              	.LBE437:
 1179              	.LBE444:
 1180              	.LBB445:
 1181              	.LBB446:
 1182 02c0 9C209DE5 		ldr	r2, [sp, #156]
 1183              	.L113:
 1184              	.LVL140:
 1185              	.LBE446:
 1186              	.LBE445:
  31:C:/Renesas/e2studio_2021_01_workspace_RZA2M_ANPR/ANPR_RZA2M_GR_MANGO/src/tensorflow_lite/src/tensorflow/lite/kernels/internal/reference\depth_to_space.h ****   const RuntimeShape input_shape =
  32:C:/Renesas/e2studio_2021_01_workspace_RZA2M_ANPR/ANPR_RZA2M_GR_MANGO/src/tensorflow_lite/src/tensorflow/lite/kernels/internal/reference\depth_to_space.h ****       RuntimeShape::ExtendedShape(4, unextended_input_shape);
  33:C:/Renesas/e2studio_2021_01_workspace_RZA2M_ANPR/ANPR_RZA2M_GR_MANGO/src/tensorflow_lite/src/tensorflow/lite/kernels/internal/reference\depth_to_space.h ****   const RuntimeShape output_shape =
  34:C:/Renesas/e2studio_2021_01_workspace_RZA2M_ANPR/ANPR_RZA2M_GR_MANGO/src/tensorflow_lite/src/tensorflow/lite/kernels/internal/reference\depth_to_space.h ****       RuntimeShape::ExtendedShape(4, unextended_output_shape);
  35:C:/Renesas/e2studio_2021_01_workspace_RZA2M_ANPR/ANPR_RZA2M_GR_MANGO/src/tensorflow_lite/src/tensorflow/lite/kernels/internal/reference\depth_to_space.h **** 
  36:C:/Renesas/e2studio_2021_01_workspace_RZA2M_ANPR/ANPR_RZA2M_GR_MANGO/src/tensorflow_lite/src/tensorflow/lite/kernels/internal/reference\depth_to_space.h ****   const int input_depth = input_shape.Dims(3);
  37:C:/Renesas/e2studio_2021_01_workspace_RZA2M_ANPR/ANPR_RZA2M_GR_MANGO/src/tensorflow_lite/src/tensorflow/lite/kernels/internal/reference\depth_to_space.h ****   const int input_width = input_shape.Dims(2);
  38:C:/Renesas/e2studio_2021_01_workspace_RZA2M_ANPR/ANPR_RZA2M_GR_MANGO/src/tensorflow_lite/src/tensorflow/lite/kernels/internal/reference\depth_to_space.h ****   const int input_height = input_shape.Dims(1);
  39:C:/Renesas/e2studio_2021_01_workspace_RZA2M_ANPR/ANPR_RZA2M_GR_MANGO/src/tensorflow_lite/src/tensorflow/lite/kernels/internal/reference\depth_to_space.h ****   const int input_batch = input_shape.Dims(0);
  40:C:/Renesas/e2studio_2021_01_workspace_RZA2M_ANPR/ANPR_RZA2M_GR_MANGO/src/tensorflow_lite/src/tensorflow/lite/kernels/internal/reference\depth_to_space.h **** 
  41:C:/Renesas/e2studio_2021_01_workspace_RZA2M_ANPR/ANPR_RZA2M_GR_MANGO/src/tensorflow_lite/src/tensorflow/lite/kernels/internal/reference\depth_to_space.h ****   const int output_depth = output_shape.Dims(3);
  42:C:/Renesas/e2studio_2021_01_workspace_RZA2M_ANPR/ANPR_RZA2M_GR_MANGO/src/tensorflow_lite/src/tensorflow/lite/kernels/internal/reference\depth_to_space.h ****   const int output_width = output_shape.Dims(2);
  43:C:/Renesas/e2studio_2021_01_workspace_RZA2M_ANPR/ANPR_RZA2M_GR_MANGO/src/tensorflow_lite/src/tensorflow/lite/kernels/internal/reference\depth_to_space.h ****   const int output_height = output_shape.Dims(1);
  44:C:/Renesas/e2studio_2021_01_workspace_RZA2M_ANPR/ANPR_RZA2M_GR_MANGO/src/tensorflow_lite/src/tensorflow/lite/kernels/internal/reference\depth_to_space.h ****   const int output_batch = output_shape.Dims(0);
  45:C:/Renesas/e2studio_2021_01_workspace_RZA2M_ANPR/ANPR_RZA2M_GR_MANGO/src/tensorflow_lite/src/tensorflow/lite/kernels/internal/reference\depth_to_space.h **** 
  46:C:/Renesas/e2studio_2021_01_workspace_RZA2M_ANPR/ANPR_RZA2M_GR_MANGO/src/tensorflow_lite/src/tensorflow/lite/kernels/internal/reference\depth_to_space.h ****   const int32_t block_size = op_params.block_size;
  47:C:/Renesas/e2studio_2021_01_workspace_RZA2M_ANPR/ANPR_RZA2M_GR_MANGO/src/tensorflow_lite/src/tensorflow/lite/kernels/internal/reference\depth_to_space.h **** 
  48:C:/Renesas/e2studio_2021_01_workspace_RZA2M_ANPR/ANPR_RZA2M_GR_MANGO/src/tensorflow_lite/src/tensorflow/lite/kernels/internal/reference\depth_to_space.h ****   TFLITE_DCHECK_EQ(input_width * block_size, output_width);
 1187              		.loc 4 48 0
 1188 02c4 930A03E0 		mul	r3, r3, r10
 1189 02c8 14E09DE5 		ldr	lr, [sp, #20]
 1190 02cc 03005EE1 		cmp	lr, r3
 1191 02d0 F701001A 		bne	.L429
  49:C:/Renesas/e2studio_2021_01_workspace_RZA2M_ANPR/ANPR_RZA2M_GR_MANGO/src/tensorflow_lite/src/tensorflow/lite/kernels/internal/reference\depth_to_space.h ****   TFLITE_DCHECK_EQ(input_height * block_size, output_height);
 1192              		.loc 4 49 0
 1193 02d4 9C0A03E0 		mul	r3, ip, r10
 1194 02d8 000053E1 		cmp	r3, r0
 1195 02dc 3C308DE5 		str	r3, [sp, #60]
 1196 02e0 F501001A 		bne	.L430
  50:C:/Renesas/e2studio_2021_01_workspace_RZA2M_ANPR/ANPR_RZA2M_GR_MANGO/src/tensorflow_lite/src/tensorflow/lite/kernels/internal/reference\depth_to_space.h ****   TFLITE_DCHECK_EQ(input_depth, output_depth * block_size * block_size);
 1197              		.loc 4 50 0
 1198 02e4 950A03E0 		mul	r3, r5, r10
 1199 02e8 9A0303E0 		mul	r3, r10, r3
 1200 02ec 030051E1 		cmp	r1, r3
 1201 02f0 F201001A 		bne	.L431
  51:C:/Renesas/e2studio_2021_01_workspace_RZA2M_ANPR/ANPR_RZA2M_GR_MANGO/src/tensorflow_lite/src/tensorflow/lite/kernels/internal/reference\depth_to_space.h ****   TFLITE_DCHECK_EQ(input_batch, output_batch);
 1202              		.loc 4 51 0
 1203 02f4 40309DE5 		ldr	r3, [sp, #64]
 1204 02f8 020053E1 		cmp	r3, r2
 1205 02fc EB01001A 		bne	.L117
 1206              	.LVL141:
 1207              	.LBB448:
  52:C:/Renesas/e2studio_2021_01_workspace_RZA2M_ANPR/ANPR_RZA2M_GR_MANGO/src/tensorflow_lite/src/tensorflow/lite/kernels/internal/reference\depth_to_space.h **** 
  53:C:/Renesas/e2studio_2021_01_workspace_RZA2M_ANPR/ANPR_RZA2M_GR_MANGO/src/tensorflow_lite/src/tensorflow/lite/kernels/internal/reference\depth_to_space.h ****   for (int out_b = 0; out_b < output_batch; ++out_b) {
 1208              		.loc 4 53 0
 1209 0300 000053E3 		cmp	r3, #0
 1210 0304 8A0000DA 		ble	.L122
 1211              	.LBB449:
 1212              	.LBB450:
 1213              	.LBB451:
 1214              	.LBB452:
 1215              	.LBB453:
 1216              	.LBB454:
 316:C:/Renesas/e2studio_2021_01_workspace_RZA2M_ANPR/ANPR_RZA2M_GR_MANGO/src/tensorflow_lite/src/tensorflow/lite/kernels/internal\types.h ****   }
 317:C:/Renesas/e2studio_2021_01_workspace_RZA2M_ANPR/ANPR_RZA2M_GR_MANGO/src/tensorflow_lite/src/tensorflow/lite/kernels/internal\types.h **** 
 318:C:/Renesas/e2studio_2021_01_workspace_RZA2M_ANPR/ANPR_RZA2M_GR_MANGO/src/tensorflow_lite/src/tensorflow/lite/kernels/internal\types.h ****   int32_t size_;
 319:C:/Renesas/e2studio_2021_01_workspace_RZA2M_ANPR/ANPR_RZA2M_GR_MANGO/src/tensorflow_lite/src/tensorflow/lite/kernels/internal\types.h ****   union {
 320:C:/Renesas/e2studio_2021_01_workspace_RZA2M_ANPR/ANPR_RZA2M_GR_MANGO/src/tensorflow_lite/src/tensorflow/lite/kernels/internal\types.h ****     int32_t dims_[kMaxSmallSize];
 321:C:/Renesas/e2studio_2021_01_workspace_RZA2M_ANPR/ANPR_RZA2M_GR_MANGO/src/tensorflow_lite/src/tensorflow/lite/kernels/internal\types.h ****     int32_t* dims_pointer_;
 322:C:/Renesas/e2studio_2021_01_workspace_RZA2M_ANPR/ANPR_RZA2M_GR_MANGO/src/tensorflow_lite/src/tensorflow/lite/kernels/internal\types.h ****   };
 323:C:/Renesas/e2studio_2021_01_workspace_RZA2M_ANPR/ANPR_RZA2M_GR_MANGO/src/tensorflow_lite/src/tensorflow/lite/kernels/internal\types.h **** };
 324:C:/Renesas/e2studio_2021_01_workspace_RZA2M_ANPR/ANPR_RZA2M_GR_MANGO/src/tensorflow_lite/src/tensorflow/lite/kernels/internal\types.h **** 
 325:C:/Renesas/e2studio_2021_01_workspace_RZA2M_ANPR/ANPR_RZA2M_GR_MANGO/src/tensorflow_lite/src/tensorflow/lite/kernels/internal\types.h **** // Converts inference-style shape to legacy tflite::Dims<4>.
 326:C:/Renesas/e2studio_2021_01_workspace_RZA2M_ANPR/ANPR_RZA2M_GR_MANGO/src/tensorflow_lite/src/tensorflow/lite/kernels/internal\types.h **** inline tflite::Dims<4> ToRuntimeDims(const tflite::RuntimeShape& array_shape) {
 327:C:/Renesas/e2studio_2021_01_workspace_RZA2M_ANPR/ANPR_RZA2M_GR_MANGO/src/tensorflow_lite/src/tensorflow/lite/kernels/internal\types.h ****   tflite::Dims<4> result;
 328:C:/Renesas/e2studio_2021_01_workspace_RZA2M_ANPR/ANPR_RZA2M_GR_MANGO/src/tensorflow_lite/src/tensorflow/lite/kernels/internal\types.h ****   const int dimensions_count = array_shape.DimensionsCount();
 329:C:/Renesas/e2studio_2021_01_workspace_RZA2M_ANPR/ANPR_RZA2M_GR_MANGO/src/tensorflow_lite/src/tensorflow/lite/kernels/internal\types.h ****   TFLITE_CHECK_LE(dimensions_count, 4);
 330:C:/Renesas/e2studio_2021_01_workspace_RZA2M_ANPR/ANPR_RZA2M_GR_MANGO/src/tensorflow_lite/src/tensorflow/lite/kernels/internal\types.h ****   int cum_prod = 1;
 331:C:/Renesas/e2studio_2021_01_workspace_RZA2M_ANPR/ANPR_RZA2M_GR_MANGO/src/tensorflow_lite/src/tensorflow/lite/kernels/internal\types.h ****   for (int i = 0; i < 4; i++) {
 332:C:/Renesas/e2studio_2021_01_workspace_RZA2M_ANPR/ANPR_RZA2M_GR_MANGO/src/tensorflow_lite/src/tensorflow/lite/kernels/internal\types.h ****     const int new_dim =
 333:C:/Renesas/e2studio_2021_01_workspace_RZA2M_ANPR/ANPR_RZA2M_GR_MANGO/src/tensorflow_lite/src/tensorflow/lite/kernels/internal\types.h ****         (i < dimensions_count) ? array_shape.Dims(dimensions_count - 1 - i) : 1;
 334:C:/Renesas/e2studio_2021_01_workspace_RZA2M_ANPR/ANPR_RZA2M_GR_MANGO/src/tensorflow_lite/src/tensorflow/lite/kernels/internal\types.h ****     result.sizes[i] = new_dim;
 335:C:/Renesas/e2studio_2021_01_workspace_RZA2M_ANPR/ANPR_RZA2M_GR_MANGO/src/tensorflow_lite/src/tensorflow/lite/kernels/internal\types.h ****     result.strides[i] = cum_prod;
 336:C:/Renesas/e2studio_2021_01_workspace_RZA2M_ANPR/ANPR_RZA2M_GR_MANGO/src/tensorflow_lite/src/tensorflow/lite/kernels/internal\types.h ****     cum_prod *= new_dim;
 337:C:/Renesas/e2studio_2021_01_workspace_RZA2M_ANPR/ANPR_RZA2M_GR_MANGO/src/tensorflow_lite/src/tensorflow/lite/kernels/internal\types.h ****   }
 338:C:/Renesas/e2studio_2021_01_workspace_RZA2M_ANPR/ANPR_RZA2M_GR_MANGO/src/tensorflow_lite/src/tensorflow/lite/kernels/internal\types.h ****   return result;
 339:C:/Renesas/e2studio_2021_01_workspace_RZA2M_ANPR/ANPR_RZA2M_GR_MANGO/src/tensorflow_lite/src/tensorflow/lite/kernels/internal\types.h **** }
 340:C:/Renesas/e2studio_2021_01_workspace_RZA2M_ANPR/ANPR_RZA2M_GR_MANGO/src/tensorflow_lite/src/tensorflow/lite/kernels/internal\types.h **** 
 341:C:/Renesas/e2studio_2021_01_workspace_RZA2M_ANPR/ANPR_RZA2M_GR_MANGO/src/tensorflow_lite/src/tensorflow/lite/kernels/internal\types.h **** // TODO(b/80418076): Move to legacy ops file, update invocations.
 342:C:/Renesas/e2studio_2021_01_workspace_RZA2M_ANPR/ANPR_RZA2M_GR_MANGO/src/tensorflow_lite/src/tensorflow/lite/kernels/internal\types.h **** inline RuntimeShape DimsToShape(const tflite::Dims<4>& dims) {
 343:C:/Renesas/e2studio_2021_01_workspace_RZA2M_ANPR/ANPR_RZA2M_GR_MANGO/src/tensorflow_lite/src/tensorflow/lite/kernels/internal\types.h ****   return RuntimeShape(
 344:C:/Renesas/e2studio_2021_01_workspace_RZA2M_ANPR/ANPR_RZA2M_GR_MANGO/src/tensorflow_lite/src/tensorflow/lite/kernels/internal\types.h ****       {dims.sizes[3], dims.sizes[2], dims.sizes[1], dims.sizes[0]});
 345:C:/Renesas/e2studio_2021_01_workspace_RZA2M_ANPR/ANPR_RZA2M_GR_MANGO/src/tensorflow_lite/src/tensorflow/lite/kernels/internal\types.h **** }
 346:C:/Renesas/e2studio_2021_01_workspace_RZA2M_ANPR/ANPR_RZA2M_GR_MANGO/src/tensorflow_lite/src/tensorflow/lite/kernels/internal\types.h **** 
 347:C:/Renesas/e2studio_2021_01_workspace_RZA2M_ANPR/ANPR_RZA2M_GR_MANGO/src/tensorflow_lite/src/tensorflow/lite/kernels/internal\types.h **** // Gets next index to iterate through a multidimensional array.
 348:C:/Renesas/e2studio_2021_01_workspace_RZA2M_ANPR/ANPR_RZA2M_GR_MANGO/src/tensorflow_lite/src/tensorflow/lite/kernels/internal\types.h **** inline bool NextIndex(const int num_dims, const int* dims, int* current) {
 349:C:/Renesas/e2studio_2021_01_workspace_RZA2M_ANPR/ANPR_RZA2M_GR_MANGO/src/tensorflow_lite/src/tensorflow/lite/kernels/internal\types.h ****   if (num_dims == 0) {
 350:C:/Renesas/e2studio_2021_01_workspace_RZA2M_ANPR/ANPR_RZA2M_GR_MANGO/src/tensorflow_lite/src/tensorflow/lite/kernels/internal\types.h ****     return false;
 351:C:/Renesas/e2studio_2021_01_workspace_RZA2M_ANPR/ANPR_RZA2M_GR_MANGO/src/tensorflow_lite/src/tensorflow/lite/kernels/internal\types.h ****   }
 352:C:/Renesas/e2studio_2021_01_workspace_RZA2M_ANPR/ANPR_RZA2M_GR_MANGO/src/tensorflow_lite/src/tensorflow/lite/kernels/internal\types.h ****   TFLITE_DCHECK(dims != nullptr);
 353:C:/Renesas/e2studio_2021_01_workspace_RZA2M_ANPR/ANPR_RZA2M_GR_MANGO/src/tensorflow_lite/src/tensorflow/lite/kernels/internal\types.h ****   TFLITE_DCHECK(current != nullptr);
 354:C:/Renesas/e2studio_2021_01_workspace_RZA2M_ANPR/ANPR_RZA2M_GR_MANGO/src/tensorflow_lite/src/tensorflow/lite/kernels/internal\types.h ****   int carry = 1;
 355:C:/Renesas/e2studio_2021_01_workspace_RZA2M_ANPR/ANPR_RZA2M_GR_MANGO/src/tensorflow_lite/src/tensorflow/lite/kernels/internal\types.h ****   for (int idx = num_dims - 1; idx >= 0; --idx) {
 356:C:/Renesas/e2studio_2021_01_workspace_RZA2M_ANPR/ANPR_RZA2M_GR_MANGO/src/tensorflow_lite/src/tensorflow/lite/kernels/internal\types.h ****     int current_val = current[idx] + carry;
 357:C:/Renesas/e2studio_2021_01_workspace_RZA2M_ANPR/ANPR_RZA2M_GR_MANGO/src/tensorflow_lite/src/tensorflow/lite/kernels/internal\types.h ****     TFLITE_DCHECK_GE(dims[idx], current_val);
 358:C:/Renesas/e2studio_2021_01_workspace_RZA2M_ANPR/ANPR_RZA2M_GR_MANGO/src/tensorflow_lite/src/tensorflow/lite/kernels/internal\types.h ****     if (dims[idx] == current_val) {
 359:C:/Renesas/e2studio_2021_01_workspace_RZA2M_ANPR/ANPR_RZA2M_GR_MANGO/src/tensorflow_lite/src/tensorflow/lite/kernels/internal\types.h ****       current[idx] = 0;
 360:C:/Renesas/e2studio_2021_01_workspace_RZA2M_ANPR/ANPR_RZA2M_GR_MANGO/src/tensorflow_lite/src/tensorflow/lite/kernels/internal\types.h ****     } else {
 361:C:/Renesas/e2studio_2021_01_workspace_RZA2M_ANPR/ANPR_RZA2M_GR_MANGO/src/tensorflow_lite/src/tensorflow/lite/kernels/internal\types.h ****       current[idx] = current_val;
 362:C:/Renesas/e2studio_2021_01_workspace_RZA2M_ANPR/ANPR_RZA2M_GR_MANGO/src/tensorflow_lite/src/tensorflow/lite/kernels/internal\types.h ****       carry = 0;
 363:C:/Renesas/e2studio_2021_01_workspace_RZA2M_ANPR/ANPR_RZA2M_GR_MANGO/src/tensorflow_lite/src/tensorflow/lite/kernels/internal\types.h ****       break;
 364:C:/Renesas/e2studio_2021_01_workspace_RZA2M_ANPR/ANPR_RZA2M_GR_MANGO/src/tensorflow_lite/src/tensorflow/lite/kernels/internal\types.h ****     }
 365:C:/Renesas/e2studio_2021_01_workspace_RZA2M_ANPR/ANPR_RZA2M_GR_MANGO/src/tensorflow_lite/src/tensorflow/lite/kernels/internal\types.h ****   }
 366:C:/Renesas/e2studio_2021_01_workspace_RZA2M_ANPR/ANPR_RZA2M_GR_MANGO/src/tensorflow_lite/src/tensorflow/lite/kernels/internal\types.h ****   return (carry == 0);
 367:C:/Renesas/e2studio_2021_01_workspace_RZA2M_ANPR/ANPR_RZA2M_GR_MANGO/src/tensorflow_lite/src/tensorflow/lite/kernels/internal\types.h **** }
 368:C:/Renesas/e2studio_2021_01_workspace_RZA2M_ANPR/ANPR_RZA2M_GR_MANGO/src/tensorflow_lite/src/tensorflow/lite/kernels/internal\types.h **** 
 369:C:/Renesas/e2studio_2021_01_workspace_RZA2M_ANPR/ANPR_RZA2M_GR_MANGO/src/tensorflow_lite/src/tensorflow/lite/kernels/internal\types.h **** // Gets offset of index if reducing on axis. When reducing, the flattened offset
 370:C:/Renesas/e2studio_2021_01_workspace_RZA2M_ANPR/ANPR_RZA2M_GR_MANGO/src/tensorflow_lite/src/tensorflow/lite/kernels/internal\types.h **** // will not change, if the input index changes on the given axis. For example,
 371:C:/Renesas/e2studio_2021_01_workspace_RZA2M_ANPR/ANPR_RZA2M_GR_MANGO/src/tensorflow_lite/src/tensorflow/lite/kernels/internal\types.h **** // if you have a 3D tensor and you are reducing to 2D by eliminating axis 0,
 372:C:/Renesas/e2studio_2021_01_workspace_RZA2M_ANPR/ANPR_RZA2M_GR_MANGO/src/tensorflow_lite/src/tensorflow/lite/kernels/internal\types.h **** // then index (0, 1, 2) and index (1, 1, 2) will map to the same flattened
 373:C:/Renesas/e2studio_2021_01_workspace_RZA2M_ANPR/ANPR_RZA2M_GR_MANGO/src/tensorflow_lite/src/tensorflow/lite/kernels/internal\types.h **** // offset.
 374:C:/Renesas/e2studio_2021_01_workspace_RZA2M_ANPR/ANPR_RZA2M_GR_MANGO/src/tensorflow_lite/src/tensorflow/lite/kernels/internal\types.h **** // TODO(kanlig): uses Dims to represent dimensions.
 375:C:/Renesas/e2studio_2021_01_workspace_RZA2M_ANPR/ANPR_RZA2M_GR_MANGO/src/tensorflow_lite/src/tensorflow/lite/kernels/internal\types.h **** inline size_t ReducedOutputOffset(const int num_dims, const int* dims,
 376:C:/Renesas/e2studio_2021_01_workspace_RZA2M_ANPR/ANPR_RZA2M_GR_MANGO/src/tensorflow_lite/src/tensorflow/lite/kernels/internal\types.h ****                                   const int* index, const int num_axis,
 377:C:/Renesas/e2studio_2021_01_workspace_RZA2M_ANPR/ANPR_RZA2M_GR_MANGO/src/tensorflow_lite/src/tensorflow/lite/kernels/internal\types.h ****                                   const int* axis) {
 378:C:/Renesas/e2studio_2021_01_workspace_RZA2M_ANPR/ANPR_RZA2M_GR_MANGO/src/tensorflow_lite/src/tensorflow/lite/kernels/internal\types.h ****   if (num_dims == 0) {
 379:C:/Renesas/e2studio_2021_01_workspace_RZA2M_ANPR/ANPR_RZA2M_GR_MANGO/src/tensorflow_lite/src/tensorflow/lite/kernels/internal\types.h ****     return 0;
 380:C:/Renesas/e2studio_2021_01_workspace_RZA2M_ANPR/ANPR_RZA2M_GR_MANGO/src/tensorflow_lite/src/tensorflow/lite/kernels/internal\types.h ****   }
 381:C:/Renesas/e2studio_2021_01_workspace_RZA2M_ANPR/ANPR_RZA2M_GR_MANGO/src/tensorflow_lite/src/tensorflow/lite/kernels/internal\types.h ****   TFLITE_DCHECK(dims != nullptr);
 382:C:/Renesas/e2studio_2021_01_workspace_RZA2M_ANPR/ANPR_RZA2M_GR_MANGO/src/tensorflow_lite/src/tensorflow/lite/kernels/internal\types.h ****   TFLITE_DCHECK(index != nullptr);
 383:C:/Renesas/e2studio_2021_01_workspace_RZA2M_ANPR/ANPR_RZA2M_GR_MANGO/src/tensorflow_lite/src/tensorflow/lite/kernels/internal\types.h ****   size_t offset = 0;
 384:C:/Renesas/e2studio_2021_01_workspace_RZA2M_ANPR/ANPR_RZA2M_GR_MANGO/src/tensorflow_lite/src/tensorflow/lite/kernels/internal\types.h ****   for (int idx = 0; idx < num_dims; ++idx) {
 385:C:/Renesas/e2studio_2021_01_workspace_RZA2M_ANPR/ANPR_RZA2M_GR_MANGO/src/tensorflow_lite/src/tensorflow/lite/kernels/internal\types.h ****     // if we need to skip this axis
 386:C:/Renesas/e2studio_2021_01_workspace_RZA2M_ANPR/ANPR_RZA2M_GR_MANGO/src/tensorflow_lite/src/tensorflow/lite/kernels/internal\types.h ****     bool is_axis = false;
 387:C:/Renesas/e2studio_2021_01_workspace_RZA2M_ANPR/ANPR_RZA2M_GR_MANGO/src/tensorflow_lite/src/tensorflow/lite/kernels/internal\types.h ****     if (axis != nullptr) {
 388:C:/Renesas/e2studio_2021_01_workspace_RZA2M_ANPR/ANPR_RZA2M_GR_MANGO/src/tensorflow_lite/src/tensorflow/lite/kernels/internal\types.h ****       for (int axis_idx = 0; axis_idx < num_axis; ++axis_idx) {
 389:C:/Renesas/e2studio_2021_01_workspace_RZA2M_ANPR/ANPR_RZA2M_GR_MANGO/src/tensorflow_lite/src/tensorflow/lite/kernels/internal\types.h ****         if (idx == axis[axis_idx]) {
 390:C:/Renesas/e2studio_2021_01_workspace_RZA2M_ANPR/ANPR_RZA2M_GR_MANGO/src/tensorflow_lite/src/tensorflow/lite/kernels/internal\types.h ****           is_axis = true;
 391:C:/Renesas/e2studio_2021_01_workspace_RZA2M_ANPR/ANPR_RZA2M_GR_MANGO/src/tensorflow_lite/src/tensorflow/lite/kernels/internal\types.h ****           break;
 392:C:/Renesas/e2studio_2021_01_workspace_RZA2M_ANPR/ANPR_RZA2M_GR_MANGO/src/tensorflow_lite/src/tensorflow/lite/kernels/internal\types.h ****         }
 393:C:/Renesas/e2studio_2021_01_workspace_RZA2M_ANPR/ANPR_RZA2M_GR_MANGO/src/tensorflow_lite/src/tensorflow/lite/kernels/internal\types.h ****       }
 394:C:/Renesas/e2studio_2021_01_workspace_RZA2M_ANPR/ANPR_RZA2M_GR_MANGO/src/tensorflow_lite/src/tensorflow/lite/kernels/internal\types.h ****     }
 395:C:/Renesas/e2studio_2021_01_workspace_RZA2M_ANPR/ANPR_RZA2M_GR_MANGO/src/tensorflow_lite/src/tensorflow/lite/kernels/internal\types.h ****     if (!is_axis) {
 396:C:/Renesas/e2studio_2021_01_workspace_RZA2M_ANPR/ANPR_RZA2M_GR_MANGO/src/tensorflow_lite/src/tensorflow/lite/kernels/internal\types.h ****       offset = offset * static_cast<size_t>(dims[idx]) +
 397:C:/Renesas/e2studio_2021_01_workspace_RZA2M_ANPR/ANPR_RZA2M_GR_MANGO/src/tensorflow_lite/src/tensorflow/lite/kernels/internal\types.h ****                static_cast<size_t>(index[idx]);
 398:C:/Renesas/e2studio_2021_01_workspace_RZA2M_ANPR/ANPR_RZA2M_GR_MANGO/src/tensorflow_lite/src/tensorflow/lite/kernels/internal\types.h ****     }
 399:C:/Renesas/e2studio_2021_01_workspace_RZA2M_ANPR/ANPR_RZA2M_GR_MANGO/src/tensorflow_lite/src/tensorflow/lite/kernels/internal\types.h ****   }
 400:C:/Renesas/e2studio_2021_01_workspace_RZA2M_ANPR/ANPR_RZA2M_GR_MANGO/src/tensorflow_lite/src/tensorflow/lite/kernels/internal\types.h ****   return offset;
 401:C:/Renesas/e2studio_2021_01_workspace_RZA2M_ANPR/ANPR_RZA2M_GR_MANGO/src/tensorflow_lite/src/tensorflow/lite/kernels/internal\types.h **** }
 402:C:/Renesas/e2studio_2021_01_workspace_RZA2M_ANPR/ANPR_RZA2M_GR_MANGO/src/tensorflow_lite/src/tensorflow/lite/kernels/internal\types.h **** 
 403:C:/Renesas/e2studio_2021_01_workspace_RZA2M_ANPR/ANPR_RZA2M_GR_MANGO/src/tensorflow_lite/src/tensorflow/lite/kernels/internal\types.h **** inline int Offset(const RuntimeShape& shape, int i0, int i1, int i2, int i3) {
 404:C:/Renesas/e2studio_2021_01_workspace_RZA2M_ANPR/ANPR_RZA2M_GR_MANGO/src/tensorflow_lite/src/tensorflow/lite/kernels/internal\types.h ****   TFLITE_DCHECK_EQ(shape.DimensionsCount(), 4);
 405:C:/Renesas/e2studio_2021_01_workspace_RZA2M_ANPR/ANPR_RZA2M_GR_MANGO/src/tensorflow_lite/src/tensorflow/lite/kernels/internal\types.h ****   const int* dims_data = reinterpret_cast<const int*>(shape.DimsDataUpTo5D());
 406:C:/Renesas/e2studio_2021_01_workspace_RZA2M_ANPR/ANPR_RZA2M_GR_MANGO/src/tensorflow_lite/src/tensorflow/lite/kernels/internal\types.h ****   TFLITE_DCHECK(i0 >= 0 && i0 < dims_data[0]);
 407:C:/Renesas/e2studio_2021_01_workspace_RZA2M_ANPR/ANPR_RZA2M_GR_MANGO/src/tensorflow_lite/src/tensorflow/lite/kernels/internal\types.h ****   TFLITE_DCHECK(i1 >= 0 && i1 < dims_data[1]);
 1217              		.loc 5 407 0
 1218 0308 A0309DE5 		ldr	r3, [sp, #160]
 408:C:/Renesas/e2studio_2021_01_workspace_RZA2M_ANPR/ANPR_RZA2M_GR_MANGO/src/tensorflow_lite/src/tensorflow/lite/kernels/internal\types.h ****   TFLITE_DCHECK(i2 >= 0 && i2 < dims_data[2]);
 409:C:/Renesas/e2studio_2021_01_workspace_RZA2M_ANPR/ANPR_RZA2M_GR_MANGO/src/tensorflow_lite/src/tensorflow/lite/kernels/internal\types.h ****   TFLITE_DCHECK(i3 >= 0 && i3 < dims_data[3]);
 1219              		.loc 5 409 0
 1220 030c A8B09DE5 		ldr	fp, [sp, #168]
 1221              	.LBE454:
 1222              	.LBE453:
 1223              	.LBB466:
 1224              	.LBB467:
 408:C:/Renesas/e2studio_2021_01_workspace_RZA2M_ANPR/ANPR_RZA2M_GR_MANGO/src/tensorflow_lite/src/tensorflow/lite/kernels/internal\types.h ****   TFLITE_DCHECK(i2 >= 0 && i2 < dims_data[2]);
 1225              		.loc 5 408 0
 1226 0310 8C609DE5 		ldr	r6, [sp, #140]
 1227              	.LBE467:
 1228              	.LBE466:
 1229              	.LBB480:
 1230              	.LBB455:
 407:C:/Renesas/e2studio_2021_01_workspace_RZA2M_ANPR/ANPR_RZA2M_GR_MANGO/src/tensorflow_lite/src/tensorflow/lite/kernels/internal\types.h ****   TFLITE_DCHECK(i2 >= 0 && i2 < dims_data[2]);
 1231              		.loc 5 407 0
 1232 0314 0310A0E1 		mov	r1, r3
 1233 0318 24308DE5 		str	r3, [sp, #36]
 1234              		.loc 5 409 0
 1235 031c 0030A0E3 		mov	r3, #0
 1236              	.LBE455:
 1237              	.LBE480:
 1238              	.LBB481:
 1239              	.LBB468:
 1240 0320 90709DE5 		ldr	r7, [sp, #144]
 1241              	.LVL142:
 1242              	.LBE468:
 1243              	.LBE481:
 1244              	.LBB482:
 1245              	.LBB456:
 1246 0324 0320A0E1 		mov	r2, r3
 1247 0328 1C308DE5 		str	r3, [sp, #28]
 1248 032c 04208DE5 		str	r2, [sp, #4]
 1249              	.LBE456:
 1250              	.LBE482:
 1251              	.LBB483:
 1252              	.LBB469:
 406:C:/Renesas/e2studio_2021_01_workspace_RZA2M_ANPR/ANPR_RZA2M_GR_MANGO/src/tensorflow_lite/src/tensorflow/lite/kernels/internal\types.h ****   TFLITE_DCHECK(i1 >= 0 && i1 < dims_data[1]);
 1253              		.loc 5 406 0
 1254 0330 84209DE5 		ldr	r2, [sp, #132]
 1255              	.LBE469:
 1256              	.LBE483:
 1257              	.LBB484:
 1258              	.LBB457:
 408:C:/Renesas/e2studio_2021_01_workspace_RZA2M_ANPR/ANPR_RZA2M_GR_MANGO/src/tensorflow_lite/src/tensorflow/lite/kernels/internal\types.h ****   TFLITE_DCHECK(i2 >= 0 && i2 < dims_data[2]);
 1259              		.loc 5 408 0
 1260 0334 A4309DE5 		ldr	r3, [sp, #164]
 1261 0338 34408DE5 		str	r4, [sp, #52]
 1262              	.LBE457:
 1263              	.LBE484:
 1264              	.LBB485:
 1265              	.LBB470:
 406:C:/Renesas/e2studio_2021_01_workspace_RZA2M_ANPR/ANPR_RZA2M_GR_MANGO/src/tensorflow_lite/src/tensorflow/lite/kernels/internal\types.h ****   TFLITE_DCHECK(i1 >= 0 && i1 < dims_data[1]);
 1266              		.loc 5 406 0
 1267 033c 2C208DE5 		str	r2, [sp, #44]
 407:C:/Renesas/e2studio_2021_01_workspace_RZA2M_ANPR/ANPR_RZA2M_GR_MANGO/src/tensorflow_lite/src/tensorflow/lite/kernels/internal\types.h ****   TFLITE_DCHECK(i2 >= 0 && i2 < dims_data[2]);
 1268              		.loc 5 407 0
 1269 0340 88209DE5 		ldr	r2, [sp, #136]
 1270              	.LBE470:
 1271              	.LBE485:
 1272              	.LBB486:
 1273              	.LBB458:
 408:C:/Renesas/e2studio_2021_01_workspace_RZA2M_ANPR/ANPR_RZA2M_GR_MANGO/src/tensorflow_lite/src/tensorflow/lite/kernels/internal\types.h ****   TFLITE_DCHECK(i2 >= 0 && i2 < dims_data[2]);
 1274              		.loc 5 408 0
 1275 0344 30308DE5 		str	r3, [sp, #48]
 1276              	.LBE458:
 1277              	.LBE486:
 1278              	.LBB487:
 1279              	.LBB471:
 407:C:/Renesas/e2studio_2021_01_workspace_RZA2M_ANPR/ANPR_RZA2M_GR_MANGO/src/tensorflow_lite/src/tensorflow/lite/kernels/internal\types.h ****   TFLITE_DCHECK(i2 >= 0 && i2 < dims_data[2]);
 1280              		.loc 5 407 0
 1281 0348 20208DE5 		str	r2, [sp, #32]
 1282 034c 0320A0E1 		mov	r2, r3
 1283 0350 930103E0 		mul	r3, r3, r1
 1284 0354 9B0202E0 		mul	r2, fp, r2
 1285 0358 9B0303E0 		mul	r3, fp, r3
 1286 035c 44208DE5 		str	r2, [sp, #68]
 1287              	.LBE471:
 1288              	.LBE487:
 1289              	.LBB488:
 1290              	.LBB459:
 406:C:/Renesas/e2studio_2021_01_workspace_RZA2M_ANPR/ANPR_RZA2M_GR_MANGO/src/tensorflow_lite/src/tensorflow/lite/kernels/internal\types.h ****   TFLITE_DCHECK(i1 >= 0 && i1 < dims_data[1]);
 1291              		.loc 5 406 0
 1292 0360 9C209DE5 		ldr	r2, [sp, #156]
 1293 0364 48308DE5 		str	r3, [sp, #72]
 1294 0368 18208DE5 		str	r2, [sp, #24]
 1295              	.LVL143:
 1296              	.L123:
 1297              	.LBE459:
 1298              	.LBE488:
 1299              	.LBE452:
 1300              	.LBE451:
 1301              	.LBE450:
  54:C:/Renesas/e2studio_2021_01_workspace_RZA2M_ANPR/ANPR_RZA2M_GR_MANGO/src/tensorflow_lite/src/tensorflow/lite/kernels/internal/reference\depth_to_space.h ****     for (int out_h = 0; out_h < output_height; ++out_h) {
 1302              		.loc 4 54 0
 1303 036c 3C309DE5 		ldr	r3, [sp, #60]
 1304 0370 000053E3 		cmp	r3, #0
 1305 0374 600000DA 		ble	.L125
 1306 0378 34309DE5 		ldr	r3, [sp, #52]
 1307 037c 38308DE5 		str	r3, [sp, #56]
 1308 0380 0030A0E3 		mov	r3, #0
 1309 0384 00308DE5 		str	r3, [sp]
 1310              	.LVL144:
 1311              	.L121:
 1312              	.LBB521:
  55:C:/Renesas/e2studio_2021_01_workspace_RZA2M_ANPR/ANPR_RZA2M_GR_MANGO/src/tensorflow_lite/src/tensorflow/lite/kernels/internal/reference\depth_to_space.h ****       for (int out_w = 0; out_w < output_width; ++out_w) {
 1313              		.loc 4 55 0
 1314 0388 14309DE5 		ldr	r3, [sp, #20]
 1315 038c 000053E3 		cmp	r3, #0
 1316 0390 38209DC5 		ldrgt	r2, [sp, #56]
 1317 0394 0090A0C3 		movgt	r9, #0
 1318 0398 4D0000DA 		ble	.L127
 1319              	.LVL145:
 1320              	.L124:
 1321              	.LBB513:
  56:C:/Renesas/e2studio_2021_01_workspace_RZA2M_ANPR/ANPR_RZA2M_GR_MANGO/src/tensorflow_lite/src/tensorflow/lite/kernels/internal/reference\depth_to_space.h ****         for (int out_d = 0; out_d < output_depth; ++out_d) {
 1322              		.loc 4 56 0
 1323 039c 000055E3 		cmp	r5, #0
 1324 03a0 460000DA 		ble	.L150
 1325              	.LBB503:
  57:C:/Renesas/e2studio_2021_01_workspace_RZA2M_ANPR/ANPR_RZA2M_GR_MANGO/src/tensorflow_lite/src/tensorflow/lite/kernels/internal/reference\depth_to_space.h ****           const int in_d =
  58:C:/Renesas/e2studio_2021_01_workspace_RZA2M_ANPR/ANPR_RZA2M_GR_MANGO/src/tensorflow_lite/src/tensorflow/lite/kernels/internal/reference\depth_to_space.h ****               out_d + ((out_h % block_size) * block_size + out_w % block_size) *
 1326              		.loc 4 58 0
 1327 03a4 0A10A0E1 		mov	r1, r10
 1328 03a8 00009DE5 		ldr	r0, [sp]
 1329 03ac 0C208DE5 		str	r2, [sp, #12]
 1330 03b0 FEFFFFEB 		bl	__aeabi_idivmod
 1331              	.LVL146:
 1332 03b4 9A0104E0 		mul	r4, r10, r1
 1333 03b8 0900A0E1 		mov	r0, r9
 1334 03bc 0A10A0E1 		mov	r1, r10
 1335 03c0 FEFFFFEB 		bl	__aeabi_idivmod
 1336              	.LVL147:
 1337 03c4 013084E0 		add	r3, r4, r1
  59:C:/Renesas/e2studio_2021_01_workspace_RZA2M_ANPR/ANPR_RZA2M_GR_MANGO/src/tensorflow_lite/src/tensorflow/lite/kernels/internal/reference\depth_to_space.h ****                           output_depth;
  60:C:/Renesas/e2studio_2021_01_workspace_RZA2M_ANPR/ANPR_RZA2M_GR_MANGO/src/tensorflow_lite/src/tensorflow/lite/kernels/internal/reference\depth_to_space.h **** 
  61:C:/Renesas/e2studio_2021_01_workspace_RZA2M_ANPR/ANPR_RZA2M_GR_MANGO/src/tensorflow_lite/src/tensorflow/lite/kernels/internal/reference\depth_to_space.h ****           const int in_w = out_w / block_size;
 1338              		.loc 4 61 0
 1339 03c8 0900A0E1 		mov	r0, r9
  58:C:/Renesas/e2studio_2021_01_workspace_RZA2M_ANPR/ANPR_RZA2M_GR_MANGO/src/tensorflow_lite/src/tensorflow/lite/kernels/internal/reference\depth_to_space.h ****                           output_depth;
 1340              		.loc 4 58 0
 1341 03cc 950303E0 		mul	r3, r5, r3
 1342              		.loc 4 61 0
 1343 03d0 0A10A0E1 		mov	r1, r10
  58:C:/Renesas/e2studio_2021_01_workspace_RZA2M_ANPR/ANPR_RZA2M_GR_MANGO/src/tensorflow_lite/src/tensorflow/lite/kernels/internal/reference\depth_to_space.h ****                           output_depth;
 1344              		.loc 4 58 0
 1345 03d4 08308DE5 		str	r3, [sp, #8]
 1346              	.LVL148:
 1347              		.loc 4 61 0
 1348 03d8 FEFFFFEB 		bl	__aeabi_idiv
 1349              	.LVL149:
  62:C:/Renesas/e2studio_2021_01_workspace_RZA2M_ANPR/ANPR_RZA2M_GR_MANGO/src/tensorflow_lite/src/tensorflow/lite/kernels/internal/reference\depth_to_space.h ****           const int in_h = out_h / block_size;
 1350              		.loc 4 62 0
 1351 03dc 0A10A0E1 		mov	r1, r10
  61:C:/Renesas/e2studio_2021_01_workspace_RZA2M_ANPR/ANPR_RZA2M_GR_MANGO/src/tensorflow_lite/src/tensorflow/lite/kernels/internal/reference\depth_to_space.h ****           const int in_h = out_h / block_size;
 1352              		.loc 4 61 0
 1353 03e0 0040A0E1 		mov	r4, r0
 1354              	.LVL150:
 1355              		.loc 4 62 0
 1356 03e4 00009DE5 		ldr	r0, [sp]
 1357              	.LVL151:
 1358 03e8 FEFFFFEB 		bl	__aeabi_idiv
 1359              	.LVL152:
 1360              	.LBB489:
 1361              	.LBB472:
 404:C:/Renesas/e2studio_2021_01_workspace_RZA2M_ANPR/ANPR_RZA2M_GR_MANGO/src/tensorflow_lite/src/tensorflow/lite/kernels/internal\types.h ****   const int* dims_data = reinterpret_cast<const int*>(shape.DimsDataUpTo5D());
 1362              		.loc 5 404 0
 1363 03ec 10309DE5 		ldr	r3, [sp, #16]
 1364 03f0 040053E3 		cmp	r3, #4
 1365 03f4 6001001A 		bne	.L128
 406:C:/Renesas/e2studio_2021_01_workspace_RZA2M_ANPR/ANPR_RZA2M_GR_MANGO/src/tensorflow_lite/src/tensorflow/lite/kernels/internal\types.h ****   TFLITE_DCHECK(i1 >= 0 && i1 < dims_data[1]);
 1366              		.loc 5 406 0
 1367 03f8 2C309DE5 		ldr	r3, [sp, #44]
 1368 03fc 04209DE5 		ldr	r2, [sp, #4]
 1369 0400 020053E1 		cmp	r3, r2
 1370 0404 470100DA 		ble	.L129
 407:C:/Renesas/e2studio_2021_01_workspace_RZA2M_ANPR/ANPR_RZA2M_GR_MANGO/src/tensorflow_lite/src/tensorflow/lite/kernels/internal\types.h ****   TFLITE_DCHECK(i2 >= 0 && i2 < dims_data[2]);
 1371              		.loc 5 407 0
 1372 0408 000050E3 		cmp	r0, #0
 1373 040c 4D0100BA 		blt	.L130
 1374 0410 20309DE5 		ldr	r3, [sp, #32]
 1375 0414 000053E1 		cmp	r3, r0
 1376 0418 4A0100DA 		ble	.L130
 410:C:/Renesas/e2studio_2021_01_workspace_RZA2M_ANPR/ANPR_RZA2M_GR_MANGO/src/tensorflow_lite/src/tensorflow/lite/kernels/internal\types.h ****   return ((i0 * dims_data[1] + i1) * dims_data[2] + i2) * dims_data[3] + i3;
 1377              		.loc 5 410 0
 1378 041c 1C309DE5 		ldr	r3, [sp, #28]
 1379 0420 000054E3 		cmp	r4, #0
 1380 0424 0C209DE5 		ldr	r2, [sp, #12]
 1381 0428 030080E0 		add	r0, r0, r3
 1382              	.LVL153:
 1383 042c 08309DE5 		ldr	r3, [sp, #8]
 1384 0430 964020E0 		mla	r0, r6, r0, r4
 1385 0434 970000E0 		mul	r0, r7, r0
 1386 0438 430100BA 		blt	.L132
 1387 043c 30109DE5 		ldr	r1, [sp, #48]
 1388 0440 010059E1 		cmp	r9, r1
 1389 0444 860100AA 		bge	.L432
 1390 0448 00109DE5 		ldr	r1, [sp]
 1391 044c 24C09DE5 		ldr	ip, [sp, #36]
 1392 0450 0C0051E1 		cmp	r1, ip
 1393 0454 4C0100AA 		bge	.L433
 1394 0458 04109DE5 		ldr	r1, [sp, #4]
 1395 045c 18C09DE5 		ldr	ip, [sp, #24]
 1396 0460 0C0051E1 		cmp	r1, ip
 1397 0464 A10100AA 		bge	.L387
 1398 0468 28109DE5 		ldr	r1, [sp, #40]
 1399 046c 000083E0 		add	r0, r3, r0
 1400 0470 02C0A0E1 		mov	ip, r2
 1401 0474 000081E0 		add	r0, r1, r0
 1402 0478 0010A0E3 		mov	r1, #0
 1403 047c 000000EA 		b	.L133
 1404              	.LVL154:
 1405              	.L332:
 1406 0480 013083E2 		add	r3, r3, #1
 1407              	.LVL155:
 1408              	.L133:
 408:C:/Renesas/e2studio_2021_01_workspace_RZA2M_ANPR/ANPR_RZA2M_GR_MANGO/src/tensorflow_lite/src/tensorflow/lite/kernels/internal\types.h ****   TFLITE_DCHECK(i3 >= 0 && i3 < dims_data[3]);
 1409              		.loc 5 408 0
 1410 0484 060054E1 		cmp	r4, r6
 1411 0488 2F0100AA 		bge	.L132
 409:C:/Renesas/e2studio_2021_01_workspace_RZA2M_ANPR/ANPR_RZA2M_GR_MANGO/src/tensorflow_lite/src/tensorflow/lite/kernels/internal\types.h ****   return ((i0 * dims_data[1] + i1) * dims_data[2] + i2) * dims_data[3] + i3;
 1412              		.loc 5 409 0
 1413 048c 000053E3 		cmp	r3, #0
 1414 0490 320100BA 		blt	.L137
 1415 0494 070053E1 		cmp	r3, r7
 1416 0498 300100AA 		bge	.L137
 1417              	.LVL156:
 1418              	.LBE472:
 1419              	.LBE489:
 1420              	.LBB490:
 1421              	.LBB460:
 404:C:/Renesas/e2studio_2021_01_workspace_RZA2M_ANPR/ANPR_RZA2M_GR_MANGO/src/tensorflow_lite/src/tensorflow/lite/kernels/internal\types.h ****   const int* dims_data = reinterpret_cast<const int*>(shape.DimsDataUpTo5D());
 1422              		.loc 5 404 0
 1423 049c 040058E3 		cmp	r8, #4
 1424 04a0 3401001A 		bne	.L139
 409:C:/Renesas/e2studio_2021_01_workspace_RZA2M_ANPR/ANPR_RZA2M_GR_MANGO/src/tensorflow_lite/src/tensorflow/lite/kernels/internal\types.h ****   return ((i0 * dims_data[1] + i1) * dims_data[2] + i2) * dims_data[3] + i3;
 1425              		.loc 5 409 0
 1426 04a4 0B0051E1 		cmp	r1, fp
 1427 04a8 2D0100AA 		bge	.L434
 1428              	.LVL157:
 1429              	.LBE460:
 1430              	.LBE490:
 1431              	.LBE503:
  56:C:/Renesas/e2studio_2021_01_workspace_RZA2M_ANPR/ANPR_RZA2M_GR_MANGO/src/tensorflow_lite/src/tensorflow/lite/kernels/internal/reference\depth_to_space.h ****           const int in_d =
 1432              		.loc 4 56 0
 1433 04ac 011081E2 		add	r1, r1, #1
 1434              	.LVL158:
 1435              	.LBB504:
  63:C:/Renesas/e2studio_2021_01_workspace_RZA2M_ANPR/ANPR_RZA2M_GR_MANGO/src/tensorflow_lite/src/tensorflow/lite/kernels/internal/reference\depth_to_space.h ****           const int in_b = out_b;
  64:C:/Renesas/e2studio_2021_01_workspace_RZA2M_ANPR/ANPR_RZA2M_GR_MANGO/src/tensorflow_lite/src/tensorflow/lite/kernels/internal/reference\depth_to_space.h **** 
  65:C:/Renesas/e2studio_2021_01_workspace_RZA2M_ANPR/ANPR_RZA2M_GR_MANGO/src/tensorflow_lite/src/tensorflow/lite/kernels/internal/reference\depth_to_space.h ****           const int input_index = Offset(input_shape, in_b, in_h, in_w, in_d);
  66:C:/Renesas/e2studio_2021_01_workspace_RZA2M_ANPR/ANPR_RZA2M_GR_MANGO/src/tensorflow_lite/src/tensorflow/lite/kernels/internal/reference\depth_to_space.h ****           const int output_index =
  67:C:/Renesas/e2studio_2021_01_workspace_RZA2M_ANPR/ANPR_RZA2M_GR_MANGO/src/tensorflow_lite/src/tensorflow/lite/kernels/internal/reference\depth_to_space.h ****               Offset(output_shape, out_b, out_h, out_w, out_d);
  68:C:/Renesas/e2studio_2021_01_workspace_RZA2M_ANPR/ANPR_RZA2M_GR_MANGO/src/tensorflow_lite/src/tensorflow/lite/kernels/internal/reference\depth_to_space.h **** 
  69:C:/Renesas/e2studio_2021_01_workspace_RZA2M_ANPR/ANPR_RZA2M_GR_MANGO/src/tensorflow_lite/src/tensorflow/lite/kernels/internal/reference\depth_to_space.h ****           output_data[output_index] = input_data[input_index];
 1436              		.loc 4 69 0
 1437 04b0 D1E0D0E0 		ldrsb	lr, [r0], #1
 1438              	.LBE504:
  56:C:/Renesas/e2studio_2021_01_workspace_RZA2M_ANPR/ANPR_RZA2M_GR_MANGO/src/tensorflow_lite/src/tensorflow/lite/kernels/internal/reference\depth_to_space.h ****           const int in_d =
 1439              		.loc 4 56 0
 1440 04b4 010055E1 		cmp	r5, r1
 1441              	.LBB505:
 1442              		.loc 4 69 0
 1443 04b8 01E0CCE4 		strb	lr, [ip], #1
 1444              	.LBE505:
  56:C:/Renesas/e2studio_2021_01_workspace_RZA2M_ANPR/ANPR_RZA2M_GR_MANGO/src/tensorflow_lite/src/tensorflow/lite/kernels/internal/reference\depth_to_space.h ****           const int in_d =
 1445              		.loc 4 56 0
 1446 04bc EFFFFFCA 		bgt	.L332
 1447              	.LVL159:
 1448              	.L150:
 1449              	.LBE513:
  55:C:/Renesas/e2studio_2021_01_workspace_RZA2M_ANPR/ANPR_RZA2M_GR_MANGO/src/tensorflow_lite/src/tensorflow/lite/kernels/internal/reference\depth_to_space.h ****         for (int out_d = 0; out_d < output_depth; ++out_d) {
 1450              		.loc 4 55 0
 1451 04c0 14309DE5 		ldr	r3, [sp, #20]
 1452 04c4 019089E2 		add	r9, r9, #1
 1453              	.LVL160:
 1454 04c8 0B2082E0 		add	r2, r2, fp
 1455 04cc 090053E1 		cmp	r3, r9
 1456 04d0 B1FFFF1A 		bne	.L124
 1457              	.LVL161:
 1458              	.L127:
 1459 04d4 38209DE5 		ldr	r2, [sp, #56]
 1460 04d8 44109DE5 		ldr	r1, [sp, #68]
 1461              	.LBE521:
  54:C:/Renesas/e2studio_2021_01_workspace_RZA2M_ANPR/ANPR_RZA2M_GR_MANGO/src/tensorflow_lite/src/tensorflow/lite/kernels/internal/reference\depth_to_space.h ****       for (int out_w = 0; out_w < output_width; ++out_w) {
 1462              		.loc 4 54 0
 1463 04dc 00309DE5 		ldr	r3, [sp]
 1464 04e0 012082E0 		add	r2, r2, r1
 1465 04e4 38208DE5 		str	r2, [sp, #56]
 1466 04e8 013083E2 		add	r3, r3, #1
 1467              	.LVL162:
 1468 04ec 3C209DE5 		ldr	r2, [sp, #60]
 1469 04f0 00308DE5 		str	r3, [sp]
 1470 04f4 030052E1 		cmp	r2, r3
 1471 04f8 A2FFFF1A 		bne	.L121
 1472              	.LVL163:
 1473              	.L125:
 1474 04fc 34209DE5 		ldr	r2, [sp, #52]
 1475 0500 48109DE5 		ldr	r1, [sp, #72]
 1476              	.LBE449:
  53:C:/Renesas/e2studio_2021_01_workspace_RZA2M_ANPR/ANPR_RZA2M_GR_MANGO/src/tensorflow_lite/src/tensorflow/lite/kernels/internal/reference\depth_to_space.h ****     for (int out_h = 0; out_h < output_height; ++out_h) {
 1477              		.loc 4 53 0
 1478 0504 04309DE5 		ldr	r3, [sp, #4]
 1479 0508 012082E0 		add	r2, r2, r1
 1480 050c 34208DE5 		str	r2, [sp, #52]
 1481 0510 013083E2 		add	r3, r3, #1
 1482              	.LVL164:
 1483 0514 40209DE5 		ldr	r2, [sp, #64]
 1484 0518 04308DE5 		str	r3, [sp, #4]
 1485 051c 020053E1 		cmp	r3, r2
 1486 0520 1C309DE5 		ldr	r3, [sp, #28]
 1487              	.LVL165:
 1488 0524 20209DE5 		ldr	r2, [sp, #32]
 1489 0528 023083E0 		add	r3, r3, r2
 1490 052c 1C308DE5 		str	r3, [sp, #28]
 1491 0530 8DFFFF1A 		bne	.L123
 1492              	.LVL166:
 1493              	.L122:
 1494              	.LBE448:
 1495              	.LBB536:
 1496              	.LBB537:
 203:C:/Renesas/e2studio_2021_01_workspace_RZA2M_ANPR/ANPR_RZA2M_GR_MANGO/src/tensorflow_lite/src/tensorflow/lite/kernels/internal\types.h **** #ifdef TF_LITE_STATIC_MEMORY
 1497              		.loc 5 203 0
 1498 0534 050058E3 		cmp	r8, #5
 1499 0538 030000DA 		ble	.L120
 207:C:/Renesas/e2studio_2021_01_workspace_RZA2M_ANPR/ANPR_RZA2M_GR_MANGO/src/tensorflow_lite/src/tensorflow/lite/kernels/internal\types.h **** #endif  // TF_LITE_STATIC_MEMORY
 1500              		.loc 5 207 0
 1501 053c 9C009DE5 		ldr	r0, [sp, #156]
 1502 0540 000050E3 		cmp	r0, #0
 1503 0544 0000000A 		beq	.L120
 1504 0548 FEFFFFEB 		bl	_ZdaPv
 1505              	.LVL167:
 1506              	.L120:
 1507              	.LBE537:
 1508              	.LBE536:
 1509              	.LBB538:
 1510              	.LBB539:
 203:C:/Renesas/e2studio_2021_01_workspace_RZA2M_ANPR/ANPR_RZA2M_GR_MANGO/src/tensorflow_lite/src/tensorflow/lite/kernels/internal\types.h **** #ifdef TF_LITE_STATIC_MEMORY
 1511              		.loc 5 203 0
 1512 054c 10309DE5 		ldr	r3, [sp, #16]
 1513 0550 050053E3 		cmp	r3, #5
 1514 0554 030000DA 		ble	.L152
 207:C:/Renesas/e2studio_2021_01_workspace_RZA2M_ANPR/ANPR_RZA2M_GR_MANGO/src/tensorflow_lite/src/tensorflow/lite/kernels/internal\types.h **** #endif  // TF_LITE_STATIC_MEMORY
 1515              		.loc 5 207 0
 1516 0558 84009DE5 		ldr	r0, [sp, #132]
 1517 055c 000050E3 		cmp	r0, #0
 1518 0560 0000000A 		beq	.L152
 1519 0564 FEFFFFEB 		bl	_ZdaPv
 1520              	.LVL168:
 1521              	.L152:
 1522              	.LBE539:
 1523              	.LBE538:
 1524              	.LBE560:
 1525              	.LBE755:
 1526              	.LBB756:
 1527              	.LBB757:
 203:C:/Renesas/e2studio_2021_01_workspace_RZA2M_ANPR/ANPR_RZA2M_GR_MANGO/src/tensorflow_lite/src/tensorflow/lite/kernels/internal\types.h **** #ifdef TF_LITE_STATIC_MEMORY
 1528              		.loc 5 203 0
 1529 0568 68309DE5 		ldr	r3, [sp, #104]
 1530 056c 050053E3 		cmp	r3, #5
 1531 0570 030000DA 		ble	.L154
 207:C:/Renesas/e2studio_2021_01_workspace_RZA2M_ANPR/ANPR_RZA2M_GR_MANGO/src/tensorflow_lite/src/tensorflow/lite/kernels/internal\types.h **** #endif  // TF_LITE_STATIC_MEMORY
 1532              		.loc 5 207 0
 1533 0574 6C009DE5 		ldr	r0, [sp, #108]
 1534 0578 000050E3 		cmp	r0, #0
 1535 057c 0000000A 		beq	.L154
 1536 0580 FEFFFFEB 		bl	_ZdaPv
 1537              	.LVL169:
 1538              	.L154:
 1539              	.LBE757:
 1540              	.LBE756:
 1541              	.LBB758:
 1542              	.LBB759:
 203:C:/Renesas/e2studio_2021_01_workspace_RZA2M_ANPR/ANPR_RZA2M_GR_MANGO/src/tensorflow_lite/src/tensorflow/lite/kernels/internal\types.h **** #ifdef TF_LITE_STATIC_MEMORY
 1543              		.loc 5 203 0
 1544 0584 50309DE5 		ldr	r3, [sp, #80]
 1545 0588 050053E3 		cmp	r3, #5
 1546 058c 030000DA 		ble	.L162
 207:C:/Renesas/e2studio_2021_01_workspace_RZA2M_ANPR/ANPR_RZA2M_GR_MANGO/src/tensorflow_lite/src/tensorflow/lite/kernels/internal\types.h **** #endif  // TF_LITE_STATIC_MEMORY
 1547              		.loc 5 207 0
 1548 0590 54009DE5 		ldr	r0, [sp, #84]
 1549 0594 000050E3 		cmp	r0, #0
 1550 0598 0000000A 		beq	.L162
 1551 059c FEFFFFEB 		bl	_ZdaPv
 1552              	.LVL170:
 1553              	.L162:
 1554              	.LBE759:
 1555              	.LBE758:
 127:../src/tensorflow_lite/src/tensorflow/lite/micro/kernels/depth_to_space.cpp **** }
 1556              		.loc 1 127 0
 1557 05a0 0000A0E3 		mov	r0, #0
 119:../src/tensorflow_lite/src/tensorflow/lite/micro/kernels/depth_to_space.cpp ****     default:
 1558              		.loc 1 119 0
 1559 05a4 D7FEFFEA 		b	.L327
 1560              	.LVL171:
 1561              	.L32:
 1562              	.LBB760:
 1563              	.LBB743:
 1564              	.LBB622:
 1565              	.LBB621:
 1566              	.LBB620:
 1567              	.LBB619:
 315:C:/Renesas/e2studio_2021_01_workspace_RZA2M_ANPR/ANPR_RZA2M_GR_MANGO/src/tensorflow_lite/src/tensorflow/lite/kernels/internal\types.h ****   }
 1568              		.loc 5 315 0
 1569 05a8 9C308DE2 		add	r3, sp, #156
 1570 05ac 0521A0E1 		lsl	r2, r5, #2
 1571 05b0 000183E0 		add	r0, r3, r0, lsl #2
 1572              	.LVL172:
 1573 05b4 6C108DE2 		add	r1, sp, #108
 1574 05b8 FEFFFFEB 		bl	memcpy
 1575              	.LVL173:
 1576              	.LBE619:
 1577              	.LBE620:
 1578              	.LBE621:
 1579              	.LBE622:
 1580              	.LBB623:
 1581              	.LBB624:
 215:C:/Renesas/e2studio_2021_01_workspace_RZA2M_ANPR/ANPR_RZA2M_GR_MANGO/src/tensorflow_lite/src/tensorflow/lite/kernels/internal\types.h ****     return size_ > kMaxSmallSize ? dims_pointer_[i] : dims_[i];
 1582              		.loc 5 215 0
 1583 05bc 80309DE5 		ldr	r3, [sp, #128]
 1584 05c0 030053E3 		cmp	r3, #3
 1585 05c4 10308DE5 		str	r3, [sp, #16]
 1586 05c8 1A0100DA 		ble	.L435
 216:C:/Renesas/e2studio_2021_01_workspace_RZA2M_ANPR/ANPR_RZA2M_GR_MANGO/src/tensorflow_lite/src/tensorflow/lite/kernels/internal\types.h ****   }
 1587              		.loc 5 216 0
 1588 05cc 050053E3 		cmp	r3, #5
 1589              	.LBE624:
 1590              	.LBE623:
 1591              	.LBB628:
 1592              	.LBB629:
 215:C:/Renesas/e2studio_2021_01_workspace_RZA2M_ANPR/ANPR_RZA2M_GR_MANGO/src/tensorflow_lite/src/tensorflow/lite/kernels/internal\types.h ****     return size_ > kMaxSmallSize ? dims_pointer_[i] : dims_[i];
 1593              		.loc 5 215 0
 1594 05d0 98809DE5 		ldr	r8, [sp, #152]
 1595              	.LBE629:
 1596              	.LBE628:
 1597              	.LBB635:
 1598              	.LBB625:
 216:C:/Renesas/e2studio_2021_01_workspace_RZA2M_ANPR/ANPR_RZA2M_GR_MANGO/src/tensorflow_lite/src/tensorflow/lite/kernels/internal\types.h ****   }
 1599              		.loc 5 216 0
 1600 05d4 84309DC5 		ldrgt	r3, [sp, #132]
 1601              	.LBE625:
 1602              	.LBE635:
 1603              	.LBB636:
 1604              	.LBB637:
 1605 05d8 84309DD5 		ldrle	r3, [sp, #132]
 1606              	.LBE637:
 1607              	.LBE636:
 1608              	.LBB640:
 1609              	.LBB626:
 1610 05dc 90109DD5 		ldrle	r1, [sp, #144]
 1611 05e0 0C1093C5 		ldrgt	r1, [r3, #12]
 1612              	.LVL174:
 1613              	.LBE626:
 1614              	.LBE640:
 1615              	.LBB641:
 1616              	.LBB642:
 1617 05e4 014093C9 		ldmibgt	r3, {r0, lr}
 1618              	.LVL175:
 1619              	.LBE642:
 1620              	.LBE641:
 1621              	.LBB644:
 1622              	.LBB638:
 1623 05e8 003093C5 		ldrgt	r3, [r3]
 1624              	.LBE638:
 1625              	.LBE644:
 1626              	.LBB645:
 1627              	.LBB646:
 1628 05ec 8CE09DD5 		ldrle	lr, [sp, #140]
 1629              	.LVL176:
 1630              	.LBE646:
 1631              	.LBE645:
 1632              	.LBB647:
 1633              	.LBB643:
 1634 05f0 88009DD5 		ldrle	r0, [sp, #136]
 1635              	.LVL177:
 1636              	.LBE643:
 1637              	.LBE647:
 1638              	.LBB648:
 1639              	.LBB630:
 215:C:/Renesas/e2studio_2021_01_workspace_RZA2M_ANPR/ANPR_RZA2M_GR_MANGO/src/tensorflow_lite/src/tensorflow/lite/kernels/internal\types.h ****     return size_ > kMaxSmallSize ? dims_pointer_[i] : dims_[i];
 1640              		.loc 5 215 0
 1641 05f4 030058E3 		cmp	r8, #3
 1642              	.LBE630:
 1643              	.LBE648:
 1644              	.LBB649:
 1645              	.LBB639:
 216:C:/Renesas/e2studio_2021_01_workspace_RZA2M_ANPR/ANPR_RZA2M_GR_MANGO/src/tensorflow_lite/src/tensorflow/lite/kernels/internal\types.h ****   }
 1646              		.loc 5 216 0
 1647 05f8 44308DE5 		str	r3, [sp, #68]
 1648              	.LVL178:
 1649              	.LBE639:
 1650              	.LBE649:
 1651              	.LBB650:
 1652              	.LBB631:
 215:C:/Renesas/e2studio_2021_01_workspace_RZA2M_ANPR/ANPR_RZA2M_GR_MANGO/src/tensorflow_lite/src/tensorflow/lite/kernels/internal\types.h ****     return size_ > kMaxSmallSize ? dims_pointer_[i] : dims_[i];
 1653              		.loc 5 215 0
 1654 05fc 0E0100DA 		ble	.L436
 216:C:/Renesas/e2studio_2021_01_workspace_RZA2M_ANPR/ANPR_RZA2M_GR_MANGO/src/tensorflow_lite/src/tensorflow/lite/kernels/internal\types.h ****   }
 1655              		.loc 5 216 0
 1656 0600 050058E3 		cmp	r8, #5
 1657              	.LBE631:
 1658              	.LBE650:
  48:C:/Renesas/e2studio_2021_01_workspace_RZA2M_ANPR/ANPR_RZA2M_GR_MANGO/src/tensorflow_lite/src/tensorflow/lite/kernels/internal/reference\depth_to_space.h ****   TFLITE_DCHECK_EQ(input_height * block_size, output_height);
 1659              		.loc 4 48 0
 1660 0604 9E0A0EE0 		mul	lr, lr, r10
 1661              	.LBB651:
 1662              	.LBB632:
 216:C:/Renesas/e2studio_2021_01_workspace_RZA2M_ANPR/ANPR_RZA2M_GR_MANGO/src/tensorflow_lite/src/tensorflow/lite/kernels/internal\types.h ****   }
 1663              		.loc 5 216 0
 1664 0608 9C209DC5 		ldrgt	r2, [sp, #156]
 1665              	.LBE632:
 1666              	.LBE651:
 1667              	.LBB652:
 1668              	.LBB653:
 1669 060c 9C208DD2 		addle	r2, sp, #156
 1670              	.LBE653:
 1671              	.LBE652:
 1672              	.LBB655:
 1673              	.LBB633:
 1674 0610 A8509DD5 		ldrle	r5, [sp, #168]
 1675              	.LVL179:
 1676 0614 0C5092C5 		ldrgt	r5, [r2, #12]
 1677              	.LBE633:
 1678              	.LBE655:
 1679              	.LBB656:
 1680              	.LBB654:
 1681 0618 0C1092E8 		ldm	r2, {r2, r3, ip}
 1682              	.LVL180:
 1683              	.LBE654:
 1684              	.LBE656:
  48:C:/Renesas/e2studio_2021_01_workspace_RZA2M_ANPR/ANPR_RZA2M_GR_MANGO/src/tensorflow_lite/src/tensorflow/lite/kernels/internal/reference\depth_to_space.h ****   TFLITE_DCHECK_EQ(input_height * block_size, output_height);
 1685              		.loc 4 48 0
 1686 061c 14E08DE5 		str	lr, [sp, #20]
 1687 0620 0C005EE1 		cmp	lr, ip
 1688 0624 0701001A 		bne	.L437
  49:C:/Renesas/e2studio_2021_01_workspace_RZA2M_ANPR/ANPR_RZA2M_GR_MANGO/src/tensorflow_lite/src/tensorflow/lite/kernels/internal/reference\depth_to_space.h ****   TFLITE_DCHECK_EQ(input_depth, output_depth * block_size * block_size);
 1689              		.loc 4 49 0
 1690 0628 900A00E0 		mul	r0, r0, r10
 1691 062c 030050E1 		cmp	r0, r3
 1692 0630 40008DE5 		str	r0, [sp, #64]
 1693 0634 0101001A 		bne	.L438
  50:C:/Renesas/e2studio_2021_01_workspace_RZA2M_ANPR/ANPR_RZA2M_GR_MANGO/src/tensorflow_lite/src/tensorflow/lite/kernels/internal/reference\depth_to_space.h ****   TFLITE_DCHECK_EQ(input_batch, output_batch);
 1694              		.loc 4 50 0
 1695 0638 950A03E0 		mul	r3, r5, r10
 1696 063c 9A0303E0 		mul	r3, r10, r3
 1697 0640 010053E1 		cmp	r3, r1
 1698 0644 3201001A 		bne	.L439
  51:C:/Renesas/e2studio_2021_01_workspace_RZA2M_ANPR/ANPR_RZA2M_GR_MANGO/src/tensorflow_lite/src/tensorflow/lite/kernels/internal/reference\depth_to_space.h **** 
 1699              		.loc 4 51 0
 1700 0648 44309DE5 		ldr	r3, [sp, #68]
 1701 064c 020053E1 		cmp	r3, r2
 1702 0650 1401001A 		bne	.L49
 1703              	.LVL181:
 1704              	.LBB657:
  53:C:/Renesas/e2studio_2021_01_workspace_RZA2M_ANPR/ANPR_RZA2M_GR_MANGO/src/tensorflow_lite/src/tensorflow/lite/kernels/internal/reference\depth_to_space.h ****     for (int out_h = 0; out_h < output_height; ++out_h) {
 1705              		.loc 4 53 0
 1706 0654 000053E3 		cmp	r3, #0
 1707 0658 B5FFFFDA 		ble	.L122
 1708              	.LBB658:
 1709              	.LBB659:
 1710              	.LBB660:
 1711              	.LBB661:
 1712              	.LBB662:
 1713              	.LBB663:
 407:C:/Renesas/e2studio_2021_01_workspace_RZA2M_ANPR/ANPR_RZA2M_GR_MANGO/src/tensorflow_lite/src/tensorflow/lite/kernels/internal\types.h ****   TFLITE_DCHECK(i2 >= 0 && i2 < dims_data[2]);
 1714              		.loc 5 407 0
 1715 065c A0309DE5 		ldr	r3, [sp, #160]
 409:C:/Renesas/e2studio_2021_01_workspace_RZA2M_ANPR/ANPR_RZA2M_GR_MANGO/src/tensorflow_lite/src/tensorflow/lite/kernels/internal\types.h ****   return ((i0 * dims_data[1] + i1) * dims_data[2] + i2) * dims_data[3] + i3;
 1716              		.loc 5 409 0
 1717 0660 A8B09DE5 		ldr	fp, [sp, #168]
 1718              	.LBE663:
 1719              	.LBE662:
 1720              	.LBB675:
 1721              	.LBB676:
 408:C:/Renesas/e2studio_2021_01_workspace_RZA2M_ANPR/ANPR_RZA2M_GR_MANGO/src/tensorflow_lite/src/tensorflow/lite/kernels/internal\types.h ****   TFLITE_DCHECK(i3 >= 0 && i3 < dims_data[3]);
 1722              		.loc 5 408 0
 1723 0664 8C609DE5 		ldr	r6, [sp, #140]
 1724              	.LBE676:
 1725              	.LBE675:
 1726              	.LBB688:
 1727              	.LBB664:
 407:C:/Renesas/e2studio_2021_01_workspace_RZA2M_ANPR/ANPR_RZA2M_GR_MANGO/src/tensorflow_lite/src/tensorflow/lite/kernels/internal\types.h ****   TFLITE_DCHECK(i2 >= 0 && i2 < dims_data[2]);
 1728              		.loc 5 407 0
 1729 0668 0310A0E1 		mov	r1, r3
 1730 066c 20308DE5 		str	r3, [sp, #32]
 409:C:/Renesas/e2studio_2021_01_workspace_RZA2M_ANPR/ANPR_RZA2M_GR_MANGO/src/tensorflow_lite/src/tensorflow/lite/kernels/internal\types.h ****   return ((i0 * dims_data[1] + i1) * dims_data[2] + i2) * dims_data[3] + i3;
 1731              		.loc 5 409 0
 1732 0670 0030A0E3 		mov	r3, #0
 1733              	.LBE664:
 1734              	.LBE688:
 1735              	.LBB689:
 1736              	.LBB677:
 1737 0674 90709DE5 		ldr	r7, [sp, #144]
 1738              	.LVL182:
 1739              	.LBE677:
 1740              	.LBE689:
 1741              	.LBB690:
 1742              	.LBB665:
 1743 0678 0320A0E1 		mov	r2, r3
 1744 067c 1C308DE5 		str	r3, [sp, #28]
 1745 0680 04208DE5 		str	r2, [sp, #4]
 1746              	.LBE665:
 1747              	.LBE690:
 1748              	.LBB691:
 1749              	.LBB678:
 406:C:/Renesas/e2studio_2021_01_workspace_RZA2M_ANPR/ANPR_RZA2M_GR_MANGO/src/tensorflow_lite/src/tensorflow/lite/kernels/internal\types.h ****   TFLITE_DCHECK(i1 >= 0 && i1 < dims_data[1]);
 1750              		.loc 5 406 0
 1751 0684 84209DE5 		ldr	r2, [sp, #132]
 1752              	.LBE678:
 1753              	.LBE691:
 1754              	.LBB692:
 1755              	.LBB666:
 408:C:/Renesas/e2studio_2021_01_workspace_RZA2M_ANPR/ANPR_RZA2M_GR_MANGO/src/tensorflow_lite/src/tensorflow/lite/kernels/internal\types.h ****   TFLITE_DCHECK(i3 >= 0 && i3 < dims_data[3]);
 1756              		.loc 5 408 0
 1757 0688 A4309DE5 		ldr	r3, [sp, #164]
 1758 068c 3C408DE5 		str	r4, [sp, #60]
 1759              	.LBE666:
 1760              	.LBE692:
 1761              	.LBB693:
 1762              	.LBB679:
 406:C:/Renesas/e2studio_2021_01_workspace_RZA2M_ANPR/ANPR_RZA2M_GR_MANGO/src/tensorflow_lite/src/tensorflow/lite/kernels/internal\types.h ****   TFLITE_DCHECK(i1 >= 0 && i1 < dims_data[1]);
 1763              		.loc 5 406 0
 1764 0690 30208DE5 		str	r2, [sp, #48]
 407:C:/Renesas/e2studio_2021_01_workspace_RZA2M_ANPR/ANPR_RZA2M_GR_MANGO/src/tensorflow_lite/src/tensorflow/lite/kernels/internal\types.h ****   TFLITE_DCHECK(i2 >= 0 && i2 < dims_data[2]);
 1765              		.loc 5 407 0
 1766 0694 88209DE5 		ldr	r2, [sp, #136]
 1767              	.LBE679:
 1768              	.LBE693:
 1769              	.LBB694:
 1770              	.LBB667:
 408:C:/Renesas/e2studio_2021_01_workspace_RZA2M_ANPR/ANPR_RZA2M_GR_MANGO/src/tensorflow_lite/src/tensorflow/lite/kernels/internal\types.h ****   TFLITE_DCHECK(i3 >= 0 && i3 < dims_data[3]);
 1771              		.loc 5 408 0
 1772 0698 2C308DE5 		str	r3, [sp, #44]
 1773              	.LBE667:
 1774              	.LBE694:
 1775              	.LBB695:
 1776              	.LBB680:
 407:C:/Renesas/e2studio_2021_01_workspace_RZA2M_ANPR/ANPR_RZA2M_GR_MANGO/src/tensorflow_lite/src/tensorflow/lite/kernels/internal\types.h ****   TFLITE_DCHECK(i2 >= 0 && i2 < dims_data[2]);
 1777              		.loc 5 407 0
 1778 069c 24208DE5 		str	r2, [sp, #36]
 1779 06a0 0320A0E1 		mov	r2, r3
 1780 06a4 930103E0 		mul	r3, r3, r1
 1781 06a8 0B11A0E1 		lsl	r1, fp, #2
 1782 06ac 9B0202E0 		mul	r2, fp, r2
 1783 06b0 34108DE5 		str	r1, [sp, #52]
 1784              	.LBE680:
 1785              	.LBE695:
 1786              	.LBB696:
 1787              	.LBB668:
 406:C:/Renesas/e2studio_2021_01_workspace_RZA2M_ANPR/ANPR_RZA2M_GR_MANGO/src/tensorflow_lite/src/tensorflow/lite/kernels/internal\types.h ****   TFLITE_DCHECK(i1 >= 0 && i1 < dims_data[1]);
 1788              		.loc 5 406 0
 1789 06b4 9C109DE5 		ldr	r1, [sp, #156]
 1790 06b8 0331A0E1 		lsl	r3, r3, #2
 1791 06bc 9B0303E0 		mul	r3, fp, r3
 1792 06c0 18108DE5 		str	r1, [sp, #24]
 1793 06c4 4C308DE5 		str	r3, [sp, #76]
 1794 06c8 0231A0E1 		lsl	r3, r2, #2
 1795 06cc 48308DE5 		str	r3, [sp, #72]
 1796              	.LVL183:
 1797              	.L55:
 1798              	.LBE668:
 1799              	.LBE696:
 1800              	.LBE661:
 1801              	.LBE660:
 1802              	.LBE659:
  54:C:/Renesas/e2studio_2021_01_workspace_RZA2M_ANPR/ANPR_RZA2M_GR_MANGO/src/tensorflow_lite/src/tensorflow/lite/kernels/internal/reference\depth_to_space.h ****       for (int out_w = 0; out_w < output_width; ++out_w) {
 1803              		.loc 4 54 0
 1804 06d0 40309DE5 		ldr	r3, [sp, #64]
 1805 06d4 000053E3 		cmp	r3, #0
 1806 06d8 610000DA 		ble	.L57
 1807 06dc 3C309DE5 		ldr	r3, [sp, #60]
 1808 06e0 38308DE5 		str	r3, [sp, #56]
 1809 06e4 0030A0E3 		mov	r3, #0
 1810 06e8 00308DE5 		str	r3, [sp]
 1811              	.LVL184:
 1812              	.L53:
 1813              	.LBB724:
  55:C:/Renesas/e2studio_2021_01_workspace_RZA2M_ANPR/ANPR_RZA2M_GR_MANGO/src/tensorflow_lite/src/tensorflow/lite/kernels/internal/reference\depth_to_space.h ****         for (int out_d = 0; out_d < output_depth; ++out_d) {
 1814              		.loc 4 55 0
 1815 06ec 14309DE5 		ldr	r3, [sp, #20]
 1816 06f0 000053E3 		cmp	r3, #0
 1817 06f4 38209DC5 		ldrgt	r2, [sp, #56]
 1818 06f8 0090A0C3 		movgt	r9, #0
 1819 06fc 4E0000DA 		ble	.L59
 1820              	.LVL185:
 1821              	.L56:
 1822              	.LBB718:
  56:C:/Renesas/e2studio_2021_01_workspace_RZA2M_ANPR/ANPR_RZA2M_GR_MANGO/src/tensorflow_lite/src/tensorflow/lite/kernels/internal/reference\depth_to_space.h ****           const int in_d =
 1823              		.loc 4 56 0
 1824 0700 000055E3 		cmp	r5, #0
 1825 0704 460000DA 		ble	.L82
 1826              	.LBB710:
  58:C:/Renesas/e2studio_2021_01_workspace_RZA2M_ANPR/ANPR_RZA2M_GR_MANGO/src/tensorflow_lite/src/tensorflow/lite/kernels/internal/reference\depth_to_space.h ****                           output_depth;
 1827              		.loc 4 58 0
 1828 0708 0A10A0E1 		mov	r1, r10
 1829 070c 00009DE5 		ldr	r0, [sp]
 1830 0710 0C208DE5 		str	r2, [sp, #12]
 1831 0714 FEFFFFEB 		bl	__aeabi_idivmod
 1832              	.LVL186:
 1833 0718 9A0104E0 		mul	r4, r10, r1
 1834 071c 0900A0E1 		mov	r0, r9
 1835 0720 0A10A0E1 		mov	r1, r10
 1836 0724 FEFFFFEB 		bl	__aeabi_idivmod
 1837              	.LVL187:
 1838 0728 013084E0 		add	r3, r4, r1
  61:C:/Renesas/e2studio_2021_01_workspace_RZA2M_ANPR/ANPR_RZA2M_GR_MANGO/src/tensorflow_lite/src/tensorflow/lite/kernels/internal/reference\depth_to_space.h ****           const int in_h = out_h / block_size;
 1839              		.loc 4 61 0
 1840 072c 0900A0E1 		mov	r0, r9
  58:C:/Renesas/e2studio_2021_01_workspace_RZA2M_ANPR/ANPR_RZA2M_GR_MANGO/src/tensorflow_lite/src/tensorflow/lite/kernels/internal/reference\depth_to_space.h ****                           output_depth;
 1841              		.loc 4 58 0
 1842 0730 950303E0 		mul	r3, r5, r3
  61:C:/Renesas/e2studio_2021_01_workspace_RZA2M_ANPR/ANPR_RZA2M_GR_MANGO/src/tensorflow_lite/src/tensorflow/lite/kernels/internal/reference\depth_to_space.h ****           const int in_h = out_h / block_size;
 1843              		.loc 4 61 0
 1844 0734 0A10A0E1 		mov	r1, r10
  58:C:/Renesas/e2studio_2021_01_workspace_RZA2M_ANPR/ANPR_RZA2M_GR_MANGO/src/tensorflow_lite/src/tensorflow/lite/kernels/internal/reference\depth_to_space.h ****                           output_depth;
 1845              		.loc 4 58 0
 1846 0738 08308DE5 		str	r3, [sp, #8]
 1847              	.LVL188:
  61:C:/Renesas/e2studio_2021_01_workspace_RZA2M_ANPR/ANPR_RZA2M_GR_MANGO/src/tensorflow_lite/src/tensorflow/lite/kernels/internal/reference\depth_to_space.h ****           const int in_h = out_h / block_size;
 1848              		.loc 4 61 0
 1849 073c FEFFFFEB 		bl	__aeabi_idiv
 1850              	.LVL189:
  62:C:/Renesas/e2studio_2021_01_workspace_RZA2M_ANPR/ANPR_RZA2M_GR_MANGO/src/tensorflow_lite/src/tensorflow/lite/kernels/internal/reference\depth_to_space.h ****           const int in_b = out_b;
 1851              		.loc 4 62 0
 1852 0740 0A10A0E1 		mov	r1, r10
  61:C:/Renesas/e2studio_2021_01_workspace_RZA2M_ANPR/ANPR_RZA2M_GR_MANGO/src/tensorflow_lite/src/tensorflow/lite/kernels/internal/reference\depth_to_space.h ****           const int in_h = out_h / block_size;
 1853              		.loc 4 61 0
 1854 0744 0040A0E1 		mov	r4, r0
 1855              	.LVL190:
  62:C:/Renesas/e2studio_2021_01_workspace_RZA2M_ANPR/ANPR_RZA2M_GR_MANGO/src/tensorflow_lite/src/tensorflow/lite/kernels/internal/reference\depth_to_space.h ****           const int in_b = out_b;
 1856              		.loc 4 62 0
 1857 0748 00009DE5 		ldr	r0, [sp]
 1858              	.LVL191:
 1859 074c FEFFFFEB 		bl	__aeabi_idiv
 1860              	.LVL192:
 1861              	.LBB697:
 1862              	.LBB681:
 404:C:/Renesas/e2studio_2021_01_workspace_RZA2M_ANPR/ANPR_RZA2M_GR_MANGO/src/tensorflow_lite/src/tensorflow/lite/kernels/internal\types.h ****   const int* dims_data = reinterpret_cast<const int*>(shape.DimsDataUpTo5D());
 1863              		.loc 5 404 0
 1864 0750 10309DE5 		ldr	r3, [sp, #16]
 1865 0754 040053E3 		cmp	r3, #4
 1866 0758 8800001A 		bne	.L60
 406:C:/Renesas/e2studio_2021_01_workspace_RZA2M_ANPR/ANPR_RZA2M_GR_MANGO/src/tensorflow_lite/src/tensorflow/lite/kernels/internal\types.h ****   TFLITE_DCHECK(i1 >= 0 && i1 < dims_data[1]);
 1867              		.loc 5 406 0
 1868 075c 04309DE5 		ldr	r3, [sp, #4]
 1869 0760 30209DE5 		ldr	r2, [sp, #48]
 1870 0764 020053E1 		cmp	r3, r2
 1871 0768 7F0000AA 		bge	.L61
 407:C:/Renesas/e2studio_2021_01_workspace_RZA2M_ANPR/ANPR_RZA2M_GR_MANGO/src/tensorflow_lite/src/tensorflow/lite/kernels/internal\types.h ****   TFLITE_DCHECK(i2 >= 0 && i2 < dims_data[2]);
 1872              		.loc 5 407 0
 1873 076c 000050E3 		cmp	r0, #0
 1874 0770 7E0000BA 		blt	.L62
 1875 0774 24309DE5 		ldr	r3, [sp, #36]
 1876 0778 030050E1 		cmp	r0, r3
 1877 077c 7B0000AA 		bge	.L62
 1878              		.loc 5 410 0
 1879 0780 1C309DE5 		ldr	r3, [sp, #28]
 1880 0784 000054E3 		cmp	r4, #0
 1881 0788 0C209DE5 		ldr	r2, [sp, #12]
 1882 078c 030080E0 		add	r0, r0, r3
 1883              	.LVL193:
 1884 0790 08309DE5 		ldr	r3, [sp, #8]
 1885 0794 964020E0 		mla	r0, r6, r0, r4
 1886 0798 970000E0 		mul	r0, r7, r0
 1887 079c 740000BA 		blt	.L64
 1888 07a0 2C109DE5 		ldr	r1, [sp, #44]
 1889 07a4 090051E1 		cmp	r1, r9
 1890 07a8 840000DA 		ble	.L440
 1891 07ac 00109DE5 		ldr	r1, [sp]
 1892 07b0 20C09DE5 		ldr	ip, [sp, #32]
 1893 07b4 0C0051E1 		cmp	r1, ip
 1894 07b8 910000AA 		bge	.L441
 1895 07bc 18109DE5 		ldr	r1, [sp, #24]
 1896 07c0 04C09DE5 		ldr	ip, [sp, #4]
 1897 07c4 0C0051E1 		cmp	r1, ip
 1898 07c8 BF0000DA 		ble	.L382
 1899 07cc 28109DE5 		ldr	r1, [sp, #40]
 1900 07d0 030080E0 		add	r0, r0, r3
 1901 07d4 02C0A0E1 		mov	ip, r2
 1902 07d8 000181E0 		add	r0, r1, r0, lsl #2
 1903 07dc 0010A0E3 		mov	r1, #0
 1904 07e0 000000EA 		b	.L65
 1905              	.LVL194:
 1906              	.L326:
 1907 07e4 013083E2 		add	r3, r3, #1
 1908              	.LVL195:
 1909              	.L65:
 408:C:/Renesas/e2studio_2021_01_workspace_RZA2M_ANPR/ANPR_RZA2M_GR_MANGO/src/tensorflow_lite/src/tensorflow/lite/kernels/internal\types.h ****   TFLITE_DCHECK(i3 >= 0 && i3 < dims_data[3]);
 1910              		.loc 5 408 0
 1911 07e8 040056E1 		cmp	r6, r4
 1912 07ec 600000DA 		ble	.L64
 409:C:/Renesas/e2studio_2021_01_workspace_RZA2M_ANPR/ANPR_RZA2M_GR_MANGO/src/tensorflow_lite/src/tensorflow/lite/kernels/internal\types.h ****   return ((i0 * dims_data[1] + i1) * dims_data[2] + i2) * dims_data[3] + i3;
 1913              		.loc 5 409 0
 1914 07f0 000053E3 		cmp	r3, #0
 1915 07f4 550000BA 		blt	.L69
 1916 07f8 030057E1 		cmp	r7, r3
 1917 07fc 530000DA 		ble	.L69
 1918              	.LVL196:
 1919              	.LBE681:
 1920              	.LBE697:
 1921              	.LBB698:
 1922              	.LBB669:
 404:C:/Renesas/e2studio_2021_01_workspace_RZA2M_ANPR/ANPR_RZA2M_GR_MANGO/src/tensorflow_lite/src/tensorflow/lite/kernels/internal\types.h ****   const int* dims_data = reinterpret_cast<const int*>(shape.DimsDataUpTo5D());
 1923              		.loc 5 404 0
 1924 0800 040058E3 		cmp	r8, #4
 1925 0804 5E00001A 		bne	.L71
 409:C:/Renesas/e2studio_2021_01_workspace_RZA2M_ANPR/ANPR_RZA2M_GR_MANGO/src/tensorflow_lite/src/tensorflow/lite/kernels/internal\types.h ****   return ((i0 * dims_data[1] + i1) * dims_data[2] + i2) * dims_data[3] + i3;
 1926              		.loc 5 409 0
 1927 0808 01005BE1 		cmp	fp, r1
 1928 080c 510000DA 		ble	.L442
 1929              	.LVL197:
 1930              	.LBE669:
 1931              	.LBE698:
 1932              	.LBE710:
  56:C:/Renesas/e2studio_2021_01_workspace_RZA2M_ANPR/ANPR_RZA2M_GR_MANGO/src/tensorflow_lite/src/tensorflow/lite/kernels/internal/reference\depth_to_space.h ****           const int in_d =
 1933              		.loc 4 56 0
 1934 0810 011081E2 		add	r1, r1, #1
 1935              	.LVL198:
 1936              	.LBB711:
 1937              		.loc 4 69 0
 1938 0814 04E090E4 		ldr	lr, [r0], #4	@ float
 1939              	.LBE711:
  56:C:/Renesas/e2studio_2021_01_workspace_RZA2M_ANPR/ANPR_RZA2M_GR_MANGO/src/tensorflow_lite/src/tensorflow/lite/kernels/internal/reference\depth_to_space.h ****           const int in_d =
 1940              		.loc 4 56 0
 1941 0818 050051E1 		cmp	r1, r5
 1942              	.LBB712:
 1943              		.loc 4 69 0
 1944 081c 04E08CE4 		str	lr, [ip], #4	@ float
 1945              	.LBE712:
  56:C:/Renesas/e2studio_2021_01_workspace_RZA2M_ANPR/ANPR_RZA2M_GR_MANGO/src/tensorflow_lite/src/tensorflow/lite/kernels/internal/reference\depth_to_space.h ****           const int in_d =
 1946              		.loc 4 56 0
 1947 0820 EFFFFFBA 		blt	.L326
 1948              	.LVL199:
 1949              	.L82:
 1950 0824 34309DE5 		ldr	r3, [sp, #52]
 1951              	.LBE718:
  55:C:/Renesas/e2studio_2021_01_workspace_RZA2M_ANPR/ANPR_RZA2M_GR_MANGO/src/tensorflow_lite/src/tensorflow/lite/kernels/internal/reference\depth_to_space.h ****         for (int out_d = 0; out_d < output_depth; ++out_d) {
 1952              		.loc 4 55 0
 1953 0828 019089E2 		add	r9, r9, #1
 1954              	.LVL200:
 1955 082c 032082E0 		add	r2, r2, r3
 1956 0830 14309DE5 		ldr	r3, [sp, #20]
 1957 0834 090053E1 		cmp	r3, r9
 1958 0838 B0FFFF1A 		bne	.L56
 1959              	.LVL201:
 1960              	.L59:
 1961 083c 38209DE5 		ldr	r2, [sp, #56]
 1962 0840 48109DE5 		ldr	r1, [sp, #72]
 1963              	.LBE724:
  54:C:/Renesas/e2studio_2021_01_workspace_RZA2M_ANPR/ANPR_RZA2M_GR_MANGO/src/tensorflow_lite/src/tensorflow/lite/kernels/internal/reference\depth_to_space.h ****       for (int out_w = 0; out_w < output_width; ++out_w) {
 1964              		.loc 4 54 0
 1965 0844 00309DE5 		ldr	r3, [sp]
 1966 0848 012082E0 		add	r2, r2, r1
 1967 084c 38208DE5 		str	r2, [sp, #56]
 1968 0850 013083E2 		add	r3, r3, #1
 1969              	.LVL202:
 1970 0854 40209DE5 		ldr	r2, [sp, #64]
 1971 0858 00308DE5 		str	r3, [sp]
 1972 085c 030052E1 		cmp	r2, r3
 1973 0860 A1FFFF1A 		bne	.L53
 1974              	.LVL203:
 1975              	.L57:
 1976 0864 3C209DE5 		ldr	r2, [sp, #60]
 1977 0868 4C109DE5 		ldr	r1, [sp, #76]
 1978              	.LBE658:
  53:C:/Renesas/e2studio_2021_01_workspace_RZA2M_ANPR/ANPR_RZA2M_GR_MANGO/src/tensorflow_lite/src/tensorflow/lite/kernels/internal/reference\depth_to_space.h ****     for (int out_h = 0; out_h < output_height; ++out_h) {
 1979              		.loc 4 53 0
 1980 086c 04309DE5 		ldr	r3, [sp, #4]
 1981 0870 012082E0 		add	r2, r2, r1
 1982 0874 3C208DE5 		str	r2, [sp, #60]
 1983 0878 013083E2 		add	r3, r3, #1
 1984              	.LVL204:
 1985 087c 44209DE5 		ldr	r2, [sp, #68]
 1986 0880 04308DE5 		str	r3, [sp, #4]
 1987 0884 020053E1 		cmp	r3, r2
 1988 0888 1C309DE5 		ldr	r3, [sp, #28]
 1989              	.LVL205:
 1990 088c 24209DE5 		ldr	r2, [sp, #36]
 1991 0890 023083E0 		add	r3, r3, r2
 1992 0894 1C308DE5 		str	r3, [sp, #28]
 1993 0898 8CFFFF1A 		bne	.L55
 1994 089c 24FFFFEA 		b	.L122
 1995              	.LVL206:
 1996              	.L428:
 1997              	.LBE657:
 1998              	.LBE743:
 1999              	.LBE760:
 2000              	.LBB761:
 2001              	.LBB561:
 2002              	.LBB540:
 2003              	.LBB416:
 216:C:/Renesas/e2studio_2021_01_workspace_RZA2M_ANPR/ANPR_RZA2M_GR_MANGO/src/tensorflow_lite/src/tensorflow/lite/kernels/internal\types.h ****   }
 2004              		.loc 5 216 0
 2005 08a0 9C209DE5 		ldr	r2, [sp, #156]
 2006              	.LBE416:
 2007              	.LBE540:
 2008              	.LBB541:
 2009              	.LBB438:
 2010 08a4 080092E5 		ldr	r0, [r2, #8]
 2011              	.LBE438:
 2012              	.LBE541:
 2013              	.LBB542:
 2014              	.LBB417:
 2015 08a8 0C5092E5 		ldr	r5, [r2, #12]
 2016              	.LVL207:
 2017              	.LBE417:
 2018              	.LBE542:
 2019              	.LBB543:
 2020              	.LBB439:
 2021 08ac 14008DE5 		str	r0, [sp, #20]
 2022              	.LVL208:
 2023              	.LBE439:
 2024              	.LBE543:
 2025              	.LBB544:
 2026              	.LBB443:
 2027 08b0 040092E5 		ldr	r0, [r2, #4]
 2028              	.LVL209:
 2029              	.LBE443:
 2030              	.LBE544:
 2031              	.LBB545:
 2032              	.LBB447:
 2033 08b4 002092E5 		ldr	r2, [r2]
 2034 08b8 81FEFFEA 		b	.L113
 2035              	.LVL210:
 2036              	.L181:
 2037              	.L349:
 2038 08bc 80309DE5 		ldr	r3, [sp, #128]
 2039 08c0 10308DE5 		str	r3, [sp, #16]
 2040              	.L107:
 2041              	.LVL211:
 2042              	.LBE447:
 2043              	.LBE545:
 2044              	.LBB546:
 2045              	.LBB547:
 203:C:/Renesas/e2studio_2021_01_workspace_RZA2M_ANPR/ANPR_RZA2M_GR_MANGO/src/tensorflow_lite/src/tensorflow/lite/kernels/internal\types.h **** #ifdef TF_LITE_STATIC_MEMORY
 2046              		.loc 5 203 0
 2047 08c4 10309DE5 		ldr	r3, [sp, #16]
 2048 08c8 050053E3 		cmp	r3, #5
 2049 08cc 030000DA 		ble	.L161
 207:C:/Renesas/e2studio_2021_01_workspace_RZA2M_ANPR/ANPR_RZA2M_GR_MANGO/src/tensorflow_lite/src/tensorflow/lite/kernels/internal\types.h **** #endif  // TF_LITE_STATIC_MEMORY
 2050              		.loc 5 207 0
 2051 08d0 84009DE5 		ldr	r0, [sp, #132]
 2052 08d4 000050E3 		cmp	r0, #0
 2053 08d8 0000000A 		beq	.L161
 2054 08dc FEFFFFEB 		bl	_ZdaPv
 2055              	.LVL212:
 2056              	.L161:
 2057              	.LBE547:
 2058              	.LBE546:
 2059              	.LBE561:
 2060              	.LBE761:
 2061              	.LBB762:
 2062              	.LBB763:
 203:C:/Renesas/e2studio_2021_01_workspace_RZA2M_ANPR/ANPR_RZA2M_GR_MANGO/src/tensorflow_lite/src/tensorflow/lite/kernels/internal\types.h **** #ifdef TF_LITE_STATIC_MEMORY
 2063              		.loc 5 203 0
 2064 08e0 68309DE5 		ldr	r3, [sp, #104]
 2065 08e4 050053E3 		cmp	r3, #5
 2066 08e8 030000DA 		ble	.L167
 207:C:/Renesas/e2studio_2021_01_workspace_RZA2M_ANPR/ANPR_RZA2M_GR_MANGO/src/tensorflow_lite/src/tensorflow/lite/kernels/internal\types.h **** #endif  // TF_LITE_STATIC_MEMORY
 2067              		.loc 5 207 0
 2068 08ec 6C009DE5 		ldr	r0, [sp, #108]
 2069 08f0 000050E3 		cmp	r0, #0
 2070 08f4 0000000A 		beq	.L167
 2071 08f8 FEFFFFEB 		bl	_ZdaPv
 2072              	.LVL213:
 2073              	.L167:
 2074              	.LBE763:
 2075              	.LBE762:
 2076              	.LBB764:
 2077              	.LBB765:
 203:C:/Renesas/e2studio_2021_01_workspace_RZA2M_ANPR/ANPR_RZA2M_GR_MANGO/src/tensorflow_lite/src/tensorflow/lite/kernels/internal\types.h **** #ifdef TF_LITE_STATIC_MEMORY
 2078              		.loc 5 203 0
 2079 08fc 50309DE5 		ldr	r3, [sp, #80]
 2080 0900 050053E3 		cmp	r3, #5
 2081 0904 030000DA 		ble	.L168
 207:C:/Renesas/e2studio_2021_01_workspace_RZA2M_ANPR/ANPR_RZA2M_GR_MANGO/src/tensorflow_lite/src/tensorflow/lite/kernels/internal\types.h **** #endif  // TF_LITE_STATIC_MEMORY
 2082              		.loc 5 207 0
 2083 0908 54009DE5 		ldr	r0, [sp, #84]
 2084 090c 000050E3 		cmp	r0, #0
 2085 0910 0000000A 		beq	.L168
 2086 0914 FEFFFFEB 		bl	_ZdaPv
 2087              	.LVL214:
 2088              	.L168:
 2089              	.LEHB8:
 2090 0918 FEFFFFEB 		bl	__cxa_end_cleanup
 2091              	.LVL215:
 2092              	.LEHE8:
 2093              	.L178:
 2094 091c EFFFFFEA 		b	.L161
 2095              	.LVL216:
 2096              	.L176:
 2097 0920 EEFFFFEA 		b	.L161
 2098              	.LVL217:
 2099              	.L184:
 2100 0924 E4FFFFEA 		b	.L349
 2101              	.LVL218:
 2102              	.L129:
 2103              	.LEHB9:
 2104              	.LBE765:
 2105              	.LBE764:
 2106              	.LBB766:
 2107              	.LBB562:
 2108              	.LBB548:
 2109              	.LBB529:
 2110              	.LBB522:
 2111              	.LBB514:
 2112              	.LBB506:
 2113              	.LBB491:
 2114              	.LBB473:
 406:C:/Renesas/e2studio_2021_01_workspace_RZA2M_ANPR/ANPR_RZA2M_GR_MANGO/src/tensorflow_lite/src/tensorflow/lite/kernels/internal\types.h ****   TFLITE_DCHECK(i1 >= 0 && i1 < dims_data[1]);
 2115              		.loc 5 406 0
 2116 0928 FEFFFFEB 		bl	abort
 2117              	.LVL219:
 2118              	.L180:
 2119              	.L156:
 2120              	.LBE473:
 2121              	.LBE491:
 2122              	.LBE506:
 2123              	.LBE514:
 2124              	.LBE522:
 2125              	.LBE529:
 2126              	.LBE548:
 2127              	.LBB549:
 2128              	.LBB550:
 203:C:/Renesas/e2studio_2021_01_workspace_RZA2M_ANPR/ANPR_RZA2M_GR_MANGO/src/tensorflow_lite/src/tensorflow/lite/kernels/internal\types.h **** #ifdef TF_LITE_STATIC_MEMORY
 2129              		.loc 5 203 0
 2130 092c 050058E3 		cmp	r8, #5
 2131 0930 E3FFFFDA 		ble	.L107
 207:C:/Renesas/e2studio_2021_01_workspace_RZA2M_ANPR/ANPR_RZA2M_GR_MANGO/src/tensorflow_lite/src/tensorflow/lite/kernels/internal\types.h **** #endif  // TF_LITE_STATIC_MEMORY
 2132              		.loc 5 207 0
 2133 0934 9C009DE5 		ldr	r0, [sp, #156]
 2134 0938 000050E3 		cmp	r0, #0
 2135 093c E0FFFF0A 		beq	.L107
 2136 0940 FEFFFFEB 		bl	_ZdaPv
 2137              	.LVL220:
 2138 0944 DCFFFFEA 		b	.L349
 2139              	.LVL221:
 2140              	.L130:
 2141              	.LBE550:
 2142              	.LBE549:
 2143              	.LBB551:
 2144              	.LBB530:
 2145              	.LBB523:
 2146              	.LBB515:
 2147              	.LBB507:
 2148              	.LBB492:
 2149              	.LBB474:
 407:C:/Renesas/e2studio_2021_01_workspace_RZA2M_ANPR/ANPR_RZA2M_GR_MANGO/src/tensorflow_lite/src/tensorflow/lite/kernels/internal\types.h ****   TFLITE_DCHECK(i2 >= 0 && i2 < dims_data[2]);
 2150              		.loc 5 407 0
 2151 0948 FEFFFFEB 		bl	abort
 2152              	.LVL222:
 2153              	.L132:
 408:C:/Renesas/e2studio_2021_01_workspace_RZA2M_ANPR/ANPR_RZA2M_GR_MANGO/src/tensorflow_lite/src/tensorflow/lite/kernels/internal\types.h ****   TFLITE_DCHECK(i3 >= 0 && i3 < dims_data[3]);
 2154              		.loc 5 408 0
 2155 094c FEFFFFEB 		bl	abort
 2156              	.LVL223:
 2157              	.LEHE9:
 2158              	.L69:
 2159              	.LEHB10:
 2160              	.LBE474:
 2161              	.LBE492:
 2162              	.LBE507:
 2163              	.LBE515:
 2164              	.LBE523:
 2165              	.LBE530:
 2166              	.LBE551:
 2167              	.LBE562:
 2168              	.LBE766:
 2169              	.LBB767:
 2170              	.LBB744:
 2171              	.LBB735:
 2172              	.LBB730:
 2173              	.LBB725:
 2174              	.LBB719:
 2175              	.LBB713:
 2176              	.LBB699:
 2177              	.LBB682:
 409:C:/Renesas/e2studio_2021_01_workspace_RZA2M_ANPR/ANPR_RZA2M_GR_MANGO/src/tensorflow_lite/src/tensorflow/lite/kernels/internal\types.h ****   return ((i0 * dims_data[1] + i1) * dims_data[2] + i2) * dims_data[3] + i3;
 2178              		.loc 5 409 0
 2179 0950 FEFFFFEB 		bl	abort
 2180              	.LVL224:
 2181              	.LEHE10:
 2182              	.L179:
 2183 0954 F4FFFFEA 		b	.L156
 2184              	.LVL225:
 2185              	.L442:
 2186              	.LEHB11:
 2187              	.LBE682:
 2188              	.LBE699:
 2189              	.LBB700:
 2190              	.LBB670:
 2191 0958 FEFFFFEB 		bl	abort
 2192              	.LVL226:
 2193              	.LEHE11:
 2194              	.L183:
 2195 095c D8FFFFEA 		b	.L107
 2196              	.LVL227:
 2197              	.L137:
 2198              	.LEHB12:
 2199              	.LBE670:
 2200              	.LBE700:
 2201              	.LBE713:
 2202              	.LBE719:
 2203              	.LBE725:
 2204              	.LBE730:
 2205              	.LBE735:
 2206              	.LBE744:
 2207              	.LBE767:
 2208              	.LBB768:
 2209              	.LBB563:
 2210              	.LBB552:
 2211              	.LBB531:
 2212              	.LBB524:
 2213              	.LBB516:
 2214              	.LBB508:
 2215              	.LBB493:
 2216              	.LBB475:
 2217 0960 FEFFFFEB 		bl	abort
 2218              	.LVL228:
 2219              	.LEHE12:
 2220              	.L434:
 2221              	.LEHB13:
 2222              	.LBE475:
 2223              	.LBE493:
 2224              	.LBB494:
 2225              	.LBB461:
 2226 0964 FEFFFFEB 		bl	abort
 2227              	.LVL229:
 2228              	.LEHE13:
 2229              	.L186:
 2230 0968 D5FFFFEA 		b	.L107
 2231              	.LVL230:
 2232              	.L61:
 2233              	.LEHB14:
 2234              	.LBE461:
 2235              	.LBE494:
 2236              	.LBE508:
 2237              	.LBE516:
 2238              	.LBE524:
 2239              	.LBE531:
 2240              	.LBE552:
 2241              	.LBE563:
 2242              	.LBE768:
 2243              	.LBB769:
 2244              	.LBB745:
 2245              	.LBB736:
 2246              	.LBB731:
 2247              	.LBB726:
 2248              	.LBB720:
 2249              	.LBB714:
 2250              	.LBB701:
 2251              	.LBB683:
 406:C:/Renesas/e2studio_2021_01_workspace_RZA2M_ANPR/ANPR_RZA2M_GR_MANGO/src/tensorflow_lite/src/tensorflow/lite/kernels/internal\types.h ****   TFLITE_DCHECK(i1 >= 0 && i1 < dims_data[1]);
 2252              		.loc 5 406 0
 2253 096c FEFFFFEB 		bl	abort
 2254              	.LVL231:
 2255              	.L62:
 407:C:/Renesas/e2studio_2021_01_workspace_RZA2M_ANPR/ANPR_RZA2M_GR_MANGO/src/tensorflow_lite/src/tensorflow/lite/kernels/internal\types.h ****   TFLITE_DCHECK(i2 >= 0 && i2 < dims_data[2]);
 2256              		.loc 5 407 0
 2257 0970 FEFFFFEB 		bl	abort
 2258              	.LVL232:
 2259              	.L64:
 408:C:/Renesas/e2studio_2021_01_workspace_RZA2M_ANPR/ANPR_RZA2M_GR_MANGO/src/tensorflow_lite/src/tensorflow/lite/kernels/internal\types.h ****   TFLITE_DCHECK(i3 >= 0 && i3 < dims_data[3]);
 2260              		.loc 5 408 0
 2261 0974 FEFFFFEB 		bl	abort
 2262              	.LVL233:
 2263              	.LEHE14:
 2264              	.L139:
 2265              	.LEHB15:
 2266              	.LBE683:
 2267              	.LBE701:
 2268              	.LBE714:
 2269              	.LBE720:
 2270              	.LBE726:
 2271              	.LBE731:
 2272              	.LBE736:
 2273              	.LBE745:
 2274              	.LBE769:
 2275              	.LBB770:
 2276              	.LBB564:
 2277              	.LBB553:
 2278              	.LBB532:
 2279              	.LBB525:
 2280              	.LBB517:
 2281              	.LBB509:
 2282              	.LBB495:
 2283              	.LBB462:
 404:C:/Renesas/e2studio_2021_01_workspace_RZA2M_ANPR/ANPR_RZA2M_GR_MANGO/src/tensorflow_lite/src/tensorflow/lite/kernels/internal\types.h ****   const int* dims_data = reinterpret_cast<const int*>(shape.DimsDataUpTo5D());
 2284              		.loc 5 404 0
 2285 0978 FEFFFFEB 		bl	abort
 2286              	.LVL234:
 2287              	.L128:
 2288              	.LBE462:
 2289              	.LBE495:
 2290              	.LBB496:
 2291              	.LBB476:
 2292 097c FEFFFFEB 		bl	abort
 2293              	.LVL235:
 2294              	.LEHE15:
 2295              	.L60:
 2296              	.LEHB16:
 2297              	.LBE476:
 2298              	.LBE496:
 2299              	.LBE509:
 2300              	.LBE517:
 2301              	.LBE525:
 2302              	.LBE532:
 2303              	.LBE553:
 2304              	.LBE564:
 2305              	.LBE770:
 2306              	.LBB771:
 2307              	.LBB746:
 2308              	.LBB737:
 2309              	.LBB732:
 2310              	.LBB727:
 2311              	.LBB721:
 2312              	.LBB715:
 2313              	.LBB702:
 2314              	.LBB684:
 2315 0980 FEFFFFEB 		bl	abort
 2316              	.LVL236:
 2317              	.L71:
 2318              	.LBE684:
 2319              	.LBE702:
 2320              	.LBB703:
 2321              	.LBB671:
 2322 0984 FEFFFFEB 		bl	abort
 2323              	.LVL237:
 2324              	.LEHE16:
 2325              	.L422:
 2326              	.LEHB17:
 2327              	.LBE671:
 2328              	.LBE703:
 2329              	.LBE715:
 2330              	.LBE721:
 2331              	.LBE727:
 2332              	.LBE732:
 2333              	.LBE737:
 2334              	.LBE746:
 2335              	.LBE771:
 2336              	.LBB772:
 2337              	.LBB565:
  29:C:/Renesas/e2studio_2021_01_workspace_RZA2M_ANPR/ANPR_RZA2M_GR_MANGO/src/tensorflow_lite/src/tensorflow/lite/kernels/internal/reference\depth_to_space.h ****   TFLITE_DCHECK_LE(unextended_output_shape.DimensionsCount(), 4);
 2338              		.loc 4 29 0
 2339 0988 FEFFFFEB 		bl	abort
 2340              	.LVL238:
 2341              	.LEHE17:
 2342              	.L433:
 2343 098c 04209DE5 		ldr	r2, [sp, #4]
 2344 0990 18109DE5 		ldr	r1, [sp, #24]
 2345              	.L395:
 2346 0994 010052E1 		cmp	r2, r1
 2347 0998 540000AA 		bge	.L387
 2348              	.LBB554:
 2349              	.LBB533:
 2350              	.LBB526:
 2351              	.LBB518:
 2352              	.LBB510:
 2353              	.LBB497:
 2354              	.LBB477:
 408:C:/Renesas/e2studio_2021_01_workspace_RZA2M_ANPR/ANPR_RZA2M_GR_MANGO/src/tensorflow_lite/src/tensorflow/lite/kernels/internal\types.h ****   TFLITE_DCHECK(i3 >= 0 && i3 < dims_data[3]);
 2355              		.loc 5 408 0
 2356 099c 060054E1 		cmp	r4, r6
 2357 09a0 E9FFFFAA 		bge	.L132
 409:C:/Renesas/e2studio_2021_01_workspace_RZA2M_ANPR/ANPR_RZA2M_GR_MANGO/src/tensorflow_lite/src/tensorflow/lite/kernels/internal\types.h ****   return ((i0 * dims_data[1] + i1) * dims_data[2] + i2) * dims_data[3] + i3;
 2358              		.loc 5 409 0
 2359 09a4 000053E3 		cmp	r3, #0
 2360 09a8 ECFFFFBA 		blt	.L137
 2361 09ac 070053E1 		cmp	r3, r7
 2362 09b0 EAFFFFAA 		bge	.L137
 2363              	.LVL239:
 2364              	.LBE477:
 2365              	.LBE497:
 2366              	.LBB498:
 2367              	.LBB463:
 404:C:/Renesas/e2studio_2021_01_workspace_RZA2M_ANPR/ANPR_RZA2M_GR_MANGO/src/tensorflow_lite/src/tensorflow/lite/kernels/internal\types.h ****   const int* dims_data = reinterpret_cast<const int*>(shape.DimsDataUpTo5D());
 2368              		.loc 5 404 0
 2369 09b4 040058E3 		cmp	r8, #4
 2370 09b8 EEFFFF1A 		bne	.L139
 2371              	.LEHB18:
 407:C:/Renesas/e2studio_2021_01_workspace_RZA2M_ANPR/ANPR_RZA2M_GR_MANGO/src/tensorflow_lite/src/tensorflow/lite/kernels/internal\types.h ****   TFLITE_DCHECK(i2 >= 0 && i2 < dims_data[2]);
 2372              		.loc 5 407 0
 2373 09bc FEFFFFEB 		bl	abort
 2374              	.LVL240:
 2375              	.LEHE18:
 2376              	.L440:
 2377 09c0 00209DE5 		ldr	r2, [sp]
 2378 09c4 20109DE5 		ldr	r1, [sp, #32]
 2379 09c8 010052E1 		cmp	r2, r1
 2380 09cc 18209DE5 		ldr	r2, [sp, #24]
 2381 09d0 04109DE5 		ldr	r1, [sp, #4]
 2382 09d4 0C0000AA 		bge	.L393
 2383 09d8 010052E1 		cmp	r2, r1
 2384 09dc 3A0000DA 		ble	.L382
 2385              	.LBE463:
 2386              	.LBE498:
 2387              	.LBE510:
 2388              	.LBE518:
 2389              	.LBE526:
 2390              	.LBE533:
 2391              	.LBE554:
 2392              	.LBE565:
 2393              	.LBE772:
 2394              	.LBB773:
 2395              	.LBB747:
 2396              	.LBB738:
 2397              	.LBB733:
 2398              	.LBB728:
 2399              	.LBB722:
 2400              	.LBB716:
 2401              	.LBB704:
 2402              	.LBB685:
 408:C:/Renesas/e2studio_2021_01_workspace_RZA2M_ANPR/ANPR_RZA2M_GR_MANGO/src/tensorflow_lite/src/tensorflow/lite/kernels/internal\types.h ****   TFLITE_DCHECK(i3 >= 0 && i3 < dims_data[3]);
 2403              		.loc 5 408 0
 2404 09e0 040056E1 		cmp	r6, r4
 2405 09e4 E2FFFFDA 		ble	.L64
 409:C:/Renesas/e2studio_2021_01_workspace_RZA2M_ANPR/ANPR_RZA2M_GR_MANGO/src/tensorflow_lite/src/tensorflow/lite/kernels/internal\types.h ****   return ((i0 * dims_data[1] + i1) * dims_data[2] + i2) * dims_data[3] + i3;
 2406              		.loc 5 409 0
 2407 09e8 000053E3 		cmp	r3, #0
 2408 09ec D7FFFFBA 		blt	.L69
 2409 09f0 030057E1 		cmp	r7, r3
 2410 09f4 D5FFFFDA 		ble	.L69
 2411              	.LVL241:
 2412              	.LBE685:
 2413              	.LBE704:
 2414              	.LBB705:
 2415              	.LBB672:
 404:C:/Renesas/e2studio_2021_01_workspace_RZA2M_ANPR/ANPR_RZA2M_GR_MANGO/src/tensorflow_lite/src/tensorflow/lite/kernels/internal\types.h ****   const int* dims_data = reinterpret_cast<const int*>(shape.DimsDataUpTo5D());
 2416              		.loc 5 404 0
 2417 09f8 040058E3 		cmp	r8, #4
 2418 09fc E0FFFF1A 		bne	.L71
 2419              	.LEHB19:
 408:C:/Renesas/e2studio_2021_01_workspace_RZA2M_ANPR/ANPR_RZA2M_GR_MANGO/src/tensorflow_lite/src/tensorflow/lite/kernels/internal\types.h ****   TFLITE_DCHECK(i3 >= 0 && i3 < dims_data[3]);
 2420              		.loc 5 408 0
 2421 0a00 FEFFFFEB 		bl	abort
 2422              	.LVL242:
 2423              	.L441:
 2424 0a04 18209DE5 		ldr	r2, [sp, #24]
 2425 0a08 04109DE5 		ldr	r1, [sp, #4]
 2426              	.L393:
 2427 0a0c 010052E1 		cmp	r2, r1
 2428 0a10 2D0000DA 		ble	.L382
 2429              	.LBE672:
 2430              	.LBE705:
 2431              	.LBB706:
 2432              	.LBB686:
 2433 0a14 040056E1 		cmp	r6, r4
 2434 0a18 D5FFFFDA 		ble	.L64
 409:C:/Renesas/e2studio_2021_01_workspace_RZA2M_ANPR/ANPR_RZA2M_GR_MANGO/src/tensorflow_lite/src/tensorflow/lite/kernels/internal\types.h ****   return ((i0 * dims_data[1] + i1) * dims_data[2] + i2) * dims_data[3] + i3;
 2435              		.loc 5 409 0
 2436 0a1c 000053E3 		cmp	r3, #0
 2437 0a20 CAFFFFBA 		blt	.L69
 2438 0a24 030057E1 		cmp	r7, r3
 2439 0a28 C8FFFFDA 		ble	.L69
 2440              	.LVL243:
 2441              	.LBE686:
 2442              	.LBE706:
 2443              	.LBB707:
 2444              	.LBB673:
 404:C:/Renesas/e2studio_2021_01_workspace_RZA2M_ANPR/ANPR_RZA2M_GR_MANGO/src/tensorflow_lite/src/tensorflow/lite/kernels/internal\types.h ****   const int* dims_data = reinterpret_cast<const int*>(shape.DimsDataUpTo5D());
 2445              		.loc 5 404 0
 2446 0a2c 040058E3 		cmp	r8, #4
 2447 0a30 D3FFFF1A 		bne	.L71
 407:C:/Renesas/e2studio_2021_01_workspace_RZA2M_ANPR/ANPR_RZA2M_GR_MANGO/src/tensorflow_lite/src/tensorflow/lite/kernels/internal\types.h ****   TFLITE_DCHECK(i2 >= 0 && i2 < dims_data[2]);
 2448              		.loc 5 407 0
 2449 0a34 FEFFFFEB 		bl	abort
 2450              	.LVL244:
 2451              	.LEHE19:
 2452              	.L435:
 2453              	.LEHB20:
 2454              	.LBE673:
 2455              	.LBE707:
 2456              	.LBE716:
 2457              	.LBE722:
 2458              	.LBE728:
 2459              	.LBE733:
 2460              	.LBE738:
 2461              	.LBB739:
 2462              	.LBB627:
 215:C:/Renesas/e2studio_2021_01_workspace_RZA2M_ANPR/ANPR_RZA2M_GR_MANGO/src/tensorflow_lite/src/tensorflow/lite/kernels/internal\types.h ****     return size_ > kMaxSmallSize ? dims_pointer_[i] : dims_[i];
 2463              		.loc 5 215 0
 2464 0a38 FEFFFFEB 		bl	abort
 2465              	.LVL245:
 2466              	.LEHE20:
 2467              	.L436:
 2468              	.LEHB21:
 2469              	.LBE627:
 2470              	.LBE739:
 2471              	.LBB740:
 2472              	.LBB634:
 2473 0a3c FEFFFFEB 		bl	abort
 2474              	.LVL246:
 2475              	.LEHE21:
 2476              	.L438:
 2477              	.LEHB22:
 2478              	.LBE634:
 2479              	.LBE740:
  49:C:/Renesas/e2studio_2021_01_workspace_RZA2M_ANPR/ANPR_RZA2M_GR_MANGO/src/tensorflow_lite/src/tensorflow/lite/kernels/internal/reference\depth_to_space.h ****   TFLITE_DCHECK_EQ(input_depth, output_depth * block_size * block_size);
 2480              		.loc 4 49 0
 2481 0a40 FEFFFFEB 		bl	abort
 2482              	.LVL247:
 2483              	.LEHE22:
 2484              	.L426:
 2485              	.LEHB23:
 2486              	.LBE747:
 2487              	.LBE773:
 2488              	.LBB774:
 2489              	.LBB566:
 2490              	.LBB555:
 2491              	.LBB410:
 215:C:/Renesas/e2studio_2021_01_workspace_RZA2M_ANPR/ANPR_RZA2M_GR_MANGO/src/tensorflow_lite/src/tensorflow/lite/kernels/internal\types.h ****     return size_ > kMaxSmallSize ? dims_pointer_[i] : dims_[i];
 2492              		.loc 5 215 0
 2493 0a44 FEFFFFEB 		bl	abort
 2494              	.LVL248:
 2495              	.LEHE23:
 2496              	.L437:
 2497              	.LEHB24:
 2498              	.LBE410:
 2499              	.LBE555:
 2500              	.LBE566:
 2501              	.LBE774:
 2502              	.LBB775:
 2503              	.LBB748:
  48:C:/Renesas/e2studio_2021_01_workspace_RZA2M_ANPR/ANPR_RZA2M_GR_MANGO/src/tensorflow_lite/src/tensorflow/lite/kernels/internal/reference\depth_to_space.h ****   TFLITE_DCHECK_EQ(input_height * block_size, output_height);
 2504              		.loc 4 48 0
 2505 0a48 FEFFFFEB 		bl	abort
 2506              	.LVL249:
 2507              	.LEHE24:
 2508              	.L182:
 2509              	.L416:
 2510 0a4c 98809DE5 		ldr	r8, [sp, #152]
 2511 0a50 B5FFFFEA 		b	.L156
 2512              	.LVL250:
 2513              	.L185:
 2514 0a54 FCFFFFEA 		b	.L416
 2515              	.LVL251:
 2516              	.L423:
 2517              	.LEHB25:
 2518              	.LBE748:
 2519              	.LBE775:
 2520              	.LBB776:
 2521              	.LBB567:
  30:C:/Renesas/e2studio_2021_01_workspace_RZA2M_ANPR/ANPR_RZA2M_GR_MANGO/src/tensorflow_lite/src/tensorflow/lite/kernels/internal/reference\depth_to_space.h ****   const RuntimeShape input_shape =
 2522              		.loc 4 30 0
 2523 0a58 FEFFFFEB 		bl	abort
 2524              	.LVL252:
 2525              	.LEHE25:
 2526              	.L424:
 2527              	.LEHB26:
 2528              	.LBE567:
 2529              	.LBE776:
 2530              	.LBB777:
 2531              	.LBB749:
  29:C:/Renesas/e2studio_2021_01_workspace_RZA2M_ANPR/ANPR_RZA2M_GR_MANGO/src/tensorflow_lite/src/tensorflow/lite/kernels/internal/reference\depth_to_space.h ****   TFLITE_DCHECK_LE(unextended_output_shape.DimensionsCount(), 4);
 2532              		.loc 4 29 0
 2533 0a5c FEFFFFEB 		bl	abort
 2534              	.LVL253:
 2535              	.L425:
  30:C:/Renesas/e2studio_2021_01_workspace_RZA2M_ANPR/ANPR_RZA2M_GR_MANGO/src/tensorflow_lite/src/tensorflow/lite/kernels/internal/reference\depth_to_space.h ****   const RuntimeShape input_shape =
 2536              		.loc 4 30 0
 2537 0a60 FEFFFFEB 		bl	abort
 2538              	.LVL254:
 2539              	.LEHE26:
 2540              	.L432:
 2541 0a64 00209DE5 		ldr	r2, [sp]
 2542 0a68 24109DE5 		ldr	r1, [sp, #36]
 2543 0a6c 010052E1 		cmp	r2, r1
 2544 0a70 04209DE5 		ldr	r2, [sp, #4]
 2545 0a74 18109DE5 		ldr	r1, [sp, #24]
 2546 0a78 C5FFFFAA 		bge	.L395
 2547 0a7c 010052E1 		cmp	r2, r1
 2548 0a80 1A0000AA 		bge	.L387
 2549              	.LBE749:
 2550              	.LBE777:
 2551              	.LBB778:
 2552              	.LBB568:
 2553              	.LBB556:
 2554              	.LBB534:
 2555              	.LBB527:
 2556              	.LBB519:
 2557              	.LBB511:
 2558              	.LBB499:
 2559              	.LBB478:
 408:C:/Renesas/e2studio_2021_01_workspace_RZA2M_ANPR/ANPR_RZA2M_GR_MANGO/src/tensorflow_lite/src/tensorflow/lite/kernels/internal\types.h ****   TFLITE_DCHECK(i3 >= 0 && i3 < dims_data[3]);
 2560              		.loc 5 408 0
 2561 0a84 060054E1 		cmp	r4, r6
 2562 0a88 AFFFFFAA 		bge	.L132
 409:C:/Renesas/e2studio_2021_01_workspace_RZA2M_ANPR/ANPR_RZA2M_GR_MANGO/src/tensorflow_lite/src/tensorflow/lite/kernels/internal\types.h ****   return ((i0 * dims_data[1] + i1) * dims_data[2] + i2) * dims_data[3] + i3;
 2563              		.loc 5 409 0
 2564 0a8c 000053E3 		cmp	r3, #0
 2565 0a90 B2FFFFBA 		blt	.L137
 2566 0a94 070053E1 		cmp	r3, r7
 2567 0a98 B0FFFFAA 		bge	.L137
 2568              	.LVL255:
 2569              	.LBE478:
 2570              	.LBE499:
 2571              	.LBB500:
 2572              	.LBB464:
 404:C:/Renesas/e2studio_2021_01_workspace_RZA2M_ANPR/ANPR_RZA2M_GR_MANGO/src/tensorflow_lite/src/tensorflow/lite/kernels/internal\types.h ****   const int* dims_data = reinterpret_cast<const int*>(shape.DimsDataUpTo5D());
 2573              		.loc 5 404 0
 2574 0a9c 040058E3 		cmp	r8, #4
 2575 0aa0 B4FFFF1A 		bne	.L139
 2576              	.LEHB27:
 408:C:/Renesas/e2studio_2021_01_workspace_RZA2M_ANPR/ANPR_RZA2M_GR_MANGO/src/tensorflow_lite/src/tensorflow/lite/kernels/internal\types.h ****   TFLITE_DCHECK(i3 >= 0 && i3 < dims_data[3]);
 2577              		.loc 5 408 0
 2578 0aa4 FEFFFFEB 		bl	abort
 2579              	.LVL256:
 2580              	.LEHE27:
 2581              	.L49:
 2582              	.LEHB28:
 2583              	.LBE464:
 2584              	.LBE500:
 2585              	.LBE511:
 2586              	.LBE519:
 2587              	.LBE527:
 2588              	.LBE534:
 2589              	.LBE556:
 2590              	.LBE568:
 2591              	.LBE778:
 2592              	.LBB779:
 2593              	.LBB750:
  51:C:/Renesas/e2studio_2021_01_workspace_RZA2M_ANPR/ANPR_RZA2M_GR_MANGO/src/tensorflow_lite/src/tensorflow/lite/kernels/internal/reference\depth_to_space.h **** 
 2594              		.loc 4 51 0
 2595 0aa8 FEFFFFEB 		bl	abort
 2596              	.LVL257:
 2597              	.LEHE28:
 2598              	.L175:
 2599 0aac 92FFFFEA 		b	.L167
 2600              	.LVL258:
 2601              	.L117:
 2602              	.LEHB29:
 2603              	.LBE750:
 2604              	.LBE779:
 2605              	.LBB780:
 2606              	.LBB569:
 2607 0ab0 FEFFFFEB 		bl	abort
 2608              	.LVL259:
 2609              	.L429:
  48:C:/Renesas/e2studio_2021_01_workspace_RZA2M_ANPR/ANPR_RZA2M_GR_MANGO/src/tensorflow_lite/src/tensorflow/lite/kernels/internal/reference\depth_to_space.h ****   TFLITE_DCHECK_EQ(input_height * block_size, output_height);
 2610              		.loc 4 48 0
 2611 0ab4 FEFFFFEB 		bl	abort
 2612              	.LVL260:
 2613              	.LEHE29:
 2614              	.L427:
 2615              	.LEHB30:
 2616              	.LBB557:
 2617              	.LBB418:
 215:C:/Renesas/e2studio_2021_01_workspace_RZA2M_ANPR/ANPR_RZA2M_GR_MANGO/src/tensorflow_lite/src/tensorflow/lite/kernels/internal\types.h ****     return size_ > kMaxSmallSize ? dims_pointer_[i] : dims_[i];
 2618              		.loc 5 215 0
 2619 0ab8 FEFFFFEB 		bl	abort
 2620              	.LVL261:
 2621              	.LEHE30:
 2622              	.L430:
 2623              	.LEHB31:
 2624              	.LBE418:
 2625              	.LBE557:
  49:C:/Renesas/e2studio_2021_01_workspace_RZA2M_ANPR/ANPR_RZA2M_GR_MANGO/src/tensorflow_lite/src/tensorflow/lite/kernels/internal/reference\depth_to_space.h ****   TFLITE_DCHECK_EQ(input_depth, output_depth * block_size * block_size);
 2626              		.loc 4 49 0
 2627 0abc FEFFFFEB 		bl	abort
 2628              	.LVL262:
 2629              	.L431:
  50:C:/Renesas/e2studio_2021_01_workspace_RZA2M_ANPR/ANPR_RZA2M_GR_MANGO/src/tensorflow_lite/src/tensorflow/lite/kernels/internal/reference\depth_to_space.h ****   TFLITE_DCHECK_EQ(input_batch, output_batch);
 2630              		.loc 4 50 0
 2631 0ac0 FEFFFFEB 		bl	abort
 2632              	.LVL263:
 2633              	.LEHE31:
 2634              	.L420:
 2635              	.LEHB32:
 2636              	.LBE569:
 2637              	.LBE780:
 2638              	.LBB781:
 2639              	.LBB345:
 2640              	.LBB342:
  34:C:/Renesas/e2studio_2021_01_workspace_RZA2M_ANPR/ANPR_RZA2M_GR_MANGO/src/tensorflow_lite/src/tensorflow/lite/micro/kernels\kernel_util.h ****   TFLITE_DCHECK(node != nullptr);
 2641              		.loc 3 34 0
 2642 0ac4 FEFFFFEB 		bl	abort
 2643              	.LVL264:
 2644              	.LEHE32:
 2645              	.L177:
 2646 0ac8 8BFFFFEA 		b	.L167
 2647              	.LVL265:
 2648              	.L382:
 2649              	.LBE342:
 2650              	.LBE345:
 2651              	.LBE781:
 2652              	.LBB782:
 2653              	.LBB751:
 2654              	.LBB741:
 2655              	.LBB734:
 2656              	.LBB729:
 2657              	.LBB723:
 2658              	.LBB717:
 2659              	.LBB708:
 2660              	.LBB687:
 408:C:/Renesas/e2studio_2021_01_workspace_RZA2M_ANPR/ANPR_RZA2M_GR_MANGO/src/tensorflow_lite/src/tensorflow/lite/kernels/internal\types.h ****   TFLITE_DCHECK(i3 >= 0 && i3 < dims_data[3]);
 2661              		.loc 5 408 0
 2662 0acc 040056E1 		cmp	r6, r4
 2663 0ad0 A7FFFFDA 		ble	.L64
 409:C:/Renesas/e2studio_2021_01_workspace_RZA2M_ANPR/ANPR_RZA2M_GR_MANGO/src/tensorflow_lite/src/tensorflow/lite/kernels/internal\types.h ****   return ((i0 * dims_data[1] + i1) * dims_data[2] + i2) * dims_data[3] + i3;
 2664              		.loc 5 409 0
 2665 0ad4 000053E3 		cmp	r3, #0
 2666 0ad8 9CFFFFBA 		blt	.L69
 2667 0adc 030057E1 		cmp	r7, r3
 2668 0ae0 9AFFFFDA 		ble	.L69
 2669              	.LVL266:
 2670              	.LBE687:
 2671              	.LBE708:
 2672              	.LBB709:
 2673              	.LBB674:
 404:C:/Renesas/e2studio_2021_01_workspace_RZA2M_ANPR/ANPR_RZA2M_GR_MANGO/src/tensorflow_lite/src/tensorflow/lite/kernels/internal\types.h ****   const int* dims_data = reinterpret_cast<const int*>(shape.DimsDataUpTo5D());
 2674              		.loc 5 404 0
 2675 0ae4 040058E3 		cmp	r8, #4
 2676 0ae8 A5FFFF1A 		bne	.L71
 2677              	.LEHB33:
 406:C:/Renesas/e2studio_2021_01_workspace_RZA2M_ANPR/ANPR_RZA2M_GR_MANGO/src/tensorflow_lite/src/tensorflow/lite/kernels/internal\types.h ****   TFLITE_DCHECK(i1 >= 0 && i1 < dims_data[1]);
 2678              		.loc 5 406 0
 2679 0aec FEFFFFEB 		bl	abort
 2680              	.LVL267:
 2681              	.LEHE33:
 2682              	.L387:
 2683              	.LBE674:
 2684              	.LBE709:
 2685              	.LBE717:
 2686              	.LBE723:
 2687              	.LBE729:
 2688              	.LBE734:
 2689              	.LBE741:
 2690              	.LBE751:
 2691              	.LBE782:
 2692              	.LBB783:
 2693              	.LBB570:
 2694              	.LBB558:
 2695              	.LBB535:
 2696              	.LBB528:
 2697              	.LBB520:
 2698              	.LBB512:
 2699              	.LBB501:
 2700              	.LBB479:
 408:C:/Renesas/e2studio_2021_01_workspace_RZA2M_ANPR/ANPR_RZA2M_GR_MANGO/src/tensorflow_lite/src/tensorflow/lite/kernels/internal\types.h ****   TFLITE_DCHECK(i3 >= 0 && i3 < dims_data[3]);
 2701              		.loc 5 408 0
 2702 0af0 060054E1 		cmp	r4, r6
 2703 0af4 94FFFFAA 		bge	.L132
 409:C:/Renesas/e2studio_2021_01_workspace_RZA2M_ANPR/ANPR_RZA2M_GR_MANGO/src/tensorflow_lite/src/tensorflow/lite/kernels/internal\types.h ****   return ((i0 * dims_data[1] + i1) * dims_data[2] + i2) * dims_data[3] + i3;
 2704              		.loc 5 409 0
 2705 0af8 000053E3 		cmp	r3, #0
 2706 0afc 97FFFFBA 		blt	.L137
 2707 0b00 070053E1 		cmp	r3, r7
 2708 0b04 95FFFFAA 		bge	.L137
 2709              	.LVL268:
 2710              	.LBE479:
 2711              	.LBE501:
 2712              	.LBB502:
 2713              	.LBB465:
 404:C:/Renesas/e2studio_2021_01_workspace_RZA2M_ANPR/ANPR_RZA2M_GR_MANGO/src/tensorflow_lite/src/tensorflow/lite/kernels/internal\types.h ****   const int* dims_data = reinterpret_cast<const int*>(shape.DimsDataUpTo5D());
 2714              		.loc 5 404 0
 2715 0b08 040058E3 		cmp	r8, #4
 2716 0b0c 99FFFF1A 		bne	.L139
 2717              	.LEHB34:
 406:C:/Renesas/e2studio_2021_01_workspace_RZA2M_ANPR/ANPR_RZA2M_GR_MANGO/src/tensorflow_lite/src/tensorflow/lite/kernels/internal\types.h ****   TFLITE_DCHECK(i1 >= 0 && i1 < dims_data[1]);
 2718              		.loc 5 406 0
 2719 0b10 FEFFFFEB 		bl	abort
 2720              	.LVL269:
 2721              	.LEHE34:
 2722              	.L439:
 2723              	.LEHB35:
 2724              	.LBE465:
 2725              	.LBE502:
 2726              	.LBE512:
 2727              	.LBE520:
 2728              	.LBE528:
 2729              	.LBE535:
 2730              	.LBE558:
 2731              	.LBE570:
 2732              	.LBE783:
 2733              	.LBB784:
 2734              	.LBB752:
  50:C:/Renesas/e2studio_2021_01_workspace_RZA2M_ANPR/ANPR_RZA2M_GR_MANGO/src/tensorflow_lite/src/tensorflow/lite/kernels/internal/reference\depth_to_space.h ****   TFLITE_DCHECK_EQ(input_batch, output_batch);
 2735              		.loc 4 50 0
 2736 0b14 FEFFFFEB 		bl	abort
 2737              	.LVL270:
 2738              	.LEHE35:
 2739              	.LBE752:
 2740              	.LBE784:
 2741              		.cfi_endproc
 2742              	.LFE915:
 2743              		.global	__gxx_personality_v0
 2744              		.personality	__gxx_personality_v0
 2745              		.handlerdata
 2746              	.LLSDA915:
 2747 0008 FF       		.byte	0xff
 2748 0009 FF       		.byte	0xff
 2749 000a 01       		.byte	0x1
 2750 000b D201     		.uleb128 .LLSDACSE915-.LLSDACSB915
 2751              	.LLSDACSB915:
 2752 000d 24       		.uleb128 .LEHB0-.LFB915
 2753 000e 44       		.uleb128 .LEHE0-.LEHB0
 2754 000f 00       		.uleb128 0
 2755 0010 00       		.uleb128 0
 2756 0011 78       		.uleb128 .LEHB1-.LFB915
 2757 0012 04       		.uleb128 .LEHE1-.LEHB1
 2758 0013 C815     		.uleb128 .L177-.LFB915
 2759 0015 00       		.uleb128 0
 2760 0016 E001     		.uleb128 .LEHB2-.LFB915
 2761 0018 04       		.uleb128 .LEHE2-.LEHB2
 2762 0019 9C12     		.uleb128 .L178-.LFB915
 2763 001b 00       		.uleb128 0
 2764 001c EC01     		.uleb128 .LEHB3-.LFB915
 2765 001e 30       		.uleb128 .LEHE3-.LEHB3
 2766 001f 00       		.uleb128 0
 2767 0020 00       		.uleb128 0
 2768 0021 AC02     		.uleb128 .LEHB4-.LFB915
 2769 0023 04       		.uleb128 .LEHE4-.LEHB4
 2770 0024 AC15     		.uleb128 .L175-.LFB915
 2771 0026 00       		.uleb128 0
 2772 0027 9403     		.uleb128 .LEHB5-.LFB915
 2773 0029 04       		.uleb128 .LEHE5-.LEHB5
 2774 002a A012     		.uleb128 .L176-.LFB915
 2775 002c 00       		.uleb128 0
 2776 002d F003     		.uleb128 .LEHB6-.LFB915
 2777 002f 04       		.uleb128 .LEHE6-.LEHB6
 2778 0030 A412     		.uleb128 .L184-.LFB915
 2779 0032 00       		.uleb128 0
 2780 0033 CC04     		.uleb128 .LEHB7-.LFB915
 2781 0035 04       		.uleb128 .LEHE7-.LEHB7
 2782 0036 BC11     		.uleb128 .L181-.LFB915
 2783 0038 00       		.uleb128 0
 2784 0039 9812     		.uleb128 .LEHB8-.LFB915
 2785 003b 04       		.uleb128 .LEHE8-.LEHB8
 2786 003c 00       		.uleb128 0
 2787 003d 00       		.uleb128 0
 2788 003e A812     		.uleb128 .LEHB9-.LFB915
 2789 0040 28       		.uleb128 .LEHE9-.LEHB9
 2790 0041 AC12     		.uleb128 .L180-.LFB915
 2791 0043 00       		.uleb128 0
 2792 0044 D012     		.uleb128 .LEHB10-.LFB915
 2793 0046 04       		.uleb128 .LEHE10-.LEHB10
 2794 0047 D412     		.uleb128 .L179-.LFB915
 2795 0049 00       		.uleb128 0
 2796 004a D812     		.uleb128 .LEHB11-.LFB915
 2797 004c 04       		.uleb128 .LEHE11-.LEHB11
 2798 004d DC12     		.uleb128 .L183-.LFB915
 2799 004f 00       		.uleb128 0
 2800 0050 E012     		.uleb128 .LEHB12-.LFB915
 2801 0052 04       		.uleb128 .LEHE12-.LEHB12
 2802 0053 AC12     		.uleb128 .L180-.LFB915
 2803 0055 00       		.uleb128 0
 2804 0056 E412     		.uleb128 .LEHB13-.LFB915
 2805 0058 04       		.uleb128 .LEHE13-.LEHB13
 2806 0059 E812     		.uleb128 .L186-.LFB915
 2807 005b 00       		.uleb128 0
 2808 005c EC12     		.uleb128 .LEHB14-.LFB915
 2809 005e 0C       		.uleb128 .LEHE14-.LEHB14
 2810 005f D412     		.uleb128 .L179-.LFB915
 2811 0061 00       		.uleb128 0
 2812 0062 F812     		.uleb128 .LEHB15-.LFB915
 2813 0064 08       		.uleb128 .LEHE15-.LEHB15
 2814 0065 AC12     		.uleb128 .L180-.LFB915
 2815 0067 00       		.uleb128 0
 2816 0068 8013     		.uleb128 .LEHB16-.LFB915
 2817 006a 08       		.uleb128 .LEHE16-.LEHB16
 2818 006b D412     		.uleb128 .L179-.LFB915
 2819 006d 00       		.uleb128 0
 2820 006e 8813     		.uleb128 .LEHB17-.LFB915
 2821 0070 04       		.uleb128 .LEHE17-.LEHB17
 2822 0071 9C12     		.uleb128 .L178-.LFB915
 2823 0073 00       		.uleb128 0
 2824 0074 BC13     		.uleb128 .LEHB18-.LFB915
 2825 0076 04       		.uleb128 .LEHE18-.LEHB18
 2826 0077 E812     		.uleb128 .L186-.LFB915
 2827 0079 00       		.uleb128 0
 2828 007a 8014     		.uleb128 .LEHB19-.LFB915
 2829 007c 38       		.uleb128 .LEHE19-.LEHB19
 2830 007d DC12     		.uleb128 .L183-.LFB915
 2831 007f 00       		.uleb128 0
 2832 0080 B814     		.uleb128 .LEHB20-.LFB915
 2833 0082 04       		.uleb128 .LEHE20-.LEHB20
 2834 0083 CC14     		.uleb128 .L182-.LFB915
 2835 0085 00       		.uleb128 0
 2836 0086 BC14     		.uleb128 .LEHB21-.LFB915
 2837 0088 04       		.uleb128 .LEHE21-.LEHB21
 2838 0089 DC12     		.uleb128 .L183-.LFB915
 2839 008b 00       		.uleb128 0
 2840 008c C014     		.uleb128 .LEHB22-.LFB915
 2841 008e 04       		.uleb128 .LEHE22-.LEHB22
 2842 008f D412     		.uleb128 .L179-.LFB915
 2843 0091 00       		.uleb128 0
 2844 0092 C414     		.uleb128 .LEHB23-.LFB915
 2845 0094 04       		.uleb128 .LEHE23-.LEHB23
 2846 0095 D414     		.uleb128 .L185-.LFB915
 2847 0097 00       		.uleb128 0
 2848 0098 C814     		.uleb128 .LEHB24-.LFB915
 2849 009a 04       		.uleb128 .LEHE24-.LEHB24
 2850 009b D412     		.uleb128 .L179-.LFB915
 2851 009d 00       		.uleb128 0
 2852 009e D814     		.uleb128 .LEHB25-.LFB915
 2853 00a0 04       		.uleb128 .LEHE25-.LEHB25
 2854 00a1 9C12     		.uleb128 .L178-.LFB915
 2855 00a3 00       		.uleb128 0
 2856 00a4 DC14     		.uleb128 .LEHB26-.LFB915
 2857 00a6 08       		.uleb128 .LEHE26-.LEHB26
 2858 00a7 A012     		.uleb128 .L176-.LFB915
 2859 00a9 00       		.uleb128 0
 2860 00aa A415     		.uleb128 .LEHB27-.LFB915
 2861 00ac 04       		.uleb128 .LEHE27-.LEHB27
 2862 00ad E812     		.uleb128 .L186-.LFB915
 2863 00af 00       		.uleb128 0
 2864 00b0 A815     		.uleb128 .LEHB28-.LFB915
 2865 00b2 04       		.uleb128 .LEHE28-.LEHB28
 2866 00b3 D412     		.uleb128 .L179-.LFB915
 2867 00b5 00       		.uleb128 0
 2868 00b6 B015     		.uleb128 .LEHB29-.LFB915
 2869 00b8 08       		.uleb128 .LEHE29-.LEHB29
 2870 00b9 AC12     		.uleb128 .L180-.LFB915
 2871 00bb 00       		.uleb128 0
 2872 00bc B815     		.uleb128 .LEHB30-.LFB915
 2873 00be 04       		.uleb128 .LEHE30-.LEHB30
 2874 00bf E812     		.uleb128 .L186-.LFB915
 2875 00c1 00       		.uleb128 0
 2876 00c2 BC15     		.uleb128 .LEHB31-.LFB915
 2877 00c4 08       		.uleb128 .LEHE31-.LEHB31
 2878 00c5 AC12     		.uleb128 .L180-.LFB915
 2879 00c7 00       		.uleb128 0
 2880 00c8 C415     		.uleb128 .LEHB32-.LFB915
 2881 00ca 04       		.uleb128 .LEHE32-.LEHB32
 2882 00cb 00       		.uleb128 0
 2883 00cc 00       		.uleb128 0
 2884 00cd EC15     		.uleb128 .LEHB33-.LFB915
 2885 00cf 04       		.uleb128 .LEHE33-.LEHB33
 2886 00d0 DC12     		.uleb128 .L183-.LFB915
 2887 00d2 00       		.uleb128 0
 2888 00d3 9016     		.uleb128 .LEHB34-.LFB915
 2889 00d5 04       		.uleb128 .LEHE34-.LEHB34
 2890 00d6 E812     		.uleb128 .L186-.LFB915
 2891 00d8 00       		.uleb128 0
 2892 00d9 9416     		.uleb128 .LEHB35-.LFB915
 2893 00db 04       		.uleb128 .LEHE35-.LEHB35
 2894 00dc D412     		.uleb128 .L179-.LFB915
 2895 00de 00       		.uleb128 0
 2896              	.LLSDACSE915:
 2897              		.section	.text._ZN6tflite12_GLOBAL__N_14EvalEP13TfLiteContextP10TfLiteNode
 2898              		.fnend
 2900              		.section	.text._ZN6tflite23Register_DEPTH_TO_SPACEEv,"ax",%progbits
 2901              		.align	2
 2902              		.global	_ZN6tflite23Register_DEPTH_TO_SPACEEv
 2903              		.syntax unified
 2904              		.arm
 2905              		.fpu neon
 2907              	_ZN6tflite23Register_DEPTH_TO_SPACEEv:
 2908              		.fnstart
 2909              	.LFB916:
 129:../src/tensorflow_lite/src/tensorflow/lite/micro/kernels/depth_to_space.cpp **** 
 130:../src/tensorflow_lite/src/tensorflow/lite/micro/kernels/depth_to_space.cpp **** }  // namespace
 131:../src/tensorflow_lite/src/tensorflow/lite/micro/kernels/depth_to_space.cpp **** 
 132:../src/tensorflow_lite/src/tensorflow/lite/micro/kernels/depth_to_space.cpp **** TfLiteRegistration Register_DEPTH_TO_SPACE() {
 2910              		.loc 1 132 0
 2911              		.cfi_startproc
 2912              		@ args = 0, pretend = 0, frame = 0
 2913              		@ frame_needed = 0, uses_anonymous_args = 0
 2914              	.LVL271:
 133:../src/tensorflow_lite/src/tensorflow/lite/micro/kernels/depth_to_space.cpp ****   return {/*init=*/nullptr,
 134:../src/tensorflow_lite/src/tensorflow/lite/micro/kernels/depth_to_space.cpp ****           /*free=*/nullptr,
 135:../src/tensorflow_lite/src/tensorflow/lite/micro/kernels/depth_to_space.cpp ****           /*prepare=*/Prepare,
 136:../src/tensorflow_lite/src/tensorflow/lite/micro/kernels/depth_to_space.cpp ****           /*invoke=*/Eval,
 137:../src/tensorflow_lite/src/tensorflow/lite/micro/kernels/depth_to_space.cpp ****           /*profiling_string=*/nullptr,
 138:../src/tensorflow_lite/src/tensorflow/lite/micro/kernels/depth_to_space.cpp ****           /*builtin_code=*/0,
 139:../src/tensorflow_lite/src/tensorflow/lite/micro/kernels/depth_to_space.cpp ****           /*custom_name=*/nullptr,
 140:../src/tensorflow_lite/src/tensorflow/lite/micro/kernels/depth_to_space.cpp ****           /*version=*/0};
 2915              		.loc 1 140 0
 2916 0000 00C000E3 		movw	ip, #:lower16:.LANCHOR0
 132:../src/tensorflow_lite/src/tensorflow/lite/micro/kernels/depth_to_space.cpp ****   return {/*init=*/nullptr,
 2917              		.loc 1 132 0
 2918 0004 10402DE9 		push	{r4, lr}
 2919              		.cfi_def_cfa_offset 8
 2920              		.cfi_offset 4, -8
 2921              		.cfi_offset 14, -4
 2922              		.loc 1 140 0
 2923 0008 00C040E3 		movt	ip, #:upper16:.LANCHOR0
 132:../src/tensorflow_lite/src/tensorflow/lite/micro/kernels/depth_to_space.cpp ****   return {/*init=*/nullptr,
 2924              		.loc 1 132 0
 2925 000c 0040A0E1 		mov	r4, r0
 2926              		.loc 1 140 0
 2927 0010 00E0A0E1 		mov	lr, r0
 2928 0014 0F00BCE8 		ldmia	ip!, {r0, r1, r2, r3}
 2929              	.LVL272:
 2930 0018 0F00AEE8 		stmia	lr!, {r0, r1, r2, r3}
 2931 001c 0F009CE8 		ldm	ip, {r0, r1, r2, r3}
 2932 0020 0F008EE8 		stm	lr, {r0, r1, r2, r3}
 141:../src/tensorflow_lite/src/tensorflow/lite/micro/kernels/depth_to_space.cpp **** }
 2933              		.loc 1 141 0
 2934 0024 0400A0E1 		mov	r0, r4
 2935 0028 1080BDE8 		pop	{r4, pc}
 2936              		.cfi_endproc
 2937              	.LFE916:
 2938              		.cantunwind
 2939              		.fnend
 2941              		.section	.rodata
 2942              		.align	2
 2943              		.set	.LANCHOR0,. + 0
 2944              	.LC0:
 2945 0000 00000000 		.word	0
 2946 0004 00000000 		.word	0
 2947 0008 00000000 		.word	_ZN6tflite12_GLOBAL__N_17PrepareEP13TfLiteContextP10TfLiteNode
 2948 000c 00000000 		.word	_ZN6tflite12_GLOBAL__N_14EvalEP13TfLiteContextP10TfLiteNode
 2949 0010 00000000 		.word	0
 2950 0014 00000000 		.word	0
 2951 0018 00000000 		.word	0
 2952 001c 00000000 		.word	0
 2953              		.section	.rodata._ZN6tflite12_GLOBAL__N_14EvalEP13TfLiteContextP10TfLiteNode.str1.4,"aMS",%progbit
 2954              		.align	2
 2955              	.LC20:
 2956 0000 44455054 		.ascii	"DEPTH_TO_SPACE only supports FLOAT32 and INT8, got "
 2956      485F544F 
 2956      5F535041 
 2956      4345206F 
 2956      6E6C7920 
 2957 0033 25732E00 		.ascii	"%s.\000"
 2958              		.section	.rodata._ZN6tflite12_GLOBAL__N_17PrepareEP13TfLiteContextP10TfLiteNode.str1.4,"aMS",%prog
 2959              		.align	2
 2960              	.LC1:
 2961 0000 2E2E2F73 		.ascii	"../src/tensorflow_lite/src/tensorflow/lite/micro/ke"
 2961      72632F74 
 2961      656E736F 
 2961      72666C6F 
 2961      775F6C69 
 2962 0033 726E656C 		.ascii	"rnels/depth_to_space.cpp\000"
 2962      732F6465 
 2962      7074685F 
 2962      746F5F73 
 2962      70616365 
 2963              	.LC2:
 2964 004c 25733A25 		.ascii	"%s:%d %s != %s (%d != %d)\000"
 2964      64202573 
 2964      20213D20 
 2964      25732028 
 2964      25642021 
 2965 0066 0000     		.space	2
 2966              	.LC3:
 2967 0068 3100     		.ascii	"1\000"
 2968 006a 0000     		.space	2
 2969              	.LC4:
 2970 006c 4E756D49 		.ascii	"NumInputs(node)\000"
 2970      6E707574 
 2970      73286E6F 
 2970      64652900 
 2971              	.LC5:
 2972 007c 4E756D4F 		.ascii	"NumOutputs(node)\000"
 2972      75747075 
 2972      7473286E 
 2972      6F646529 
 2972      00
 2973 008d 000000   		.space	3
 2974              	.LC6:
 2975 0090 3400     		.ascii	"4\000"
 2976 0092 0000     		.space	2
 2977              	.LC7:
 2978 0094 4E756D44 		.ascii	"NumDimensions(input)\000"
 2978      696D656E 
 2978      73696F6E 
 2978      7328696E 
 2978      70757429 
 2979 00a9 000000   		.space	3
 2980              	.LC8:
 2981 00ac 25733A25 		.ascii	"%s:%d %s was not true.\000"
 2981      64202573 
 2981      20776173 
 2981      206E6F74 
 2981      20747275 
 2982 00c3 00       		.space	1
 2983              	.LC9:
 2984 00c4 64617461 		.ascii	"data_type == kTfLiteFloat32 || data_type == kTfLite"
 2984      5F747970 
 2984      65203D3D 
 2984      206B5466 
 2984      4C697465 
 2985 00f7 496E7438 		.ascii	"Int8\000"
 2985      00
 2986              	.LC10:
 2987 00fc 25733A25 		.ascii	"%s:%d %s != %s (%s != %s)\000"
 2987      64202573 
 2987      20213D20 
 2987      25732028 
 2987      25732021 
 2988 0116 0000     		.space	2
 2989              	.LC11:
 2990 0118 6F757470 		.ascii	"output->type\000"
 2990      75742D3E 
 2990      74797065 
 2990      00
 2991 0125 000000   		.space	3
 2992              	.LC12:
 2993 0128 696E7075 		.ascii	"input->type\000"
 2993      742D3E74 
 2993      79706500 
 2994              	.LC13:
 2995 0134 626C6F63 		.ascii	"block_size > 0\000"
 2995      6B5F7369 
 2995      7A65203E 
 2995      203000
 2996 0143 00       		.space	1
 2997              	.LC14:
 2998 0144 6F757470 		.ascii	"output_height / block_size\000"
 2998      75745F68 
 2998      65696768 
 2998      74202F20 
 2998      626C6F63 
 2999 015f 00       		.space	1
 3000              	.LC15:
 3001 0160 696E7075 		.ascii	"input_height\000"
 3001      745F6865 
 3001      69676874 
 3001      00
 3002 016d 000000   		.space	3
 3003              	.LC16:
 3004 0170 6F757470 		.ascii	"output_width / block_size\000"
 3004      75745F77 
 3004      69647468 
 3004      202F2062 
 3004      6C6F636B 
 3005 018a 0000     		.space	2
 3006              	.LC17:
 3007 018c 696E7075 		.ascii	"input_width\000"
 3007      745F7769 
 3007      64746800 
 3008              	.LC18:
 3009 0198 6F757470 		.ascii	"output_channels * block_size * block_size\000"
 3009      75745F63 
 3009      68616E6E 
 3009      656C7320 
 3009      2A20626C 
 3010 01c2 0000     		.space	2
 3011              	.LC19:
 3012 01c4 696E7075 		.ascii	"input_channels\000"
 3012      745F6368 
 3012      616E6E65 
 3012      6C7300
 3013              		.text
 3014              	.Letext0:
 3015              		.file 6 "c:\\program files (x86)\\gnu tools arm embedded\\6 2017-q2-update\\arm-none-eabi\\include
 3016              		.file 7 "c:\\program files (x86)\\gnu tools arm embedded\\6 2017-q2-update\\arm-none-eabi\\include
 3017              		.file 8 "c:\\program files (x86)\\gnu tools arm embedded\\6 2017-q2-update\\arm-none-eabi\\include
 3018              		.file 9 "c:\\program files (x86)\\gnu tools arm embedded\\6 2017-q2-update\\arm-none-eabi\\include
 3019              		.file 10 "c:\\program files (x86)\\gnu tools arm embedded\\6 2017-q2-update\\arm-none-eabi\\includ
 3020              		.file 11 "c:\\program files (x86)\\gnu tools arm embedded\\6 2017-q2-update\\arm-none-eabi\\includ
 3021              		.file 12 "c:\\program files (x86)\\gnu tools arm embedded\\6 2017-q2-update\\arm-none-eabi\\includ
 3022              		.file 13 "c:\\program files (x86)\\gnu tools arm embedded\\6 2017-q2-update\\arm-none-eabi\\includ
 3023              		.file 14 "c:\\program files (x86)\\gnu tools arm embedded\\6 2017-q2-update\\arm-none-eabi\\includ
 3024              		.file 15 "c:\\program files (x86)\\gnu tools arm embedded\\6 2017-q2-update\\arm-none-eabi\\includ
 3025              		.file 16 "c:\\program files (x86)\\gnu tools arm embedded\\6 2017-q2-update\\arm-none-eabi\\includ
 3026              		.file 17 "c:\\program files (x86)\\gnu tools arm embedded\\6 2017-q2-update\\arm-none-eabi\\includ
 3027              		.file 18 "c:\\program files (x86)\\gnu tools arm embedded\\6 2017-q2-update\\arm-none-eabi\\includ
 3028              		.file 19 "c:\\program files (x86)\\gnu tools arm embedded\\6 2017-q2-update\\arm-none-eabi\\includ
 3029              		.file 20 "c:\\program files (x86)\\gnu tools arm embedded\\6 2017-q2-update\\arm-none-eabi\\includ
 3030              		.file 21 "c:\\program files (x86)\\gnu tools arm embedded\\6 2017-q2-update\\lib\\gcc\\arm-none-ea
 3031              		.file 22 "c:\\program files (x86)\\gnu tools arm embedded\\6 2017-q2-update\\arm-none-eabi\\includ
 3032              		.file 23 "c:\\program files (x86)\\gnu tools arm embedded\\6 2017-q2-update\\arm-none-eabi\\includ
 3033              		.file 24 "c:\\program files (x86)\\gnu tools arm embedded\\6 2017-q2-update\\arm-none-eabi\\includ
 3034              		.file 25 "c:\\program files (x86)\\gnu tools arm embedded\\6 2017-q2-update\\arm-none-eabi\\includ
 3035              		.file 26 "c:\\program files (x86)\\gnu tools arm embedded\\6 2017-q2-update\\arm-none-eabi\\includ
 3036              		.file 27 "c:\\program files (x86)\\gnu tools arm embedded\\6 2017-q2-update\\arm-none-eabi\\includ
 3037              		.file 28 "c:\\program files (x86)\\gnu tools arm embedded\\6 2017-q2-update\\arm-none-eabi\\includ
 3038              		.file 29 "c:\\program files (x86)\\gnu tools arm embedded\\6 2017-q2-update\\arm-none-eabi\\includ
 3039              		.file 30 "c:\\program files (x86)\\gnu tools arm embedded\\6 2017-q2-update\\arm-none-eabi\\includ
 3040              		.file 31 "C:/Renesas/e2studio_2021_01_workspace_RZA2M_ANPR/ANPR_RZA2M_GR_MANGO/src/tensorflow_lite
 3041              		.file 32 "C:/Renesas/e2studio_2021_01_workspace_RZA2M_ANPR/ANPR_RZA2M_GR_MANGO/src/tensorflow_lite
 3042              		.file 33 "C:/Renesas/e2studio_2021_01_workspace_RZA2M_ANPR/ANPR_RZA2M_GR_MANGO/src/tensorflow_lite
 3043              		.file 34 "<built-in>"
DEFINED SYMBOLS
                            *ABS*:00000000 depth_to_space.cpp
C:\Users\a5050395\AppData\Local\Temp\ccdiWJWS.s:18     .text._ZN6tflite12_GLOBAL__N_17PrepareEP13TfLiteContextP10TfLiteNode:00000000 $a
C:\Users\a5050395\AppData\Local\Temp\ccdiWJWS.s:23     .text._ZN6tflite12_GLOBAL__N_17PrepareEP13TfLiteContextP10TfLiteNode:00000000 _ZN6tflite12_GLOBAL__N_17PrepareEP13TfLiteContextP10TfLiteNode
C:\Users\a5050395\AppData\Local\Temp\ccdiWJWS.s:2966   .rodata._ZN6tflite12_GLOBAL__N_17PrepareEP13TfLiteContextP10TfLiteNode.str1.4:00000068 .LC3
C:\Users\a5050395\AppData\Local\Temp\ccdiWJWS.s:2971   .rodata._ZN6tflite12_GLOBAL__N_17PrepareEP13TfLiteContextP10TfLiteNode.str1.4:0000007c .LC5
C:\Users\a5050395\AppData\Local\Temp\ccdiWJWS.s:2960   .rodata._ZN6tflite12_GLOBAL__N_17PrepareEP13TfLiteContextP10TfLiteNode.str1.4:00000000 .LC1
C:\Users\a5050395\AppData\Local\Temp\ccdiWJWS.s:2963   .rodata._ZN6tflite12_GLOBAL__N_17PrepareEP13TfLiteContextP10TfLiteNode.str1.4:0000004c .LC2
C:\Users\a5050395\AppData\Local\Temp\ccdiWJWS.s:3008   .rodata._ZN6tflite12_GLOBAL__N_17PrepareEP13TfLiteContextP10TfLiteNode.str1.4:00000198 .LC18
C:\Users\a5050395\AppData\Local\Temp\ccdiWJWS.s:3011   .rodata._ZN6tflite12_GLOBAL__N_17PrepareEP13TfLiteContextP10TfLiteNode.str1.4:000001c4 .LC19
C:\Users\a5050395\AppData\Local\Temp\ccdiWJWS.s:2969   .rodata._ZN6tflite12_GLOBAL__N_17PrepareEP13TfLiteContextP10TfLiteNode.str1.4:0000006c .LC4
C:\Users\a5050395\AppData\Local\Temp\ccdiWJWS.s:2974   .rodata._ZN6tflite12_GLOBAL__N_17PrepareEP13TfLiteContextP10TfLiteNode.str1.4:00000090 .LC6
C:\Users\a5050395\AppData\Local\Temp\ccdiWJWS.s:2977   .rodata._ZN6tflite12_GLOBAL__N_17PrepareEP13TfLiteContextP10TfLiteNode.str1.4:00000094 .LC7
C:\Users\a5050395\AppData\Local\Temp\ccdiWJWS.s:2989   .rodata._ZN6tflite12_GLOBAL__N_17PrepareEP13TfLiteContextP10TfLiteNode.str1.4:00000118 .LC11
C:\Users\a5050395\AppData\Local\Temp\ccdiWJWS.s:2992   .rodata._ZN6tflite12_GLOBAL__N_17PrepareEP13TfLiteContextP10TfLiteNode.str1.4:00000128 .LC12
C:\Users\a5050395\AppData\Local\Temp\ccdiWJWS.s:2986   .rodata._ZN6tflite12_GLOBAL__N_17PrepareEP13TfLiteContextP10TfLiteNode.str1.4:000000fc .LC10
C:\Users\a5050395\AppData\Local\Temp\ccdiWJWS.s:2983   .rodata._ZN6tflite12_GLOBAL__N_17PrepareEP13TfLiteContextP10TfLiteNode.str1.4:000000c4 .LC9
C:\Users\a5050395\AppData\Local\Temp\ccdiWJWS.s:2980   .rodata._ZN6tflite12_GLOBAL__N_17PrepareEP13TfLiteContextP10TfLiteNode.str1.4:000000ac .LC8
C:\Users\a5050395\AppData\Local\Temp\ccdiWJWS.s:2997   .rodata._ZN6tflite12_GLOBAL__N_17PrepareEP13TfLiteContextP10TfLiteNode.str1.4:00000144 .LC14
C:\Users\a5050395\AppData\Local\Temp\ccdiWJWS.s:3000   .rodata._ZN6tflite12_GLOBAL__N_17PrepareEP13TfLiteContextP10TfLiteNode.str1.4:00000160 .LC15
C:\Users\a5050395\AppData\Local\Temp\ccdiWJWS.s:3003   .rodata._ZN6tflite12_GLOBAL__N_17PrepareEP13TfLiteContextP10TfLiteNode.str1.4:00000170 .LC16
C:\Users\a5050395\AppData\Local\Temp\ccdiWJWS.s:3006   .rodata._ZN6tflite12_GLOBAL__N_17PrepareEP13TfLiteContextP10TfLiteNode.str1.4:0000018c .LC17
C:\Users\a5050395\AppData\Local\Temp\ccdiWJWS.s:2994   .rodata._ZN6tflite12_GLOBAL__N_17PrepareEP13TfLiteContextP10TfLiteNode.str1.4:00000134 .LC13
.ARM.exidx.text._ZN6tflite12_GLOBAL__N_17PrepareEP13TfLiteContextP10TfLiteNode:00000000 $d
C:\Users\a5050395\AppData\Local\Temp\ccdiWJWS.s:477    .text._ZN6tflite12_GLOBAL__N_14EvalEP13TfLiteContextP10TfLiteNode:00000000 $a
C:\Users\a5050395\AppData\Local\Temp\ccdiWJWS.s:482    .text._ZN6tflite12_GLOBAL__N_14EvalEP13TfLiteContextP10TfLiteNode:00000000 _ZN6tflite12_GLOBAL__N_14EvalEP13TfLiteContextP10TfLiteNode
C:\Users\a5050395\AppData\Local\Temp\ccdiWJWS.s:2955   .rodata._ZN6tflite12_GLOBAL__N_14EvalEP13TfLiteContextP10TfLiteNode.str1.4:00000000 .LC20
.ARM.extab.text._ZN6tflite12_GLOBAL__N_14EvalEP13TfLiteContextP10TfLiteNode:00000000 $d
.ARM.exidx.text._ZN6tflite12_GLOBAL__N_14EvalEP13TfLiteContextP10TfLiteNode:00000000 $d
C:\Users\a5050395\AppData\Local\Temp\ccdiWJWS.s:2901   .text._ZN6tflite23Register_DEPTH_TO_SPACEEv:00000000 $a
C:\Users\a5050395\AppData\Local\Temp\ccdiWJWS.s:2907   .text._ZN6tflite23Register_DEPTH_TO_SPACEEv:00000000 _ZN6tflite23Register_DEPTH_TO_SPACEEv
C:\Users\a5050395\AppData\Local\Temp\ccdiWJWS.s:2943   .rodata:00000000 .LANCHOR0
.ARM.exidx.text._ZN6tflite23Register_DEPTH_TO_SPACEEv:00000000 $d
C:\Users\a5050395\AppData\Local\Temp\ccdiWJWS.s:2942   .rodata:00000000 $d
C:\Users\a5050395\AppData\Local\Temp\ccdiWJWS.s:2954   .rodata._ZN6tflite12_GLOBAL__N_14EvalEP13TfLiteContextP10TfLiteNode.str1.4:00000000 $d
C:\Users\a5050395\AppData\Local\Temp\ccdiWJWS.s:2959   .rodata._ZN6tflite12_GLOBAL__N_17PrepareEP13TfLiteContextP10TfLiteNode.str1.4:00000000 $d
                     .debug_frame:00000010 $d
                           .group:00000000 wm4.0.3e1481985cce1e923928453d8be0a65b
                           .group:00000000 wm4.cconfig.h.31.1472b8c7bd4952a63a52f3f4f718f872
                           .group:00000000 wm4.cpu_defines.h.31.54d44f9d3e7c42875c5a7fd49795eb93
                           .group:00000000 wm4.cconfig.h.515.5e729db314ae74226e291b4ae081e353
                           .group:00000000 wm4.concept_check.h.31.f19605d278e56917c68a56d378be308c
                           .group:00000000 wm4.type_traits.30.2c7323a483bcd7601e8b71d2546ae284
                           .group:00000000 wm4.move.h.152.41d7b9e6779674d169b7813982cfa003
                           .group:00000000 wm4.exception_defines.h.31.ca6841b9be3287386aafc5c717935b2e
                           .group:00000000 wm4.cpp_type_traits.h.33.9f2bfd8c4471a9a299f6da3ec24c745c
                           .group:00000000 wm4.numeric_traits.h.30.aa01a98564b7e55086aad9e53c7e5c53
                           .group:00000000 wm4.assertions.h.30.51d443923f0d242550e04246a7819b39
                           .group:00000000 wm4.stl_iterator.h.1250.45f349a262f1b0d836d8edbc4b7b98ff
                           .group:00000000 wm4.debug.h.30.5c1f223b12199e851d4d42805b788ccf
                           .group:00000000 wm4.stl_algobase.h.491.aa250b69c90aafa2a0a62b8c58cd5f30
                           .group:00000000 wm4.cstdlib.44.52c5efdfb0f3c176bd11e611a0b94959
                           .group:00000000 wm4._newlib_version.h.4.3572908597b70d672d181fc7fc501c19
                           .group:00000000 wm4.newlib.h.21.59901f4bf241ab46c63694665baa7297
                           .group:00000000 wm4.features.h.22.37852b648068a281464730a5a4cc748e
                           .group:00000000 wm4.config.h.219.65a553ab5bef5482f0d7880b0d33015e
                           .group:00000000 wm4._ansi.h.23.1ee1144430bedaab1a14c7b57a6c8384
                           .group:00000000 wm4.stdlib.h.13.4ed386f5c1a80d71e72172885d946ef2
                           .group:00000000 wm4.stddef.h.187.e3ca1cb00044c044f8b956a6107cebb6
                           .group:00000000 wm4.stddef.h.39.60c5e3eb202f4a8f413509aeb6ad39fb
                           .group:00000000 wm4._default_types.h.6.959254cf5f09734ea7516c89e8bb21bd
                           .group:00000000 wm4.lock.h.2.1461d1fff82dffe8bfddc23307f6484f
                           .group:00000000 wm4._types.h.125.5cf8a495f1f7ef36777ad868a1e32068
                           .group:00000000 wm4.stddef.h.161.7e98c9c86da0ed2d27af2ef92af7d013
                           .group:00000000 wm4._types.h.183.c226d164ceca1f2ecb9ae9360c54a098
                           .group:00000000 wm4.reent.h.17.23b059516345f8f5abfa01ddc379570f
                           .group:00000000 wm4.cdefs.h.47.9bc8274c84fddbf05edd550eb0bf48cd
                           .group:00000000 wm4.stdlib.h.56.b4ddaf162082f284ba35b4444af99a9a
                           .group:00000000 wm4.cstdlib.76.ae666499c8f9b0ace1b4b23fe143da2c
                           .group:00000000 wm4.atomic_lockfree_defines.h.31.d5c6334fb1e95c9462b052951f1411df
                           .group:00000000 wm4.limits.38.55aefcf041805b6211ca3649dd2ab1b5
                           .group:00000000 wm4.stdint.h.4.659be5aa44c4ab4eb7c7cc2b24d8ceee
                           .group:00000000 wm4._intsup.h.10.cce27fed8484c08a33f522034c30d2b5
                           .group:00000000 wm4._stdint.h.10.c24fa3af3bc1706662bb5593a907e841
                           .group:00000000 wm4.stdint.h.23.d53047a68f4a85177f80b422d52785ed
                           .group:00000000 wm4.string.h.8.c4b8571ce60dff2817f43fec8b86aecd
                           .group:00000000 wm4.stddef.h.161.38688f2eb958a8ed58fdb61ffe554c94
                           .group:00000000 wm4.cstring.45.6ab09de7fb97b576e744347688ddc8d7
                           .group:00000000 wm4.stdio.h.27.3fc80220048df77954e38daec3bb9670
                           .group:00000000 wm4.stdarg.h.34.3a23a216c0c293b3d2ea2e89281481e6
                           .group:00000000 wm4.types.h.40.e8c16e7ec36ba55f133d0616070e25fc
                           .group:00000000 wm4.types.h.114.fb65732f4f5f288a036a25898de2c91f
                           .group:00000000 wm4.stdio.h.2.4aa87247282eca6c8f36f9de33d8df1a
                           .group:00000000 wm4.stdio.h.81.7ccf35811a8d906c9cfd8de381f5758a
                           .group:00000000 wm4.cstdio.45.ba8d321feb18bfc8923454067605c368
                           .group:00000000 wm4.op_macros.h.42.7b718cb416a067e7bb07e7699647769b
                           .group:00000000 wm4.compatibility.h.23.702d6356326ea59aded8ef5c6c4626d5
                           .group:00000000 wm4.stdbool.h.29.01580e438512fc255c0619569742ffd3
                           .group:00000000 wm4.c_api_types.h.20.9b09175981ed746180e205cc0b4b2bfd
                           .group:00000000 wm4.common.h.77.124de099ec0ac4f95ebf1618a5f42cf6
                           .group:00000000 wm4.builtin_op_data.h.16.b961d1222c948363e3f10ad99298fd3f

UNDEFINED SYMBOLS
__aeabi_idiv
_ZN6tflite12GetInputSafeEPK13TfLiteContextPK10TfLiteNodeiPPK12TfLiteTensor
_ZN6tflite13GetOutputSafeEPK13TfLiteContextPK10TfLiteNodeiPP12TfLiteTensor
TfLiteTypeGetName
_ZN6tflite5micro32CreateWritableTensorDimsWithCopyEP13TfLiteContextP12TfLiteTensorP16TfLiteEvalTensor
abort
__aeabi_unwind_cpp_pr0
__aeabi_idivmod
__gxx_personality_v0
_ZN6tflite5micro14GetTensorShapeEPK16TfLiteEvalTensor
memcpy
_ZdaPv
__cxa_end_cleanup
