   1              		.cpu cortex-a9
   2              		.eabi_attribute 28, 1
   3              		.eabi_attribute 20, 1
   4              		.eabi_attribute 21, 1
   5              		.eabi_attribute 23, 3
   6              		.eabi_attribute 24, 1
   7              		.eabi_attribute 25, 1
   8              		.eabi_attribute 26, 1
   9              		.eabi_attribute 30, 2
  10              		.eabi_attribute 34, 0
  11              		.eabi_attribute 18, 4
  12              		.file	"fill.cpp"
  13              		.text
  14              	.Ltext0:
  15              		.cfi_sections	.debug_frame
  16              		.section	.text._ZN6tflite12_GLOBAL__N_14EvalEP13TfLiteContextP10TfLiteNode,"ax",%progbits
  17              		.align	2
  18              		.syntax unified
  19              		.arm
  20              		.fpu neon
  22              	_ZN6tflite12_GLOBAL__N_14EvalEP13TfLiteContextP10TfLiteNode:
  23              		.fnstart
  24              	.LFB1139:
  25              		.file 1 "../src/tensorflow_lite/src/tensorflow/lite/micro/kernels/fill.cpp"
   1:../src/tensorflow_lite/src/tensorflow/lite/micro/kernels/fill.cpp **** /* Copyright 2020 The TensorFlow Authors. All Rights Reserved.
   2:../src/tensorflow_lite/src/tensorflow/lite/micro/kernels/fill.cpp **** 
   3:../src/tensorflow_lite/src/tensorflow/lite/micro/kernels/fill.cpp **** Licensed under the Apache License, Version 2.0 (the "License");
   4:../src/tensorflow_lite/src/tensorflow/lite/micro/kernels/fill.cpp **** you may not use this file except in compliance with the License.
   5:../src/tensorflow_lite/src/tensorflow/lite/micro/kernels/fill.cpp **** You may obtain a copy of the License at
   6:../src/tensorflow_lite/src/tensorflow/lite/micro/kernels/fill.cpp **** 
   7:../src/tensorflow_lite/src/tensorflow/lite/micro/kernels/fill.cpp ****     http://www.apache.org/licenses/LICENSE-2.0
   8:../src/tensorflow_lite/src/tensorflow/lite/micro/kernels/fill.cpp **** 
   9:../src/tensorflow_lite/src/tensorflow/lite/micro/kernels/fill.cpp **** Unless required by applicable law or agreed to in writing, software
  10:../src/tensorflow_lite/src/tensorflow/lite/micro/kernels/fill.cpp **** distributed under the License is distributed on an "AS IS" BASIS,
  11:../src/tensorflow_lite/src/tensorflow/lite/micro/kernels/fill.cpp **** WITHOUT WARRANTIES OR CONDITIONS OF ANY KIND, either express or implied.
  12:../src/tensorflow_lite/src/tensorflow/lite/micro/kernels/fill.cpp **** See the License for the specific language governing permissions and
  13:../src/tensorflow_lite/src/tensorflow/lite/micro/kernels/fill.cpp **** limitations under the License.
  14:../src/tensorflow_lite/src/tensorflow/lite/micro/kernels/fill.cpp **** ==============================================================================*/
  15:../src/tensorflow_lite/src/tensorflow/lite/micro/kernels/fill.cpp **** 
  16:../src/tensorflow_lite/src/tensorflow/lite/micro/kernels/fill.cpp **** #include "tensorflow/lite/kernels/internal/reference/fill.h"
  17:../src/tensorflow_lite/src/tensorflow/lite/micro/kernels/fill.cpp **** 
  18:../src/tensorflow_lite/src/tensorflow/lite/micro/kernels/fill.cpp **** #include <stdint.h>
  19:../src/tensorflow_lite/src/tensorflow/lite/micro/kernels/fill.cpp **** 
  20:../src/tensorflow_lite/src/tensorflow/lite/micro/kernels/fill.cpp **** #include "tensorflow/lite/c/common.h"
  21:../src/tensorflow_lite/src/tensorflow/lite/micro/kernels/fill.cpp **** #include "tensorflow/lite/kernels/internal/tensor_ctypes.h"
  22:../src/tensorflow_lite/src/tensorflow/lite/micro/kernels/fill.cpp **** #include "tensorflow/lite/kernels/kernel_util.h"
  23:../src/tensorflow_lite/src/tensorflow/lite/micro/kernels/fill.cpp **** #include "tensorflow/lite/micro/kernels/kernel_util.h"
  24:../src/tensorflow_lite/src/tensorflow/lite/micro/kernels/fill.cpp **** 
  25:../src/tensorflow_lite/src/tensorflow/lite/micro/kernels/fill.cpp **** namespace tflite {
  26:../src/tensorflow_lite/src/tensorflow/lite/micro/kernels/fill.cpp **** 
  27:../src/tensorflow_lite/src/tensorflow/lite/micro/kernels/fill.cpp **** namespace {
  28:../src/tensorflow_lite/src/tensorflow/lite/micro/kernels/fill.cpp **** 
  29:../src/tensorflow_lite/src/tensorflow/lite/micro/kernels/fill.cpp **** template <typename T>
  30:../src/tensorflow_lite/src/tensorflow/lite/micro/kernels/fill.cpp **** TfLiteStatus EnsureEqImpl(TfLiteContext* context, const TfLiteIntArray* array,
  31:../src/tensorflow_lite/src/tensorflow/lite/micro/kernels/fill.cpp ****                           const TfLiteTensor* tensor) {
  32:../src/tensorflow_lite/src/tensorflow/lite/micro/kernels/fill.cpp ****   for (int i = 0; i < array->size; ++i) {
  33:../src/tensorflow_lite/src/tensorflow/lite/micro/kernels/fill.cpp ****     TF_LITE_ENSURE_EQ(context, array->data[i], GetTensorData<T>(tensor)[i]);
  34:../src/tensorflow_lite/src/tensorflow/lite/micro/kernels/fill.cpp ****   }
  35:../src/tensorflow_lite/src/tensorflow/lite/micro/kernels/fill.cpp ****   return kTfLiteOk;
  36:../src/tensorflow_lite/src/tensorflow/lite/micro/kernels/fill.cpp **** }
  37:../src/tensorflow_lite/src/tensorflow/lite/micro/kernels/fill.cpp **** 
  38:../src/tensorflow_lite/src/tensorflow/lite/micro/kernels/fill.cpp **** // Ensure the equality of an int array and a tensor, which must be
  39:../src/tensorflow_lite/src/tensorflow/lite/micro/kernels/fill.cpp **** // one-dimensional and of an integer type.
  40:../src/tensorflow_lite/src/tensorflow/lite/micro/kernels/fill.cpp **** TfLiteStatus EnsureEq(TfLiteContext* context, const TfLiteIntArray* array,
  41:../src/tensorflow_lite/src/tensorflow/lite/micro/kernels/fill.cpp ****                       const TfLiteTensor* tensor) {
  42:../src/tensorflow_lite/src/tensorflow/lite/micro/kernels/fill.cpp ****   TF_LITE_ENSURE_EQ(context, NumDimensions(tensor), 1);
  43:../src/tensorflow_lite/src/tensorflow/lite/micro/kernels/fill.cpp ****   const auto tensor_len = tensor->dims->data[0];
  44:../src/tensorflow_lite/src/tensorflow/lite/micro/kernels/fill.cpp ****   TF_LITE_ENSURE_EQ(context, array->size, tensor_len);
  45:../src/tensorflow_lite/src/tensorflow/lite/micro/kernels/fill.cpp **** 
  46:../src/tensorflow_lite/src/tensorflow/lite/micro/kernels/fill.cpp ****   switch (tensor->type) {
  47:../src/tensorflow_lite/src/tensorflow/lite/micro/kernels/fill.cpp ****     case kTfLiteInt8:
  48:../src/tensorflow_lite/src/tensorflow/lite/micro/kernels/fill.cpp ****       return EnsureEqImpl<int8_t>(context, array, tensor);
  49:../src/tensorflow_lite/src/tensorflow/lite/micro/kernels/fill.cpp ****     case kTfLiteUInt8:
  50:../src/tensorflow_lite/src/tensorflow/lite/micro/kernels/fill.cpp ****       return EnsureEqImpl<uint8_t>(context, array, tensor);
  51:../src/tensorflow_lite/src/tensorflow/lite/micro/kernels/fill.cpp ****     case kTfLiteInt16:
  52:../src/tensorflow_lite/src/tensorflow/lite/micro/kernels/fill.cpp ****       return EnsureEqImpl<int16_t>(context, array, tensor);
  53:../src/tensorflow_lite/src/tensorflow/lite/micro/kernels/fill.cpp ****     case kTfLiteInt32:
  54:../src/tensorflow_lite/src/tensorflow/lite/micro/kernels/fill.cpp ****       return EnsureEqImpl<int32_t>(context, array, tensor);
  55:../src/tensorflow_lite/src/tensorflow/lite/micro/kernels/fill.cpp ****     case kTfLiteInt64:
  56:../src/tensorflow_lite/src/tensorflow/lite/micro/kernels/fill.cpp ****       return EnsureEqImpl<int64_t>(context, array, tensor);
  57:../src/tensorflow_lite/src/tensorflow/lite/micro/kernels/fill.cpp ****     default:
  58:../src/tensorflow_lite/src/tensorflow/lite/micro/kernels/fill.cpp ****       TF_LITE_KERNEL_LOG(context,
  59:../src/tensorflow_lite/src/tensorflow/lite/micro/kernels/fill.cpp ****                          "cannot compare int array to tensor of type %d.",
  60:../src/tensorflow_lite/src/tensorflow/lite/micro/kernels/fill.cpp ****                          tensor->type);
  61:../src/tensorflow_lite/src/tensorflow/lite/micro/kernels/fill.cpp ****       return kTfLiteError;
  62:../src/tensorflow_lite/src/tensorflow/lite/micro/kernels/fill.cpp ****   }
  63:../src/tensorflow_lite/src/tensorflow/lite/micro/kernels/fill.cpp **** }
  64:../src/tensorflow_lite/src/tensorflow/lite/micro/kernels/fill.cpp **** 
  65:../src/tensorflow_lite/src/tensorflow/lite/micro/kernels/fill.cpp **** constexpr int kDimsTensor = 0;
  66:../src/tensorflow_lite/src/tensorflow/lite/micro/kernels/fill.cpp **** constexpr int kValueTensor = 1;
  67:../src/tensorflow_lite/src/tensorflow/lite/micro/kernels/fill.cpp **** constexpr int kOutputTensor = 0;
  68:../src/tensorflow_lite/src/tensorflow/lite/micro/kernels/fill.cpp **** 
  69:../src/tensorflow_lite/src/tensorflow/lite/micro/kernels/fill.cpp **** TfLiteStatus Prepare(TfLiteContext* context, TfLiteNode* node) {
  70:../src/tensorflow_lite/src/tensorflow/lite/micro/kernels/fill.cpp ****   // Ensure inputs and outputs exist.
  71:../src/tensorflow_lite/src/tensorflow/lite/micro/kernels/fill.cpp ****   const TfLiteTensor* dims;
  72:../src/tensorflow_lite/src/tensorflow/lite/micro/kernels/fill.cpp ****   TF_LITE_ENSURE_OK(context, GetInputSafe(context, node, kDimsTensor, &dims));
  73:../src/tensorflow_lite/src/tensorflow/lite/micro/kernels/fill.cpp ****   const TfLiteTensor* value;
  74:../src/tensorflow_lite/src/tensorflow/lite/micro/kernels/fill.cpp ****   TF_LITE_ENSURE_OK(context, GetInputSafe(context, node, kValueTensor, &value));
  75:../src/tensorflow_lite/src/tensorflow/lite/micro/kernels/fill.cpp ****   TfLiteTensor* output;
  76:../src/tensorflow_lite/src/tensorflow/lite/micro/kernels/fill.cpp ****   TF_LITE_ENSURE_OK(context,
  77:../src/tensorflow_lite/src/tensorflow/lite/micro/kernels/fill.cpp ****                     GetOutputSafe(context, node, kOutputTensor, &output));
  78:../src/tensorflow_lite/src/tensorflow/lite/micro/kernels/fill.cpp **** 
  79:../src/tensorflow_lite/src/tensorflow/lite/micro/kernels/fill.cpp ****   // The value tensor must be a scalar.
  80:../src/tensorflow_lite/src/tensorflow/lite/micro/kernels/fill.cpp ****   TF_LITE_ENSURE_EQ(context, NumDimensions(value), 0);
  81:../src/tensorflow_lite/src/tensorflow/lite/micro/kernels/fill.cpp **** 
  82:../src/tensorflow_lite/src/tensorflow/lite/micro/kernels/fill.cpp ****   // The value type and output type must match.
  83:../src/tensorflow_lite/src/tensorflow/lite/micro/kernels/fill.cpp ****   TF_LITE_ENSURE_EQ(context, value->type, output->type);
  84:../src/tensorflow_lite/src/tensorflow/lite/micro/kernels/fill.cpp **** 
  85:../src/tensorflow_lite/src/tensorflow/lite/micro/kernels/fill.cpp ****   // The dims tensor must match the output tensor shape. As a byproduct,
  86:../src/tensorflow_lite/src/tensorflow/lite/micro/kernels/fill.cpp ****   // ensures the dims tensor is of an integer type.
  87:../src/tensorflow_lite/src/tensorflow/lite/micro/kernels/fill.cpp ****   TF_LITE_ENSURE_OK(context, EnsureEq(context, output->dims, dims));
  88:../src/tensorflow_lite/src/tensorflow/lite/micro/kernels/fill.cpp **** 
  89:../src/tensorflow_lite/src/tensorflow/lite/micro/kernels/fill.cpp ****   return kTfLiteOk;
  90:../src/tensorflow_lite/src/tensorflow/lite/micro/kernels/fill.cpp **** }
  91:../src/tensorflow_lite/src/tensorflow/lite/micro/kernels/fill.cpp **** 
  92:../src/tensorflow_lite/src/tensorflow/lite/micro/kernels/fill.cpp **** template <typename T>
  93:../src/tensorflow_lite/src/tensorflow/lite/micro/kernels/fill.cpp **** void FillImpl(const TfLiteEvalTensor* value, TfLiteEvalTensor* output) {
  94:../src/tensorflow_lite/src/tensorflow/lite/micro/kernels/fill.cpp ****   reference_ops::Fill(
  95:../src/tensorflow_lite/src/tensorflow/lite/micro/kernels/fill.cpp ****       micro::GetTensorShape(value), micro::GetTensorData<T>(value),
  96:../src/tensorflow_lite/src/tensorflow/lite/micro/kernels/fill.cpp ****       micro::GetTensorShape(output), micro::GetTensorData<T>(output));
  97:../src/tensorflow_lite/src/tensorflow/lite/micro/kernels/fill.cpp **** }
  98:../src/tensorflow_lite/src/tensorflow/lite/micro/kernels/fill.cpp **** 
  99:../src/tensorflow_lite/src/tensorflow/lite/micro/kernels/fill.cpp **** TfLiteStatus Eval(TfLiteContext* context, TfLiteNode* node) {
  26              		.loc 1 99 0
  27              		.cfi_startproc
  28              		.cfi_personality 0,__gxx_personality_v0
  29              		.cfi_lsda 0,.LLSDA1139
  30              		@ args = 0, pretend = 0, frame = 48
  31              		@ frame_needed = 0, uses_anonymous_args = 0
  32              	.LVL0:
  33 0000 F0412DE9 		push	{r4, r5, r6, r7, r8, lr}
  34              		.save {r4, r5, r6, r7, r8, lr}
  35              		.cfi_def_cfa_offset 24
  36              		.cfi_offset 4, -24
  37              		.cfi_offset 5, -20
  38              		.cfi_offset 6, -16
  39              		.cfi_offset 7, -12
  40              		.cfi_offset 8, -8
  41              		.cfi_offset 14, -4
  42              	.LBB96:
  43              	.LBB97:
  44              	.LBB98:
  45              		.file 2 "C:/Renesas/e2studio_2021_01_workspace_RZA2M_ANPR/ANPR_RZA2M_GR_MANGO/src/tensorflow_lite/
   1:C:/Renesas/e2studio_2021_01_workspace_RZA2M_ANPR/ANPR_RZA2M_GR_MANGO/src/tensorflow_lite/src/tensorflow/lite/micro/kernels\kernel_util.h **** /* Copyright 2020 The TensorFlow Authors. All Rights Reserved.
   2:C:/Renesas/e2studio_2021_01_workspace_RZA2M_ANPR/ANPR_RZA2M_GR_MANGO/src/tensorflow_lite/src/tensorflow/lite/micro/kernels\kernel_util.h **** 
   3:C:/Renesas/e2studio_2021_01_workspace_RZA2M_ANPR/ANPR_RZA2M_GR_MANGO/src/tensorflow_lite/src/tensorflow/lite/micro/kernels\kernel_util.h **** Licensed under the Apache License, Version 2.0 (the "License");
   4:C:/Renesas/e2studio_2021_01_workspace_RZA2M_ANPR/ANPR_RZA2M_GR_MANGO/src/tensorflow_lite/src/tensorflow/lite/micro/kernels\kernel_util.h **** you may not use this file except in compliance with the License.
   5:C:/Renesas/e2studio_2021_01_workspace_RZA2M_ANPR/ANPR_RZA2M_GR_MANGO/src/tensorflow_lite/src/tensorflow/lite/micro/kernels\kernel_util.h **** You may obtain a copy of the License at
   6:C:/Renesas/e2studio_2021_01_workspace_RZA2M_ANPR/ANPR_RZA2M_GR_MANGO/src/tensorflow_lite/src/tensorflow/lite/micro/kernels\kernel_util.h **** 
   7:C:/Renesas/e2studio_2021_01_workspace_RZA2M_ANPR/ANPR_RZA2M_GR_MANGO/src/tensorflow_lite/src/tensorflow/lite/micro/kernels\kernel_util.h ****     http://www.apache.org/licenses/LICENSE-2.0
   8:C:/Renesas/e2studio_2021_01_workspace_RZA2M_ANPR/ANPR_RZA2M_GR_MANGO/src/tensorflow_lite/src/tensorflow/lite/micro/kernels\kernel_util.h **** 
   9:C:/Renesas/e2studio_2021_01_workspace_RZA2M_ANPR/ANPR_RZA2M_GR_MANGO/src/tensorflow_lite/src/tensorflow/lite/micro/kernels\kernel_util.h **** Unless required by applicable law or agreed to in writing, software
  10:C:/Renesas/e2studio_2021_01_workspace_RZA2M_ANPR/ANPR_RZA2M_GR_MANGO/src/tensorflow_lite/src/tensorflow/lite/micro/kernels\kernel_util.h **** distributed under the License is distributed on an "AS IS" BASIS,
  11:C:/Renesas/e2studio_2021_01_workspace_RZA2M_ANPR/ANPR_RZA2M_GR_MANGO/src/tensorflow_lite/src/tensorflow/lite/micro/kernels\kernel_util.h **** WITHOUT WARRANTIES OR CONDITIONS OF ANY KIND, either express or implied.
  12:C:/Renesas/e2studio_2021_01_workspace_RZA2M_ANPR/ANPR_RZA2M_GR_MANGO/src/tensorflow_lite/src/tensorflow/lite/micro/kernels\kernel_util.h **** See the License for the specific language governing permissions and
  13:C:/Renesas/e2studio_2021_01_workspace_RZA2M_ANPR/ANPR_RZA2M_GR_MANGO/src/tensorflow_lite/src/tensorflow/lite/micro/kernels\kernel_util.h **** limitations under the License.
  14:C:/Renesas/e2studio_2021_01_workspace_RZA2M_ANPR/ANPR_RZA2M_GR_MANGO/src/tensorflow_lite/src/tensorflow/lite/micro/kernels\kernel_util.h **** ==============================================================================*/
  15:C:/Renesas/e2studio_2021_01_workspace_RZA2M_ANPR/ANPR_RZA2M_GR_MANGO/src/tensorflow_lite/src/tensorflow/lite/micro/kernels\kernel_util.h **** 
  16:C:/Renesas/e2studio_2021_01_workspace_RZA2M_ANPR/ANPR_RZA2M_GR_MANGO/src/tensorflow_lite/src/tensorflow/lite/micro/kernels\kernel_util.h **** #ifndef TENSORFLOW_LITE_MICRO_KERNELS_KERNEL_UTIL_H_
  17:C:/Renesas/e2studio_2021_01_workspace_RZA2M_ANPR/ANPR_RZA2M_GR_MANGO/src/tensorflow_lite/src/tensorflow/lite/micro/kernels\kernel_util.h **** #define TENSORFLOW_LITE_MICRO_KERNELS_KERNEL_UTIL_H_
  18:C:/Renesas/e2studio_2021_01_workspace_RZA2M_ANPR/ANPR_RZA2M_GR_MANGO/src/tensorflow_lite/src/tensorflow/lite/micro/kernels\kernel_util.h **** 
  19:C:/Renesas/e2studio_2021_01_workspace_RZA2M_ANPR/ANPR_RZA2M_GR_MANGO/src/tensorflow_lite/src/tensorflow/lite/micro/kernels\kernel_util.h **** #include <cstdint>
  20:C:/Renesas/e2studio_2021_01_workspace_RZA2M_ANPR/ANPR_RZA2M_GR_MANGO/src/tensorflow_lite/src/tensorflow/lite/micro/kernels\kernel_util.h **** 
  21:C:/Renesas/e2studio_2021_01_workspace_RZA2M_ANPR/ANPR_RZA2M_GR_MANGO/src/tensorflow_lite/src/tensorflow/lite/micro/kernels\kernel_util.h **** #include "tensorflow/lite/c/builtin_op_data.h"
  22:C:/Renesas/e2studio_2021_01_workspace_RZA2M_ANPR/ANPR_RZA2M_GR_MANGO/src/tensorflow_lite/src/tensorflow/lite/micro/kernels\kernel_util.h **** #include "tensorflow/lite/c/common.h"
  23:C:/Renesas/e2studio_2021_01_workspace_RZA2M_ANPR/ANPR_RZA2M_GR_MANGO/src/tensorflow_lite/src/tensorflow/lite/micro/kernels\kernel_util.h **** #include "tensorflow/lite/kernels/internal/compatibility.h"
  24:C:/Renesas/e2studio_2021_01_workspace_RZA2M_ANPR/ANPR_RZA2M_GR_MANGO/src/tensorflow_lite/src/tensorflow/lite/micro/kernels\kernel_util.h **** #include "tensorflow/lite/kernels/internal/types.h"
  25:C:/Renesas/e2studio_2021_01_workspace_RZA2M_ANPR/ANPR_RZA2M_GR_MANGO/src/tensorflow_lite/src/tensorflow/lite/micro/kernels\kernel_util.h **** 
  26:C:/Renesas/e2studio_2021_01_workspace_RZA2M_ANPR/ANPR_RZA2M_GR_MANGO/src/tensorflow_lite/src/tensorflow/lite/micro/kernels\kernel_util.h **** namespace tflite {
  27:C:/Renesas/e2studio_2021_01_workspace_RZA2M_ANPR/ANPR_RZA2M_GR_MANGO/src/tensorflow_lite/src/tensorflow/lite/micro/kernels\kernel_util.h **** namespace micro {
  28:C:/Renesas/e2studio_2021_01_workspace_RZA2M_ANPR/ANPR_RZA2M_GR_MANGO/src/tensorflow_lite/src/tensorflow/lite/micro/kernels\kernel_util.h **** 
  29:C:/Renesas/e2studio_2021_01_workspace_RZA2M_ANPR/ANPR_RZA2M_GR_MANGO/src/tensorflow_lite/src/tensorflow/lite/micro/kernels\kernel_util.h **** // Returns a mutable tensor for a given input index. is_variable must be checked
  30:C:/Renesas/e2studio_2021_01_workspace_RZA2M_ANPR/ANPR_RZA2M_GR_MANGO/src/tensorflow_lite/src/tensorflow/lite/micro/kernels\kernel_util.h **** // during prepare when the full TfLiteTensor is available.
  31:C:/Renesas/e2studio_2021_01_workspace_RZA2M_ANPR/ANPR_RZA2M_GR_MANGO/src/tensorflow_lite/src/tensorflow/lite/micro/kernels\kernel_util.h **** inline TfLiteEvalTensor* GetMutableEvalInput(const TfLiteContext* context,
  32:C:/Renesas/e2studio_2021_01_workspace_RZA2M_ANPR/ANPR_RZA2M_GR_MANGO/src/tensorflow_lite/src/tensorflow/lite/micro/kernels\kernel_util.h ****                                              const TfLiteNode* node,
  33:C:/Renesas/e2studio_2021_01_workspace_RZA2M_ANPR/ANPR_RZA2M_GR_MANGO/src/tensorflow_lite/src/tensorflow/lite/micro/kernels\kernel_util.h ****                                              int index) {
  34:C:/Renesas/e2studio_2021_01_workspace_RZA2M_ANPR/ANPR_RZA2M_GR_MANGO/src/tensorflow_lite/src/tensorflow/lite/micro/kernels\kernel_util.h ****   TFLITE_DCHECK(context != nullptr);
  46              		.loc 2 34 0
  47 0004 007050E2 		subs	r7, r0, #0
  48              	.LVL1:
  49              	.LBE98:
  50              	.LBE97:
  51              	.LBE96:
  52              		.loc 1 99 0
  53              		.pad #48
  54 0008 30D04DE2 		sub	sp, sp, #48
  55              		.cfi_def_cfa_offset 72
  56              	.LBB105:
  57              	.LBB102:
  58              	.LBB99:
  59              		.loc 2 34 0
  60 000c EA00000A 		beq	.L3
  35:C:/Renesas/e2studio_2021_01_workspace_RZA2M_ANPR/ANPR_RZA2M_GR_MANGO/src/tensorflow_lite/src/tensorflow/lite/micro/kernels\kernel_util.h ****   TFLITE_DCHECK(node != nullptr);
  61              		.loc 2 35 0
  62 0010 000051E3 		cmp	r1, #0
  63 0014 0140A0E1 		mov	r4, r1
  64 0018 E700000A 		beq	.L3
  36:C:/Renesas/e2studio_2021_01_workspace_RZA2M_ANPR/ANPR_RZA2M_GR_MANGO/src/tensorflow_lite/src/tensorflow/lite/micro/kernels\kernel_util.h ****   return context->GetEvalTensor(context, node->inputs->data[index]);
  65              		.loc 2 36 0
  66 001c 002091E5 		ldr	r2, [r1]
  67 0020 543097E5 		ldr	r3, [r7, #84]
  68 0024 081092E5 		ldr	r1, [r2, #8]
  69              	.LVL2:
  70              	.LEHB0:
  71 0028 33FF2FE1 		blx	r3
  72              	.LVL3:
  73              	.LBE99:
  74              	.LBE102:
  75              	.LBE105:
  76              	.LBB106:
  77              	.LBB107:
  37:C:/Renesas/e2studio_2021_01_workspace_RZA2M_ANPR/ANPR_RZA2M_GR_MANGO/src/tensorflow_lite/src/tensorflow/lite/micro/kernels\kernel_util.h **** }
  38:C:/Renesas/e2studio_2021_01_workspace_RZA2M_ANPR/ANPR_RZA2M_GR_MANGO/src/tensorflow_lite/src/tensorflow/lite/micro/kernels\kernel_util.h **** 
  39:C:/Renesas/e2studio_2021_01_workspace_RZA2M_ANPR/ANPR_RZA2M_GR_MANGO/src/tensorflow_lite/src/tensorflow/lite/micro/kernels\kernel_util.h **** // Returns the TfLiteEvalTensor struct for a given input index in a node.
  40:C:/Renesas/e2studio_2021_01_workspace_RZA2M_ANPR/ANPR_RZA2M_GR_MANGO/src/tensorflow_lite/src/tensorflow/lite/micro/kernels\kernel_util.h **** inline const TfLiteEvalTensor* GetEvalInput(const TfLiteContext* context,
  41:C:/Renesas/e2studio_2021_01_workspace_RZA2M_ANPR/ANPR_RZA2M_GR_MANGO/src/tensorflow_lite/src/tensorflow/lite/micro/kernels\kernel_util.h ****                                             const TfLiteNode* node, int index) {
  42:C:/Renesas/e2studio_2021_01_workspace_RZA2M_ANPR/ANPR_RZA2M_GR_MANGO/src/tensorflow_lite/src/tensorflow/lite/micro/kernels\kernel_util.h ****   return GetMutableEvalInput(context, node, index);
  43:C:/Renesas/e2studio_2021_01_workspace_RZA2M_ANPR/ANPR_RZA2M_GR_MANGO/src/tensorflow_lite/src/tensorflow/lite/micro/kernels\kernel_util.h **** }
  44:C:/Renesas/e2studio_2021_01_workspace_RZA2M_ANPR/ANPR_RZA2M_GR_MANGO/src/tensorflow_lite/src/tensorflow/lite/micro/kernels\kernel_util.h **** 
  45:C:/Renesas/e2studio_2021_01_workspace_RZA2M_ANPR/ANPR_RZA2M_GR_MANGO/src/tensorflow_lite/src/tensorflow/lite/micro/kernels\kernel_util.h **** // Returns the TfLiteEvalTensor struct for a given output index in a node.
  46:C:/Renesas/e2studio_2021_01_workspace_RZA2M_ANPR/ANPR_RZA2M_GR_MANGO/src/tensorflow_lite/src/tensorflow/lite/micro/kernels\kernel_util.h **** inline TfLiteEvalTensor* GetEvalOutput(const TfLiteContext* context,
  47:C:/Renesas/e2studio_2021_01_workspace_RZA2M_ANPR/ANPR_RZA2M_GR_MANGO/src/tensorflow_lite/src/tensorflow/lite/micro/kernels\kernel_util.h ****                                        const TfLiteNode* node, int index) {
  48:C:/Renesas/e2studio_2021_01_workspace_RZA2M_ANPR/ANPR_RZA2M_GR_MANGO/src/tensorflow_lite/src/tensorflow/lite/micro/kernels\kernel_util.h ****   TFLITE_DCHECK(context != nullptr);
  49:C:/Renesas/e2studio_2021_01_workspace_RZA2M_ANPR/ANPR_RZA2M_GR_MANGO/src/tensorflow_lite/src/tensorflow/lite/micro/kernels\kernel_util.h ****   TFLITE_DCHECK(node != nullptr);
  50:C:/Renesas/e2studio_2021_01_workspace_RZA2M_ANPR/ANPR_RZA2M_GR_MANGO/src/tensorflow_lite/src/tensorflow/lite/micro/kernels\kernel_util.h ****   return context->GetEvalTensor(context, node->outputs->data[index]);
  78              		.loc 2 50 0
  79 002c 042094E5 		ldr	r2, [r4, #4]
  80              	.LBE107:
  81              	.LBE106:
  82              	.LBB109:
  83              	.LBB103:
  84              	.LBB100:
  36:C:/Renesas/e2studio_2021_01_workspace_RZA2M_ANPR/ANPR_RZA2M_GR_MANGO/src/tensorflow_lite/src/tensorflow/lite/micro/kernels\kernel_util.h ****   return context->GetEvalTensor(context, node->inputs->data[index]);
  85              		.loc 2 36 0
  86 0030 0050A0E1 		mov	r5, r0
  87              	.LVL4:
  88              	.LBE100:
  89              	.LBE103:
  90              	.LBE109:
  91              	.LBB110:
  92              	.LBB108:
  93              		.loc 2 50 0
  94 0034 543097E5 		ldr	r3, [r7, #84]
  95 0038 0700A0E1 		mov	r0, r7
  96 003c 041092E5 		ldr	r1, [r2, #4]
  97 0040 33FF2FE1 		blx	r3
  98              	.LVL5:
  99 0044 0060A0E1 		mov	r6, r0
 100              	.LVL6:
 101              	.LBE108:
 102              	.LBE110:
 100:../src/tensorflow_lite/src/tensorflow/lite/micro/kernels/fill.cpp ****   const TfLiteEvalTensor* value =
 101:../src/tensorflow_lite/src/tensorflow/lite/micro/kernels/fill.cpp ****       micro::GetEvalInput(context, node, kValueTensor);
 102:../src/tensorflow_lite/src/tensorflow/lite/micro/kernels/fill.cpp ****   TfLiteEvalTensor* output = micro::GetEvalOutput(context, node, kOutputTensor);
 103:../src/tensorflow_lite/src/tensorflow/lite/micro/kernels/fill.cpp **** 
 104:../src/tensorflow_lite/src/tensorflow/lite/micro/kernels/fill.cpp ****   switch (value->type) {
 103              		.loc 1 104 0
 104 0048 0800D5E5 		ldrb	r0, [r5, #8]	@ zero_extendqisi2
 105 004c 010050E3 		cmp	r0, #1
 106 0050 0900000A 		beq	.L78
 105:../src/tensorflow_lite/src/tensorflow/lite/micro/kernels/fill.cpp ****     case kTfLiteFloat32:
 106:../src/tensorflow_lite/src/tensorflow/lite/micro/kernels/fill.cpp ****       FillImpl<float>(value, output);
 107:../src/tensorflow_lite/src/tensorflow/lite/micro/kernels/fill.cpp ****       break;
 108:../src/tensorflow_lite/src/tensorflow/lite/micro/kernels/fill.cpp ****     default:
 109:../src/tensorflow_lite/src/tensorflow/lite/micro/kernels/fill.cpp ****       TF_LITE_KERNEL_LOG(
 107              		.loc 1 109 0
 108 0054 144097E5 		ldr	r4, [r7, #20]
 109              	.LVL7:
 110 0058 FEFFFFEB 		bl	TfLiteTypeGetName
 111              	.LVL8:
 112 005c 001000E3 		movw	r1, #:lower16:.LC1
 113 0060 0020A0E1 		mov	r2, r0
 114 0064 001040E3 		movt	r1, #:upper16:.LC1
 115 0068 0700A0E1 		mov	r0, r7
 116 006c 34FF2FE1 		blx	r4
 117              	.LVL9:
 110:../src/tensorflow_lite/src/tensorflow/lite/micro/kernels/fill.cpp ****           context, "Fill only currently supports float32 for input 1, got %d.",
 111:../src/tensorflow_lite/src/tensorflow/lite/micro/kernels/fill.cpp ****           TfLiteTypeGetName(value->type));
 112:../src/tensorflow_lite/src/tensorflow/lite/micro/kernels/fill.cpp ****       return kTfLiteError;
 118              		.loc 1 112 0
 119 0070 0100A0E3 		mov	r0, #1
 113:../src/tensorflow_lite/src/tensorflow/lite/micro/kernels/fill.cpp ****   }
 114:../src/tensorflow_lite/src/tensorflow/lite/micro/kernels/fill.cpp **** 
 115:../src/tensorflow_lite/src/tensorflow/lite/micro/kernels/fill.cpp ****   return kTfLiteOk;
 116:../src/tensorflow_lite/src/tensorflow/lite/micro/kernels/fill.cpp **** }
 120              		.loc 1 116 0
 121 0074 30D08DE2 		add	sp, sp, #48
 122              		.cfi_remember_state
 123              		.cfi_def_cfa_offset 24
 124              		@ sp needed
 125 0078 F081BDE8 		pop	{r4, r5, r6, r7, r8, pc}
 126              	.LVL10:
 127              	.L78:
 128              		.cfi_restore_state
 129              	.LBB111:
 130              	.LBB112:
  94:../src/tensorflow_lite/src/tensorflow/lite/micro/kernels/fill.cpp ****       micro::GetTensorShape(value), micro::GetTensorData<T>(value),
 131              		.loc 1 94 0
 132 007c 0510A0E1 		mov	r1, r5
 133 0080 18008DE2 		add	r0, sp, #24
 134 0084 FEFFFFEB 		bl	_ZN6tflite5micro14GetTensorShapeEPK16TfLiteEvalTensor
 135              	.LVL11:
 136              	.LEHE0:
 137 0088 0610A0E1 		mov	r1, r6
 138 008c 0D00A0E1 		mov	r0, sp
 139              	.LBB113:
 140              	.LBB114:
  51:C:/Renesas/e2studio_2021_01_workspace_RZA2M_ANPR/ANPR_RZA2M_GR_MANGO/src/tensorflow_lite/src/tensorflow/lite/micro/kernels\kernel_util.h **** }
  52:C:/Renesas/e2studio_2021_01_workspace_RZA2M_ANPR/ANPR_RZA2M_GR_MANGO/src/tensorflow_lite/src/tensorflow/lite/micro/kernels\kernel_util.h **** 
  53:C:/Renesas/e2studio_2021_01_workspace_RZA2M_ANPR/ANPR_RZA2M_GR_MANGO/src/tensorflow_lite/src/tensorflow/lite/micro/kernels\kernel_util.h **** // Returns data for a TfLiteEvalTensor struct.
  54:C:/Renesas/e2studio_2021_01_workspace_RZA2M_ANPR/ANPR_RZA2M_GR_MANGO/src/tensorflow_lite/src/tensorflow/lite/micro/kernels\kernel_util.h **** template <typename T>
  55:C:/Renesas/e2studio_2021_01_workspace_RZA2M_ANPR/ANPR_RZA2M_GR_MANGO/src/tensorflow_lite/src/tensorflow/lite/micro/kernels\kernel_util.h **** T* GetTensorData(TfLiteEvalTensor* tensor) {
  56:C:/Renesas/e2studio_2021_01_workspace_RZA2M_ANPR/ANPR_RZA2M_GR_MANGO/src/tensorflow_lite/src/tensorflow/lite/micro/kernels\kernel_util.h ****   return tensor != nullptr ? reinterpret_cast<T*>(tensor->data.raw) : nullptr;
  57:C:/Renesas/e2studio_2021_01_workspace_RZA2M_ANPR/ANPR_RZA2M_GR_MANGO/src/tensorflow_lite/src/tensorflow/lite/micro/kernels\kernel_util.h **** }
  58:C:/Renesas/e2studio_2021_01_workspace_RZA2M_ANPR/ANPR_RZA2M_GR_MANGO/src/tensorflow_lite/src/tensorflow/lite/micro/kernels\kernel_util.h **** 
  59:C:/Renesas/e2studio_2021_01_workspace_RZA2M_ANPR/ANPR_RZA2M_GR_MANGO/src/tensorflow_lite/src/tensorflow/lite/micro/kernels\kernel_util.h **** // Returns const data for a TfLiteEvalTensor struct.
  60:C:/Renesas/e2studio_2021_01_workspace_RZA2M_ANPR/ANPR_RZA2M_GR_MANGO/src/tensorflow_lite/src/tensorflow/lite/micro/kernels\kernel_util.h **** template <typename T>
  61:C:/Renesas/e2studio_2021_01_workspace_RZA2M_ANPR/ANPR_RZA2M_GR_MANGO/src/tensorflow_lite/src/tensorflow/lite/micro/kernels\kernel_util.h **** const T* GetTensorData(const TfLiteEvalTensor* tensor) {
  62:C:/Renesas/e2studio_2021_01_workspace_RZA2M_ANPR/ANPR_RZA2M_GR_MANGO/src/tensorflow_lite/src/tensorflow/lite/micro/kernels\kernel_util.h ****   TFLITE_DCHECK(tensor != nullptr);
  63:C:/Renesas/e2studio_2021_01_workspace_RZA2M_ANPR/ANPR_RZA2M_GR_MANGO/src/tensorflow_lite/src/tensorflow/lite/micro/kernels\kernel_util.h ****   return reinterpret_cast<const T*>(tensor->data.raw);
 141              		.loc 2 63 0
 142 0090 004095E5 		ldr	r4, [r5]
 143              	.LVL12:
 144              	.LEHB1:
 145              	.LBE114:
 146              	.LBE113:
  94:../src/tensorflow_lite/src/tensorflow/lite/micro/kernels/fill.cpp ****       micro::GetTensorShape(value), micro::GetTensorData<T>(value),
 147              		.loc 1 94 0
 148 0094 FEFFFFEB 		bl	_ZN6tflite5micro14GetTensorShapeEPK16TfLiteEvalTensor
 149              	.LVL13:
 150              	.LEHE1:
 151              	.LBB115:
 152              	.LBB116:
 153              		.file 3 "C:/Renesas/e2studio_2021_01_workspace_RZA2M_ANPR/ANPR_RZA2M_GR_MANGO/src/tensorflow_lite/
   1:C:/Renesas/e2studio_2021_01_workspace_RZA2M_ANPR/ANPR_RZA2M_GR_MANGO/src/tensorflow_lite/src/tensorflow/lite/kernels/internal/reference\fill.h **** /* Copyright 2020 The TensorFlow Authors. All Rights Reserved.
   2:C:/Renesas/e2studio_2021_01_workspace_RZA2M_ANPR/ANPR_RZA2M_GR_MANGO/src/tensorflow_lite/src/tensorflow/lite/kernels/internal/reference\fill.h **** 
   3:C:/Renesas/e2studio_2021_01_workspace_RZA2M_ANPR/ANPR_RZA2M_GR_MANGO/src/tensorflow_lite/src/tensorflow/lite/kernels/internal/reference\fill.h **** Licensed under the Apache License, Version 2.0 (the "License");
   4:C:/Renesas/e2studio_2021_01_workspace_RZA2M_ANPR/ANPR_RZA2M_GR_MANGO/src/tensorflow_lite/src/tensorflow/lite/kernels/internal/reference\fill.h **** you may not use this file except in compliance with the License.
   5:C:/Renesas/e2studio_2021_01_workspace_RZA2M_ANPR/ANPR_RZA2M_GR_MANGO/src/tensorflow_lite/src/tensorflow/lite/kernels/internal/reference\fill.h **** You may obtain a copy of the License at
   6:C:/Renesas/e2studio_2021_01_workspace_RZA2M_ANPR/ANPR_RZA2M_GR_MANGO/src/tensorflow_lite/src/tensorflow/lite/kernels/internal/reference\fill.h **** 
   7:C:/Renesas/e2studio_2021_01_workspace_RZA2M_ANPR/ANPR_RZA2M_GR_MANGO/src/tensorflow_lite/src/tensorflow/lite/kernels/internal/reference\fill.h ****     http://www.apache.org/licenses/LICENSE-2.0
   8:C:/Renesas/e2studio_2021_01_workspace_RZA2M_ANPR/ANPR_RZA2M_GR_MANGO/src/tensorflow_lite/src/tensorflow/lite/kernels/internal/reference\fill.h **** 
   9:C:/Renesas/e2studio_2021_01_workspace_RZA2M_ANPR/ANPR_RZA2M_GR_MANGO/src/tensorflow_lite/src/tensorflow/lite/kernels/internal/reference\fill.h **** Unless required by applicable law or agreed to in writing, software
  10:C:/Renesas/e2studio_2021_01_workspace_RZA2M_ANPR/ANPR_RZA2M_GR_MANGO/src/tensorflow_lite/src/tensorflow/lite/kernels/internal/reference\fill.h **** distributed under the License is distributed on an "AS IS" BASIS,
  11:C:/Renesas/e2studio_2021_01_workspace_RZA2M_ANPR/ANPR_RZA2M_GR_MANGO/src/tensorflow_lite/src/tensorflow/lite/kernels/internal/reference\fill.h **** WITHOUT WARRANTIES OR CONDITIONS OF ANY KIND, either express or implied.
  12:C:/Renesas/e2studio_2021_01_workspace_RZA2M_ANPR/ANPR_RZA2M_GR_MANGO/src/tensorflow_lite/src/tensorflow/lite/kernels/internal/reference\fill.h **** See the License for the specific language governing permissions and
  13:C:/Renesas/e2studio_2021_01_workspace_RZA2M_ANPR/ANPR_RZA2M_GR_MANGO/src/tensorflow_lite/src/tensorflow/lite/kernels/internal/reference\fill.h **** limitations under the License.
  14:C:/Renesas/e2studio_2021_01_workspace_RZA2M_ANPR/ANPR_RZA2M_GR_MANGO/src/tensorflow_lite/src/tensorflow/lite/kernels/internal/reference\fill.h **** ==============================================================================*/
  15:C:/Renesas/e2studio_2021_01_workspace_RZA2M_ANPR/ANPR_RZA2M_GR_MANGO/src/tensorflow_lite/src/tensorflow/lite/kernels/internal/reference\fill.h **** #ifndef TENSORFLOW_LITE_KERNELS_INTERNAL_REFERENCE_FILL_H_
  16:C:/Renesas/e2studio_2021_01_workspace_RZA2M_ANPR/ANPR_RZA2M_GR_MANGO/src/tensorflow_lite/src/tensorflow/lite/kernels/internal/reference\fill.h **** #define TENSORFLOW_LITE_KERNELS_INTERNAL_REFERENCE_FILL_H_
  17:C:/Renesas/e2studio_2021_01_workspace_RZA2M_ANPR/ANPR_RZA2M_GR_MANGO/src/tensorflow_lite/src/tensorflow/lite/kernels/internal/reference\fill.h **** 
  18:C:/Renesas/e2studio_2021_01_workspace_RZA2M_ANPR/ANPR_RZA2M_GR_MANGO/src/tensorflow_lite/src/tensorflow/lite/kernels/internal/reference\fill.h **** #include <cmath>
  19:C:/Renesas/e2studio_2021_01_workspace_RZA2M_ANPR/ANPR_RZA2M_GR_MANGO/src/tensorflow_lite/src/tensorflow/lite/kernels/internal/reference\fill.h **** 
  20:C:/Renesas/e2studio_2021_01_workspace_RZA2M_ANPR/ANPR_RZA2M_GR_MANGO/src/tensorflow_lite/src/tensorflow/lite/kernels/internal/reference\fill.h **** #include "tensorflow/lite/kernels/internal/types.h"
  21:C:/Renesas/e2studio_2021_01_workspace_RZA2M_ANPR/ANPR_RZA2M_GR_MANGO/src/tensorflow_lite/src/tensorflow/lite/kernels/internal/reference\fill.h **** 
  22:C:/Renesas/e2studio_2021_01_workspace_RZA2M_ANPR/ANPR_RZA2M_GR_MANGO/src/tensorflow_lite/src/tensorflow/lite/kernels/internal/reference\fill.h **** namespace tflite {
  23:C:/Renesas/e2studio_2021_01_workspace_RZA2M_ANPR/ANPR_RZA2M_GR_MANGO/src/tensorflow_lite/src/tensorflow/lite/kernels/internal/reference\fill.h **** namespace reference_ops {
  24:C:/Renesas/e2studio_2021_01_workspace_RZA2M_ANPR/ANPR_RZA2M_GR_MANGO/src/tensorflow_lite/src/tensorflow/lite/kernels/internal/reference\fill.h **** 
  25:C:/Renesas/e2studio_2021_01_workspace_RZA2M_ANPR/ANPR_RZA2M_GR_MANGO/src/tensorflow_lite/src/tensorflow/lite/kernels/internal/reference\fill.h **** template <typename T>
  26:C:/Renesas/e2studio_2021_01_workspace_RZA2M_ANPR/ANPR_RZA2M_GR_MANGO/src/tensorflow_lite/src/tensorflow/lite/kernels/internal/reference\fill.h **** void Fill(const RuntimeShape& value_shape, const T* value_data,
  27:C:/Renesas/e2studio_2021_01_workspace_RZA2M_ANPR/ANPR_RZA2M_GR_MANGO/src/tensorflow_lite/src/tensorflow/lite/kernels/internal/reference\fill.h ****           const RuntimeShape& output_shape, T* output_data) {
  28:C:/Renesas/e2studio_2021_01_workspace_RZA2M_ANPR/ANPR_RZA2M_GR_MANGO/src/tensorflow_lite/src/tensorflow/lite/kernels/internal/reference\fill.h ****   TFLITE_DCHECK_EQ(value_shape.DimensionsCount(), 0);
 154              		.loc 3 28 0
 155 0098 18309DE5 		ldr	r3, [sp, #24]
 156              	.LBE116:
 157              	.LBE115:
 158              	.LBB143:
 159              	.LBB144:
  56:C:/Renesas/e2studio_2021_01_workspace_RZA2M_ANPR/ANPR_RZA2M_GR_MANGO/src/tensorflow_lite/src/tensorflow/lite/micro/kernels\kernel_util.h **** }
 160              		.loc 2 56 0
 161 009c 000056E3 		cmp	r6, #0
 162 00a0 00009615 		ldrne	r0, [r6]
 163 00a4 0600A001 		moveq	r0, r6
 164              	.LVL14:
 165              	.LBE144:
 166              	.LBE143:
 167              	.LBB145:
 168              	.LBB140:
 169              		.loc 3 28 0
 170 00a8 000053E3 		cmp	r3, #0
 171 00ac CB00001A 		bne	.L79
 172              	.LVL15:
 173              	.LBB117:
 174              	.LBB118:
 175              	.LBB119:
 176              	.LBB120:
 177              		.file 4 "C:/Renesas/e2studio_2021_01_workspace_RZA2M_ANPR/ANPR_RZA2M_GR_MANGO/src/tensorflow_lite/
   1:C:/Renesas/e2studio_2021_01_workspace_RZA2M_ANPR/ANPR_RZA2M_GR_MANGO/src/tensorflow_lite/src/tensorflow/lite/kernels/internal\types.h **** /* Copyright 2018 The TensorFlow Authors. All Rights Reserved.
   2:C:/Renesas/e2studio_2021_01_workspace_RZA2M_ANPR/ANPR_RZA2M_GR_MANGO/src/tensorflow_lite/src/tensorflow/lite/kernels/internal\types.h **** 
   3:C:/Renesas/e2studio_2021_01_workspace_RZA2M_ANPR/ANPR_RZA2M_GR_MANGO/src/tensorflow_lite/src/tensorflow/lite/kernels/internal\types.h **** Licensed under the Apache License, Version 2.0 (the "License");
   4:C:/Renesas/e2studio_2021_01_workspace_RZA2M_ANPR/ANPR_RZA2M_GR_MANGO/src/tensorflow_lite/src/tensorflow/lite/kernels/internal\types.h **** you may not use this file except in compliance with the License.
   5:C:/Renesas/e2studio_2021_01_workspace_RZA2M_ANPR/ANPR_RZA2M_GR_MANGO/src/tensorflow_lite/src/tensorflow/lite/kernels/internal\types.h **** You may obtain a copy of the License at
   6:C:/Renesas/e2studio_2021_01_workspace_RZA2M_ANPR/ANPR_RZA2M_GR_MANGO/src/tensorflow_lite/src/tensorflow/lite/kernels/internal\types.h **** 
   7:C:/Renesas/e2studio_2021_01_workspace_RZA2M_ANPR/ANPR_RZA2M_GR_MANGO/src/tensorflow_lite/src/tensorflow/lite/kernels/internal\types.h ****     http://www.apache.org/licenses/LICENSE-2.0
   8:C:/Renesas/e2studio_2021_01_workspace_RZA2M_ANPR/ANPR_RZA2M_GR_MANGO/src/tensorflow_lite/src/tensorflow/lite/kernels/internal\types.h **** 
   9:C:/Renesas/e2studio_2021_01_workspace_RZA2M_ANPR/ANPR_RZA2M_GR_MANGO/src/tensorflow_lite/src/tensorflow/lite/kernels/internal\types.h **** Unless required by applicable law or agreed to in writing, software
  10:C:/Renesas/e2studio_2021_01_workspace_RZA2M_ANPR/ANPR_RZA2M_GR_MANGO/src/tensorflow_lite/src/tensorflow/lite/kernels/internal\types.h **** distributed under the License is distributed on an "AS IS" BASIS,
  11:C:/Renesas/e2studio_2021_01_workspace_RZA2M_ANPR/ANPR_RZA2M_GR_MANGO/src/tensorflow_lite/src/tensorflow/lite/kernels/internal\types.h **** WITHOUT WARRANTIES OR CONDITIONS OF ANY KIND, either express or implied.
  12:C:/Renesas/e2studio_2021_01_workspace_RZA2M_ANPR/ANPR_RZA2M_GR_MANGO/src/tensorflow_lite/src/tensorflow/lite/kernels/internal\types.h **** See the License for the specific language governing permissions and
  13:C:/Renesas/e2studio_2021_01_workspace_RZA2M_ANPR/ANPR_RZA2M_GR_MANGO/src/tensorflow_lite/src/tensorflow/lite/kernels/internal\types.h **** limitations under the License.
  14:C:/Renesas/e2studio_2021_01_workspace_RZA2M_ANPR/ANPR_RZA2M_GR_MANGO/src/tensorflow_lite/src/tensorflow/lite/kernels/internal\types.h **** ==============================================================================*/
  15:C:/Renesas/e2studio_2021_01_workspace_RZA2M_ANPR/ANPR_RZA2M_GR_MANGO/src/tensorflow_lite/src/tensorflow/lite/kernels/internal\types.h **** #ifndef TENSORFLOW_LITE_KERNELS_INTERNAL_TYPES_H_
  16:C:/Renesas/e2studio_2021_01_workspace_RZA2M_ANPR/ANPR_RZA2M_GR_MANGO/src/tensorflow_lite/src/tensorflow/lite/kernels/internal\types.h **** #define TENSORFLOW_LITE_KERNELS_INTERNAL_TYPES_H_
  17:C:/Renesas/e2studio_2021_01_workspace_RZA2M_ANPR/ANPR_RZA2M_GR_MANGO/src/tensorflow_lite/src/tensorflow/lite/kernels/internal\types.h **** 
  18:C:/Renesas/e2studio_2021_01_workspace_RZA2M_ANPR/ANPR_RZA2M_GR_MANGO/src/tensorflow_lite/src/tensorflow/lite/kernels/internal\types.h **** #include <algorithm>
  19:C:/Renesas/e2studio_2021_01_workspace_RZA2M_ANPR/ANPR_RZA2M_GR_MANGO/src/tensorflow_lite/src/tensorflow/lite/kernels/internal\types.h **** #include <cstdint>
  20:C:/Renesas/e2studio_2021_01_workspace_RZA2M_ANPR/ANPR_RZA2M_GR_MANGO/src/tensorflow_lite/src/tensorflow/lite/kernels/internal\types.h **** #include <cstring>
  21:C:/Renesas/e2studio_2021_01_workspace_RZA2M_ANPR/ANPR_RZA2M_GR_MANGO/src/tensorflow_lite/src/tensorflow/lite/kernels/internal\types.h **** #include <initializer_list>
  22:C:/Renesas/e2studio_2021_01_workspace_RZA2M_ANPR/ANPR_RZA2M_GR_MANGO/src/tensorflow_lite/src/tensorflow/lite/kernels/internal\types.h **** 
  23:C:/Renesas/e2studio_2021_01_workspace_RZA2M_ANPR/ANPR_RZA2M_GR_MANGO/src/tensorflow_lite/src/tensorflow/lite/kernels/internal\types.h **** #include "tensorflow/lite/kernels/internal/compatibility.h"
  24:C:/Renesas/e2studio_2021_01_workspace_RZA2M_ANPR/ANPR_RZA2M_GR_MANGO/src/tensorflow_lite/src/tensorflow/lite/kernels/internal\types.h **** 
  25:C:/Renesas/e2studio_2021_01_workspace_RZA2M_ANPR/ANPR_RZA2M_GR_MANGO/src/tensorflow_lite/src/tensorflow/lite/kernels/internal\types.h **** namespace tflite {
  26:C:/Renesas/e2studio_2021_01_workspace_RZA2M_ANPR/ANPR_RZA2M_GR_MANGO/src/tensorflow_lite/src/tensorflow/lite/kernels/internal\types.h **** 
  27:C:/Renesas/e2studio_2021_01_workspace_RZA2M_ANPR/ANPR_RZA2M_GR_MANGO/src/tensorflow_lite/src/tensorflow/lite/kernels/internal\types.h **** enum class FusedActivationFunctionType : uint8_t {
  28:C:/Renesas/e2studio_2021_01_workspace_RZA2M_ANPR/ANPR_RZA2M_GR_MANGO/src/tensorflow_lite/src/tensorflow/lite/kernels/internal\types.h ****   kNone,
  29:C:/Renesas/e2studio_2021_01_workspace_RZA2M_ANPR/ANPR_RZA2M_GR_MANGO/src/tensorflow_lite/src/tensorflow/lite/kernels/internal\types.h ****   kRelu6,
  30:C:/Renesas/e2studio_2021_01_workspace_RZA2M_ANPR/ANPR_RZA2M_GR_MANGO/src/tensorflow_lite/src/tensorflow/lite/kernels/internal\types.h ****   kRelu1,
  31:C:/Renesas/e2studio_2021_01_workspace_RZA2M_ANPR/ANPR_RZA2M_GR_MANGO/src/tensorflow_lite/src/tensorflow/lite/kernels/internal\types.h ****   kRelu
  32:C:/Renesas/e2studio_2021_01_workspace_RZA2M_ANPR/ANPR_RZA2M_GR_MANGO/src/tensorflow_lite/src/tensorflow/lite/kernels/internal\types.h **** };
  33:C:/Renesas/e2studio_2021_01_workspace_RZA2M_ANPR/ANPR_RZA2M_GR_MANGO/src/tensorflow_lite/src/tensorflow/lite/kernels/internal\types.h **** enum class PaddingType : uint8_t { kNone, kSame, kValid };
  34:C:/Renesas/e2studio_2021_01_workspace_RZA2M_ANPR/ANPR_RZA2M_GR_MANGO/src/tensorflow_lite/src/tensorflow/lite/kernels/internal\types.h **** 
  35:C:/Renesas/e2studio_2021_01_workspace_RZA2M_ANPR/ANPR_RZA2M_GR_MANGO/src/tensorflow_lite/src/tensorflow/lite/kernels/internal\types.h **** struct PaddingValues {
  36:C:/Renesas/e2studio_2021_01_workspace_RZA2M_ANPR/ANPR_RZA2M_GR_MANGO/src/tensorflow_lite/src/tensorflow/lite/kernels/internal\types.h ****   int16_t width;
  37:C:/Renesas/e2studio_2021_01_workspace_RZA2M_ANPR/ANPR_RZA2M_GR_MANGO/src/tensorflow_lite/src/tensorflow/lite/kernels/internal\types.h ****   int16_t height;
  38:C:/Renesas/e2studio_2021_01_workspace_RZA2M_ANPR/ANPR_RZA2M_GR_MANGO/src/tensorflow_lite/src/tensorflow/lite/kernels/internal\types.h ****   // offset is used for calculating "remaining" padding, for example, `width`
  39:C:/Renesas/e2studio_2021_01_workspace_RZA2M_ANPR/ANPR_RZA2M_GR_MANGO/src/tensorflow_lite/src/tensorflow/lite/kernels/internal\types.h ****   // is 1 and `width_offset` is 1, so padding_left is 1 while padding_right is
  40:C:/Renesas/e2studio_2021_01_workspace_RZA2M_ANPR/ANPR_RZA2M_GR_MANGO/src/tensorflow_lite/src/tensorflow/lite/kernels/internal\types.h ****   // 1 + 1 = 2.
  41:C:/Renesas/e2studio_2021_01_workspace_RZA2M_ANPR/ANPR_RZA2M_GR_MANGO/src/tensorflow_lite/src/tensorflow/lite/kernels/internal\types.h ****   int16_t width_offset;
  42:C:/Renesas/e2studio_2021_01_workspace_RZA2M_ANPR/ANPR_RZA2M_GR_MANGO/src/tensorflow_lite/src/tensorflow/lite/kernels/internal\types.h ****   // Same as width_offset except it's over the height dimension.
  43:C:/Renesas/e2studio_2021_01_workspace_RZA2M_ANPR/ANPR_RZA2M_GR_MANGO/src/tensorflow_lite/src/tensorflow/lite/kernels/internal\types.h ****   int16_t height_offset;
  44:C:/Renesas/e2studio_2021_01_workspace_RZA2M_ANPR/ANPR_RZA2M_GR_MANGO/src/tensorflow_lite/src/tensorflow/lite/kernels/internal\types.h **** };
  45:C:/Renesas/e2studio_2021_01_workspace_RZA2M_ANPR/ANPR_RZA2M_GR_MANGO/src/tensorflow_lite/src/tensorflow/lite/kernels/internal\types.h **** 
  46:C:/Renesas/e2studio_2021_01_workspace_RZA2M_ANPR/ANPR_RZA2M_GR_MANGO/src/tensorflow_lite/src/tensorflow/lite/kernels/internal\types.h **** struct Padding3DValues {
  47:C:/Renesas/e2studio_2021_01_workspace_RZA2M_ANPR/ANPR_RZA2M_GR_MANGO/src/tensorflow_lite/src/tensorflow/lite/kernels/internal\types.h ****   int16_t width;
  48:C:/Renesas/e2studio_2021_01_workspace_RZA2M_ANPR/ANPR_RZA2M_GR_MANGO/src/tensorflow_lite/src/tensorflow/lite/kernels/internal\types.h ****   int16_t height;
  49:C:/Renesas/e2studio_2021_01_workspace_RZA2M_ANPR/ANPR_RZA2M_GR_MANGO/src/tensorflow_lite/src/tensorflow/lite/kernels/internal\types.h ****   int16_t depth;
  50:C:/Renesas/e2studio_2021_01_workspace_RZA2M_ANPR/ANPR_RZA2M_GR_MANGO/src/tensorflow_lite/src/tensorflow/lite/kernels/internal\types.h ****   // offset is used for calculating "remaining" padding, for example, `width`
  51:C:/Renesas/e2studio_2021_01_workspace_RZA2M_ANPR/ANPR_RZA2M_GR_MANGO/src/tensorflow_lite/src/tensorflow/lite/kernels/internal\types.h ****   // is 1 and `width_offset` is 1, so padding_left is 1 while padding_right is
  52:C:/Renesas/e2studio_2021_01_workspace_RZA2M_ANPR/ANPR_RZA2M_GR_MANGO/src/tensorflow_lite/src/tensorflow/lite/kernels/internal\types.h ****   // 1 + 1 = 2.
  53:C:/Renesas/e2studio_2021_01_workspace_RZA2M_ANPR/ANPR_RZA2M_GR_MANGO/src/tensorflow_lite/src/tensorflow/lite/kernels/internal\types.h ****   int16_t width_offset;
  54:C:/Renesas/e2studio_2021_01_workspace_RZA2M_ANPR/ANPR_RZA2M_GR_MANGO/src/tensorflow_lite/src/tensorflow/lite/kernels/internal\types.h ****   // Same as width_offset except it's over the height dimension.
  55:C:/Renesas/e2studio_2021_01_workspace_RZA2M_ANPR/ANPR_RZA2M_GR_MANGO/src/tensorflow_lite/src/tensorflow/lite/kernels/internal\types.h ****   int16_t height_offset;
  56:C:/Renesas/e2studio_2021_01_workspace_RZA2M_ANPR/ANPR_RZA2M_GR_MANGO/src/tensorflow_lite/src/tensorflow/lite/kernels/internal\types.h ****   // Same as width_offset except it's over the depth dimension.
  57:C:/Renesas/e2studio_2021_01_workspace_RZA2M_ANPR/ANPR_RZA2M_GR_MANGO/src/tensorflow_lite/src/tensorflow/lite/kernels/internal\types.h ****   int16_t depth_offset;
  58:C:/Renesas/e2studio_2021_01_workspace_RZA2M_ANPR/ANPR_RZA2M_GR_MANGO/src/tensorflow_lite/src/tensorflow/lite/kernels/internal\types.h **** };
  59:C:/Renesas/e2studio_2021_01_workspace_RZA2M_ANPR/ANPR_RZA2M_GR_MANGO/src/tensorflow_lite/src/tensorflow/lite/kernels/internal\types.h **** 
  60:C:/Renesas/e2studio_2021_01_workspace_RZA2M_ANPR/ANPR_RZA2M_GR_MANGO/src/tensorflow_lite/src/tensorflow/lite/kernels/internal\types.h **** // This enumeration allows for non-default formats for the weights array
  61:C:/Renesas/e2studio_2021_01_workspace_RZA2M_ANPR/ANPR_RZA2M_GR_MANGO/src/tensorflow_lite/src/tensorflow/lite/kernels/internal\types.h **** // of a fully-connected operator, allowing the use of special optimized
  62:C:/Renesas/e2studio_2021_01_workspace_RZA2M_ANPR/ANPR_RZA2M_GR_MANGO/src/tensorflow_lite/src/tensorflow/lite/kernels/internal\types.h **** // runtime paths.
  63:C:/Renesas/e2studio_2021_01_workspace_RZA2M_ANPR/ANPR_RZA2M_GR_MANGO/src/tensorflow_lite/src/tensorflow/lite/kernels/internal\types.h **** enum class FullyConnectedWeightsFormat : uint8_t {
  64:C:/Renesas/e2studio_2021_01_workspace_RZA2M_ANPR/ANPR_RZA2M_GR_MANGO/src/tensorflow_lite/src/tensorflow/lite/kernels/internal\types.h ****   // Default format (flat 2D layout, the inner contiguous dimension
  65:C:/Renesas/e2studio_2021_01_workspace_RZA2M_ANPR/ANPR_RZA2M_GR_MANGO/src/tensorflow_lite/src/tensorflow/lite/kernels/internal\types.h ****   // is input_depth, the outer non-contiguous dimension is output_depth)
  66:C:/Renesas/e2studio_2021_01_workspace_RZA2M_ANPR/ANPR_RZA2M_GR_MANGO/src/tensorflow_lite/src/tensorflow/lite/kernels/internal\types.h ****   kDefault,
  67:C:/Renesas/e2studio_2021_01_workspace_RZA2M_ANPR/ANPR_RZA2M_GR_MANGO/src/tensorflow_lite/src/tensorflow/lite/kernels/internal\types.h ****   // Summary: optimized layout for fast CPU runtime implementation,
  68:C:/Renesas/e2studio_2021_01_workspace_RZA2M_ANPR/ANPR_RZA2M_GR_MANGO/src/tensorflow_lite/src/tensorflow/lite/kernels/internal\types.h ****   // aimed specifically at ARM CPUs at the moment, and specialized for
  69:C:/Renesas/e2studio_2021_01_workspace_RZA2M_ANPR/ANPR_RZA2M_GR_MANGO/src/tensorflow_lite/src/tensorflow/lite/kernels/internal\types.h ****   // 8-bit quantized layers.
  70:C:/Renesas/e2studio_2021_01_workspace_RZA2M_ANPR/ANPR_RZA2M_GR_MANGO/src/tensorflow_lite/src/tensorflow/lite/kernels/internal\types.h ****   //
  71:C:/Renesas/e2studio_2021_01_workspace_RZA2M_ANPR/ANPR_RZA2M_GR_MANGO/src/tensorflow_lite/src/tensorflow/lite/kernels/internal\types.h ****   // The use case we're concerned with here is: 8-bit quantization,
  72:C:/Renesas/e2studio_2021_01_workspace_RZA2M_ANPR/ANPR_RZA2M_GR_MANGO/src/tensorflow_lite/src/tensorflow/lite/kernels/internal\types.h ****   // large weights matrix that doesn't fit in cache (e.g. 4096x2048 in
  73:C:/Renesas/e2studio_2021_01_workspace_RZA2M_ANPR/ANPR_RZA2M_GR_MANGO/src/tensorflow_lite/src/tensorflow/lite/kernels/internal\types.h ****   // a key application that drove this), very small batch size (e.g. 1 -- 4).
  74:C:/Renesas/e2studio_2021_01_workspace_RZA2M_ANPR/ANPR_RZA2M_GR_MANGO/src/tensorflow_lite/src/tensorflow/lite/kernels/internal\types.h ****   //
  75:C:/Renesas/e2studio_2021_01_workspace_RZA2M_ANPR/ANPR_RZA2M_GR_MANGO/src/tensorflow_lite/src/tensorflow/lite/kernels/internal\types.h ****   // Even with 8-bit quantization of weights, the performance of memory
  76:C:/Renesas/e2studio_2021_01_workspace_RZA2M_ANPR/ANPR_RZA2M_GR_MANGO/src/tensorflow_lite/src/tensorflow/lite/kernels/internal\types.h ****   // accesses to the weights can become the dominant issue when
  77:C:/Renesas/e2studio_2021_01_workspace_RZA2M_ANPR/ANPR_RZA2M_GR_MANGO/src/tensorflow_lite/src/tensorflow/lite/kernels/internal\types.h ****   // the batch size is small, so each weight value is used in only a few
  78:C:/Renesas/e2studio_2021_01_workspace_RZA2M_ANPR/ANPR_RZA2M_GR_MANGO/src/tensorflow_lite/src/tensorflow/lite/kernels/internal\types.h ****   // arithmetic ops, i.e. the fully-connected node has a low arithmetic
  79:C:/Renesas/e2studio_2021_01_workspace_RZA2M_ANPR/ANPR_RZA2M_GR_MANGO/src/tensorflow_lite/src/tensorflow/lite/kernels/internal\types.h ****   // intensity. The specific issues that arise are of three kinds:
  80:C:/Renesas/e2studio_2021_01_workspace_RZA2M_ANPR/ANPR_RZA2M_GR_MANGO/src/tensorflow_lite/src/tensorflow/lite/kernels/internal\types.h ****   // (1) One may, ideally, max out DRAM bandwidth, i.e. be truly memory
  81:C:/Renesas/e2studio_2021_01_workspace_RZA2M_ANPR/ANPR_RZA2M_GR_MANGO/src/tensorflow_lite/src/tensorflow/lite/kernels/internal\types.h ****   //     bound. That's the "good" issue to run into.
  82:C:/Renesas/e2studio_2021_01_workspace_RZA2M_ANPR/ANPR_RZA2M_GR_MANGO/src/tensorflow_lite/src/tensorflow/lite/kernels/internal\types.h ****   // (2) One may run into sub-optimal pre-fetching: the data hasn't been
  83:C:/Renesas/e2studio_2021_01_workspace_RZA2M_ANPR/ANPR_RZA2M_GR_MANGO/src/tensorflow_lite/src/tensorflow/lite/kernels/internal\types.h ****   //     prefetched into the cache by the time we need it.
  84:C:/Renesas/e2studio_2021_01_workspace_RZA2M_ANPR/ANPR_RZA2M_GR_MANGO/src/tensorflow_lite/src/tensorflow/lite/kernels/internal\types.h ****   // (3) One may run into cache aliasing: multiple values that are
  85:C:/Renesas/e2studio_2021_01_workspace_RZA2M_ANPR/ANPR_RZA2M_GR_MANGO/src/tensorflow_lite/src/tensorflow/lite/kernels/internal\types.h ****   //     pre-fetched, alias each other in the L1 cache (which typically
  86:C:/Renesas/e2studio_2021_01_workspace_RZA2M_ANPR/ANPR_RZA2M_GR_MANGO/src/tensorflow_lite/src/tensorflow/lite/kernels/internal\types.h ****   //     has only 4-way set associativity in ARM CPUs) and thus evict
  87:C:/Renesas/e2studio_2021_01_workspace_RZA2M_ANPR/ANPR_RZA2M_GR_MANGO/src/tensorflow_lite/src/tensorflow/lite/kernels/internal\types.h ****   //     each other before we get to using them.
  88:C:/Renesas/e2studio_2021_01_workspace_RZA2M_ANPR/ANPR_RZA2M_GR_MANGO/src/tensorflow_lite/src/tensorflow/lite/kernels/internal\types.h ****   //
  89:C:/Renesas/e2studio_2021_01_workspace_RZA2M_ANPR/ANPR_RZA2M_GR_MANGO/src/tensorflow_lite/src/tensorflow/lite/kernels/internal\types.h ****   // The point of this shuffling is to avoid issues (2) and (3) so that
  90:C:/Renesas/e2studio_2021_01_workspace_RZA2M_ANPR/ANPR_RZA2M_GR_MANGO/src/tensorflow_lite/src/tensorflow/lite/kernels/internal\types.h ****   // we get as fast as possible given only the hard constraint (1).
  91:C:/Renesas/e2studio_2021_01_workspace_RZA2M_ANPR/ANPR_RZA2M_GR_MANGO/src/tensorflow_lite/src/tensorflow/lite/kernels/internal\types.h ****   // This is achieved by turning the difficulty into a solution: the
  92:C:/Renesas/e2studio_2021_01_workspace_RZA2M_ANPR/ANPR_RZA2M_GR_MANGO/src/tensorflow_lite/src/tensorflow/lite/kernels/internal\types.h ****   // difficulty, that each value loaded from memory is used only in
  93:C:/Renesas/e2studio_2021_01_workspace_RZA2M_ANPR/ANPR_RZA2M_GR_MANGO/src/tensorflow_lite/src/tensorflow/lite/kernels/internal\types.h ****   // one kernel iteration, making this operation memory-intensive, hints at
  94:C:/Renesas/e2studio_2021_01_workspace_RZA2M_ANPR/ANPR_RZA2M_GR_MANGO/src/tensorflow_lite/src/tensorflow/lite/kernels/internal\types.h ****   // the solution, of shuffling the weights so that they are stored in the
  95:C:/Renesas/e2studio_2021_01_workspace_RZA2M_ANPR/ANPR_RZA2M_GR_MANGO/src/tensorflow_lite/src/tensorflow/lite/kernels/internal\types.h ****   // exact order as the kernel needs to load them, so that the memory
  96:C:/Renesas/e2studio_2021_01_workspace_RZA2M_ANPR/ANPR_RZA2M_GR_MANGO/src/tensorflow_lite/src/tensorflow/lite/kernels/internal\types.h ****   // accesses made by the kernel are trivial. This solves (2) because the
  97:C:/Renesas/e2studio_2021_01_workspace_RZA2M_ANPR/ANPR_RZA2M_GR_MANGO/src/tensorflow_lite/src/tensorflow/lite/kernels/internal\types.h ****   // trivial memory access pattern allows the CPU's automatic prefetching
  98:C:/Renesas/e2studio_2021_01_workspace_RZA2M_ANPR/ANPR_RZA2M_GR_MANGO/src/tensorflow_lite/src/tensorflow/lite/kernels/internal\types.h ****   // to perform very well (no need even for preload instructions), and this
  99:C:/Renesas/e2studio_2021_01_workspace_RZA2M_ANPR/ANPR_RZA2M_GR_MANGO/src/tensorflow_lite/src/tensorflow/lite/kernels/internal\types.h ****   // solves (3) because the values being loaded concurrently are now
 100:C:/Renesas/e2studio_2021_01_workspace_RZA2M_ANPR/ANPR_RZA2M_GR_MANGO/src/tensorflow_lite/src/tensorflow/lite/kernels/internal\types.h ****   // contiguous in the address space, thus don't alias each other in the cache.
 101:C:/Renesas/e2studio_2021_01_workspace_RZA2M_ANPR/ANPR_RZA2M_GR_MANGO/src/tensorflow_lite/src/tensorflow/lite/kernels/internal\types.h ****   //
 102:C:/Renesas/e2studio_2021_01_workspace_RZA2M_ANPR/ANPR_RZA2M_GR_MANGO/src/tensorflow_lite/src/tensorflow/lite/kernels/internal\types.h ****   // On ARM, we typically want our kernel to process a 4x16 block of weights
 103:C:/Renesas/e2studio_2021_01_workspace_RZA2M_ANPR/ANPR_RZA2M_GR_MANGO/src/tensorflow_lite/src/tensorflow/lite/kernels/internal\types.h ****   // at a time, because:
 104:C:/Renesas/e2studio_2021_01_workspace_RZA2M_ANPR/ANPR_RZA2M_GR_MANGO/src/tensorflow_lite/src/tensorflow/lite/kernels/internal\types.h ****   //   - 16 is the number of bytes in a NEON register.
 105:C:/Renesas/e2studio_2021_01_workspace_RZA2M_ANPR/ANPR_RZA2M_GR_MANGO/src/tensorflow_lite/src/tensorflow/lite/kernels/internal\types.h ****   //   - 4 is how many rows we need to handle concurrently in the kernel in
 106:C:/Renesas/e2studio_2021_01_workspace_RZA2M_ANPR/ANPR_RZA2M_GR_MANGO/src/tensorflow_lite/src/tensorflow/lite/kernels/internal\types.h ****   //     order to have sufficient mutual independence of instructions to
 107:C:/Renesas/e2studio_2021_01_workspace_RZA2M_ANPR/ANPR_RZA2M_GR_MANGO/src/tensorflow_lite/src/tensorflow/lite/kernels/internal\types.h ****   //     maximize arithmetic throughput.
 108:C:/Renesas/e2studio_2021_01_workspace_RZA2M_ANPR/ANPR_RZA2M_GR_MANGO/src/tensorflow_lite/src/tensorflow/lite/kernels/internal\types.h ****   //
 109:C:/Renesas/e2studio_2021_01_workspace_RZA2M_ANPR/ANPR_RZA2M_GR_MANGO/src/tensorflow_lite/src/tensorflow/lite/kernels/internal\types.h ****   // Finally, the 'Int8' part in the name refers to the fact that this
 110:C:/Renesas/e2studio_2021_01_workspace_RZA2M_ANPR/ANPR_RZA2M_GR_MANGO/src/tensorflow_lite/src/tensorflow/lite/kernels/internal\types.h ****   // weights format has each weights value encoded as a signed int8_t value,
 111:C:/Renesas/e2studio_2021_01_workspace_RZA2M_ANPR/ANPR_RZA2M_GR_MANGO/src/tensorflow_lite/src/tensorflow/lite/kernels/internal\types.h ****   // even if the data type of the weights buffer is uint8_t.  This is intended
 112:C:/Renesas/e2studio_2021_01_workspace_RZA2M_ANPR/ANPR_RZA2M_GR_MANGO/src/tensorflow_lite/src/tensorflow/lite/kernels/internal\types.h ****   // to save runtime kernels the effort to have to XOR the top bit of these
 113:C:/Renesas/e2studio_2021_01_workspace_RZA2M_ANPR/ANPR_RZA2M_GR_MANGO/src/tensorflow_lite/src/tensorflow/lite/kernels/internal\types.h ****   // bytes before using them in signed arithmetic, see this file for more
 114:C:/Renesas/e2studio_2021_01_workspace_RZA2M_ANPR/ANPR_RZA2M_GR_MANGO/src/tensorflow_lite/src/tensorflow/lite/kernels/internal\types.h ****   // explanations on the 'signed int8_t trick' in matrix multiplication kernels:
 115:C:/Renesas/e2studio_2021_01_workspace_RZA2M_ANPR/ANPR_RZA2M_GR_MANGO/src/tensorflow_lite/src/tensorflow/lite/kernels/internal\types.h ****   //
 116:C:/Renesas/e2studio_2021_01_workspace_RZA2M_ANPR/ANPR_RZA2M_GR_MANGO/src/tensorflow_lite/src/tensorflow/lite/kernels/internal\types.h ****   //   tensorflow/lite/toco/graph_transformations/ensure_uint8_weights_safe_for_fast_int8_kernels.c
 117:C:/Renesas/e2studio_2021_01_workspace_RZA2M_ANPR/ANPR_RZA2M_GR_MANGO/src/tensorflow_lite/src/tensorflow/lite/kernels/internal\types.h ****   //
 118:C:/Renesas/e2studio_2021_01_workspace_RZA2M_ANPR/ANPR_RZA2M_GR_MANGO/src/tensorflow_lite/src/tensorflow/lite/kernels/internal\types.h ****   kShuffled4x16Int8,
 119:C:/Renesas/e2studio_2021_01_workspace_RZA2M_ANPR/ANPR_RZA2M_GR_MANGO/src/tensorflow_lite/src/tensorflow/lite/kernels/internal\types.h **** };
 120:C:/Renesas/e2studio_2021_01_workspace_RZA2M_ANPR/ANPR_RZA2M_GR_MANGO/src/tensorflow_lite/src/tensorflow/lite/kernels/internal\types.h **** 
 121:C:/Renesas/e2studio_2021_01_workspace_RZA2M_ANPR/ANPR_RZA2M_GR_MANGO/src/tensorflow_lite/src/tensorflow/lite/kernels/internal\types.h **** // Quantization parameters, determining the mapping of quantized values
 122:C:/Renesas/e2studio_2021_01_workspace_RZA2M_ANPR/ANPR_RZA2M_GR_MANGO/src/tensorflow_lite/src/tensorflow/lite/kernels/internal\types.h **** // to real values (i.e. determining how quantized values are mathematically
 123:C:/Renesas/e2studio_2021_01_workspace_RZA2M_ANPR/ANPR_RZA2M_GR_MANGO/src/tensorflow_lite/src/tensorflow/lite/kernels/internal\types.h **** // interpreted).
 124:C:/Renesas/e2studio_2021_01_workspace_RZA2M_ANPR/ANPR_RZA2M_GR_MANGO/src/tensorflow_lite/src/tensorflow/lite/kernels/internal\types.h **** //
 125:C:/Renesas/e2studio_2021_01_workspace_RZA2M_ANPR/ANPR_RZA2M_GR_MANGO/src/tensorflow_lite/src/tensorflow/lite/kernels/internal\types.h **** // The correspondence is as follows:
 126:C:/Renesas/e2studio_2021_01_workspace_RZA2M_ANPR/ANPR_RZA2M_GR_MANGO/src/tensorflow_lite/src/tensorflow/lite/kernels/internal\types.h **** //
 127:C:/Renesas/e2studio_2021_01_workspace_RZA2M_ANPR/ANPR_RZA2M_GR_MANGO/src/tensorflow_lite/src/tensorflow/lite/kernels/internal\types.h **** //   real_value = scale * (quantized_value - zero_point);
 128:C:/Renesas/e2studio_2021_01_workspace_RZA2M_ANPR/ANPR_RZA2M_GR_MANGO/src/tensorflow_lite/src/tensorflow/lite/kernels/internal\types.h **** //
 129:C:/Renesas/e2studio_2021_01_workspace_RZA2M_ANPR/ANPR_RZA2M_GR_MANGO/src/tensorflow_lite/src/tensorflow/lite/kernels/internal\types.h **** // In other words, zero_point designates which quantized value corresponds to
 130:C:/Renesas/e2studio_2021_01_workspace_RZA2M_ANPR/ANPR_RZA2M_GR_MANGO/src/tensorflow_lite/src/tensorflow/lite/kernels/internal\types.h **** // the real 0 value, and scale designates the difference between the real values
 131:C:/Renesas/e2studio_2021_01_workspace_RZA2M_ANPR/ANPR_RZA2M_GR_MANGO/src/tensorflow_lite/src/tensorflow/lite/kernels/internal\types.h **** // corresponding to consecutive quantized values differing by 1.
 132:C:/Renesas/e2studio_2021_01_workspace_RZA2M_ANPR/ANPR_RZA2M_GR_MANGO/src/tensorflow_lite/src/tensorflow/lite/kernels/internal\types.h **** struct QuantizationParams {
 133:C:/Renesas/e2studio_2021_01_workspace_RZA2M_ANPR/ANPR_RZA2M_GR_MANGO/src/tensorflow_lite/src/tensorflow/lite/kernels/internal\types.h ****   int32_t zero_point = 0;
 134:C:/Renesas/e2studio_2021_01_workspace_RZA2M_ANPR/ANPR_RZA2M_GR_MANGO/src/tensorflow_lite/src/tensorflow/lite/kernels/internal\types.h ****   double scale = 0.0;
 135:C:/Renesas/e2studio_2021_01_workspace_RZA2M_ANPR/ANPR_RZA2M_GR_MANGO/src/tensorflow_lite/src/tensorflow/lite/kernels/internal\types.h **** };
 136:C:/Renesas/e2studio_2021_01_workspace_RZA2M_ANPR/ANPR_RZA2M_GR_MANGO/src/tensorflow_lite/src/tensorflow/lite/kernels/internal\types.h **** 
 137:C:/Renesas/e2studio_2021_01_workspace_RZA2M_ANPR/ANPR_RZA2M_GR_MANGO/src/tensorflow_lite/src/tensorflow/lite/kernels/internal\types.h **** inline bool operator==(const QuantizationParams& qp1,
 138:C:/Renesas/e2studio_2021_01_workspace_RZA2M_ANPR/ANPR_RZA2M_GR_MANGO/src/tensorflow_lite/src/tensorflow/lite/kernels/internal\types.h ****                        const QuantizationParams& qp2) {
 139:C:/Renesas/e2studio_2021_01_workspace_RZA2M_ANPR/ANPR_RZA2M_GR_MANGO/src/tensorflow_lite/src/tensorflow/lite/kernels/internal\types.h ****   return qp1.zero_point == qp2.zero_point && qp1.scale == qp2.scale;
 140:C:/Renesas/e2studio_2021_01_workspace_RZA2M_ANPR/ANPR_RZA2M_GR_MANGO/src/tensorflow_lite/src/tensorflow/lite/kernels/internal\types.h **** }
 141:C:/Renesas/e2studio_2021_01_workspace_RZA2M_ANPR/ANPR_RZA2M_GR_MANGO/src/tensorflow_lite/src/tensorflow/lite/kernels/internal\types.h **** 
 142:C:/Renesas/e2studio_2021_01_workspace_RZA2M_ANPR/ANPR_RZA2M_GR_MANGO/src/tensorflow_lite/src/tensorflow/lite/kernels/internal\types.h **** template <int N>
 143:C:/Renesas/e2studio_2021_01_workspace_RZA2M_ANPR/ANPR_RZA2M_GR_MANGO/src/tensorflow_lite/src/tensorflow/lite/kernels/internal\types.h **** struct Dims {
 144:C:/Renesas/e2studio_2021_01_workspace_RZA2M_ANPR/ANPR_RZA2M_GR_MANGO/src/tensorflow_lite/src/tensorflow/lite/kernels/internal\types.h ****   int sizes[N];
 145:C:/Renesas/e2studio_2021_01_workspace_RZA2M_ANPR/ANPR_RZA2M_GR_MANGO/src/tensorflow_lite/src/tensorflow/lite/kernels/internal\types.h ****   int strides[N];
 146:C:/Renesas/e2studio_2021_01_workspace_RZA2M_ANPR/ANPR_RZA2M_GR_MANGO/src/tensorflow_lite/src/tensorflow/lite/kernels/internal\types.h **** };
 147:C:/Renesas/e2studio_2021_01_workspace_RZA2M_ANPR/ANPR_RZA2M_GR_MANGO/src/tensorflow_lite/src/tensorflow/lite/kernels/internal\types.h **** 
 148:C:/Renesas/e2studio_2021_01_workspace_RZA2M_ANPR/ANPR_RZA2M_GR_MANGO/src/tensorflow_lite/src/tensorflow/lite/kernels/internal\types.h **** class RuntimeShape {
 149:C:/Renesas/e2studio_2021_01_workspace_RZA2M_ANPR/ANPR_RZA2M_GR_MANGO/src/tensorflow_lite/src/tensorflow/lite/kernels/internal\types.h ****  public:
 150:C:/Renesas/e2studio_2021_01_workspace_RZA2M_ANPR/ANPR_RZA2M_GR_MANGO/src/tensorflow_lite/src/tensorflow/lite/kernels/internal\types.h ****   // Shapes with dimensions up to 5 are stored directly in the structure, while
 151:C:/Renesas/e2studio_2021_01_workspace_RZA2M_ANPR/ANPR_RZA2M_GR_MANGO/src/tensorflow_lite/src/tensorflow/lite/kernels/internal\types.h ****   // larger shapes are separately allocated.
 152:C:/Renesas/e2studio_2021_01_workspace_RZA2M_ANPR/ANPR_RZA2M_GR_MANGO/src/tensorflow_lite/src/tensorflow/lite/kernels/internal\types.h ****   static constexpr int kMaxSmallSize = 5;
 153:C:/Renesas/e2studio_2021_01_workspace_RZA2M_ANPR/ANPR_RZA2M_GR_MANGO/src/tensorflow_lite/src/tensorflow/lite/kernels/internal\types.h **** 
 154:C:/Renesas/e2studio_2021_01_workspace_RZA2M_ANPR/ANPR_RZA2M_GR_MANGO/src/tensorflow_lite/src/tensorflow/lite/kernels/internal\types.h ****   RuntimeShape& operator=(RuntimeShape const&) = delete;
 155:C:/Renesas/e2studio_2021_01_workspace_RZA2M_ANPR/ANPR_RZA2M_GR_MANGO/src/tensorflow_lite/src/tensorflow/lite/kernels/internal\types.h **** 
 156:C:/Renesas/e2studio_2021_01_workspace_RZA2M_ANPR/ANPR_RZA2M_GR_MANGO/src/tensorflow_lite/src/tensorflow/lite/kernels/internal\types.h ****   RuntimeShape() : size_(0) {}
 157:C:/Renesas/e2studio_2021_01_workspace_RZA2M_ANPR/ANPR_RZA2M_GR_MANGO/src/tensorflow_lite/src/tensorflow/lite/kernels/internal\types.h **** 
 158:C:/Renesas/e2studio_2021_01_workspace_RZA2M_ANPR/ANPR_RZA2M_GR_MANGO/src/tensorflow_lite/src/tensorflow/lite/kernels/internal\types.h ****   explicit RuntimeShape(int dimensions_count) : size_(dimensions_count) {
 159:C:/Renesas/e2studio_2021_01_workspace_RZA2M_ANPR/ANPR_RZA2M_GR_MANGO/src/tensorflow_lite/src/tensorflow/lite/kernels/internal\types.h ****     if (dimensions_count > kMaxSmallSize) {
 160:C:/Renesas/e2studio_2021_01_workspace_RZA2M_ANPR/ANPR_RZA2M_GR_MANGO/src/tensorflow_lite/src/tensorflow/lite/kernels/internal\types.h **** #ifdef TF_LITE_STATIC_MEMORY
 161:C:/Renesas/e2studio_2021_01_workspace_RZA2M_ANPR/ANPR_RZA2M_GR_MANGO/src/tensorflow_lite/src/tensorflow/lite/kernels/internal\types.h ****       TFLITE_CHECK(false && "No shape resizing supported on this platform");
 162:C:/Renesas/e2studio_2021_01_workspace_RZA2M_ANPR/ANPR_RZA2M_GR_MANGO/src/tensorflow_lite/src/tensorflow/lite/kernels/internal\types.h **** #else  // TF_LITE_STATIC_MEMORY
 163:C:/Renesas/e2studio_2021_01_workspace_RZA2M_ANPR/ANPR_RZA2M_GR_MANGO/src/tensorflow_lite/src/tensorflow/lite/kernels/internal\types.h ****       dims_pointer_ = new int32_t[dimensions_count];
 164:C:/Renesas/e2studio_2021_01_workspace_RZA2M_ANPR/ANPR_RZA2M_GR_MANGO/src/tensorflow_lite/src/tensorflow/lite/kernels/internal\types.h **** #endif  // TF_LITE_STATIC_MEMORY
 165:C:/Renesas/e2studio_2021_01_workspace_RZA2M_ANPR/ANPR_RZA2M_GR_MANGO/src/tensorflow_lite/src/tensorflow/lite/kernels/internal\types.h ****     }
 166:C:/Renesas/e2studio_2021_01_workspace_RZA2M_ANPR/ANPR_RZA2M_GR_MANGO/src/tensorflow_lite/src/tensorflow/lite/kernels/internal\types.h ****   }
 167:C:/Renesas/e2studio_2021_01_workspace_RZA2M_ANPR/ANPR_RZA2M_GR_MANGO/src/tensorflow_lite/src/tensorflow/lite/kernels/internal\types.h **** 
 168:C:/Renesas/e2studio_2021_01_workspace_RZA2M_ANPR/ANPR_RZA2M_GR_MANGO/src/tensorflow_lite/src/tensorflow/lite/kernels/internal\types.h ****   RuntimeShape(int shape_size, int32_t value) : size_(0) {
 169:C:/Renesas/e2studio_2021_01_workspace_RZA2M_ANPR/ANPR_RZA2M_GR_MANGO/src/tensorflow_lite/src/tensorflow/lite/kernels/internal\types.h ****     Resize(shape_size);
 170:C:/Renesas/e2studio_2021_01_workspace_RZA2M_ANPR/ANPR_RZA2M_GR_MANGO/src/tensorflow_lite/src/tensorflow/lite/kernels/internal\types.h ****     for (int i = 0; i < shape_size; ++i) {
 171:C:/Renesas/e2studio_2021_01_workspace_RZA2M_ANPR/ANPR_RZA2M_GR_MANGO/src/tensorflow_lite/src/tensorflow/lite/kernels/internal\types.h ****       SetDim(i, value);
 172:C:/Renesas/e2studio_2021_01_workspace_RZA2M_ANPR/ANPR_RZA2M_GR_MANGO/src/tensorflow_lite/src/tensorflow/lite/kernels/internal\types.h ****     }
 173:C:/Renesas/e2studio_2021_01_workspace_RZA2M_ANPR/ANPR_RZA2M_GR_MANGO/src/tensorflow_lite/src/tensorflow/lite/kernels/internal\types.h ****   }
 174:C:/Renesas/e2studio_2021_01_workspace_RZA2M_ANPR/ANPR_RZA2M_GR_MANGO/src/tensorflow_lite/src/tensorflow/lite/kernels/internal\types.h **** 
 175:C:/Renesas/e2studio_2021_01_workspace_RZA2M_ANPR/ANPR_RZA2M_GR_MANGO/src/tensorflow_lite/src/tensorflow/lite/kernels/internal\types.h ****   RuntimeShape(int dimensions_count, const int32_t* dims_data) : size_(0) {
 176:C:/Renesas/e2studio_2021_01_workspace_RZA2M_ANPR/ANPR_RZA2M_GR_MANGO/src/tensorflow_lite/src/tensorflow/lite/kernels/internal\types.h ****     ReplaceWith(dimensions_count, dims_data);
 177:C:/Renesas/e2studio_2021_01_workspace_RZA2M_ANPR/ANPR_RZA2M_GR_MANGO/src/tensorflow_lite/src/tensorflow/lite/kernels/internal\types.h ****   }
 178:C:/Renesas/e2studio_2021_01_workspace_RZA2M_ANPR/ANPR_RZA2M_GR_MANGO/src/tensorflow_lite/src/tensorflow/lite/kernels/internal\types.h **** 
 179:C:/Renesas/e2studio_2021_01_workspace_RZA2M_ANPR/ANPR_RZA2M_GR_MANGO/src/tensorflow_lite/src/tensorflow/lite/kernels/internal\types.h ****   RuntimeShape(const std::initializer_list<int> init_list) : size_(0) {
 180:C:/Renesas/e2studio_2021_01_workspace_RZA2M_ANPR/ANPR_RZA2M_GR_MANGO/src/tensorflow_lite/src/tensorflow/lite/kernels/internal\types.h ****     BuildFrom(init_list);
 181:C:/Renesas/e2studio_2021_01_workspace_RZA2M_ANPR/ANPR_RZA2M_GR_MANGO/src/tensorflow_lite/src/tensorflow/lite/kernels/internal\types.h ****   }
 182:C:/Renesas/e2studio_2021_01_workspace_RZA2M_ANPR/ANPR_RZA2M_GR_MANGO/src/tensorflow_lite/src/tensorflow/lite/kernels/internal\types.h **** 
 183:C:/Renesas/e2studio_2021_01_workspace_RZA2M_ANPR/ANPR_RZA2M_GR_MANGO/src/tensorflow_lite/src/tensorflow/lite/kernels/internal\types.h ****   // Avoid using this constructor.  We should be able to delete it when C++17
 184:C:/Renesas/e2studio_2021_01_workspace_RZA2M_ANPR/ANPR_RZA2M_GR_MANGO/src/tensorflow_lite/src/tensorflow/lite/kernels/internal\types.h ****   // rolls out.
 185:C:/Renesas/e2studio_2021_01_workspace_RZA2M_ANPR/ANPR_RZA2M_GR_MANGO/src/tensorflow_lite/src/tensorflow/lite/kernels/internal\types.h ****   RuntimeShape(RuntimeShape const& other) : size_(other.DimensionsCount()) {
 186:C:/Renesas/e2studio_2021_01_workspace_RZA2M_ANPR/ANPR_RZA2M_GR_MANGO/src/tensorflow_lite/src/tensorflow/lite/kernels/internal\types.h ****     if (size_ > kMaxSmallSize) {
 187:C:/Renesas/e2studio_2021_01_workspace_RZA2M_ANPR/ANPR_RZA2M_GR_MANGO/src/tensorflow_lite/src/tensorflow/lite/kernels/internal\types.h **** #ifdef TF_LITE_STATIC_MEMORY
 188:C:/Renesas/e2studio_2021_01_workspace_RZA2M_ANPR/ANPR_RZA2M_GR_MANGO/src/tensorflow_lite/src/tensorflow/lite/kernels/internal\types.h ****       TFLITE_CHECK(false && "No shape resizing supported on this platform");
 189:C:/Renesas/e2studio_2021_01_workspace_RZA2M_ANPR/ANPR_RZA2M_GR_MANGO/src/tensorflow_lite/src/tensorflow/lite/kernels/internal\types.h **** #else
 190:C:/Renesas/e2studio_2021_01_workspace_RZA2M_ANPR/ANPR_RZA2M_GR_MANGO/src/tensorflow_lite/src/tensorflow/lite/kernels/internal\types.h ****       dims_pointer_ = new int32_t[size_];
 191:C:/Renesas/e2studio_2021_01_workspace_RZA2M_ANPR/ANPR_RZA2M_GR_MANGO/src/tensorflow_lite/src/tensorflow/lite/kernels/internal\types.h **** #endif
 192:C:/Renesas/e2studio_2021_01_workspace_RZA2M_ANPR/ANPR_RZA2M_GR_MANGO/src/tensorflow_lite/src/tensorflow/lite/kernels/internal\types.h ****     }
 193:C:/Renesas/e2studio_2021_01_workspace_RZA2M_ANPR/ANPR_RZA2M_GR_MANGO/src/tensorflow_lite/src/tensorflow/lite/kernels/internal\types.h ****     std::memcpy(DimsData(), other.DimsData(), sizeof(int32_t) * size_);
 194:C:/Renesas/e2studio_2021_01_workspace_RZA2M_ANPR/ANPR_RZA2M_GR_MANGO/src/tensorflow_lite/src/tensorflow/lite/kernels/internal\types.h ****   }
 195:C:/Renesas/e2studio_2021_01_workspace_RZA2M_ANPR/ANPR_RZA2M_GR_MANGO/src/tensorflow_lite/src/tensorflow/lite/kernels/internal\types.h **** 
 196:C:/Renesas/e2studio_2021_01_workspace_RZA2M_ANPR/ANPR_RZA2M_GR_MANGO/src/tensorflow_lite/src/tensorflow/lite/kernels/internal\types.h ****   bool operator==(const RuntimeShape& comp) const {
 197:C:/Renesas/e2studio_2021_01_workspace_RZA2M_ANPR/ANPR_RZA2M_GR_MANGO/src/tensorflow_lite/src/tensorflow/lite/kernels/internal\types.h ****     return this->size_ == comp.size_ &&
 198:C:/Renesas/e2studio_2021_01_workspace_RZA2M_ANPR/ANPR_RZA2M_GR_MANGO/src/tensorflow_lite/src/tensorflow/lite/kernels/internal\types.h ****            std::memcmp(DimsData(), comp.DimsData(), size_ * sizeof(int32_t)) ==
 199:C:/Renesas/e2studio_2021_01_workspace_RZA2M_ANPR/ANPR_RZA2M_GR_MANGO/src/tensorflow_lite/src/tensorflow/lite/kernels/internal\types.h ****                0;
 200:C:/Renesas/e2studio_2021_01_workspace_RZA2M_ANPR/ANPR_RZA2M_GR_MANGO/src/tensorflow_lite/src/tensorflow/lite/kernels/internal\types.h ****   }
 201:C:/Renesas/e2studio_2021_01_workspace_RZA2M_ANPR/ANPR_RZA2M_GR_MANGO/src/tensorflow_lite/src/tensorflow/lite/kernels/internal\types.h **** 
 202:C:/Renesas/e2studio_2021_01_workspace_RZA2M_ANPR/ANPR_RZA2M_GR_MANGO/src/tensorflow_lite/src/tensorflow/lite/kernels/internal\types.h ****   ~RuntimeShape() {
 203:C:/Renesas/e2studio_2021_01_workspace_RZA2M_ANPR/ANPR_RZA2M_GR_MANGO/src/tensorflow_lite/src/tensorflow/lite/kernels/internal\types.h ****     if (size_ > kMaxSmallSize) {
 204:C:/Renesas/e2studio_2021_01_workspace_RZA2M_ANPR/ANPR_RZA2M_GR_MANGO/src/tensorflow_lite/src/tensorflow/lite/kernels/internal\types.h **** #ifdef TF_LITE_STATIC_MEMORY
 205:C:/Renesas/e2studio_2021_01_workspace_RZA2M_ANPR/ANPR_RZA2M_GR_MANGO/src/tensorflow_lite/src/tensorflow/lite/kernels/internal\types.h ****       TFLITE_CHECK(false && "No shape resizing supported on this platform");
 206:C:/Renesas/e2studio_2021_01_workspace_RZA2M_ANPR/ANPR_RZA2M_GR_MANGO/src/tensorflow_lite/src/tensorflow/lite/kernels/internal\types.h **** #else  // TF_LITE_STATIC_MEMORY
 207:C:/Renesas/e2studio_2021_01_workspace_RZA2M_ANPR/ANPR_RZA2M_GR_MANGO/src/tensorflow_lite/src/tensorflow/lite/kernels/internal\types.h ****       delete[] dims_pointer_;
 208:C:/Renesas/e2studio_2021_01_workspace_RZA2M_ANPR/ANPR_RZA2M_GR_MANGO/src/tensorflow_lite/src/tensorflow/lite/kernels/internal\types.h **** #endif  // TF_LITE_STATIC_MEMORY
 209:C:/Renesas/e2studio_2021_01_workspace_RZA2M_ANPR/ANPR_RZA2M_GR_MANGO/src/tensorflow_lite/src/tensorflow/lite/kernels/internal\types.h ****     }
 210:C:/Renesas/e2studio_2021_01_workspace_RZA2M_ANPR/ANPR_RZA2M_GR_MANGO/src/tensorflow_lite/src/tensorflow/lite/kernels/internal\types.h ****   }
 211:C:/Renesas/e2studio_2021_01_workspace_RZA2M_ANPR/ANPR_RZA2M_GR_MANGO/src/tensorflow_lite/src/tensorflow/lite/kernels/internal\types.h **** 
 212:C:/Renesas/e2studio_2021_01_workspace_RZA2M_ANPR/ANPR_RZA2M_GR_MANGO/src/tensorflow_lite/src/tensorflow/lite/kernels/internal\types.h ****   inline int32_t DimensionsCount() const { return size_; }
 213:C:/Renesas/e2studio_2021_01_workspace_RZA2M_ANPR/ANPR_RZA2M_GR_MANGO/src/tensorflow_lite/src/tensorflow/lite/kernels/internal\types.h ****   inline int32_t Dims(int i) const {
 214:C:/Renesas/e2studio_2021_01_workspace_RZA2M_ANPR/ANPR_RZA2M_GR_MANGO/src/tensorflow_lite/src/tensorflow/lite/kernels/internal\types.h ****     TFLITE_DCHECK_GE(i, 0);
 215:C:/Renesas/e2studio_2021_01_workspace_RZA2M_ANPR/ANPR_RZA2M_GR_MANGO/src/tensorflow_lite/src/tensorflow/lite/kernels/internal\types.h ****     TFLITE_DCHECK_LT(i, size_);
 216:C:/Renesas/e2studio_2021_01_workspace_RZA2M_ANPR/ANPR_RZA2M_GR_MANGO/src/tensorflow_lite/src/tensorflow/lite/kernels/internal\types.h ****     return size_ > kMaxSmallSize ? dims_pointer_[i] : dims_[i];
 217:C:/Renesas/e2studio_2021_01_workspace_RZA2M_ANPR/ANPR_RZA2M_GR_MANGO/src/tensorflow_lite/src/tensorflow/lite/kernels/internal\types.h ****   }
 218:C:/Renesas/e2studio_2021_01_workspace_RZA2M_ANPR/ANPR_RZA2M_GR_MANGO/src/tensorflow_lite/src/tensorflow/lite/kernels/internal\types.h ****   inline void SetDim(int i, int32_t val) {
 219:C:/Renesas/e2studio_2021_01_workspace_RZA2M_ANPR/ANPR_RZA2M_GR_MANGO/src/tensorflow_lite/src/tensorflow/lite/kernels/internal\types.h ****     TFLITE_DCHECK_GE(i, 0);
 220:C:/Renesas/e2studio_2021_01_workspace_RZA2M_ANPR/ANPR_RZA2M_GR_MANGO/src/tensorflow_lite/src/tensorflow/lite/kernels/internal\types.h ****     TFLITE_DCHECK_LT(i, size_);
 221:C:/Renesas/e2studio_2021_01_workspace_RZA2M_ANPR/ANPR_RZA2M_GR_MANGO/src/tensorflow_lite/src/tensorflow/lite/kernels/internal\types.h ****     if (size_ > kMaxSmallSize) {
 222:C:/Renesas/e2studio_2021_01_workspace_RZA2M_ANPR/ANPR_RZA2M_GR_MANGO/src/tensorflow_lite/src/tensorflow/lite/kernels/internal\types.h ****       dims_pointer_[i] = val;
 223:C:/Renesas/e2studio_2021_01_workspace_RZA2M_ANPR/ANPR_RZA2M_GR_MANGO/src/tensorflow_lite/src/tensorflow/lite/kernels/internal\types.h ****     } else {
 224:C:/Renesas/e2studio_2021_01_workspace_RZA2M_ANPR/ANPR_RZA2M_GR_MANGO/src/tensorflow_lite/src/tensorflow/lite/kernels/internal\types.h ****       dims_[i] = val;
 225:C:/Renesas/e2studio_2021_01_workspace_RZA2M_ANPR/ANPR_RZA2M_GR_MANGO/src/tensorflow_lite/src/tensorflow/lite/kernels/internal\types.h ****     }
 226:C:/Renesas/e2studio_2021_01_workspace_RZA2M_ANPR/ANPR_RZA2M_GR_MANGO/src/tensorflow_lite/src/tensorflow/lite/kernels/internal\types.h ****   }
 227:C:/Renesas/e2studio_2021_01_workspace_RZA2M_ANPR/ANPR_RZA2M_GR_MANGO/src/tensorflow_lite/src/tensorflow/lite/kernels/internal\types.h **** 
 228:C:/Renesas/e2studio_2021_01_workspace_RZA2M_ANPR/ANPR_RZA2M_GR_MANGO/src/tensorflow_lite/src/tensorflow/lite/kernels/internal\types.h ****   inline int32_t* DimsData() {
 229:C:/Renesas/e2studio_2021_01_workspace_RZA2M_ANPR/ANPR_RZA2M_GR_MANGO/src/tensorflow_lite/src/tensorflow/lite/kernels/internal\types.h ****     return size_ > kMaxSmallSize ? dims_pointer_ : dims_;
 230:C:/Renesas/e2studio_2021_01_workspace_RZA2M_ANPR/ANPR_RZA2M_GR_MANGO/src/tensorflow_lite/src/tensorflow/lite/kernels/internal\types.h ****   }
 231:C:/Renesas/e2studio_2021_01_workspace_RZA2M_ANPR/ANPR_RZA2M_GR_MANGO/src/tensorflow_lite/src/tensorflow/lite/kernels/internal\types.h ****   inline const int32_t* DimsData() const {
 232:C:/Renesas/e2studio_2021_01_workspace_RZA2M_ANPR/ANPR_RZA2M_GR_MANGO/src/tensorflow_lite/src/tensorflow/lite/kernels/internal\types.h ****     return size_ > kMaxSmallSize ? dims_pointer_ : dims_;
 178              		.loc 4 232 0
 179 00b0 00C09DE5 		ldr	ip, [sp]
 180 00b4 05005CE3 		cmp	ip, #5
 181 00b8 900000CA 		bgt	.L80
 182              	.LVL16:
 183              	.LBE120:
 184              	.LBE119:
 185              	.LBB124:
 233:C:/Renesas/e2studio_2021_01_workspace_RZA2M_ANPR/ANPR_RZA2M_GR_MANGO/src/tensorflow_lite/src/tensorflow/lite/kernels/internal\types.h ****   }
 234:C:/Renesas/e2studio_2021_01_workspace_RZA2M_ANPR/ANPR_RZA2M_GR_MANGO/src/tensorflow_lite/src/tensorflow/lite/kernels/internal\types.h ****   // The caller must ensure that the shape is no bigger than 5-D.
 235:C:/Renesas/e2studio_2021_01_workspace_RZA2M_ANPR/ANPR_RZA2M_GR_MANGO/src/tensorflow_lite/src/tensorflow/lite/kernels/internal\types.h ****   inline const int32_t* DimsDataUpTo5D() const { return dims_; }
 236:C:/Renesas/e2studio_2021_01_workspace_RZA2M_ANPR/ANPR_RZA2M_GR_MANGO/src/tensorflow_lite/src/tensorflow/lite/kernels/internal\types.h **** 
 237:C:/Renesas/e2studio_2021_01_workspace_RZA2M_ANPR/ANPR_RZA2M_GR_MANGO/src/tensorflow_lite/src/tensorflow/lite/kernels/internal\types.h ****   inline void Resize(int dimensions_count) {
 238:C:/Renesas/e2studio_2021_01_workspace_RZA2M_ANPR/ANPR_RZA2M_GR_MANGO/src/tensorflow_lite/src/tensorflow/lite/kernels/internal\types.h ****     if (size_ > kMaxSmallSize) {
 239:C:/Renesas/e2studio_2021_01_workspace_RZA2M_ANPR/ANPR_RZA2M_GR_MANGO/src/tensorflow_lite/src/tensorflow/lite/kernels/internal\types.h **** #ifdef TF_LITE_STATIC_MEMORY
 240:C:/Renesas/e2studio_2021_01_workspace_RZA2M_ANPR/ANPR_RZA2M_GR_MANGO/src/tensorflow_lite/src/tensorflow/lite/kernels/internal\types.h ****       TFLITE_CHECK(false && "No shape resizing supported on this platform");
 241:C:/Renesas/e2studio_2021_01_workspace_RZA2M_ANPR/ANPR_RZA2M_GR_MANGO/src/tensorflow_lite/src/tensorflow/lite/kernels/internal\types.h **** #else  // TF_LITE_STATIC_MEMORY
 242:C:/Renesas/e2studio_2021_01_workspace_RZA2M_ANPR/ANPR_RZA2M_GR_MANGO/src/tensorflow_lite/src/tensorflow/lite/kernels/internal\types.h ****       delete[] dims_pointer_;
 243:C:/Renesas/e2studio_2021_01_workspace_RZA2M_ANPR/ANPR_RZA2M_GR_MANGO/src/tensorflow_lite/src/tensorflow/lite/kernels/internal\types.h **** #endif  // TF_LITE_STATIC_MEMORY
 244:C:/Renesas/e2studio_2021_01_workspace_RZA2M_ANPR/ANPR_RZA2M_GR_MANGO/src/tensorflow_lite/src/tensorflow/lite/kernels/internal\types.h ****     }
 245:C:/Renesas/e2studio_2021_01_workspace_RZA2M_ANPR/ANPR_RZA2M_GR_MANGO/src/tensorflow_lite/src/tensorflow/lite/kernels/internal\types.h ****     size_ = dimensions_count;
 246:C:/Renesas/e2studio_2021_01_workspace_RZA2M_ANPR/ANPR_RZA2M_GR_MANGO/src/tensorflow_lite/src/tensorflow/lite/kernels/internal\types.h ****     if (dimensions_count > kMaxSmallSize) {
 247:C:/Renesas/e2studio_2021_01_workspace_RZA2M_ANPR/ANPR_RZA2M_GR_MANGO/src/tensorflow_lite/src/tensorflow/lite/kernels/internal\types.h **** #ifdef TF_LITE_STATIC_MEMORY
 248:C:/Renesas/e2studio_2021_01_workspace_RZA2M_ANPR/ANPR_RZA2M_GR_MANGO/src/tensorflow_lite/src/tensorflow/lite/kernels/internal\types.h ****       TFLITE_CHECK(false && "No shape resizing supported on this platform");
 249:C:/Renesas/e2studio_2021_01_workspace_RZA2M_ANPR/ANPR_RZA2M_GR_MANGO/src/tensorflow_lite/src/tensorflow/lite/kernels/internal\types.h **** #else  // TF_LITE_STATIC_MEMORY
 250:C:/Renesas/e2studio_2021_01_workspace_RZA2M_ANPR/ANPR_RZA2M_GR_MANGO/src/tensorflow_lite/src/tensorflow/lite/kernels/internal\types.h ****       dims_pointer_ = new int32_t[dimensions_count];
 251:C:/Renesas/e2studio_2021_01_workspace_RZA2M_ANPR/ANPR_RZA2M_GR_MANGO/src/tensorflow_lite/src/tensorflow/lite/kernels/internal\types.h **** #endif  // TF_LITE_STATIC_MEMORY
 252:C:/Renesas/e2studio_2021_01_workspace_RZA2M_ANPR/ANPR_RZA2M_GR_MANGO/src/tensorflow_lite/src/tensorflow/lite/kernels/internal\types.h ****     }
 253:C:/Renesas/e2studio_2021_01_workspace_RZA2M_ANPR/ANPR_RZA2M_GR_MANGO/src/tensorflow_lite/src/tensorflow/lite/kernels/internal\types.h ****   }
 254:C:/Renesas/e2studio_2021_01_workspace_RZA2M_ANPR/ANPR_RZA2M_GR_MANGO/src/tensorflow_lite/src/tensorflow/lite/kernels/internal\types.h **** 
 255:C:/Renesas/e2studio_2021_01_workspace_RZA2M_ANPR/ANPR_RZA2M_GR_MANGO/src/tensorflow_lite/src/tensorflow/lite/kernels/internal\types.h ****   inline void ReplaceWith(int dimensions_count, const int32_t* dims_data) {
 256:C:/Renesas/e2studio_2021_01_workspace_RZA2M_ANPR/ANPR_RZA2M_GR_MANGO/src/tensorflow_lite/src/tensorflow/lite/kernels/internal\types.h ****     Resize(dimensions_count);
 257:C:/Renesas/e2studio_2021_01_workspace_RZA2M_ANPR/ANPR_RZA2M_GR_MANGO/src/tensorflow_lite/src/tensorflow/lite/kernels/internal\types.h ****     int32_t* dst_dims = DimsData();
 258:C:/Renesas/e2studio_2021_01_workspace_RZA2M_ANPR/ANPR_RZA2M_GR_MANGO/src/tensorflow_lite/src/tensorflow/lite/kernels/internal\types.h ****     std::memcpy(dst_dims, dims_data, dimensions_count * sizeof(int32_t));
 259:C:/Renesas/e2studio_2021_01_workspace_RZA2M_ANPR/ANPR_RZA2M_GR_MANGO/src/tensorflow_lite/src/tensorflow/lite/kernels/internal\types.h ****   }
 260:C:/Renesas/e2studio_2021_01_workspace_RZA2M_ANPR/ANPR_RZA2M_GR_MANGO/src/tensorflow_lite/src/tensorflow/lite/kernels/internal\types.h **** 
 261:C:/Renesas/e2studio_2021_01_workspace_RZA2M_ANPR/ANPR_RZA2M_GR_MANGO/src/tensorflow_lite/src/tensorflow/lite/kernels/internal\types.h ****   template <typename T>
 262:C:/Renesas/e2studio_2021_01_workspace_RZA2M_ANPR/ANPR_RZA2M_GR_MANGO/src/tensorflow_lite/src/tensorflow/lite/kernels/internal\types.h ****   inline void BuildFrom(const T& src_iterable) {
 263:C:/Renesas/e2studio_2021_01_workspace_RZA2M_ANPR/ANPR_RZA2M_GR_MANGO/src/tensorflow_lite/src/tensorflow/lite/kernels/internal\types.h ****     const int dimensions_count =
 264:C:/Renesas/e2studio_2021_01_workspace_RZA2M_ANPR/ANPR_RZA2M_GR_MANGO/src/tensorflow_lite/src/tensorflow/lite/kernels/internal\types.h ****         std::distance(src_iterable.begin(), src_iterable.end());
 265:C:/Renesas/e2studio_2021_01_workspace_RZA2M_ANPR/ANPR_RZA2M_GR_MANGO/src/tensorflow_lite/src/tensorflow/lite/kernels/internal\types.h ****     Resize(dimensions_count);
 266:C:/Renesas/e2studio_2021_01_workspace_RZA2M_ANPR/ANPR_RZA2M_GR_MANGO/src/tensorflow_lite/src/tensorflow/lite/kernels/internal\types.h ****     int32_t* data = DimsData();
 267:C:/Renesas/e2studio_2021_01_workspace_RZA2M_ANPR/ANPR_RZA2M_GR_MANGO/src/tensorflow_lite/src/tensorflow/lite/kernels/internal\types.h ****     for (auto it : src_iterable) {
 268:C:/Renesas/e2studio_2021_01_workspace_RZA2M_ANPR/ANPR_RZA2M_GR_MANGO/src/tensorflow_lite/src/tensorflow/lite/kernels/internal\types.h ****       *data = it;
 269:C:/Renesas/e2studio_2021_01_workspace_RZA2M_ANPR/ANPR_RZA2M_GR_MANGO/src/tensorflow_lite/src/tensorflow/lite/kernels/internal\types.h ****       ++data;
 270:C:/Renesas/e2studio_2021_01_workspace_RZA2M_ANPR/ANPR_RZA2M_GR_MANGO/src/tensorflow_lite/src/tensorflow/lite/kernels/internal\types.h ****     }
 271:C:/Renesas/e2studio_2021_01_workspace_RZA2M_ANPR/ANPR_RZA2M_GR_MANGO/src/tensorflow_lite/src/tensorflow/lite/kernels/internal\types.h ****   }
 272:C:/Renesas/e2studio_2021_01_workspace_RZA2M_ANPR/ANPR_RZA2M_GR_MANGO/src/tensorflow_lite/src/tensorflow/lite/kernels/internal\types.h **** 
 273:C:/Renesas/e2studio_2021_01_workspace_RZA2M_ANPR/ANPR_RZA2M_GR_MANGO/src/tensorflow_lite/src/tensorflow/lite/kernels/internal\types.h ****   // This will probably be factored out. Old code made substantial use of 4-D
 274:C:/Renesas/e2studio_2021_01_workspace_RZA2M_ANPR/ANPR_RZA2M_GR_MANGO/src/tensorflow_lite/src/tensorflow/lite/kernels/internal\types.h ****   // shapes, and so this function is used to extend smaller shapes. Note that
 275:C:/Renesas/e2studio_2021_01_workspace_RZA2M_ANPR/ANPR_RZA2M_GR_MANGO/src/tensorflow_lite/src/tensorflow/lite/kernels/internal\types.h ****   // (a) as Dims<4>-dependent code is eliminated, the reliance on this should be
 276:C:/Renesas/e2studio_2021_01_workspace_RZA2M_ANPR/ANPR_RZA2M_GR_MANGO/src/tensorflow_lite/src/tensorflow/lite/kernels/internal\types.h ****   // reduced, and (b) some kernels are stricly 4-D, but then the shapes of their
 277:C:/Renesas/e2studio_2021_01_workspace_RZA2M_ANPR/ANPR_RZA2M_GR_MANGO/src/tensorflow_lite/src/tensorflow/lite/kernels/internal\types.h ****   // inputs should already be 4-D, so this function should not be needed.
 278:C:/Renesas/e2studio_2021_01_workspace_RZA2M_ANPR/ANPR_RZA2M_GR_MANGO/src/tensorflow_lite/src/tensorflow/lite/kernels/internal\types.h ****   inline static RuntimeShape ExtendedShape(int new_shape_size,
 279:C:/Renesas/e2studio_2021_01_workspace_RZA2M_ANPR/ANPR_RZA2M_GR_MANGO/src/tensorflow_lite/src/tensorflow/lite/kernels/internal\types.h ****                                            const RuntimeShape& shape) {
 280:C:/Renesas/e2studio_2021_01_workspace_RZA2M_ANPR/ANPR_RZA2M_GR_MANGO/src/tensorflow_lite/src/tensorflow/lite/kernels/internal\types.h ****     return RuntimeShape(new_shape_size, shape, 1);
 281:C:/Renesas/e2studio_2021_01_workspace_RZA2M_ANPR/ANPR_RZA2M_GR_MANGO/src/tensorflow_lite/src/tensorflow/lite/kernels/internal\types.h ****   }
 282:C:/Renesas/e2studio_2021_01_workspace_RZA2M_ANPR/ANPR_RZA2M_GR_MANGO/src/tensorflow_lite/src/tensorflow/lite/kernels/internal\types.h **** 
 283:C:/Renesas/e2studio_2021_01_workspace_RZA2M_ANPR/ANPR_RZA2M_GR_MANGO/src/tensorflow_lite/src/tensorflow/lite/kernels/internal\types.h ****   inline void BuildFrom(const std::initializer_list<int> init_list) {
 284:C:/Renesas/e2studio_2021_01_workspace_RZA2M_ANPR/ANPR_RZA2M_GR_MANGO/src/tensorflow_lite/src/tensorflow/lite/kernels/internal\types.h ****     BuildFrom<const std::initializer_list<int>>(init_list);
 285:C:/Renesas/e2studio_2021_01_workspace_RZA2M_ANPR/ANPR_RZA2M_GR_MANGO/src/tensorflow_lite/src/tensorflow/lite/kernels/internal\types.h ****   }
 286:C:/Renesas/e2studio_2021_01_workspace_RZA2M_ANPR/ANPR_RZA2M_GR_MANGO/src/tensorflow_lite/src/tensorflow/lite/kernels/internal\types.h **** 
 287:C:/Renesas/e2studio_2021_01_workspace_RZA2M_ANPR/ANPR_RZA2M_GR_MANGO/src/tensorflow_lite/src/tensorflow/lite/kernels/internal\types.h ****   // Returns the total count of elements, that is the size when flattened into a
 288:C:/Renesas/e2studio_2021_01_workspace_RZA2M_ANPR/ANPR_RZA2M_GR_MANGO/src/tensorflow_lite/src/tensorflow/lite/kernels/internal\types.h ****   // vector.
 289:C:/Renesas/e2studio_2021_01_workspace_RZA2M_ANPR/ANPR_RZA2M_GR_MANGO/src/tensorflow_lite/src/tensorflow/lite/kernels/internal\types.h ****   inline int FlatSize() const {
 290:C:/Renesas/e2studio_2021_01_workspace_RZA2M_ANPR/ANPR_RZA2M_GR_MANGO/src/tensorflow_lite/src/tensorflow/lite/kernels/internal\types.h ****     int buffer_size = 1;
 291:C:/Renesas/e2studio_2021_01_workspace_RZA2M_ANPR/ANPR_RZA2M_GR_MANGO/src/tensorflow_lite/src/tensorflow/lite/kernels/internal\types.h ****     const int* dims_data = reinterpret_cast<const int*>(DimsData());
 292:C:/Renesas/e2studio_2021_01_workspace_RZA2M_ANPR/ANPR_RZA2M_GR_MANGO/src/tensorflow_lite/src/tensorflow/lite/kernels/internal\types.h ****     for (int i = 0; i < size_; i++) {
 186              		.loc 4 292 0
 187 00bc 00005CE3 		cmp	ip, #0
 188              	.LBE124:
 189              	.LBB125:
 190              	.LBB121:
 232:C:/Renesas/e2studio_2021_01_workspace_RZA2M_ANPR/ANPR_RZA2M_GR_MANGO/src/tensorflow_lite/src/tensorflow/lite/kernels/internal\types.h ****   }
 191              		.loc 4 232 0
 192 00c0 04508DC2 		addgt	r5, sp, #4
 193              	.LVL17:
 194              	.LBE121:
 195              	.LBE125:
 196              	.LBB126:
 197              		.loc 4 292 0
 198 00c4 BA0000DA 		ble	.L81
 199              	.L9:
 200 00c8 5521A0E7 		sbfx	r2, r5, #2, #1
 201 00cc 032002E2 		and	r2, r2, #3
 202 00d0 0C0052E1 		cmp	r2, ip
 203 00d4 0C20A021 		movcs	r2, ip
 204 00d8 08005CE3 		cmp	ip, #8
 205              	.LBE126:
 206              	.LBB127:
 207              	.LBB122:
 232:C:/Renesas/e2studio_2021_01_workspace_RZA2M_ANPR/ANPR_RZA2M_GR_MANGO/src/tensorflow_lite/src/tensorflow/lite/kernels/internal\types.h ****   }
 208              		.loc 4 232 0
 209 00dc 0C20A0D1 		movle	r2, ip
 210 00e0 8A0000CA 		bgt	.L82
 211              	.LVL18:
 212              	.L13:
 213 00e4 010052E3 		cmp	r2, #1
 214              	.LBE122:
 215              	.LBE127:
 216              	.LBB128:
 293:C:/Renesas/e2studio_2021_01_workspace_RZA2M_ANPR/ANPR_RZA2M_GR_MANGO/src/tensorflow_lite/src/tensorflow/lite/kernels/internal\types.h ****       buffer_size *= dims_data[i];
 217              		.loc 4 293 0
 218 00e8 003095E5 		ldr	r3, [r5]
 219              	.LVL19:
 220 00ec 8500000A 		beq	.L50
 221 00f0 041095E5 		ldr	r1, [r5, #4]
 222 00f4 020052E3 		cmp	r2, #2
 223 00f8 910303E0 		mul	r3, r1, r3
 224              	.LVL20:
 225 00fc 8100000A 		beq	.L50
 226 0100 081095E5 		ldr	r1, [r5, #8]
 227 0104 030052E3 		cmp	r2, #3
 228 0108 910303E0 		mul	r3, r1, r3
 229              	.LVL21:
 230 010c 7D00000A 		beq	.L50
 231 0110 0C1095E5 		ldr	r1, [r5, #12]
 232 0114 040052E3 		cmp	r2, #4
 233 0118 910303E0 		mul	r3, r1, r3
 234              	.LVL22:
 235 011c 7900000A 		beq	.L50
 236 0120 101095E5 		ldr	r1, [r5, #16]
 237 0124 050052E3 		cmp	r2, #5
 238 0128 910303E0 		mul	r3, r1, r3
 239              	.LVL23:
 240 012c 7500000A 		beq	.L50
 241 0130 141095E5 		ldr	r1, [r5, #20]
 242 0134 060052E3 		cmp	r2, #6
 243 0138 910303E0 		mul	r3, r1, r3
 244              	.LVL24:
 245 013c 7100000A 		beq	.L50
 246 0140 181095E5 		ldr	r1, [r5, #24]
 247 0144 070052E3 		cmp	r2, #7
 248 0148 910303E0 		mul	r3, r1, r3
 249              	.LVL25:
 250 014c 6D00000A 		beq	.L50
 251 0150 1C1095E5 		ldr	r1, [r5, #28]
 292:C:/Renesas/e2studio_2021_01_workspace_RZA2M_ANPR/ANPR_RZA2M_GR_MANGO/src/tensorflow_lite/src/tensorflow/lite/kernels/internal\types.h ****       buffer_size *= dims_data[i];
 252              		.loc 4 292 0
 253 0154 0860A0E3 		mov	r6, #8
 254              		.loc 4 293 0
 255 0158 910303E0 		mul	r3, r1, r3
 256              	.LVL26:
 257              	.L15:
 258 015c 02005CE1 		cmp	ip, r2
 259 0160 2800000A 		beq	.L16
 260              	.LVL27:
 261              	.L14:
 262 0164 02704CE0 		sub	r7, ip, r2
 263              	.LVL28:
 264 0168 01104CE2 		sub	r1, ip, #1
 265 016c 04E047E2 		sub	lr, r7, #4
 266 0170 021041E0 		sub	r1, r1, r2
 267 0174 2EE1A0E1 		lsr	lr, lr, #2
 268 0178 020051E3 		cmp	r1, #2
 269 017c 01E08EE2 		add	lr, lr, #1
 270 0180 0E81A0E1 		lsl	r8, lr, #2
 271 0184 1200009A 		bls	.L17
 272 0188 022185E0 		add	r2, r5, r2, lsl #2
 292:C:/Renesas/e2studio_2021_01_workspace_RZA2M_ANPR/ANPR_RZA2M_GR_MANGO/src/tensorflow_lite/src/tensorflow/lite/kernels/internal\types.h ****       buffer_size *= dims_data[i];
 273              		.loc 4 292 0
 274 018c 5100C0F2 		vmov.i32	q8, #1  @ v4si
 275 0190 0010A0E3 		mov	r1, #0
 276              	.L19:
 277 0194 011081E2 		add	r1, r1, #1
 278              		.loc 4 293 0
 279 0198 DF2A62F4 		vld1.64	{d18-d19}, [r2:64]
 280 019c 01005EE1 		cmp	lr, r1
 281 01a0 102082E2 		add	r2, r2, #16
 282 01a4 F20960F2 		vmul.i32	q8, q8, q9
 283 01a8 F9FFFF8A 		bhi	.L19
 284 01ac 080057E1 		cmp	r7, r8
 285 01b0 086086E0 		add	r6, r6, r8
 286 01b4 5020C0F2 		vmov.i32	q9, #0  @ v4si
 287 01b8 E248F0F2 		vext.32	q10, q8, q9, #2
 288 01bc F40960F2 		vmul.i32	q8, q8, q10
 289 01c0 E224F0F2 		vext.32	q9, q8, q9, #1
 290 01c4 F20960F2 		vmul.i32	q8, q8, q9
 291 01c8 901B10EE 		vmov.32	r1, d16[0]
 292 01cc 910303E0 		mul	r3, r1, r3
 293 01d0 0C00000A 		beq	.L16
 294              	.L17:
 295              	.LVL29:
 296 01d4 061195E7 		ldr	r1, [r5, r6, lsl #2]
 292:C:/Renesas/e2studio_2021_01_workspace_RZA2M_ANPR/ANPR_RZA2M_GR_MANGO/src/tensorflow_lite/src/tensorflow/lite/kernels/internal\types.h ****       buffer_size *= dims_data[i];
 297              		.loc 4 292 0
 298 01d8 012086E2 		add	r2, r6, #1
 299 01dc 02005CE1 		cmp	ip, r2
 300              		.loc 4 293 0
 301 01e0 0621A0E1 		lsl	r2, r6, #2
 302 01e4 910303E0 		mul	r3, r1, r3
 303              	.LVL30:
 292:C:/Renesas/e2studio_2021_01_workspace_RZA2M_ANPR/ANPR_RZA2M_GR_MANGO/src/tensorflow_lite/src/tensorflow/lite/kernels/internal\types.h ****       buffer_size *= dims_data[i];
 304              		.loc 4 292 0
 305 01e8 060000DA 		ble	.L16
 306              		.loc 4 293 0
 307 01ec 022085E0 		add	r2, r5, r2
 292:C:/Renesas/e2studio_2021_01_workspace_RZA2M_ANPR/ANPR_RZA2M_GR_MANGO/src/tensorflow_lite/src/tensorflow/lite/kernels/internal\types.h ****       buffer_size *= dims_data[i];
 308              		.loc 4 292 0
 309 01f0 021086E2 		add	r1, r6, #2
 310              		.loc 4 293 0
 311 01f4 04E092E5 		ldr	lr, [r2, #4]
 292:C:/Renesas/e2studio_2021_01_workspace_RZA2M_ANPR/ANPR_RZA2M_GR_MANGO/src/tensorflow_lite/src/tensorflow/lite/kernels/internal\types.h ****       buffer_size *= dims_data[i];
 312              		.loc 4 292 0
 313 01f8 01005CE1 		cmp	ip, r1
 314              		.loc 4 293 0
 315 01fc 9E0303E0 		mul	r3, lr, r3
 316              	.LVL31:
 292:C:/Renesas/e2studio_2021_01_workspace_RZA2M_ANPR/ANPR_RZA2M_GR_MANGO/src/tensorflow_lite/src/tensorflow/lite/kernels/internal\types.h ****       buffer_size *= dims_data[i];
 317              		.loc 4 292 0
 318              		.loc 4 293 0
 319 0200 082092C5 		ldrgt	r2, [r2, #8]
 320 0204 920303C0 		mulgt	r3, r2, r3
 321              	.LVL32:
 322              	.L16:
 323              	.LBE128:
 324              	.LBE118:
 325              	.LBE117:
 326              	.LBB134:
  29:C:/Renesas/e2studio_2021_01_workspace_RZA2M_ANPR/ANPR_RZA2M_GR_MANGO/src/tensorflow_lite/src/tensorflow/lite/kernels/internal/reference\fill.h ****   const int flat_size = output_shape.FlatSize();
  30:C:/Renesas/e2studio_2021_01_workspace_RZA2M_ANPR/ANPR_RZA2M_GR_MANGO/src/tensorflow_lite/src/tensorflow/lite/kernels/internal/reference\fill.h ****   for (int i = 0; i < flat_size; ++i) {
 327              		.loc 3 30 0
 328 0208 000053E3 		cmp	r3, #0
 329 020c 2B0000DA 		ble	.L29
 330              	.LVL33:
 331              	.L10:
 332 0210 04E080E1 		orr	lr, r0, r4
 333 0214 090053E3 		cmp	r3, #9
 334 0218 031180E0 		add	r1, r0, r3, lsl #2
 335 021c 5EE0E3E7 		ubfx	lr, lr, #0, #4
 336 0220 042084E2 		add	r2, r4, #4
 337 0224 0050A093 		movls	r5, #0
 338 0228 0150A083 		movhi	r5, #1
 339 022c 00005EE3 		cmp	lr, #0
 340 0230 0050A013 		movne	r5, #0
 341 0234 020050E1 		cmp	r0, r2
 342 0238 01005431 		cmpcc	r4, r1
 343 023c 0120A023 		movcs	r2, #1
 344 0240 0020A033 		movcc	r2, #0
 345 0244 052012E0 		ands	r2, r2, r5
 346 0248 3700000A 		beq	.L23
 347 024c 042043E2 		sub	r2, r3, #4
 348 0250 030053E3 		cmp	r3, #3
 349 0254 2221A0E1 		lsr	r2, r2, #2
 350 0258 012082E2 		add	r2, r2, #1
 351 025c 0211A0E1 		lsl	r1, r2, #2
 352 0260 2F0000DA 		ble	.L51
 353 0264 AF0CE4F4 		vld1.32	{d16[], d17[]}, [r4]
 354              	.LBE134:
 355              	.LBB135:
 356              	.LBB131:
 290:C:/Renesas/e2studio_2021_01_workspace_RZA2M_ANPR/ANPR_RZA2M_GR_MANGO/src/tensorflow_lite/src/tensorflow/lite/kernels/internal\types.h ****     const int* dims_data = reinterpret_cast<const int*>(DimsData());
 357              		.loc 4 290 0
 358 0268 0050A0E1 		mov	r5, r0
 359 026c 00E0A0E3 		mov	lr, #0
 360              	.LVL34:
 361              	.L26:
 362 0270 01E08EE2 		add	lr, lr, #1
 363              	.LBE131:
 364              	.LBE135:
 365              	.LBB136:
  31:C:/Renesas/e2studio_2021_01_workspace_RZA2M_ANPR/ANPR_RZA2M_GR_MANGO/src/tensorflow_lite/src/tensorflow/lite/kernels/internal/reference\fill.h ****     output_data[i] = *value_data;
 366              		.loc 3 31 0
 367 0274 DF0A45F4 		vst1.64	{d16-d17}, [r5:64]
 368 0278 0E0052E1 		cmp	r2, lr
 369 027c 105085E2 		add	r5, r5, #16
 370 0280 FAFFFF8A 		bhi	.L26
 371 0284 010053E1 		cmp	r3, r1
 372 0288 0120A0E1 		mov	r2, r1
 373 028c 0B00000A 		beq	.L29
 374              	.L24:
 375 0290 00E094E5 		ldr	lr, [r4]	@ float
  30:C:/Renesas/e2studio_2021_01_workspace_RZA2M_ANPR/ANPR_RZA2M_GR_MANGO/src/tensorflow_lite/src/tensorflow/lite/kernels/internal/reference\fill.h ****     output_data[i] = *value_data;
 376              		.loc 3 30 0
 377 0294 011082E2 		add	r1, r2, #1
 378              		.loc 3 31 0
 379 0298 020180E0 		add	r0, r0, r2, lsl #2
 380              	.LVL35:
  30:C:/Renesas/e2studio_2021_01_workspace_RZA2M_ANPR/ANPR_RZA2M_GR_MANGO/src/tensorflow_lite/src/tensorflow/lite/kernels/internal/reference\fill.h ****     output_data[i] = *value_data;
 381              		.loc 3 30 0
 382 029c 010053E1 		cmp	r3, r1
 383              		.loc 3 31 0
 384 02a0 00E080E5 		str	lr, [r0]	@ float
  30:C:/Renesas/e2studio_2021_01_workspace_RZA2M_ANPR/ANPR_RZA2M_GR_MANGO/src/tensorflow_lite/src/tensorflow/lite/kernels/internal/reference\fill.h ****     output_data[i] = *value_data;
 385              		.loc 3 30 0
 386 02a4 050000DA 		ble	.L29
 387 02a8 022082E2 		add	r2, r2, #2
 388              		.loc 3 31 0
 389 02ac 001094E5 		ldr	r1, [r4]	@ float
  30:C:/Renesas/e2studio_2021_01_workspace_RZA2M_ANPR/ANPR_RZA2M_GR_MANGO/src/tensorflow_lite/src/tensorflow/lite/kernels/internal/reference\fill.h ****     output_data[i] = *value_data;
 390              		.loc 3 30 0
 391 02b0 020053E1 		cmp	r3, r2
 392              		.loc 3 31 0
 393 02b4 041080E5 		str	r1, [r0, #4]	@ float
  30:C:/Renesas/e2studio_2021_01_workspace_RZA2M_ANPR/ANPR_RZA2M_GR_MANGO/src/tensorflow_lite/src/tensorflow/lite/kernels/internal/reference\fill.h ****     output_data[i] = *value_data;
 394              		.loc 3 30 0
 395              		.loc 3 31 0
 396 02b8 003094C5 		ldrgt	r3, [r4]	@ float
 397 02bc 083080C5 		strgt	r3, [r0, #8]	@ float
 398              	.L29:
 399              	.LVL36:
 400              	.LBE136:
 401              	.LBE140:
 402              	.LBE145:
 403              	.LBB146:
 404              	.LBB147:
 203:C:/Renesas/e2studio_2021_01_workspace_RZA2M_ANPR/ANPR_RZA2M_GR_MANGO/src/tensorflow_lite/src/tensorflow/lite/kernels/internal\types.h **** #ifdef TF_LITE_STATIC_MEMORY
 405              		.loc 4 203 0
 406 02c0 05005CE3 		cmp	ip, #5
 407 02c4 0A0000DA 		ble	.L34
 207:C:/Renesas/e2studio_2021_01_workspace_RZA2M_ANPR/ANPR_RZA2M_GR_MANGO/src/tensorflow_lite/src/tensorflow/lite/kernels/internal\types.h **** #endif  // TF_LITE_STATIC_MEMORY
 408              		.loc 4 207 0
 409 02c8 04009DE5 		ldr	r0, [sp, #4]
 410 02cc 000050E3 		cmp	r0, #0
 411 02d0 0700000A 		beq	.L34
 412 02d4 FEFFFFEB 		bl	_ZdaPv
 413              	.LVL37:
 414 02d8 18309DE5 		ldr	r3, [sp, #24]
 415              	.LVL38:
 416              	.LBE147:
 417              	.LBE146:
 418              	.LBB148:
 419              	.LBB149:
 203:C:/Renesas/e2studio_2021_01_workspace_RZA2M_ANPR/ANPR_RZA2M_GR_MANGO/src/tensorflow_lite/src/tensorflow/lite/kernels/internal\types.h **** #ifdef TF_LITE_STATIC_MEMORY
 420              		.loc 4 203 0
 421 02dc 050053E3 		cmp	r3, #5
 422 02e0 030000DA 		ble	.L34
 207:C:/Renesas/e2studio_2021_01_workspace_RZA2M_ANPR/ANPR_RZA2M_GR_MANGO/src/tensorflow_lite/src/tensorflow/lite/kernels/internal\types.h **** #endif  // TF_LITE_STATIC_MEMORY
 423              		.loc 4 207 0
 424 02e4 1C009DE5 		ldr	r0, [sp, #28]
 425 02e8 000050E3 		cmp	r0, #0
 426 02ec 0000000A 		beq	.L34
 427 02f0 FEFFFFEB 		bl	_ZdaPv
 428              	.LVL39:
 429              	.L34:
 430              	.LBE149:
 431              	.LBE148:
 432              	.LBE112:
 433              	.LBE111:
 115:../src/tensorflow_lite/src/tensorflow/lite/micro/kernels/fill.cpp **** }
 434              		.loc 1 115 0
 435 02f4 0000A0E3 		mov	r0, #0
 436              		.loc 1 116 0
 437 02f8 30D08DE2 		add	sp, sp, #48
 438              		.cfi_remember_state
 439              		.cfi_def_cfa_offset 24
 440              	.LVL40:
 441              		@ sp needed
 442 02fc F081BDE8 		pop	{r4, r5, r6, r7, r8, pc}
 443              	.LVL41:
 444              	.L80:
 445              		.cfi_restore_state
 446              	.LBB158:
 447              	.LBB156:
 448              	.LBB150:
 449              	.LBB141:
 450              	.LBB137:
 451              	.LBB132:
 452              	.LBB129:
 453              	.LBB123:
 232:C:/Renesas/e2studio_2021_01_workspace_RZA2M_ANPR/ANPR_RZA2M_GR_MANGO/src/tensorflow_lite/src/tensorflow/lite/kernels/internal\types.h ****   }
 454              		.loc 4 232 0
 455 0300 04509DE5 		ldr	r5, [sp, #4]
 456              	.LVL42:
 457 0304 6FFFFFEA 		b	.L9
 458              	.LVL43:
 459              	.L50:
 460              	.LBE123:
 461              	.LBE129:
 462              	.LBB130:
 292:C:/Renesas/e2studio_2021_01_workspace_RZA2M_ANPR/ANPR_RZA2M_GR_MANGO/src/tensorflow_lite/src/tensorflow/lite/kernels/internal\types.h ****       buffer_size *= dims_data[i];
 463              		.loc 4 292 0
 464 0308 0260A0E1 		mov	r6, r2
 465 030c 92FFFFEA 		b	.L15
 466              	.LVL44:
 467              	.L82:
 468 0310 000052E3 		cmp	r2, #0
 469 0314 0130A003 		moveq	r3, #1
 470 0318 0260A001 		moveq	r6, r2
 471              	.LVL45:
 472 031c 90FFFF0A 		beq	.L14
 473 0320 6FFFFFEA 		b	.L13
 474              	.LVL46:
 475              	.L51:
 476              	.LBE130:
 290:C:/Renesas/e2studio_2021_01_workspace_RZA2M_ANPR/ANPR_RZA2M_GR_MANGO/src/tensorflow_lite/src/tensorflow/lite/kernels/internal\types.h ****     const int* dims_data = reinterpret_cast<const int*>(DimsData());
 477              		.loc 4 290 0
 478 0324 0020A0E3 		mov	r2, #0
 479 0328 D8FFFFEA 		b	.L24
 480              	.L23:
 481 032c 080053E3 		cmp	r3, #8
 482 0330 180000DA 		ble	.L30
 483 0334 09E043E2 		sub	lr, r3, #9
 484 0338 741080E2 		add	r1, r0, #116
 485 033c 07E0CEE3 		bic	lr, lr, #7
 486 0340 08E08EE2 		add	lr, lr, #8
 487              	.LVL47:
 488              	.L31:
 489              	.LBE132:
 490              	.LBE137:
 491              	.LBB138:
 492              		.loc 3 31 0
 493 0344 005094E5 		ldr	r5, [r4]	@ float
 494 0348 082082E2 		add	r2, r2, #8
 495              	.LVL48:
 496 034c 0E0052E1 		cmp	r2, lr
 497 0350 00F0D1F5 		pld	[r1]
 498 0354 201081E2 		add	r1, r1, #32
 499 0358 945001E5 		str	r5, [r1, #-148]	@ float
 500              	.LVL49:
 501 035c 005094E5 		ldr	r5, [r4]	@ float
 502 0360 905001E5 		str	r5, [r1, #-144]	@ float
 503 0364 005094E5 		ldr	r5, [r4]	@ float
 504 0368 8C5001E5 		str	r5, [r1, #-140]	@ float
 505 036c 005094E5 		ldr	r5, [r4]	@ float
 506 0370 885001E5 		str	r5, [r1, #-136]	@ float
 507 0374 005094E5 		ldr	r5, [r4]	@ float
 508 0378 845001E5 		str	r5, [r1, #-132]	@ float
 509 037c 005094E5 		ldr	r5, [r4]	@ float
 510 0380 805001E5 		str	r5, [r1, #-128]	@ float
 511 0384 005094E5 		ldr	r5, [r4]	@ float
 512 0388 7C5001E5 		str	r5, [r1, #-124]	@ float
 513              	.LVL50:
 514 038c 005094E5 		ldr	r5, [r4]	@ float
 515 0390 785001E5 		str	r5, [r1, #-120]	@ float
 516 0394 EAFFFF1A 		bne	.L31
 517              	.LVL51:
 518              	.L30:
 519 0398 020180E0 		add	r0, r0, r2, lsl #2
 520              	.LVL52:
 521              	.L33:
  30:C:/Renesas/e2studio_2021_01_workspace_RZA2M_ANPR/ANPR_RZA2M_GR_MANGO/src/tensorflow_lite/src/tensorflow/lite/kernels/internal/reference\fill.h ****     output_data[i] = *value_data;
 522              		.loc 3 30 0
 523 039c 012082E2 		add	r2, r2, #1
 524              	.LVL53:
 525              		.loc 3 31 0
 526 03a0 001094E5 		ldr	r1, [r4]	@ float
  30:C:/Renesas/e2studio_2021_01_workspace_RZA2M_ANPR/ANPR_RZA2M_GR_MANGO/src/tensorflow_lite/src/tensorflow/lite/kernels/internal/reference\fill.h ****     output_data[i] = *value_data;
 527              		.loc 3 30 0
 528 03a4 020053E1 		cmp	r3, r2
 529              		.loc 3 31 0
 530 03a8 041080E4 		str	r1, [r0], #4	@ float
  30:C:/Renesas/e2studio_2021_01_workspace_RZA2M_ANPR/ANPR_RZA2M_GR_MANGO/src/tensorflow_lite/src/tensorflow/lite/kernels/internal/reference\fill.h ****     output_data[i] = *value_data;
 531              		.loc 3 30 0
 532 03ac FAFFFFCA 		bgt	.L33
 533 03b0 C2FFFFEA 		b	.L29
 534              	.LVL54:
 535              	.L81:
 536              	.LBE138:
 537              	.LBB139:
 538              	.LBB133:
 290:C:/Renesas/e2studio_2021_01_workspace_RZA2M_ANPR/ANPR_RZA2M_GR_MANGO/src/tensorflow_lite/src/tensorflow/lite/kernels/internal\types.h ****     const int* dims_data = reinterpret_cast<const int*>(DimsData());
 539              		.loc 4 290 0
 540 03b4 0130A0E3 		mov	r3, #1
 541 03b8 94FFFFEA 		b	.L10
 542              	.LVL55:
 543              	.L3:
 544              	.LEHB2:
 545              	.LBE133:
 546              	.LBE139:
 547              	.LBE141:
 548              	.LBE150:
 549              	.LBE156:
 550              	.LBE158:
 551              	.LBB159:
 552              	.LBB104:
 553              	.LBB101:
  34:C:/Renesas/e2studio_2021_01_workspace_RZA2M_ANPR/ANPR_RZA2M_GR_MANGO/src/tensorflow_lite/src/tensorflow/lite/micro/kernels\kernel_util.h ****   TFLITE_DCHECK(node != nullptr);
 554              		.loc 2 34 0
 555 03bc FEFFFFEB 		bl	abort
 556              	.LVL56:
 557              	.L53:
 558              	.L38:
 559              	.LBE101:
 560              	.LBE104:
 561              	.LBE159:
 562              	.LBB160:
 563              	.LBB157:
 564              	.LBB151:
 565              	.LBB152:
 203:C:/Renesas/e2studio_2021_01_workspace_RZA2M_ANPR/ANPR_RZA2M_GR_MANGO/src/tensorflow_lite/src/tensorflow/lite/kernels/internal\types.h **** #ifdef TF_LITE_STATIC_MEMORY
 566              		.loc 4 203 0
 567 03c0 18309DE5 		ldr	r3, [sp, #24]
 568 03c4 050053E3 		cmp	r3, #5
 569 03c8 030000DA 		ble	.L39
 207:C:/Renesas/e2studio_2021_01_workspace_RZA2M_ANPR/ANPR_RZA2M_GR_MANGO/src/tensorflow_lite/src/tensorflow/lite/kernels/internal\types.h **** #endif  // TF_LITE_STATIC_MEMORY
 570              		.loc 4 207 0
 571 03cc 1C009DE5 		ldr	r0, [sp, #28]
 572 03d0 000050E3 		cmp	r0, #0
 573 03d4 0000000A 		beq	.L39
 574 03d8 FEFFFFEB 		bl	_ZdaPv
 575              	.LVL57:
 576              	.L39:
 577 03dc FEFFFFEB 		bl	__cxa_end_cleanup
 578              	.LVL58:
 579              	.LEHE2:
 580              	.L79:
 581              	.LEHB3:
 582              	.LBE152:
 583              	.LBE151:
 584              	.LBB153:
 585              	.LBB142:
  28:C:/Renesas/e2studio_2021_01_workspace_RZA2M_ANPR/ANPR_RZA2M_GR_MANGO/src/tensorflow_lite/src/tensorflow/lite/kernels/internal/reference\fill.h ****   const int flat_size = output_shape.FlatSize();
 586              		.loc 3 28 0
 587 03e0 FEFFFFEB 		bl	abort
 588              	.LVL59:
 589              	.LEHE3:
 590              	.L54:
 591              	.LBE142:
 592              	.LBE153:
 593              	.LBB154:
 594              	.LBB155:
 203:C:/Renesas/e2studio_2021_01_workspace_RZA2M_ANPR/ANPR_RZA2M_GR_MANGO/src/tensorflow_lite/src/tensorflow/lite/kernels/internal\types.h **** #ifdef TF_LITE_STATIC_MEMORY
 595              		.loc 4 203 0
 596 03e4 00309DE5 		ldr	r3, [sp]
 597 03e8 050053E3 		cmp	r3, #5
 598 03ec F3FFFFDA 		ble	.L38
 207:C:/Renesas/e2studio_2021_01_workspace_RZA2M_ANPR/ANPR_RZA2M_GR_MANGO/src/tensorflow_lite/src/tensorflow/lite/kernels/internal\types.h **** #endif  // TF_LITE_STATIC_MEMORY
 599              		.loc 4 207 0
 600 03f0 04009DE5 		ldr	r0, [sp, #4]
 601 03f4 000050E3 		cmp	r0, #0
 602 03f8 F0FFFF0A 		beq	.L38
 603 03fc FEFFFFEB 		bl	_ZdaPv
 604              	.LVL60:
 605 0400 EEFFFFEA 		b	.L38
 606              	.LBE155:
 607              	.LBE154:
 608              	.LBE157:
 609              	.LBE160:
 610              		.cfi_endproc
 611              	.LFE1139:
 612              		.global	__gxx_personality_v0
 613              		.personality	__gxx_personality_v0
 614              		.handlerdata
 615              	.LLSDA1139:
 616 0008 FF       		.byte	0xff
 617 0009 FF       		.byte	0xff
 618 000a 01       		.byte	0x1
 619 000b 15       		.uleb128 .LLSDACSE1139-.LLSDACSB1139
 620              	.LLSDACSB1139:
 621 000c 28       		.uleb128 .LEHB0-.LFB1139
 622 000d 60       		.uleb128 .LEHE0-.LEHB0
 623 000e 00       		.uleb128 0
 624 000f 00       		.uleb128 0
 625 0010 9401     		.uleb128 .LEHB1-.LFB1139
 626 0012 04       		.uleb128 .LEHE1-.LEHB1
 627 0013 C007     		.uleb128 .L53-.LFB1139
 628 0015 00       		.uleb128 0
 629 0016 BC07     		.uleb128 .LEHB2-.LFB1139
 630 0018 24       		.uleb128 .LEHE2-.LEHB2
 631 0019 00       		.uleb128 0
 632 001a 00       		.uleb128 0
 633 001b E007     		.uleb128 .LEHB3-.LFB1139
 634 001d 04       		.uleb128 .LEHE3-.LEHB3
 635 001e E407     		.uleb128 .L54-.LFB1139
 636 0020 00       		.uleb128 0
 637              	.LLSDACSE1139:
 638              		.section	.text._ZN6tflite12_GLOBAL__N_14EvalEP13TfLiteContextP10TfLiteNode
 639              		.fnend
 641              		.section	.text._ZN6tflite12_GLOBAL__N_17PrepareEP13TfLiteContextP10TfLiteNode,"ax",%progbits
 642              		.align	2
 643              		.syntax unified
 644              		.arm
 645              		.fpu neon
 647              	_ZN6tflite12_GLOBAL__N_17PrepareEP13TfLiteContextP10TfLiteNode:
 648              		.fnstart
 649              	.LFB1137:
  69:../src/tensorflow_lite/src/tensorflow/lite/micro/kernels/fill.cpp ****   // Ensure inputs and outputs exist.
 650              		.loc 1 69 0
 651              		.cfi_startproc
 652              		@ args = 0, pretend = 0, frame = 16
 653              		@ frame_needed = 0, uses_anonymous_args = 0
 654              	.LVL61:
 655 0000 F0432DE9 		push	{r4, r5, r6, r7, r8, r9, lr}
 656              		.save {r4, r5, r6, r7, r8, r9, lr}
 657              		.cfi_def_cfa_offset 28
 658              		.cfi_offset 4, -28
 659              		.cfi_offset 5, -24
 660              		.cfi_offset 6, -20
 661              		.cfi_offset 7, -16
 662              		.cfi_offset 8, -12
 663              		.cfi_offset 9, -8
 664              		.cfi_offset 14, -4
 665              		.pad #44
 666 0004 2CD04DE2 		sub	sp, sp, #44
 667              		.cfi_def_cfa_offset 72
 668              	.LBB196:
  72:../src/tensorflow_lite/src/tensorflow/lite/micro/kernels/fill.cpp ****   const TfLiteTensor* value;
 669              		.loc 1 72 0
 670 0008 1C308DE2 		add	r3, sp, #28
 671 000c 0020A0E3 		mov	r2, #0
 672              	.LBE196:
  69:../src/tensorflow_lite/src/tensorflow/lite/micro/kernels/fill.cpp ****   // Ensure inputs and outputs exist.
 673              		.loc 1 69 0
 674 0010 0050A0E1 		mov	r5, r0
 675 0014 0140A0E1 		mov	r4, r1
 676              	.LBB197:
  72:../src/tensorflow_lite/src/tensorflow/lite/micro/kernels/fill.cpp ****   const TfLiteTensor* value;
 677              		.loc 1 72 0
 678 0018 FEFFFFEB 		bl	_ZN6tflite12GetInputSafeEPK13TfLiteContextPK10TfLiteNodeiPPK12TfLiteTensor
 679              	.LVL62:
 680 001c 000050E3 		cmp	r0, #0
 681              	.LVL63:
 682 0020 0100000A 		beq	.L160
 683              	.LVL64:
 684              	.L84:
 685              	.LBE197:
  90:../src/tensorflow_lite/src/tensorflow/lite/micro/kernels/fill.cpp **** 
 686              		.loc 1 90 0
 687 0024 2CD08DE2 		add	sp, sp, #44
 688              		.cfi_remember_state
 689              		.cfi_def_cfa_offset 28
 690              		@ sp needed
 691 0028 F083BDE8 		pop	{r4, r5, r6, r7, r8, r9, pc}
 692              	.LVL65:
 693              	.L160:
 694              		.cfi_restore_state
 695              	.LBB198:
  74:../src/tensorflow_lite/src/tensorflow/lite/micro/kernels/fill.cpp ****   TfLiteTensor* output;
 696              		.loc 1 74 0
 697 002c 0120A0E3 		mov	r2, #1
 698 0030 20308DE2 		add	r3, sp, #32
 699 0034 0410A0E1 		mov	r1, r4
 700 0038 0500A0E1 		mov	r0, r5
 701 003c FEFFFFEB 		bl	_ZN6tflite12GetInputSafeEPK13TfLiteContextPK10TfLiteNodeiPPK12TfLiteTensor
 702              	.LVL66:
 703 0040 002050E2 		subs	r2, r0, #0
 704 0044 0200A011 		movne	r0, r2
 705              	.LVL67:
 706 0048 F5FFFF1A 		bne	.L84
 707              	.LBE198:
 708              	.LBB199:
  76:../src/tensorflow_lite/src/tensorflow/lite/micro/kernels/fill.cpp ****                     GetOutputSafe(context, node, kOutputTensor, &output));
 709              		.loc 1 76 0
 710 004c 0410A0E1 		mov	r1, r4
 711 0050 24308DE2 		add	r3, sp, #36
 712 0054 0500A0E1 		mov	r0, r5
 713 0058 FEFFFFEB 		bl	_ZN6tflite13GetOutputSafeEPK13TfLiteContextPK10TfLiteNodeiPP12TfLiteTensor
 714              	.LVL68:
 715 005c 000050E3 		cmp	r0, #0
 716              	.LVL69:
 717 0060 EFFFFF1A 		bne	.L84
 718              	.LBE199:
  80:../src/tensorflow_lite/src/tensorflow/lite/micro/kernels/fill.cpp **** 
 719              		.loc 1 80 0
 720 0064 20209DE5 		ldr	r2, [sp, #32]
 721              	.LVL70:
 722              	.LBB200:
 723              	.LBB201:
 724              		.file 5 "C:/Renesas/e2studio_2021_01_workspace_RZA2M_ANPR/ANPR_RZA2M_GR_MANGO/src/tensorflow_lite/
   1:C:/Renesas/e2studio_2021_01_workspace_RZA2M_ANPR/ANPR_RZA2M_GR_MANGO/src/tensorflow_lite/src/tensorflow/lite/kernels\kernel_util.h **** /* Copyright 2017 The TensorFlow Authors. All Rights Reserved.
   2:C:/Renesas/e2studio_2021_01_workspace_RZA2M_ANPR/ANPR_RZA2M_GR_MANGO/src/tensorflow_lite/src/tensorflow/lite/kernels\kernel_util.h **** 
   3:C:/Renesas/e2studio_2021_01_workspace_RZA2M_ANPR/ANPR_RZA2M_GR_MANGO/src/tensorflow_lite/src/tensorflow/lite/kernels\kernel_util.h **** Licensed under the Apache License, Version 2.0 (the "License");
   4:C:/Renesas/e2studio_2021_01_workspace_RZA2M_ANPR/ANPR_RZA2M_GR_MANGO/src/tensorflow_lite/src/tensorflow/lite/kernels\kernel_util.h **** you may not use this file except in compliance with the License.
   5:C:/Renesas/e2studio_2021_01_workspace_RZA2M_ANPR/ANPR_RZA2M_GR_MANGO/src/tensorflow_lite/src/tensorflow/lite/kernels\kernel_util.h **** You may obtain a copy of the License at
   6:C:/Renesas/e2studio_2021_01_workspace_RZA2M_ANPR/ANPR_RZA2M_GR_MANGO/src/tensorflow_lite/src/tensorflow/lite/kernels\kernel_util.h **** 
   7:C:/Renesas/e2studio_2021_01_workspace_RZA2M_ANPR/ANPR_RZA2M_GR_MANGO/src/tensorflow_lite/src/tensorflow/lite/kernels\kernel_util.h ****     http://www.apache.org/licenses/LICENSE-2.0
   8:C:/Renesas/e2studio_2021_01_workspace_RZA2M_ANPR/ANPR_RZA2M_GR_MANGO/src/tensorflow_lite/src/tensorflow/lite/kernels\kernel_util.h **** 
   9:C:/Renesas/e2studio_2021_01_workspace_RZA2M_ANPR/ANPR_RZA2M_GR_MANGO/src/tensorflow_lite/src/tensorflow/lite/kernels\kernel_util.h **** Unless required by applicable law or agreed to in writing, software
  10:C:/Renesas/e2studio_2021_01_workspace_RZA2M_ANPR/ANPR_RZA2M_GR_MANGO/src/tensorflow_lite/src/tensorflow/lite/kernels\kernel_util.h **** distributed under the License is distributed on an "AS IS" BASIS,
  11:C:/Renesas/e2studio_2021_01_workspace_RZA2M_ANPR/ANPR_RZA2M_GR_MANGO/src/tensorflow_lite/src/tensorflow/lite/kernels\kernel_util.h **** WITHOUT WARRANTIES OR CONDITIONS OF ANY KIND, either express or implied.
  12:C:/Renesas/e2studio_2021_01_workspace_RZA2M_ANPR/ANPR_RZA2M_GR_MANGO/src/tensorflow_lite/src/tensorflow/lite/kernels\kernel_util.h **** See the License for the specific language governing permissions and
  13:C:/Renesas/e2studio_2021_01_workspace_RZA2M_ANPR/ANPR_RZA2M_GR_MANGO/src/tensorflow_lite/src/tensorflow/lite/kernels\kernel_util.h **** limitations under the License.
  14:C:/Renesas/e2studio_2021_01_workspace_RZA2M_ANPR/ANPR_RZA2M_GR_MANGO/src/tensorflow_lite/src/tensorflow/lite/kernels\kernel_util.h **** ==============================================================================*/
  15:C:/Renesas/e2studio_2021_01_workspace_RZA2M_ANPR/ANPR_RZA2M_GR_MANGO/src/tensorflow_lite/src/tensorflow/lite/kernels\kernel_util.h **** #ifndef TENSORFLOW_LITE_KERNELS_KERNEL_UTIL_H_
  16:C:/Renesas/e2studio_2021_01_workspace_RZA2M_ANPR/ANPR_RZA2M_GR_MANGO/src/tensorflow_lite/src/tensorflow/lite/kernels\kernel_util.h **** #define TENSORFLOW_LITE_KERNELS_KERNEL_UTIL_H_
  17:C:/Renesas/e2studio_2021_01_workspace_RZA2M_ANPR/ANPR_RZA2M_GR_MANGO/src/tensorflow_lite/src/tensorflow/lite/kernels\kernel_util.h **** 
  18:C:/Renesas/e2studio_2021_01_workspace_RZA2M_ANPR/ANPR_RZA2M_GR_MANGO/src/tensorflow_lite/src/tensorflow/lite/kernels\kernel_util.h **** #include <stdint.h>
  19:C:/Renesas/e2studio_2021_01_workspace_RZA2M_ANPR/ANPR_RZA2M_GR_MANGO/src/tensorflow_lite/src/tensorflow/lite/kernels\kernel_util.h **** 
  20:C:/Renesas/e2studio_2021_01_workspace_RZA2M_ANPR/ANPR_RZA2M_GR_MANGO/src/tensorflow_lite/src/tensorflow/lite/kernels\kernel_util.h **** #include <limits>
  21:C:/Renesas/e2studio_2021_01_workspace_RZA2M_ANPR/ANPR_RZA2M_GR_MANGO/src/tensorflow_lite/src/tensorflow/lite/kernels\kernel_util.h **** 
  22:C:/Renesas/e2studio_2021_01_workspace_RZA2M_ANPR/ANPR_RZA2M_GR_MANGO/src/tensorflow_lite/src/tensorflow/lite/kernels\kernel_util.h **** #include "tensorflow/lite/c/builtin_op_data.h"
  23:C:/Renesas/e2studio_2021_01_workspace_RZA2M_ANPR/ANPR_RZA2M_GR_MANGO/src/tensorflow_lite/src/tensorflow/lite/kernels\kernel_util.h **** #include "tensorflow/lite/c/common.h"
  24:C:/Renesas/e2studio_2021_01_workspace_RZA2M_ANPR/ANPR_RZA2M_GR_MANGO/src/tensorflow_lite/src/tensorflow/lite/kernels\kernel_util.h **** 
  25:C:/Renesas/e2studio_2021_01_workspace_RZA2M_ANPR/ANPR_RZA2M_GR_MANGO/src/tensorflow_lite/src/tensorflow/lite/kernels\kernel_util.h **** namespace tflite {
  26:C:/Renesas/e2studio_2021_01_workspace_RZA2M_ANPR/ANPR_RZA2M_GR_MANGO/src/tensorflow_lite/src/tensorflow/lite/kernels\kernel_util.h **** 
  27:C:/Renesas/e2studio_2021_01_workspace_RZA2M_ANPR/ANPR_RZA2M_GR_MANGO/src/tensorflow_lite/src/tensorflow/lite/kernels\kernel_util.h **** // A fair number of functions in this header have historically been inline.
  28:C:/Renesas/e2studio_2021_01_workspace_RZA2M_ANPR/ANPR_RZA2M_GR_MANGO/src/tensorflow_lite/src/tensorflow/lite/kernels\kernel_util.h **** // It is ok to change functions to not be inline if the latency with
  29:C:/Renesas/e2studio_2021_01_workspace_RZA2M_ANPR/ANPR_RZA2M_GR_MANGO/src/tensorflow_lite/src/tensorflow/lite/kernels\kernel_util.h **** // benchmark_model for MobileNet + MobileBERT is unaffected. If such a change is
  30:C:/Renesas/e2studio_2021_01_workspace_RZA2M_ANPR/ANPR_RZA2M_GR_MANGO/src/tensorflow_lite/src/tensorflow/lite/kernels\kernel_util.h **** // made, move the newly non-inlined function declarations to the top of this
  31:C:/Renesas/e2studio_2021_01_workspace_RZA2M_ANPR/ANPR_RZA2M_GR_MANGO/src/tensorflow_lite/src/tensorflow/lite/kernels\kernel_util.h **** // header file.
  32:C:/Renesas/e2studio_2021_01_workspace_RZA2M_ANPR/ANPR_RZA2M_GR_MANGO/src/tensorflow_lite/src/tensorflow/lite/kernels\kernel_util.h **** 
  33:C:/Renesas/e2studio_2021_01_workspace_RZA2M_ANPR/ANPR_RZA2M_GR_MANGO/src/tensorflow_lite/src/tensorflow/lite/kernels\kernel_util.h **** // Note: You must check if result is not null:
  34:C:/Renesas/e2studio_2021_01_workspace_RZA2M_ANPR/ANPR_RZA2M_GR_MANGO/src/tensorflow_lite/src/tensorflow/lite/kernels\kernel_util.h **** //
  35:C:/Renesas/e2studio_2021_01_workspace_RZA2M_ANPR/ANPR_RZA2M_GR_MANGO/src/tensorflow_lite/src/tensorflow/lite/kernels\kernel_util.h **** //   TfLiteTensor* my_tensor = GetInput(context, node, kMyTensorIdx);
  36:C:/Renesas/e2studio_2021_01_workspace_RZA2M_ANPR/ANPR_RZA2M_GR_MANGO/src/tensorflow_lite/src/tensorflow/lite/kernels\kernel_util.h **** //   TF_LITE_ENSURE(context, my_tensor != nullptr);
  37:C:/Renesas/e2studio_2021_01_workspace_RZA2M_ANPR/ANPR_RZA2M_GR_MANGO/src/tensorflow_lite/src/tensorflow/lite/kernels\kernel_util.h **** //
  38:C:/Renesas/e2studio_2021_01_workspace_RZA2M_ANPR/ANPR_RZA2M_GR_MANGO/src/tensorflow_lite/src/tensorflow/lite/kernels\kernel_util.h **** // This is because the index might point to the optional tensor constant
  39:C:/Renesas/e2studio_2021_01_workspace_RZA2M_ANPR/ANPR_RZA2M_GR_MANGO/src/tensorflow_lite/src/tensorflow/lite/kernels\kernel_util.h **** // (kTfLiteOptionalTensor) in which case there is no tensor to return.
  40:C:/Renesas/e2studio_2021_01_workspace_RZA2M_ANPR/ANPR_RZA2M_GR_MANGO/src/tensorflow_lite/src/tensorflow/lite/kernels\kernel_util.h **** const TfLiteTensor* GetInput(const TfLiteContext* context,
  41:C:/Renesas/e2studio_2021_01_workspace_RZA2M_ANPR/ANPR_RZA2M_GR_MANGO/src/tensorflow_lite/src/tensorflow/lite/kernels\kernel_util.h ****                              const TfLiteNode* node, int index);
  42:C:/Renesas/e2studio_2021_01_workspace_RZA2M_ANPR/ANPR_RZA2M_GR_MANGO/src/tensorflow_lite/src/tensorflow/lite/kernels\kernel_util.h **** 
  43:C:/Renesas/e2studio_2021_01_workspace_RZA2M_ANPR/ANPR_RZA2M_GR_MANGO/src/tensorflow_lite/src/tensorflow/lite/kernels\kernel_util.h **** // Same as `GetInput` but returns boolean and uses output argument for tensor.
  44:C:/Renesas/e2studio_2021_01_workspace_RZA2M_ANPR/ANPR_RZA2M_GR_MANGO/src/tensorflow_lite/src/tensorflow/lite/kernels\kernel_util.h **** //
  45:C:/Renesas/e2studio_2021_01_workspace_RZA2M_ANPR/ANPR_RZA2M_GR_MANGO/src/tensorflow_lite/src/tensorflow/lite/kernels\kernel_util.h **** //   TfLiteTensor* my_tensor;
  46:C:/Renesas/e2studio_2021_01_workspace_RZA2M_ANPR/ANPR_RZA2M_GR_MANGO/src/tensorflow_lite/src/tensorflow/lite/kernels\kernel_util.h **** //   TF_LITE_ENSURE_OK(context,
  47:C:/Renesas/e2studio_2021_01_workspace_RZA2M_ANPR/ANPR_RZA2M_GR_MANGO/src/tensorflow_lite/src/tensorflow/lite/kernels\kernel_util.h **** //                     GetInputSafe(context, node, kMyTensorIdx, &my_tensor));
  48:C:/Renesas/e2studio_2021_01_workspace_RZA2M_ANPR/ANPR_RZA2M_GR_MANGO/src/tensorflow_lite/src/tensorflow/lite/kernels\kernel_util.h **** //   // can use my_tensor directly from here onwards, it is not nullptr
  49:C:/Renesas/e2studio_2021_01_workspace_RZA2M_ANPR/ANPR_RZA2M_GR_MANGO/src/tensorflow_lite/src/tensorflow/lite/kernels\kernel_util.h **** //
  50:C:/Renesas/e2studio_2021_01_workspace_RZA2M_ANPR/ANPR_RZA2M_GR_MANGO/src/tensorflow_lite/src/tensorflow/lite/kernels\kernel_util.h **** // Should be used in cases where the binary size is too large.
  51:C:/Renesas/e2studio_2021_01_workspace_RZA2M_ANPR/ANPR_RZA2M_GR_MANGO/src/tensorflow_lite/src/tensorflow/lite/kernels\kernel_util.h **** TfLiteStatus GetInputSafe(const TfLiteContext* context, const TfLiteNode* node,
  52:C:/Renesas/e2studio_2021_01_workspace_RZA2M_ANPR/ANPR_RZA2M_GR_MANGO/src/tensorflow_lite/src/tensorflow/lite/kernels\kernel_util.h ****                           int index, const TfLiteTensor** tensor);
  53:C:/Renesas/e2studio_2021_01_workspace_RZA2M_ANPR/ANPR_RZA2M_GR_MANGO/src/tensorflow_lite/src/tensorflow/lite/kernels\kernel_util.h **** 
  54:C:/Renesas/e2studio_2021_01_workspace_RZA2M_ANPR/ANPR_RZA2M_GR_MANGO/src/tensorflow_lite/src/tensorflow/lite/kernels\kernel_util.h **** // Note: You must check if result is not null:
  55:C:/Renesas/e2studio_2021_01_workspace_RZA2M_ANPR/ANPR_RZA2M_GR_MANGO/src/tensorflow_lite/src/tensorflow/lite/kernels\kernel_util.h **** //
  56:C:/Renesas/e2studio_2021_01_workspace_RZA2M_ANPR/ANPR_RZA2M_GR_MANGO/src/tensorflow_lite/src/tensorflow/lite/kernels\kernel_util.h **** //   TfLiteTensor* my_tensor = GetVariableInput(context, node, kMyTensorIdx);
  57:C:/Renesas/e2studio_2021_01_workspace_RZA2M_ANPR/ANPR_RZA2M_GR_MANGO/src/tensorflow_lite/src/tensorflow/lite/kernels\kernel_util.h **** //   TF_LITE_ENSURE(context, my_tensor != nullptr);
  58:C:/Renesas/e2studio_2021_01_workspace_RZA2M_ANPR/ANPR_RZA2M_GR_MANGO/src/tensorflow_lite/src/tensorflow/lite/kernels\kernel_util.h **** //
  59:C:/Renesas/e2studio_2021_01_workspace_RZA2M_ANPR/ANPR_RZA2M_GR_MANGO/src/tensorflow_lite/src/tensorflow/lite/kernels\kernel_util.h **** // This is because the index might point to the optional tensor constant
  60:C:/Renesas/e2studio_2021_01_workspace_RZA2M_ANPR/ANPR_RZA2M_GR_MANGO/src/tensorflow_lite/src/tensorflow/lite/kernels\kernel_util.h **** // (kTfLiteOptionalTensor) in which case there is no tensor to return.
  61:C:/Renesas/e2studio_2021_01_workspace_RZA2M_ANPR/ANPR_RZA2M_GR_MANGO/src/tensorflow_lite/src/tensorflow/lite/kernels\kernel_util.h **** TfLiteTensor* GetVariableInput(TfLiteContext* context, const TfLiteNode* node,
  62:C:/Renesas/e2studio_2021_01_workspace_RZA2M_ANPR/ANPR_RZA2M_GR_MANGO/src/tensorflow_lite/src/tensorflow/lite/kernels\kernel_util.h ****                                int index);
  63:C:/Renesas/e2studio_2021_01_workspace_RZA2M_ANPR/ANPR_RZA2M_GR_MANGO/src/tensorflow_lite/src/tensorflow/lite/kernels\kernel_util.h **** 
  64:C:/Renesas/e2studio_2021_01_workspace_RZA2M_ANPR/ANPR_RZA2M_GR_MANGO/src/tensorflow_lite/src/tensorflow/lite/kernels\kernel_util.h **** // Note: You must check if result is not null:
  65:C:/Renesas/e2studio_2021_01_workspace_RZA2M_ANPR/ANPR_RZA2M_GR_MANGO/src/tensorflow_lite/src/tensorflow/lite/kernels\kernel_util.h **** //
  66:C:/Renesas/e2studio_2021_01_workspace_RZA2M_ANPR/ANPR_RZA2M_GR_MANGO/src/tensorflow_lite/src/tensorflow/lite/kernels\kernel_util.h **** //   TfLiteTensor* my_tensor = GetOutput(context, node, kMyTensorIdx);
  67:C:/Renesas/e2studio_2021_01_workspace_RZA2M_ANPR/ANPR_RZA2M_GR_MANGO/src/tensorflow_lite/src/tensorflow/lite/kernels\kernel_util.h **** //   TF_LITE_ENSURE(context, my_tensor != nullptr);
  68:C:/Renesas/e2studio_2021_01_workspace_RZA2M_ANPR/ANPR_RZA2M_GR_MANGO/src/tensorflow_lite/src/tensorflow/lite/kernels\kernel_util.h **** //
  69:C:/Renesas/e2studio_2021_01_workspace_RZA2M_ANPR/ANPR_RZA2M_GR_MANGO/src/tensorflow_lite/src/tensorflow/lite/kernels\kernel_util.h **** // This is because the index might point to the optional tensor constant
  70:C:/Renesas/e2studio_2021_01_workspace_RZA2M_ANPR/ANPR_RZA2M_GR_MANGO/src/tensorflow_lite/src/tensorflow/lite/kernels\kernel_util.h **** // (kTfLiteOptionalTensor) in which case there is no tensor to return.
  71:C:/Renesas/e2studio_2021_01_workspace_RZA2M_ANPR/ANPR_RZA2M_GR_MANGO/src/tensorflow_lite/src/tensorflow/lite/kernels\kernel_util.h **** TfLiteTensor* GetOutput(TfLiteContext* context, const TfLiteNode* node,
  72:C:/Renesas/e2studio_2021_01_workspace_RZA2M_ANPR/ANPR_RZA2M_GR_MANGO/src/tensorflow_lite/src/tensorflow/lite/kernels\kernel_util.h ****                         int index);
  73:C:/Renesas/e2studio_2021_01_workspace_RZA2M_ANPR/ANPR_RZA2M_GR_MANGO/src/tensorflow_lite/src/tensorflow/lite/kernels\kernel_util.h **** 
  74:C:/Renesas/e2studio_2021_01_workspace_RZA2M_ANPR/ANPR_RZA2M_GR_MANGO/src/tensorflow_lite/src/tensorflow/lite/kernels\kernel_util.h **** // Same as `GetOutput` but returns boolean and uses output argument for tensor.
  75:C:/Renesas/e2studio_2021_01_workspace_RZA2M_ANPR/ANPR_RZA2M_GR_MANGO/src/tensorflow_lite/src/tensorflow/lite/kernels\kernel_util.h **** //
  76:C:/Renesas/e2studio_2021_01_workspace_RZA2M_ANPR/ANPR_RZA2M_GR_MANGO/src/tensorflow_lite/src/tensorflow/lite/kernels\kernel_util.h **** //   TfLiteTensor* my_tensor;
  77:C:/Renesas/e2studio_2021_01_workspace_RZA2M_ANPR/ANPR_RZA2M_GR_MANGO/src/tensorflow_lite/src/tensorflow/lite/kernels\kernel_util.h **** //   TF_LITE_ENSURE_OK(context,
  78:C:/Renesas/e2studio_2021_01_workspace_RZA2M_ANPR/ANPR_RZA2M_GR_MANGO/src/tensorflow_lite/src/tensorflow/lite/kernels\kernel_util.h **** //                     GetOutputSafe(context, node, kMyTensorIdx, &my_tensor));
  79:C:/Renesas/e2studio_2021_01_workspace_RZA2M_ANPR/ANPR_RZA2M_GR_MANGO/src/tensorflow_lite/src/tensorflow/lite/kernels\kernel_util.h **** //   // can use my_tensor directly from here onwards, it is not nullptr
  80:C:/Renesas/e2studio_2021_01_workspace_RZA2M_ANPR/ANPR_RZA2M_GR_MANGO/src/tensorflow_lite/src/tensorflow/lite/kernels\kernel_util.h **** //
  81:C:/Renesas/e2studio_2021_01_workspace_RZA2M_ANPR/ANPR_RZA2M_GR_MANGO/src/tensorflow_lite/src/tensorflow/lite/kernels\kernel_util.h **** // Should be used in cases where the binary size is too large.
  82:C:/Renesas/e2studio_2021_01_workspace_RZA2M_ANPR/ANPR_RZA2M_GR_MANGO/src/tensorflow_lite/src/tensorflow/lite/kernels\kernel_util.h **** TfLiteStatus GetOutputSafe(const TfLiteContext* context, const TfLiteNode* node,
  83:C:/Renesas/e2studio_2021_01_workspace_RZA2M_ANPR/ANPR_RZA2M_GR_MANGO/src/tensorflow_lite/src/tensorflow/lite/kernels\kernel_util.h ****                            int index, TfLiteTensor** tensor);
  84:C:/Renesas/e2studio_2021_01_workspace_RZA2M_ANPR/ANPR_RZA2M_GR_MANGO/src/tensorflow_lite/src/tensorflow/lite/kernels\kernel_util.h **** 
  85:C:/Renesas/e2studio_2021_01_workspace_RZA2M_ANPR/ANPR_RZA2M_GR_MANGO/src/tensorflow_lite/src/tensorflow/lite/kernels\kernel_util.h **** // Note: You must check if result is not null:
  86:C:/Renesas/e2studio_2021_01_workspace_RZA2M_ANPR/ANPR_RZA2M_GR_MANGO/src/tensorflow_lite/src/tensorflow/lite/kernels\kernel_util.h **** //
  87:C:/Renesas/e2studio_2021_01_workspace_RZA2M_ANPR/ANPR_RZA2M_GR_MANGO/src/tensorflow_lite/src/tensorflow/lite/kernels\kernel_util.h **** //   TfLiteTensor* my_tensor = GetOptionalInputTensor(context, node, kIdx);
  88:C:/Renesas/e2studio_2021_01_workspace_RZA2M_ANPR/ANPR_RZA2M_GR_MANGO/src/tensorflow_lite/src/tensorflow/lite/kernels\kernel_util.h **** //   TF_LITE_ENSURE(context, my_tensor != nullptr);
  89:C:/Renesas/e2studio_2021_01_workspace_RZA2M_ANPR/ANPR_RZA2M_GR_MANGO/src/tensorflow_lite/src/tensorflow/lite/kernels\kernel_util.h **** //
  90:C:/Renesas/e2studio_2021_01_workspace_RZA2M_ANPR/ANPR_RZA2M_GR_MANGO/src/tensorflow_lite/src/tensorflow/lite/kernels\kernel_util.h **** // This is because the index might point to the optional tensor constant
  91:C:/Renesas/e2studio_2021_01_workspace_RZA2M_ANPR/ANPR_RZA2M_GR_MANGO/src/tensorflow_lite/src/tensorflow/lite/kernels\kernel_util.h **** // (kTfLiteOptionalTensor) in which case there is no tensor to return.
  92:C:/Renesas/e2studio_2021_01_workspace_RZA2M_ANPR/ANPR_RZA2M_GR_MANGO/src/tensorflow_lite/src/tensorflow/lite/kernels\kernel_util.h **** //
  93:C:/Renesas/e2studio_2021_01_workspace_RZA2M_ANPR/ANPR_RZA2M_GR_MANGO/src/tensorflow_lite/src/tensorflow/lite/kernels\kernel_util.h **** // Deprecated. GetInput has the same functionality.
  94:C:/Renesas/e2studio_2021_01_workspace_RZA2M_ANPR/ANPR_RZA2M_GR_MANGO/src/tensorflow_lite/src/tensorflow/lite/kernels\kernel_util.h **** const TfLiteTensor* GetOptionalInputTensor(const TfLiteContext* context,
  95:C:/Renesas/e2studio_2021_01_workspace_RZA2M_ANPR/ANPR_RZA2M_GR_MANGO/src/tensorflow_lite/src/tensorflow/lite/kernels\kernel_util.h ****                                            const TfLiteNode* node, int index);
  96:C:/Renesas/e2studio_2021_01_workspace_RZA2M_ANPR/ANPR_RZA2M_GR_MANGO/src/tensorflow_lite/src/tensorflow/lite/kernels\kernel_util.h **** 
  97:C:/Renesas/e2studio_2021_01_workspace_RZA2M_ANPR/ANPR_RZA2M_GR_MANGO/src/tensorflow_lite/src/tensorflow/lite/kernels\kernel_util.h **** #ifndef TF_LITE_STATIC_MEMORY
  98:C:/Renesas/e2studio_2021_01_workspace_RZA2M_ANPR/ANPR_RZA2M_GR_MANGO/src/tensorflow_lite/src/tensorflow/lite/kernels\kernel_util.h **** // Note: You must check if result is not null:
  99:C:/Renesas/e2studio_2021_01_workspace_RZA2M_ANPR/ANPR_RZA2M_GR_MANGO/src/tensorflow_lite/src/tensorflow/lite/kernels\kernel_util.h **** //
 100:C:/Renesas/e2studio_2021_01_workspace_RZA2M_ANPR/ANPR_RZA2M_GR_MANGO/src/tensorflow_lite/src/tensorflow/lite/kernels\kernel_util.h **** //   TfLiteTensor* my_tensor = GetTemporary(context, node, kMyTensorIdx);
 101:C:/Renesas/e2studio_2021_01_workspace_RZA2M_ANPR/ANPR_RZA2M_GR_MANGO/src/tensorflow_lite/src/tensorflow/lite/kernels\kernel_util.h **** //   TF_LITE_ENSURE(context, my_tensor != nullptr);
 102:C:/Renesas/e2studio_2021_01_workspace_RZA2M_ANPR/ANPR_RZA2M_GR_MANGO/src/tensorflow_lite/src/tensorflow/lite/kernels\kernel_util.h **** //
 103:C:/Renesas/e2studio_2021_01_workspace_RZA2M_ANPR/ANPR_RZA2M_GR_MANGO/src/tensorflow_lite/src/tensorflow/lite/kernels\kernel_util.h **** // This is because the index might point to the optional tensor constant
 104:C:/Renesas/e2studio_2021_01_workspace_RZA2M_ANPR/ANPR_RZA2M_GR_MANGO/src/tensorflow_lite/src/tensorflow/lite/kernels\kernel_util.h **** // (kTfLiteOptionalTensor) in which case there is no tensor to return.
 105:C:/Renesas/e2studio_2021_01_workspace_RZA2M_ANPR/ANPR_RZA2M_GR_MANGO/src/tensorflow_lite/src/tensorflow/lite/kernels\kernel_util.h **** TfLiteTensor* GetTemporary(TfLiteContext* context, const TfLiteNode* node,
 106:C:/Renesas/e2studio_2021_01_workspace_RZA2M_ANPR/ANPR_RZA2M_GR_MANGO/src/tensorflow_lite/src/tensorflow/lite/kernels\kernel_util.h ****                            int index);
 107:C:/Renesas/e2studio_2021_01_workspace_RZA2M_ANPR/ANPR_RZA2M_GR_MANGO/src/tensorflow_lite/src/tensorflow/lite/kernels\kernel_util.h **** 
 108:C:/Renesas/e2studio_2021_01_workspace_RZA2M_ANPR/ANPR_RZA2M_GR_MANGO/src/tensorflow_lite/src/tensorflow/lite/kernels\kernel_util.h **** // Same as `GetTemporary` but returns boolean and uses output argument for
 109:C:/Renesas/e2studio_2021_01_workspace_RZA2M_ANPR/ANPR_RZA2M_GR_MANGO/src/tensorflow_lite/src/tensorflow/lite/kernels\kernel_util.h **** // tensor.
 110:C:/Renesas/e2studio_2021_01_workspace_RZA2M_ANPR/ANPR_RZA2M_GR_MANGO/src/tensorflow_lite/src/tensorflow/lite/kernels\kernel_util.h **** //
 111:C:/Renesas/e2studio_2021_01_workspace_RZA2M_ANPR/ANPR_RZA2M_GR_MANGO/src/tensorflow_lite/src/tensorflow/lite/kernels\kernel_util.h **** //   TfLiteTensor* my_tensor;
 112:C:/Renesas/e2studio_2021_01_workspace_RZA2M_ANPR/ANPR_RZA2M_GR_MANGO/src/tensorflow_lite/src/tensorflow/lite/kernels\kernel_util.h **** //   TF_LITE_ENSURE_OK(context,
 113:C:/Renesas/e2studio_2021_01_workspace_RZA2M_ANPR/ANPR_RZA2M_GR_MANGO/src/tensorflow_lite/src/tensorflow/lite/kernels\kernel_util.h **** //                     GetTemporarySafe(context, node, kMyTensorIdx,
 114:C:/Renesas/e2studio_2021_01_workspace_RZA2M_ANPR/ANPR_RZA2M_GR_MANGO/src/tensorflow_lite/src/tensorflow/lite/kernels\kernel_util.h **** //                     &my_tensor));
 115:C:/Renesas/e2studio_2021_01_workspace_RZA2M_ANPR/ANPR_RZA2M_GR_MANGO/src/tensorflow_lite/src/tensorflow/lite/kernels\kernel_util.h **** //   // can use my_tensor directly from here onwards, it is not nullptr
 116:C:/Renesas/e2studio_2021_01_workspace_RZA2M_ANPR/ANPR_RZA2M_GR_MANGO/src/tensorflow_lite/src/tensorflow/lite/kernels\kernel_util.h **** //
 117:C:/Renesas/e2studio_2021_01_workspace_RZA2M_ANPR/ANPR_RZA2M_GR_MANGO/src/tensorflow_lite/src/tensorflow/lite/kernels\kernel_util.h **** // Should be used in cases where the binary size is too large.
 118:C:/Renesas/e2studio_2021_01_workspace_RZA2M_ANPR/ANPR_RZA2M_GR_MANGO/src/tensorflow_lite/src/tensorflow/lite/kernels\kernel_util.h **** TfLiteStatus GetTemporarySafe(const TfLiteContext* context,
 119:C:/Renesas/e2studio_2021_01_workspace_RZA2M_ANPR/ANPR_RZA2M_GR_MANGO/src/tensorflow_lite/src/tensorflow/lite/kernels\kernel_util.h ****                               const TfLiteNode* node, int index,
 120:C:/Renesas/e2studio_2021_01_workspace_RZA2M_ANPR/ANPR_RZA2M_GR_MANGO/src/tensorflow_lite/src/tensorflow/lite/kernels\kernel_util.h ****                               TfLiteTensor** tensor);
 121:C:/Renesas/e2studio_2021_01_workspace_RZA2M_ANPR/ANPR_RZA2M_GR_MANGO/src/tensorflow_lite/src/tensorflow/lite/kernels\kernel_util.h **** 
 122:C:/Renesas/e2studio_2021_01_workspace_RZA2M_ANPR/ANPR_RZA2M_GR_MANGO/src/tensorflow_lite/src/tensorflow/lite/kernels\kernel_util.h **** // Note: You must check if result is not null:
 123:C:/Renesas/e2studio_2021_01_workspace_RZA2M_ANPR/ANPR_RZA2M_GR_MANGO/src/tensorflow_lite/src/tensorflow/lite/kernels\kernel_util.h **** //
 124:C:/Renesas/e2studio_2021_01_workspace_RZA2M_ANPR/ANPR_RZA2M_GR_MANGO/src/tensorflow_lite/src/tensorflow/lite/kernels\kernel_util.h **** //   TfLiteTensor* my_tensor = GetIntermediates(context, node, kMyTensorIdx);
 125:C:/Renesas/e2studio_2021_01_workspace_RZA2M_ANPR/ANPR_RZA2M_GR_MANGO/src/tensorflow_lite/src/tensorflow/lite/kernels\kernel_util.h **** //   TF_LITE_ENSURE(context, my_tensor != nullptr);
 126:C:/Renesas/e2studio_2021_01_workspace_RZA2M_ANPR/ANPR_RZA2M_GR_MANGO/src/tensorflow_lite/src/tensorflow/lite/kernels\kernel_util.h **** //
 127:C:/Renesas/e2studio_2021_01_workspace_RZA2M_ANPR/ANPR_RZA2M_GR_MANGO/src/tensorflow_lite/src/tensorflow/lite/kernels\kernel_util.h **** // This is because the index might point to the optional tensor constant
 128:C:/Renesas/e2studio_2021_01_workspace_RZA2M_ANPR/ANPR_RZA2M_GR_MANGO/src/tensorflow_lite/src/tensorflow/lite/kernels\kernel_util.h **** // (kTfLiteOptionalTensor) in which case there is no tensor to return.
 129:C:/Renesas/e2studio_2021_01_workspace_RZA2M_ANPR/ANPR_RZA2M_GR_MANGO/src/tensorflow_lite/src/tensorflow/lite/kernels\kernel_util.h **** const TfLiteTensor* GetIntermediates(TfLiteContext* context,
 130:C:/Renesas/e2studio_2021_01_workspace_RZA2M_ANPR/ANPR_RZA2M_GR_MANGO/src/tensorflow_lite/src/tensorflow/lite/kernels\kernel_util.h ****                                      const TfLiteNode* node, int index);
 131:C:/Renesas/e2studio_2021_01_workspace_RZA2M_ANPR/ANPR_RZA2M_GR_MANGO/src/tensorflow_lite/src/tensorflow/lite/kernels\kernel_util.h **** 
 132:C:/Renesas/e2studio_2021_01_workspace_RZA2M_ANPR/ANPR_RZA2M_GR_MANGO/src/tensorflow_lite/src/tensorflow/lite/kernels\kernel_util.h **** // Same as `GetIntermediates` but returns boolean and uses output argument for
 133:C:/Renesas/e2studio_2021_01_workspace_RZA2M_ANPR/ANPR_RZA2M_GR_MANGO/src/tensorflow_lite/src/tensorflow/lite/kernels\kernel_util.h **** // tensor.
 134:C:/Renesas/e2studio_2021_01_workspace_RZA2M_ANPR/ANPR_RZA2M_GR_MANGO/src/tensorflow_lite/src/tensorflow/lite/kernels\kernel_util.h **** //
 135:C:/Renesas/e2studio_2021_01_workspace_RZA2M_ANPR/ANPR_RZA2M_GR_MANGO/src/tensorflow_lite/src/tensorflow/lite/kernels\kernel_util.h **** //   TfLiteTensor* my_tensor;
 136:C:/Renesas/e2studio_2021_01_workspace_RZA2M_ANPR/ANPR_RZA2M_GR_MANGO/src/tensorflow_lite/src/tensorflow/lite/kernels\kernel_util.h **** //   TF_LITE_ENSURE_OK(context,
 137:C:/Renesas/e2studio_2021_01_workspace_RZA2M_ANPR/ANPR_RZA2M_GR_MANGO/src/tensorflow_lite/src/tensorflow/lite/kernels\kernel_util.h **** //                     GetIntermediatesSafe(context, node, kMyTensorIdx,
 138:C:/Renesas/e2studio_2021_01_workspace_RZA2M_ANPR/ANPR_RZA2M_GR_MANGO/src/tensorflow_lite/src/tensorflow/lite/kernels\kernel_util.h **** //                     &my_tensor));
 139:C:/Renesas/e2studio_2021_01_workspace_RZA2M_ANPR/ANPR_RZA2M_GR_MANGO/src/tensorflow_lite/src/tensorflow/lite/kernels\kernel_util.h **** //   // can use my_tensor directly from here onwards, it is not nullptr
 140:C:/Renesas/e2studio_2021_01_workspace_RZA2M_ANPR/ANPR_RZA2M_GR_MANGO/src/tensorflow_lite/src/tensorflow/lite/kernels\kernel_util.h **** //
 141:C:/Renesas/e2studio_2021_01_workspace_RZA2M_ANPR/ANPR_RZA2M_GR_MANGO/src/tensorflow_lite/src/tensorflow/lite/kernels\kernel_util.h **** // Should be used in cases where the binary size is too large.
 142:C:/Renesas/e2studio_2021_01_workspace_RZA2M_ANPR/ANPR_RZA2M_GR_MANGO/src/tensorflow_lite/src/tensorflow/lite/kernels\kernel_util.h **** TfLiteStatus GetIntermediatesSafe(const TfLiteContext* context,
 143:C:/Renesas/e2studio_2021_01_workspace_RZA2M_ANPR/ANPR_RZA2M_GR_MANGO/src/tensorflow_lite/src/tensorflow/lite/kernels\kernel_util.h ****                                   const TfLiteNode* node, int index,
 144:C:/Renesas/e2studio_2021_01_workspace_RZA2M_ANPR/ANPR_RZA2M_GR_MANGO/src/tensorflow_lite/src/tensorflow/lite/kernels\kernel_util.h ****                                   TfLiteTensor** tensor);
 145:C:/Renesas/e2studio_2021_01_workspace_RZA2M_ANPR/ANPR_RZA2M_GR_MANGO/src/tensorflow_lite/src/tensorflow/lite/kernels\kernel_util.h **** #endif  // TF_LITE_STATIC_MEMORY
 146:C:/Renesas/e2studio_2021_01_workspace_RZA2M_ANPR/ANPR_RZA2M_GR_MANGO/src/tensorflow_lite/src/tensorflow/lite/kernels\kernel_util.h **** 
 147:C:/Renesas/e2studio_2021_01_workspace_RZA2M_ANPR/ANPR_RZA2M_GR_MANGO/src/tensorflow_lite/src/tensorflow/lite/kernels\kernel_util.h **** inline int NumDimensions(const TfLiteTensor* t) { return t->dims->size; }
 725              		.loc 5 147 0
 726 0068 083092E5 		ldr	r3, [r2, #8]
 727 006c 003093E5 		ldr	r3, [r3]
 728              	.LBE201:
 729              	.LBE200:
  80:../src/tensorflow_lite/src/tensorflow/lite/micro/kernels/fill.cpp **** 
 730              		.loc 1 80 0
 731 0070 000053E3 		cmp	r3, #0
 732 0074 9100001A 		bne	.L161
  83:../src/tensorflow_lite/src/tensorflow/lite/micro/kernels/fill.cpp **** 
 733              		.loc 1 83 0
 734 0078 24109DE5 		ldr	r1, [sp, #36]
 735 007c 0000D2E5 		ldrb	r0, [r2]	@ zero_extendqisi2
 736 0080 00C0D1E5 		ldrb	ip, [r1]	@ zero_extendqisi2
 737 0084 0C0050E1 		cmp	r0, ip
 738 0088 1100000A 		beq	.L86
  83:../src/tensorflow_lite/src/tensorflow/lite/micro/kernels/fill.cpp **** 
 739              		.loc 1 83 0 is_stmt 0 discriminator 1
 740 008c 00E000E3 		movw	lr, #:lower16:.LC6
 741 0090 003000E3 		movw	r3, #:lower16:.LC7
 742 0094 00E040E3 		movt	lr, #:upper16:.LC6
 743 0098 003040E3 		movt	r3, #:upper16:.LC7
 744 009c 002000E3 		movw	r2, #:lower16:.LC2
 745              	.LVL71:
 746 00a0 001000E3 		movw	r1, #:lower16:.LC3
 747 00a4 08008DE5 		str	r0, [sp, #8]
 748 00a8 002040E3 		movt	r2, #:upper16:.LC2
 749 00ac 00308DE5 		str	r3, [sp]
 750 00b0 0500A0E1 		mov	r0, r5
 751 00b4 0CC08DE5 		str	ip, [sp, #12]
 752 00b8 001040E3 		movt	r1, #:upper16:.LC3
 753 00bc 04E08DE5 		str	lr, [sp, #4]
 754 00c0 5330A0E3 		mov	r3, #83
 755 00c4 144095E5 		ldr	r4, [r5, #20]
 756              	.LVL72:
 757 00c8 34FF2FE1 		blx	r4
 758              	.LVL73:
 759 00cc 0100A0E3 		mov	r0, #1
 760 00d0 D3FFFFEA 		b	.L84
 761              	.LVL74:
 762              	.L86:
 763              	.LBB202:
  87:../src/tensorflow_lite/src/tensorflow/lite/micro/kernels/fill.cpp **** 
 764              		.loc 1 87 0 is_stmt 1
 765 00d4 1CC09DE5 		ldr	ip, [sp, #28]
 766              	.LVL75:
 767 00d8 08209CE5 		ldr	r2, [ip, #8]
 768              	.LVL76:
 769              	.LBB203:
 770              	.LBB204:
 771              	.LBB205:
 772              	.LBB206:
 773              		.loc 5 147 0
 774 00dc 006092E5 		ldr	r6, [r2]
 775              	.LBE206:
 776              	.LBE205:
  42:../src/tensorflow_lite/src/tensorflow/lite/micro/kernels/fill.cpp ****   const auto tensor_len = tensor->dims->data[0];
 777              		.loc 1 42 0
 778 00e0 010056E3 		cmp	r6, #1
 779 00e4 8700001A 		bne	.L162
 780              	.LBE204:
 781              	.LBE203:
  87:../src/tensorflow_lite/src/tensorflow/lite/micro/kernels/fill.cpp **** 
 782              		.loc 1 87 0
 783 00e8 081091E5 		ldr	r1, [r1, #8]
 784              	.LVL77:
 785              	.LBB234:
 786              	.LBB231:
  43:../src/tensorflow_lite/src/tensorflow/lite/micro/kernels/fill.cpp ****   TF_LITE_ENSURE_EQ(context, array->size, tensor_len);
 787              		.loc 1 43 0
 788 00ec 04E092E5 		ldr	lr, [r2, #4]
 789              	.LVL78:
  44:../src/tensorflow_lite/src/tensorflow/lite/micro/kernels/fill.cpp **** 
 790              		.loc 1 44 0
 791 00f0 000091E5 		ldr	r0, [r1]
 792 00f4 00005EE1 		cmp	lr, r0
 793 00f8 9400001A 		bne	.L163
  46:../src/tensorflow_lite/src/tensorflow/lite/micro/kernels/fill.cpp ****     case kTfLiteInt8:
 794              		.loc 1 46 0
 795 00fc 0020DCE5 		ldrb	r2, [ip]	@ zero_extendqisi2
 796 0100 02E042E2 		sub	lr, r2, #2
 797              	.LVL79:
 798 0104 07005EE3 		cmp	lr, #7
 799 0108 0EF19F97 		ldrls	pc, [pc, lr, asl #2]
 800 010c 640000EA 		b	.L89
 801              	.L91:
 802 0110 60020000 		.word	.L90
 803 0114 18020000 		.word	.L92
 804 0118 C4010000 		.word	.L93
 805 011c A4020000 		.word	.L89
 806 0120 A4020000 		.word	.L89
 807 0124 7C010000 		.word	.L94
 808 0128 A4020000 		.word	.L89
 809 012c 30010000 		.word	.L95
 810              	.L95:
 811              	.LVL80:
 812              	.LBB207:
 813              	.LBB208:
  32:../src/tensorflow_lite/src/tensorflow/lite/micro/kernels/fill.cpp ****     TF_LITE_ENSURE_EQ(context, array->data[i], GetTensorData<T>(tensor)[i]);
 814              		.loc 1 32 0
 815 0130 000050E3 		cmp	r0, #0
 816 0134 0E0000DA 		ble	.L133
 817              	.LBB209:
 818              	.LBB210:
 819              		.file 6 "C:/Renesas/e2studio_2021_01_workspace_RZA2M_ANPR/ANPR_RZA2M_GR_MANGO/src/tensorflow_lite/
   1:C:/Renesas/e2studio_2021_01_workspace_RZA2M_ANPR/ANPR_RZA2M_GR_MANGO/src/tensorflow_lite/src/tensorflow/lite/kernels/internal\tensor_ctypes.h **** /* Copyright 2017 The TensorFlow Authors. All Rights Reserved.
   2:C:/Renesas/e2studio_2021_01_workspace_RZA2M_ANPR/ANPR_RZA2M_GR_MANGO/src/tensorflow_lite/src/tensorflow/lite/kernels/internal\tensor_ctypes.h **** 
   3:C:/Renesas/e2studio_2021_01_workspace_RZA2M_ANPR/ANPR_RZA2M_GR_MANGO/src/tensorflow_lite/src/tensorflow/lite/kernels/internal\tensor_ctypes.h **** Licensed under the Apache License, Version 2.0 (the "License");
   4:C:/Renesas/e2studio_2021_01_workspace_RZA2M_ANPR/ANPR_RZA2M_GR_MANGO/src/tensorflow_lite/src/tensorflow/lite/kernels/internal\tensor_ctypes.h **** you may not use this file except in compliance with the License.
   5:C:/Renesas/e2studio_2021_01_workspace_RZA2M_ANPR/ANPR_RZA2M_GR_MANGO/src/tensorflow_lite/src/tensorflow/lite/kernels/internal\tensor_ctypes.h **** You may obtain a copy of the License at
   6:C:/Renesas/e2studio_2021_01_workspace_RZA2M_ANPR/ANPR_RZA2M_GR_MANGO/src/tensorflow_lite/src/tensorflow/lite/kernels/internal\tensor_ctypes.h **** 
   7:C:/Renesas/e2studio_2021_01_workspace_RZA2M_ANPR/ANPR_RZA2M_GR_MANGO/src/tensorflow_lite/src/tensorflow/lite/kernels/internal\tensor_ctypes.h ****     http://www.apache.org/licenses/LICENSE-2.0
   8:C:/Renesas/e2studio_2021_01_workspace_RZA2M_ANPR/ANPR_RZA2M_GR_MANGO/src/tensorflow_lite/src/tensorflow/lite/kernels/internal\tensor_ctypes.h **** 
   9:C:/Renesas/e2studio_2021_01_workspace_RZA2M_ANPR/ANPR_RZA2M_GR_MANGO/src/tensorflow_lite/src/tensorflow/lite/kernels/internal\tensor_ctypes.h **** Unless required by applicable law or agreed to in writing, software
  10:C:/Renesas/e2studio_2021_01_workspace_RZA2M_ANPR/ANPR_RZA2M_GR_MANGO/src/tensorflow_lite/src/tensorflow/lite/kernels/internal\tensor_ctypes.h **** distributed under the License is distributed on an "AS IS" BASIS,
  11:C:/Renesas/e2studio_2021_01_workspace_RZA2M_ANPR/ANPR_RZA2M_GR_MANGO/src/tensorflow_lite/src/tensorflow/lite/kernels/internal\tensor_ctypes.h **** WITHOUT WARRANTIES OR CONDITIONS OF ANY KIND, either express or implied.
  12:C:/Renesas/e2studio_2021_01_workspace_RZA2M_ANPR/ANPR_RZA2M_GR_MANGO/src/tensorflow_lite/src/tensorflow/lite/kernels/internal\tensor_ctypes.h **** See the License for the specific language governing permissions and
  13:C:/Renesas/e2studio_2021_01_workspace_RZA2M_ANPR/ANPR_RZA2M_GR_MANGO/src/tensorflow_lite/src/tensorflow/lite/kernels/internal\tensor_ctypes.h **** limitations under the License.
  14:C:/Renesas/e2studio_2021_01_workspace_RZA2M_ANPR/ANPR_RZA2M_GR_MANGO/src/tensorflow_lite/src/tensorflow/lite/kernels/internal\tensor_ctypes.h **** ==============================================================================*/
  15:C:/Renesas/e2studio_2021_01_workspace_RZA2M_ANPR/ANPR_RZA2M_GR_MANGO/src/tensorflow_lite/src/tensorflow/lite/kernels/internal\tensor_ctypes.h **** #ifndef TENSORFLOW_LITE_KERNELS_INTERNAL_TENSOR_CTYPES_H_
  16:C:/Renesas/e2studio_2021_01_workspace_RZA2M_ANPR/ANPR_RZA2M_GR_MANGO/src/tensorflow_lite/src/tensorflow/lite/kernels/internal\tensor_ctypes.h **** #define TENSORFLOW_LITE_KERNELS_INTERNAL_TENSOR_CTYPES_H_
  17:C:/Renesas/e2studio_2021_01_workspace_RZA2M_ANPR/ANPR_RZA2M_GR_MANGO/src/tensorflow_lite/src/tensorflow/lite/kernels/internal\tensor_ctypes.h **** 
  18:C:/Renesas/e2studio_2021_01_workspace_RZA2M_ANPR/ANPR_RZA2M_GR_MANGO/src/tensorflow_lite/src/tensorflow/lite/kernels/internal\tensor_ctypes.h **** #include "tensorflow/lite/c/common.h"
  19:C:/Renesas/e2studio_2021_01_workspace_RZA2M_ANPR/ANPR_RZA2M_GR_MANGO/src/tensorflow_lite/src/tensorflow/lite/kernels/internal\tensor_ctypes.h **** #include "tensorflow/lite/kernels/internal/types.h"
  20:C:/Renesas/e2studio_2021_01_workspace_RZA2M_ANPR/ANPR_RZA2M_GR_MANGO/src/tensorflow_lite/src/tensorflow/lite/kernels/internal\tensor_ctypes.h **** 
  21:C:/Renesas/e2studio_2021_01_workspace_RZA2M_ANPR/ANPR_RZA2M_GR_MANGO/src/tensorflow_lite/src/tensorflow/lite/kernels/internal\tensor_ctypes.h **** namespace tflite {
  22:C:/Renesas/e2studio_2021_01_workspace_RZA2M_ANPR/ANPR_RZA2M_GR_MANGO/src/tensorflow_lite/src/tensorflow/lite/kernels/internal\tensor_ctypes.h **** 
  23:C:/Renesas/e2studio_2021_01_workspace_RZA2M_ANPR/ANPR_RZA2M_GR_MANGO/src/tensorflow_lite/src/tensorflow/lite/kernels/internal\tensor_ctypes.h **** template <typename T>
  24:C:/Renesas/e2studio_2021_01_workspace_RZA2M_ANPR/ANPR_RZA2M_GR_MANGO/src/tensorflow_lite/src/tensorflow/lite/kernels/internal\tensor_ctypes.h **** inline T* GetTensorData(TfLiteTensor* tensor) {
  25:C:/Renesas/e2studio_2021_01_workspace_RZA2M_ANPR/ANPR_RZA2M_GR_MANGO/src/tensorflow_lite/src/tensorflow/lite/kernels/internal\tensor_ctypes.h ****   return tensor != nullptr ? reinterpret_cast<T*>(tensor->data.raw) : nullptr;
  26:C:/Renesas/e2studio_2021_01_workspace_RZA2M_ANPR/ANPR_RZA2M_GR_MANGO/src/tensorflow_lite/src/tensorflow/lite/kernels/internal\tensor_ctypes.h **** }
  27:C:/Renesas/e2studio_2021_01_workspace_RZA2M_ANPR/ANPR_RZA2M_GR_MANGO/src/tensorflow_lite/src/tensorflow/lite/kernels/internal\tensor_ctypes.h **** 
  28:C:/Renesas/e2studio_2021_01_workspace_RZA2M_ANPR/ANPR_RZA2M_GR_MANGO/src/tensorflow_lite/src/tensorflow/lite/kernels/internal\tensor_ctypes.h **** template <typename T>
  29:C:/Renesas/e2studio_2021_01_workspace_RZA2M_ANPR/ANPR_RZA2M_GR_MANGO/src/tensorflow_lite/src/tensorflow/lite/kernels/internal\tensor_ctypes.h **** inline const T* GetTensorData(const TfLiteTensor* tensor) {
  30:C:/Renesas/e2studio_2021_01_workspace_RZA2M_ANPR/ANPR_RZA2M_GR_MANGO/src/tensorflow_lite/src/tensorflow/lite/kernels/internal\tensor_ctypes.h ****   return tensor != nullptr ? reinterpret_cast<const T*>(tensor->data.raw)
 820              		.loc 6 30 0
 821 0138 04309CE5 		ldr	r3, [ip, #4]
 822              	.LBE210:
 823              	.LBE209:
  33:../src/tensorflow_lite/src/tensorflow/lite/micro/kernels/fill.cpp ****   }
 824              		.loc 1 33 0
 825 013c 04C091E5 		ldr	ip, [r1, #4]
 826              	.LVL81:
 827 0140 D0E0D3E1 		ldrsb	lr, [r3]
 828 0144 0C005EE1 		cmp	lr, ip
 829 0148 00008300 		addeq	r0, r3, r0
 830 014c 08108102 		addeq	r1, r1, #8
 831              	.LVL82:
 832 0150 01308302 		addeq	r3, r3, #1
 833 0154 0400000A 		beq	.L103
 834 0158 8E0000EA 		b	.L113
 835              	.LVL83:
 836              	.L150:
 837 015c 04C091E4 		ldr	ip, [r1], #4
 838 0160 D1E0D3E0 		ldrsb	lr, [r3], #1
 839              	.LVL84:
 840 0164 0E005CE1 		cmp	ip, lr
 841 0168 8A00001A 		bne	.L113
 842              	.LVL85:
 843              	.L103:
  32:../src/tensorflow_lite/src/tensorflow/lite/micro/kernels/fill.cpp ****     TF_LITE_ENSURE_EQ(context, array->data[i], GetTensorData<T>(tensor)[i]);
 844              		.loc 1 32 0
 845 016c 000053E1 		cmp	r3, r0
 846 0170 F9FFFF1A 		bne	.L150
 847              	.LVL86:
 848              	.L133:
 849              	.LBE208:
 850              	.LBE207:
 851              	.LBE231:
 852              	.LBE234:
 853              	.LBE202:
  89:../src/tensorflow_lite/src/tensorflow/lite/micro/kernels/fill.cpp **** }
 854              		.loc 1 89 0
 855 0174 0000A0E3 		mov	r0, #0
 856 0178 A9FFFFEA 		b	.L84
 857              	.LVL87:
 858              	.L94:
 859              	.LBB237:
 860              	.LBB235:
 861              	.LBB232:
 862              	.LBB211:
 863              	.LBB212:
  32:../src/tensorflow_lite/src/tensorflow/lite/micro/kernels/fill.cpp ****     TF_LITE_ENSURE_EQ(context, array->data[i], GetTensorData<T>(tensor)[i]);
 864              		.loc 1 32 0
 865 017c 000050E3 		cmp	r0, #0
 866 0180 FBFFFFDA 		ble	.L133
 867              	.LBB213:
 868              	.LBB214:
 869              		.loc 6 30 0
 870 0184 04309CE5 		ldr	r3, [ip, #4]
 871              	.LBE214:
 872              	.LBE213:
  33:../src/tensorflow_lite/src/tensorflow/lite/micro/kernels/fill.cpp ****   }
 873              		.loc 1 33 0
 874 0188 04C091E5 		ldr	ip, [r1, #4]
 875              	.LVL88:
 876 018c F0E0D3E1 		ldrsh	lr, [r3]
 877 0190 0E005CE1 		cmp	ip, lr
 878 0194 80008300 		addeq	r0, r3, r0, lsl #1
 879 0198 08108102 		addeq	r1, r1, #8
 880              	.LVL89:
 881 019c 02308302 		addeq	r3, r3, #2
 882 01a0 0400000A 		beq	.L111
 883 01a4 7B0000EA 		b	.L113
 884              	.LVL90:
 885              	.L154:
 886 01a8 04C091E4 		ldr	ip, [r1], #4
 887 01ac F2E0D3E0 		ldrsh	lr, [r3], #2
 888 01b0 0E005CE1 		cmp	ip, lr
 889 01b4 7700001A 		bne	.L113
 890              	.L111:
  32:../src/tensorflow_lite/src/tensorflow/lite/micro/kernels/fill.cpp ****     TF_LITE_ENSURE_EQ(context, array->data[i], GetTensorData<T>(tensor)[i]);
 891              		.loc 1 32 0
 892 01b8 000053E1 		cmp	r3, r0
 893 01bc F9FFFF1A 		bne	.L154
 894 01c0 EBFFFFEA 		b	.L133
 895              	.LVL91:
 896              	.L93:
 897              	.LBE212:
 898              	.LBE211:
 899              	.LBB215:
 900              	.LBB216:
 901 01c4 000050E3 		cmp	r0, #0
 902 01c8 E9FFFFDA 		ble	.L133
 903              	.LBB217:
 904              	.LBB218:
 905              		.loc 6 30 0
 906 01cc 04209CE5 		ldr	r2, [ip, #4]
 907              	.LBE218:
 908              	.LBE217:
  33:../src/tensorflow_lite/src/tensorflow/lite/micro/kernels/fill.cpp ****   }
 909              		.loc 1 33 0
 910 01d0 04C091E5 		ldr	ip, [r1, #4]
 911              	.LVL92:
 912 01d4 D060C2E1 		ldrd	r6, [r2]
 913 01d8 CC9FA0E1 		asr	r9, ip, #31
 914 01dc 070059E1 		cmp	r9, r7
 915 01e0 06005C01 		cmpeq	ip, r6
 916 01e4 08108102 		addeq	r1, r1, #8
 917              	.LVL93:
 918 01e8 0600000A 		beq	.L119
 919 01ec 7B0000EA 		b	.L117
 920              	.LVL94:
 921              	.L158:
 922 01f0 04C091E4 		ldr	ip, [r1], #4
 923 01f4 D860E2E1 		ldrd	r6, [r2, #8]!
 924 01f8 CC9FA0E1 		asr	r9, ip, #31
 925 01fc 070059E1 		cmp	r9, r7
 926 0200 06005C01 		cmpeq	ip, r6
 927 0204 7500001A 		bne	.L117
 928              	.LVL95:
 929              	.L119:
  32:../src/tensorflow_lite/src/tensorflow/lite/micro/kernels/fill.cpp ****     TF_LITE_ENSURE_EQ(context, array->data[i], GetTensorData<T>(tensor)[i]);
 930              		.loc 1 32 0
 931 0208 013083E2 		add	r3, r3, #1
 932              	.LVL96:
 933 020c 030050E1 		cmp	r0, r3
 934 0210 F6FFFF1A 		bne	.L158
 935 0214 D6FFFFEA 		b	.L133
 936              	.LVL97:
 937              	.L92:
 938              	.LBE216:
 939              	.LBE215:
 940              	.LBB220:
 941              	.LBB221:
 942 0218 000050E3 		cmp	r0, #0
 943 021c D4FFFFDA 		ble	.L133
 944              	.LBB222:
 945              	.LBB223:
 946              		.loc 6 30 0
 947 0220 04309CE5 		ldr	r3, [ip, #4]
 948              	.LBE223:
 949              	.LBE222:
  33:../src/tensorflow_lite/src/tensorflow/lite/micro/kernels/fill.cpp ****   }
 950              		.loc 1 33 0
 951 0224 04C091E5 		ldr	ip, [r1, #4]
 952              	.LVL98:
 953 0228 00E0D3E5 		ldrb	lr, [r3]	@ zero_extendqisi2
 954 022c 0E005CE1 		cmp	ip, lr
 955 0230 00008300 		addeq	r0, r3, r0
 956 0234 08108102 		addeq	r1, r1, #8
 957              	.LVL99:
 958 0238 01308302 		addeq	r3, r3, #1
 959 023c 0400000A 		beq	.L107
 960 0240 540000EA 		b	.L113
 961              	.LVL100:
 962              	.L152:
 963 0244 04C091E4 		ldr	ip, [r1], #4
 964 0248 01E0D3E4 		ldrb	lr, [r3], #1	@ zero_extendqisi2
 965              	.LVL101:
 966 024c 0E005CE1 		cmp	ip, lr
 967 0250 5000001A 		bne	.L113
 968              	.LVL102:
 969              	.L107:
  32:../src/tensorflow_lite/src/tensorflow/lite/micro/kernels/fill.cpp ****     TF_LITE_ENSURE_EQ(context, array->data[i], GetTensorData<T>(tensor)[i]);
 970              		.loc 1 32 0
 971 0254 000053E1 		cmp	r3, r0
 972 0258 F9FFFF1A 		bne	.L152
 973 025c C4FFFFEA 		b	.L133
 974              	.LVL103:
 975              	.L90:
 976              	.LBE221:
 977              	.LBE220:
 978              	.LBB224:
 979              	.LBB225:
 980 0260 000050E3 		cmp	r0, #0
 981 0264 C2FFFFDA 		ble	.L133
 982              	.LBB226:
 983              	.LBB227:
 984              		.loc 6 30 0
 985 0268 04209CE5 		ldr	r2, [ip, #4]
 986              	.LBE227:
 987              	.LBE226:
  33:../src/tensorflow_lite/src/tensorflow/lite/micro/kernels/fill.cpp ****   }
 988              		.loc 1 33 0
 989 026c 04C091E5 		ldr	ip, [r1, #4]
 990              	.LVL104:
 991 0270 00E092E5 		ldr	lr, [r2]
 992 0274 0C005EE1 		cmp	lr, ip
 993 0278 08108102 		addeq	r1, r1, #8
 994              	.LVL105:
 995 027c 0400000A 		beq	.L115
 996 0280 440000EA 		b	.L113
 997              	.LVL106:
 998              	.L156:
 999 0284 04C091E4 		ldr	ip, [r1], #4
 1000 0288 04E0B2E5 		ldr	lr, [r2, #4]!
 1001 028c 0E005CE1 		cmp	ip, lr
 1002 0290 4000001A 		bne	.L113
 1003              	.LVL107:
 1004              	.L115:
  32:../src/tensorflow_lite/src/tensorflow/lite/micro/kernels/fill.cpp ****     TF_LITE_ENSURE_EQ(context, array->data[i], GetTensorData<T>(tensor)[i]);
 1005              		.loc 1 32 0
 1006 0294 013083E2 		add	r3, r3, #1
 1007              	.LVL108:
 1008 0298 030050E1 		cmp	r0, r3
 1009 029c F8FFFF1A 		bne	.L156
 1010 02a0 B3FFFFEA 		b	.L133
 1011              	.LVL109:
 1012              	.L89:
 1013              	.LBE225:
 1014              	.LBE224:
  58:../src/tensorflow_lite/src/tensorflow/lite/micro/kernels/fill.cpp ****                          "cannot compare int array to tensor of type %d.",
 1015              		.loc 1 58 0
 1016 02a4 001000E3 		movw	r1, #:lower16:.LC14
 1017              	.LVL110:
 1018 02a8 0500A0E1 		mov	r0, r5
 1019 02ac 001040E3 		movt	r1, #:upper16:.LC14
 1020 02b0 143095E5 		ldr	r3, [r5, #20]
 1021 02b4 33FF2FE1 		blx	r3
 1022              	.LVL111:
 1023 02b8 0100A0E3 		mov	r0, #1
 1024 02bc 58FFFFEA 		b	.L84
 1025              	.LVL112:
 1026              	.L161:
 1027              	.LBE232:
 1028              	.LBE235:
 1029              	.LBE237:
  80:../src/tensorflow_lite/src/tensorflow/lite/micro/kernels/fill.cpp **** 
 1030              		.loc 1 80 0 discriminator 1
 1031 02c0 00E000E3 		movw	lr, #:lower16:.LC4
 1032 02c4 00C000E3 		movw	ip, #:lower16:.LC5
 1033 02c8 00E040E3 		movt	lr, #:upper16:.LC4
 1034 02cc 00C040E3 		movt	ip, #:upper16:.LC5
 1035 02d0 002000E3 		movw	r2, #:lower16:.LC2
 1036              	.LVL113:
 1037 02d4 001000E3 		movw	r1, #:lower16:.LC3
 1038 02d8 0C008DE5 		str	r0, [sp, #12]
 1039 02dc 002040E3 		movt	r2, #:upper16:.LC2
 1040 02e0 08308DE5 		str	r3, [sp, #8]
 1041 02e4 0500A0E1 		mov	r0, r5
 1042 02e8 04E08DE5 		str	lr, [sp, #4]
 1043 02ec 001040E3 		movt	r1, #:upper16:.LC3
 1044 02f0 00C08DE5 		str	ip, [sp]
 1045 02f4 5030A0E3 		mov	r3, #80
 1046 02f8 144095E5 		ldr	r4, [r5, #20]
 1047              	.LVL114:
 1048 02fc 34FF2FE1 		blx	r4
 1049              	.LVL115:
 1050 0300 0100A0E3 		mov	r0, #1
 1051 0304 46FFFFEA 		b	.L84
 1052              	.LVL116:
 1053              	.L162:
 1054              	.LBB238:
 1055              	.LBB236:
 1056              	.LBB233:
  42:../src/tensorflow_lite/src/tensorflow/lite/micro/kernels/fill.cpp ****   const auto tensor_len = tensor->dims->data[0];
 1057              		.loc 1 42 0
 1058 0308 000000E3 		movw	r0, #:lower16:.LC8
 1059 030c 003000E3 		movw	r3, #:lower16:.LC9
 1060 0310 000040E3 		movt	r0, #:upper16:.LC8
 1061 0314 003040E3 		movt	r3, #:upper16:.LC9
 1062 0318 0140A0E3 		mov	r4, #1
 1063              	.LVL117:
 1064 031c 002000E3 		movw	r2, #:lower16:.LC2
 1065 0320 001000E3 		movw	r1, #:lower16:.LC3
 1066              	.LVL118:
 1067 0324 41008DE9 		stmib	sp, {r0, r6}
 1068              	.LVL119:
 1069 0328 00308DE5 		str	r3, [sp]
 1070 032c 0500A0E1 		mov	r0, r5
 1071 0330 0C408DE5 		str	r4, [sp, #12]
 1072 0334 002040E3 		movt	r2, #:upper16:.LC2
 1073 0338 001040E3 		movt	r1, #:upper16:.LC3
 1074 033c 145095E5 		ldr	r5, [r5, #20]
 1075              	.LVL120:
 1076 0340 2A30A0E3 		mov	r3, #42
 1077 0344 35FF2FE1 		blx	r5
 1078              	.LVL121:
 1079 0348 0400A0E1 		mov	r0, r4
 1080 034c 34FFFFEA 		b	.L84
 1081              	.LVL122:
 1082              	.L163:
  44:../src/tensorflow_lite/src/tensorflow/lite/micro/kernels/fill.cpp **** 
 1083              		.loc 1 44 0
 1084 0350 00C000E3 		movw	ip, #:lower16:.LC10
 1085              	.LVL123:
 1086 0354 003000E3 		movw	r3, #:lower16:.LC11
 1087 0358 00C040E3 		movt	ip, #:upper16:.LC10
 1088 035c 003040E3 		movt	r3, #:upper16:.LC11
 1089 0360 002000E3 		movw	r2, #:lower16:.LC2
 1090 0364 001000E3 		movw	r1, #:lower16:.LC3
 1091              	.LVL124:
 1092 0368 08008DE5 		str	r0, [sp, #8]
 1093              	.LVL125:
 1094 036c 002040E3 		movt	r2, #:upper16:.LC2
 1095 0370 00308DE5 		str	r3, [sp]
 1096 0374 0500A0E1 		mov	r0, r5
 1097 0378 0CE08DE5 		str	lr, [sp, #12]
 1098 037c 001040E3 		movt	r1, #:upper16:.LC3
 1099 0380 04C08DE5 		str	ip, [sp, #4]
 1100 0384 2C30A0E3 		mov	r3, #44
 1101 0388 144095E5 		ldr	r4, [r5, #20]
 1102              	.LVL126:
 1103 038c 34FF2FE1 		blx	r4
 1104              	.LVL127:
 1105 0390 0600A0E1 		mov	r0, r6
 1106 0394 22FFFFEA 		b	.L84
 1107              	.LVL128:
 1108              	.L113:
 1109              	.LBB229:
 1110              	.LBB228:
  33:../src/tensorflow_lite/src/tensorflow/lite/micro/kernels/fill.cpp ****   }
 1111              		.loc 1 33 0
 1112 0398 000000E3 		movw	r0, #:lower16:.LC12
 1113 039c 003000E3 		movw	r3, #:lower16:.LC13
 1114 03a0 000040E3 		movt	r0, #:upper16:.LC12
 1115 03a4 003040E3 		movt	r3, #:upper16:.LC13
 1116 03a8 002000E3 		movw	r2, #:lower16:.LC2
 1117 03ac 001000E3 		movw	r1, #:lower16:.LC3
 1118 03b0 04008DE5 		str	r0, [sp, #4]
 1119              	.LVL129:
 1120 03b4 002040E3 		movt	r2, #:upper16:.LC2
 1121 03b8 00308DE5 		str	r3, [sp]
 1122 03bc 0500A0E1 		mov	r0, r5
 1123 03c0 0CE08DE5 		str	lr, [sp, #12]
 1124 03c4 001040E3 		movt	r1, #:upper16:.LC3
 1125 03c8 08C08DE5 		str	ip, [sp, #8]
 1126 03cc 2130A0E3 		mov	r3, #33
 1127 03d0 144095E5 		ldr	r4, [r5, #20]
 1128              	.LVL130:
 1129 03d4 34FF2FE1 		blx	r4
 1130              	.LVL131:
 1131 03d8 0100A0E3 		mov	r0, #1
 1132 03dc 10FFFFEA 		b	.L84
 1133              	.LVL132:
 1134              	.L117:
 1135              	.LBE228:
 1136              	.LBE229:
 1137              	.LBB230:
 1138              	.LBB219:
 1139 03e0 000000E3 		movw	r0, #:lower16:.LC12
 1140 03e4 003000E3 		movw	r3, #:lower16:.LC13
 1141 03e8 000040E3 		movt	r0, #:upper16:.LC12
 1142 03ec 003040E3 		movt	r3, #:upper16:.LC13
 1143 03f0 002000E3 		movw	r2, #:lower16:.LC2
 1144 03f4 001000E3 		movw	r1, #:lower16:.LC3
 1145 03f8 04008DE5 		str	r0, [sp, #4]
 1146              	.LVL133:
 1147 03fc 002040E3 		movt	r2, #:upper16:.LC2
 1148 0400 00308DE5 		str	r3, [sp]
 1149 0404 0500A0E1 		mov	r0, r5
 1150 0408 F061CDE1 		strd	r6, [sp, #16]
 1151 040c 001040E3 		movt	r1, #:upper16:.LC3
 1152 0410 08C08DE5 		str	ip, [sp, #8]
 1153 0414 2130A0E3 		mov	r3, #33
 1154 0418 144095E5 		ldr	r4, [r5, #20]
 1155              	.LVL134:
 1156 041c 34FF2FE1 		blx	r4
 1157              	.LVL135:
 1158 0420 0100A0E3 		mov	r0, #1
 1159 0424 FEFEFFEA 		b	.L84
 1160              	.LBE219:
 1161              	.LBE230:
 1162              	.LBE233:
 1163              	.LBE236:
 1164              	.LBE238:
 1165              		.cfi_endproc
 1166              	.LFE1137:
 1167              		.fnend
 1169              		.section	.text._ZN6tflite13Register_FILLEv,"ax",%progbits
 1170              		.align	2
 1171              		.global	_ZN6tflite13Register_FILLEv
 1172              		.syntax unified
 1173              		.arm
 1174              		.fpu neon
 1176              	_ZN6tflite13Register_FILLEv:
 1177              		.fnstart
 1178              	.LFB1140:
 117:../src/tensorflow_lite/src/tensorflow/lite/micro/kernels/fill.cpp **** 
 118:../src/tensorflow_lite/src/tensorflow/lite/micro/kernels/fill.cpp **** }  // namespace
 119:../src/tensorflow_lite/src/tensorflow/lite/micro/kernels/fill.cpp **** 
 120:../src/tensorflow_lite/src/tensorflow/lite/micro/kernels/fill.cpp **** TfLiteRegistration Register_FILL() {
 1179              		.loc 1 120 0
 1180              		.cfi_startproc
 1181              		@ args = 0, pretend = 0, frame = 0
 1182              		@ frame_needed = 0, uses_anonymous_args = 0
 1183              	.LVL136:
 121:../src/tensorflow_lite/src/tensorflow/lite/micro/kernels/fill.cpp ****   return {/*init=*/nullptr,
 122:../src/tensorflow_lite/src/tensorflow/lite/micro/kernels/fill.cpp ****           /*free=*/nullptr,
 123:../src/tensorflow_lite/src/tensorflow/lite/micro/kernels/fill.cpp ****           /*prepare=*/Prepare,
 124:../src/tensorflow_lite/src/tensorflow/lite/micro/kernels/fill.cpp ****           /*invoke=*/Eval,
 125:../src/tensorflow_lite/src/tensorflow/lite/micro/kernels/fill.cpp ****           /*profiling_string=*/nullptr,
 126:../src/tensorflow_lite/src/tensorflow/lite/micro/kernels/fill.cpp ****           /*builtin_code=*/0,
 127:../src/tensorflow_lite/src/tensorflow/lite/micro/kernels/fill.cpp ****           /*custom_name=*/nullptr,
 128:../src/tensorflow_lite/src/tensorflow/lite/micro/kernels/fill.cpp ****           /*version=*/0};
 1184              		.loc 1 128 0
 1185 0000 00C000E3 		movw	ip, #:lower16:.LANCHOR0
 120:../src/tensorflow_lite/src/tensorflow/lite/micro/kernels/fill.cpp ****   return {/*init=*/nullptr,
 1186              		.loc 1 120 0
 1187 0004 10402DE9 		push	{r4, lr}
 1188              		.cfi_def_cfa_offset 8
 1189              		.cfi_offset 4, -8
 1190              		.cfi_offset 14, -4
 1191              		.loc 1 128 0
 1192 0008 00C040E3 		movt	ip, #:upper16:.LANCHOR0
 120:../src/tensorflow_lite/src/tensorflow/lite/micro/kernels/fill.cpp ****   return {/*init=*/nullptr,
 1193              		.loc 1 120 0
 1194 000c 0040A0E1 		mov	r4, r0
 1195              		.loc 1 128 0
 1196 0010 00E0A0E1 		mov	lr, r0
 1197 0014 0F00BCE8 		ldmia	ip!, {r0, r1, r2, r3}
 1198              	.LVL137:
 1199 0018 0F00AEE8 		stmia	lr!, {r0, r1, r2, r3}
 1200 001c 0F009CE8 		ldm	ip, {r0, r1, r2, r3}
 1201 0020 0F008EE8 		stm	lr, {r0, r1, r2, r3}
 129:../src/tensorflow_lite/src/tensorflow/lite/micro/kernels/fill.cpp **** }
 1202              		.loc 1 129 0
 1203 0024 0400A0E1 		mov	r0, r4
 1204 0028 1080BDE8 		pop	{r4, pc}
 1205              		.cfi_endproc
 1206              	.LFE1140:
 1207              		.cantunwind
 1208              		.fnend
 1210              		.section	.rodata
 1211              		.align	2
 1212              		.set	.LANCHOR0,. + 0
 1213              	.LC0:
 1214 0000 00000000 		.word	0
 1215 0004 00000000 		.word	0
 1216 0008 00000000 		.word	_ZN6tflite12_GLOBAL__N_17PrepareEP13TfLiteContextP10TfLiteNode
 1217 000c 00000000 		.word	_ZN6tflite12_GLOBAL__N_14EvalEP13TfLiteContextP10TfLiteNode
 1218 0010 00000000 		.word	0
 1219 0014 00000000 		.word	0
 1220 0018 00000000 		.word	0
 1221 001c 00000000 		.word	0
 1222              		.section	.rodata._ZN6tflite12_GLOBAL__N_14EvalEP13TfLiteContextP10TfLiteNode.str1.4,"aMS",%progbit
 1223              		.align	2
 1224              	.LC1:
 1225 0000 46696C6C 		.ascii	"Fill only currently supports float32 for input 1, g"
 1225      206F6E6C 
 1225      79206375 
 1225      7272656E 
 1225      746C7920 
 1226 0033 6F742025 		.ascii	"ot %d.\000"
 1226      642E00
 1227              		.section	.rodata._ZN6tflite12_GLOBAL__N_17PrepareEP13TfLiteContextP10TfLiteNode.str1.4,"aMS",%prog
 1228              		.align	2
 1229              	.LC2:
 1230 0000 2E2E2F73 		.ascii	"../src/tensorflow_lite/src/tensorflow/lite/micro/ke"
 1230      72632F74 
 1230      656E736F 
 1230      72666C6F 
 1230      775F6C69 
 1231 0033 726E656C 		.ascii	"rnels/fill.cpp\000"
 1231      732F6669 
 1231      6C6C2E63 
 1231      707000
 1232 0042 0000     		.space	2
 1233              	.LC3:
 1234 0044 25733A25 		.ascii	"%s:%d %s != %s (%d != %d)\000"
 1234      64202573 
 1234      20213D20 
 1234      25732028 
 1234      25642021 
 1235 005e 0000     		.space	2
 1236              	.LC4:
 1237 0060 3000     		.ascii	"0\000"
 1238 0062 0000     		.space	2
 1239              	.LC5:
 1240 0064 4E756D44 		.ascii	"NumDimensions(value)\000"
 1240      696D656E 
 1240      73696F6E 
 1240      73287661 
 1240      6C756529 
 1241 0079 000000   		.space	3
 1242              	.LC6:
 1243 007c 6F757470 		.ascii	"output->type\000"
 1243      75742D3E 
 1243      74797065 
 1243      00
 1244 0089 000000   		.space	3
 1245              	.LC7:
 1246 008c 76616C75 		.ascii	"value->type\000"
 1246      652D3E74 
 1246      79706500 
 1247              	.LC8:
 1248 0098 3100     		.ascii	"1\000"
 1249 009a 0000     		.space	2
 1250              	.LC9:
 1251 009c 4E756D44 		.ascii	"NumDimensions(tensor)\000"
 1251      696D656E 
 1251      73696F6E 
 1251      73287465 
 1251      6E736F72 
 1252 00b2 0000     		.space	2
 1253              	.LC10:
 1254 00b4 74656E73 		.ascii	"tensor_len\000"
 1254      6F725F6C 
 1254      656E00
 1255 00bf 00       		.space	1
 1256              	.LC11:
 1257 00c0 61727261 		.ascii	"array->size\000"
 1257      792D3E73 
 1257      697A6500 
 1258              	.LC12:
 1259 00cc 47657454 		.ascii	"GetTensorData<T>(tensor)[i]\000"
 1259      656E736F 
 1259      72446174 
 1259      613C543E 
 1259      2874656E 
 1260              	.LC13:
 1261 00e8 61727261 		.ascii	"array->data[i]\000"
 1261      792D3E64 
 1261      6174615B 
 1261      695D00
 1262 00f7 00       		.space	1
 1263              	.LC14:
 1264 00f8 63616E6E 		.ascii	"cannot compare int array to tensor of type %d.\000"
 1264      6F742063 
 1264      6F6D7061 
 1264      72652069 
 1264      6E742061 
 1265              		.text
 1266              	.Letext0:
 1267              		.file 7 "c:\\program files (x86)\\gnu tools arm embedded\\6 2017-q2-update\\arm-none-eabi\\include
 1268              		.file 8 "c:\\program files (x86)\\gnu tools arm embedded\\6 2017-q2-update\\arm-none-eabi\\include
 1269              		.file 9 "c:\\program files (x86)\\gnu tools arm embedded\\6 2017-q2-update\\arm-none-eabi\\include
 1270              		.file 10 "c:\\program files (x86)\\gnu tools arm embedded\\6 2017-q2-update\\arm-none-eabi\\includ
 1271              		.file 11 "c:\\program files (x86)\\gnu tools arm embedded\\6 2017-q2-update\\arm-none-eabi\\includ
 1272              		.file 12 "c:\\program files (x86)\\gnu tools arm embedded\\6 2017-q2-update\\arm-none-eabi\\includ
 1273              		.file 13 "c:\\program files (x86)\\gnu tools arm embedded\\6 2017-q2-update\\arm-none-eabi\\includ
 1274              		.file 14 "c:\\program files (x86)\\gnu tools arm embedded\\6 2017-q2-update\\arm-none-eabi\\includ
 1275              		.file 15 "c:\\program files (x86)\\gnu tools arm embedded\\6 2017-q2-update\\arm-none-eabi\\includ
 1276              		.file 16 "c:\\program files (x86)\\gnu tools arm embedded\\6 2017-q2-update\\arm-none-eabi\\includ
 1277              		.file 17 "c:\\program files (x86)\\gnu tools arm embedded\\6 2017-q2-update\\arm-none-eabi\\includ
 1278              		.file 18 "c:\\program files (x86)\\gnu tools arm embedded\\6 2017-q2-update\\arm-none-eabi\\includ
 1279              		.file 19 "c:\\program files (x86)\\gnu tools arm embedded\\6 2017-q2-update\\arm-none-eabi\\includ
 1280              		.file 20 "c:\\program files (x86)\\gnu tools arm embedded\\6 2017-q2-update\\arm-none-eabi\\includ
 1281              		.file 21 "c:\\program files (x86)\\gnu tools arm embedded\\6 2017-q2-update\\arm-none-eabi\\includ
 1282              		.file 22 "c:\\program files (x86)\\gnu tools arm embedded\\6 2017-q2-update\\arm-none-eabi\\includ
 1283              		.file 23 "c:\\program files (x86)\\gnu tools arm embedded\\6 2017-q2-update\\lib\\gcc\\arm-none-ea
 1284              		.file 24 "c:\\program files (x86)\\gnu tools arm embedded\\6 2017-q2-update\\arm-none-eabi\\includ
 1285              		.file 25 "c:\\program files (x86)\\gnu tools arm embedded\\6 2017-q2-update\\arm-none-eabi\\includ
 1286              		.file 26 "c:\\program files (x86)\\gnu tools arm embedded\\6 2017-q2-update\\arm-none-eabi\\includ
 1287              		.file 27 "c:\\program files (x86)\\gnu tools arm embedded\\6 2017-q2-update\\arm-none-eabi\\includ
 1288              		.file 28 "c:\\program files (x86)\\gnu tools arm embedded\\6 2017-q2-update\\arm-none-eabi\\includ
 1289              		.file 29 "c:\\program files (x86)\\gnu tools arm embedded\\6 2017-q2-update\\arm-none-eabi\\includ
 1290              		.file 30 "c:\\program files (x86)\\gnu tools arm embedded\\6 2017-q2-update\\arm-none-eabi\\includ
 1291              		.file 31 "c:\\program files (x86)\\gnu tools arm embedded\\6 2017-q2-update\\arm-none-eabi\\includ
 1292              		.file 32 "c:\\program files (x86)\\gnu tools arm embedded\\6 2017-q2-update\\arm-none-eabi\\includ
 1293              		.file 33 "c:\\program files (x86)\\gnu tools arm embedded\\6 2017-q2-update\\arm-none-eabi\\includ
 1294              		.file 34 "C:/Renesas/e2studio_2021_01_workspace_RZA2M_ANPR/ANPR_RZA2M_GR_MANGO/src/tensorflow_lite
 1295              		.file 35 "C:/Renesas/e2studio_2021_01_workspace_RZA2M_ANPR/ANPR_RZA2M_GR_MANGO/src/tensorflow_lite
 1296              		.file 36 "<built-in>"