   1              		.cpu cortex-a9
   2              		.eabi_attribute 28, 1
   3              		.eabi_attribute 20, 1
   4              		.eabi_attribute 21, 1
   5              		.eabi_attribute 23, 3
   6              		.eabi_attribute 24, 1
   7              		.eabi_attribute 25, 1
   8              		.eabi_attribute 26, 1
   9              		.eabi_attribute 30, 2
  10              		.eabi_attribute 34, 0
  11              		.eabi_attribute 18, 4
  12              		.file	"gather.cpp"
  13              		.text
  14              	.Ltext0:
  15              		.cfi_sections	.debug_frame
  16              		.section	.text._ZN6tflite12_GLOBAL__N_17PrepareEP13TfLiteContextP10TfLiteNode,"ax",%progbits
  17              		.align	2
  18              		.syntax unified
  19              		.arm
  20              		.fpu neon
  22              	_ZN6tflite12_GLOBAL__N_17PrepareEP13TfLiteContextP10TfLiteNode:
  23              		.fnstart
  24              	.LFB1142:
  25              		.file 1 "../src/tensorflow_lite/src/tensorflow/lite/micro/kernels/gather.cpp"
   1:../src/tensorflow_lite/src/tensorflow/lite/micro/kernels/gather.cpp **** /* Copyright 2021 The TensorFlow Authors. All Rights Reserved.
   2:../src/tensorflow_lite/src/tensorflow/lite/micro/kernels/gather.cpp **** 
   3:../src/tensorflow_lite/src/tensorflow/lite/micro/kernels/gather.cpp **** Licensed under the Apache License, Version 2.0 (the "License");
   4:../src/tensorflow_lite/src/tensorflow/lite/micro/kernels/gather.cpp **** you may not use this file except in compliance with the License.
   5:../src/tensorflow_lite/src/tensorflow/lite/micro/kernels/gather.cpp **** You may obtain a copy of the License at
   6:../src/tensorflow_lite/src/tensorflow/lite/micro/kernels/gather.cpp **** 
   7:../src/tensorflow_lite/src/tensorflow/lite/micro/kernels/gather.cpp ****     http://www.apache.org/licenses/LICENSE-2.0
   8:../src/tensorflow_lite/src/tensorflow/lite/micro/kernels/gather.cpp **** 
   9:../src/tensorflow_lite/src/tensorflow/lite/micro/kernels/gather.cpp **** Unless required by applicable law or agreed to in writing, software
  10:../src/tensorflow_lite/src/tensorflow/lite/micro/kernels/gather.cpp **** distributed under the License is distributed on an "AS IS" BASIS,
  11:../src/tensorflow_lite/src/tensorflow/lite/micro/kernels/gather.cpp **** WITHOUT WARRANTIES OR CONDITIONS OF ANY KIND, either express or implied.
  12:../src/tensorflow_lite/src/tensorflow/lite/micro/kernels/gather.cpp **** See the License for the specific language governing permissions and
  13:../src/tensorflow_lite/src/tensorflow/lite/micro/kernels/gather.cpp **** limitations under the License.
  14:../src/tensorflow_lite/src/tensorflow/lite/micro/kernels/gather.cpp **** ==============================================================================*/
  15:../src/tensorflow_lite/src/tensorflow/lite/micro/kernels/gather.cpp **** 
  16:../src/tensorflow_lite/src/tensorflow/lite/micro/kernels/gather.cpp **** #include "tensorflow/lite/c/builtin_op_data.h"
  17:../src/tensorflow_lite/src/tensorflow/lite/micro/kernels/gather.cpp **** #include "tensorflow/lite/c/common.h"
  18:../src/tensorflow_lite/src/tensorflow/lite/micro/kernels/gather.cpp **** #include "tensorflow/lite/kernels/internal/tensor_ctypes.h"
  19:../src/tensorflow_lite/src/tensorflow/lite/micro/kernels/gather.cpp **** #include "tensorflow/lite/kernels/kernel_util.h"
  20:../src/tensorflow_lite/src/tensorflow/lite/micro/kernels/gather.cpp **** #include "tensorflow/lite/micro/kernels/kernel_util.h"
  21:../src/tensorflow_lite/src/tensorflow/lite/micro/kernels/gather.cpp **** #include "tensorflow/lite/micro/micro_utils.h"
  22:../src/tensorflow_lite/src/tensorflow/lite/micro/kernels/gather.cpp **** 
  23:../src/tensorflow_lite/src/tensorflow/lite/micro/kernels/gather.cpp **** namespace tflite {
  24:../src/tensorflow_lite/src/tensorflow/lite/micro/kernels/gather.cpp **** namespace {
  25:../src/tensorflow_lite/src/tensorflow/lite/micro/kernels/gather.cpp **** 
  26:../src/tensorflow_lite/src/tensorflow/lite/micro/kernels/gather.cpp **** constexpr int kInputTensor = 0;
  27:../src/tensorflow_lite/src/tensorflow/lite/micro/kernels/gather.cpp **** constexpr int kInputPositions = 1;
  28:../src/tensorflow_lite/src/tensorflow/lite/micro/kernels/gather.cpp **** constexpr int kOutputTensor = 0;
  29:../src/tensorflow_lite/src/tensorflow/lite/micro/kernels/gather.cpp **** 
  30:../src/tensorflow_lite/src/tensorflow/lite/micro/kernels/gather.cpp **** template <typename InputT, typename CoordsT = int32_t>
  31:../src/tensorflow_lite/src/tensorflow/lite/micro/kernels/gather.cpp **** TfLiteStatus Gather(const TfLiteGatherParams* params,
  32:../src/tensorflow_lite/src/tensorflow/lite/micro/kernels/gather.cpp ****                     const TfLiteEvalTensor* input,
  33:../src/tensorflow_lite/src/tensorflow/lite/micro/kernels/gather.cpp ****                     const TfLiteEvalTensor* coords, TfLiteEvalTensor* output) {
  34:../src/tensorflow_lite/src/tensorflow/lite/micro/kernels/gather.cpp ****   const InputT* input_data = tflite::micro::GetTensorData<InputT>(input);
  35:../src/tensorflow_lite/src/tensorflow/lite/micro/kernels/gather.cpp ****   const CoordsT* coords_data = tflite::micro::GetTensorData<CoordsT>(coords);
  36:../src/tensorflow_lite/src/tensorflow/lite/micro/kernels/gather.cpp ****   InputT* output_data = tflite::micro::GetTensorData<InputT>(output);
  37:../src/tensorflow_lite/src/tensorflow/lite/micro/kernels/gather.cpp ****   const TfLiteIntArray* input_dims = input->dims;
  38:../src/tensorflow_lite/src/tensorflow/lite/micro/kernels/gather.cpp ****   const int input_dims_size = input_dims->size;
  39:../src/tensorflow_lite/src/tensorflow/lite/micro/kernels/gather.cpp ****   int axis = params->axis;
  40:../src/tensorflow_lite/src/tensorflow/lite/micro/kernels/gather.cpp ****   if (axis < 0) {
  41:../src/tensorflow_lite/src/tensorflow/lite/micro/kernels/gather.cpp ****     axis += input_dims_size;
  42:../src/tensorflow_lite/src/tensorflow/lite/micro/kernels/gather.cpp ****   }
  43:../src/tensorflow_lite/src/tensorflow/lite/micro/kernels/gather.cpp ****   TFLITE_DCHECK_GE(axis, 0);
  44:../src/tensorflow_lite/src/tensorflow/lite/micro/kernels/gather.cpp ****   TFLITE_DCHECK_LT(axis, input_dims_size);
  45:../src/tensorflow_lite/src/tensorflow/lite/micro/kernels/gather.cpp **** 
  46:../src/tensorflow_lite/src/tensorflow/lite/micro/kernels/gather.cpp ****   int batch_dims = params->batch_dims;
  47:../src/tensorflow_lite/src/tensorflow/lite/micro/kernels/gather.cpp ****   // batch_dims should be in range: [-rank(coords), rank(coords)].
  48:../src/tensorflow_lite/src/tensorflow/lite/micro/kernels/gather.cpp ****   // Negative batch_dims is added with rank of coords.
  49:../src/tensorflow_lite/src/tensorflow/lite/micro/kernels/gather.cpp ****   const TfLiteIntArray* coords_dims = coords->dims;
  50:../src/tensorflow_lite/src/tensorflow/lite/micro/kernels/gather.cpp ****   const int coords_dims_size = coords_dims->size;
  51:../src/tensorflow_lite/src/tensorflow/lite/micro/kernels/gather.cpp ****   if (batch_dims < 0) {
  52:../src/tensorflow_lite/src/tensorflow/lite/micro/kernels/gather.cpp ****     batch_dims += coords_dims_size;
  53:../src/tensorflow_lite/src/tensorflow/lite/micro/kernels/gather.cpp ****   }
  54:../src/tensorflow_lite/src/tensorflow/lite/micro/kernels/gather.cpp ****   TFLITE_DCHECK_GE(batch_dims, 0);
  55:../src/tensorflow_lite/src/tensorflow/lite/micro/kernels/gather.cpp ****   TFLITE_DCHECK_LT(batch_dims, input_dims_size);
  56:../src/tensorflow_lite/src/tensorflow/lite/micro/kernels/gather.cpp ****   TFLITE_DCHECK_LE(batch_dims, coords_dims_size);
  57:../src/tensorflow_lite/src/tensorflow/lite/micro/kernels/gather.cpp ****   TFLITE_DCHECK_GE(axis, batch_dims);
  58:../src/tensorflow_lite/src/tensorflow/lite/micro/kernels/gather.cpp ****   for (int i = 0; i < batch_dims; ++i) {
  59:../src/tensorflow_lite/src/tensorflow/lite/micro/kernels/gather.cpp ****     TFLITE_DCHECK_EQ(input_dims->data[i], coords_dims->data[i]);
  60:../src/tensorflow_lite/src/tensorflow/lite/micro/kernels/gather.cpp ****   }
  61:../src/tensorflow_lite/src/tensorflow/lite/micro/kernels/gather.cpp **** 
  62:../src/tensorflow_lite/src/tensorflow/lite/micro/kernels/gather.cpp ****   const int axis_size = input_dims->data[axis];
  63:../src/tensorflow_lite/src/tensorflow/lite/micro/kernels/gather.cpp **** 
  64:../src/tensorflow_lite/src/tensorflow/lite/micro/kernels/gather.cpp ****   int batch_size = 1;
  65:../src/tensorflow_lite/src/tensorflow/lite/micro/kernels/gather.cpp ****   for (int i = 0; i < batch_dims; ++i) {
  66:../src/tensorflow_lite/src/tensorflow/lite/micro/kernels/gather.cpp ****     batch_size *= input_dims->data[i];
  67:../src/tensorflow_lite/src/tensorflow/lite/micro/kernels/gather.cpp ****   }
  68:../src/tensorflow_lite/src/tensorflow/lite/micro/kernels/gather.cpp ****   int outer_size = 1;
  69:../src/tensorflow_lite/src/tensorflow/lite/micro/kernels/gather.cpp ****   for (int i = batch_dims; i < axis; ++i) {
  70:../src/tensorflow_lite/src/tensorflow/lite/micro/kernels/gather.cpp ****     outer_size *= input_dims->data[i];
  71:../src/tensorflow_lite/src/tensorflow/lite/micro/kernels/gather.cpp ****   }
  72:../src/tensorflow_lite/src/tensorflow/lite/micro/kernels/gather.cpp ****   int inner_size = 1;
  73:../src/tensorflow_lite/src/tensorflow/lite/micro/kernels/gather.cpp ****   for (int i = axis + 1; i < input_dims_size; ++i) {
  74:../src/tensorflow_lite/src/tensorflow/lite/micro/kernels/gather.cpp ****     inner_size *= input_dims->data[i];
  75:../src/tensorflow_lite/src/tensorflow/lite/micro/kernels/gather.cpp ****   }
  76:../src/tensorflow_lite/src/tensorflow/lite/micro/kernels/gather.cpp ****   int coord_size = 1;
  77:../src/tensorflow_lite/src/tensorflow/lite/micro/kernels/gather.cpp ****   for (int i = batch_dims; i < coords_dims_size; ++i) {
  78:../src/tensorflow_lite/src/tensorflow/lite/micro/kernels/gather.cpp ****     coord_size *= coords_dims->data[i];
  79:../src/tensorflow_lite/src/tensorflow/lite/micro/kernels/gather.cpp ****   }
  80:../src/tensorflow_lite/src/tensorflow/lite/micro/kernels/gather.cpp **** 
  81:../src/tensorflow_lite/src/tensorflow/lite/micro/kernels/gather.cpp ****   for (int batch = 0; batch < batch_size; ++batch) {
  82:../src/tensorflow_lite/src/tensorflow/lite/micro/kernels/gather.cpp ****     for (int outer = 0; outer < outer_size; ++outer) {
  83:../src/tensorflow_lite/src/tensorflow/lite/micro/kernels/gather.cpp ****       for (int coord = 0; coord < coord_size; ++coord) {
  84:../src/tensorflow_lite/src/tensorflow/lite/micro/kernels/gather.cpp ****         TFLITE_DCHECK_GE(coords_data[coord], 0);
  85:../src/tensorflow_lite/src/tensorflow/lite/micro/kernels/gather.cpp ****         TFLITE_DCHECK_LT(coords_data[coord], axis_size);
  86:../src/tensorflow_lite/src/tensorflow/lite/micro/kernels/gather.cpp ****         std::memcpy(output_data +
  87:../src/tensorflow_lite/src/tensorflow/lite/micro/kernels/gather.cpp ****                         (((batch * outer_size) + outer) * coord_size + coord) *
  88:../src/tensorflow_lite/src/tensorflow/lite/micro/kernels/gather.cpp ****                             inner_size,
  89:../src/tensorflow_lite/src/tensorflow/lite/micro/kernels/gather.cpp ****                     input_data + (((batch * outer_size) + outer) * axis_size +
  90:../src/tensorflow_lite/src/tensorflow/lite/micro/kernels/gather.cpp ****                                   coords_data[batch * coord_size + coord]) *
  91:../src/tensorflow_lite/src/tensorflow/lite/micro/kernels/gather.cpp ****                                      inner_size,
  92:../src/tensorflow_lite/src/tensorflow/lite/micro/kernels/gather.cpp ****                     sizeof(InputT) * inner_size);
  93:../src/tensorflow_lite/src/tensorflow/lite/micro/kernels/gather.cpp ****       }
  94:../src/tensorflow_lite/src/tensorflow/lite/micro/kernels/gather.cpp ****     }
  95:../src/tensorflow_lite/src/tensorflow/lite/micro/kernels/gather.cpp ****   }
  96:../src/tensorflow_lite/src/tensorflow/lite/micro/kernels/gather.cpp ****   return kTfLiteOk;
  97:../src/tensorflow_lite/src/tensorflow/lite/micro/kernels/gather.cpp **** }
  98:../src/tensorflow_lite/src/tensorflow/lite/micro/kernels/gather.cpp **** 
  99:../src/tensorflow_lite/src/tensorflow/lite/micro/kernels/gather.cpp **** TfLiteStatus Prepare(TfLiteContext* context, TfLiteNode* node) {
  26              		.loc 1 99 0
  27              		.cfi_startproc
  28              		@ args = 0, pretend = 0, frame = 24
  29              		@ frame_needed = 0, uses_anonymous_args = 0
  30              	.LVL0:
  31              	.LBB132:
  32              	.LBB133:
  33              		.file 2 "C:/Renesas/e2studio_2021_01_workspace_RZA2M_ANPR/ANPR_RZA2M_GR_MANGO/src/tensorflow_lite/
   1:C:/Renesas/e2studio_2021_01_workspace_RZA2M_ANPR/ANPR_RZA2M_GR_MANGO/src/tensorflow_lite/src/tensorflow/lite/kernels\kernel_util.h **** /* Copyright 2017 The TensorFlow Authors. All Rights Reserved.
   2:C:/Renesas/e2studio_2021_01_workspace_RZA2M_ANPR/ANPR_RZA2M_GR_MANGO/src/tensorflow_lite/src/tensorflow/lite/kernels\kernel_util.h **** 
   3:C:/Renesas/e2studio_2021_01_workspace_RZA2M_ANPR/ANPR_RZA2M_GR_MANGO/src/tensorflow_lite/src/tensorflow/lite/kernels\kernel_util.h **** Licensed under the Apache License, Version 2.0 (the "License");
   4:C:/Renesas/e2studio_2021_01_workspace_RZA2M_ANPR/ANPR_RZA2M_GR_MANGO/src/tensorflow_lite/src/tensorflow/lite/kernels\kernel_util.h **** you may not use this file except in compliance with the License.
   5:C:/Renesas/e2studio_2021_01_workspace_RZA2M_ANPR/ANPR_RZA2M_GR_MANGO/src/tensorflow_lite/src/tensorflow/lite/kernels\kernel_util.h **** You may obtain a copy of the License at
   6:C:/Renesas/e2studio_2021_01_workspace_RZA2M_ANPR/ANPR_RZA2M_GR_MANGO/src/tensorflow_lite/src/tensorflow/lite/kernels\kernel_util.h **** 
   7:C:/Renesas/e2studio_2021_01_workspace_RZA2M_ANPR/ANPR_RZA2M_GR_MANGO/src/tensorflow_lite/src/tensorflow/lite/kernels\kernel_util.h ****     http://www.apache.org/licenses/LICENSE-2.0
   8:C:/Renesas/e2studio_2021_01_workspace_RZA2M_ANPR/ANPR_RZA2M_GR_MANGO/src/tensorflow_lite/src/tensorflow/lite/kernels\kernel_util.h **** 
   9:C:/Renesas/e2studio_2021_01_workspace_RZA2M_ANPR/ANPR_RZA2M_GR_MANGO/src/tensorflow_lite/src/tensorflow/lite/kernels\kernel_util.h **** Unless required by applicable law or agreed to in writing, software
  10:C:/Renesas/e2studio_2021_01_workspace_RZA2M_ANPR/ANPR_RZA2M_GR_MANGO/src/tensorflow_lite/src/tensorflow/lite/kernels\kernel_util.h **** distributed under the License is distributed on an "AS IS" BASIS,
  11:C:/Renesas/e2studio_2021_01_workspace_RZA2M_ANPR/ANPR_RZA2M_GR_MANGO/src/tensorflow_lite/src/tensorflow/lite/kernels\kernel_util.h **** WITHOUT WARRANTIES OR CONDITIONS OF ANY KIND, either express or implied.
  12:C:/Renesas/e2studio_2021_01_workspace_RZA2M_ANPR/ANPR_RZA2M_GR_MANGO/src/tensorflow_lite/src/tensorflow/lite/kernels\kernel_util.h **** See the License for the specific language governing permissions and
  13:C:/Renesas/e2studio_2021_01_workspace_RZA2M_ANPR/ANPR_RZA2M_GR_MANGO/src/tensorflow_lite/src/tensorflow/lite/kernels\kernel_util.h **** limitations under the License.
  14:C:/Renesas/e2studio_2021_01_workspace_RZA2M_ANPR/ANPR_RZA2M_GR_MANGO/src/tensorflow_lite/src/tensorflow/lite/kernels\kernel_util.h **** ==============================================================================*/
  15:C:/Renesas/e2studio_2021_01_workspace_RZA2M_ANPR/ANPR_RZA2M_GR_MANGO/src/tensorflow_lite/src/tensorflow/lite/kernels\kernel_util.h **** #ifndef TENSORFLOW_LITE_KERNELS_KERNEL_UTIL_H_
  16:C:/Renesas/e2studio_2021_01_workspace_RZA2M_ANPR/ANPR_RZA2M_GR_MANGO/src/tensorflow_lite/src/tensorflow/lite/kernels\kernel_util.h **** #define TENSORFLOW_LITE_KERNELS_KERNEL_UTIL_H_
  17:C:/Renesas/e2studio_2021_01_workspace_RZA2M_ANPR/ANPR_RZA2M_GR_MANGO/src/tensorflow_lite/src/tensorflow/lite/kernels\kernel_util.h **** 
  18:C:/Renesas/e2studio_2021_01_workspace_RZA2M_ANPR/ANPR_RZA2M_GR_MANGO/src/tensorflow_lite/src/tensorflow/lite/kernels\kernel_util.h **** #include <stdint.h>
  19:C:/Renesas/e2studio_2021_01_workspace_RZA2M_ANPR/ANPR_RZA2M_GR_MANGO/src/tensorflow_lite/src/tensorflow/lite/kernels\kernel_util.h **** 
  20:C:/Renesas/e2studio_2021_01_workspace_RZA2M_ANPR/ANPR_RZA2M_GR_MANGO/src/tensorflow_lite/src/tensorflow/lite/kernels\kernel_util.h **** #include <limits>
  21:C:/Renesas/e2studio_2021_01_workspace_RZA2M_ANPR/ANPR_RZA2M_GR_MANGO/src/tensorflow_lite/src/tensorflow/lite/kernels\kernel_util.h **** 
  22:C:/Renesas/e2studio_2021_01_workspace_RZA2M_ANPR/ANPR_RZA2M_GR_MANGO/src/tensorflow_lite/src/tensorflow/lite/kernels\kernel_util.h **** #include "tensorflow/lite/c/builtin_op_data.h"
  23:C:/Renesas/e2studio_2021_01_workspace_RZA2M_ANPR/ANPR_RZA2M_GR_MANGO/src/tensorflow_lite/src/tensorflow/lite/kernels\kernel_util.h **** #include "tensorflow/lite/c/common.h"
  24:C:/Renesas/e2studio_2021_01_workspace_RZA2M_ANPR/ANPR_RZA2M_GR_MANGO/src/tensorflow_lite/src/tensorflow/lite/kernels\kernel_util.h **** 
  25:C:/Renesas/e2studio_2021_01_workspace_RZA2M_ANPR/ANPR_RZA2M_GR_MANGO/src/tensorflow_lite/src/tensorflow/lite/kernels\kernel_util.h **** namespace tflite {
  26:C:/Renesas/e2studio_2021_01_workspace_RZA2M_ANPR/ANPR_RZA2M_GR_MANGO/src/tensorflow_lite/src/tensorflow/lite/kernels\kernel_util.h **** 
  27:C:/Renesas/e2studio_2021_01_workspace_RZA2M_ANPR/ANPR_RZA2M_GR_MANGO/src/tensorflow_lite/src/tensorflow/lite/kernels\kernel_util.h **** // A fair number of functions in this header have historically been inline.
  28:C:/Renesas/e2studio_2021_01_workspace_RZA2M_ANPR/ANPR_RZA2M_GR_MANGO/src/tensorflow_lite/src/tensorflow/lite/kernels\kernel_util.h **** // It is ok to change functions to not be inline if the latency with
  29:C:/Renesas/e2studio_2021_01_workspace_RZA2M_ANPR/ANPR_RZA2M_GR_MANGO/src/tensorflow_lite/src/tensorflow/lite/kernels\kernel_util.h **** // benchmark_model for MobileNet + MobileBERT is unaffected. If such a change is
  30:C:/Renesas/e2studio_2021_01_workspace_RZA2M_ANPR/ANPR_RZA2M_GR_MANGO/src/tensorflow_lite/src/tensorflow/lite/kernels\kernel_util.h **** // made, move the newly non-inlined function declarations to the top of this
  31:C:/Renesas/e2studio_2021_01_workspace_RZA2M_ANPR/ANPR_RZA2M_GR_MANGO/src/tensorflow_lite/src/tensorflow/lite/kernels\kernel_util.h **** // header file.
  32:C:/Renesas/e2studio_2021_01_workspace_RZA2M_ANPR/ANPR_RZA2M_GR_MANGO/src/tensorflow_lite/src/tensorflow/lite/kernels\kernel_util.h **** 
  33:C:/Renesas/e2studio_2021_01_workspace_RZA2M_ANPR/ANPR_RZA2M_GR_MANGO/src/tensorflow_lite/src/tensorflow/lite/kernels\kernel_util.h **** // Note: You must check if result is not null:
  34:C:/Renesas/e2studio_2021_01_workspace_RZA2M_ANPR/ANPR_RZA2M_GR_MANGO/src/tensorflow_lite/src/tensorflow/lite/kernels\kernel_util.h **** //
  35:C:/Renesas/e2studio_2021_01_workspace_RZA2M_ANPR/ANPR_RZA2M_GR_MANGO/src/tensorflow_lite/src/tensorflow/lite/kernels\kernel_util.h **** //   TfLiteTensor* my_tensor = GetInput(context, node, kMyTensorIdx);
  36:C:/Renesas/e2studio_2021_01_workspace_RZA2M_ANPR/ANPR_RZA2M_GR_MANGO/src/tensorflow_lite/src/tensorflow/lite/kernels\kernel_util.h **** //   TF_LITE_ENSURE(context, my_tensor != nullptr);
  37:C:/Renesas/e2studio_2021_01_workspace_RZA2M_ANPR/ANPR_RZA2M_GR_MANGO/src/tensorflow_lite/src/tensorflow/lite/kernels\kernel_util.h **** //
  38:C:/Renesas/e2studio_2021_01_workspace_RZA2M_ANPR/ANPR_RZA2M_GR_MANGO/src/tensorflow_lite/src/tensorflow/lite/kernels\kernel_util.h **** // This is because the index might point to the optional tensor constant
  39:C:/Renesas/e2studio_2021_01_workspace_RZA2M_ANPR/ANPR_RZA2M_GR_MANGO/src/tensorflow_lite/src/tensorflow/lite/kernels\kernel_util.h **** // (kTfLiteOptionalTensor) in which case there is no tensor to return.
  40:C:/Renesas/e2studio_2021_01_workspace_RZA2M_ANPR/ANPR_RZA2M_GR_MANGO/src/tensorflow_lite/src/tensorflow/lite/kernels\kernel_util.h **** const TfLiteTensor* GetInput(const TfLiteContext* context,
  41:C:/Renesas/e2studio_2021_01_workspace_RZA2M_ANPR/ANPR_RZA2M_GR_MANGO/src/tensorflow_lite/src/tensorflow/lite/kernels\kernel_util.h ****                              const TfLiteNode* node, int index);
  42:C:/Renesas/e2studio_2021_01_workspace_RZA2M_ANPR/ANPR_RZA2M_GR_MANGO/src/tensorflow_lite/src/tensorflow/lite/kernels\kernel_util.h **** 
  43:C:/Renesas/e2studio_2021_01_workspace_RZA2M_ANPR/ANPR_RZA2M_GR_MANGO/src/tensorflow_lite/src/tensorflow/lite/kernels\kernel_util.h **** // Same as `GetInput` but returns boolean and uses output argument for tensor.
  44:C:/Renesas/e2studio_2021_01_workspace_RZA2M_ANPR/ANPR_RZA2M_GR_MANGO/src/tensorflow_lite/src/tensorflow/lite/kernels\kernel_util.h **** //
  45:C:/Renesas/e2studio_2021_01_workspace_RZA2M_ANPR/ANPR_RZA2M_GR_MANGO/src/tensorflow_lite/src/tensorflow/lite/kernels\kernel_util.h **** //   TfLiteTensor* my_tensor;
  46:C:/Renesas/e2studio_2021_01_workspace_RZA2M_ANPR/ANPR_RZA2M_GR_MANGO/src/tensorflow_lite/src/tensorflow/lite/kernels\kernel_util.h **** //   TF_LITE_ENSURE_OK(context,
  47:C:/Renesas/e2studio_2021_01_workspace_RZA2M_ANPR/ANPR_RZA2M_GR_MANGO/src/tensorflow_lite/src/tensorflow/lite/kernels\kernel_util.h **** //                     GetInputSafe(context, node, kMyTensorIdx, &my_tensor));
  48:C:/Renesas/e2studio_2021_01_workspace_RZA2M_ANPR/ANPR_RZA2M_GR_MANGO/src/tensorflow_lite/src/tensorflow/lite/kernels\kernel_util.h **** //   // can use my_tensor directly from here onwards, it is not nullptr
  49:C:/Renesas/e2studio_2021_01_workspace_RZA2M_ANPR/ANPR_RZA2M_GR_MANGO/src/tensorflow_lite/src/tensorflow/lite/kernels\kernel_util.h **** //
  50:C:/Renesas/e2studio_2021_01_workspace_RZA2M_ANPR/ANPR_RZA2M_GR_MANGO/src/tensorflow_lite/src/tensorflow/lite/kernels\kernel_util.h **** // Should be used in cases where the binary size is too large.
  51:C:/Renesas/e2studio_2021_01_workspace_RZA2M_ANPR/ANPR_RZA2M_GR_MANGO/src/tensorflow_lite/src/tensorflow/lite/kernels\kernel_util.h **** TfLiteStatus GetInputSafe(const TfLiteContext* context, const TfLiteNode* node,
  52:C:/Renesas/e2studio_2021_01_workspace_RZA2M_ANPR/ANPR_RZA2M_GR_MANGO/src/tensorflow_lite/src/tensorflow/lite/kernels\kernel_util.h ****                           int index, const TfLiteTensor** tensor);
  53:C:/Renesas/e2studio_2021_01_workspace_RZA2M_ANPR/ANPR_RZA2M_GR_MANGO/src/tensorflow_lite/src/tensorflow/lite/kernels\kernel_util.h **** 
  54:C:/Renesas/e2studio_2021_01_workspace_RZA2M_ANPR/ANPR_RZA2M_GR_MANGO/src/tensorflow_lite/src/tensorflow/lite/kernels\kernel_util.h **** // Note: You must check if result is not null:
  55:C:/Renesas/e2studio_2021_01_workspace_RZA2M_ANPR/ANPR_RZA2M_GR_MANGO/src/tensorflow_lite/src/tensorflow/lite/kernels\kernel_util.h **** //
  56:C:/Renesas/e2studio_2021_01_workspace_RZA2M_ANPR/ANPR_RZA2M_GR_MANGO/src/tensorflow_lite/src/tensorflow/lite/kernels\kernel_util.h **** //   TfLiteTensor* my_tensor = GetVariableInput(context, node, kMyTensorIdx);
  57:C:/Renesas/e2studio_2021_01_workspace_RZA2M_ANPR/ANPR_RZA2M_GR_MANGO/src/tensorflow_lite/src/tensorflow/lite/kernels\kernel_util.h **** //   TF_LITE_ENSURE(context, my_tensor != nullptr);
  58:C:/Renesas/e2studio_2021_01_workspace_RZA2M_ANPR/ANPR_RZA2M_GR_MANGO/src/tensorflow_lite/src/tensorflow/lite/kernels\kernel_util.h **** //
  59:C:/Renesas/e2studio_2021_01_workspace_RZA2M_ANPR/ANPR_RZA2M_GR_MANGO/src/tensorflow_lite/src/tensorflow/lite/kernels\kernel_util.h **** // This is because the index might point to the optional tensor constant
  60:C:/Renesas/e2studio_2021_01_workspace_RZA2M_ANPR/ANPR_RZA2M_GR_MANGO/src/tensorflow_lite/src/tensorflow/lite/kernels\kernel_util.h **** // (kTfLiteOptionalTensor) in which case there is no tensor to return.
  61:C:/Renesas/e2studio_2021_01_workspace_RZA2M_ANPR/ANPR_RZA2M_GR_MANGO/src/tensorflow_lite/src/tensorflow/lite/kernels\kernel_util.h **** TfLiteTensor* GetVariableInput(TfLiteContext* context, const TfLiteNode* node,
  62:C:/Renesas/e2studio_2021_01_workspace_RZA2M_ANPR/ANPR_RZA2M_GR_MANGO/src/tensorflow_lite/src/tensorflow/lite/kernels\kernel_util.h ****                                int index);
  63:C:/Renesas/e2studio_2021_01_workspace_RZA2M_ANPR/ANPR_RZA2M_GR_MANGO/src/tensorflow_lite/src/tensorflow/lite/kernels\kernel_util.h **** 
  64:C:/Renesas/e2studio_2021_01_workspace_RZA2M_ANPR/ANPR_RZA2M_GR_MANGO/src/tensorflow_lite/src/tensorflow/lite/kernels\kernel_util.h **** // Note: You must check if result is not null:
  65:C:/Renesas/e2studio_2021_01_workspace_RZA2M_ANPR/ANPR_RZA2M_GR_MANGO/src/tensorflow_lite/src/tensorflow/lite/kernels\kernel_util.h **** //
  66:C:/Renesas/e2studio_2021_01_workspace_RZA2M_ANPR/ANPR_RZA2M_GR_MANGO/src/tensorflow_lite/src/tensorflow/lite/kernels\kernel_util.h **** //   TfLiteTensor* my_tensor = GetOutput(context, node, kMyTensorIdx);
  67:C:/Renesas/e2studio_2021_01_workspace_RZA2M_ANPR/ANPR_RZA2M_GR_MANGO/src/tensorflow_lite/src/tensorflow/lite/kernels\kernel_util.h **** //   TF_LITE_ENSURE(context, my_tensor != nullptr);
  68:C:/Renesas/e2studio_2021_01_workspace_RZA2M_ANPR/ANPR_RZA2M_GR_MANGO/src/tensorflow_lite/src/tensorflow/lite/kernels\kernel_util.h **** //
  69:C:/Renesas/e2studio_2021_01_workspace_RZA2M_ANPR/ANPR_RZA2M_GR_MANGO/src/tensorflow_lite/src/tensorflow/lite/kernels\kernel_util.h **** // This is because the index might point to the optional tensor constant
  70:C:/Renesas/e2studio_2021_01_workspace_RZA2M_ANPR/ANPR_RZA2M_GR_MANGO/src/tensorflow_lite/src/tensorflow/lite/kernels\kernel_util.h **** // (kTfLiteOptionalTensor) in which case there is no tensor to return.
  71:C:/Renesas/e2studio_2021_01_workspace_RZA2M_ANPR/ANPR_RZA2M_GR_MANGO/src/tensorflow_lite/src/tensorflow/lite/kernels\kernel_util.h **** TfLiteTensor* GetOutput(TfLiteContext* context, const TfLiteNode* node,
  72:C:/Renesas/e2studio_2021_01_workspace_RZA2M_ANPR/ANPR_RZA2M_GR_MANGO/src/tensorflow_lite/src/tensorflow/lite/kernels\kernel_util.h ****                         int index);
  73:C:/Renesas/e2studio_2021_01_workspace_RZA2M_ANPR/ANPR_RZA2M_GR_MANGO/src/tensorflow_lite/src/tensorflow/lite/kernels\kernel_util.h **** 
  74:C:/Renesas/e2studio_2021_01_workspace_RZA2M_ANPR/ANPR_RZA2M_GR_MANGO/src/tensorflow_lite/src/tensorflow/lite/kernels\kernel_util.h **** // Same as `GetOutput` but returns boolean and uses output argument for tensor.
  75:C:/Renesas/e2studio_2021_01_workspace_RZA2M_ANPR/ANPR_RZA2M_GR_MANGO/src/tensorflow_lite/src/tensorflow/lite/kernels\kernel_util.h **** //
  76:C:/Renesas/e2studio_2021_01_workspace_RZA2M_ANPR/ANPR_RZA2M_GR_MANGO/src/tensorflow_lite/src/tensorflow/lite/kernels\kernel_util.h **** //   TfLiteTensor* my_tensor;
  77:C:/Renesas/e2studio_2021_01_workspace_RZA2M_ANPR/ANPR_RZA2M_GR_MANGO/src/tensorflow_lite/src/tensorflow/lite/kernels\kernel_util.h **** //   TF_LITE_ENSURE_OK(context,
  78:C:/Renesas/e2studio_2021_01_workspace_RZA2M_ANPR/ANPR_RZA2M_GR_MANGO/src/tensorflow_lite/src/tensorflow/lite/kernels\kernel_util.h **** //                     GetOutputSafe(context, node, kMyTensorIdx, &my_tensor));
  79:C:/Renesas/e2studio_2021_01_workspace_RZA2M_ANPR/ANPR_RZA2M_GR_MANGO/src/tensorflow_lite/src/tensorflow/lite/kernels\kernel_util.h **** //   // can use my_tensor directly from here onwards, it is not nullptr
  80:C:/Renesas/e2studio_2021_01_workspace_RZA2M_ANPR/ANPR_RZA2M_GR_MANGO/src/tensorflow_lite/src/tensorflow/lite/kernels\kernel_util.h **** //
  81:C:/Renesas/e2studio_2021_01_workspace_RZA2M_ANPR/ANPR_RZA2M_GR_MANGO/src/tensorflow_lite/src/tensorflow/lite/kernels\kernel_util.h **** // Should be used in cases where the binary size is too large.
  82:C:/Renesas/e2studio_2021_01_workspace_RZA2M_ANPR/ANPR_RZA2M_GR_MANGO/src/tensorflow_lite/src/tensorflow/lite/kernels\kernel_util.h **** TfLiteStatus GetOutputSafe(const TfLiteContext* context, const TfLiteNode* node,
  83:C:/Renesas/e2studio_2021_01_workspace_RZA2M_ANPR/ANPR_RZA2M_GR_MANGO/src/tensorflow_lite/src/tensorflow/lite/kernels\kernel_util.h ****                            int index, TfLiteTensor** tensor);
  84:C:/Renesas/e2studio_2021_01_workspace_RZA2M_ANPR/ANPR_RZA2M_GR_MANGO/src/tensorflow_lite/src/tensorflow/lite/kernels\kernel_util.h **** 
  85:C:/Renesas/e2studio_2021_01_workspace_RZA2M_ANPR/ANPR_RZA2M_GR_MANGO/src/tensorflow_lite/src/tensorflow/lite/kernels\kernel_util.h **** // Note: You must check if result is not null:
  86:C:/Renesas/e2studio_2021_01_workspace_RZA2M_ANPR/ANPR_RZA2M_GR_MANGO/src/tensorflow_lite/src/tensorflow/lite/kernels\kernel_util.h **** //
  87:C:/Renesas/e2studio_2021_01_workspace_RZA2M_ANPR/ANPR_RZA2M_GR_MANGO/src/tensorflow_lite/src/tensorflow/lite/kernels\kernel_util.h **** //   TfLiteTensor* my_tensor = GetOptionalInputTensor(context, node, kIdx);
  88:C:/Renesas/e2studio_2021_01_workspace_RZA2M_ANPR/ANPR_RZA2M_GR_MANGO/src/tensorflow_lite/src/tensorflow/lite/kernels\kernel_util.h **** //   TF_LITE_ENSURE(context, my_tensor != nullptr);
  89:C:/Renesas/e2studio_2021_01_workspace_RZA2M_ANPR/ANPR_RZA2M_GR_MANGO/src/tensorflow_lite/src/tensorflow/lite/kernels\kernel_util.h **** //
  90:C:/Renesas/e2studio_2021_01_workspace_RZA2M_ANPR/ANPR_RZA2M_GR_MANGO/src/tensorflow_lite/src/tensorflow/lite/kernels\kernel_util.h **** // This is because the index might point to the optional tensor constant
  91:C:/Renesas/e2studio_2021_01_workspace_RZA2M_ANPR/ANPR_RZA2M_GR_MANGO/src/tensorflow_lite/src/tensorflow/lite/kernels\kernel_util.h **** // (kTfLiteOptionalTensor) in which case there is no tensor to return.
  92:C:/Renesas/e2studio_2021_01_workspace_RZA2M_ANPR/ANPR_RZA2M_GR_MANGO/src/tensorflow_lite/src/tensorflow/lite/kernels\kernel_util.h **** //
  93:C:/Renesas/e2studio_2021_01_workspace_RZA2M_ANPR/ANPR_RZA2M_GR_MANGO/src/tensorflow_lite/src/tensorflow/lite/kernels\kernel_util.h **** // Deprecated. GetInput has the same functionality.
  94:C:/Renesas/e2studio_2021_01_workspace_RZA2M_ANPR/ANPR_RZA2M_GR_MANGO/src/tensorflow_lite/src/tensorflow/lite/kernels\kernel_util.h **** const TfLiteTensor* GetOptionalInputTensor(const TfLiteContext* context,
  95:C:/Renesas/e2studio_2021_01_workspace_RZA2M_ANPR/ANPR_RZA2M_GR_MANGO/src/tensorflow_lite/src/tensorflow/lite/kernels\kernel_util.h ****                                            const TfLiteNode* node, int index);
  96:C:/Renesas/e2studio_2021_01_workspace_RZA2M_ANPR/ANPR_RZA2M_GR_MANGO/src/tensorflow_lite/src/tensorflow/lite/kernels\kernel_util.h **** 
  97:C:/Renesas/e2studio_2021_01_workspace_RZA2M_ANPR/ANPR_RZA2M_GR_MANGO/src/tensorflow_lite/src/tensorflow/lite/kernels\kernel_util.h **** #ifndef TF_LITE_STATIC_MEMORY
  98:C:/Renesas/e2studio_2021_01_workspace_RZA2M_ANPR/ANPR_RZA2M_GR_MANGO/src/tensorflow_lite/src/tensorflow/lite/kernels\kernel_util.h **** // Note: You must check if result is not null:
  99:C:/Renesas/e2studio_2021_01_workspace_RZA2M_ANPR/ANPR_RZA2M_GR_MANGO/src/tensorflow_lite/src/tensorflow/lite/kernels\kernel_util.h **** //
 100:C:/Renesas/e2studio_2021_01_workspace_RZA2M_ANPR/ANPR_RZA2M_GR_MANGO/src/tensorflow_lite/src/tensorflow/lite/kernels\kernel_util.h **** //   TfLiteTensor* my_tensor = GetTemporary(context, node, kMyTensorIdx);
 101:C:/Renesas/e2studio_2021_01_workspace_RZA2M_ANPR/ANPR_RZA2M_GR_MANGO/src/tensorflow_lite/src/tensorflow/lite/kernels\kernel_util.h **** //   TF_LITE_ENSURE(context, my_tensor != nullptr);
 102:C:/Renesas/e2studio_2021_01_workspace_RZA2M_ANPR/ANPR_RZA2M_GR_MANGO/src/tensorflow_lite/src/tensorflow/lite/kernels\kernel_util.h **** //
 103:C:/Renesas/e2studio_2021_01_workspace_RZA2M_ANPR/ANPR_RZA2M_GR_MANGO/src/tensorflow_lite/src/tensorflow/lite/kernels\kernel_util.h **** // This is because the index might point to the optional tensor constant
 104:C:/Renesas/e2studio_2021_01_workspace_RZA2M_ANPR/ANPR_RZA2M_GR_MANGO/src/tensorflow_lite/src/tensorflow/lite/kernels\kernel_util.h **** // (kTfLiteOptionalTensor) in which case there is no tensor to return.
 105:C:/Renesas/e2studio_2021_01_workspace_RZA2M_ANPR/ANPR_RZA2M_GR_MANGO/src/tensorflow_lite/src/tensorflow/lite/kernels\kernel_util.h **** TfLiteTensor* GetTemporary(TfLiteContext* context, const TfLiteNode* node,
 106:C:/Renesas/e2studio_2021_01_workspace_RZA2M_ANPR/ANPR_RZA2M_GR_MANGO/src/tensorflow_lite/src/tensorflow/lite/kernels\kernel_util.h ****                            int index);
 107:C:/Renesas/e2studio_2021_01_workspace_RZA2M_ANPR/ANPR_RZA2M_GR_MANGO/src/tensorflow_lite/src/tensorflow/lite/kernels\kernel_util.h **** 
 108:C:/Renesas/e2studio_2021_01_workspace_RZA2M_ANPR/ANPR_RZA2M_GR_MANGO/src/tensorflow_lite/src/tensorflow/lite/kernels\kernel_util.h **** // Same as `GetTemporary` but returns boolean and uses output argument for
 109:C:/Renesas/e2studio_2021_01_workspace_RZA2M_ANPR/ANPR_RZA2M_GR_MANGO/src/tensorflow_lite/src/tensorflow/lite/kernels\kernel_util.h **** // tensor.
 110:C:/Renesas/e2studio_2021_01_workspace_RZA2M_ANPR/ANPR_RZA2M_GR_MANGO/src/tensorflow_lite/src/tensorflow/lite/kernels\kernel_util.h **** //
 111:C:/Renesas/e2studio_2021_01_workspace_RZA2M_ANPR/ANPR_RZA2M_GR_MANGO/src/tensorflow_lite/src/tensorflow/lite/kernels\kernel_util.h **** //   TfLiteTensor* my_tensor;
 112:C:/Renesas/e2studio_2021_01_workspace_RZA2M_ANPR/ANPR_RZA2M_GR_MANGO/src/tensorflow_lite/src/tensorflow/lite/kernels\kernel_util.h **** //   TF_LITE_ENSURE_OK(context,
 113:C:/Renesas/e2studio_2021_01_workspace_RZA2M_ANPR/ANPR_RZA2M_GR_MANGO/src/tensorflow_lite/src/tensorflow/lite/kernels\kernel_util.h **** //                     GetTemporarySafe(context, node, kMyTensorIdx,
 114:C:/Renesas/e2studio_2021_01_workspace_RZA2M_ANPR/ANPR_RZA2M_GR_MANGO/src/tensorflow_lite/src/tensorflow/lite/kernels\kernel_util.h **** //                     &my_tensor));
 115:C:/Renesas/e2studio_2021_01_workspace_RZA2M_ANPR/ANPR_RZA2M_GR_MANGO/src/tensorflow_lite/src/tensorflow/lite/kernels\kernel_util.h **** //   // can use my_tensor directly from here onwards, it is not nullptr
 116:C:/Renesas/e2studio_2021_01_workspace_RZA2M_ANPR/ANPR_RZA2M_GR_MANGO/src/tensorflow_lite/src/tensorflow/lite/kernels\kernel_util.h **** //
 117:C:/Renesas/e2studio_2021_01_workspace_RZA2M_ANPR/ANPR_RZA2M_GR_MANGO/src/tensorflow_lite/src/tensorflow/lite/kernels\kernel_util.h **** // Should be used in cases where the binary size is too large.
 118:C:/Renesas/e2studio_2021_01_workspace_RZA2M_ANPR/ANPR_RZA2M_GR_MANGO/src/tensorflow_lite/src/tensorflow/lite/kernels\kernel_util.h **** TfLiteStatus GetTemporarySafe(const TfLiteContext* context,
 119:C:/Renesas/e2studio_2021_01_workspace_RZA2M_ANPR/ANPR_RZA2M_GR_MANGO/src/tensorflow_lite/src/tensorflow/lite/kernels\kernel_util.h ****                               const TfLiteNode* node, int index,
 120:C:/Renesas/e2studio_2021_01_workspace_RZA2M_ANPR/ANPR_RZA2M_GR_MANGO/src/tensorflow_lite/src/tensorflow/lite/kernels\kernel_util.h ****                               TfLiteTensor** tensor);
 121:C:/Renesas/e2studio_2021_01_workspace_RZA2M_ANPR/ANPR_RZA2M_GR_MANGO/src/tensorflow_lite/src/tensorflow/lite/kernels\kernel_util.h **** 
 122:C:/Renesas/e2studio_2021_01_workspace_RZA2M_ANPR/ANPR_RZA2M_GR_MANGO/src/tensorflow_lite/src/tensorflow/lite/kernels\kernel_util.h **** // Note: You must check if result is not null:
 123:C:/Renesas/e2studio_2021_01_workspace_RZA2M_ANPR/ANPR_RZA2M_GR_MANGO/src/tensorflow_lite/src/tensorflow/lite/kernels\kernel_util.h **** //
 124:C:/Renesas/e2studio_2021_01_workspace_RZA2M_ANPR/ANPR_RZA2M_GR_MANGO/src/tensorflow_lite/src/tensorflow/lite/kernels\kernel_util.h **** //   TfLiteTensor* my_tensor = GetIntermediates(context, node, kMyTensorIdx);
 125:C:/Renesas/e2studio_2021_01_workspace_RZA2M_ANPR/ANPR_RZA2M_GR_MANGO/src/tensorflow_lite/src/tensorflow/lite/kernels\kernel_util.h **** //   TF_LITE_ENSURE(context, my_tensor != nullptr);
 126:C:/Renesas/e2studio_2021_01_workspace_RZA2M_ANPR/ANPR_RZA2M_GR_MANGO/src/tensorflow_lite/src/tensorflow/lite/kernels\kernel_util.h **** //
 127:C:/Renesas/e2studio_2021_01_workspace_RZA2M_ANPR/ANPR_RZA2M_GR_MANGO/src/tensorflow_lite/src/tensorflow/lite/kernels\kernel_util.h **** // This is because the index might point to the optional tensor constant
 128:C:/Renesas/e2studio_2021_01_workspace_RZA2M_ANPR/ANPR_RZA2M_GR_MANGO/src/tensorflow_lite/src/tensorflow/lite/kernels\kernel_util.h **** // (kTfLiteOptionalTensor) in which case there is no tensor to return.
 129:C:/Renesas/e2studio_2021_01_workspace_RZA2M_ANPR/ANPR_RZA2M_GR_MANGO/src/tensorflow_lite/src/tensorflow/lite/kernels\kernel_util.h **** const TfLiteTensor* GetIntermediates(TfLiteContext* context,
 130:C:/Renesas/e2studio_2021_01_workspace_RZA2M_ANPR/ANPR_RZA2M_GR_MANGO/src/tensorflow_lite/src/tensorflow/lite/kernels\kernel_util.h ****                                      const TfLiteNode* node, int index);
 131:C:/Renesas/e2studio_2021_01_workspace_RZA2M_ANPR/ANPR_RZA2M_GR_MANGO/src/tensorflow_lite/src/tensorflow/lite/kernels\kernel_util.h **** 
 132:C:/Renesas/e2studio_2021_01_workspace_RZA2M_ANPR/ANPR_RZA2M_GR_MANGO/src/tensorflow_lite/src/tensorflow/lite/kernels\kernel_util.h **** // Same as `GetIntermediates` but returns boolean and uses output argument for
 133:C:/Renesas/e2studio_2021_01_workspace_RZA2M_ANPR/ANPR_RZA2M_GR_MANGO/src/tensorflow_lite/src/tensorflow/lite/kernels\kernel_util.h **** // tensor.
 134:C:/Renesas/e2studio_2021_01_workspace_RZA2M_ANPR/ANPR_RZA2M_GR_MANGO/src/tensorflow_lite/src/tensorflow/lite/kernels\kernel_util.h **** //
 135:C:/Renesas/e2studio_2021_01_workspace_RZA2M_ANPR/ANPR_RZA2M_GR_MANGO/src/tensorflow_lite/src/tensorflow/lite/kernels\kernel_util.h **** //   TfLiteTensor* my_tensor;
 136:C:/Renesas/e2studio_2021_01_workspace_RZA2M_ANPR/ANPR_RZA2M_GR_MANGO/src/tensorflow_lite/src/tensorflow/lite/kernels\kernel_util.h **** //   TF_LITE_ENSURE_OK(context,
 137:C:/Renesas/e2studio_2021_01_workspace_RZA2M_ANPR/ANPR_RZA2M_GR_MANGO/src/tensorflow_lite/src/tensorflow/lite/kernels\kernel_util.h **** //                     GetIntermediatesSafe(context, node, kMyTensorIdx,
 138:C:/Renesas/e2studio_2021_01_workspace_RZA2M_ANPR/ANPR_RZA2M_GR_MANGO/src/tensorflow_lite/src/tensorflow/lite/kernels\kernel_util.h **** //                     &my_tensor));
 139:C:/Renesas/e2studio_2021_01_workspace_RZA2M_ANPR/ANPR_RZA2M_GR_MANGO/src/tensorflow_lite/src/tensorflow/lite/kernels\kernel_util.h **** //   // can use my_tensor directly from here onwards, it is not nullptr
 140:C:/Renesas/e2studio_2021_01_workspace_RZA2M_ANPR/ANPR_RZA2M_GR_MANGO/src/tensorflow_lite/src/tensorflow/lite/kernels\kernel_util.h **** //
 141:C:/Renesas/e2studio_2021_01_workspace_RZA2M_ANPR/ANPR_RZA2M_GR_MANGO/src/tensorflow_lite/src/tensorflow/lite/kernels\kernel_util.h **** // Should be used in cases where the binary size is too large.
 142:C:/Renesas/e2studio_2021_01_workspace_RZA2M_ANPR/ANPR_RZA2M_GR_MANGO/src/tensorflow_lite/src/tensorflow/lite/kernels\kernel_util.h **** TfLiteStatus GetIntermediatesSafe(const TfLiteContext* context,
 143:C:/Renesas/e2studio_2021_01_workspace_RZA2M_ANPR/ANPR_RZA2M_GR_MANGO/src/tensorflow_lite/src/tensorflow/lite/kernels\kernel_util.h ****                                   const TfLiteNode* node, int index,
 144:C:/Renesas/e2studio_2021_01_workspace_RZA2M_ANPR/ANPR_RZA2M_GR_MANGO/src/tensorflow_lite/src/tensorflow/lite/kernels\kernel_util.h ****                                   TfLiteTensor** tensor);
 145:C:/Renesas/e2studio_2021_01_workspace_RZA2M_ANPR/ANPR_RZA2M_GR_MANGO/src/tensorflow_lite/src/tensorflow/lite/kernels\kernel_util.h **** #endif  // TF_LITE_STATIC_MEMORY
 146:C:/Renesas/e2studio_2021_01_workspace_RZA2M_ANPR/ANPR_RZA2M_GR_MANGO/src/tensorflow_lite/src/tensorflow/lite/kernels\kernel_util.h **** 
 147:C:/Renesas/e2studio_2021_01_workspace_RZA2M_ANPR/ANPR_RZA2M_GR_MANGO/src/tensorflow_lite/src/tensorflow/lite/kernels\kernel_util.h **** inline int NumDimensions(const TfLiteTensor* t) { return t->dims->size; }
 148:C:/Renesas/e2studio_2021_01_workspace_RZA2M_ANPR/ANPR_RZA2M_GR_MANGO/src/tensorflow_lite/src/tensorflow/lite/kernels\kernel_util.h **** inline int SizeOfDimension(const TfLiteTensor* t, int dim) {
 149:C:/Renesas/e2studio_2021_01_workspace_RZA2M_ANPR/ANPR_RZA2M_GR_MANGO/src/tensorflow_lite/src/tensorflow/lite/kernels\kernel_util.h ****   return t->dims->data[dim];
 150:C:/Renesas/e2studio_2021_01_workspace_RZA2M_ANPR/ANPR_RZA2M_GR_MANGO/src/tensorflow_lite/src/tensorflow/lite/kernels\kernel_util.h **** }
 151:C:/Renesas/e2studio_2021_01_workspace_RZA2M_ANPR/ANPR_RZA2M_GR_MANGO/src/tensorflow_lite/src/tensorflow/lite/kernels\kernel_util.h **** 
 152:C:/Renesas/e2studio_2021_01_workspace_RZA2M_ANPR/ANPR_RZA2M_GR_MANGO/src/tensorflow_lite/src/tensorflow/lite/kernels\kernel_util.h **** inline int NumInputs(const TfLiteNode* node) { return node->inputs->size; }
  34              		.loc 2 152 0
  35 0000 003091E5 		ldr	r3, [r1]
  36              	.LBE133:
  37              	.LBE132:
  38              		.loc 1 99 0
  39 0004 F04F2DE9 		push	{r4, r5, r6, r7, r8, r9, r10, fp, lr}
  40              		.save {r4, r5, r6, r7, r8, r9, r10, fp, lr}
  41              		.cfi_def_cfa_offset 36
  42              		.cfi_offset 4, -36
  43              		.cfi_offset 5, -32
  44              		.cfi_offset 6, -28
  45              		.cfi_offset 7, -24
  46              		.cfi_offset 8, -20
  47              		.cfi_offset 9, -16
  48              		.cfi_offset 10, -12
  49              		.cfi_offset 11, -8
  50              		.cfi_offset 14, -4
  51 0008 0060A0E1 		mov	r6, r0
  52              	.LVL1:
  53              		.pad #44
  54 000c 2CD04DE2 		sub	sp, sp, #44
  55              		.cfi_def_cfa_offset 80
  56              	.LBB135:
  57              	.LBB134:
  58              		.loc 2 152 0
  59 0010 003093E5 		ldr	r3, [r3]
  60              	.LBE134:
  61              	.LBE135:
 100:../src/tensorflow_lite/src/tensorflow/lite/micro/kernels/gather.cpp ****   TF_LITE_ENSURE_EQ(context, NumInputs(node), 2);
  62              		.loc 1 100 0
  63 0014 020053E3 		cmp	r3, #2
  64 0018 4C00001A 		bne	.L94
  65              	.LBB136:
  66              	.LBB137:
 153:C:/Renesas/e2studio_2021_01_workspace_RZA2M_ANPR/ANPR_RZA2M_GR_MANGO/src/tensorflow_lite/src/tensorflow/lite/kernels\kernel_util.h **** inline int NumOutputs(const TfLiteNode* node) { return node->outputs->size; }
  67              		.loc 2 153 0
  68 001c 043091E5 		ldr	r3, [r1, #4]
  69 0020 0170A0E1 		mov	r7, r1
  70              	.LVL2:
  71 0024 005093E5 		ldr	r5, [r3]
  72              	.LBE137:
  73              	.LBE136:
 101:../src/tensorflow_lite/src/tensorflow/lite/micro/kernels/gather.cpp ****   TF_LITE_ENSURE_EQ(context, NumOutputs(node), 1);
  74              		.loc 1 101 0
  75 0028 010055E3 		cmp	r5, #1
  76 002c 1200000A 		beq	.L4
  77              	.LVL3:
  78              		.loc 1 101 0 is_stmt 0 discriminator 1
  79 0030 00C000E3 		movw	ip, #:lower16:.LC5
  80 0034 003000E3 		movw	r3, #:lower16:.LC6
  81 0038 00C040E3 		movt	ip, #:upper16:.LC5
  82 003c 003040E3 		movt	r3, #:upper16:.LC6
  83 0040 0140A0E3 		mov	r4, #1
  84 0044 002000E3 		movw	r2, #:lower16:.LC1
  85 0048 001000E3 		movw	r1, #:lower16:.LC2
  86              	.LVL4:
  87 004c 08508DE5 		str	r5, [sp, #8]
  88 0050 002040E3 		movt	r2, #:upper16:.LC1
  89 0054 145090E5 		ldr	r5, [r0, #20]
  90 0058 001040E3 		movt	r1, #:upper16:.LC2
  91 005c 00308DE5 		str	r3, [sp]
  92 0060 04C08DE5 		str	ip, [sp, #4]
  93 0064 6530A0E3 		mov	r3, #101
  94 0068 0C408DE5 		str	r4, [sp, #12]
  95 006c 35FF2FE1 		blx	r5
  96              	.LVL5:
  97 0070 0400A0E1 		mov	r0, r4
  98              	.LVL6:
  99              	.L61:
 102:../src/tensorflow_lite/src/tensorflow/lite/micro/kernels/gather.cpp **** 
 103:../src/tensorflow_lite/src/tensorflow/lite/micro/kernels/gather.cpp ****   const auto* params =
 104:../src/tensorflow_lite/src/tensorflow/lite/micro/kernels/gather.cpp ****       reinterpret_cast<const TfLiteGatherParams*>(node->builtin_data);
 105:../src/tensorflow_lite/src/tensorflow/lite/micro/kernels/gather.cpp ****   const TfLiteTensor* input;
 106:../src/tensorflow_lite/src/tensorflow/lite/micro/kernels/gather.cpp ****   TF_LITE_ENSURE_OK(context, GetInputSafe(context, node, kInputTensor, &input));
 107:../src/tensorflow_lite/src/tensorflow/lite/micro/kernels/gather.cpp ****   const TfLiteTensor* coords;
 108:../src/tensorflow_lite/src/tensorflow/lite/micro/kernels/gather.cpp ****   TF_LITE_ENSURE_OK(context,
 109:../src/tensorflow_lite/src/tensorflow/lite/micro/kernels/gather.cpp ****                     GetInputSafe(context, node, kInputPositions, &coords));
 110:../src/tensorflow_lite/src/tensorflow/lite/micro/kernels/gather.cpp ****   TfLiteTensor* output;
 111:../src/tensorflow_lite/src/tensorflow/lite/micro/kernels/gather.cpp ****   TF_LITE_ENSURE_OK(context,
 112:../src/tensorflow_lite/src/tensorflow/lite/micro/kernels/gather.cpp ****                     GetOutputSafe(context, node, kOutputTensor, &output));
 113:../src/tensorflow_lite/src/tensorflow/lite/micro/kernels/gather.cpp ****   switch (coords->type) {
 114:../src/tensorflow_lite/src/tensorflow/lite/micro/kernels/gather.cpp ****     case kTfLiteInt32:
 115:../src/tensorflow_lite/src/tensorflow/lite/micro/kernels/gather.cpp ****       break;
 116:../src/tensorflow_lite/src/tensorflow/lite/micro/kernels/gather.cpp ****     default:
 117:../src/tensorflow_lite/src/tensorflow/lite/micro/kernels/gather.cpp ****       TF_LITE_KERNEL_LOG(context,
 118:../src/tensorflow_lite/src/tensorflow/lite/micro/kernels/gather.cpp ****                          "Positions of type '%s' are not supported by gather.",
 119:../src/tensorflow_lite/src/tensorflow/lite/micro/kernels/gather.cpp ****                          TfLiteTypeGetName(coords->type));
 120:../src/tensorflow_lite/src/tensorflow/lite/micro/kernels/gather.cpp ****       return kTfLiteError;
 121:../src/tensorflow_lite/src/tensorflow/lite/micro/kernels/gather.cpp ****       break;
 122:../src/tensorflow_lite/src/tensorflow/lite/micro/kernels/gather.cpp ****   }
 123:../src/tensorflow_lite/src/tensorflow/lite/micro/kernels/gather.cpp **** 
 124:../src/tensorflow_lite/src/tensorflow/lite/micro/kernels/gather.cpp ****   // Assign to output the input type.
 125:../src/tensorflow_lite/src/tensorflow/lite/micro/kernels/gather.cpp ****   output->type = input->type;
 126:../src/tensorflow_lite/src/tensorflow/lite/micro/kernels/gather.cpp **** 
 127:../src/tensorflow_lite/src/tensorflow/lite/micro/kernels/gather.cpp ****   // Check conditions for different types.
 128:../src/tensorflow_lite/src/tensorflow/lite/micro/kernels/gather.cpp ****   switch (input->type) {
 129:../src/tensorflow_lite/src/tensorflow/lite/micro/kernels/gather.cpp ****     case kTfLiteFloat32:
 130:../src/tensorflow_lite/src/tensorflow/lite/micro/kernels/gather.cpp ****     case kTfLiteInt8:
 131:../src/tensorflow_lite/src/tensorflow/lite/micro/kernels/gather.cpp ****       break;
 132:../src/tensorflow_lite/src/tensorflow/lite/micro/kernels/gather.cpp ****     default:
 133:../src/tensorflow_lite/src/tensorflow/lite/micro/kernels/gather.cpp ****       TF_LITE_KERNEL_LOG(context, "Type '%s' is not supported by gather.",
 134:../src/tensorflow_lite/src/tensorflow/lite/micro/kernels/gather.cpp ****                          TfLiteTypeGetName(input->type));
 135:../src/tensorflow_lite/src/tensorflow/lite/micro/kernels/gather.cpp ****       return kTfLiteError;
 136:../src/tensorflow_lite/src/tensorflow/lite/micro/kernels/gather.cpp ****       break;
 137:../src/tensorflow_lite/src/tensorflow/lite/micro/kernels/gather.cpp ****   }
 138:../src/tensorflow_lite/src/tensorflow/lite/micro/kernels/gather.cpp **** 
 139:../src/tensorflow_lite/src/tensorflow/lite/micro/kernels/gather.cpp ****   int axis = params->axis;
 140:../src/tensorflow_lite/src/tensorflow/lite/micro/kernels/gather.cpp ****   if (axis < 0) {
 141:../src/tensorflow_lite/src/tensorflow/lite/micro/kernels/gather.cpp ****     axis += NumDimensions(input);
 142:../src/tensorflow_lite/src/tensorflow/lite/micro/kernels/gather.cpp ****   }
 143:../src/tensorflow_lite/src/tensorflow/lite/micro/kernels/gather.cpp ****   TF_LITE_ENSURE(context, 0 <= axis && axis < NumDimensions(input));
 144:../src/tensorflow_lite/src/tensorflow/lite/micro/kernels/gather.cpp **** 
 145:../src/tensorflow_lite/src/tensorflow/lite/micro/kernels/gather.cpp ****   int batch_dims = params->batch_dims;
 146:../src/tensorflow_lite/src/tensorflow/lite/micro/kernels/gather.cpp ****   // batch_dims should be in range: [-rank(coords), rank(coords)].
 147:../src/tensorflow_lite/src/tensorflow/lite/micro/kernels/gather.cpp ****   // Negative batch_dims is added with rank of coords.
 148:../src/tensorflow_lite/src/tensorflow/lite/micro/kernels/gather.cpp ****   if (batch_dims < 0) {
 149:../src/tensorflow_lite/src/tensorflow/lite/micro/kernels/gather.cpp ****     batch_dims += NumDimensions(coords);
 150:../src/tensorflow_lite/src/tensorflow/lite/micro/kernels/gather.cpp ****   }
 151:../src/tensorflow_lite/src/tensorflow/lite/micro/kernels/gather.cpp ****   TF_LITE_ENSURE(context, batch_dims <= axis);
 152:../src/tensorflow_lite/src/tensorflow/lite/micro/kernels/gather.cpp ****   TF_LITE_ENSURE(context, 0 <= batch_dims && batch_dims < NumDimensions(input));
 153:../src/tensorflow_lite/src/tensorflow/lite/micro/kernels/gather.cpp ****   TF_LITE_ENSURE(context, batch_dims <= NumDimensions(coords));
 154:../src/tensorflow_lite/src/tensorflow/lite/micro/kernels/gather.cpp ****   for (int i = 0; i < batch_dims; ++i) {
 155:../src/tensorflow_lite/src/tensorflow/lite/micro/kernels/gather.cpp ****     TF_LITE_ENSURE_EQ(context, input->dims->data[i], coords->dims->data[i]);
 156:../src/tensorflow_lite/src/tensorflow/lite/micro/kernels/gather.cpp ****   }
 157:../src/tensorflow_lite/src/tensorflow/lite/micro/kernels/gather.cpp **** 
 158:../src/tensorflow_lite/src/tensorflow/lite/micro/kernels/gather.cpp ****   // GATHER updates the output tensor dimensions, but TfLiteTensor in the
 159:../src/tensorflow_lite/src/tensorflow/lite/micro/kernels/gather.cpp ****   // MicroInterpreter is a temporary allocation. We must therefore relocate the
 160:../src/tensorflow_lite/src/tensorflow/lite/micro/kernels/gather.cpp ****   // dims from the FlatBuffer to the persistant storage arena.
 161:../src/tensorflow_lite/src/tensorflow/lite/micro/kernels/gather.cpp ****   TfLiteEvalTensor* output_eval =
 162:../src/tensorflow_lite/src/tensorflow/lite/micro/kernels/gather.cpp ****       tflite::micro::GetEvalOutput(context, node, kOutputTensor);
 163:../src/tensorflow_lite/src/tensorflow/lite/micro/kernels/gather.cpp ****   TF_LITE_ENSURE_OK(context, tflite::micro::CreateWritableTensorDimsWithCopy(
 164:../src/tensorflow_lite/src/tensorflow/lite/micro/kernels/gather.cpp ****                                  context, output, output_eval));
 165:../src/tensorflow_lite/src/tensorflow/lite/micro/kernels/gather.cpp **** 
 166:../src/tensorflow_lite/src/tensorflow/lite/micro/kernels/gather.cpp ****   TfLiteIntArray* output_shape = output->dims;
 167:../src/tensorflow_lite/src/tensorflow/lite/micro/kernels/gather.cpp ****   output_shape->size =
 168:../src/tensorflow_lite/src/tensorflow/lite/micro/kernels/gather.cpp ****       NumDimensions(input) + NumDimensions(coords) - 1 - batch_dims;
 169:../src/tensorflow_lite/src/tensorflow/lite/micro/kernels/gather.cpp ****   int output_index = 0;
 170:../src/tensorflow_lite/src/tensorflow/lite/micro/kernels/gather.cpp ****   for (int i = 0; i < axis; ++i) {
 171:../src/tensorflow_lite/src/tensorflow/lite/micro/kernels/gather.cpp ****     output_shape->data[output_index++] = input->dims->data[i];
 172:../src/tensorflow_lite/src/tensorflow/lite/micro/kernels/gather.cpp ****   }
 173:../src/tensorflow_lite/src/tensorflow/lite/micro/kernels/gather.cpp ****   for (int i = batch_dims; i < coords->dims->size; ++i) {
 174:../src/tensorflow_lite/src/tensorflow/lite/micro/kernels/gather.cpp ****     output_shape->data[output_index++] = coords->dims->data[i];
 175:../src/tensorflow_lite/src/tensorflow/lite/micro/kernels/gather.cpp ****   }
 176:../src/tensorflow_lite/src/tensorflow/lite/micro/kernels/gather.cpp ****   for (int i = axis + 1; i < input->dims->size; ++i) {
 177:../src/tensorflow_lite/src/tensorflow/lite/micro/kernels/gather.cpp ****     output_shape->data[output_index++] = input->dims->data[i];
 178:../src/tensorflow_lite/src/tensorflow/lite/micro/kernels/gather.cpp ****   }
 179:../src/tensorflow_lite/src/tensorflow/lite/micro/kernels/gather.cpp ****   return kTfLiteOk;
 180:../src/tensorflow_lite/src/tensorflow/lite/micro/kernels/gather.cpp **** }
 100              		.loc 1 180 0 is_stmt 1
 101 0074 2CD08DE2 		add	sp, sp, #44
 102              		.cfi_remember_state
 103              		.cfi_def_cfa_offset 36
 104              		@ sp needed
 105 0078 F08FBDE8 		pop	{r4, r5, r6, r7, r8, r9, r10, fp, pc}
 106              	.LVL7:
 107              	.L4:
 108              		.cfi_restore_state
 109              	.LBB138:
 110              	.LBB139:
 111              	.LBB140:
 106:../src/tensorflow_lite/src/tensorflow/lite/micro/kernels/gather.cpp ****   const TfLiteTensor* coords;
 112              		.loc 1 106 0
 113 007c 1C308DE2 		add	r3, sp, #28
 114 0080 0020A0E3 		mov	r2, #0
 115              	.LBE140:
 104:../src/tensorflow_lite/src/tensorflow/lite/micro/kernels/gather.cpp ****   const TfLiteTensor* input;
 116              		.loc 1 104 0
 117 0084 144091E5 		ldr	r4, [r1, #20]
 118              	.LVL8:
 119              	.LBB141:
 106:../src/tensorflow_lite/src/tensorflow/lite/micro/kernels/gather.cpp ****   const TfLiteTensor* coords;
 120              		.loc 1 106 0
 121 0088 FEFFFFEB 		bl	_ZN6tflite12GetInputSafeEPK13TfLiteContextPK10TfLiteNodeiPPK12TfLiteTensor
 122              	.LVL9:
 123 008c 000050E3 		cmp	r0, #0
 124              	.LVL10:
 125 0090 F7FFFF1A 		bne	.L61
 126              	.LBE141:
 127              	.LBB142:
 108:../src/tensorflow_lite/src/tensorflow/lite/micro/kernels/gather.cpp ****                     GetInputSafe(context, node, kInputPositions, &coords));
 128              		.loc 1 108 0
 129 0094 20308DE2 		add	r3, sp, #32
 130 0098 0520A0E1 		mov	r2, r5
 131 009c 0710A0E1 		mov	r1, r7
 132 00a0 0600A0E1 		mov	r0, r6
 133 00a4 FEFFFFEB 		bl	_ZN6tflite12GetInputSafeEPK13TfLiteContextPK10TfLiteNodeiPPK12TfLiteTensor
 134              	.LVL11:
 135 00a8 000050E3 		cmp	r0, #0
 136              	.LVL12:
 137 00ac F0FFFF1A 		bne	.L61
 138              	.LBE142:
 139              	.LBB143:
 111:../src/tensorflow_lite/src/tensorflow/lite/micro/kernels/gather.cpp ****                     GetOutputSafe(context, node, kOutputTensor, &output));
 140              		.loc 1 111 0
 141 00b0 0020A0E1 		mov	r2, r0
 142 00b4 24308DE2 		add	r3, sp, #36
 143 00b8 0710A0E1 		mov	r1, r7
 144 00bc 0600A0E1 		mov	r0, r6
 145 00c0 FEFFFFEB 		bl	_ZN6tflite13GetOutputSafeEPK13TfLiteContextPK10TfLiteNodeiPP12TfLiteTensor
 146              	.LVL13:
 147 00c4 000050E3 		cmp	r0, #0
 148              	.LVL14:
 149 00c8 E9FFFF1A 		bne	.L61
 150              	.LBE143:
 113:../src/tensorflow_lite/src/tensorflow/lite/micro/kernels/gather.cpp ****     case kTfLiteInt32:
 151              		.loc 1 113 0
 152 00cc 20209DE5 		ldr	r2, [sp, #32]
 153 00d0 0000D2E5 		ldrb	r0, [r2]	@ zero_extendqisi2
 154 00d4 020050E3 		cmp	r0, #2
 155 00d8 3C01001A 		bne	.L95
 125:../src/tensorflow_lite/src/tensorflow/lite/micro/kernels/gather.cpp **** 
 156              		.loc 1 125 0
 157 00dc 1C309DE5 		ldr	r3, [sp, #28]
 158 00e0 24109DE5 		ldr	r1, [sp, #36]
 159 00e4 0000D3E5 		ldrb	r0, [r3]	@ zero_extendqisi2
 160 00e8 0000C1E5 		strb	r0, [r1]
 128:../src/tensorflow_lite/src/tensorflow/lite/micro/kernels/gather.cpp ****     case kTfLiteFloat32:
 161              		.loc 1 128 0
 162 00ec 0000D3E5 		ldrb	r0, [r3]	@ zero_extendqisi2
 163 00f0 010050E3 		cmp	r0, #1
 164 00f4 0100000A 		beq	.L9
 165 00f8 090050E3 		cmp	r0, #9
 166 00fc 4001001A 		bne	.L96
 167              	.L9:
 139:../src/tensorflow_lite/src/tensorflow/lite/micro/kernels/gather.cpp ****   if (axis < 0) {
 168              		.loc 1 139 0
 169 0100 005094E5 		ldr	r5, [r4]
 170              	.LVL15:
 171              	.LBB144:
 172              	.LBB145:
 147:C:/Renesas/e2studio_2021_01_workspace_RZA2M_ANPR/ANPR_RZA2M_GR_MANGO/src/tensorflow_lite/src/tensorflow/lite/kernels\kernel_util.h **** inline int SizeOfDimension(const TfLiteTensor* t, int dim) {
 173              		.loc 2 147 0
 174 0104 081093E5 		ldr	r1, [r3, #8]
 175              	.LBE145:
 176              	.LBE144:
 140:../src/tensorflow_lite/src/tensorflow/lite/micro/kernels/gather.cpp ****     axis += NumDimensions(input);
 177              		.loc 1 140 0
 178 0108 000055E3 		cmp	r5, #0
 179 010c 380100BA 		blt	.L97
 180              	.L10:
 181              	.LVL16:
 182              	.LBB146:
 183              	.LBB147:
 147:C:/Renesas/e2studio_2021_01_workspace_RZA2M_ANPR/ANPR_RZA2M_GR_MANGO/src/tensorflow_lite/src/tensorflow/lite/kernels\kernel_util.h **** inline int SizeOfDimension(const TfLiteTensor* t, int dim) {
 184              		.loc 2 147 0
 185 0110 003091E5 		ldr	r3, [r1]
 186              	.LBE147:
 187              	.LBE146:
 143:../src/tensorflow_lite/src/tensorflow/lite/micro/kernels/gather.cpp **** 
 188              		.loc 1 143 0
 189 0114 050053E1 		cmp	r3, r5
 190 0118 1F0000CA 		bgt	.L98
 191              	.LVL17:
 192              	.L11:
 193 011c 003000E3 		movw	r3, #:lower16:.LC14
 194 0120 002000E3 		movw	r2, #:lower16:.LC1
 195 0124 003040E3 		movt	r3, #:upper16:.LC14
 196 0128 001000E3 		movw	r1, #:lower16:.LC9
 197 012c 00308DE5 		str	r3, [sp]
 198 0130 0600A0E1 		mov	r0, r6
 199 0134 002040E3 		movt	r2, #:upper16:.LC1
 200 0138 001040E3 		movt	r1, #:upper16:.LC9
 201 013c 144096E5 		ldr	r4, [r6, #20]
 202              	.LVL18:
 203 0140 8F30A0E3 		mov	r3, #143
 204 0144 34FF2FE1 		blx	r4
 205              	.LVL19:
 206 0148 0100A0E3 		mov	r0, #1
 207 014c C8FFFFEA 		b	.L61
 208              	.LVL20:
 209              	.L94:
 210              	.LBE139:
 211              	.LBE138:
 100:../src/tensorflow_lite/src/tensorflow/lite/micro/kernels/gather.cpp ****   TF_LITE_ENSURE_EQ(context, NumOutputs(node), 1);
 212              		.loc 1 100 0 discriminator 1
 213 0150 00E000E3 		movw	lr, #:lower16:.LC3
 214 0154 00C000E3 		movw	ip, #:lower16:.LC4
 215 0158 00E040E3 		movt	lr, #:upper16:.LC3
 216 015c 00C040E3 		movt	ip, #:upper16:.LC4
 217 0160 0250A0E3 		mov	r5, #2
 218 0164 002000E3 		movw	r2, #:lower16:.LC1
 219 0168 001000E3 		movw	r1, #:lower16:.LC2
 220              	.LVL21:
 221 016c 08308DE5 		str	r3, [sp, #8]
 222 0170 002040E3 		movt	r2, #:upper16:.LC1
 223 0174 144090E5 		ldr	r4, [r0, #20]
 224 0178 001040E3 		movt	r1, #:upper16:.LC2
 225 017c 04E08DE5 		str	lr, [sp, #4]
 226 0180 00C08DE5 		str	ip, [sp]
 227 0184 6430A0E3 		mov	r3, #100
 228 0188 0C508DE5 		str	r5, [sp, #12]
 229 018c 34FF2FE1 		blx	r4
 230              	.LVL22:
 231 0190 0100A0E3 		mov	r0, #1
 232              		.loc 1 180 0 discriminator 1
 233 0194 2CD08DE2 		add	sp, sp, #44
 234              		.cfi_remember_state
 235              		.cfi_def_cfa_offset 36
 236              		@ sp needed
 237 0198 F08FBDE8 		pop	{r4, r5, r6, r7, r8, r9, r10, fp, pc}
 238              	.LVL23:
 239              	.L98:
 240              		.cfi_restore_state
 241              	.LBB166:
 242              	.LBB165:
 145:../src/tensorflow_lite/src/tensorflow/lite/micro/kernels/gather.cpp ****   // batch_dims should be in range: [-rank(coords), rank(coords)].
 243              		.loc 1 145 0
 244 019c 044094E5 		ldr	r4, [r4, #4]
 245              	.LVL24:
 148:../src/tensorflow_lite/src/tensorflow/lite/micro/kernels/gather.cpp ****     batch_dims += NumDimensions(coords);
 246              		.loc 1 148 0
 247 01a0 000054E3 		cmp	r4, #0
 248 01a4 1F0100BA 		blt	.L55
 151:../src/tensorflow_lite/src/tensorflow/lite/micro/kernels/gather.cpp ****   TF_LITE_ENSURE(context, 0 <= batch_dims && batch_dims < NumDimensions(input));
 249              		.loc 1 151 0
 250 01a8 050054E1 		cmp	r4, r5
 251 01ac 370100CA 		bgt	.L56
 252              	.LVL25:
 253              	.L57:
 152:../src/tensorflow_lite/src/tensorflow/lite/micro/kernels/gather.cpp ****   TF_LITE_ENSURE(context, batch_dims <= NumDimensions(coords));
 254              		.loc 1 152 0
 255 01b0 040053E1 		cmp	r3, r4
 256 01b4 0C0000CA 		bgt	.L99
 257              	.LVL26:
 258              	.L14:
 259 01b8 003000E3 		movw	r3, #:lower16:.LC15
 260 01bc 002000E3 		movw	r2, #:lower16:.LC1
 261 01c0 003040E3 		movt	r3, #:upper16:.LC15
 262 01c4 001000E3 		movw	r1, #:lower16:.LC9
 263 01c8 00308DE5 		str	r3, [sp]
 264 01cc 0600A0E1 		mov	r0, r6
 265 01d0 002040E3 		movt	r2, #:upper16:.LC1
 266 01d4 001040E3 		movt	r1, #:upper16:.LC9
 267 01d8 144096E5 		ldr	r4, [r6, #20]
 268              	.LVL27:
 269 01dc 9830A0E3 		mov	r3, #152
 270 01e0 34FF2FE1 		blx	r4
 271              	.LVL28:
 272 01e4 0100A0E3 		mov	r0, #1
 273 01e8 A1FFFFEA 		b	.L61
 274              	.LVL29:
 275              	.L99:
 276 01ec 082092E5 		ldr	r2, [r2, #8]
 277              	.LVL30:
 153:../src/tensorflow_lite/src/tensorflow/lite/micro/kernels/gather.cpp ****   for (int i = 0; i < batch_dims; ++i) {
 278              		.loc 1 153 0
 279 01f0 003092E5 		ldr	r3, [r2]
 280 01f4 040053E1 		cmp	r3, r4
 281 01f8 310100BA 		blt	.L58
 282              	.LVL31:
 283              	.LBB148:
 154:../src/tensorflow_lite/src/tensorflow/lite/micro/kernels/gather.cpp ****     TF_LITE_ENSURE_EQ(context, input->dims->data[i], coords->dims->data[i]);
 284              		.loc 1 154 0
 285 01fc 000054E3 		cmp	r4, #0
 286 0200 0E0000DA 		ble	.L59
 155:../src/tensorflow_lite/src/tensorflow/lite/micro/kernels/gather.cpp ****   }
 287              		.loc 1 155 0
 288 0204 040091E5 		ldr	r0, [r1, #4]
 289 0208 04C092E5 		ldr	ip, [r2, #4]
 290 020c 0C0050E1 		cmp	r0, ip
 291 0210 08108102 		addeq	r1, r1, #8
 292 0214 08208202 		addeq	r2, r2, #8
 293 0218 0030A003 		moveq	r3, #0
 294 021c 0400000A 		beq	.L18
 295 0220 080100EA 		b	.L16
 296              	.LVL32:
 297              	.L19:
 298 0224 040091E4 		ldr	r0, [r1], #4
 299 0228 04C092E4 		ldr	ip, [r2], #4
 300 022c 0C0050E1 		cmp	r0, ip
 301 0230 0401001A 		bne	.L16
 302              	.LVL33:
 303              	.L18:
 154:../src/tensorflow_lite/src/tensorflow/lite/micro/kernels/gather.cpp ****     TF_LITE_ENSURE_EQ(context, input->dims->data[i], coords->dims->data[i]);
 304              		.loc 1 154 0
 305 0234 013083E2 		add	r3, r3, #1
 306              	.LVL34:
 307 0238 040053E1 		cmp	r3, r4
 308 023c F8FFFF1A 		bne	.L19
 309              	.LVL35:
 310              	.L59:
 311              	.LBE148:
 312              	.LBB149:
 313              	.LBB150:
 314              		.file 3 "C:/Renesas/e2studio_2021_01_workspace_RZA2M_ANPR/ANPR_RZA2M_GR_MANGO/src/tensorflow_lite/
   1:C:/Renesas/e2studio_2021_01_workspace_RZA2M_ANPR/ANPR_RZA2M_GR_MANGO/src/tensorflow_lite/src/tensorflow/lite/micro/kernels\kernel_util.h **** /* Copyright 2020 The TensorFlow Authors. All Rights Reserved.
   2:C:/Renesas/e2studio_2021_01_workspace_RZA2M_ANPR/ANPR_RZA2M_GR_MANGO/src/tensorflow_lite/src/tensorflow/lite/micro/kernels\kernel_util.h **** 
   3:C:/Renesas/e2studio_2021_01_workspace_RZA2M_ANPR/ANPR_RZA2M_GR_MANGO/src/tensorflow_lite/src/tensorflow/lite/micro/kernels\kernel_util.h **** Licensed under the Apache License, Version 2.0 (the "License");
   4:C:/Renesas/e2studio_2021_01_workspace_RZA2M_ANPR/ANPR_RZA2M_GR_MANGO/src/tensorflow_lite/src/tensorflow/lite/micro/kernels\kernel_util.h **** you may not use this file except in compliance with the License.
   5:C:/Renesas/e2studio_2021_01_workspace_RZA2M_ANPR/ANPR_RZA2M_GR_MANGO/src/tensorflow_lite/src/tensorflow/lite/micro/kernels\kernel_util.h **** You may obtain a copy of the License at
   6:C:/Renesas/e2studio_2021_01_workspace_RZA2M_ANPR/ANPR_RZA2M_GR_MANGO/src/tensorflow_lite/src/tensorflow/lite/micro/kernels\kernel_util.h **** 
   7:C:/Renesas/e2studio_2021_01_workspace_RZA2M_ANPR/ANPR_RZA2M_GR_MANGO/src/tensorflow_lite/src/tensorflow/lite/micro/kernels\kernel_util.h ****     http://www.apache.org/licenses/LICENSE-2.0
   8:C:/Renesas/e2studio_2021_01_workspace_RZA2M_ANPR/ANPR_RZA2M_GR_MANGO/src/tensorflow_lite/src/tensorflow/lite/micro/kernels\kernel_util.h **** 
   9:C:/Renesas/e2studio_2021_01_workspace_RZA2M_ANPR/ANPR_RZA2M_GR_MANGO/src/tensorflow_lite/src/tensorflow/lite/micro/kernels\kernel_util.h **** Unless required by applicable law or agreed to in writing, software
  10:C:/Renesas/e2studio_2021_01_workspace_RZA2M_ANPR/ANPR_RZA2M_GR_MANGO/src/tensorflow_lite/src/tensorflow/lite/micro/kernels\kernel_util.h **** distributed under the License is distributed on an "AS IS" BASIS,
  11:C:/Renesas/e2studio_2021_01_workspace_RZA2M_ANPR/ANPR_RZA2M_GR_MANGO/src/tensorflow_lite/src/tensorflow/lite/micro/kernels\kernel_util.h **** WITHOUT WARRANTIES OR CONDITIONS OF ANY KIND, either express or implied.
  12:C:/Renesas/e2studio_2021_01_workspace_RZA2M_ANPR/ANPR_RZA2M_GR_MANGO/src/tensorflow_lite/src/tensorflow/lite/micro/kernels\kernel_util.h **** See the License for the specific language governing permissions and
  13:C:/Renesas/e2studio_2021_01_workspace_RZA2M_ANPR/ANPR_RZA2M_GR_MANGO/src/tensorflow_lite/src/tensorflow/lite/micro/kernels\kernel_util.h **** limitations under the License.
  14:C:/Renesas/e2studio_2021_01_workspace_RZA2M_ANPR/ANPR_RZA2M_GR_MANGO/src/tensorflow_lite/src/tensorflow/lite/micro/kernels\kernel_util.h **** ==============================================================================*/
  15:C:/Renesas/e2studio_2021_01_workspace_RZA2M_ANPR/ANPR_RZA2M_GR_MANGO/src/tensorflow_lite/src/tensorflow/lite/micro/kernels\kernel_util.h **** 
  16:C:/Renesas/e2studio_2021_01_workspace_RZA2M_ANPR/ANPR_RZA2M_GR_MANGO/src/tensorflow_lite/src/tensorflow/lite/micro/kernels\kernel_util.h **** #ifndef TENSORFLOW_LITE_MICRO_KERNELS_KERNEL_UTIL_H_
  17:C:/Renesas/e2studio_2021_01_workspace_RZA2M_ANPR/ANPR_RZA2M_GR_MANGO/src/tensorflow_lite/src/tensorflow/lite/micro/kernels\kernel_util.h **** #define TENSORFLOW_LITE_MICRO_KERNELS_KERNEL_UTIL_H_
  18:C:/Renesas/e2studio_2021_01_workspace_RZA2M_ANPR/ANPR_RZA2M_GR_MANGO/src/tensorflow_lite/src/tensorflow/lite/micro/kernels\kernel_util.h **** 
  19:C:/Renesas/e2studio_2021_01_workspace_RZA2M_ANPR/ANPR_RZA2M_GR_MANGO/src/tensorflow_lite/src/tensorflow/lite/micro/kernels\kernel_util.h **** #include <cstdint>
  20:C:/Renesas/e2studio_2021_01_workspace_RZA2M_ANPR/ANPR_RZA2M_GR_MANGO/src/tensorflow_lite/src/tensorflow/lite/micro/kernels\kernel_util.h **** 
  21:C:/Renesas/e2studio_2021_01_workspace_RZA2M_ANPR/ANPR_RZA2M_GR_MANGO/src/tensorflow_lite/src/tensorflow/lite/micro/kernels\kernel_util.h **** #include "tensorflow/lite/c/builtin_op_data.h"
  22:C:/Renesas/e2studio_2021_01_workspace_RZA2M_ANPR/ANPR_RZA2M_GR_MANGO/src/tensorflow_lite/src/tensorflow/lite/micro/kernels\kernel_util.h **** #include "tensorflow/lite/c/common.h"
  23:C:/Renesas/e2studio_2021_01_workspace_RZA2M_ANPR/ANPR_RZA2M_GR_MANGO/src/tensorflow_lite/src/tensorflow/lite/micro/kernels\kernel_util.h **** #include "tensorflow/lite/kernels/internal/compatibility.h"
  24:C:/Renesas/e2studio_2021_01_workspace_RZA2M_ANPR/ANPR_RZA2M_GR_MANGO/src/tensorflow_lite/src/tensorflow/lite/micro/kernels\kernel_util.h **** #include "tensorflow/lite/kernels/internal/types.h"
  25:C:/Renesas/e2studio_2021_01_workspace_RZA2M_ANPR/ANPR_RZA2M_GR_MANGO/src/tensorflow_lite/src/tensorflow/lite/micro/kernels\kernel_util.h **** 
  26:C:/Renesas/e2studio_2021_01_workspace_RZA2M_ANPR/ANPR_RZA2M_GR_MANGO/src/tensorflow_lite/src/tensorflow/lite/micro/kernels\kernel_util.h **** namespace tflite {
  27:C:/Renesas/e2studio_2021_01_workspace_RZA2M_ANPR/ANPR_RZA2M_GR_MANGO/src/tensorflow_lite/src/tensorflow/lite/micro/kernels\kernel_util.h **** namespace micro {
  28:C:/Renesas/e2studio_2021_01_workspace_RZA2M_ANPR/ANPR_RZA2M_GR_MANGO/src/tensorflow_lite/src/tensorflow/lite/micro/kernels\kernel_util.h **** 
  29:C:/Renesas/e2studio_2021_01_workspace_RZA2M_ANPR/ANPR_RZA2M_GR_MANGO/src/tensorflow_lite/src/tensorflow/lite/micro/kernels\kernel_util.h **** // Returns a mutable tensor for a given input index. is_variable must be checked
  30:C:/Renesas/e2studio_2021_01_workspace_RZA2M_ANPR/ANPR_RZA2M_GR_MANGO/src/tensorflow_lite/src/tensorflow/lite/micro/kernels\kernel_util.h **** // during prepare when the full TfLiteTensor is available.
  31:C:/Renesas/e2studio_2021_01_workspace_RZA2M_ANPR/ANPR_RZA2M_GR_MANGO/src/tensorflow_lite/src/tensorflow/lite/micro/kernels\kernel_util.h **** inline TfLiteEvalTensor* GetMutableEvalInput(const TfLiteContext* context,
  32:C:/Renesas/e2studio_2021_01_workspace_RZA2M_ANPR/ANPR_RZA2M_GR_MANGO/src/tensorflow_lite/src/tensorflow/lite/micro/kernels\kernel_util.h ****                                              const TfLiteNode* node,
  33:C:/Renesas/e2studio_2021_01_workspace_RZA2M_ANPR/ANPR_RZA2M_GR_MANGO/src/tensorflow_lite/src/tensorflow/lite/micro/kernels\kernel_util.h ****                                              int index) {
  34:C:/Renesas/e2studio_2021_01_workspace_RZA2M_ANPR/ANPR_RZA2M_GR_MANGO/src/tensorflow_lite/src/tensorflow/lite/micro/kernels\kernel_util.h ****   TFLITE_DCHECK(context != nullptr);
  35:C:/Renesas/e2studio_2021_01_workspace_RZA2M_ANPR/ANPR_RZA2M_GR_MANGO/src/tensorflow_lite/src/tensorflow/lite/micro/kernels\kernel_util.h ****   TFLITE_DCHECK(node != nullptr);
  36:C:/Renesas/e2studio_2021_01_workspace_RZA2M_ANPR/ANPR_RZA2M_GR_MANGO/src/tensorflow_lite/src/tensorflow/lite/micro/kernels\kernel_util.h ****   return context->GetEvalTensor(context, node->inputs->data[index]);
  37:C:/Renesas/e2studio_2021_01_workspace_RZA2M_ANPR/ANPR_RZA2M_GR_MANGO/src/tensorflow_lite/src/tensorflow/lite/micro/kernels\kernel_util.h **** }
  38:C:/Renesas/e2studio_2021_01_workspace_RZA2M_ANPR/ANPR_RZA2M_GR_MANGO/src/tensorflow_lite/src/tensorflow/lite/micro/kernels\kernel_util.h **** 
  39:C:/Renesas/e2studio_2021_01_workspace_RZA2M_ANPR/ANPR_RZA2M_GR_MANGO/src/tensorflow_lite/src/tensorflow/lite/micro/kernels\kernel_util.h **** // Returns the TfLiteEvalTensor struct for a given input index in a node.
  40:C:/Renesas/e2studio_2021_01_workspace_RZA2M_ANPR/ANPR_RZA2M_GR_MANGO/src/tensorflow_lite/src/tensorflow/lite/micro/kernels\kernel_util.h **** inline const TfLiteEvalTensor* GetEvalInput(const TfLiteContext* context,
  41:C:/Renesas/e2studio_2021_01_workspace_RZA2M_ANPR/ANPR_RZA2M_GR_MANGO/src/tensorflow_lite/src/tensorflow/lite/micro/kernels\kernel_util.h ****                                             const TfLiteNode* node, int index) {
  42:C:/Renesas/e2studio_2021_01_workspace_RZA2M_ANPR/ANPR_RZA2M_GR_MANGO/src/tensorflow_lite/src/tensorflow/lite/micro/kernels\kernel_util.h ****   return GetMutableEvalInput(context, node, index);
  43:C:/Renesas/e2studio_2021_01_workspace_RZA2M_ANPR/ANPR_RZA2M_GR_MANGO/src/tensorflow_lite/src/tensorflow/lite/micro/kernels\kernel_util.h **** }
  44:C:/Renesas/e2studio_2021_01_workspace_RZA2M_ANPR/ANPR_RZA2M_GR_MANGO/src/tensorflow_lite/src/tensorflow/lite/micro/kernels\kernel_util.h **** 
  45:C:/Renesas/e2studio_2021_01_workspace_RZA2M_ANPR/ANPR_RZA2M_GR_MANGO/src/tensorflow_lite/src/tensorflow/lite/micro/kernels\kernel_util.h **** // Returns the TfLiteEvalTensor struct for a given output index in a node.
  46:C:/Renesas/e2studio_2021_01_workspace_RZA2M_ANPR/ANPR_RZA2M_GR_MANGO/src/tensorflow_lite/src/tensorflow/lite/micro/kernels\kernel_util.h **** inline TfLiteEvalTensor* GetEvalOutput(const TfLiteContext* context,
  47:C:/Renesas/e2studio_2021_01_workspace_RZA2M_ANPR/ANPR_RZA2M_GR_MANGO/src/tensorflow_lite/src/tensorflow/lite/micro/kernels\kernel_util.h ****                                        const TfLiteNode* node, int index) {
  48:C:/Renesas/e2studio_2021_01_workspace_RZA2M_ANPR/ANPR_RZA2M_GR_MANGO/src/tensorflow_lite/src/tensorflow/lite/micro/kernels\kernel_util.h ****   TFLITE_DCHECK(context != nullptr);
 315              		.loc 3 48 0
 316 0240 000056E3 		cmp	r6, #0
 317 0244 8901000A 		beq	.L100
  49:C:/Renesas/e2studio_2021_01_workspace_RZA2M_ANPR/ANPR_RZA2M_GR_MANGO/src/tensorflow_lite/src/tensorflow/lite/micro/kernels\kernel_util.h ****   TFLITE_DCHECK(node != nullptr);
  50:C:/Renesas/e2studio_2021_01_workspace_RZA2M_ANPR/ANPR_RZA2M_GR_MANGO/src/tensorflow_lite/src/tensorflow/lite/micro/kernels\kernel_util.h ****   return context->GetEvalTensor(context, node->outputs->data[index]);
 318              		.loc 3 50 0
 319 0248 042097E5 		ldr	r2, [r7, #4]
 320 024c 0600A0E1 		mov	r0, r6
 321 0250 543096E5 		ldr	r3, [r6, #84]
 322 0254 041092E5 		ldr	r1, [r2, #4]
 323 0258 33FF2FE1 		blx	r3
 324              	.LVL36:
 325              	.LBE150:
 326              	.LBE149:
 327              	.LBB152:
 163:../src/tensorflow_lite/src/tensorflow/lite/micro/kernels/gather.cpp ****                                  context, output, output_eval));
 328              		.loc 1 163 0
 329 025c 24109DE5 		ldr	r1, [sp, #36]
 330 0260 0020A0E1 		mov	r2, r0
 331 0264 0600A0E1 		mov	r0, r6
 332 0268 FEFFFFEB 		bl	_ZN6tflite5micro32CreateWritableTensorDimsWithCopyEP13TfLiteContextP12TfLiteTensorP16TfLiteEval
 333              	.LVL37:
 334 026c 000050E3 		cmp	r0, #0
 335              	.LVL38:
 336 0270 7FFFFF1A 		bne	.L61
 337 0274 1C109DE5 		ldr	r1, [sp, #28]
 338              	.LBE152:
 339              	.LBB153:
 170:../src/tensorflow_lite/src/tensorflow/lite/micro/kernels/gather.cpp ****     output_shape->data[output_index++] = input->dims->data[i];
 340              		.loc 1 170 0
 341 0278 000055E3 		cmp	r5, #0
 342 027c 20209DE5 		ldr	r2, [sp, #32]
 343              	.LBE153:
 166:../src/tensorflow_lite/src/tensorflow/lite/micro/kernels/gather.cpp ****   output_shape->size =
 344              		.loc 1 166 0
 345 0280 24309DE5 		ldr	r3, [sp, #36]
 346 0284 08C091E5 		ldr	ip, [r1, #8]
 347 0288 08E092E5 		ldr	lr, [r2, #8]
 348 028c 081093E5 		ldr	r1, [r3, #8]
 349              	.LVL39:
 168:../src/tensorflow_lite/src/tensorflow/lite/micro/kernels/gather.cpp ****   int output_index = 0;
 350              		.loc 1 168 0
 351 0290 00309CE5 		ldr	r3, [ip]
 352 0294 00209EE5 		ldr	r2, [lr]
 353              	.LVL40:
 354 0298 023083E0 		add	r3, r3, r2
 355 029c 013043E2 		sub	r3, r3, #1
 356 02a0 043043E0 		sub	r3, r3, r4
 167:../src/tensorflow_lite/src/tensorflow/lite/micro/kernels/gather.cpp ****       NumDimensions(input) + NumDimensions(coords) - 1 - batch_dims;
 357              		.loc 1 167 0
 358 02a4 003081E5 		str	r3, [r1]
 359              	.LVL41:
 360              	.LBB154:
 170:../src/tensorflow_lite/src/tensorflow/lite/micro/kernels/gather.cpp ****     output_shape->data[output_index++] = input->dims->data[i];
 361              		.loc 1 170 0
 362 02a8 3200000A 		beq	.L90
 363 02ac 14308CE2 		add	r3, ip, #20
 364 02b0 04708CE2 		add	r7, ip, #4
 365              	.LVL42:
 366 02b4 042081E2 		add	r2, r1, #4
 367 02b8 146081E2 		add	r6, r1, #20
 368              	.LVL43:
 369 02bc 060057E1 		cmp	r7, r6
 370 02c0 03005231 		cmpcc	r2, r3
 371 02c4 028087E1 		orr	r8, r7, r2
 372 02c8 0130A023 		movcs	r3, #1
 373 02cc 0030A033 		movcc	r3, #0
 374 02d0 0F0018E3 		tst	r8, #15
 375 02d4 0030A013 		movne	r3, #0
 376 02d8 01300302 		andeq	r3, r3, #1
 377 02dc 090055E3 		cmp	r5, #9
 378 02e0 0030A093 		movls	r3, #0
 379 02e4 01300382 		andhi	r3, r3, #1
 380 02e8 000053E3 		cmp	r3, #0
 381 02ec 2A01000A 		beq	.L24
 382 02f0 046045E2 		sub	r6, r5, #4
 383 02f4 2661A0E1 		lsr	r6, r6, #2
 384 02f8 016086E2 		add	r6, r6, #1
 385 02fc 0631A0E1 		lsl	r3, r6, #2
 386              	.LVL44:
 387              	.L26:
 388 0300 010080E2 		add	r0, r0, #1
 171:../src/tensorflow_lite/src/tensorflow/lite/micro/kernels/gather.cpp ****   }
 389              		.loc 1 171 0
 390 0304 DF0A67F4 		vld1.64	{d16-d17}, [r7:64]
 391 0308 000056E1 		cmp	r6, r0
 392 030c 107087E2 		add	r7, r7, #16
 393 0310 DF0A42F4 		vst1.64	{d16-d17}, [r2:64]
 394 0314 102082E2 		add	r2, r2, #16
 395 0318 F8FFFF8A 		bhi	.L26
 396 031c 030055E1 		cmp	r5, r3
 397 0320 1400000A 		beq	.L90
 398              	.LVL45:
 399 0324 0301A0E1 		lsl	r0, r3, #2
 400 0328 012083E2 		add	r2, r3, #1
 401              	.LVL46:
 170:../src/tensorflow_lite/src/tensorflow/lite/micro/kernels/gather.cpp ****     output_shape->data[output_index++] = input->dims->data[i];
 402              		.loc 1 170 0
 403 032c 050052E1 		cmp	r2, r5
 171:../src/tensorflow_lite/src/tensorflow/lite/micro/kernels/gather.cpp ****   }
 404              		.loc 1 171 0
 405 0330 00608CE0 		add	r6, ip, r0
 406 0334 000081E0 		add	r0, r1, r0
 407 0338 046096E5 		ldr	r6, [r6, #4]
 408 033c 046080E5 		str	r6, [r0, #4]
 409              	.LVL47:
 170:../src/tensorflow_lite/src/tensorflow/lite/micro/kernels/gather.cpp ****     output_shape->data[output_index++] = input->dims->data[i];
 410              		.loc 1 170 0
 411 0340 0C0000AA 		bge	.L90
 171:../src/tensorflow_lite/src/tensorflow/lite/micro/kernels/gather.cpp ****   }
 412              		.loc 1 171 0
 413 0344 0221A0E1 		lsl	r2, r2, #2
 414              	.LVL48:
 415 0348 023083E2 		add	r3, r3, #2
 416              	.LVL49:
 170:../src/tensorflow_lite/src/tensorflow/lite/micro/kernels/gather.cpp ****     output_shape->data[output_index++] = input->dims->data[i];
 417              		.loc 1 170 0
 418 034c 030055E1 		cmp	r5, r3
 171:../src/tensorflow_lite/src/tensorflow/lite/micro/kernels/gather.cpp ****   }
 419              		.loc 1 171 0
 420 0350 02008CE0 		add	r0, ip, r2
 421 0354 022081E0 		add	r2, r1, r2
 422 0358 040090E5 		ldr	r0, [r0, #4]
 423 035c 040082E5 		str	r0, [r2, #4]
 424              	.LVL50:
 170:../src/tensorflow_lite/src/tensorflow/lite/micro/kernels/gather.cpp ****     output_shape->data[output_index++] = input->dims->data[i];
 425              		.loc 1 170 0
 426 0360 040000DA 		ble	.L90
 427              	.LVL51:
 171:../src/tensorflow_lite/src/tensorflow/lite/micro/kernels/gather.cpp ****   }
 428              		.loc 1 171 0
 429 0364 0331A0E1 		lsl	r3, r3, #2
 430              	.LVL52:
 431 0368 03208CE0 		add	r2, ip, r3
 432 036c 033081E0 		add	r3, r1, r3
 433 0370 042092E5 		ldr	r2, [r2, #4]
 434 0374 042083E5 		str	r2, [r3, #4]
 435              	.LVL53:
 436              	.L90:
 437              	.LBE154:
 438              	.LBB155:
 173:../src/tensorflow_lite/src/tensorflow/lite/micro/kernels/gather.cpp ****     output_shape->data[output_index++] = coords->dims->data[i];
 439              		.loc 1 173 0
 440 0378 00709EE5 		ldr	r7, [lr]
 441              	.LBE155:
 169:../src/tensorflow_lite/src/tensorflow/lite/micro/kernels/gather.cpp ****   for (int i = 0; i < axis; ++i) {
 442              		.loc 1 169 0
 443 037c 0530A0E1 		mov	r3, r5
 444              	.LVL54:
 445              	.LBB156:
 173:../src/tensorflow_lite/src/tensorflow/lite/micro/kernels/gather.cpp ****     output_shape->data[output_index++] = coords->dims->data[i];
 446              		.loc 1 173 0
 447 0380 040057E1 		cmp	r7, r4
 448 0384 012085D2 		addle	r2, r5, #1
 449 0388 10208DD5 		strle	r2, [sp, #16]
 450 038c 0200A0D1 		movle	r0, r2
 451 0390 440000DA 		ble	.L22
 452              	.LVL55:
 453 0394 010085E2 		add	r0, r5, #1
 454 0398 012084E2 		add	r2, r4, #1
 455 039c 0060A0E1 		mov	r6, r0
 456 03a0 10008DE5 		str	r0, [sp, #16]
 457 03a4 0661A0E1 		lsl	r6, r6, #2
 458 03a8 0201A0E1 		lsl	r0, r2, #2
 459 03ac 108086E2 		add	r8, r6, #16
 460 03b0 10B080E2 		add	fp, r0, #16
 461 03b4 088081E0 		add	r8, r1, r8
 462 03b8 06A081E0 		add	r10, r1, r6
 463 03bc 00908EE0 		add	r9, lr, r0
 464 03c0 0BB08EE0 		add	fp, lr, fp
 465 03c4 090058E1 		cmp	r8, r9
 466 03c8 0A005B81 		cmphi	fp, r10
 467 03cc 14008DE5 		str	r0, [sp, #20]
 468 03d0 0A0089E1 		orr	r0, r9, r10
 469 03d4 0180A093 		movls	r8, #1
 470 03d8 0080A083 		movhi	r8, #0
 471 03dc 0F0010E3 		tst	r0, #15
 472 03e0 0080A013 		movne	r8, #0
 473 03e4 01800802 		andeq	r8, r8, #1
 474 03e8 04B047E0 		sub	fp, r7, r4
 475 03ec 046046E2 		sub	r6, r6, #4
 476 03f0 09005BE3 		cmp	fp, #9
 477 03f4 0080A093 		movls	r8, #0
 478 03f8 01800882 		andhi	r8, r8, #1
 479 03fc 000058E3 		cmp	r8, #0
 480 0400 EC00000A 		beq	.L33
 481 0404 04004BE2 		sub	r0, fp, #4
 482 0408 016047E2 		sub	r6, r7, #1
 483 040c 046046E0 		sub	r6, r6, r4
 484 0410 2001A0E1 		lsr	r0, r0, #2
 485 0414 020056E3 		cmp	r6, #2
 486 0418 010080E2 		add	r0, r0, #1
 487 041c 0061A0E1 		lsl	r6, r0, #2
 488 0420 0C00009A 		bls	.L34
 489 0424 0030A0E3 		mov	r3, #0
 490              	.LVL56:
 491              	.L36:
 492 0428 013083E2 		add	r3, r3, #1
 174:../src/tensorflow_lite/src/tensorflow/lite/micro/kernels/gather.cpp ****   }
 493              		.loc 1 174 0
 494 042c DF0A69F4 		vld1.64	{d16-d17}, [r9:64]
 495 0430 030050E1 		cmp	r0, r3
 496 0434 109089E2 		add	r9, r9, #16
 497 0438 DF0A4AF4 		vst1.64	{d16-d17}, [r10:64]
 498 043c 10A08AE2 		add	r10, r10, #16
 499 0440 F8FFFF8A 		bhi	.L36
 500              	.LVL57:
 501 0444 06005BE1 		cmp	fp, r6
 502 0448 064084E0 		add	r4, r4, r6
 503              	.LVL58:
 504 044c 063085E0 		add	r3, r5, r6
 505 0450 1200000A 		beq	.L41
 506 0454 012084E2 		add	r2, r4, #1
 507              	.L34:
 508              	.LVL59:
 509 0458 04618EE0 		add	r6, lr, r4, lsl #2
 510 045c 038181E0 		add	r8, r1, r3, lsl #2
 511 0460 046096E5 		ldr	r6, [r6, #4]
 173:../src/tensorflow_lite/src/tensorflow/lite/micro/kernels/gather.cpp ****     output_shape->data[output_index++] = coords->dims->data[i];
 512              		.loc 1 173 0
 513 0464 070052E1 		cmp	r2, r7
 174:../src/tensorflow_lite/src/tensorflow/lite/micro/kernels/gather.cpp ****   }
 514              		.loc 1 174 0
 515 0468 010083E2 		add	r0, r3, #1
 516              	.LVL60:
 517 046c 046088E5 		str	r6, [r8, #4]
 518              	.LVL61:
 173:../src/tensorflow_lite/src/tensorflow/lite/micro/kernels/gather.cpp ****     output_shape->data[output_index++] = coords->dims->data[i];
 519              		.loc 1 173 0
 520 0470 0A0000AA 		bge	.L41
 174:../src/tensorflow_lite/src/tensorflow/lite/micro/kernels/gather.cpp ****   }
 521              		.loc 1 174 0
 522 0474 02218EE0 		add	r2, lr, r2, lsl #2
 523              	.LVL62:
 173:../src/tensorflow_lite/src/tensorflow/lite/micro/kernels/gather.cpp ****     output_shape->data[output_index++] = coords->dims->data[i];
 524              		.loc 1 173 0
 525 0478 024084E2 		add	r4, r4, #2
 526              	.LVL63:
 174:../src/tensorflow_lite/src/tensorflow/lite/micro/kernels/gather.cpp ****   }
 527              		.loc 1 174 0
 528 047c 000181E0 		add	r0, r1, r0, lsl #2
 529              	.LVL64:
 173:../src/tensorflow_lite/src/tensorflow/lite/micro/kernels/gather.cpp ****     output_shape->data[output_index++] = coords->dims->data[i];
 530              		.loc 1 173 0
 531 0480 070054E1 		cmp	r4, r7
 174:../src/tensorflow_lite/src/tensorflow/lite/micro/kernels/gather.cpp ****   }
 532              		.loc 1 174 0
 533 0484 042092E5 		ldr	r2, [r2, #4]
 534 0488 023083E2 		add	r3, r3, #2
 535              	.LVL65:
 536 048c 042080E5 		str	r2, [r0, #4]
 537              	.LVL66:
 173:../src/tensorflow_lite/src/tensorflow/lite/micro/kernels/gather.cpp ****     output_shape->data[output_index++] = coords->dims->data[i];
 538              		.loc 1 173 0
 539              	.LVL67:
 174:../src/tensorflow_lite/src/tensorflow/lite/micro/kernels/gather.cpp ****   }
 540              		.loc 1 174 0
 541 0490 04418EB0 		addlt	r4, lr, r4, lsl #2
 542              	.LVL68:
 543 0494 033181B0 		addlt	r3, r1, r3, lsl #2
 544              	.LVL69:
 545 0498 042094B5 		ldrlt	r2, [r4, #4]
 546 049c 042083B5 		strlt	r2, [r3, #4]
 547              	.L41:
 548 04a0 10009DE5 		ldr	r0, [sp, #16]
 549 04a4 05308BE0 		add	r3, fp, r5
 550              	.L22:
 551              	.LBE156:
 552              	.LBB157:
 176:../src/tensorflow_lite/src/tensorflow/lite/micro/kernels/gather.cpp ****     output_shape->data[output_index++] = input->dims->data[i];
 553              		.loc 1 176 0
 554 04a8 00E09CE5 		ldr	lr, [ip]
 555 04ac 0020A0E1 		mov	r2, r0
 556              	.LVL70:
 557 04b0 00005EE1 		cmp	lr, r0
 558 04b4 430000DA 		ble	.L50
 559 04b8 020085E2 		add	r0, r5, #2
 560 04bc 016083E2 		add	r6, r3, #1
 561 04c0 00B1A0E1 		lsl	fp, r0, #2
 562 04c4 14008DE5 		str	r0, [sp, #20]
 563 04c8 0601A0E1 		lsl	r0, r6, #2
 564 04cc 10908BE2 		add	r9, fp, #16
 565 04d0 104080E2 		add	r4, r0, #16
 566 04d4 008081E0 		add	r8, r1, r0
 567 04d8 044081E0 		add	r4, r1, r4
 568 04dc 0B708CE0 		add	r7, ip, fp
 569 04e0 09908CE0 		add	r9, ip, r9
 570 04e4 07A088E1 		orr	r10, r8, r7
 571 04e8 080059E1 		cmp	r9, r8
 572 04ec 07005481 		cmphi	r4, r7
 573 04f0 05904EE0 		sub	r9, lr, r5
 574 04f4 0140A093 		movls	r4, #1
 575 04f8 0040A083 		movhi	r4, #0
 576 04fc 0F001AE3 		tst	r10, #15
 577 0500 09A0A0E1 		mov	r10, r9
 578 0504 0040A013 		movne	r4, #0
 579 0508 01400402 		andeq	r4, r4, #1
 580 050c 019049E2 		sub	r9, r9, #1
 581 0510 040040E2 		sub	r0, r0, #4
 582 0514 090059E3 		cmp	r9, #9
 583 0518 0040A093 		movls	r4, #0
 584 051c 01400482 		andhi	r4, r4, #1
 585 0520 000054E3 		cmp	r4, #0
 586 0524 7300000A 		beq	.L44
 587 0528 02404EE2 		sub	r4, lr, #2
 588 052c 05004AE2 		sub	r0, r10, #5
 589 0530 055044E0 		sub	r5, r4, r5
 590              	.LVL71:
 591 0534 2001A0E1 		lsr	r0, r0, #2
 592 0538 020055E3 		cmp	r5, #2
 593 053c 010080E2 		add	r0, r0, #1
 594 0540 0041A0E1 		lsl	r4, r0, #2
 595 0544 0D00009A 		bls	.L45
 596 0548 0020A0E3 		mov	r2, #0
 597              	.LVL72:
 598              	.L47:
 599 054c 012082E2 		add	r2, r2, #1
 177:../src/tensorflow_lite/src/tensorflow/lite/micro/kernels/gather.cpp ****   }
 600              		.loc 1 177 0
 601 0550 DF0A67F4 		vld1.64	{d16-d17}, [r7:64]
 602 0554 020050E1 		cmp	r0, r2
 603 0558 107087E2 		add	r7, r7, #16
 604 055c DF0A48F4 		vst1.64	{d16-d17}, [r8:64]
 605 0560 108088E2 		add	r8, r8, #16
 606 0564 F8FFFF8A 		bhi	.L47
 607 0568 10209DE5 		ldr	r2, [sp, #16]
 608 056c 040059E1 		cmp	r9, r4
 609 0570 043083E0 		add	r3, r3, r4
 610 0574 042082E0 		add	r2, r2, r4
 611 0578 1200000A 		beq	.L50
 612 057c 016083E2 		add	r6, r3, #1
 613              	.L45:
 614              	.LVL73:
 615 0580 02418CE0 		add	r4, ip, r2, lsl #2
 176:../src/tensorflow_lite/src/tensorflow/lite/micro/kernels/gather.cpp ****     output_shape->data[output_index++] = input->dims->data[i];
 616              		.loc 1 176 0
 617 0584 010082E2 		add	r0, r2, #1
 618              	.LVL74:
 177:../src/tensorflow_lite/src/tensorflow/lite/micro/kernels/gather.cpp ****   }
 619              		.loc 1 177 0
 620 0588 035181E0 		add	r5, r1, r3, lsl #2
 176:../src/tensorflow_lite/src/tensorflow/lite/micro/kernels/gather.cpp ****     output_shape->data[output_index++] = input->dims->data[i];
 621              		.loc 1 176 0
 622 058c 00005EE1 		cmp	lr, r0
 177:../src/tensorflow_lite/src/tensorflow/lite/micro/kernels/gather.cpp ****   }
 623              		.loc 1 177 0
 624 0590 044094E5 		ldr	r4, [r4, #4]
 625 0594 044085E5 		str	r4, [r5, #4]
 176:../src/tensorflow_lite/src/tensorflow/lite/micro/kernels/gather.cpp ****     output_shape->data[output_index++] = input->dims->data[i];
 626              		.loc 1 176 0
 627 0598 0A0000DA 		ble	.L50
 177:../src/tensorflow_lite/src/tensorflow/lite/micro/kernels/gather.cpp ****   }
 628              		.loc 1 177 0
 629 059c 00018CE0 		add	r0, ip, r0, lsl #2
 630              	.LVL75:
 176:../src/tensorflow_lite/src/tensorflow/lite/micro/kernels/gather.cpp ****     output_shape->data[output_index++] = input->dims->data[i];
 631              		.loc 1 176 0
 632 05a0 022082E2 		add	r2, r2, #2
 633              	.LVL76:
 177:../src/tensorflow_lite/src/tensorflow/lite/micro/kernels/gather.cpp ****   }
 634              		.loc 1 177 0
 635 05a4 066181E0 		add	r6, r1, r6, lsl #2
 636              	.LVL77:
 176:../src/tensorflow_lite/src/tensorflow/lite/micro/kernels/gather.cpp ****     output_shape->data[output_index++] = input->dims->data[i];
 637              		.loc 1 176 0
 638 05a8 02005EE1 		cmp	lr, r2
 177:../src/tensorflow_lite/src/tensorflow/lite/micro/kernels/gather.cpp ****   }
 639              		.loc 1 177 0
 640 05ac 040090E5 		ldr	r0, [r0, #4]
 641 05b0 023083E2 		add	r3, r3, #2
 642              	.LVL78:
 643 05b4 040086E5 		str	r0, [r6, #4]
 644              	.LVL79:
 176:../src/tensorflow_lite/src/tensorflow/lite/micro/kernels/gather.cpp ****     output_shape->data[output_index++] = input->dims->data[i];
 645              		.loc 1 176 0
 646              	.LVL80:
 177:../src/tensorflow_lite/src/tensorflow/lite/micro/kernels/gather.cpp ****   }
 647              		.loc 1 177 0
 648 05b8 02218CC0 		addgt	r2, ip, r2, lsl #2
 649 05bc 033181C0 		addgt	r3, r1, r3, lsl #2
 650              	.LVL81:
 651 05c0 042092C5 		ldrgt	r2, [r2, #4]
 652 05c4 042083C5 		strgt	r2, [r3, #4]
 653              	.LVL82:
 654              	.L50:
 655              	.LBE157:
 179:../src/tensorflow_lite/src/tensorflow/lite/micro/kernels/gather.cpp **** }
 656              		.loc 1 179 0
 657 05c8 0000A0E3 		mov	r0, #0
 658 05cc A8FEFFEA 		b	.L61
 659              	.LVL83:
 660              	.L95:
 117:../src/tensorflow_lite/src/tensorflow/lite/micro/kernels/gather.cpp ****                          "Positions of type '%s' are not supported by gather.",
 661              		.loc 1 117 0
 662 05d0 144096E5 		ldr	r4, [r6, #20]
 663              	.LVL84:
 664 05d4 FEFFFFEB 		bl	TfLiteTypeGetName
 665              	.LVL85:
 666 05d8 001000E3 		movw	r1, #:lower16:.LC7
 667 05dc 0020A0E1 		mov	r2, r0
 668 05e0 001040E3 		movt	r1, #:upper16:.LC7
 669 05e4 0600A0E1 		mov	r0, r6
 670 05e8 34FF2FE1 		blx	r4
 671              	.LVL86:
 120:../src/tensorflow_lite/src/tensorflow/lite/micro/kernels/gather.cpp ****       break;
 672              		.loc 1 120 0
 673 05ec 0500A0E1 		mov	r0, r5
 674 05f0 9FFEFFEA 		b	.L61
 675              	.LVL87:
 676              	.L97:
 141:../src/tensorflow_lite/src/tensorflow/lite/micro/kernels/gather.cpp ****   }
 677              		.loc 1 141 0
 678 05f4 003091E5 		ldr	r3, [r1]
 679              	.LVL88:
 143:../src/tensorflow_lite/src/tensorflow/lite/micro/kernels/gather.cpp **** 
 680              		.loc 1 143 0
 681 05f8 035095E0 		adds	r5, r5, r3
 682              	.LVL89:
 683 05fc C6FEFF4A 		bmi	.L11
 684 0600 C2FEFFEA 		b	.L10
 685              	.LVL90:
 686              	.L96:
 133:../src/tensorflow_lite/src/tensorflow/lite/micro/kernels/gather.cpp ****                          TfLiteTypeGetName(input->type));
 687              		.loc 1 133 0
 688 0604 144096E5 		ldr	r4, [r6, #20]
 689              	.LVL91:
 690 0608 FEFFFFEB 		bl	TfLiteTypeGetName
 691              	.LVL92:
 692 060c 001000E3 		movw	r1, #:lower16:.LC8
 693 0610 0020A0E1 		mov	r2, r0
 694 0614 001040E3 		movt	r1, #:upper16:.LC8
 695 0618 0600A0E1 		mov	r0, r6
 696 061c 34FF2FE1 		blx	r4
 697              	.LVL93:
 135:../src/tensorflow_lite/src/tensorflow/lite/micro/kernels/gather.cpp ****       break;
 698              		.loc 1 135 0
 699 0620 0500A0E1 		mov	r0, r5
 700 0624 92FEFFEA 		b	.L61
 701              	.LVL94:
 702              	.L55:
 703              	.LBB158:
 704              	.LBB159:
 147:C:/Renesas/e2studio_2021_01_workspace_RZA2M_ANPR/ANPR_RZA2M_GR_MANGO/src/tensorflow_lite/src/tensorflow/lite/kernels\kernel_util.h **** inline int SizeOfDimension(const TfLiteTensor* t, int dim) {
 705              		.loc 2 147 0
 706 0628 080092E5 		ldr	r0, [r2, #8]
 707              	.LBE159:
 708              	.LBE158:
 149:../src/tensorflow_lite/src/tensorflow/lite/micro/kernels/gather.cpp ****   }
 709              		.loc 1 149 0
 710 062c 000090E5 		ldr	r0, [r0]
 711              	.LVL95:
 712 0630 004084E0 		add	r4, r4, r0
 713              	.LVL96:
 151:../src/tensorflow_lite/src/tensorflow/lite/micro/kernels/gather.cpp ****   TF_LITE_ENSURE(context, 0 <= batch_dims && batch_dims < NumDimensions(input));
 714              		.loc 1 151 0
 715 0634 050054E1 		cmp	r4, r5
 716 0638 140000CA 		bgt	.L56
 152:../src/tensorflow_lite/src/tensorflow/lite/micro/kernels/gather.cpp ****   TF_LITE_ENSURE(context, batch_dims <= NumDimensions(coords));
 717              		.loc 1 152 0
 718 063c 000054E3 		cmp	r4, #0
 719 0640 DCFEFFBA 		blt	.L14
 720 0644 D9FEFFEA 		b	.L57
 721              	.LVL97:
 722              	.L16:
 723              	.LBB160:
 155:../src/tensorflow_lite/src/tensorflow/lite/micro/kernels/gather.cpp ****   }
 724              		.loc 1 155 0
 725 0648 00E000E3 		movw	lr, #:lower16:.LC12
 726 064c 003000E3 		movw	r3, #:lower16:.LC13
 727 0650 00E040E3 		movt	lr, #:upper16:.LC12
 728 0654 003040E3 		movt	r3, #:upper16:.LC13
 729 0658 002000E3 		movw	r2, #:lower16:.LC1
 730 065c 001000E3 		movw	r1, #:lower16:.LC2
 731 0660 08008DE5 		str	r0, [sp, #8]
 732 0664 002040E3 		movt	r2, #:upper16:.LC1
 733 0668 00308DE5 		str	r3, [sp]
 734 066c 0600A0E1 		mov	r0, r6
 735 0670 0CC08DE5 		str	ip, [sp, #12]
 736 0674 001040E3 		movt	r1, #:upper16:.LC2
 737 0678 04E08DE5 		str	lr, [sp, #4]
 738 067c 9B30A0E3 		mov	r3, #155
 739 0680 144096E5 		ldr	r4, [r6, #20]
 740              	.LVL98:
 741 0684 34FF2FE1 		blx	r4
 742              	.LVL99:
 743 0688 0100A0E3 		mov	r0, #1
 744 068c 78FEFFEA 		b	.L61
 745              	.LVL100:
 746              	.L56:
 747              	.LBE160:
 151:../src/tensorflow_lite/src/tensorflow/lite/micro/kernels/gather.cpp ****   TF_LITE_ENSURE(context, 0 <= batch_dims && batch_dims < NumDimensions(input));
 748              		.loc 1 151 0
 749 0690 003000E3 		movw	r3, #:lower16:.LC10
 750 0694 002000E3 		movw	r2, #:lower16:.LC1
 751 0698 003040E3 		movt	r3, #:upper16:.LC10
 752 069c 001000E3 		movw	r1, #:lower16:.LC9
 753 06a0 00308DE5 		str	r3, [sp]
 754 06a4 0600A0E1 		mov	r0, r6
 755 06a8 002040E3 		movt	r2, #:upper16:.LC1
 756 06ac 001040E3 		movt	r1, #:upper16:.LC9
 757 06b0 144096E5 		ldr	r4, [r6, #20]
 758              	.LVL101:
 759 06b4 9730A0E3 		mov	r3, #151
 760 06b8 34FF2FE1 		blx	r4
 761              	.LVL102:
 762 06bc 0100A0E3 		mov	r0, #1
 763 06c0 6BFEFFEA 		b	.L61
 764              	.LVL103:
 765              	.L58:
 153:../src/tensorflow_lite/src/tensorflow/lite/micro/kernels/gather.cpp ****   for (int i = 0; i < batch_dims; ++i) {
 766              		.loc 1 153 0
 767 06c4 003000E3 		movw	r3, #:lower16:.LC11
 768 06c8 002000E3 		movw	r2, #:lower16:.LC1
 769 06cc 003040E3 		movt	r3, #:upper16:.LC11
 770 06d0 001000E3 		movw	r1, #:lower16:.LC9
 771 06d4 00308DE5 		str	r3, [sp]
 772 06d8 0600A0E1 		mov	r0, r6
 773 06dc 002040E3 		movt	r2, #:upper16:.LC1
 774 06e0 001040E3 		movt	r1, #:upper16:.LC9
 775 06e4 144096E5 		ldr	r4, [r6, #20]
 776              	.LVL104:
 777 06e8 9930A0E3 		mov	r3, #153
 778 06ec 34FF2FE1 		blx	r4
 779              	.LVL105:
 780 06f0 0100A0E3 		mov	r0, #1
 781 06f4 5EFEFFEA 		b	.L61
 782              	.LVL106:
 783              	.L44:
 784 06f8 14409DE5 		ldr	r4, [sp, #20]
 785 06fc 07704EE2 		sub	r7, lr, #7
 786 0700 070054E1 		cmp	r4, r7
 787 0704 1A0000AA 		bge	.L51
 788 0708 88408BE2 		add	r4, fp, #136
 789 070c 000081E0 		add	r0, r1, r0
 790 0710 04408CE0 		add	r4, ip, r4
 791              	.LVL107:
 792              	.L52:
 793              	.LBB161:
 177:../src/tensorflow_lite/src/tensorflow/lite/micro/kernels/gather.cpp ****   }
 794              		.loc 1 177 0
 795 0714 886014E5 		ldr	r6, [r4, #-136]
 796 0718 095082E2 		add	r5, r2, #9
 797 071c 00F0D4F5 		pld	[r4]
 798 0720 050057E1 		cmp	r7, r5
 799 0724 083083E2 		add	r3, r3, #8
 800 0728 082082E2 		add	r2, r2, #8
 801 072c 046080E5 		str	r6, [r0, #4]
 802 0730 204084E2 		add	r4, r4, #32
 803 0734 A45014E5 		ldr	r5, [r4, #-164]
 804 0738 085080E5 		str	r5, [r0, #8]
 805 073c A05014E5 		ldr	r5, [r4, #-160]
 806 0740 0C5080E5 		str	r5, [r0, #12]
 807 0744 9C5014E5 		ldr	r5, [r4, #-156]
 808 0748 105080E5 		str	r5, [r0, #16]
 809 074c 985014E5 		ldr	r5, [r4, #-152]
 810 0750 145080E5 		str	r5, [r0, #20]
 811 0754 945014E5 		ldr	r5, [r4, #-148]
 812 0758 185080E5 		str	r5, [r0, #24]
 813 075c 905014E5 		ldr	r5, [r4, #-144]
 814 0760 1C5080E5 		str	r5, [r0, #28]
 815 0764 8C5014E5 		ldr	r5, [r4, #-140]
 816 0768 2050A0E5 		str	r5, [r0, #32]!
 817 076c E8FFFFCA 		bgt	.L52
 818 0770 016083E2 		add	r6, r3, #1
 819              	.L51:
 820 0774 012082E2 		add	r2, r2, #1
 821 0778 061181E0 		add	r1, r1, r6, lsl #2
 822              	.LVL108:
 823 077c 02C18CE0 		add	ip, ip, r2, lsl #2
 824 0780 000000EA 		b	.L54
 825              	.LVL109:
 826              	.L101:
 827 0784 012082E2 		add	r2, r2, #1
 828              	.LVL110:
 829              	.L54:
 830 0788 04309CE4 		ldr	r3, [ip], #4
 176:../src/tensorflow_lite/src/tensorflow/lite/micro/kernels/gather.cpp ****     output_shape->data[output_index++] = input->dims->data[i];
 831              		.loc 1 176 0
 832 078c 02005EE1 		cmp	lr, r2
 177:../src/tensorflow_lite/src/tensorflow/lite/micro/kernels/gather.cpp ****   }
 833              		.loc 1 177 0
 834 0790 043081E4 		str	r3, [r1], #4
 835              	.LVL111:
 176:../src/tensorflow_lite/src/tensorflow/lite/micro/kernels/gather.cpp ****     output_shape->data[output_index++] = input->dims->data[i];
 836              		.loc 1 176 0
 837 0794 FAFFFFCA 		bgt	.L101
 838 0798 8AFFFFEA 		b	.L50
 839              	.LVL112:
 840              	.L24:
 841 079c 0700A0E1 		mov	r0, r7
 842              	.LVL113:
 843              	.L32:
 844              	.LBE161:
 845              	.LBB162:
 171:../src/tensorflow_lite/src/tensorflow/lite/micro/kernels/gather.cpp ****   }
 846              		.loc 1 171 0
 847 07a0 013083E2 		add	r3, r3, #1
 848              	.LVL114:
 849 07a4 046090E4 		ldr	r6, [r0], #4
 170:../src/tensorflow_lite/src/tensorflow/lite/micro/kernels/gather.cpp ****     output_shape->data[output_index++] = input->dims->data[i];
 850              		.loc 1 170 0
 851 07a8 030055E1 		cmp	r5, r3
 171:../src/tensorflow_lite/src/tensorflow/lite/micro/kernels/gather.cpp ****   }
 852              		.loc 1 171 0
 853 07ac 046082E4 		str	r6, [r2], #4
 854              	.LVL115:
 170:../src/tensorflow_lite/src/tensorflow/lite/micro/kernels/gather.cpp ****     output_shape->data[output_index++] = input->dims->data[i];
 855              		.loc 1 170 0
 856 07b0 FAFFFF1A 		bne	.L32
 857 07b4 EFFEFFEA 		b	.L90
 858              	.LVL116:
 859              	.L33:
 860 07b8 078047E2 		sub	r8, r7, #7
 861 07bc 080052E1 		cmp	r2, r8
 862 07c0 0190A0B3 		movlt	r9, #1
 863 07c4 0090A0A3 		movge	r9, #0
 864 07c8 1E0157E3 		cmp	r7, #-2147483641
 865 07cc 0090A0B3 		movlt	r9, #0
 866 07d0 000059E3 		cmp	r9, #0
 867 07d4 1B00000A 		beq	.L39
 868 07d8 14209DE5 		ldr	r2, [sp, #20]
 869 07dc 066081E0 		add	r6, r1, r6
 870 07e0 882082E2 		add	r2, r2, #136
 871 07e4 02208EE0 		add	r2, lr, r2
 872              	.LVL117:
 873              	.L40:
 874              	.LBE162:
 875              	.LBB163:
 174:../src/tensorflow_lite/src/tensorflow/lite/micro/kernels/gather.cpp ****   }
 876              		.loc 1 174 0
 877 07e8 889012E5 		ldr	r9, [r2, #-136]
 878 07ec 090084E2 		add	r0, r4, #9
 879 07f0 00F0D2F5 		pld	[r2]
 880 07f4 000058E1 		cmp	r8, r0
 881 07f8 083083E2 		add	r3, r3, #8
 882 07fc 084084E2 		add	r4, r4, #8
 883 0800 049086E5 		str	r9, [r6, #4]
 884 0804 202082E2 		add	r2, r2, #32
 885 0808 A40012E5 		ldr	r0, [r2, #-164]
 886 080c 080086E5 		str	r0, [r6, #8]
 887 0810 A00012E5 		ldr	r0, [r2, #-160]
 888 0814 0C0086E5 		str	r0, [r6, #12]
 889 0818 9C0012E5 		ldr	r0, [r2, #-156]
 890 081c 100086E5 		str	r0, [r6, #16]
 891 0820 980012E5 		ldr	r0, [r2, #-152]
 892 0824 140086E5 		str	r0, [r6, #20]
 893 0828 940012E5 		ldr	r0, [r2, #-148]
 894 082c 180086E5 		str	r0, [r6, #24]
 895 0830 900012E5 		ldr	r0, [r2, #-144]
 896 0834 1C0086E5 		str	r0, [r6, #28]
 897 0838 8C0012E5 		ldr	r0, [r2, #-140]
 898 083c 2000A6E5 		str	r0, [r6, #32]!
 899 0840 E8FFFFCA 		bgt	.L40
 900 0844 012084E2 		add	r2, r4, #1
 901              	.L39:
 902 0848 013083E2 		add	r3, r3, #1
 903 084c 02E18EE0 		add	lr, lr, r2, lsl #2
 904 0850 033181E0 		add	r3, r1, r3, lsl #2
 905 0854 000000EA 		b	.L42
 906              	.LVL118:
 907              	.L102:
 908 0858 012082E2 		add	r2, r2, #1
 909              	.LVL119:
 910              	.L42:
 911 085c 04009EE4 		ldr	r0, [lr], #4
 173:../src/tensorflow_lite/src/tensorflow/lite/micro/kernels/gather.cpp ****     output_shape->data[output_index++] = coords->dims->data[i];
 912              		.loc 1 173 0
 913 0860 020057E1 		cmp	r7, r2
 174:../src/tensorflow_lite/src/tensorflow/lite/micro/kernels/gather.cpp ****   }
 914              		.loc 1 174 0
 915 0864 040083E4 		str	r0, [r3], #4
 916              	.LVL120:
 173:../src/tensorflow_lite/src/tensorflow/lite/micro/kernels/gather.cpp ****     output_shape->data[output_index++] = coords->dims->data[i];
 917              		.loc 1 173 0
 918 0868 FAFFFFCA 		bgt	.L102
 919 086c 0BFFFFEA 		b	.L41
 920              	.LVL121:
 921              	.L100:
 922              	.LBE163:
 923              	.LBB164:
 924              	.LBB151:
  48:C:/Renesas/e2studio_2021_01_workspace_RZA2M_ANPR/ANPR_RZA2M_GR_MANGO/src/tensorflow_lite/src/tensorflow/lite/micro/kernels\kernel_util.h ****   TFLITE_DCHECK(node != nullptr);
 925              		.loc 3 48 0
 926 0870 FEFFFFEB 		bl	abort
 927              	.LVL122:
 928              	.LBE151:
 929              	.LBE164:
 930              	.LBE165:
 931              	.LBE166:
 932              		.cfi_endproc
 933              	.LFE1142:
 934              		.fnend
 936              		.section	.text._ZN6tflite12_GLOBAL__N_14EvalEP13TfLiteContextP10TfLiteNode,"ax",%progbits
 937              		.align	2
 938              		.syntax unified
 939              		.arm
 940              		.fpu neon
 942              	_ZN6tflite12_GLOBAL__N_14EvalEP13TfLiteContextP10TfLiteNode:
 943              		.fnstart
 944              	.LFB1143:
 181:../src/tensorflow_lite/src/tensorflow/lite/micro/kernels/gather.cpp **** 
 182:../src/tensorflow_lite/src/tensorflow/lite/micro/kernels/gather.cpp **** TfLiteStatus Eval(TfLiteContext* context, TfLiteNode* node) {
 945              		.loc 1 182 0
 946              		.cfi_startproc
 947              		@ args = 0, pretend = 0, frame = 56
 948              		@ frame_needed = 0, uses_anonymous_args = 0
 949              	.LVL123:
 950 0000 F04F2DE9 		push	{r4, r5, r6, r7, r8, r9, r10, fp, lr}
 951              		.save {r4, r5, r6, r7, r8, r9, r10, fp, lr}
 952              		.cfi_def_cfa_offset 36
 953              		.cfi_offset 4, -36
 954              		.cfi_offset 5, -32
 955              		.cfi_offset 6, -28
 956              		.cfi_offset 7, -24
 957              		.cfi_offset 8, -20
 958              		.cfi_offset 9, -16
 959              		.cfi_offset 10, -12
 960              		.cfi_offset 11, -8
 961              		.cfi_offset 14, -4
 962              	.LBB209:
 963              	.LBB210:
 964              	.LBB211:
  34:C:/Renesas/e2studio_2021_01_workspace_RZA2M_ANPR/ANPR_RZA2M_GR_MANGO/src/tensorflow_lite/src/tensorflow/lite/micro/kernels\kernel_util.h ****   TFLITE_DCHECK(node != nullptr);
 965              		.loc 3 34 0
 966 0004 007050E2 		subs	r7, r0, #0
 967              	.LBE211:
 968              	.LBE210:
 969              	.LBE209:
 970              		.loc 1 182 0
 971              		.pad #60
 972 0008 3CD04DE2 		sub	sp, sp, #60
 973              		.cfi_def_cfa_offset 96
 183:../src/tensorflow_lite/src/tensorflow/lite/micro/kernels/gather.cpp ****   const auto* params =
 184:../src/tensorflow_lite/src/tensorflow/lite/micro/kernels/gather.cpp ****       reinterpret_cast<const TfLiteGatherParams*>(node->builtin_data);
 974              		.loc 1 184 0
 975 000c 144091E5 		ldr	r4, [r1, #20]
 976              	.LVL124:
 977              	.LBB218:
 978              	.LBB215:
 979              	.LBB212:
  34:C:/Renesas/e2studio_2021_01_workspace_RZA2M_ANPR/ANPR_RZA2M_GR_MANGO/src/tensorflow_lite/src/tensorflow/lite/micro/kernels\kernel_util.h ****   TFLITE_DCHECK(node != nullptr);
 980              		.loc 3 34 0
 981 0010 5102000A 		beq	.L112
  36:C:/Renesas/e2studio_2021_01_workspace_RZA2M_ANPR/ANPR_RZA2M_GR_MANGO/src/tensorflow_lite/src/tensorflow/lite/micro/kernels\kernel_util.h **** }
 982              		.loc 3 36 0
 983 0014 002091E5 		ldr	r2, [r1]
 984 0018 0180A0E1 		mov	r8, r1
 985 001c 543097E5 		ldr	r3, [r7, #84]
 986 0020 041092E5 		ldr	r1, [r2, #4]
 987              	.LVL125:
 988 0024 33FF2FE1 		blx	r3
 989              	.LVL126:
 990              	.LBE212:
 991              	.LBE215:
 992              	.LBE218:
 993              	.LBB219:
 994              	.LBB220:
 995              	.LBB221:
 996 0028 002098E5 		ldr	r2, [r8]
 997              	.LBE221:
 998              	.LBE220:
 999              	.LBE219:
 1000              	.LBB226:
 1001              	.LBB216:
 1002              	.LBB213:
 1003 002c 0050A0E1 		mov	r5, r0
 1004              	.LVL127:
 1005              	.LBE213:
 1006              	.LBE216:
 1007              	.LBE226:
 1008              	.LBB227:
 1009              	.LBB224:
 1010              	.LBB222:
 1011 0030 543097E5 		ldr	r3, [r7, #84]
 1012 0034 0700A0E1 		mov	r0, r7
 1013 0038 081092E5 		ldr	r1, [r2, #8]
 1014 003c 33FF2FE1 		blx	r3
 1015              	.LVL128:
 1016              	.LBE222:
 1017              	.LBE224:
 1018              	.LBE227:
 1019              	.LBB228:
 1020              	.LBB229:
 1021              		.loc 3 50 0
 1022 0040 042098E5 		ldr	r2, [r8, #4]
 1023              	.LBE229:
 1024              	.LBE228:
 1025              	.LBB231:
 1026              	.LBB225:
 1027              	.LBB223:
  36:C:/Renesas/e2studio_2021_01_workspace_RZA2M_ANPR/ANPR_RZA2M_GR_MANGO/src/tensorflow_lite/src/tensorflow/lite/micro/kernels\kernel_util.h **** }
 1028              		.loc 3 36 0
 1029 0044 0060A0E1 		mov	r6, r0
 1030              	.LVL129:
 1031              	.LBE223:
 1032              	.LBE225:
 1033              	.LBE231:
 1034              	.LBB232:
 1035              	.LBB230:
 1036              		.loc 3 50 0
 1037 0048 543097E5 		ldr	r3, [r7, #84]
 1038 004c 0700A0E1 		mov	r0, r7
 1039 0050 041092E5 		ldr	r1, [r2, #4]
 1040 0054 33FF2FE1 		blx	r3
 1041              	.LVL130:
 1042              	.LBE230:
 1043              	.LBE232:
 185:../src/tensorflow_lite/src/tensorflow/lite/micro/kernels/gather.cpp ****   const TfLiteEvalTensor* input =
 186:../src/tensorflow_lite/src/tensorflow/lite/micro/kernels/gather.cpp ****       tflite::micro::GetEvalInput(context, node, kInputTensor);
 187:../src/tensorflow_lite/src/tensorflow/lite/micro/kernels/gather.cpp ****   const TfLiteEvalTensor* coords =
 188:../src/tensorflow_lite/src/tensorflow/lite/micro/kernels/gather.cpp ****       tflite::micro::GetEvalInput(context, node, kInputPositions);
 189:../src/tensorflow_lite/src/tensorflow/lite/micro/kernels/gather.cpp ****   TfLiteEvalTensor* output =
 190:../src/tensorflow_lite/src/tensorflow/lite/micro/kernels/gather.cpp ****       tflite::micro::GetEvalOutput(context, node, kOutputTensor);
 191:../src/tensorflow_lite/src/tensorflow/lite/micro/kernels/gather.cpp **** 
 192:../src/tensorflow_lite/src/tensorflow/lite/micro/kernels/gather.cpp ****   if (coords->type == kTfLiteInt32) {
 1044              		.loc 1 192 0
 1045 0058 0830D6E5 		ldrb	r3, [r6, #8]	@ zero_extendqisi2
 1046 005c 020053E3 		cmp	r3, #2
 1047 0060 0200000A 		beq	.L105
 1048              	.LVL131:
 1049              	.L151:
 193:../src/tensorflow_lite/src/tensorflow/lite/micro/kernels/gather.cpp ****     switch (input->type) {
 194:../src/tensorflow_lite/src/tensorflow/lite/micro/kernels/gather.cpp ****       case kTfLiteFloat32:
 195:../src/tensorflow_lite/src/tensorflow/lite/micro/kernels/gather.cpp ****         return Gather<float, int32_t>(params, input, coords, output);
 196:../src/tensorflow_lite/src/tensorflow/lite/micro/kernels/gather.cpp ****         break;
 197:../src/tensorflow_lite/src/tensorflow/lite/micro/kernels/gather.cpp ****       case kTfLiteInt8:
 198:../src/tensorflow_lite/src/tensorflow/lite/micro/kernels/gather.cpp ****         return Gather<int8_t, int32_t>(params, input, coords, output);
 199:../src/tensorflow_lite/src/tensorflow/lite/micro/kernels/gather.cpp ****         break;
 200:../src/tensorflow_lite/src/tensorflow/lite/micro/kernels/gather.cpp ****       default:
 201:../src/tensorflow_lite/src/tensorflow/lite/micro/kernels/gather.cpp ****         TF_LITE_KERNEL_LOG(context, "Type '%s' is not supported by gather.",
 202:../src/tensorflow_lite/src/tensorflow/lite/micro/kernels/gather.cpp ****                            TfLiteTypeGetName(input->type));
 203:../src/tensorflow_lite/src/tensorflow/lite/micro/kernels/gather.cpp ****         return kTfLiteError;
 204:../src/tensorflow_lite/src/tensorflow/lite/micro/kernels/gather.cpp ****         break;
 205:../src/tensorflow_lite/src/tensorflow/lite/micro/kernels/gather.cpp ****     }
 206:../src/tensorflow_lite/src/tensorflow/lite/micro/kernels/gather.cpp ****   }
 207:../src/tensorflow_lite/src/tensorflow/lite/micro/kernels/gather.cpp ****   return kTfLiteOk;
 1050              		.loc 1 207 0
 1051 0064 0000A0E3 		mov	r0, #0
 208:../src/tensorflow_lite/src/tensorflow/lite/micro/kernels/gather.cpp **** }
 1052              		.loc 1 208 0
 1053 0068 3CD08DE2 		add	sp, sp, #60
 1054              		.cfi_remember_state
 1055              		.cfi_def_cfa_offset 36
 1056              		@ sp needed
 1057 006c F08FBDE8 		pop	{r4, r5, r6, r7, r8, r9, r10, fp, pc}
 1058              	.LVL132:
 1059              	.L105:
 1060              		.cfi_restore_state
 193:../src/tensorflow_lite/src/tensorflow/lite/micro/kernels/gather.cpp ****     switch (input->type) {
 1061              		.loc 1 193 0
 1062 0070 0830D5E5 		ldrb	r3, [r5, #8]	@ zero_extendqisi2
 1063 0074 010053E3 		cmp	r3, #1
 1064 0078 4302000A 		beq	.L108
 1065 007c 090053E3 		cmp	r3, #9
 1066 0080 3602001A 		bne	.L409
 1067              	.LVL133:
 1068              	.LBB233:
 1069              	.LBB234:
 1070              	.LBB235:
 1071              	.LBB236:
  51:C:/Renesas/e2studio_2021_01_workspace_RZA2M_ANPR/ANPR_RZA2M_GR_MANGO/src/tensorflow_lite/src/tensorflow/lite/micro/kernels\kernel_util.h **** }
  52:C:/Renesas/e2studio_2021_01_workspace_RZA2M_ANPR/ANPR_RZA2M_GR_MANGO/src/tensorflow_lite/src/tensorflow/lite/micro/kernels\kernel_util.h **** 
  53:C:/Renesas/e2studio_2021_01_workspace_RZA2M_ANPR/ANPR_RZA2M_GR_MANGO/src/tensorflow_lite/src/tensorflow/lite/micro/kernels\kernel_util.h **** // Returns data for a TfLiteEvalTensor struct.
  54:C:/Renesas/e2studio_2021_01_workspace_RZA2M_ANPR/ANPR_RZA2M_GR_MANGO/src/tensorflow_lite/src/tensorflow/lite/micro/kernels\kernel_util.h **** template <typename T>
  55:C:/Renesas/e2studio_2021_01_workspace_RZA2M_ANPR/ANPR_RZA2M_GR_MANGO/src/tensorflow_lite/src/tensorflow/lite/micro/kernels\kernel_util.h **** T* GetTensorData(TfLiteEvalTensor* tensor) {
  56:C:/Renesas/e2studio_2021_01_workspace_RZA2M_ANPR/ANPR_RZA2M_GR_MANGO/src/tensorflow_lite/src/tensorflow/lite/micro/kernels\kernel_util.h ****   return tensor != nullptr ? reinterpret_cast<T*>(tensor->data.raw) : nullptr;
  57:C:/Renesas/e2studio_2021_01_workspace_RZA2M_ANPR/ANPR_RZA2M_GR_MANGO/src/tensorflow_lite/src/tensorflow/lite/micro/kernels\kernel_util.h **** }
  58:C:/Renesas/e2studio_2021_01_workspace_RZA2M_ANPR/ANPR_RZA2M_GR_MANGO/src/tensorflow_lite/src/tensorflow/lite/micro/kernels\kernel_util.h **** 
  59:C:/Renesas/e2studio_2021_01_workspace_RZA2M_ANPR/ANPR_RZA2M_GR_MANGO/src/tensorflow_lite/src/tensorflow/lite/micro/kernels\kernel_util.h **** // Returns const data for a TfLiteEvalTensor struct.
  60:C:/Renesas/e2studio_2021_01_workspace_RZA2M_ANPR/ANPR_RZA2M_GR_MANGO/src/tensorflow_lite/src/tensorflow/lite/micro/kernels\kernel_util.h **** template <typename T>
  61:C:/Renesas/e2studio_2021_01_workspace_RZA2M_ANPR/ANPR_RZA2M_GR_MANGO/src/tensorflow_lite/src/tensorflow/lite/micro/kernels\kernel_util.h **** const T* GetTensorData(const TfLiteEvalTensor* tensor) {
  62:C:/Renesas/e2studio_2021_01_workspace_RZA2M_ANPR/ANPR_RZA2M_GR_MANGO/src/tensorflow_lite/src/tensorflow/lite/micro/kernels\kernel_util.h ****   TFLITE_DCHECK(tensor != nullptr);
  63:C:/Renesas/e2studio_2021_01_workspace_RZA2M_ANPR/ANPR_RZA2M_GR_MANGO/src/tensorflow_lite/src/tensorflow/lite/micro/kernels\kernel_util.h ****   return reinterpret_cast<const T*>(tensor->data.raw);
 1072              		.loc 3 63 0
 1073 0084 003096E5 		ldr	r3, [r6]
 1074              	.LBE236:
 1075              	.LBE235:
 1076              	.LBB238:
 1077              	.LBB239:
  56:C:/Renesas/e2studio_2021_01_workspace_RZA2M_ANPR/ANPR_RZA2M_GR_MANGO/src/tensorflow_lite/src/tensorflow/lite/micro/kernels\kernel_util.h **** }
 1078              		.loc 3 56 0
 1079 0088 000050E3 		cmp	r0, #0
 1080 008c 08008D05 		streq	r0, [sp, #8]
 1081              	.LBE239:
 1082              	.LBE238:
  37:../src/tensorflow_lite/src/tensorflow/lite/micro/kernels/gather.cpp ****   const int input_dims_size = input_dims->size;
 1083              		.loc 1 37 0
 1084 0090 042095E5 		ldr	r2, [r5, #4]
 1085              	.LBB242:
 1086              	.LBB237:
 1087              		.loc 3 63 0
 1088 0094 04308DE5 		str	r3, [sp, #4]
 1089              	.LBE237:
 1090              	.LBE242:
 1091              	.LBB243:
 1092              	.LBB240:
  56:C:/Renesas/e2studio_2021_01_workspace_RZA2M_ANPR/ANPR_RZA2M_GR_MANGO/src/tensorflow_lite/src/tensorflow/lite/micro/kernels\kernel_util.h **** }
 1093              		.loc 3 56 0
 1094 0098 00309015 		ldrne	r3, [r0]
 1095              	.LBE240:
 1096              	.LBE243:
  39:../src/tensorflow_lite/src/tensorflow/lite/micro/kernels/gather.cpp ****   if (axis < 0) {
 1097              		.loc 1 39 0
 1098 009c 000094E5 		ldr	r0, [r4]
 1099              	.LVL134:
 1100              	.LBB244:
 1101              	.LBB245:
 1102              		.loc 3 63 0
 1103 00a0 009095E5 		ldr	r9, [r5]
 1104              	.LVL135:
 1105              	.LBE245:
 1106              	.LBE244:
 1107              	.LBB246:
 1108              	.LBB241:
  56:C:/Renesas/e2studio_2021_01_workspace_RZA2M_ANPR/ANPR_RZA2M_GR_MANGO/src/tensorflow_lite/src/tensorflow/lite/micro/kernels\kernel_util.h **** }
 1109              		.loc 3 56 0
 1110 00a4 08308D15 		strne	r3, [sp, #8]
 1111              	.LBE241:
 1112              	.LBE246:
  40:../src/tensorflow_lite/src/tensorflow/lite/micro/kernels/gather.cpp ****     axis += input_dims_size;
 1113              		.loc 1 40 0
 1114 00a8 000050E3 		cmp	r0, #0
  38:../src/tensorflow_lite/src/tensorflow/lite/micro/kernels/gather.cpp ****   int axis = params->axis;
 1115              		.loc 1 38 0
 1116 00ac 00E092E5 		ldr	lr, [r2]
 1117              	.LVL136:
  40:../src/tensorflow_lite/src/tensorflow/lite/micro/kernels/gather.cpp ****     axis += input_dims_size;
 1118              		.loc 1 40 0
 1119 00b0 820400BA 		blt	.L410
 1120              	.L172:
  44:../src/tensorflow_lite/src/tensorflow/lite/micro/kernels/gather.cpp **** 
 1121              		.loc 1 44 0
 1122 00b4 00005EE1 		cmp	lr, r0
 1123 00b8 270200DA 		ble	.L112
  46:../src/tensorflow_lite/src/tensorflow/lite/micro/kernels/gather.cpp ****   // batch_dims should be in range: [-rank(coords), rank(coords)].
 1124              		.loc 1 46 0
 1125 00bc 043094E5 		ldr	r3, [r4, #4]
 1126              	.LVL137:
  49:../src/tensorflow_lite/src/tensorflow/lite/micro/kernels/gather.cpp ****   const int coords_dims_size = coords_dims->size;
 1127              		.loc 1 49 0
 1128 00c0 044096E5 		ldr	r4, [r6, #4]
 1129              	.LVL138:
  51:../src/tensorflow_lite/src/tensorflow/lite/micro/kernels/gather.cpp ****     batch_dims += coords_dims_size;
 1130              		.loc 1 51 0
 1131 00c4 000053E3 		cmp	r3, #0
  50:../src/tensorflow_lite/src/tensorflow/lite/micro/kernels/gather.cpp ****   if (batch_dims < 0) {
 1132              		.loc 1 50 0
 1133 00c8 001094E5 		ldr	r1, [r4]
 1134 00cc 00108DE5 		str	r1, [sp]
 1135              	.LVL139:
  51:../src/tensorflow_lite/src/tensorflow/lite/micro/kernels/gather.cpp ****     batch_dims += coords_dims_size;
 1136              		.loc 1 51 0
 1137 00d0 900400BA 		blt	.L411
 1138              	.LVL140:
 1139              	.L173:
  55:../src/tensorflow_lite/src/tensorflow/lite/micro/kernels/gather.cpp ****   TFLITE_DCHECK_LE(batch_dims, coords_dims_size);
 1140              		.loc 1 55 0
 1141 00d4 03005EE1 		cmp	lr, r3
 1142 00d8 1F0200DA 		ble	.L112
  56:../src/tensorflow_lite/src/tensorflow/lite/micro/kernels/gather.cpp ****   TFLITE_DCHECK_GE(axis, batch_dims);
 1143              		.loc 1 56 0
 1144 00dc 00109DE5 		ldr	r1, [sp]
 1145              	.LVL141:
 1146 00e0 030051E1 		cmp	r1, r3
 1147 00e4 1C0200BA 		blt	.L112
  57:../src/tensorflow_lite/src/tensorflow/lite/micro/kernels/gather.cpp ****   for (int i = 0; i < batch_dims; ++i) {
 1148              		.loc 1 57 0
 1149 00e8 030050E1 		cmp	r0, r3
 1150 00ec 1A0200BA 		blt	.L112
 1151              	.LVL142:
 1152              	.LBB247:
  58:../src/tensorflow_lite/src/tensorflow/lite/micro/kernels/gather.cpp ****     TFLITE_DCHECK_EQ(input_dims->data[i], coords_dims->data[i]);
 1153              		.loc 1 58 0
 1154 00f0 000053E3 		cmp	r3, #0
 1155 00f4 9C04000A 		beq	.L174
  59:../src/tensorflow_lite/src/tensorflow/lite/micro/kernels/gather.cpp ****   }
 1156              		.loc 1 59 0
 1157 00f8 041094E5 		ldr	r1, [r4, #4]
 1158 00fc 046092E5 		ldr	r6, [r2, #4]
 1159              	.LVL143:
 1160 0100 18108DE5 		str	r1, [sp, #24]
 1161 0104 060051E1 		cmp	r1, r6
 1162 0108 08508202 		addeq	r5, r2, #8
 1163              	.LVL144:
 1164 010c 08C08402 		addeq	ip, r4, #8
 1165 0110 0010A003 		moveq	r1, #0
 1166 0114 0400000A 		beq	.L176
 1167 0118 0F0200EA 		b	.L112
 1168              	.LVL145:
 1169              	.L393:
 1170 011c 048095E4 		ldr	r8, [r5], #4
 1171 0120 04709CE4 		ldr	r7, [ip], #4
 1172 0124 070058E1 		cmp	r8, r7
 1173 0128 0B02001A 		bne	.L112
 1174              	.LVL146:
 1175              	.L176:
  58:../src/tensorflow_lite/src/tensorflow/lite/micro/kernels/gather.cpp ****     TFLITE_DCHECK_EQ(input_dims->data[i], coords_dims->data[i]);
 1176              		.loc 1 58 0
 1177 012c 011081E2 		add	r1, r1, #1
 1178              	.LVL147:
 1179 0130 030051E1 		cmp	r1, r3
 1180 0134 F8FFFF1A 		bne	.L393
 1181 0138 04C082E2 		add	ip, r2, #4
 1182              	.LBE247:
  62:../src/tensorflow_lite/src/tensorflow/lite/micro/kernels/gather.cpp **** 
 1183              		.loc 1 62 0
 1184 013c 005182E0 		add	r5, r2, r0, lsl #2
 1185 0140 5CC1A0E7 		sbfx	ip, ip, #2, #1
 1186 0144 03C00CE2 		and	ip, ip, #3
 1187 0148 04A095E5 		ldr	r10, [r5, #4]
 1188              	.LVL148:
 1189 014c 01005CE1 		cmp	ip, r1
 1190 0150 01C0A021 		movcs	ip, r1
 1191 0154 080051E3 		cmp	r1, #8
 1192 0158 01C0A0D1 		movle	ip, r1
 1193 015c 510400CA 		bgt	.L412
 1194              	.L235:
 1195              	.LVL149:
 1196 0160 01005CE3 		cmp	ip, #1
 1197 0164 4304000A 		beq	.L286
 1198              	.LVL150:
 1199              	.LBB248:
  66:../src/tensorflow_lite/src/tensorflow/lite/micro/kernels/gather.cpp ****   }
 1200              		.loc 1 66 0
 1201 0168 085092E5 		ldr	r5, [r2, #8]
 1202 016c 02005CE3 		cmp	ip, #2
 1203 0170 950605E0 		mul	r5, r5, r6
 1204 0174 0560A0E1 		mov	r6, r5
 1205              	.LVL151:
 1206 0178 18508DE5 		str	r5, [sp, #24]
 1207              	.LVL152:
 1208 017c 3D04000A 		beq	.L286
 1209 0180 0C5092E5 		ldr	r5, [r2, #12]
 1210              	.LVL153:
 1211 0184 03005CE3 		cmp	ip, #3
 1212 0188 950605E0 		mul	r5, r5, r6
 1213 018c 0560A0E1 		mov	r6, r5
 1214              	.LVL154:
 1215 0190 18508DE5 		str	r5, [sp, #24]
 1216              	.LVL155:
 1217 0194 3704000A 		beq	.L286
 1218 0198 105092E5 		ldr	r5, [r2, #16]
 1219              	.LVL156:
 1220 019c 04005CE3 		cmp	ip, #4
 1221 01a0 950605E0 		mul	r5, r5, r6
 1222 01a4 0560A0E1 		mov	r6, r5
 1223              	.LVL157:
 1224 01a8 18508DE5 		str	r5, [sp, #24]
 1225              	.LVL158:
 1226 01ac 3104000A 		beq	.L286
 1227 01b0 145092E5 		ldr	r5, [r2, #20]
 1228              	.LVL159:
 1229 01b4 05005CE3 		cmp	ip, #5
 1230 01b8 950605E0 		mul	r5, r5, r6
 1231 01bc 0560A0E1 		mov	r6, r5
 1232              	.LVL160:
 1233 01c0 18508DE5 		str	r5, [sp, #24]
 1234              	.LVL161:
 1235 01c4 2B04000A 		beq	.L286
 1236 01c8 185092E5 		ldr	r5, [r2, #24]
 1237              	.LVL162:
 1238 01cc 06005CE3 		cmp	ip, #6
 1239 01d0 950605E0 		mul	r5, r5, r6
 1240 01d4 0560A0E1 		mov	r6, r5
 1241              	.LVL163:
 1242 01d8 18508DE5 		str	r5, [sp, #24]
 1243              	.LVL164:
 1244 01dc 2504000A 		beq	.L286
 1245 01e0 1C5092E5 		ldr	r5, [r2, #28]
 1246              	.LVL165:
 1247 01e4 07005CE3 		cmp	ip, #7
 1248 01e8 950605E0 		mul	r5, r5, r6
 1249 01ec 0570A0E1 		mov	r7, r5
 1250 01f0 18508DE5 		str	r5, [sp, #24]
 1251              	.LVL166:
 1252 01f4 1F04000A 		beq	.L286
 1253 01f8 206092E5 		ldr	r6, [r2, #32]
  65:../src/tensorflow_lite/src/tensorflow/lite/micro/kernels/gather.cpp ****     batch_size *= input_dims->data[i];
 1254              		.loc 1 65 0
 1255 01fc 0850A0E3 		mov	r5, #8
 1256              	.LVL167:
  66:../src/tensorflow_lite/src/tensorflow/lite/micro/kernels/gather.cpp ****   }
 1257              		.loc 1 66 0
 1258 0200 960706E0 		mul	r6, r6, r7
 1259 0204 18608DE5 		str	r6, [sp, #24]
 1260              	.LVL168:
 1261              	.L237:
 1262 0208 0C0051E1 		cmp	r1, ip
 1263 020c 3200000A 		beq	.L240
 1264              	.LVL169:
 1265              	.L236:
 1266 0210 0CB041E0 		sub	fp, r1, ip
 1267 0214 016041E2 		sub	r6, r1, #1
 1268 0218 04704BE2 		sub	r7, fp, #4
 1269 021c 0C6046E0 		sub	r6, r6, ip
 1270 0220 2771A0E1 		lsr	r7, r7, #2
 1271 0224 020056E3 		cmp	r6, #2
 1272 0228 018087E2 		add	r8, r7, #1
 1273 022c 0871A0E1 		lsl	r7, r8, #2
 1274 0230 1500009A 		bls	.L239
 1275 0234 01C08CE2 		add	ip, ip, #1
 1276              	.LBE248:
  64:../src/tensorflow_lite/src/tensorflow/lite/micro/kernels/gather.cpp ****   for (int i = 0; i < batch_dims; ++i) {
 1277              		.loc 1 64 0
 1278 0238 5100C0F2 		vmov.i32	q8, #1  @ v4si
 1279 023c 0CC182E0 		add	ip, r2, ip, lsl #2
 1280 0240 0060A0E3 		mov	r6, #0
 1281              	.L182:
 1282 0244 016086E2 		add	r6, r6, #1
 1283              	.LBB249:
  66:../src/tensorflow_lite/src/tensorflow/lite/micro/kernels/gather.cpp ****   }
 1284              		.loc 1 66 0
 1285 0248 DF2A6CF4 		vld1.64	{d18-d19}, [ip:64]
 1286 024c 060058E1 		cmp	r8, r6
 1287 0250 10C08CE2 		add	ip, ip, #16
 1288 0254 F20960F2 		vmul.i32	q8, q8, q9
 1289 0258 F9FFFF8A 		bhi	.L182
 1290 025c 18609DE5 		ldr	r6, [sp, #24]
 1291 0260 07005BE1 		cmp	fp, r7
 1292 0264 075085E0 		add	r5, r5, r7
 1293 0268 5020C0F2 		vmov.i32	q9, #0  @ v4si
 1294 026c E248F0F2 		vext.32	q10, q8, q9, #2
 1295 0270 F40960F2 		vmul.i32	q8, q8, q10
 1296 0274 E224F0F2 		vext.32	q9, q8, q9, #1
 1297 0278 F20960F2 		vmul.i32	q8, q8, q9
 1298 027c 90CB10EE 		vmov.32	ip, d16[0]
 1299 0280 9C060CE0 		mul	ip, ip, r6
 1300 0284 18C08DE5 		str	ip, [sp, #24]
 1301 0288 1300000A 		beq	.L240
 1302              	.L239:
 1303              	.LVL170:
 1304 028c 056182E0 		add	r6, r2, r5, lsl #2
 1305 0290 18709DE5 		ldr	r7, [sp, #24]
  65:../src/tensorflow_lite/src/tensorflow/lite/micro/kernels/gather.cpp ****     batch_size *= input_dims->data[i];
 1306              		.loc 1 65 0
 1307 0294 01C085E2 		add	ip, r5, #1
  66:../src/tensorflow_lite/src/tensorflow/lite/micro/kernels/gather.cpp ****   }
 1308              		.loc 1 66 0
 1309 0298 046096E5 		ldr	r6, [r6, #4]
  65:../src/tensorflow_lite/src/tensorflow/lite/micro/kernels/gather.cpp ****     batch_size *= input_dims->data[i];
 1310              		.loc 1 65 0
 1311 029c 0C0051E1 		cmp	r1, ip
  66:../src/tensorflow_lite/src/tensorflow/lite/micro/kernels/gather.cpp ****   }
 1312              		.loc 1 66 0
 1313 02a0 960706E0 		mul	r6, r6, r7
 1314 02a4 18608DE5 		str	r6, [sp, #24]
 1315              	.LVL171:
  65:../src/tensorflow_lite/src/tensorflow/lite/micro/kernels/gather.cpp ****     batch_size *= input_dims->data[i];
 1316              		.loc 1 65 0
 1317 02a8 0B0000DA 		ble	.L240
  66:../src/tensorflow_lite/src/tensorflow/lite/micro/kernels/gather.cpp ****   }
 1318              		.loc 1 66 0
 1319 02ac 0CC182E0 		add	ip, r2, ip, lsl #2
 1320              	.LVL172:
  65:../src/tensorflow_lite/src/tensorflow/lite/micro/kernels/gather.cpp ****     batch_size *= input_dims->data[i];
 1321              		.loc 1 65 0
 1322 02b0 025085E2 		add	r5, r5, #2
 1323              	.LVL173:
 1324 02b4 050051E1 		cmp	r1, r5
  66:../src/tensorflow_lite/src/tensorflow/lite/micro/kernels/gather.cpp ****   }
 1325              		.loc 1 66 0
 1326 02b8 04C09CE5 		ldr	ip, [ip, #4]
 1327 02bc 9C0601E0 		mul	r1, ip, r6
 1328              	.LVL174:
 1329 02c0 18108DE5 		str	r1, [sp, #24]
 1330              	.LVL175:
  65:../src/tensorflow_lite/src/tensorflow/lite/micro/kernels/gather.cpp ****     batch_size *= input_dims->data[i];
 1331              		.loc 1 65 0
 1332 02c4 040000DA 		ble	.L240
  66:../src/tensorflow_lite/src/tensorflow/lite/micro/kernels/gather.cpp ****   }
 1333              		.loc 1 66 0
 1334 02c8 055182E0 		add	r5, r2, r5, lsl #2
 1335              	.LVL176:
 1336 02cc 01C0A0E1 		mov	ip, r1
 1337 02d0 041095E5 		ldr	r1, [r5, #4]
 1338              	.LVL177:
 1339 02d4 910C01E0 		mul	r1, r1, ip
 1340 02d8 18108DE5 		str	r1, [sp, #24]
 1341              	.LVL178:
 1342              	.L240:
 1343              	.LBE249:
 1344              	.LBB250:
  69:../src/tensorflow_lite/src/tensorflow/lite/micro/kernels/gather.cpp ****     outer_size *= input_dims->data[i];
 1345              		.loc 1 69 0
 1346 02dc 030050E1 		cmp	r0, r3
 1347 02e0 0F0400DA 		ble	.L413
 1348 02e4 01B083E2 		add	fp, r3, #1
 1349 02e8 035040E0 		sub	r5, r0, r3
 1350 02ec 0B6182E0 		add	r6, r2, fp, lsl #2
 1351 02f0 56C1A0E7 		sbfx	ip, r6, #2, #1
 1352 02f4 03C00CE2 		and	ip, ip, #3
 1353 02f8 05005CE1 		cmp	ip, r5
 1354 02fc 05C0A021 		movcs	ip, r5
 1355 0300 080055E3 		cmp	r5, #8
 1356 0304 05C0A091 		movls	ip, r5
 1357 0308 00005CE3 		cmp	ip, #0
 1358 030c FD03000A 		beq	.L257
  70:../src/tensorflow_lite/src/tensorflow/lite/micro/kernels/gather.cpp ****   }
 1359              		.loc 1 70 0
 1360 0310 037182E0 		add	r7, r2, r3, lsl #2
 1361 0314 01005CE3 		cmp	ip, #1
  69:../src/tensorflow_lite/src/tensorflow/lite/micro/kernels/gather.cpp ****     outer_size *= input_dims->data[i];
 1362              		.loc 1 69 0
 1363 0318 0B10A0E1 		mov	r1, fp
  70:../src/tensorflow_lite/src/tensorflow/lite/micro/kernels/gather.cpp ****   }
 1364              		.loc 1 70 0
 1365 031c 047097E5 		ldr	r7, [r7, #4]
 1366 0320 0C708DE5 		str	r7, [sp, #12]
 1367              	.LVL179:
 1368 0324 3200000A 		beq	.L188
 1369 0328 046096E5 		ldr	r6, [r6, #4]
 1370 032c 02005CE3 		cmp	ip, #2
  69:../src/tensorflow_lite/src/tensorflow/lite/micro/kernels/gather.cpp ****     outer_size *= input_dims->data[i];
 1371              		.loc 1 69 0
 1372 0330 021083E2 		add	r1, r3, #2
 1373              	.LVL180:
  70:../src/tensorflow_lite/src/tensorflow/lite/micro/kernels/gather.cpp ****   }
 1374              		.loc 1 70 0
 1375 0334 960706E0 		mul	r6, r6, r7
 1376 0338 0670A0E1 		mov	r7, r6
 1377              	.LVL181:
 1378 033c 0C608DE5 		str	r6, [sp, #12]
 1379              	.LVL182:
 1380 0340 2B00000A 		beq	.L188
 1381 0344 011182E0 		add	r1, r2, r1, lsl #2
 1382              	.LVL183:
 1383 0348 03005CE3 		cmp	ip, #3
 1384 034c 046091E5 		ldr	r6, [r1, #4]
 1385              	.LVL184:
  69:../src/tensorflow_lite/src/tensorflow/lite/micro/kernels/gather.cpp ****     outer_size *= input_dims->data[i];
 1386              		.loc 1 69 0
 1387 0350 031083E2 		add	r1, r3, #3
  70:../src/tensorflow_lite/src/tensorflow/lite/micro/kernels/gather.cpp ****   }
 1388              		.loc 1 70 0
 1389 0354 960706E0 		mul	r6, r6, r7
 1390 0358 0670A0E1 		mov	r7, r6
 1391              	.LVL185:
 1392 035c 0C608DE5 		str	r6, [sp, #12]
 1393              	.LVL186:
 1394 0360 2300000A 		beq	.L188
 1395 0364 011182E0 		add	r1, r2, r1, lsl #2
 1396              	.LVL187:
 1397 0368 04005CE3 		cmp	ip, #4
 1398 036c 046091E5 		ldr	r6, [r1, #4]
 1399              	.LVL188:
  69:../src/tensorflow_lite/src/tensorflow/lite/micro/kernels/gather.cpp ****     outer_size *= input_dims->data[i];
 1400              		.loc 1 69 0
 1401 0370 041083E2 		add	r1, r3, #4
  70:../src/tensorflow_lite/src/tensorflow/lite/micro/kernels/gather.cpp ****   }
 1402              		.loc 1 70 0
 1403 0374 960706E0 		mul	r6, r6, r7
 1404 0378 0670A0E1 		mov	r7, r6
 1405              	.LVL189:
 1406 037c 0C608DE5 		str	r6, [sp, #12]
 1407              	.LVL190:
 1408 0380 1B00000A 		beq	.L188
 1409 0384 011182E0 		add	r1, r2, r1, lsl #2
 1410              	.LVL191:
 1411 0388 05005CE3 		cmp	ip, #5
 1412 038c 046091E5 		ldr	r6, [r1, #4]
 1413              	.LVL192:
  69:../src/tensorflow_lite/src/tensorflow/lite/micro/kernels/gather.cpp ****     outer_size *= input_dims->data[i];
 1414              		.loc 1 69 0
 1415 0390 051083E2 		add	r1, r3, #5
  70:../src/tensorflow_lite/src/tensorflow/lite/micro/kernels/gather.cpp ****   }
 1416              		.loc 1 70 0
 1417 0394 960706E0 		mul	r6, r6, r7
 1418 0398 0670A0E1 		mov	r7, r6
 1419              	.LVL193:
 1420 039c 0C608DE5 		str	r6, [sp, #12]
 1421              	.LVL194:
 1422 03a0 1300000A 		beq	.L188
 1423 03a4 011182E0 		add	r1, r2, r1, lsl #2
 1424              	.LVL195:
 1425 03a8 06005CE3 		cmp	ip, #6
 1426 03ac 046091E5 		ldr	r6, [r1, #4]
 1427              	.LVL196:
  69:../src/tensorflow_lite/src/tensorflow/lite/micro/kernels/gather.cpp ****     outer_size *= input_dims->data[i];
 1428              		.loc 1 69 0
 1429 03b0 061083E2 		add	r1, r3, #6
  70:../src/tensorflow_lite/src/tensorflow/lite/micro/kernels/gather.cpp ****   }
 1430              		.loc 1 70 0
 1431 03b4 960706E0 		mul	r6, r6, r7
 1432 03b8 0670A0E1 		mov	r7, r6
 1433              	.LVL197:
 1434 03bc 0C608DE5 		str	r6, [sp, #12]
 1435              	.LVL198:
 1436 03c0 0B00000A 		beq	.L188
 1437 03c4 011182E0 		add	r1, r2, r1, lsl #2
 1438              	.LVL199:
 1439 03c8 07005CE3 		cmp	ip, #7
 1440 03cc 046091E5 		ldr	r6, [r1, #4]
 1441              	.LVL200:
  69:../src/tensorflow_lite/src/tensorflow/lite/micro/kernels/gather.cpp ****     outer_size *= input_dims->data[i];
 1442              		.loc 1 69 0
 1443 03d0 071083E2 		add	r1, r3, #7
  70:../src/tensorflow_lite/src/tensorflow/lite/micro/kernels/gather.cpp ****   }
 1444              		.loc 1 70 0
 1445 03d4 960706E0 		mul	r6, r6, r7
 1446 03d8 0C608DE5 		str	r6, [sp, #12]
 1447              	.LVL201:
 1448 03dc 0670A0E1 		mov	r7, r6
 1449              	.LVL202:
 1450 03e0 01618210 		addne	r6, r2, r1, lsl #2
 1451              	.LVL203:
  69:../src/tensorflow_lite/src/tensorflow/lite/micro/kernels/gather.cpp ****     outer_size *= input_dims->data[i];
 1452              		.loc 1 69 0
 1453 03e4 08108312 		addne	r1, r3, #8
 1454              	.LVL204:
  70:../src/tensorflow_lite/src/tensorflow/lite/micro/kernels/gather.cpp ****   }
 1455              		.loc 1 70 0
 1456 03e8 04609615 		ldrne	r6, [r6, #4]
 1457 03ec 96070610 		mulne	r6, r6, r7
 1458 03f0 0C608D15 		strne	r6, [sp, #12]
 1459              	.LVL205:
 1460              	.L188:
 1461 03f4 0C0055E1 		cmp	r5, ip
 1462 03f8 3000000A 		beq	.L179
 1463              	.LVL206:
 1464              	.L187:
 1465 03fc 0C7045E0 		sub	r7, r5, ip
 1466 0400 015045E2 		sub	r5, r5, #1
 1467 0404 046047E2 		sub	r6, r7, #4
 1468 0408 0C5045E0 		sub	r5, r5, ip
 1469 040c 2661A0E1 		lsr	r6, r6, #2
 1470 0410 020055E3 		cmp	r5, #2
 1471 0414 016086E2 		add	r6, r6, #1
 1472 0418 0681A0E1 		lsl	r8, r6, #2
 1473 041c 1500009A 		bls	.L190
 1474 0420 0CC08BE0 		add	ip, fp, ip
  69:../src/tensorflow_lite/src/tensorflow/lite/micro/kernels/gather.cpp ****     outer_size *= input_dims->data[i];
 1475              		.loc 1 69 0
 1476 0424 5100C0F2 		vmov.i32	q8, #1  @ v4si
 1477 0428 0CC182E0 		add	ip, r2, ip, lsl #2
 1478 042c 0050A0E3 		mov	r5, #0
 1479              	.L192:
 1480 0430 015085E2 		add	r5, r5, #1
  70:../src/tensorflow_lite/src/tensorflow/lite/micro/kernels/gather.cpp ****   }
 1481              		.loc 1 70 0
 1482 0434 DF2A6CF4 		vld1.64	{d18-d19}, [ip:64]
 1483 0438 050056E1 		cmp	r6, r5
 1484 043c 10C08CE2 		add	ip, ip, #16
 1485 0440 F20960F2 		vmul.i32	q8, q8, q9
 1486 0444 F9FFFF8A 		bhi	.L192
 1487 0448 0C509DE5 		ldr	r5, [sp, #12]
 1488 044c 080057E1 		cmp	r7, r8
 1489 0450 081081E0 		add	r1, r1, r8
 1490 0454 5020C0F2 		vmov.i32	q9, #0  @ v4si
 1491 0458 E248F0F2 		vext.32	q10, q8, q9, #2
 1492 045c F40960F2 		vmul.i32	q8, q8, q10
 1493 0460 E224F0F2 		vext.32	q9, q8, q9, #1
 1494 0464 F20960F2 		vmul.i32	q8, q8, q9
 1495 0468 90CB10EE 		vmov.32	ip, d16[0]
 1496 046c 9C050CE0 		mul	ip, ip, r5
 1497 0470 0CC08DE5 		str	ip, [sp, #12]
 1498 0474 1100000A 		beq	.L179
 1499              	.L190:
 1500              	.LVL207:
 1501 0478 015182E0 		add	r5, r2, r1, lsl #2
 1502 047c 0C609DE5 		ldr	r6, [sp, #12]
  69:../src/tensorflow_lite/src/tensorflow/lite/micro/kernels/gather.cpp ****     outer_size *= input_dims->data[i];
 1503              		.loc 1 69 0
 1504 0480 01C081E2 		add	ip, r1, #1
  70:../src/tensorflow_lite/src/tensorflow/lite/micro/kernels/gather.cpp ****   }
 1505              		.loc 1 70 0
 1506 0484 045095E5 		ldr	r5, [r5, #4]
  69:../src/tensorflow_lite/src/tensorflow/lite/micro/kernels/gather.cpp ****     outer_size *= input_dims->data[i];
 1507              		.loc 1 69 0
 1508 0488 0C0050E1 		cmp	r0, ip
  70:../src/tensorflow_lite/src/tensorflow/lite/micro/kernels/gather.cpp ****   }
 1509              		.loc 1 70 0
 1510 048c 950605E0 		mul	r5, r5, r6
 1511 0490 0C508DE5 		str	r5, [sp, #12]
 1512              	.LVL208:
  69:../src/tensorflow_lite/src/tensorflow/lite/micro/kernels/gather.cpp ****     outer_size *= input_dims->data[i];
 1513              		.loc 1 69 0
 1514 0494 090000DA 		ble	.L179
  70:../src/tensorflow_lite/src/tensorflow/lite/micro/kernels/gather.cpp ****   }
 1515              		.loc 1 70 0
 1516 0498 0CC182E0 		add	ip, r2, ip, lsl #2
 1517              	.LVL209:
  69:../src/tensorflow_lite/src/tensorflow/lite/micro/kernels/gather.cpp ****     outer_size *= input_dims->data[i];
 1518              		.loc 1 69 0
 1519 049c 021081E2 		add	r1, r1, #2
 1520              	.LVL210:
 1521 04a0 010050E1 		cmp	r0, r1
  70:../src/tensorflow_lite/src/tensorflow/lite/micro/kernels/gather.cpp ****   }
 1522              		.loc 1 70 0
 1523 04a4 04C09CE5 		ldr	ip, [ip, #4]
 1524 04a8 9C050CE0 		mul	ip, ip, r5
 1525 04ac 0CC08DE5 		str	ip, [sp, #12]
 1526              	.LVL211:
  69:../src/tensorflow_lite/src/tensorflow/lite/micro/kernels/gather.cpp ****     outer_size *= input_dims->data[i];
 1527              		.loc 1 69 0
  70:../src/tensorflow_lite/src/tensorflow/lite/micro/kernels/gather.cpp ****   }
 1528              		.loc 1 70 0
 1529 04b0 011182C0 		addgt	r1, r2, r1, lsl #2
 1530              	.LVL212:
 1531 04b4 041091C5 		ldrgt	r1, [r1, #4]
 1532 04b8 910C01C0 		mulgt	r1, r1, ip
 1533 04bc 0C108DC5 		strgt	r1, [sp, #12]
 1534              	.LVL213:
 1535              	.L179:
 1536              	.LBE250:
 1537              	.LBB251:
  73:../src/tensorflow_lite/src/tensorflow/lite/micro/kernels/gather.cpp ****     inner_size *= input_dims->data[i];
 1538              		.loc 1 73 0
 1539 04c0 011080E2 		add	r1, r0, #1
 1540              	.LVL214:
 1541 04c4 01005EE1 		cmp	lr, r1
 1542 04c8 A30300DA 		ble	.L414
 1543 04cc 028080E2 		add	r8, r0, #2
 1544 04d0 01704EE2 		sub	r7, lr, #1
 1545 04d4 086182E0 		add	r6, r2, r8, lsl #2
 1546 04d8 007047E0 		sub	r7, r7, r0
 1547 04dc 56C1A0E7 		sbfx	ip, r6, #2, #1
 1548 04e0 03C00CE2 		and	ip, ip, #3
 1549 04e4 07005CE1 		cmp	ip, r7
 1550 04e8 07C0A021 		movcs	ip, r7
 1551 04ec 080057E3 		cmp	r7, #8
 1552 04f0 07C0A091 		movls	ip, r7
 1553 04f4 00005CE3 		cmp	ip, #0
 1554 04f8 8003000A 		beq	.L259
  74:../src/tensorflow_lite/src/tensorflow/lite/micro/kernels/gather.cpp ****   }
 1555              		.loc 1 74 0
 1556 04fc 015182E0 		add	r5, r2, r1, lsl #2
 1557 0500 01005CE3 		cmp	ip, #1
  73:../src/tensorflow_lite/src/tensorflow/lite/micro/kernels/gather.cpp ****     inner_size *= input_dims->data[i];
 1558              		.loc 1 73 0
 1559 0504 0810A0E1 		mov	r1, r8
 1560              	.LVL215:
  74:../src/tensorflow_lite/src/tensorflow/lite/micro/kernels/gather.cpp ****   }
 1561              		.loc 1 74 0
 1562 0508 045095E5 		ldr	r5, [r5, #4]
 1563              	.LVL216:
 1564 050c 2500000A 		beq	.L201
 1565 0510 046096E5 		ldr	r6, [r6, #4]
 1566 0514 02005CE3 		cmp	ip, #2
  73:../src/tensorflow_lite/src/tensorflow/lite/micro/kernels/gather.cpp ****     inner_size *= input_dims->data[i];
 1567              		.loc 1 73 0
 1568 0518 031080E2 		add	r1, r0, #3
 1569              	.LVL217:
  74:../src/tensorflow_lite/src/tensorflow/lite/micro/kernels/gather.cpp ****   }
 1570              		.loc 1 74 0
 1571 051c 960505E0 		mul	r5, r6, r5
 1572              	.LVL218:
 1573 0520 2000000A 		beq	.L201
 1574 0524 011182E0 		add	r1, r2, r1, lsl #2
 1575              	.LVL219:
 1576 0528 03005CE3 		cmp	ip, #3
 1577 052c 046091E5 		ldr	r6, [r1, #4]
  73:../src/tensorflow_lite/src/tensorflow/lite/micro/kernels/gather.cpp ****     inner_size *= input_dims->data[i];
 1578              		.loc 1 73 0
 1579 0530 041080E2 		add	r1, r0, #4
  74:../src/tensorflow_lite/src/tensorflow/lite/micro/kernels/gather.cpp ****   }
 1580              		.loc 1 74 0
 1581 0534 960505E0 		mul	r5, r6, r5
 1582              	.LVL220:
 1583 0538 1A00000A 		beq	.L201
 1584 053c 011182E0 		add	r1, r2, r1, lsl #2
 1585              	.LVL221:
 1586 0540 04005CE3 		cmp	ip, #4
 1587 0544 046091E5 		ldr	r6, [r1, #4]
  73:../src/tensorflow_lite/src/tensorflow/lite/micro/kernels/gather.cpp ****     inner_size *= input_dims->data[i];
 1588              		.loc 1 73 0
 1589 0548 051080E2 		add	r1, r0, #5
  74:../src/tensorflow_lite/src/tensorflow/lite/micro/kernels/gather.cpp ****   }
 1590              		.loc 1 74 0
 1591 054c 960505E0 		mul	r5, r6, r5
 1592              	.LVL222:
 1593 0550 1400000A 		beq	.L201
 1594 0554 011182E0 		add	r1, r2, r1, lsl #2
 1595              	.LVL223:
 1596 0558 05005CE3 		cmp	ip, #5
 1597 055c 046091E5 		ldr	r6, [r1, #4]
  73:../src/tensorflow_lite/src/tensorflow/lite/micro/kernels/gather.cpp ****     inner_size *= input_dims->data[i];
 1598              		.loc 1 73 0
 1599 0560 061080E2 		add	r1, r0, #6
  74:../src/tensorflow_lite/src/tensorflow/lite/micro/kernels/gather.cpp ****   }
 1600              		.loc 1 74 0
 1601 0564 960505E0 		mul	r5, r6, r5
 1602              	.LVL224:
 1603 0568 0E00000A 		beq	.L201
 1604 056c 011182E0 		add	r1, r2, r1, lsl #2
 1605              	.LVL225:
 1606 0570 06005CE3 		cmp	ip, #6
 1607 0574 046091E5 		ldr	r6, [r1, #4]
  73:../src/tensorflow_lite/src/tensorflow/lite/micro/kernels/gather.cpp ****     inner_size *= input_dims->data[i];
 1608              		.loc 1 73 0
 1609 0578 071080E2 		add	r1, r0, #7
  74:../src/tensorflow_lite/src/tensorflow/lite/micro/kernels/gather.cpp ****   }
 1610              		.loc 1 74 0
 1611 057c 960505E0 		mul	r5, r6, r5
 1612              	.LVL226:
 1613 0580 0800000A 		beq	.L201
 1614 0584 011182E0 		add	r1, r2, r1, lsl #2
 1615              	.LVL227:
 1616 0588 07005CE3 		cmp	ip, #7
 1617 058c 046091E5 		ldr	r6, [r1, #4]
  73:../src/tensorflow_lite/src/tensorflow/lite/micro/kernels/gather.cpp ****     inner_size *= input_dims->data[i];
 1618              		.loc 1 73 0
 1619 0590 081080E2 		add	r1, r0, #8
  74:../src/tensorflow_lite/src/tensorflow/lite/micro/kernels/gather.cpp ****   }
 1620              		.loc 1 74 0
 1621 0594 960505E0 		mul	r5, r6, r5
 1622              	.LVL228:
 1623 0598 01618210 		addne	r6, r2, r1, lsl #2
  73:../src/tensorflow_lite/src/tensorflow/lite/micro/kernels/gather.cpp ****     inner_size *= input_dims->data[i];
 1624              		.loc 1 73 0
 1625 059c 09108012 		addne	r1, r0, #9
 1626              	.LVL229:
  74:../src/tensorflow_lite/src/tensorflow/lite/micro/kernels/gather.cpp ****   }
 1627              		.loc 1 74 0
 1628 05a0 04609615 		ldrne	r6, [r6, #4]
 1629 05a4 96050510 		mulne	r5, r6, r5
 1630              	.LVL230:
 1631              	.L201:
 1632 05a8 0C0057E1 		cmp	r7, ip
 1633 05ac 2B00000A 		beq	.L209
 1634              	.LVL231:
 1635              	.L200:
 1636 05b0 0C7047E0 		sub	r7, r7, ip
 1637 05b4 00004EE0 		sub	r0, lr, r0
 1638              	.LVL232:
 1639 05b8 020040E2 		sub	r0, r0, #2
 1640 05bc 046047E2 		sub	r6, r7, #4
 1641 05c0 0C0040E0 		sub	r0, r0, ip
 1642 05c4 2661A0E1 		lsr	r6, r6, #2
 1643 05c8 020050E3 		cmp	r0, #2
 1644 05cc 016086E2 		add	r6, r6, #1
 1645 05d0 06B1A0E1 		lsl	fp, r6, #2
 1646 05d4 1300009A 		bls	.L203
 1647 05d8 0C0088E0 		add	r0, r8, ip
  73:../src/tensorflow_lite/src/tensorflow/lite/micro/kernels/gather.cpp ****     inner_size *= input_dims->data[i];
 1648              		.loc 1 73 0
 1649 05dc 5100C0F2 		vmov.i32	q8, #1  @ v4si
 1650 05e0 000182E0 		add	r0, r2, r0, lsl #2
 1651 05e4 00C0A0E3 		mov	ip, #0
 1652              	.L205:
 1653 05e8 01C08CE2 		add	ip, ip, #1
  74:../src/tensorflow_lite/src/tensorflow/lite/micro/kernels/gather.cpp ****   }
 1654              		.loc 1 74 0
 1655 05ec DF2A60F4 		vld1.64	{d18-d19}, [r0:64]
 1656 05f0 0C0056E1 		cmp	r6, ip
 1657 05f4 100080E2 		add	r0, r0, #16
 1658 05f8 F20960F2 		vmul.i32	q8, q8, q9
 1659 05fc F9FFFF8A 		bhi	.L205
 1660 0600 0B0057E1 		cmp	r7, fp
 1661 0604 0B1081E0 		add	r1, r1, fp
 1662 0608 5020C0F2 		vmov.i32	q9, #0  @ v4si
 1663 060c E248F0F2 		vext.32	q10, q8, q9, #2
 1664 0610 F40960F2 		vmul.i32	q8, q8, q10
 1665 0614 E224F0F2 		vext.32	q9, q8, q9, #1
 1666 0618 F20960F2 		vmul.i32	q8, q8, q9
 1667 061c 900B10EE 		vmov.32	r0, d16[0]
 1668 0620 900505E0 		mul	r5, r0, r5
 1669 0624 0D00000A 		beq	.L209
 1670              	.L203:
 1671              	.LVL233:
 1672 0628 01C182E0 		add	ip, r2, r1, lsl #2
  73:../src/tensorflow_lite/src/tensorflow/lite/micro/kernels/gather.cpp ****     inner_size *= input_dims->data[i];
 1673              		.loc 1 73 0
 1674 062c 010081E2 		add	r0, r1, #1
  74:../src/tensorflow_lite/src/tensorflow/lite/micro/kernels/gather.cpp ****   }
 1675              		.loc 1 74 0
 1676 0630 04C09CE5 		ldr	ip, [ip, #4]
  73:../src/tensorflow_lite/src/tensorflow/lite/micro/kernels/gather.cpp ****     inner_size *= input_dims->data[i];
 1677              		.loc 1 73 0
 1678 0634 00005EE1 		cmp	lr, r0
  74:../src/tensorflow_lite/src/tensorflow/lite/micro/kernels/gather.cpp ****   }
 1679              		.loc 1 74 0
 1680 0638 9C0505E0 		mul	r5, ip, r5
 1681              	.LVL234:
  73:../src/tensorflow_lite/src/tensorflow/lite/micro/kernels/gather.cpp ****     inner_size *= input_dims->data[i];
 1682              		.loc 1 73 0
 1683 063c 070000DA 		ble	.L209
  74:../src/tensorflow_lite/src/tensorflow/lite/micro/kernels/gather.cpp ****   }
 1684              		.loc 1 74 0
 1685 0640 000182E0 		add	r0, r2, r0, lsl #2
 1686              	.LVL235:
  73:../src/tensorflow_lite/src/tensorflow/lite/micro/kernels/gather.cpp ****     inner_size *= input_dims->data[i];
 1687              		.loc 1 73 0
 1688 0644 021081E2 		add	r1, r1, #2
 1689              	.LVL236:
  74:../src/tensorflow_lite/src/tensorflow/lite/micro/kernels/gather.cpp ****   }
 1690              		.loc 1 74 0
 1691 0648 040090E5 		ldr	r0, [r0, #4]
  73:../src/tensorflow_lite/src/tensorflow/lite/micro/kernels/gather.cpp ****     inner_size *= input_dims->data[i];
 1692              		.loc 1 73 0
 1693 064c 01005EE1 		cmp	lr, r1
  74:../src/tensorflow_lite/src/tensorflow/lite/micro/kernels/gather.cpp ****   }
 1694              		.loc 1 74 0
 1695 0650 900505E0 		mul	r5, r0, r5
 1696              	.LVL237:
  73:../src/tensorflow_lite/src/tensorflow/lite/micro/kernels/gather.cpp ****     inner_size *= input_dims->data[i];
 1697              		.loc 1 73 0
  74:../src/tensorflow_lite/src/tensorflow/lite/micro/kernels/gather.cpp ****   }
 1698              		.loc 1 74 0
 1699 0654 011182C0 		addgt	r1, r2, r1, lsl #2
 1700              	.LVL238:
 1701 0658 042091C5 		ldrgt	r2, [r1, #4]
 1702              	.LVL239:
 1703 065c 920505C0 		mulgt	r5, r2, r5
 1704              	.LVL240:
 1705              	.L209:
 1706              	.LBE251:
 1707              	.LBB252:
  77:../src/tensorflow_lite/src/tensorflow/lite/micro/kernels/gather.cpp ****     coord_size *= coords_dims->data[i];
 1708              		.loc 1 77 0
 1709 0660 00209DE5 		ldr	r2, [sp]
 1710 0664 030052E1 		cmp	r2, r3
 1711 0668 390300DA 		ble	.L415
 1712 066c 01B083E2 		add	fp, r3, #1
 1713 0670 031042E0 		sub	r1, r2, r3
 1714 0674 0B0184E0 		add	r0, r4, fp, lsl #2
 1715 0678 5021A0E7 		sbfx	r2, r0, #2, #1
 1716 067c 032002E2 		and	r2, r2, #3
 1717 0680 010052E1 		cmp	r2, r1
 1718 0684 0120A021 		movcs	r2, r1
 1719 0688 080051E3 		cmp	r1, #8
 1720 068c 0120A091 		movls	r2, r1
 1721 0690 000052E3 		cmp	r2, #0
 1722 0694 1703000A 		beq	.L260
  78:../src/tensorflow_lite/src/tensorflow/lite/micro/kernels/gather.cpp ****   }
 1723              		.loc 1 78 0
 1724 0698 03C184E0 		add	ip, r4, r3, lsl #2
 1725 069c 010052E3 		cmp	r2, #1
 1726 06a0 04809CE5 		ldr	r8, [ip, #4]
 1727              	.LVL241:
 1728 06a4 2E03000A 		beq	.L261
 1729 06a8 04C090E5 		ldr	ip, [r0, #4]
 1730 06ac 020052E3 		cmp	r2, #2
  77:../src/tensorflow_lite/src/tensorflow/lite/micro/kernels/gather.cpp ****     coord_size *= coords_dims->data[i];
 1731              		.loc 1 77 0
 1732 06b0 020083E2 		add	r0, r3, #2
  78:../src/tensorflow_lite/src/tensorflow/lite/micro/kernels/gather.cpp ****   }
 1733              		.loc 1 78 0
 1734 06b4 9C0808E0 		mul	r8, ip, r8
 1735              	.LVL242:
 1736 06b8 F202000A 		beq	.L267
 1737 06bc 000184E0 		add	r0, r4, r0, lsl #2
 1738              	.LVL243:
 1739 06c0 030052E3 		cmp	r2, #3
 1740 06c4 04C090E5 		ldr	ip, [r0, #4]
  77:../src/tensorflow_lite/src/tensorflow/lite/micro/kernels/gather.cpp ****     coord_size *= coords_dims->data[i];
 1741              		.loc 1 77 0
 1742 06c8 030083E2 		add	r0, r3, #3
  78:../src/tensorflow_lite/src/tensorflow/lite/micro/kernels/gather.cpp ****   }
 1743              		.loc 1 78 0
 1744 06cc 9C0808E0 		mul	r8, ip, r8
 1745              	.LVL244:
 1746 06d0 EC02000A 		beq	.L267
 1747 06d4 000184E0 		add	r0, r4, r0, lsl #2
 1748              	.LVL245:
 1749 06d8 040052E3 		cmp	r2, #4
 1750 06dc 04C090E5 		ldr	ip, [r0, #4]
  77:../src/tensorflow_lite/src/tensorflow/lite/micro/kernels/gather.cpp ****     coord_size *= coords_dims->data[i];
 1751              		.loc 1 77 0
 1752 06e0 040083E2 		add	r0, r3, #4
  78:../src/tensorflow_lite/src/tensorflow/lite/micro/kernels/gather.cpp ****   }
 1753              		.loc 1 78 0
 1754 06e4 9C0808E0 		mul	r8, ip, r8
 1755              	.LVL246:
 1756 06e8 E602000A 		beq	.L267
 1757 06ec 000184E0 		add	r0, r4, r0, lsl #2
 1758              	.LVL247:
 1759 06f0 050052E3 		cmp	r2, #5
 1760 06f4 04C090E5 		ldr	ip, [r0, #4]
  77:../src/tensorflow_lite/src/tensorflow/lite/micro/kernels/gather.cpp ****     coord_size *= coords_dims->data[i];
 1761              		.loc 1 77 0
 1762 06f8 050083E2 		add	r0, r3, #5
  78:../src/tensorflow_lite/src/tensorflow/lite/micro/kernels/gather.cpp ****   }
 1763              		.loc 1 78 0
 1764 06fc 9C0808E0 		mul	r8, ip, r8
 1765              	.LVL248:
 1766 0700 E002000A 		beq	.L267
 1767 0704 000184E0 		add	r0, r4, r0, lsl #2
 1768              	.LVL249:
 1769 0708 060052E3 		cmp	r2, #6
 1770 070c 04C090E5 		ldr	ip, [r0, #4]
  77:../src/tensorflow_lite/src/tensorflow/lite/micro/kernels/gather.cpp ****     coord_size *= coords_dims->data[i];
 1771              		.loc 1 77 0
 1772 0710 060083E2 		add	r0, r3, #6
  78:../src/tensorflow_lite/src/tensorflow/lite/micro/kernels/gather.cpp ****   }
 1773              		.loc 1 78 0
 1774 0714 9C0808E0 		mul	r8, ip, r8
 1775              	.LVL250:
 1776 0718 DA02000A 		beq	.L267
 1777 071c 000184E0 		add	r0, r4, r0, lsl #2
 1778              	.LVL251:
 1779 0720 070052E3 		cmp	r2, #7
 1780 0724 04C090E5 		ldr	ip, [r0, #4]
  77:../src/tensorflow_lite/src/tensorflow/lite/micro/kernels/gather.cpp ****     coord_size *= coords_dims->data[i];
 1781              		.loc 1 77 0
 1782 0728 070083E2 		add	r0, r3, #7
  78:../src/tensorflow_lite/src/tensorflow/lite/micro/kernels/gather.cpp ****   }
 1783              		.loc 1 78 0
 1784 072c 9C0808E0 		mul	r8, ip, r8
 1785              	.LVL252:
 1786 0730 D402000A 		beq	.L267
 1787 0734 000184E0 		add	r0, r4, r0, lsl #2
 1788              	.LVL253:
  77:../src/tensorflow_lite/src/tensorflow/lite/micro/kernels/gather.cpp ****     coord_size *= coords_dims->data[i];
 1789              		.loc 1 77 0
 1790 0738 083083E2 		add	r3, r3, #8
 1791              	.LVL254:
  78:../src/tensorflow_lite/src/tensorflow/lite/micro/kernels/gather.cpp ****   }
 1792              		.loc 1 78 0
 1793 073c 040090E5 		ldr	r0, [r0, #4]
 1794 0740 900808E0 		mul	r8, r0, r8
 1795              	.LVL255:
 1796              	.L213:
 1797 0744 020051E1 		cmp	r1, r2
 1798 0748 2B00000A 		beq	.L197
 1799              	.LVL256:
 1800              	.L212:
 1801 074c 02E041E0 		sub	lr, r1, r2
 1802              	.LVL257:
 1803 0750 011041E2 		sub	r1, r1, #1
 1804 0754 04C04EE2 		sub	ip, lr, #4
 1805 0758 020041E0 		sub	r0, r1, r2
 1806 075c 2C11A0E1 		lsr	r1, ip, #2
 1807 0760 020050E3 		cmp	r0, #2
 1808 0764 011081E2 		add	r1, r1, #1
 1809 0768 0101A0E1 		lsl	r0, r1, #2
 1810 076c 1300009A 		bls	.L215
 1811 0770 02208BE0 		add	r2, fp, r2
  77:../src/tensorflow_lite/src/tensorflow/lite/micro/kernels/gather.cpp ****     coord_size *= coords_dims->data[i];
 1812              		.loc 1 77 0
 1813 0774 5100C0F2 		vmov.i32	q8, #1  @ v4si
 1814 0778 022184E0 		add	r2, r4, r2, lsl #2
 1815 077c 00C0A0E3 		mov	ip, #0
 1816              	.L217:
 1817 0780 01C08CE2 		add	ip, ip, #1
  78:../src/tensorflow_lite/src/tensorflow/lite/micro/kernels/gather.cpp ****   }
 1818              		.loc 1 78 0
 1819 0784 DF2A62F4 		vld1.64	{d18-d19}, [r2:64]
 1820 0788 0C0051E1 		cmp	r1, ip
 1821 078c 102082E2 		add	r2, r2, #16
 1822 0790 F20960F2 		vmul.i32	q8, q8, q9
 1823 0794 F9FFFF8A 		bhi	.L217
 1824 0798 00005EE1 		cmp	lr, r0
 1825 079c 003083E0 		add	r3, r3, r0
 1826 07a0 5020C0F2 		vmov.i32	q9, #0  @ v4si
 1827 07a4 E248F0F2 		vext.32	q10, q8, q9, #2
 1828 07a8 F40960F2 		vmul.i32	q8, q8, q10
 1829 07ac E224F0F2 		vext.32	q9, q8, q9, #1
 1830 07b0 F20960F2 		vmul.i32	q8, q8, q9
 1831 07b4 902B10EE 		vmov.32	r2, d16[0]
 1832 07b8 920808E0 		mul	r8, r2, r8
 1833 07bc 0E00000A 		beq	.L197
 1834              	.L215:
 1835              	.LVL258:
 1836 07c0 031184E0 		add	r1, r4, r3, lsl #2
  77:../src/tensorflow_lite/src/tensorflow/lite/micro/kernels/gather.cpp ****     coord_size *= coords_dims->data[i];
 1837              		.loc 1 77 0
 1838 07c4 00009DE5 		ldr	r0, [sp]
  78:../src/tensorflow_lite/src/tensorflow/lite/micro/kernels/gather.cpp ****   }
 1839              		.loc 1 78 0
 1840 07c8 041091E5 		ldr	r1, [r1, #4]
  77:../src/tensorflow_lite/src/tensorflow/lite/micro/kernels/gather.cpp ****     coord_size *= coords_dims->data[i];
 1841              		.loc 1 77 0
 1842 07cc 012083E2 		add	r2, r3, #1
 1843 07d0 020050E1 		cmp	r0, r2
  78:../src/tensorflow_lite/src/tensorflow/lite/micro/kernels/gather.cpp ****   }
 1844              		.loc 1 78 0
 1845 07d4 910808E0 		mul	r8, r1, r8
 1846              	.LVL259:
  77:../src/tensorflow_lite/src/tensorflow/lite/micro/kernels/gather.cpp ****     coord_size *= coords_dims->data[i];
 1847              		.loc 1 77 0
 1848 07d8 070000DA 		ble	.L197
  78:../src/tensorflow_lite/src/tensorflow/lite/micro/kernels/gather.cpp ****   }
 1849              		.loc 1 78 0
 1850 07dc 022184E0 		add	r2, r4, r2, lsl #2
 1851              	.LVL260:
  77:../src/tensorflow_lite/src/tensorflow/lite/micro/kernels/gather.cpp ****     coord_size *= coords_dims->data[i];
 1852              		.loc 1 77 0
 1853 07e0 023083E2 		add	r3, r3, #2
 1854              	.LVL261:
  78:../src/tensorflow_lite/src/tensorflow/lite/micro/kernels/gather.cpp ****   }
 1855              		.loc 1 78 0
 1856 07e4 042092E5 		ldr	r2, [r2, #4]
  77:../src/tensorflow_lite/src/tensorflow/lite/micro/kernels/gather.cpp ****     coord_size *= coords_dims->data[i];
 1857              		.loc 1 77 0
 1858 07e8 030050E1 		cmp	r0, r3
  78:../src/tensorflow_lite/src/tensorflow/lite/micro/kernels/gather.cpp ****   }
 1859              		.loc 1 78 0
 1860 07ec 920808E0 		mul	r8, r2, r8
 1861              	.LVL262:
  77:../src/tensorflow_lite/src/tensorflow/lite/micro/kernels/gather.cpp ****     coord_size *= coords_dims->data[i];
 1862              		.loc 1 77 0
  78:../src/tensorflow_lite/src/tensorflow/lite/micro/kernels/gather.cpp ****   }
 1863              		.loc 1 78 0
 1864 07f0 033184C0 		addgt	r3, r4, r3, lsl #2
 1865              	.LVL263:
 1866 07f4 043093C5 		ldrgt	r3, [r3, #4]
 1867 07f8 930808C0 		mulgt	r8, r3, r8
 1868              	.LVL264:
 1869              	.L197:
 1870              	.LBE252:
 1871              	.LBB253:
  81:../src/tensorflow_lite/src/tensorflow/lite/micro/kernels/gather.cpp ****     for (int outer = 0; outer < outer_size; ++outer) {
 1872              		.loc 1 81 0
 1873 07fc 18309DE5 		ldr	r3, [sp, #24]
 1874 0800 000053E3 		cmp	r3, #0
 1875 0804 16FEFFDA 		ble	.L151
 1876 0808 0C209DE5 		ldr	r2, [sp, #12]
 1877 080c 0801A0E1 		lsl	r0, r8, #2
 1878 0810 0010A0E3 		mov	r1, #0
 1879 0814 30008DE5 		str	r0, [sp, #48]
 1880 0818 08009DE5 		ldr	r0, [sp, #8]
 1881 081c 950203E0 		mul	r3, r5, r2
 1882 0820 20108DE5 		str	r1, [sp, #32]
 1883 0824 24108DE5 		str	r1, [sp, #36]
 1884 0828 9A0202E0 		mul	r2, r10, r2
 1885 082c 1C008DE5 		str	r0, [sp, #28]
 1886 0830 980303E0 		mul	r3, r8, r3
 1887 0834 2C208DE5 		str	r2, [sp, #44]
 1888 0838 04209DE5 		ldr	r2, [sp, #4]
 1889 083c 28308DE5 		str	r3, [sp, #40]
 1890 0840 950803E0 		mul	r3, r5, r8
 1891 0844 10208DE5 		str	r2, [sp, #16]
 1892 0848 14308DE5 		str	r3, [sp, #20]
 1893              	.LVL265:
 1894              	.L222:
 1895              	.LBB254:
  82:../src/tensorflow_lite/src/tensorflow/lite/micro/kernels/gather.cpp ****       for (int coord = 0; coord < coord_size; ++coord) {
 1896              		.loc 1 82 0
 1897 084c 0C309DE5 		ldr	r3, [sp, #12]
 1898 0850 000053E3 		cmp	r3, #0
 1899 0854 2B0000DA 		ble	.L224
 1900 0858 1C309DE5 		ldr	r3, [sp, #28]
 1901 085c 20709DE5 		ldr	r7, [sp, #32]
 1902 0860 00308DE5 		str	r3, [sp]
 1903 0864 0030A0E3 		mov	r3, #0
 1904 0868 08308DE5 		str	r3, [sp, #8]
 1905              	.LVL266:
 1906              	.L221:
 1907              	.LBB255:
  83:../src/tensorflow_lite/src/tensorflow/lite/micro/kernels/gather.cpp ****         TFLITE_DCHECK_GE(coords_data[coord], 0);
 1908              		.loc 1 83 0
 1909 086c 000058E3 		cmp	r8, #0
 1910 0870 190000DA 		ble	.L227
  84:../src/tensorflow_lite/src/tensorflow/lite/micro/kernels/gather.cpp ****         TFLITE_DCHECK_LT(coords_data[coord], axis_size);
 1911              		.loc 1 84 0
 1912 0874 04309DE5 		ldr	r3, [sp, #4]
 1913 0878 003093E5 		ldr	r3, [r3]
 1914 087c 000053E3 		cmp	r3, #0
 1915 0880 350000BA 		blt	.L112
  85:../src/tensorflow_lite/src/tensorflow/lite/micro/kernels/gather.cpp ****         std::memcpy(output_data +
 1916              		.loc 1 85 0
 1917 0884 03005AE1 		cmp	r10, r3
 1918 0888 330000DA 		ble	.L112
 1919 088c 48009DE8 		ldm	sp, {r3, r6}
 1920 0890 0040A0E3 		mov	r4, #0
 1921 0894 10B09DE5 		ldr	fp, [sp, #16]
 1922 0898 050000EA 		b	.L226
 1923              	.LVL267:
 1924              	.L398:
  84:../src/tensorflow_lite/src/tensorflow/lite/micro/kernels/gather.cpp ****         TFLITE_DCHECK_LT(coords_data[coord], axis_size);
 1925              		.loc 1 84 0
 1926 089c 0420B6E5 		ldr	r2, [r6, #4]!
 1927 08a0 000052E3 		cmp	r2, #0
 1928 08a4 2C0000BA 		blt	.L112
  85:../src/tensorflow_lite/src/tensorflow/lite/micro/kernels/gather.cpp ****         std::memcpy(output_data +
 1929              		.loc 1 85 0
 1930 08a8 0A0052E1 		cmp	r2, r10
 1931 08ac 053083E0 		add	r3, r3, r5
 1932 08b0 290000AA 		bge	.L112
 1933              	.LVL268:
 1934              	.L226:
  90:../src/tensorflow_lite/src/tensorflow/lite/micro/kernels/gather.cpp ****                                      inner_size,
 1935              		.loc 1 90 0
 1936 08b4 04109BE4 		ldr	r1, [fp], #4
  86:../src/tensorflow_lite/src/tensorflow/lite/micro/kernels/gather.cpp ****                         (((batch * outer_size) + outer) * coord_size + coord) *
 1937              		.loc 1 86 0
 1938 08b8 0300A0E1 		mov	r0, r3
  83:../src/tensorflow_lite/src/tensorflow/lite/micro/kernels/gather.cpp ****         TFLITE_DCHECK_GE(coords_data[coord], 0);
 1939              		.loc 1 83 0
 1940 08bc 014084E2 		add	r4, r4, #1
 1941              	.LVL269:
  86:../src/tensorflow_lite/src/tensorflow/lite/micro/kernels/gather.cpp ****                         (((batch * outer_size) + outer) * coord_size + coord) *
 1942              		.loc 1 86 0
 1943 08c0 0520A0E1 		mov	r2, r5
  89:../src/tensorflow_lite/src/tensorflow/lite/micro/kernels/gather.cpp ****                                   coords_data[batch * coord_size + coord]) *
 1944              		.loc 1 89 0
 1945 08c4 071081E0 		add	r1, r1, r7
  86:../src/tensorflow_lite/src/tensorflow/lite/micro/kernels/gather.cpp ****                         (((batch * outer_size) + outer) * coord_size + coord) *
 1946              		.loc 1 86 0
 1947 08c8 959121E0 		mla	r1, r5, r1, r9
 1948 08cc FEFFFFEB 		bl	memcpy
 1949              	.LVL270:
  83:../src/tensorflow_lite/src/tensorflow/lite/micro/kernels/gather.cpp ****         TFLITE_DCHECK_GE(coords_data[coord], 0);
 1950              		.loc 1 83 0
 1951 08d0 080054E1 		cmp	r4, r8
  86:../src/tensorflow_lite/src/tensorflow/lite/micro/kernels/gather.cpp ****                         (((batch * outer_size) + outer) * coord_size + coord) *
 1952              		.loc 1 86 0
 1953 08d4 0030A0E1 		mov	r3, r0
 1954              	.LVL271:
  83:../src/tensorflow_lite/src/tensorflow/lite/micro/kernels/gather.cpp ****         TFLITE_DCHECK_GE(coords_data[coord], 0);
 1955              		.loc 1 83 0
 1956 08d8 EFFFFF1A 		bne	.L398
 1957              	.LVL272:
 1958              	.L227:
 1959 08dc 00209DE5 		ldr	r2, [sp]
 1960 08e0 0A7087E0 		add	r7, r7, r10
 1961 08e4 14109DE5 		ldr	r1, [sp, #20]
 1962              	.LBE255:
  82:../src/tensorflow_lite/src/tensorflow/lite/micro/kernels/gather.cpp ****       for (int coord = 0; coord < coord_size; ++coord) {
 1963              		.loc 1 82 0
 1964 08e8 08309DE5 		ldr	r3, [sp, #8]
 1965 08ec 012082E0 		add	r2, r2, r1
 1966 08f0 00208DE5 		str	r2, [sp]
 1967 08f4 013083E2 		add	r3, r3, #1
 1968 08f8 0C209DE5 		ldr	r2, [sp, #12]
 1969 08fc 08308DE5 		str	r3, [sp, #8]
 1970              	.LVL273:
 1971 0900 020053E1 		cmp	r3, r2
 1972 0904 D8FFFF1A 		bne	.L221
 1973              	.LVL274:
 1974              	.L224:
 1975 0908 1C209DE5 		ldr	r2, [sp, #28]
 1976 090c 28109DE5 		ldr	r1, [sp, #40]
 1977              	.LBE254:
  81:../src/tensorflow_lite/src/tensorflow/lite/micro/kernels/gather.cpp ****     for (int outer = 0; outer < outer_size; ++outer) {
 1978              		.loc 1 81 0
 1979 0910 24309DE5 		ldr	r3, [sp, #36]
 1980 0914 012082E0 		add	r2, r2, r1
 1981 0918 1C208DE5 		str	r2, [sp, #28]
 1982 091c 013083E2 		add	r3, r3, #1
 1983 0920 18209DE5 		ldr	r2, [sp, #24]
 1984 0924 24308DE5 		str	r3, [sp, #36]
 1985              	.LVL275:
 1986 0928 020053E1 		cmp	r3, r2
 1987 092c 20309DE5 		ldr	r3, [sp, #32]
 1988              	.LVL276:
 1989 0930 2C209DE5 		ldr	r2, [sp, #44]
 1990 0934 023083E0 		add	r3, r3, r2
 1991 0938 30209DE5 		ldr	r2, [sp, #48]
 1992 093c 20308DE5 		str	r3, [sp, #32]
 1993 0940 10309DE5 		ldr	r3, [sp, #16]
 1994 0944 023083E0 		add	r3, r3, r2
 1995 0948 10308DE5 		str	r3, [sp, #16]
 1996 094c BEFFFF1A 		bne	.L222
 1997 0950 C3FDFFEA 		b	.L151
 1998              	.LVL277:
 1999              	.L416:
 2000              	.LBE253:
 2001              	.LBE234:
 2002              	.LBE233:
 2003              	.LBB269:
 2004              	.LBB270:
  43:../src/tensorflow_lite/src/tensorflow/lite/micro/kernels/gather.cpp ****   TFLITE_DCHECK_LT(axis, input_dims_size);
 2005              		.loc 1 43 0
 2006 0954 050090E0 		adds	r0, r0, r5
 2007              	.LVL278:
 2008 0958 1800005A 		bpl	.L111
 2009              	.LVL279:
 2010              	.L112:
 2011              	.LBE270:
 2012              	.LBE269:
 2013              	.LBB307:
 2014              	.LBB217:
 2015              	.LBB214:
  34:C:/Renesas/e2studio_2021_01_workspace_RZA2M_ANPR/ANPR_RZA2M_GR_MANGO/src/tensorflow_lite/src/tensorflow/lite/micro/kernels\kernel_util.h ****   TFLITE_DCHECK(node != nullptr);
 2016              		.loc 3 34 0
 2017 095c FEFFFFEB 		bl	abort
 2018              	.LVL280:
 2019              	.L409:
 2020              	.LBE214:
 2021              	.LBE217:
 2022              	.LBE307:
 201:../src/tensorflow_lite/src/tensorflow/lite/micro/kernels/gather.cpp ****                            TfLiteTypeGetName(input->type));
 2023              		.loc 1 201 0
 2024 0960 0300A0E1 		mov	r0, r3
 2025 0964 144097E5 		ldr	r4, [r7, #20]
 2026              	.LVL281:
 2027 0968 FEFFFFEB 		bl	TfLiteTypeGetName
 2028              	.LVL282:
 2029 096c 001000E3 		movw	r1, #:lower16:.LC8
 2030 0970 0020A0E1 		mov	r2, r0
 2031 0974 001040E3 		movt	r1, #:upper16:.LC8
 2032 0978 0700A0E1 		mov	r0, r7
 2033 097c 34FF2FE1 		blx	r4
 2034              	.LVL283:
 203:../src/tensorflow_lite/src/tensorflow/lite/micro/kernels/gather.cpp ****         break;
 2035              		.loc 1 203 0
 2036 0980 0100A0E3 		mov	r0, #1
 2037              		.loc 1 208 0
 2038 0984 3CD08DE2 		add	sp, sp, #60
 2039              		.cfi_remember_state
 2040              		.cfi_def_cfa_offset 36
 2041              		@ sp needed
 2042 0988 F08FBDE8 		pop	{r4, r5, r6, r7, r8, r9, r10, fp, pc}
 2043              	.LVL284:
 2044              	.L108:
 2045              		.cfi_restore_state
 2046              	.LBB308:
 2047              	.LBB301:
 2048              	.LBB271:
 2049              	.LBB272:
 2050              		.loc 3 63 0
 2051 098c 003095E5 		ldr	r3, [r5]
 2052              	.LBE272:
 2053              	.LBE271:
 2054              	.LBB274:
 2055              	.LBB275:
  56:C:/Renesas/e2studio_2021_01_workspace_RZA2M_ANPR/ANPR_RZA2M_GR_MANGO/src/tensorflow_lite/src/tensorflow/lite/micro/kernels\kernel_util.h **** }
 2056              		.loc 3 56 0
 2057 0990 000050E3 		cmp	r0, #0
 2058 0994 0C008D05 		streq	r0, [sp, #12]
 2059              	.LBE275:
 2060              	.LBE274:
  37:../src/tensorflow_lite/src/tensorflow/lite/micro/kernels/gather.cpp ****   const int input_dims_size = input_dims->size;
 2061              		.loc 1 37 0
 2062 0998 042095E5 		ldr	r2, [r5, #4]
 2063              	.LBB278:
 2064              	.LBB273:
 2065              		.loc 3 63 0
 2066 099c 00308DE5 		str	r3, [sp]
 2067              	.LVL285:
 2068              	.LBE273:
 2069              	.LBE278:
 2070              	.LBB279:
 2071              	.LBB280:
 2072 09a0 003096E5 		ldr	r3, [r6]
 2073              	.LVL286:
 2074              	.LBE280:
 2075              	.LBE279:
  38:../src/tensorflow_lite/src/tensorflow/lite/micro/kernels/gather.cpp ****   int axis = params->axis;
 2076              		.loc 1 38 0
 2077 09a4 005092E5 		ldr	r5, [r2]
 2078              	.LVL287:
 2079              	.LBB282:
 2080              	.LBB281:
 2081              		.loc 3 63 0
 2082 09a8 08308DE5 		str	r3, [sp, #8]
 2083              	.LVL288:
 2084              	.LBE281:
 2085              	.LBE282:
 2086              	.LBB283:
 2087              	.LBB276:
  56:C:/Renesas/e2studio_2021_01_workspace_RZA2M_ANPR/ANPR_RZA2M_GR_MANGO/src/tensorflow_lite/src/tensorflow/lite/micro/kernels\kernel_util.h **** }
 2088              		.loc 3 56 0
 2089 09ac 00309015 		ldrne	r3, [r0]
 2090              	.LVL289:
 2091              	.LBE276:
 2092              	.LBE283:
  39:../src/tensorflow_lite/src/tensorflow/lite/micro/kernels/gather.cpp ****   if (axis < 0) {
 2093              		.loc 1 39 0
 2094 09b0 000094E5 		ldr	r0, [r4]
 2095              	.LVL290:
 2096              	.LBB284:
 2097              	.LBB277:
  56:C:/Renesas/e2studio_2021_01_workspace_RZA2M_ANPR/ANPR_RZA2M_GR_MANGO/src/tensorflow_lite/src/tensorflow/lite/micro/kernels\kernel_util.h **** }
 2098              		.loc 3 56 0
 2099 09b4 0C308D15 		strne	r3, [sp, #12]
 2100              	.LBE277:
 2101              	.LBE284:
  40:../src/tensorflow_lite/src/tensorflow/lite/micro/kernels/gather.cpp ****     axis += input_dims_size;
 2102              		.loc 1 40 0
 2103 09b8 000050E3 		cmp	r0, #0
 2104 09bc E4FFFFBA 		blt	.L416
 2105              	.L111:
  44:../src/tensorflow_lite/src/tensorflow/lite/micro/kernels/gather.cpp **** 
 2106              		.loc 1 44 0
 2107 09c0 000055E1 		cmp	r5, r0
 2108 09c4 E4FFFFDA 		ble	.L112
  49:../src/tensorflow_lite/src/tensorflow/lite/micro/kernels/gather.cpp ****   const int coords_dims_size = coords_dims->size;
 2109              		.loc 1 49 0
 2110 09c8 04E096E5 		ldr	lr, [r6, #4]
  46:../src/tensorflow_lite/src/tensorflow/lite/micro/kernels/gather.cpp ****   // batch_dims should be in range: [-rank(coords), rank(coords)].
 2111              		.loc 1 46 0
 2112 09cc 043094E5 		ldr	r3, [r4, #4]
 2113              	.LVL291:
  50:../src/tensorflow_lite/src/tensorflow/lite/micro/kernels/gather.cpp ****   if (batch_dims < 0) {
 2114              		.loc 1 50 0
 2115 09d0 00109EE5 		ldr	r1, [lr]
  51:../src/tensorflow_lite/src/tensorflow/lite/micro/kernels/gather.cpp ****     batch_dims += coords_dims_size;
 2116              		.loc 1 51 0
 2117 09d4 000053E3 		cmp	r3, #0
  50:../src/tensorflow_lite/src/tensorflow/lite/micro/kernels/gather.cpp ****   if (batch_dims < 0) {
 2118              		.loc 1 50 0
 2119 09d8 04108DE5 		str	r1, [sp, #4]
 2120              	.LVL292:
  51:../src/tensorflow_lite/src/tensorflow/lite/micro/kernels/gather.cpp ****     batch_dims += coords_dims_size;
 2121              		.loc 1 51 0
 2122 09dc 420200BA 		blt	.L417
 2123              	.LVL293:
 2124              	.L113:
  55:../src/tensorflow_lite/src/tensorflow/lite/micro/kernels/gather.cpp ****   TFLITE_DCHECK_LE(batch_dims, coords_dims_size);
 2125              		.loc 1 55 0
 2126 09e0 030055E1 		cmp	r5, r3
 2127 09e4 DCFFFFDA 		ble	.L112
  56:../src/tensorflow_lite/src/tensorflow/lite/micro/kernels/gather.cpp ****   TFLITE_DCHECK_GE(axis, batch_dims);
 2128              		.loc 1 56 0
 2129 09e8 04109DE5 		ldr	r1, [sp, #4]
 2130              	.LVL294:
 2131 09ec 030051E1 		cmp	r1, r3
 2132 09f0 D9FFFFBA 		blt	.L112
  57:../src/tensorflow_lite/src/tensorflow/lite/micro/kernels/gather.cpp ****   for (int i = 0; i < batch_dims; ++i) {
 2133              		.loc 1 57 0
 2134 09f4 030050E1 		cmp	r0, r3
 2135 09f8 D7FFFFBA 		blt	.L112
 2136              	.LVL295:
 2137              	.LBB285:
  58:../src/tensorflow_lite/src/tensorflow/lite/micro/kernels/gather.cpp ****     TFLITE_DCHECK_EQ(input_dims->data[i], coords_dims->data[i]);
 2138              		.loc 1 58 0
 2139 09fc 000053E3 		cmp	r3, #0
 2140 0a00 5E02000A 		beq	.L114
  59:../src/tensorflow_lite/src/tensorflow/lite/micro/kernels/gather.cpp ****   }
 2141              		.loc 1 59 0
 2142 0a04 04109EE5 		ldr	r1, [lr, #4]
 2143 0a08 046092E5 		ldr	r6, [r2, #4]
 2144              	.LVL296:
 2145 0a0c 1C108DE5 		str	r1, [sp, #28]
 2146 0a10 010056E1 		cmp	r6, r1
 2147 0a14 08408202 		addeq	r4, r2, #8
 2148              	.LVL297:
 2149 0a18 08C08E02 		addeq	ip, lr, #8
 2150 0a1c 0010A003 		moveq	r1, #0
 2151 0a20 0400000A 		beq	.L116
 2152 0a24 CCFFFFEA 		b	.L112
 2153              	.LVL298:
 2154              	.L387:
 2155 0a28 048094E4 		ldr	r8, [r4], #4
 2156 0a2c 04709CE4 		ldr	r7, [ip], #4
 2157 0a30 070058E1 		cmp	r8, r7
 2158 0a34 C8FFFF1A 		bne	.L112
 2159              	.LVL299:
 2160              	.L116:
  58:../src/tensorflow_lite/src/tensorflow/lite/micro/kernels/gather.cpp ****     TFLITE_DCHECK_EQ(input_dims->data[i], coords_dims->data[i]);
 2161              		.loc 1 58 0
 2162 0a38 011081E2 		add	r1, r1, #1
 2163              	.LVL300:
 2164 0a3c 030051E1 		cmp	r1, r3
 2165 0a40 F8FFFF1A 		bne	.L387
 2166 0a44 04C082E2 		add	ip, r2, #4
 2167              	.LBE285:
  62:../src/tensorflow_lite/src/tensorflow/lite/micro/kernels/gather.cpp **** 
 2168              		.loc 1 62 0
 2169 0a48 004182E0 		add	r4, r2, r0, lsl #2
 2170 0a4c 5CC1A0E7 		sbfx	ip, ip, #2, #1
 2171 0a50 03C00CE2 		and	ip, ip, #3
 2172 0a54 049094E5 		ldr	r9, [r4, #4]
 2173              	.LVL301:
 2174 0a58 01005CE1 		cmp	ip, r1
 2175 0a5c 01C0A021 		movcs	ip, r1
 2176 0a60 080051E3 		cmp	r1, #8
 2177 0a64 01C0A0D1 		movle	ip, r1
 2178 0a68 080200CA 		bgt	.L418
 2179              	.L230:
 2180              	.LVL302:
 2181 0a6c 01005CE3 		cmp	ip, #1
 2182 0a70 FE01000A 		beq	.L277
 2183              	.LVL303:
 2184              	.LBB286:
  66:../src/tensorflow_lite/src/tensorflow/lite/micro/kernels/gather.cpp ****   }
 2185              		.loc 1 66 0
 2186 0a74 084092E5 		ldr	r4, [r2, #8]
 2187 0a78 02005CE3 		cmp	ip, #2
 2188 0a7c 940604E0 		mul	r4, r4, r6
 2189 0a80 0460A0E1 		mov	r6, r4
 2190              	.LVL304:
 2191 0a84 1C408DE5 		str	r4, [sp, #28]
 2192              	.LVL305:
 2193 0a88 F801000A 		beq	.L277
 2194 0a8c 0C4092E5 		ldr	r4, [r2, #12]
 2195              	.LVL306:
 2196 0a90 03005CE3 		cmp	ip, #3
 2197 0a94 940604E0 		mul	r4, r4, r6
 2198 0a98 0460A0E1 		mov	r6, r4
 2199              	.LVL307:
 2200 0a9c 1C408DE5 		str	r4, [sp, #28]
 2201              	.LVL308:
 2202 0aa0 F201000A 		beq	.L277
 2203 0aa4 104092E5 		ldr	r4, [r2, #16]
 2204              	.LVL309:
 2205 0aa8 04005CE3 		cmp	ip, #4
 2206 0aac 940604E0 		mul	r4, r4, r6
 2207 0ab0 0460A0E1 		mov	r6, r4
 2208              	.LVL310:
 2209 0ab4 1C408DE5 		str	r4, [sp, #28]
 2210              	.LVL311:
 2211 0ab8 EC01000A 		beq	.L277
 2212 0abc 144092E5 		ldr	r4, [r2, #20]
 2213              	.LVL312:
 2214 0ac0 05005CE3 		cmp	ip, #5
 2215 0ac4 940604E0 		mul	r4, r4, r6
 2216 0ac8 0460A0E1 		mov	r6, r4
 2217              	.LVL313:
 2218 0acc 1C408DE5 		str	r4, [sp, #28]
 2219              	.LVL314:
 2220 0ad0 E601000A 		beq	.L277
 2221 0ad4 184092E5 		ldr	r4, [r2, #24]
 2222              	.LVL315:
 2223 0ad8 06005CE3 		cmp	ip, #6
 2224 0adc 940604E0 		mul	r4, r4, r6
 2225 0ae0 0460A0E1 		mov	r6, r4
 2226              	.LVL316:
 2227 0ae4 1C408DE5 		str	r4, [sp, #28]
 2228              	.LVL317:
 2229 0ae8 E001000A 		beq	.L277
 2230 0aec 1C4092E5 		ldr	r4, [r2, #28]
 2231              	.LVL318:
 2232 0af0 07005CE3 		cmp	ip, #7
 2233 0af4 940604E0 		mul	r4, r4, r6
 2234 0af8 0470A0E1 		mov	r7, r4
 2235 0afc 1C408DE5 		str	r4, [sp, #28]
 2236              	.LVL319:
 2237 0b00 DA01000A 		beq	.L277
 2238 0b04 206092E5 		ldr	r6, [r2, #32]
  65:../src/tensorflow_lite/src/tensorflow/lite/micro/kernels/gather.cpp ****     batch_size *= input_dims->data[i];
 2239              		.loc 1 65 0
 2240 0b08 0840A0E3 		mov	r4, #8
 2241              	.LVL320:
  66:../src/tensorflow_lite/src/tensorflow/lite/micro/kernels/gather.cpp ****   }
 2242              		.loc 1 66 0
 2243 0b0c 960706E0 		mul	r6, r6, r7
 2244 0b10 1C608DE5 		str	r6, [sp, #28]
 2245              	.LVL321:
 2246              	.L232:
 2247 0b14 0C0051E1 		cmp	r1, ip
 2248 0b18 3200000A 		beq	.L229
 2249              	.LVL322:
 2250              	.L231:
 2251 0b1c 0CA041E0 		sub	r10, r1, ip
 2252 0b20 016041E2 		sub	r6, r1, #1
 2253 0b24 04704AE2 		sub	r7, r10, #4
 2254 0b28 0C6046E0 		sub	r6, r6, ip
 2255 0b2c 2771A0E1 		lsr	r7, r7, #2
 2256 0b30 020056E3 		cmp	r6, #2
 2257 0b34 018087E2 		add	r8, r7, #1
 2258 0b38 0871A0E1 		lsl	r7, r8, #2
 2259 0b3c 1500009A 		bls	.L234
 2260 0b40 01C08CE2 		add	ip, ip, #1
 2261              	.LBE286:
  64:../src/tensorflow_lite/src/tensorflow/lite/micro/kernels/gather.cpp ****   for (int i = 0; i < batch_dims; ++i) {
 2262              		.loc 1 64 0
 2263 0b44 5100C0F2 		vmov.i32	q8, #1  @ v4si
 2264 0b48 0CC182E0 		add	ip, r2, ip, lsl #2
 2265 0b4c 0060A0E3 		mov	r6, #0
 2266              	.L123:
 2267 0b50 016086E2 		add	r6, r6, #1
 2268              	.LBB287:
  66:../src/tensorflow_lite/src/tensorflow/lite/micro/kernels/gather.cpp ****   }
 2269              		.loc 1 66 0
 2270 0b54 DF2A6CF4 		vld1.64	{d18-d19}, [ip:64]
 2271 0b58 060058E1 		cmp	r8, r6
 2272 0b5c 10C08CE2 		add	ip, ip, #16
 2273 0b60 F20960F2 		vmul.i32	q8, q8, q9
 2274 0b64 F9FFFF8A 		bhi	.L123
 2275 0b68 1C609DE5 		ldr	r6, [sp, #28]
 2276 0b6c 07005AE1 		cmp	r10, r7
 2277 0b70 074084E0 		add	r4, r4, r7
 2278 0b74 5020C0F2 		vmov.i32	q9, #0  @ v4si
 2279 0b78 E248F0F2 		vext.32	q10, q8, q9, #2
 2280 0b7c F40960F2 		vmul.i32	q8, q8, q10
 2281 0b80 E224F0F2 		vext.32	q9, q8, q9, #1
 2282 0b84 F20960F2 		vmul.i32	q8, q8, q9
 2283 0b88 90CB10EE 		vmov.32	ip, d16[0]
 2284 0b8c 9C060CE0 		mul	ip, ip, r6
 2285 0b90 1CC08DE5 		str	ip, [sp, #28]
 2286 0b94 1300000A 		beq	.L229
 2287              	.L234:
 2288              	.LVL323:
 2289 0b98 046182E0 		add	r6, r2, r4, lsl #2
 2290 0b9c 1C709DE5 		ldr	r7, [sp, #28]
  65:../src/tensorflow_lite/src/tensorflow/lite/micro/kernels/gather.cpp ****     batch_size *= input_dims->data[i];
 2291              		.loc 1 65 0
 2292 0ba0 01C084E2 		add	ip, r4, #1
  66:../src/tensorflow_lite/src/tensorflow/lite/micro/kernels/gather.cpp ****   }
 2293              		.loc 1 66 0
 2294 0ba4 046096E5 		ldr	r6, [r6, #4]
  65:../src/tensorflow_lite/src/tensorflow/lite/micro/kernels/gather.cpp ****     batch_size *= input_dims->data[i];
 2295              		.loc 1 65 0
 2296 0ba8 0C0051E1 		cmp	r1, ip
  66:../src/tensorflow_lite/src/tensorflow/lite/micro/kernels/gather.cpp ****   }
 2297              		.loc 1 66 0
 2298 0bac 960706E0 		mul	r6, r6, r7
 2299 0bb0 1C608DE5 		str	r6, [sp, #28]
 2300              	.LVL324:
  65:../src/tensorflow_lite/src/tensorflow/lite/micro/kernels/gather.cpp ****     batch_size *= input_dims->data[i];
 2301              		.loc 1 65 0
 2302 0bb4 0B0000DA 		ble	.L229
  66:../src/tensorflow_lite/src/tensorflow/lite/micro/kernels/gather.cpp ****   }
 2303              		.loc 1 66 0
 2304 0bb8 0CC182E0 		add	ip, r2, ip, lsl #2
 2305              	.LVL325:
  65:../src/tensorflow_lite/src/tensorflow/lite/micro/kernels/gather.cpp ****     batch_size *= input_dims->data[i];
 2306              		.loc 1 65 0
 2307 0bbc 024084E2 		add	r4, r4, #2
 2308              	.LVL326:
 2309 0bc0 040051E1 		cmp	r1, r4
  66:../src/tensorflow_lite/src/tensorflow/lite/micro/kernels/gather.cpp ****   }
 2310              		.loc 1 66 0
 2311 0bc4 04C09CE5 		ldr	ip, [ip, #4]
 2312 0bc8 9C0601E0 		mul	r1, ip, r6
 2313              	.LVL327:
 2314 0bcc 1C108DE5 		str	r1, [sp, #28]
 2315              	.LVL328:
  65:../src/tensorflow_lite/src/tensorflow/lite/micro/kernels/gather.cpp ****     batch_size *= input_dims->data[i];
 2316              		.loc 1 65 0
 2317 0bd0 040000DA 		ble	.L229
  66:../src/tensorflow_lite/src/tensorflow/lite/micro/kernels/gather.cpp ****   }
 2318              		.loc 1 66 0
 2319 0bd4 044182E0 		add	r4, r2, r4, lsl #2
 2320              	.LVL329:
 2321 0bd8 01C0A0E1 		mov	ip, r1
 2322 0bdc 041094E5 		ldr	r1, [r4, #4]
 2323              	.LVL330:
 2324 0be0 910C01E0 		mul	r1, r1, ip
 2325 0be4 1C108DE5 		str	r1, [sp, #28]
 2326              	.LVL331:
 2327              	.L229:
 2328              	.LBE287:
 2329              	.LBB288:
  69:../src/tensorflow_lite/src/tensorflow/lite/micro/kernels/gather.cpp ****     outer_size *= input_dims->data[i];
 2330              		.loc 1 69 0
 2331 0be8 030050E1 		cmp	r0, r3
 2332 0bec D10100DA 		ble	.L419
 2333 0bf0 01B083E2 		add	fp, r3, #1
 2334 0bf4 034040E0 		sub	r4, r0, r3
 2335 0bf8 0B6182E0 		add	r6, r2, fp, lsl #2
 2336 0bfc 56C1A0E7 		sbfx	ip, r6, #2, #1
 2337 0c00 03C00CE2 		and	ip, ip, #3
 2338 0c04 04005CE1 		cmp	ip, r4
 2339 0c08 04C0A021 		movcs	ip, r4
 2340 0c0c 080054E3 		cmp	r4, #8
 2341 0c10 04C0A091 		movls	ip, r4
 2342 0c14 00005CE3 		cmp	ip, #0
 2343 0c18 AF01000A 		beq	.L243
  70:../src/tensorflow_lite/src/tensorflow/lite/micro/kernels/gather.cpp ****   }
 2344              		.loc 1 70 0
 2345 0c1c 037182E0 		add	r7, r2, r3, lsl #2
 2346 0c20 01005CE3 		cmp	ip, #1
  69:../src/tensorflow_lite/src/tensorflow/lite/micro/kernels/gather.cpp ****     outer_size *= input_dims->data[i];
 2347              		.loc 1 69 0
 2348 0c24 0B10A0E1 		mov	r1, fp
  70:../src/tensorflow_lite/src/tensorflow/lite/micro/kernels/gather.cpp ****   }
 2349              		.loc 1 70 0
 2350 0c28 047097E5 		ldr	r7, [r7, #4]
 2351 0c2c 10708DE5 		str	r7, [sp, #16]
 2352              	.LVL332:
 2353 0c30 3200000A 		beq	.L129
 2354 0c34 046096E5 		ldr	r6, [r6, #4]
 2355 0c38 02005CE3 		cmp	ip, #2
  69:../src/tensorflow_lite/src/tensorflow/lite/micro/kernels/gather.cpp ****     outer_size *= input_dims->data[i];
 2356              		.loc 1 69 0
 2357 0c3c 021083E2 		add	r1, r3, #2
 2358              	.LVL333:
  70:../src/tensorflow_lite/src/tensorflow/lite/micro/kernels/gather.cpp ****   }
 2359              		.loc 1 70 0
 2360 0c40 960706E0 		mul	r6, r6, r7
 2361 0c44 0670A0E1 		mov	r7, r6
 2362              	.LVL334:
 2363 0c48 10608DE5 		str	r6, [sp, #16]
 2364              	.LVL335:
 2365 0c4c 2B00000A 		beq	.L129
 2366 0c50 011182E0 		add	r1, r2, r1, lsl #2
 2367              	.LVL336:
 2368 0c54 03005CE3 		cmp	ip, #3
 2369 0c58 046091E5 		ldr	r6, [r1, #4]
 2370              	.LVL337:
  69:../src/tensorflow_lite/src/tensorflow/lite/micro/kernels/gather.cpp ****     outer_size *= input_dims->data[i];
 2371              		.loc 1 69 0
 2372 0c5c 031083E2 		add	r1, r3, #3
  70:../src/tensorflow_lite/src/tensorflow/lite/micro/kernels/gather.cpp ****   }
 2373              		.loc 1 70 0
 2374 0c60 960706E0 		mul	r6, r6, r7
 2375 0c64 0670A0E1 		mov	r7, r6
 2376              	.LVL338:
 2377 0c68 10608DE5 		str	r6, [sp, #16]
 2378              	.LVL339:
 2379 0c6c 2300000A 		beq	.L129
 2380 0c70 011182E0 		add	r1, r2, r1, lsl #2
 2381              	.LVL340:
 2382 0c74 04005CE3 		cmp	ip, #4
 2383 0c78 046091E5 		ldr	r6, [r1, #4]
 2384              	.LVL341:
  69:../src/tensorflow_lite/src/tensorflow/lite/micro/kernels/gather.cpp ****     outer_size *= input_dims->data[i];
 2385              		.loc 1 69 0
 2386 0c7c 041083E2 		add	r1, r3, #4
  70:../src/tensorflow_lite/src/tensorflow/lite/micro/kernels/gather.cpp ****   }
 2387              		.loc 1 70 0
 2388 0c80 960706E0 		mul	r6, r6, r7
 2389 0c84 0670A0E1 		mov	r7, r6
 2390              	.LVL342:
 2391 0c88 10608DE5 		str	r6, [sp, #16]
 2392              	.LVL343:
 2393 0c8c 1B00000A 		beq	.L129
 2394 0c90 011182E0 		add	r1, r2, r1, lsl #2
 2395              	.LVL344:
 2396 0c94 05005CE3 		cmp	ip, #5
 2397 0c98 046091E5 		ldr	r6, [r1, #4]
 2398              	.LVL345:
  69:../src/tensorflow_lite/src/tensorflow/lite/micro/kernels/gather.cpp ****     outer_size *= input_dims->data[i];
 2399              		.loc 1 69 0
 2400 0c9c 051083E2 		add	r1, r3, #5
  70:../src/tensorflow_lite/src/tensorflow/lite/micro/kernels/gather.cpp ****   }
 2401              		.loc 1 70 0
 2402 0ca0 960706E0 		mul	r6, r6, r7
 2403 0ca4 0670A0E1 		mov	r7, r6
 2404              	.LVL346:
 2405 0ca8 10608DE5 		str	r6, [sp, #16]
 2406              	.LVL347:
 2407 0cac 1300000A 		beq	.L129
 2408 0cb0 011182E0 		add	r1, r2, r1, lsl #2
 2409              	.LVL348:
 2410 0cb4 06005CE3 		cmp	ip, #6
 2411 0cb8 046091E5 		ldr	r6, [r1, #4]
 2412              	.LVL349:
  69:../src/tensorflow_lite/src/tensorflow/lite/micro/kernels/gather.cpp ****     outer_size *= input_dims->data[i];
 2413              		.loc 1 69 0
 2414 0cbc 061083E2 		add	r1, r3, #6
  70:../src/tensorflow_lite/src/tensorflow/lite/micro/kernels/gather.cpp ****   }
 2415              		.loc 1 70 0
 2416 0cc0 960706E0 		mul	r6, r6, r7
 2417 0cc4 0670A0E1 		mov	r7, r6
 2418              	.LVL350:
 2419 0cc8 10608DE5 		str	r6, [sp, #16]
 2420              	.LVL351:
 2421 0ccc 0B00000A 		beq	.L129
 2422 0cd0 011182E0 		add	r1, r2, r1, lsl #2
 2423              	.LVL352:
 2424 0cd4 07005CE3 		cmp	ip, #7
 2425 0cd8 046091E5 		ldr	r6, [r1, #4]
 2426              	.LVL353:
  69:../src/tensorflow_lite/src/tensorflow/lite/micro/kernels/gather.cpp ****     outer_size *= input_dims->data[i];
 2427              		.loc 1 69 0
 2428 0cdc 071083E2 		add	r1, r3, #7
  70:../src/tensorflow_lite/src/tensorflow/lite/micro/kernels/gather.cpp ****   }
 2429              		.loc 1 70 0
 2430 0ce0 960706E0 		mul	r6, r6, r7
 2431 0ce4 10608DE5 		str	r6, [sp, #16]
 2432              	.LVL354:
 2433 0ce8 0670A0E1 		mov	r7, r6
 2434              	.LVL355:
 2435 0cec 01618210 		addne	r6, r2, r1, lsl #2
 2436              	.LVL356:
  69:../src/tensorflow_lite/src/tensorflow/lite/micro/kernels/gather.cpp ****     outer_size *= input_dims->data[i];
 2437              		.loc 1 69 0
 2438 0cf0 08108312 		addne	r1, r3, #8
 2439              	.LVL357:
  70:../src/tensorflow_lite/src/tensorflow/lite/micro/kernels/gather.cpp ****   }
 2440              		.loc 1 70 0
 2441 0cf4 04609615 		ldrne	r6, [r6, #4]
 2442 0cf8 96070610 		mulne	r6, r6, r7
 2443 0cfc 10608D15 		strne	r6, [sp, #16]
 2444              	.LVL358:
 2445              	.L129:
 2446 0d00 0C0054E1 		cmp	r4, ip
 2447 0d04 3000000A 		beq	.L120
 2448              	.LVL359:
 2449              	.L128:
 2450 0d08 0C7044E0 		sub	r7, r4, ip
 2451 0d0c 014044E2 		sub	r4, r4, #1
 2452 0d10 046047E2 		sub	r6, r7, #4
 2453 0d14 0C4044E0 		sub	r4, r4, ip
 2454 0d18 2661A0E1 		lsr	r6, r6, #2
 2455 0d1c 020054E3 		cmp	r4, #2
 2456 0d20 016086E2 		add	r6, r6, #1
 2457 0d24 0681A0E1 		lsl	r8, r6, #2
 2458 0d28 1500009A 		bls	.L131
 2459 0d2c 0CC08BE0 		add	ip, fp, ip
  69:../src/tensorflow_lite/src/tensorflow/lite/micro/kernels/gather.cpp ****     outer_size *= input_dims->data[i];
 2460              		.loc 1 69 0
 2461 0d30 5100C0F2 		vmov.i32	q8, #1  @ v4si
 2462 0d34 0CC182E0 		add	ip, r2, ip, lsl #2
 2463 0d38 0040A0E3 		mov	r4, #0
 2464              	.L133:
 2465 0d3c 014084E2 		add	r4, r4, #1
  70:../src/tensorflow_lite/src/tensorflow/lite/micro/kernels/gather.cpp ****   }
 2466              		.loc 1 70 0
 2467 0d40 DF2A6CF4 		vld1.64	{d18-d19}, [ip:64]
 2468 0d44 040056E1 		cmp	r6, r4
 2469 0d48 10C08CE2 		add	ip, ip, #16
 2470 0d4c F20960F2 		vmul.i32	q8, q8, q9
 2471 0d50 F9FFFF8A 		bhi	.L133
 2472 0d54 10409DE5 		ldr	r4, [sp, #16]
 2473 0d58 080057E1 		cmp	r7, r8
 2474 0d5c 081081E0 		add	r1, r1, r8
 2475 0d60 5020C0F2 		vmov.i32	q9, #0  @ v4si
 2476 0d64 E248F0F2 		vext.32	q10, q8, q9, #2
 2477 0d68 F40960F2 		vmul.i32	q8, q8, q10
 2478 0d6c E224F0F2 		vext.32	q9, q8, q9, #1
 2479 0d70 F20960F2 		vmul.i32	q8, q8, q9
 2480 0d74 90CB10EE 		vmov.32	ip, d16[0]
 2481 0d78 9C040CE0 		mul	ip, ip, r4
 2482 0d7c 10C08DE5 		str	ip, [sp, #16]
 2483 0d80 1100000A 		beq	.L120
 2484              	.L131:
 2485              	.LVL360:
 2486 0d84 014182E0 		add	r4, r2, r1, lsl #2
 2487 0d88 10609DE5 		ldr	r6, [sp, #16]
  69:../src/tensorflow_lite/src/tensorflow/lite/micro/kernels/gather.cpp ****     outer_size *= input_dims->data[i];
 2488              		.loc 1 69 0
 2489 0d8c 01C081E2 		add	ip, r1, #1
  70:../src/tensorflow_lite/src/tensorflow/lite/micro/kernels/gather.cpp ****   }
 2490              		.loc 1 70 0
 2491 0d90 044094E5 		ldr	r4, [r4, #4]
  69:../src/tensorflow_lite/src/tensorflow/lite/micro/kernels/gather.cpp ****     outer_size *= input_dims->data[i];
 2492              		.loc 1 69 0
 2493 0d94 0C0050E1 		cmp	r0, ip
  70:../src/tensorflow_lite/src/tensorflow/lite/micro/kernels/gather.cpp ****   }
 2494              		.loc 1 70 0
 2495 0d98 940604E0 		mul	r4, r4, r6
 2496 0d9c 10408DE5 		str	r4, [sp, #16]
 2497              	.LVL361:
  69:../src/tensorflow_lite/src/tensorflow/lite/micro/kernels/gather.cpp ****     outer_size *= input_dims->data[i];
 2498              		.loc 1 69 0
 2499 0da0 090000DA 		ble	.L120
  70:../src/tensorflow_lite/src/tensorflow/lite/micro/kernels/gather.cpp ****   }
 2500              		.loc 1 70 0
 2501 0da4 0CC182E0 		add	ip, r2, ip, lsl #2
 2502              	.LVL362:
  69:../src/tensorflow_lite/src/tensorflow/lite/micro/kernels/gather.cpp ****     outer_size *= input_dims->data[i];
 2503              		.loc 1 69 0
 2504 0da8 021081E2 		add	r1, r1, #2
 2505              	.LVL363:
 2506 0dac 010050E1 		cmp	r0, r1
  70:../src/tensorflow_lite/src/tensorflow/lite/micro/kernels/gather.cpp ****   }
 2507              		.loc 1 70 0
 2508 0db0 04C09CE5 		ldr	ip, [ip, #4]
 2509 0db4 9C040CE0 		mul	ip, ip, r4
 2510 0db8 10C08DE5 		str	ip, [sp, #16]
 2511              	.LVL364:
  69:../src/tensorflow_lite/src/tensorflow/lite/micro/kernels/gather.cpp ****     outer_size *= input_dims->data[i];
 2512              		.loc 1 69 0
  70:../src/tensorflow_lite/src/tensorflow/lite/micro/kernels/gather.cpp ****   }
 2513              		.loc 1 70 0
 2514 0dbc 011182C0 		addgt	r1, r2, r1, lsl #2
 2515              	.LVL365:
 2516 0dc0 041091C5 		ldrgt	r1, [r1, #4]
 2517 0dc4 910C01C0 		mulgt	r1, r1, ip
 2518 0dc8 10108DC5 		strgt	r1, [sp, #16]
 2519              	.LVL366:
 2520              	.L120:
 2521              	.LBE288:
 2522              	.LBB289:
  73:../src/tensorflow_lite/src/tensorflow/lite/micro/kernels/gather.cpp ****     inner_size *= input_dims->data[i];
 2523              		.loc 1 73 0
 2524 0dcc 011080E2 		add	r1, r0, #1
 2525              	.LVL367:
 2526 0dd0 010055E1 		cmp	r5, r1
 2527 0dd4 550100DA 		ble	.L420
 2528 0dd8 027080E2 		add	r7, r0, #2
 2529 0ddc 016045E2 		sub	r6, r5, #1
 2530 0de0 078182E0 		add	r8, r2, r7, lsl #2
 2531 0de4 006046E0 		sub	r6, r6, r0
 2532 0de8 58C1A0E7 		sbfx	ip, r8, #2, #1
 2533 0dec 03C00CE2 		and	ip, ip, #3
 2534 0df0 06005CE1 		cmp	ip, r6
 2535 0df4 06C0A021 		movcs	ip, r6
 2536 0df8 080056E3 		cmp	r6, #8
 2537 0dfc 06C0A091 		movls	ip, r6
 2538 0e00 00005CE3 		cmp	ip, #0
 2539 0e04 3201000A 		beq	.L245
  74:../src/tensorflow_lite/src/tensorflow/lite/micro/kernels/gather.cpp ****   }
 2540              		.loc 1 74 0
 2541 0e08 014182E0 		add	r4, r2, r1, lsl #2
 2542 0e0c 01005CE3 		cmp	ip, #1
  73:../src/tensorflow_lite/src/tensorflow/lite/micro/kernels/gather.cpp ****     inner_size *= input_dims->data[i];
 2543              		.loc 1 73 0
 2544 0e10 0710A0E1 		mov	r1, r7
 2545              	.LVL368:
  74:../src/tensorflow_lite/src/tensorflow/lite/micro/kernels/gather.cpp ****   }
 2546              		.loc 1 74 0
 2547 0e14 04A094E5 		ldr	r10, [r4, #4]
 2548              	.LVL369:
 2549 0e18 2500000A 		beq	.L142
 2550 0e1c 044098E5 		ldr	r4, [r8, #4]
 2551 0e20 02005CE3 		cmp	ip, #2
  73:../src/tensorflow_lite/src/tensorflow/lite/micro/kernels/gather.cpp ****     inner_size *= input_dims->data[i];
 2552              		.loc 1 73 0
 2553 0e24 031080E2 		add	r1, r0, #3
 2554              	.LVL370:
  74:../src/tensorflow_lite/src/tensorflow/lite/micro/kernels/gather.cpp ****   }
 2555              		.loc 1 74 0
 2556 0e28 940A0AE0 		mul	r10, r4, r10
 2557              	.LVL371:
 2558 0e2c 2000000A 		beq	.L142
 2559 0e30 011182E0 		add	r1, r2, r1, lsl #2
 2560              	.LVL372:
 2561 0e34 03005CE3 		cmp	ip, #3
 2562 0e38 044091E5 		ldr	r4, [r1, #4]
  73:../src/tensorflow_lite/src/tensorflow/lite/micro/kernels/gather.cpp ****     inner_size *= input_dims->data[i];
 2563              		.loc 1 73 0
 2564 0e3c 041080E2 		add	r1, r0, #4
  74:../src/tensorflow_lite/src/tensorflow/lite/micro/kernels/gather.cpp ****   }
 2565              		.loc 1 74 0
 2566 0e40 940A0AE0 		mul	r10, r4, r10
 2567              	.LVL373:
 2568 0e44 1A00000A 		beq	.L142
 2569 0e48 011182E0 		add	r1, r2, r1, lsl #2
 2570              	.LVL374:
 2571 0e4c 04005CE3 		cmp	ip, #4
 2572 0e50 044091E5 		ldr	r4, [r1, #4]
  73:../src/tensorflow_lite/src/tensorflow/lite/micro/kernels/gather.cpp ****     inner_size *= input_dims->data[i];
 2573              		.loc 1 73 0
 2574 0e54 051080E2 		add	r1, r0, #5
  74:../src/tensorflow_lite/src/tensorflow/lite/micro/kernels/gather.cpp ****   }
 2575              		.loc 1 74 0
 2576 0e58 940A0AE0 		mul	r10, r4, r10
 2577              	.LVL375:
 2578 0e5c 1400000A 		beq	.L142
 2579 0e60 011182E0 		add	r1, r2, r1, lsl #2
 2580              	.LVL376:
 2581 0e64 05005CE3 		cmp	ip, #5
 2582 0e68 044091E5 		ldr	r4, [r1, #4]
  73:../src/tensorflow_lite/src/tensorflow/lite/micro/kernels/gather.cpp ****     inner_size *= input_dims->data[i];
 2583              		.loc 1 73 0
 2584 0e6c 061080E2 		add	r1, r0, #6
  74:../src/tensorflow_lite/src/tensorflow/lite/micro/kernels/gather.cpp ****   }
 2585              		.loc 1 74 0
 2586 0e70 940A0AE0 		mul	r10, r4, r10
 2587              	.LVL377:
 2588 0e74 0E00000A 		beq	.L142
 2589 0e78 011182E0 		add	r1, r2, r1, lsl #2
 2590              	.LVL378:
 2591 0e7c 06005CE3 		cmp	ip, #6
 2592 0e80 044091E5 		ldr	r4, [r1, #4]
  73:../src/tensorflow_lite/src/tensorflow/lite/micro/kernels/gather.cpp ****     inner_size *= input_dims->data[i];
 2593              		.loc 1 73 0
 2594 0e84 071080E2 		add	r1, r0, #7
  74:../src/tensorflow_lite/src/tensorflow/lite/micro/kernels/gather.cpp ****   }
 2595              		.loc 1 74 0
 2596 0e88 940A0AE0 		mul	r10, r4, r10
 2597              	.LVL379:
 2598 0e8c 0800000A 		beq	.L142
 2599 0e90 011182E0 		add	r1, r2, r1, lsl #2
 2600              	.LVL380:
 2601 0e94 07005CE3 		cmp	ip, #7
 2602 0e98 044091E5 		ldr	r4, [r1, #4]
  73:../src/tensorflow_lite/src/tensorflow/lite/micro/kernels/gather.cpp ****     inner_size *= input_dims->data[i];
 2603              		.loc 1 73 0
 2604 0e9c 081080E2 		add	r1, r0, #8
  74:../src/tensorflow_lite/src/tensorflow/lite/micro/kernels/gather.cpp ****   }
 2605              		.loc 1 74 0
 2606 0ea0 940A0AE0 		mul	r10, r4, r10
 2607              	.LVL381:
 2608 0ea4 01418210 		addne	r4, r2, r1, lsl #2
  73:../src/tensorflow_lite/src/tensorflow/lite/micro/kernels/gather.cpp ****     inner_size *= input_dims->data[i];
 2609              		.loc 1 73 0
 2610 0ea8 09108012 		addne	r1, r0, #9
 2611              	.LVL382:
  74:../src/tensorflow_lite/src/tensorflow/lite/micro/kernels/gather.cpp ****   }
 2612              		.loc 1 74 0
 2613 0eac 04409415 		ldrne	r4, [r4, #4]
 2614 0eb0 940A0A10 		mulne	r10, r4, r10
 2615              	.LVL383:
 2616              	.L142:
 2617 0eb4 06005CE1 		cmp	ip, r6
 2618 0eb8 2B00000A 		beq	.L150
 2619              	.LVL384:
 2620              	.L141:
 2621 0ebc 0C6046E0 		sub	r6, r6, ip
 2622 0ec0 000045E0 		sub	r0, r5, r0
 2623              	.LVL385:
 2624 0ec4 020040E2 		sub	r0, r0, #2
 2625 0ec8 044046E2 		sub	r4, r6, #4
 2626 0ecc 0C0040E0 		sub	r0, r0, ip
 2627 0ed0 2441A0E1 		lsr	r4, r4, #2
 2628 0ed4 020050E3 		cmp	r0, #2
 2629 0ed8 014084E2 		add	r4, r4, #1
 2630 0edc 0481A0E1 		lsl	r8, r4, #2
 2631 0ee0 1300009A 		bls	.L144
 2632 0ee4 07008CE0 		add	r0, ip, r7
  73:../src/tensorflow_lite/src/tensorflow/lite/micro/kernels/gather.cpp ****     inner_size *= input_dims->data[i];
 2633              		.loc 1 73 0
 2634 0ee8 5100C0F2 		vmov.i32	q8, #1  @ v4si
 2635 0eec 000182E0 		add	r0, r2, r0, lsl #2
 2636 0ef0 00C0A0E3 		mov	ip, #0
 2637              	.L146:
 2638 0ef4 01C08CE2 		add	ip, ip, #1
  74:../src/tensorflow_lite/src/tensorflow/lite/micro/kernels/gather.cpp ****   }
 2639              		.loc 1 74 0
 2640 0ef8 DF2A60F4 		vld1.64	{d18-d19}, [r0:64]
 2641 0efc 0C0054E1 		cmp	r4, ip
 2642 0f00 100080E2 		add	r0, r0, #16
 2643 0f04 F20960F2 		vmul.i32	q8, q8, q9
 2644 0f08 F9FFFF8A 		bhi	.L146
 2645 0f0c 080056E1 		cmp	r6, r8
 2646 0f10 081081E0 		add	r1, r1, r8
 2647 0f14 5020C0F2 		vmov.i32	q9, #0  @ v4si
 2648 0f18 E248F0F2 		vext.32	q10, q8, q9, #2
 2649 0f1c F40960F2 		vmul.i32	q8, q8, q10
 2650 0f20 E224F0F2 		vext.32	q9, q8, q9, #1
 2651 0f24 F20960F2 		vmul.i32	q8, q8, q9
 2652 0f28 900B10EE 		vmov.32	r0, d16[0]
 2653 0f2c 900A0AE0 		mul	r10, r0, r10
 2654 0f30 0D00000A 		beq	.L150
 2655              	.L144:
 2656              	.LVL386:
 2657 0f34 01C182E0 		add	ip, r2, r1, lsl #2
  73:../src/tensorflow_lite/src/tensorflow/lite/micro/kernels/gather.cpp ****     inner_size *= input_dims->data[i];
 2658              		.loc 1 73 0
 2659 0f38 010081E2 		add	r0, r1, #1
  74:../src/tensorflow_lite/src/tensorflow/lite/micro/kernels/gather.cpp ****   }
 2660              		.loc 1 74 0
 2661 0f3c 04C09CE5 		ldr	ip, [ip, #4]
  73:../src/tensorflow_lite/src/tensorflow/lite/micro/kernels/gather.cpp ****     inner_size *= input_dims->data[i];
 2662              		.loc 1 73 0
 2663 0f40 000055E1 		cmp	r5, r0
  74:../src/tensorflow_lite/src/tensorflow/lite/micro/kernels/gather.cpp ****   }
 2664              		.loc 1 74 0
 2665 0f44 9C0A0AE0 		mul	r10, ip, r10
 2666              	.LVL387:
  73:../src/tensorflow_lite/src/tensorflow/lite/micro/kernels/gather.cpp ****     inner_size *= input_dims->data[i];
 2667              		.loc 1 73 0
 2668 0f48 070000DA 		ble	.L150
  74:../src/tensorflow_lite/src/tensorflow/lite/micro/kernels/gather.cpp ****   }
 2669              		.loc 1 74 0
 2670 0f4c 000182E0 		add	r0, r2, r0, lsl #2
 2671              	.LVL388:
  73:../src/tensorflow_lite/src/tensorflow/lite/micro/kernels/gather.cpp ****     inner_size *= input_dims->data[i];
 2672              		.loc 1 73 0
 2673 0f50 021081E2 		add	r1, r1, #2
 2674              	.LVL389:
  74:../src/tensorflow_lite/src/tensorflow/lite/micro/kernels/gather.cpp ****   }
 2675              		.loc 1 74 0
 2676 0f54 040090E5 		ldr	r0, [r0, #4]
  73:../src/tensorflow_lite/src/tensorflow/lite/micro/kernels/gather.cpp ****     inner_size *= input_dims->data[i];
 2677              		.loc 1 73 0
 2678 0f58 050051E1 		cmp	r1, r5
  74:../src/tensorflow_lite/src/tensorflow/lite/micro/kernels/gather.cpp ****   }
 2679              		.loc 1 74 0
 2680 0f5c 900A0AE0 		mul	r10, r0, r10
 2681              	.LVL390:
  73:../src/tensorflow_lite/src/tensorflow/lite/micro/kernels/gather.cpp ****     inner_size *= input_dims->data[i];
 2682              		.loc 1 73 0
  74:../src/tensorflow_lite/src/tensorflow/lite/micro/kernels/gather.cpp ****   }
 2683              		.loc 1 74 0
 2684 0f60 011182B0 		addlt	r1, r2, r1, lsl #2
 2685              	.LVL391:
 2686 0f64 042091B5 		ldrlt	r2, [r1, #4]
 2687              	.LVL392:
 2688 0f68 920A0AB0 		mullt	r10, r2, r10
 2689              	.LVL393:
 2690              	.L150:
 2691              	.LBE289:
 2692              	.LBB290:
  77:../src/tensorflow_lite/src/tensorflow/lite/micro/kernels/gather.cpp ****     coord_size *= coords_dims->data[i];
 2693              		.loc 1 77 0
 2694 0f6c 04209DE5 		ldr	r2, [sp, #4]
 2695 0f70 030052E1 		cmp	r2, r3
 2696 0f74 F40000DA 		ble	.L421
 2697 0f78 01B083E2 		add	fp, r3, #1
 2698 0f7c 031042E0 		sub	r1, r2, r3
 2699 0f80 0B018EE0 		add	r0, lr, fp, lsl #2
 2700 0f84 5021A0E7 		sbfx	r2, r0, #2, #1
 2701 0f88 032002E2 		and	r2, r2, #3
 2702 0f8c 010052E1 		cmp	r2, r1
 2703 0f90 0120A021 		movcs	r2, r1
 2704 0f94 080051E3 		cmp	r1, #8
 2705 0f98 0120A091 		movls	r2, r1
 2706 0f9c 000052E3 		cmp	r2, #0
 2707 0fa0 C900000A 		beq	.L246
  78:../src/tensorflow_lite/src/tensorflow/lite/micro/kernels/gather.cpp ****   }
 2708              		.loc 1 78 0
 2709 0fa4 03C18EE0 		add	ip, lr, r3, lsl #2
 2710 0fa8 010052E3 		cmp	r2, #1
 2711 0fac 04809CE5 		ldr	r8, [ip, #4]
 2712              	.LVL394:
 2713 0fb0 E300000A 		beq	.L247
 2714 0fb4 04C090E5 		ldr	ip, [r0, #4]
 2715 0fb8 020052E3 		cmp	r2, #2
  77:../src/tensorflow_lite/src/tensorflow/lite/micro/kernels/gather.cpp ****     coord_size *= coords_dims->data[i];
 2716              		.loc 1 77 0
 2717 0fbc 020083E2 		add	r0, r3, #2
  78:../src/tensorflow_lite/src/tensorflow/lite/micro/kernels/gather.cpp ****   }
 2718              		.loc 1 78 0
 2719 0fc0 9C0808E0 		mul	r8, ip, r8
 2720              	.LVL395:
 2721 0fc4 AD00000A 		beq	.L253
 2722 0fc8 00018EE0 		add	r0, lr, r0, lsl #2
 2723              	.LVL396:
 2724 0fcc 030052E3 		cmp	r2, #3
 2725 0fd0 04C090E5 		ldr	ip, [r0, #4]
  77:../src/tensorflow_lite/src/tensorflow/lite/micro/kernels/gather.cpp ****     coord_size *= coords_dims->data[i];
 2726              		.loc 1 77 0
 2727 0fd4 030083E2 		add	r0, r3, #3
  78:../src/tensorflow_lite/src/tensorflow/lite/micro/kernels/gather.cpp ****   }
 2728              		.loc 1 78 0
 2729 0fd8 9C0808E0 		mul	r8, ip, r8
 2730              	.LVL397:
 2731 0fdc A700000A 		beq	.L253
 2732 0fe0 00018EE0 		add	r0, lr, r0, lsl #2
 2733              	.LVL398:
 2734 0fe4 040052E3 		cmp	r2, #4
 2735 0fe8 04C090E5 		ldr	ip, [r0, #4]
  77:../src/tensorflow_lite/src/tensorflow/lite/micro/kernels/gather.cpp ****     coord_size *= coords_dims->data[i];
 2736              		.loc 1 77 0
 2737 0fec 040083E2 		add	r0, r3, #4
  78:../src/tensorflow_lite/src/tensorflow/lite/micro/kernels/gather.cpp ****   }
 2738              		.loc 1 78 0
 2739 0ff0 9C0808E0 		mul	r8, ip, r8
 2740              	.LVL399:
 2741 0ff4 A100000A 		beq	.L253
 2742 0ff8 00018EE0 		add	r0, lr, r0, lsl #2
 2743              	.LVL400:
 2744 0ffc 050052E3 		cmp	r2, #5
 2745 1000 04C090E5 		ldr	ip, [r0, #4]
  77:../src/tensorflow_lite/src/tensorflow/lite/micro/kernels/gather.cpp ****     coord_size *= coords_dims->data[i];
 2746              		.loc 1 77 0
 2747 1004 050083E2 		add	r0, r3, #5
  78:../src/tensorflow_lite/src/tensorflow/lite/micro/kernels/gather.cpp ****   }
 2748              		.loc 1 78 0
 2749 1008 9C0808E0 		mul	r8, ip, r8
 2750              	.LVL401:
 2751 100c 9B00000A 		beq	.L253
 2752 1010 00018EE0 		add	r0, lr, r0, lsl #2
 2753              	.LVL402:
 2754 1014 060052E3 		cmp	r2, #6
 2755 1018 04C090E5 		ldr	ip, [r0, #4]
  77:../src/tensorflow_lite/src/tensorflow/lite/micro/kernels/gather.cpp ****     coord_size *= coords_dims->data[i];
 2756              		.loc 1 77 0
 2757 101c 060083E2 		add	r0, r3, #6
  78:../src/tensorflow_lite/src/tensorflow/lite/micro/kernels/gather.cpp ****   }
 2758              		.loc 1 78 0
 2759 1020 9C0808E0 		mul	r8, ip, r8
 2760              	.LVL403:
 2761 1024 9500000A 		beq	.L253
 2762 1028 00018EE0 		add	r0, lr, r0, lsl #2
 2763              	.LVL404:
 2764 102c 070052E3 		cmp	r2, #7
 2765 1030 04C090E5 		ldr	ip, [r0, #4]
  77:../src/tensorflow_lite/src/tensorflow/lite/micro/kernels/gather.cpp ****     coord_size *= coords_dims->data[i];
 2766              		.loc 1 77 0
 2767 1034 070083E2 		add	r0, r3, #7
  78:../src/tensorflow_lite/src/tensorflow/lite/micro/kernels/gather.cpp ****   }
 2768              		.loc 1 78 0
 2769 1038 9C0808E0 		mul	r8, ip, r8
 2770              	.LVL405:
 2771 103c 8F00000A 		beq	.L253
 2772 1040 00018EE0 		add	r0, lr, r0, lsl #2
 2773              	.LVL406:
  77:../src/tensorflow_lite/src/tensorflow/lite/micro/kernels/gather.cpp ****     coord_size *= coords_dims->data[i];
 2774              		.loc 1 77 0
 2775 1044 083083E2 		add	r3, r3, #8
 2776              	.LVL407:
  78:../src/tensorflow_lite/src/tensorflow/lite/micro/kernels/gather.cpp ****   }
 2777              		.loc 1 78 0
 2778 1048 040090E5 		ldr	r0, [r0, #4]
 2779 104c 900808E0 		mul	r8, r0, r8
 2780              	.LVL408:
 2781              	.L155:
 2782 1050 010052E1 		cmp	r2, r1
 2783 1054 2B00000A 		beq	.L138
 2784              	.LVL409:
 2785              	.L154:
 2786 1058 024041E0 		sub	r4, r1, r2
 2787 105c 011041E2 		sub	r1, r1, #1
 2788 1060 04C044E2 		sub	ip, r4, #4
 2789 1064 020041E0 		sub	r0, r1, r2
 2790 1068 2C11A0E1 		lsr	r1, ip, #2
 2791 106c 020050E3 		cmp	r0, #2
 2792 1070 011081E2 		add	r1, r1, #1
 2793 1074 0101A0E1 		lsl	r0, r1, #2
 2794 1078 1300009A 		bls	.L157
 2795 107c 0B2082E0 		add	r2, r2, fp
  77:../src/tensorflow_lite/src/tensorflow/lite/micro/kernels/gather.cpp ****     coord_size *= coords_dims->data[i];
 2796              		.loc 1 77 0
 2797 1080 5140C0F2 		vmov.i32	q10, #1  @ v4si
 2798 1084 02218EE0 		add	r2, lr, r2, lsl #2
 2799 1088 00C0A0E3 		mov	ip, #0
 2800              	.L159:
 2801 108c 01C08CE2 		add	ip, ip, #1
  78:../src/tensorflow_lite/src/tensorflow/lite/micro/kernels/gather.cpp ****   }
 2802              		.loc 1 78 0
 2803 1090 DF0A62F4 		vld1.64	{d16-d17}, [r2:64]
 2804 1094 0C0051E1 		cmp	r1, ip
 2805 1098 102082E2 		add	r2, r2, #16
 2806 109c F04964F2 		vmul.i32	q10, q10, q8
 2807 10a0 F9FFFF8A 		bhi	.L159
 2808 10a4 040050E1 		cmp	r0, r4
 2809 10a8 003083E0 		add	r3, r3, r0
 2810 10ac 5000C0F2 		vmov.i32	q8, #0  @ v4si
 2811 10b0 E028F4F2 		vext.32	q9, q10, q8, #2
 2812 10b4 F42962F2 		vmul.i32	q9, q9, q10
 2813 10b8 E004F2F2 		vext.32	q8, q9, q8, #1
 2814 10bc F20960F2 		vmul.i32	q8, q8, q9
 2815 10c0 902B10EE 		vmov.32	r2, d16[0]
 2816 10c4 920808E0 		mul	r8, r2, r8
 2817 10c8 0E00000A 		beq	.L138
 2818              	.L157:
 2819              	.LVL410:
 2820 10cc 03118EE0 		add	r1, lr, r3, lsl #2
  77:../src/tensorflow_lite/src/tensorflow/lite/micro/kernels/gather.cpp ****     coord_size *= coords_dims->data[i];
 2821              		.loc 1 77 0
 2822 10d0 04009DE5 		ldr	r0, [sp, #4]
  78:../src/tensorflow_lite/src/tensorflow/lite/micro/kernels/gather.cpp ****   }
 2823              		.loc 1 78 0
 2824 10d4 041091E5 		ldr	r1, [r1, #4]
  77:../src/tensorflow_lite/src/tensorflow/lite/micro/kernels/gather.cpp ****     coord_size *= coords_dims->data[i];
 2825              		.loc 1 77 0
 2826 10d8 012083E2 		add	r2, r3, #1
 2827 10dc 020050E1 		cmp	r0, r2
  78:../src/tensorflow_lite/src/tensorflow/lite/micro/kernels/gather.cpp ****   }
 2828              		.loc 1 78 0
 2829 10e0 910808E0 		mul	r8, r1, r8
 2830              	.LVL411:
  77:../src/tensorflow_lite/src/tensorflow/lite/micro/kernels/gather.cpp ****     coord_size *= coords_dims->data[i];
 2831              		.loc 1 77 0
 2832 10e4 070000DA 		ble	.L138
  78:../src/tensorflow_lite/src/tensorflow/lite/micro/kernels/gather.cpp ****   }
 2833              		.loc 1 78 0
 2834 10e8 02218EE0 		add	r2, lr, r2, lsl #2
 2835              	.LVL412:
  77:../src/tensorflow_lite/src/tensorflow/lite/micro/kernels/gather.cpp ****     coord_size *= coords_dims->data[i];
 2836              		.loc 1 77 0
 2837 10ec 023083E2 		add	r3, r3, #2
 2838              	.LVL413:
  78:../src/tensorflow_lite/src/tensorflow/lite/micro/kernels/gather.cpp ****   }
 2839              		.loc 1 78 0
 2840 10f0 042092E5 		ldr	r2, [r2, #4]
  77:../src/tensorflow_lite/src/tensorflow/lite/micro/kernels/gather.cpp ****     coord_size *= coords_dims->data[i];
 2841              		.loc 1 77 0
 2842 10f4 030050E1 		cmp	r0, r3
  78:../src/tensorflow_lite/src/tensorflow/lite/micro/kernels/gather.cpp ****   }
 2843              		.loc 1 78 0
 2844 10f8 920808E0 		mul	r8, r2, r8
 2845              	.LVL414:
  77:../src/tensorflow_lite/src/tensorflow/lite/micro/kernels/gather.cpp ****     coord_size *= coords_dims->data[i];
 2846              		.loc 1 77 0
  78:../src/tensorflow_lite/src/tensorflow/lite/micro/kernels/gather.cpp ****   }
 2847              		.loc 1 78 0
 2848 10fc 03318EC0 		addgt	r3, lr, r3, lsl #2
 2849              	.LVL415:
 2850 1100 043093C5 		ldrgt	r3, [r3, #4]
 2851 1104 930808C0 		mulgt	r8, r3, r8
 2852              	.LVL416:
 2853              	.L138:
 2854              	.LBE290:
 2855              	.LBB291:
  81:../src/tensorflow_lite/src/tensorflow/lite/micro/kernels/gather.cpp ****     for (int outer = 0; outer < outer_size; ++outer) {
 2856              		.loc 1 81 0
 2857 1108 1C309DE5 		ldr	r3, [sp, #28]
 2858 110c 000053E3 		cmp	r3, #0
 2859 1110 D3FBFFDA 		ble	.L151
 2860 1114 10209DE5 		ldr	r2, [sp, #16]
 2861 1118 0A51A0E1 		lsl	r5, r10, #2
 2862              	.LVL417:
 2863 111c 0C109DE5 		ldr	r1, [sp, #12]
 2864 1120 0231A0E1 		lsl	r3, r2, #2
 2865 1124 990202E0 		mul	r2, r9, r2
 2866 1128 20108DE5 		str	r1, [sp, #32]
 2867 112c 9A0303E0 		mul	r3, r10, r3
 2868 1130 30208DE5 		str	r2, [sp, #48]
 2869 1134 0821A0E1 		lsl	r2, r8, #2
 2870 1138 34208DE5 		str	r2, [sp, #52]
 2871 113c 0020A0E3 		mov	r2, #0
 2872 1140 24208DE5 		str	r2, [sp, #36]
 2873 1144 980303E0 		mul	r3, r8, r3
 2874 1148 28208DE5 		str	r2, [sp, #40]
 2875 114c 08209DE5 		ldr	r2, [sp, #8]
 2876 1150 2C308DE5 		str	r3, [sp, #44]
 2877 1154 14208DE5 		str	r2, [sp, #20]
 2878 1158 980502E0 		mul	r2, r8, r5
 2879 115c 18208DE5 		str	r2, [sp, #24]
 2880              	.LVL418:
 2881              	.L164:
 2882              	.LBB292:
  82:../src/tensorflow_lite/src/tensorflow/lite/micro/kernels/gather.cpp ****       for (int coord = 0; coord < coord_size; ++coord) {
 2883              		.loc 1 82 0
 2884 1160 10309DE5 		ldr	r3, [sp, #16]
 2885 1164 000053E3 		cmp	r3, #0
 2886 1168 2D0000DA 		ble	.L166
 2887 116c 20309DE5 		ldr	r3, [sp, #32]
 2888 1170 24709DE5 		ldr	r7, [sp, #36]
 2889 1174 04308DE5 		str	r3, [sp, #4]
 2890 1178 0030A0E3 		mov	r3, #0
 2891 117c 0C308DE5 		str	r3, [sp, #12]
 2892              	.LVL419:
 2893              	.L163:
 2894              	.LBB293:
  83:../src/tensorflow_lite/src/tensorflow/lite/micro/kernels/gather.cpp ****         TFLITE_DCHECK_GE(coords_data[coord], 0);
 2895              		.loc 1 83 0
 2896 1180 000058E3 		cmp	r8, #0
 2897 1184 1B0000DA 		ble	.L169
  84:../src/tensorflow_lite/src/tensorflow/lite/micro/kernels/gather.cpp ****         TFLITE_DCHECK_LT(coords_data[coord], axis_size);
 2898              		.loc 1 84 0
 2899 1188 08309DE5 		ldr	r3, [sp, #8]
 2900 118c 003093E5 		ldr	r3, [r3]
 2901 1190 000053E3 		cmp	r3, #0
 2902 1194 F0FDFFBA 		blt	.L112
  85:../src/tensorflow_lite/src/tensorflow/lite/micro/kernels/gather.cpp ****         std::memcpy(output_data +
 2903              		.loc 1 85 0
 2904 1198 030059E1 		cmp	r9, r3
 2905 119c EEFDFFDA 		ble	.L112
 2906 11a0 48009DE9 		ldmib	sp, {r3, r6}
 2907 11a4 0040A0E3 		mov	r4, #0
 2908 11a8 14B09DE5 		ldr	fp, [sp, #20]
 2909 11ac 050000EA 		b	.L168
 2910              	.LVL420:
 2911              	.L392:
  84:../src/tensorflow_lite/src/tensorflow/lite/micro/kernels/gather.cpp ****         TFLITE_DCHECK_LT(coords_data[coord], axis_size);
 2912              		.loc 1 84 0
 2913 11b0 0420B6E5 		ldr	r2, [r6, #4]!
 2914 11b4 000052E3 		cmp	r2, #0
 2915 11b8 E7FDFFBA 		blt	.L112
  85:../src/tensorflow_lite/src/tensorflow/lite/micro/kernels/gather.cpp ****         std::memcpy(output_data +
 2916              		.loc 1 85 0
 2917 11bc 090052E1 		cmp	r2, r9
 2918 11c0 053083E0 		add	r3, r3, r5
 2919 11c4 E4FDFFAA 		bge	.L112
 2920              	.LVL421:
 2921              	.L168:
  90:../src/tensorflow_lite/src/tensorflow/lite/micro/kernels/gather.cpp ****                                      inner_size,
 2922              		.loc 1 90 0
 2923 11c8 04109BE4 		ldr	r1, [fp], #4
  86:../src/tensorflow_lite/src/tensorflow/lite/micro/kernels/gather.cpp ****                         (((batch * outer_size) + outer) * coord_size + coord) *
 2924              		.loc 1 86 0
 2925 11cc 0300A0E1 		mov	r0, r3
 2926 11d0 00309DE5 		ldr	r3, [sp]
  83:../src/tensorflow_lite/src/tensorflow/lite/micro/kernels/gather.cpp ****         TFLITE_DCHECK_GE(coords_data[coord], 0);
 2927              		.loc 1 83 0
 2928 11d4 014084E2 		add	r4, r4, #1
 2929              	.LVL422:
  86:../src/tensorflow_lite/src/tensorflow/lite/micro/kernels/gather.cpp ****                         (((batch * outer_size) + outer) * coord_size + coord) *
 2930              		.loc 1 86 0
 2931 11d8 0520A0E1 		mov	r2, r5
  89:../src/tensorflow_lite/src/tensorflow/lite/micro/kernels/gather.cpp ****                                   coords_data[batch * coord_size + coord]) *
 2932              		.loc 1 89 0
 2933 11dc 071081E0 		add	r1, r1, r7
  90:../src/tensorflow_lite/src/tensorflow/lite/micro/kernels/gather.cpp ****                                      inner_size,
 2934              		.loc 1 90 0
 2935 11e0 9A0101E0 		mul	r1, r10, r1
  86:../src/tensorflow_lite/src/tensorflow/lite/micro/kernels/gather.cpp ****                         (((batch * outer_size) + outer) * coord_size + coord) *
 2936              		.loc 1 86 0
 2937 11e4 011183E0 		add	r1, r3, r1, lsl #2
 2938 11e8 FEFFFFEB 		bl	memcpy
 2939              	.LVL423:
  83:../src/tensorflow_lite/src/tensorflow/lite/micro/kernels/gather.cpp ****         TFLITE_DCHECK_GE(coords_data[coord], 0);
 2940              		.loc 1 83 0
 2941 11ec 080054E1 		cmp	r4, r8
  86:../src/tensorflow_lite/src/tensorflow/lite/micro/kernels/gather.cpp ****                         (((batch * outer_size) + outer) * coord_size + coord) *
 2942              		.loc 1 86 0
 2943 11f0 0030A0E1 		mov	r3, r0
 2944              	.LVL424:
  83:../src/tensorflow_lite/src/tensorflow/lite/micro/kernels/gather.cpp ****         TFLITE_DCHECK_GE(coords_data[coord], 0);
 2945              		.loc 1 83 0
 2946 11f4 EDFFFF1A 		bne	.L392
 2947              	.LVL425:
 2948              	.L169:
 2949 11f8 04209DE5 		ldr	r2, [sp, #4]
 2950 11fc 097087E0 		add	r7, r7, r9
 2951 1200 18109DE5 		ldr	r1, [sp, #24]
 2952              	.LBE293:
  82:../src/tensorflow_lite/src/tensorflow/lite/micro/kernels/gather.cpp ****       for (int coord = 0; coord < coord_size; ++coord) {
 2953              		.loc 1 82 0
 2954 1204 0C309DE5 		ldr	r3, [sp, #12]
 2955 1208 012082E0 		add	r2, r2, r1
 2956 120c 04208DE5 		str	r2, [sp, #4]
 2957 1210 013083E2 		add	r3, r3, #1
 2958 1214 10209DE5 		ldr	r2, [sp, #16]
 2959 1218 0C308DE5 		str	r3, [sp, #12]
 2960              	.LVL426:
 2961 121c 020053E1 		cmp	r3, r2
 2962 1220 D6FFFF1A 		bne	.L163
 2963              	.LVL427:
 2964              	.L166:
 2965 1224 20209DE5 		ldr	r2, [sp, #32]
 2966 1228 2C109DE5 		ldr	r1, [sp, #44]
 2967              	.LBE292:
  81:../src/tensorflow_lite/src/tensorflow/lite/micro/kernels/gather.cpp ****     for (int outer = 0; outer < outer_size; ++outer) {
 2968              		.loc 1 81 0
 2969 122c 28309DE5 		ldr	r3, [sp, #40]
 2970 1230 012082E0 		add	r2, r2, r1
 2971 1234 20208DE5 		str	r2, [sp, #32]
 2972 1238 013083E2 		add	r3, r3, #1
 2973 123c 1C209DE5 		ldr	r2, [sp, #28]
 2974 1240 28308DE5 		str	r3, [sp, #40]
 2975              	.LVL428:
 2976 1244 020053E1 		cmp	r3, r2
 2977 1248 24309DE5 		ldr	r3, [sp, #36]
 2978              	.LVL429:
 2979 124c 30209DE5 		ldr	r2, [sp, #48]
 2980 1250 023083E0 		add	r3, r3, r2
 2981 1254 34209DE5 		ldr	r2, [sp, #52]
 2982 1258 24308DE5 		str	r3, [sp, #36]
 2983 125c 14309DE5 		ldr	r3, [sp, #20]
 2984 1260 023083E0 		add	r3, r3, r2
 2985 1264 14308DE5 		str	r3, [sp, #20]
 2986 1268 BCFFFF1A 		bne	.L164
 2987 126c 7CFBFFEA 		b	.L151
 2988              	.LVL430:
 2989              	.L277:
 2990              	.LBE291:
 2991              	.LBB294:
  65:../src/tensorflow_lite/src/tensorflow/lite/micro/kernels/gather.cpp ****     batch_size *= input_dims->data[i];
 2992              		.loc 1 65 0
 2993 1270 0C40A0E1 		mov	r4, ip
 2994 1274 26FEFFEA 		b	.L232
 2995              	.LVL431:
 2996              	.L286:
 2997              	.LBE294:
 2998              	.LBE301:
 2999              	.LBE308:
 3000              	.LBB309:
 3001              	.LBB264:
 3002              	.LBB256:
 3003 1278 0C50A0E1 		mov	r5, ip
 3004 127c E1FBFFEA 		b	.L237
 3005              	.LVL432:
 3006              	.L253:
 3007              	.LBE256:
 3008              	.LBE264:
 3009              	.LBE309:
 3010              	.LBB310:
 3011              	.LBB302:
 3012              	.LBB295:
  77:../src/tensorflow_lite/src/tensorflow/lite/micro/kernels/gather.cpp ****     coord_size *= coords_dims->data[i];
 3013              		.loc 1 77 0
 3014 1280 0030A0E1 		mov	r3, r0
 3015              	.LVL433:
 3016 1284 71FFFFEA 		b	.L155
 3017              	.LVL434:
 3018              	.L267:
 3019              	.LBE295:
 3020              	.LBE302:
 3021              	.LBE310:
 3022              	.LBB311:
 3023              	.LBB265:
 3024              	.LBB257:
 3025 1288 0030A0E1 		mov	r3, r0
 3026              	.LVL435:
 3027 128c 2CFDFFEA 		b	.L213
 3028              	.LVL436:
 3029              	.L418:
 3030 1290 00005CE3 		cmp	ip, #0
 3031              	.LBE257:
 3032              	.LBE265:
 3033              	.LBE311:
 3034              	.LBB312:
 3035              	.LBB303:
  62:../src/tensorflow_lite/src/tensorflow/lite/micro/kernels/gather.cpp **** 
 3036              		.loc 1 62 0
 3037 1294 0140A003 		moveq	r4, #1
 3038 1298 1C408D05 		streq	r4, [sp, #28]
 3039 129c 0C40A001 		moveq	r4, ip
 3040 12a0 1DFEFF0A 		beq	.L231
 3041 12a4 F0FDFFEA 		b	.L230
 3042              	.LVL437:
 3043              	.L412:
 3044 12a8 00005CE3 		cmp	ip, #0
 3045              	.LBE303:
 3046              	.LBE312:
 3047              	.LBB313:
 3048              	.LBB266:
 3049 12ac 0150A003 		moveq	r5, #1
 3050 12b0 18508D05 		streq	r5, [sp, #24]
 3051 12b4 0C50A001 		moveq	r5, ip
 3052 12b8 D4FBFF0A 		beq	.L236
 3053 12bc A7FBFFEA 		b	.L235
 3054              	.LVL438:
 3055              	.L410:
  43:../src/tensorflow_lite/src/tensorflow/lite/micro/kernels/gather.cpp ****   TFLITE_DCHECK_LT(axis, input_dims_size);
 3056              		.loc 1 43 0
 3057 12c0 0E0090E0 		adds	r0, r0, lr
 3058              	.LVL439:
 3059 12c4 7AFBFF5A 		bpl	.L172
 3060 12c8 A3FDFFEA 		b	.L112
 3061              	.LVL440:
 3062              	.L246:
 3063              	.LBE266:
 3064              	.LBE313:
 3065              	.LBB314:
 3066              	.LBB304:
 3067              	.LBB296:
  77:../src/tensorflow_lite/src/tensorflow/lite/micro/kernels/gather.cpp ****     coord_size *= coords_dims->data[i];
 3068              		.loc 1 77 0
 3069 12cc 0180A0E3 		mov	r8, #1
 3070 12d0 60FFFFEA 		b	.L154
 3071              	.LVL441:
 3072              	.L245:
 3073              	.LBE296:
 3074              	.LBB297:
  73:../src/tensorflow_lite/src/tensorflow/lite/micro/kernels/gather.cpp ****     inner_size *= input_dims->data[i];
 3075              		.loc 1 73 0
 3076 12d4 01A0A0E3 		mov	r10, #1
 3077 12d8 F7FEFFEA 		b	.L141
 3078              	.LVL442:
 3079              	.L243:
 3080              	.LBE297:
 3081              	.LBB298:
  69:../src/tensorflow_lite/src/tensorflow/lite/micro/kernels/gather.cpp ****     outer_size *= input_dims->data[i];
 3082              		.loc 1 69 0
 3083 12dc 0160A0E3 		mov	r6, #1
 3084 12e0 0310A0E1 		mov	r1, r3
 3085 12e4 10608DE5 		str	r6, [sp, #16]
 3086 12e8 86FEFFEA 		b	.L128
 3087              	.LVL443:
 3088              	.L417:
 3089              	.LBE298:
  54:../src/tensorflow_lite/src/tensorflow/lite/micro/kernels/gather.cpp ****   TFLITE_DCHECK_LT(batch_dims, input_dims_size);
 3090              		.loc 1 54 0
 3091 12ec 013093E0 		adds	r3, r3, r1
 3092              	.LVL444:
 3093 12f0 BAFDFF5A 		bpl	.L113
 3094 12f4 98FDFFEA 		b	.L112
 3095              	.LVL445:
 3096              	.L260:
 3097              	.LBE304:
 3098              	.LBE314:
 3099              	.LBB315:
 3100              	.LBB267:
 3101              	.LBB258:
  77:../src/tensorflow_lite/src/tensorflow/lite/micro/kernels/gather.cpp ****     coord_size *= coords_dims->data[i];
 3102              		.loc 1 77 0
 3103 12f8 0180A0E3 		mov	r8, #1
 3104 12fc 12FDFFEA 		b	.L212
 3105              	.LVL446:
 3106              	.L259:
 3107              	.LBE258:
 3108              	.LBB259:
  73:../src/tensorflow_lite/src/tensorflow/lite/micro/kernels/gather.cpp ****     inner_size *= input_dims->data[i];
 3109              		.loc 1 73 0
 3110 1300 0150A0E3 		mov	r5, #1
 3111 1304 A9FCFFEA 		b	.L200
 3112              	.LVL447:
 3113              	.L257:
 3114              	.LBE259:
 3115              	.LBB260:
  69:../src/tensorflow_lite/src/tensorflow/lite/micro/kernels/gather.cpp ****     outer_size *= input_dims->data[i];
 3116              		.loc 1 69 0
 3117 1308 0160A0E3 		mov	r6, #1
 3118 130c 0310A0E1 		mov	r1, r3
 3119 1310 0C608DE5 		str	r6, [sp, #12]
 3120 1314 38FCFFEA 		b	.L187
 3121              	.LVL448:
 3122              	.L411:
 3123              	.LBE260:
  54:../src/tensorflow_lite/src/tensorflow/lite/micro/kernels/gather.cpp ****   TFLITE_DCHECK_LT(batch_dims, input_dims_size);
 3124              		.loc 1 54 0
 3125 1318 013093E0 		adds	r3, r3, r1
 3126              	.LVL449:
 3127 131c 6CFBFF5A 		bpl	.L173
 3128 1320 8DFDFFEA 		b	.L112
 3129              	.LVL450:
 3130              	.L413:
 3131              	.LBB261:
  69:../src/tensorflow_lite/src/tensorflow/lite/micro/kernels/gather.cpp ****     outer_size *= input_dims->data[i];
 3132              		.loc 1 69 0
 3133 1324 0110A0E3 		mov	r1, #1
 3134 1328 0C108DE5 		str	r1, [sp, #12]
 3135 132c 63FCFFEA 		b	.L179
 3136              	.LVL451:
 3137              	.L420:
 3138              	.LBE261:
 3139              	.LBE267:
 3140              	.LBE315:
 3141              	.LBB316:
 3142              	.LBB305:
  72:../src/tensorflow_lite/src/tensorflow/lite/micro/kernels/gather.cpp ****   for (int i = axis + 1; i < input_dims_size; ++i) {
 3143              		.loc 1 72 0
 3144 1330 01A0A0E3 		mov	r10, #1
 3145 1334 0CFFFFEA 		b	.L150
 3146              	.LVL452:
 3147              	.L419:
 3148              	.LBB299:
  69:../src/tensorflow_lite/src/tensorflow/lite/micro/kernels/gather.cpp ****     outer_size *= input_dims->data[i];
 3149              		.loc 1 69 0
 3150 1338 0110A0E3 		mov	r1, #1
 3151 133c 10108DE5 		str	r1, [sp, #16]
 3152 1340 A1FEFFEA 		b	.L120
 3153              	.LVL453:
 3154              	.L247:
 3155              	.LBE299:
 3156              	.LBB300:
  77:../src/tensorflow_lite/src/tensorflow/lite/micro/kernels/gather.cpp ****     coord_size *= coords_dims->data[i];
 3157              		.loc 1 77 0
 3158 1344 0B30A0E1 		mov	r3, fp
 3159              	.LVL454:
 3160 1348 40FFFFEA 		b	.L155
 3161              	.LVL455:
 3162              	.L421:
 3163 134c 0180A0E3 		mov	r8, #1
 3164 1350 6CFFFFEA 		b	.L138
 3165              	.LVL456:
 3166              	.L415:
 3167              	.LBE300:
 3168              	.LBE305:
 3169              	.LBE316:
 3170              	.LBB317:
 3171              	.LBB268:
 3172              	.LBB262:
 3173 1354 0180A0E3 		mov	r8, #1
 3174 1358 27FDFFEA 		b	.L197
 3175              	.LVL457:
 3176              	.L414:
 3177              	.LBE262:
  72:../src/tensorflow_lite/src/tensorflow/lite/micro/kernels/gather.cpp ****   for (int i = axis + 1; i < input_dims_size; ++i) {
 3178              		.loc 1 72 0
 3179 135c 0150A0E3 		mov	r5, #1
 3180 1360 BEFCFFEA 		b	.L209
 3181              	.LVL458:
 3182              	.L261:
 3183              	.LBB263:
  77:../src/tensorflow_lite/src/tensorflow/lite/micro/kernels/gather.cpp ****     coord_size *= coords_dims->data[i];
 3184              		.loc 1 77 0
 3185 1364 0B30A0E1 		mov	r3, fp
 3186              	.LVL459:
 3187 1368 F5FCFFEA 		b	.L213
 3188              	.LVL460:
 3189              	.L174:
 3190              	.LBE263:
  62:../src/tensorflow_lite/src/tensorflow/lite/micro/kernels/gather.cpp **** 
 3191              		.loc 1 62 0
 3192 136c 001182E0 		add	r1, r2, r0, lsl #2
  64:../src/tensorflow_lite/src/tensorflow/lite/micro/kernels/gather.cpp ****   for (int i = 0; i < batch_dims; ++i) {
 3193              		.loc 1 64 0
 3194 1370 01C0A0E3 		mov	ip, #1
 3195 1374 18C08DE5 		str	ip, [sp, #24]
  62:../src/tensorflow_lite/src/tensorflow/lite/micro/kernels/gather.cpp **** 
 3196              		.loc 1 62 0
 3197 1378 04A091E5 		ldr	r10, [r1, #4]
 3198              	.LVL461:
 3199 137c D6FBFFEA 		b	.L240
 3200              	.LVL462:
 3201              	.L114:
 3202              	.LBE268:
 3203              	.LBE317:
 3204              	.LBB318:
 3205              	.LBB306:
 3206 1380 001182E0 		add	r1, r2, r0, lsl #2
  64:../src/tensorflow_lite/src/tensorflow/lite/micro/kernels/gather.cpp ****   for (int i = 0; i < batch_dims; ++i) {
 3207              		.loc 1 64 0
 3208 1384 01C0A0E3 		mov	ip, #1
 3209 1388 1CC08DE5 		str	ip, [sp, #28]
  62:../src/tensorflow_lite/src/tensorflow/lite/micro/kernels/gather.cpp **** 
 3210              		.loc 1 62 0
 3211 138c 049091E5 		ldr	r9, [r1, #4]
 3212              	.LVL463:
 3213 1390 14FEFFEA 		b	.L229
 3214              	.LBE306:
 3215              	.LBE318:
 3216              		.cfi_endproc
 3217              	.LFE1143:
 3218              		.fnend
 3220              		.section	.text._ZN6tflite15Register_GATHEREv,"ax",%progbits
 3221              		.align	2
 3222              		.global	_ZN6tflite15Register_GATHEREv
 3223              		.syntax unified
 3224              		.arm
 3225              		.fpu neon
 3227              	_ZN6tflite15Register_GATHEREv:
 3228              		.fnstart
 3229              	.LFB1144:
 209:../src/tensorflow_lite/src/tensorflow/lite/micro/kernels/gather.cpp **** }  // namespace
 210:../src/tensorflow_lite/src/tensorflow/lite/micro/kernels/gather.cpp **** 
 211:../src/tensorflow_lite/src/tensorflow/lite/micro/kernels/gather.cpp **** TfLiteRegistration Register_GATHER() {
 3230              		.loc 1 211 0
 3231              		.cfi_startproc
 3232              		@ args = 0, pretend = 0, frame = 0
 3233              		@ frame_needed = 0, uses_anonymous_args = 0
 3234              	.LVL464:
 212:../src/tensorflow_lite/src/tensorflow/lite/micro/kernels/gather.cpp ****   return {/*init=*/nullptr,
 213:../src/tensorflow_lite/src/tensorflow/lite/micro/kernels/gather.cpp ****           /*free=*/nullptr,
 214:../src/tensorflow_lite/src/tensorflow/lite/micro/kernels/gather.cpp ****           /*prepare=*/Prepare,
 215:../src/tensorflow_lite/src/tensorflow/lite/micro/kernels/gather.cpp ****           /*invoke=*/Eval,
 216:../src/tensorflow_lite/src/tensorflow/lite/micro/kernels/gather.cpp ****           /*profiling_string=*/nullptr,
 217:../src/tensorflow_lite/src/tensorflow/lite/micro/kernels/gather.cpp ****           /*builtin_code=*/0,
 218:../src/tensorflow_lite/src/tensorflow/lite/micro/kernels/gather.cpp ****           /*custom_name=*/nullptr,
 219:../src/tensorflow_lite/src/tensorflow/lite/micro/kernels/gather.cpp ****           /*version=*/0};
 3235              		.loc 1 219 0
 3236 0000 00C000E3 		movw	ip, #:lower16:.LANCHOR0
 211:../src/tensorflow_lite/src/tensorflow/lite/micro/kernels/gather.cpp ****   return {/*init=*/nullptr,
 3237              		.loc 1 211 0
 3238 0004 10402DE9 		push	{r4, lr}
 3239              		.cfi_def_cfa_offset 8
 3240              		.cfi_offset 4, -8
 3241              		.cfi_offset 14, -4
 3242              		.loc 1 219 0
 3243 0008 00C040E3 		movt	ip, #:upper16:.LANCHOR0
 211:../src/tensorflow_lite/src/tensorflow/lite/micro/kernels/gather.cpp ****   return {/*init=*/nullptr,
 3244              		.loc 1 211 0
 3245 000c 0040A0E1 		mov	r4, r0
 3246              		.loc 1 219 0
 3247 0010 00E0A0E1 		mov	lr, r0
 3248 0014 0F00BCE8 		ldmia	ip!, {r0, r1, r2, r3}
 3249              	.LVL465:
 3250 0018 0F00AEE8 		stmia	lr!, {r0, r1, r2, r3}
 3251 001c 0F009CE8 		ldm	ip, {r0, r1, r2, r3}
 3252 0020 0F008EE8 		stm	lr, {r0, r1, r2, r3}
 220:../src/tensorflow_lite/src/tensorflow/lite/micro/kernels/gather.cpp **** }
 3253              		.loc 1 220 0
 3254 0024 0400A0E1 		mov	r0, r4
 3255 0028 1080BDE8 		pop	{r4, pc}
 3256              		.cfi_endproc
 3257              	.LFE1144:
 3258              		.cantunwind
 3259              		.fnend
 3261              		.section	.rodata
 3262              		.align	2
 3263              		.set	.LANCHOR0,. + 0
 3264              	.LC0:
 3265 0000 00000000 		.word	0
 3266 0004 00000000 		.word	0
 3267 0008 00000000 		.word	_ZN6tflite12_GLOBAL__N_17PrepareEP13TfLiteContextP10TfLiteNode
 3268 000c 00000000 		.word	_ZN6tflite12_GLOBAL__N_14EvalEP13TfLiteContextP10TfLiteNode
 3269 0010 00000000 		.word	0
 3270 0014 00000000 		.word	0
 3271 0018 00000000 		.word	0
 3272 001c 00000000 		.word	0
 3273              		.section	.rodata._ZN6tflite12_GLOBAL__N_17PrepareEP13TfLiteContextP10TfLiteNode.str1.4,"aMS",%prog
 3274              		.align	2
 3275              	.LC1:
 3276 0000 2E2E2F73 		.ascii	"../src/tensorflow_lite/src/tensorflow/lite/micro/ke"
 3276      72632F74 
 3276      656E736F 
 3276      72666C6F 
 3276      775F6C69 
 3277 0033 726E656C 		.ascii	"rnels/gather.cpp\000"
 3277      732F6761 
 3277      74686572 
 3277      2E637070 
 3277      00
 3278              	.LC2:
 3279 0044 25733A25 		.ascii	"%s:%d %s != %s (%d != %d)\000"
 3279      64202573 
 3279      20213D20 
 3279      25732028 
 3279      25642021 
 3280 005e 0000     		.space	2
 3281              	.LC3:
 3282 0060 3200     		.ascii	"2\000"
 3283 0062 0000     		.space	2
 3284              	.LC4:
 3285 0064 4E756D49 		.ascii	"NumInputs(node)\000"
 3285      6E707574 
 3285      73286E6F 
 3285      64652900 
 3286              	.LC5:
 3287 0074 3100     		.ascii	"1\000"
 3288 0076 0000     		.space	2
 3289              	.LC6:
 3290 0078 4E756D4F 		.ascii	"NumOutputs(node)\000"
 3290      75747075 
 3290      7473286E 
 3290      6F646529 
 3290      00
 3291 0089 000000   		.space	3
 3292              	.LC7:
 3293 008c 506F7369 		.ascii	"Positions of type '%s' are not supported by gather."
 3293      74696F6E 
 3293      73206F66 
 3293      20747970 
 3293      65202725 
 3294 00bf 00       		.ascii	"\000"
 3295              	.LC8:
 3296 00c0 54797065 		.ascii	"Type '%s' is not supported by gather.\000"
 3296      20272573 
 3296      27206973 
 3296      206E6F74 
 3296      20737570 
 3297 00e6 0000     		.space	2
 3298              	.LC9:
 3299 00e8 25733A25 		.ascii	"%s:%d %s was not true.\000"
 3299      64202573 
 3299      20776173 
 3299      206E6F74 
 3299      20747275 
 3300 00ff 00       		.space	1
 3301              	.LC10:
 3302 0100 62617463 		.ascii	"batch_dims <= axis\000"
 3302      685F6469 
 3302      6D73203C 
 3302      3D206178 
 3302      697300
 3303 0113 00       		.space	1
 3304              	.LC11:
 3305 0114 62617463 		.ascii	"batch_dims <= NumDimensions(coords)\000"
 3305      685F6469 
 3305      6D73203C 
 3305      3D204E75 
 3305      6D44696D 
 3306              	.LC12:
 3307 0138 636F6F72 		.ascii	"coords->dims->data[i]\000"
 3307      64732D3E 
 3307      64696D73 
 3307      2D3E6461 
 3307      74615B69 
 3308 014e 0000     		.space	2
 3309              	.LC13:
 3310 0150 696E7075 		.ascii	"input->dims->data[i]\000"
 3310      742D3E64 
 3310      696D732D 
 3310      3E646174 
 3310      615B695D 
 3311 0165 000000   		.space	3
 3312              	.LC14:
 3313 0168 30203C3D 		.ascii	"0 <= axis && axis < NumDimensions(input)\000"
 3313      20617869 
 3313      73202626 
 3313      20617869 
 3313      73203C20 
 3314 0191 000000   		.space	3
 3315              	.LC15:
 3316 0194 30203C3D 		.ascii	"0 <= batch_dims && batch_dims < NumDimensions(input"
 3316      20626174 
 3316      63685F64 
 3316      696D7320 
 3316      26262062 
 3317 01c7 2900     		.ascii	")\000"
 3318              		.text
 3319              	.Letext0:
 3320              		.file 4 "c:\\program files (x86)\\gnu tools arm embedded\\6 2017-q2-update\\arm-none-eabi\\include
 3321              		.file 5 "c:\\program files (x86)\\gnu tools arm embedded\\6 2017-q2-update\\arm-none-eabi\\include
 3322              		.file 6 "c:\\program files (x86)\\gnu tools arm embedded\\6 2017-q2-update\\arm-none-eabi\\include
 3323              		.file 7 "c:\\program files (x86)\\gnu tools arm embedded\\6 2017-q2-update\\lib\\gcc\\arm-none-eab
 3324              		.file 8 "C:/Renesas/e2studio_2021_01_workspace_RZA2M_ANPR/ANPR_RZA2M_GR_MANGO/src/tensorflow_lite/
 3325              		.file 9 "C:/Renesas/e2studio_2021_01_workspace_RZA2M_ANPR/ANPR_RZA2M_GR_MANGO/src/tensorflow_lite/
 3326              		.file 10 "C:/Renesas/e2studio_2021_01_workspace_RZA2M_ANPR/ANPR_RZA2M_GR_MANGO/src/tensorflow_lite
 3327              		.file 11 "c:\\program files (x86)\\gnu tools arm embedded\\6 2017-q2-update\\arm-none-eabi\\includ
 3328              		.file 12 "c:\\program files (x86)\\gnu tools arm embedded\\6 2017-q2-update\\arm-none-eabi\\includ
 3329              		.file 13 "c:\\program files (x86)\\gnu tools arm embedded\\6 2017-q2-update\\arm-none-eabi\\includ
 3330              		.file 14 "c:\\program files (x86)\\gnu tools arm embedded\\6 2017-q2-update\\arm-none-eabi\\includ
 3331              		.file 15 "c:\\program files (x86)\\gnu tools arm embedded\\6 2017-q2-update\\arm-none-eabi\\includ
 3332              		.file 16 "c:\\program files (x86)\\gnu tools arm embedded\\6 2017-q2-update\\arm-none-eabi\\includ
 3333              		.file 17 "c:\\program files (x86)\\gnu tools arm embedded\\6 2017-q2-update\\arm-none-eabi\\includ
 3334              		.file 18 "c:\\program files (x86)\\gnu tools arm embedded\\6 2017-q2-update\\arm-none-eabi\\includ
 3335              		.file 19 "c:\\program files (x86)\\gnu tools arm embedded\\6 2017-q2-update\\arm-none-eabi\\includ
 3336              		.file 20 "c:\\program files (x86)\\gnu tools arm embedded\\6 2017-q2-update\\arm-none-eabi\\includ
 3337              		.file 21 "c:\\program files (x86)\\gnu tools arm embedded\\6 2017-q2-update\\arm-none-eabi\\includ
 3338              		.file 22 "c:\\program files (x86)\\gnu tools arm embedded\\6 2017-q2-update\\arm-none-eabi\\includ
 3339              		.file 23 "c:\\program files (x86)\\gnu tools arm embedded\\6 2017-q2-update\\arm-none-eabi\\includ
 3340              		.file 24 "c:\\program files (x86)\\gnu tools arm embedded\\6 2017-q2-update\\arm-none-eabi\\includ
 3341              		.file 25 "c:\\program files (x86)\\gnu tools arm embedded\\6 2017-q2-update\\arm-none-eabi\\includ
 3342              		.file 26 "c:\\program files (x86)\\gnu tools arm embedded\\6 2017-q2-update\\arm-none-eabi\\includ
 3343              		.file 27 "c:\\program files (x86)\\gnu tools arm embedded\\6 2017-q2-update\\arm-none-eabi\\includ
 3344              		.file 28 "c:\\program files (x86)\\gnu tools arm embedded\\6 2017-q2-update\\arm-none-eabi\\includ
 3345              		.file 29 "c:\\program files (x86)\\gnu tools arm embedded\\6 2017-q2-update\\arm-none-eabi\\includ
 3346              		.file 30 "c:\\program files (x86)\\gnu tools arm embedded\\6 2017-q2-update\\arm-none-eabi\\includ
 3347              		.file 31 "c:\\program files (x86)\\gnu tools arm embedded\\6 2017-q2-update\\arm-none-eabi\\includ
 3348              		.file 32 "C:/Renesas/e2studio_2021_01_workspace_RZA2M_ANPR/ANPR_RZA2M_GR_MANGO/src/tensorflow_lite
 3349              		.file 33 "c:\\program files (x86)\\gnu tools arm embedded\\6 2017-q2-update\\arm-none-eabi\\includ
 3350              		.file 34 "<built-in>"