   1              		.cpu cortex-a9
   2              		.eabi_attribute 28, 1
   3              		.eabi_attribute 20, 1
   4              		.eabi_attribute 21, 1
   5              		.eabi_attribute 23, 3
   6              		.eabi_attribute 24, 1
   7              		.eabi_attribute 25, 1
   8              		.eabi_attribute 26, 1
   9              		.eabi_attribute 30, 2
  10              		.eabi_attribute 34, 0
  11              		.eabi_attribute 18, 4
  12              		.file	"pack.cpp"
  13              		.text
  14              	.Ltext0:
  15              		.cfi_sections	.debug_frame
  16              		.section	.text._ZN6tflite3ops5micro4pack12_GLOBAL__N_14EvalEP13TfLiteContextP10TfLiteNode,"ax",%pr
  17              		.align	2
  18              		.syntax unified
  19              		.arm
  20              		.fpu neon
  22              	_ZN6tflite3ops5micro4pack12_GLOBAL__N_14EvalEP13TfLiteContextP10TfLiteNode:
  23              		.fnstart
  24              	.LFB903:
  25              		.file 1 "../src/tensorflow_lite/src/tensorflow/lite/micro/kernels/pack.cpp"
   1:../src/tensorflow_lite/src/tensorflow/lite/micro/kernels/pack.cpp **** /* Copyright 2019 The TensorFlow Authors. All Rights Reserved.
   2:../src/tensorflow_lite/src/tensorflow/lite/micro/kernels/pack.cpp **** 
   3:../src/tensorflow_lite/src/tensorflow/lite/micro/kernels/pack.cpp **** Licensed under the Apache License, Version 2.0 (the "License");
   4:../src/tensorflow_lite/src/tensorflow/lite/micro/kernels/pack.cpp **** you may not use this file except in compliance with the License.
   5:../src/tensorflow_lite/src/tensorflow/lite/micro/kernels/pack.cpp **** You may obtain a copy of the License at
   6:../src/tensorflow_lite/src/tensorflow/lite/micro/kernels/pack.cpp **** 
   7:../src/tensorflow_lite/src/tensorflow/lite/micro/kernels/pack.cpp ****     http://www.apache.org/licenses/LICENSE-2.0
   8:../src/tensorflow_lite/src/tensorflow/lite/micro/kernels/pack.cpp **** 
   9:../src/tensorflow_lite/src/tensorflow/lite/micro/kernels/pack.cpp **** Unless required by applicable law or agreed to in writing, software
  10:../src/tensorflow_lite/src/tensorflow/lite/micro/kernels/pack.cpp **** distributed under the License is distributed on an "AS IS" BASIS,
  11:../src/tensorflow_lite/src/tensorflow/lite/micro/kernels/pack.cpp **** WITHOUT WARRANTIES OR CONDITIONS OF ANY KIND, either express or implied.
  12:../src/tensorflow_lite/src/tensorflow/lite/micro/kernels/pack.cpp **** See the License for the specific language governing permissions and
  13:../src/tensorflow_lite/src/tensorflow/lite/micro/kernels/pack.cpp **** limitations under the License.
  14:../src/tensorflow_lite/src/tensorflow/lite/micro/kernels/pack.cpp **** ==============================================================================*/
  15:../src/tensorflow_lite/src/tensorflow/lite/micro/kernels/pack.cpp **** 
  16:../src/tensorflow_lite/src/tensorflow/lite/micro/kernels/pack.cpp **** #include "tensorflow/lite/c/builtin_op_data.h"
  17:../src/tensorflow_lite/src/tensorflow/lite/micro/kernels/pack.cpp **** #include "tensorflow/lite/c/common.h"
  18:../src/tensorflow_lite/src/tensorflow/lite/micro/kernels/pack.cpp **** #include "tensorflow/lite/kernels/internal/tensor_ctypes.h"
  19:../src/tensorflow_lite/src/tensorflow/lite/micro/kernels/pack.cpp **** #include "tensorflow/lite/micro/kernels/kernel_util.h"
  20:../src/tensorflow_lite/src/tensorflow/lite/micro/kernels/pack.cpp **** 
  21:../src/tensorflow_lite/src/tensorflow/lite/micro/kernels/pack.cpp **** namespace tflite {
  22:../src/tensorflow_lite/src/tensorflow/lite/micro/kernels/pack.cpp **** namespace ops {
  23:../src/tensorflow_lite/src/tensorflow/lite/micro/kernels/pack.cpp **** namespace micro {
  24:../src/tensorflow_lite/src/tensorflow/lite/micro/kernels/pack.cpp **** namespace pack {
  25:../src/tensorflow_lite/src/tensorflow/lite/micro/kernels/pack.cpp **** namespace {
  26:../src/tensorflow_lite/src/tensorflow/lite/micro/kernels/pack.cpp **** 
  27:../src/tensorflow_lite/src/tensorflow/lite/micro/kernels/pack.cpp **** constexpr int kOutputTensor = 0;
  28:../src/tensorflow_lite/src/tensorflow/lite/micro/kernels/pack.cpp **** 
  29:../src/tensorflow_lite/src/tensorflow/lite/micro/kernels/pack.cpp **** template <typename T>
  30:../src/tensorflow_lite/src/tensorflow/lite/micro/kernels/pack.cpp **** TfLiteStatus PackImpl(TfLiteContext* context, TfLiteNode* node,
  31:../src/tensorflow_lite/src/tensorflow/lite/micro/kernels/pack.cpp ****                       TfLiteEvalTensor* output, int values_count, int axis) {
  32:../src/tensorflow_lite/src/tensorflow/lite/micro/kernels/pack.cpp ****   const TfLiteEvalTensor* input0 =
  33:../src/tensorflow_lite/src/tensorflow/lite/micro/kernels/pack.cpp ****       tflite::micro::GetEvalInput(context, node, 0);
  34:../src/tensorflow_lite/src/tensorflow/lite/micro/kernels/pack.cpp **** 
  35:../src/tensorflow_lite/src/tensorflow/lite/micro/kernels/pack.cpp ****   const int dimensions = output->dims->size;
  36:../src/tensorflow_lite/src/tensorflow/lite/micro/kernels/pack.cpp ****   const TfLiteIntArray* input_dims = input0->dims;
  37:../src/tensorflow_lite/src/tensorflow/lite/micro/kernels/pack.cpp ****   const TfLiteIntArray* output_dims = output->dims;
  38:../src/tensorflow_lite/src/tensorflow/lite/micro/kernels/pack.cpp **** 
  39:../src/tensorflow_lite/src/tensorflow/lite/micro/kernels/pack.cpp ****   if (axis < 0) {
  40:../src/tensorflow_lite/src/tensorflow/lite/micro/kernels/pack.cpp ****     axis += dimensions;
  41:../src/tensorflow_lite/src/tensorflow/lite/micro/kernels/pack.cpp ****   }
  42:../src/tensorflow_lite/src/tensorflow/lite/micro/kernels/pack.cpp **** 
  43:../src/tensorflow_lite/src/tensorflow/lite/micro/kernels/pack.cpp ****   int outer_size = 1;
  44:../src/tensorflow_lite/src/tensorflow/lite/micro/kernels/pack.cpp ****   for (int i = 0; i < axis; ++i) {
  45:../src/tensorflow_lite/src/tensorflow/lite/micro/kernels/pack.cpp ****     outer_size *= output_dims->data[i];
  46:../src/tensorflow_lite/src/tensorflow/lite/micro/kernels/pack.cpp ****   }
  47:../src/tensorflow_lite/src/tensorflow/lite/micro/kernels/pack.cpp ****   int copy_size = 1;
  48:../src/tensorflow_lite/src/tensorflow/lite/micro/kernels/pack.cpp ****   for (int i = axis + 1; i < dimensions; ++i) {
  49:../src/tensorflow_lite/src/tensorflow/lite/micro/kernels/pack.cpp ****     copy_size *= output_dims->data[i];
  50:../src/tensorflow_lite/src/tensorflow/lite/micro/kernels/pack.cpp ****   }
  51:../src/tensorflow_lite/src/tensorflow/lite/micro/kernels/pack.cpp ****   int input_size = 1;
  52:../src/tensorflow_lite/src/tensorflow/lite/micro/kernels/pack.cpp ****   for (int i = 0; i < input_dims->size; ++i) {
  53:../src/tensorflow_lite/src/tensorflow/lite/micro/kernels/pack.cpp ****     input_size *= input_dims->data[i];
  54:../src/tensorflow_lite/src/tensorflow/lite/micro/kernels/pack.cpp ****   }
  55:../src/tensorflow_lite/src/tensorflow/lite/micro/kernels/pack.cpp ****   TFLITE_DCHECK_EQ(input_size, copy_size * outer_size);
  56:../src/tensorflow_lite/src/tensorflow/lite/micro/kernels/pack.cpp **** 
  57:../src/tensorflow_lite/src/tensorflow/lite/micro/kernels/pack.cpp ****   T* output_data = tflite::micro::GetTensorData<T>(output);
  58:../src/tensorflow_lite/src/tensorflow/lite/micro/kernels/pack.cpp **** 
  59:../src/tensorflow_lite/src/tensorflow/lite/micro/kernels/pack.cpp ****   for (int i = 0; i < values_count; ++i) {
  60:../src/tensorflow_lite/src/tensorflow/lite/micro/kernels/pack.cpp ****     const TfLiteEvalTensor* t = tflite::micro::GetEvalInput(context, node, i);
  61:../src/tensorflow_lite/src/tensorflow/lite/micro/kernels/pack.cpp ****     const T* input_data = tflite::micro::GetTensorData<T>(t);
  62:../src/tensorflow_lite/src/tensorflow/lite/micro/kernels/pack.cpp ****     for (int k = 0; k < outer_size; ++k) {
  63:../src/tensorflow_lite/src/tensorflow/lite/micro/kernels/pack.cpp ****       const T* input_ptr = input_data + copy_size * k;
  64:../src/tensorflow_lite/src/tensorflow/lite/micro/kernels/pack.cpp ****       int loc = k * values_count * copy_size + i * copy_size;
  65:../src/tensorflow_lite/src/tensorflow/lite/micro/kernels/pack.cpp ****       T* output_ptr = output_data + loc;
  66:../src/tensorflow_lite/src/tensorflow/lite/micro/kernels/pack.cpp ****       for (int j = 0; j < copy_size; ++j) output_ptr[j] = input_ptr[j];
  67:../src/tensorflow_lite/src/tensorflow/lite/micro/kernels/pack.cpp ****     }
  68:../src/tensorflow_lite/src/tensorflow/lite/micro/kernels/pack.cpp ****   }
  69:../src/tensorflow_lite/src/tensorflow/lite/micro/kernels/pack.cpp **** 
  70:../src/tensorflow_lite/src/tensorflow/lite/micro/kernels/pack.cpp ****   return kTfLiteOk;
  71:../src/tensorflow_lite/src/tensorflow/lite/micro/kernels/pack.cpp **** }
  72:../src/tensorflow_lite/src/tensorflow/lite/micro/kernels/pack.cpp **** 
  73:../src/tensorflow_lite/src/tensorflow/lite/micro/kernels/pack.cpp **** TfLiteStatus Eval(TfLiteContext* context, TfLiteNode* node) {
  26              		.loc 1 73 0
  27              		.cfi_startproc
  28              		@ args = 0, pretend = 0, frame = 48
  29              		@ frame_needed = 0, uses_anonymous_args = 0
  30              	.LVL0:
  31              	.LBB194:
  32              	.LBB195:
  33              		.file 2 "C:/Renesas/e2studio_2021_01_workspace_RZA2M_ANPR/ANPR_RZA2M_GR_MANGO/src/tensorflow_lite/
   1:C:/Renesas/e2studio_2021_01_workspace_RZA2M_ANPR/ANPR_RZA2M_GR_MANGO/src/tensorflow_lite/src/tensorflow/lite/micro/kernels\kernel_util.h **** /* Copyright 2020 The TensorFlow Authors. All Rights Reserved.
   2:C:/Renesas/e2studio_2021_01_workspace_RZA2M_ANPR/ANPR_RZA2M_GR_MANGO/src/tensorflow_lite/src/tensorflow/lite/micro/kernels\kernel_util.h **** 
   3:C:/Renesas/e2studio_2021_01_workspace_RZA2M_ANPR/ANPR_RZA2M_GR_MANGO/src/tensorflow_lite/src/tensorflow/lite/micro/kernels\kernel_util.h **** Licensed under the Apache License, Version 2.0 (the "License");
   4:C:/Renesas/e2studio_2021_01_workspace_RZA2M_ANPR/ANPR_RZA2M_GR_MANGO/src/tensorflow_lite/src/tensorflow/lite/micro/kernels\kernel_util.h **** you may not use this file except in compliance with the License.
   5:C:/Renesas/e2studio_2021_01_workspace_RZA2M_ANPR/ANPR_RZA2M_GR_MANGO/src/tensorflow_lite/src/tensorflow/lite/micro/kernels\kernel_util.h **** You may obtain a copy of the License at
   6:C:/Renesas/e2studio_2021_01_workspace_RZA2M_ANPR/ANPR_RZA2M_GR_MANGO/src/tensorflow_lite/src/tensorflow/lite/micro/kernels\kernel_util.h **** 
   7:C:/Renesas/e2studio_2021_01_workspace_RZA2M_ANPR/ANPR_RZA2M_GR_MANGO/src/tensorflow_lite/src/tensorflow/lite/micro/kernels\kernel_util.h ****     http://www.apache.org/licenses/LICENSE-2.0
   8:C:/Renesas/e2studio_2021_01_workspace_RZA2M_ANPR/ANPR_RZA2M_GR_MANGO/src/tensorflow_lite/src/tensorflow/lite/micro/kernels\kernel_util.h **** 
   9:C:/Renesas/e2studio_2021_01_workspace_RZA2M_ANPR/ANPR_RZA2M_GR_MANGO/src/tensorflow_lite/src/tensorflow/lite/micro/kernels\kernel_util.h **** Unless required by applicable law or agreed to in writing, software
  10:C:/Renesas/e2studio_2021_01_workspace_RZA2M_ANPR/ANPR_RZA2M_GR_MANGO/src/tensorflow_lite/src/tensorflow/lite/micro/kernels\kernel_util.h **** distributed under the License is distributed on an "AS IS" BASIS,
  11:C:/Renesas/e2studio_2021_01_workspace_RZA2M_ANPR/ANPR_RZA2M_GR_MANGO/src/tensorflow_lite/src/tensorflow/lite/micro/kernels\kernel_util.h **** WITHOUT WARRANTIES OR CONDITIONS OF ANY KIND, either express or implied.
  12:C:/Renesas/e2studio_2021_01_workspace_RZA2M_ANPR/ANPR_RZA2M_GR_MANGO/src/tensorflow_lite/src/tensorflow/lite/micro/kernels\kernel_util.h **** See the License for the specific language governing permissions and
  13:C:/Renesas/e2studio_2021_01_workspace_RZA2M_ANPR/ANPR_RZA2M_GR_MANGO/src/tensorflow_lite/src/tensorflow/lite/micro/kernels\kernel_util.h **** limitations under the License.
  14:C:/Renesas/e2studio_2021_01_workspace_RZA2M_ANPR/ANPR_RZA2M_GR_MANGO/src/tensorflow_lite/src/tensorflow/lite/micro/kernels\kernel_util.h **** ==============================================================================*/
  15:C:/Renesas/e2studio_2021_01_workspace_RZA2M_ANPR/ANPR_RZA2M_GR_MANGO/src/tensorflow_lite/src/tensorflow/lite/micro/kernels\kernel_util.h **** 
  16:C:/Renesas/e2studio_2021_01_workspace_RZA2M_ANPR/ANPR_RZA2M_GR_MANGO/src/tensorflow_lite/src/tensorflow/lite/micro/kernels\kernel_util.h **** #ifndef TENSORFLOW_LITE_MICRO_KERNELS_KERNEL_UTIL_H_
  17:C:/Renesas/e2studio_2021_01_workspace_RZA2M_ANPR/ANPR_RZA2M_GR_MANGO/src/tensorflow_lite/src/tensorflow/lite/micro/kernels\kernel_util.h **** #define TENSORFLOW_LITE_MICRO_KERNELS_KERNEL_UTIL_H_
  18:C:/Renesas/e2studio_2021_01_workspace_RZA2M_ANPR/ANPR_RZA2M_GR_MANGO/src/tensorflow_lite/src/tensorflow/lite/micro/kernels\kernel_util.h **** 
  19:C:/Renesas/e2studio_2021_01_workspace_RZA2M_ANPR/ANPR_RZA2M_GR_MANGO/src/tensorflow_lite/src/tensorflow/lite/micro/kernels\kernel_util.h **** #include <cstdint>
  20:C:/Renesas/e2studio_2021_01_workspace_RZA2M_ANPR/ANPR_RZA2M_GR_MANGO/src/tensorflow_lite/src/tensorflow/lite/micro/kernels\kernel_util.h **** 
  21:C:/Renesas/e2studio_2021_01_workspace_RZA2M_ANPR/ANPR_RZA2M_GR_MANGO/src/tensorflow_lite/src/tensorflow/lite/micro/kernels\kernel_util.h **** #include "tensorflow/lite/c/builtin_op_data.h"
  22:C:/Renesas/e2studio_2021_01_workspace_RZA2M_ANPR/ANPR_RZA2M_GR_MANGO/src/tensorflow_lite/src/tensorflow/lite/micro/kernels\kernel_util.h **** #include "tensorflow/lite/c/common.h"
  23:C:/Renesas/e2studio_2021_01_workspace_RZA2M_ANPR/ANPR_RZA2M_GR_MANGO/src/tensorflow_lite/src/tensorflow/lite/micro/kernels\kernel_util.h **** #include "tensorflow/lite/kernels/internal/compatibility.h"
  24:C:/Renesas/e2studio_2021_01_workspace_RZA2M_ANPR/ANPR_RZA2M_GR_MANGO/src/tensorflow_lite/src/tensorflow/lite/micro/kernels\kernel_util.h **** #include "tensorflow/lite/kernels/internal/types.h"
  25:C:/Renesas/e2studio_2021_01_workspace_RZA2M_ANPR/ANPR_RZA2M_GR_MANGO/src/tensorflow_lite/src/tensorflow/lite/micro/kernels\kernel_util.h **** 
  26:C:/Renesas/e2studio_2021_01_workspace_RZA2M_ANPR/ANPR_RZA2M_GR_MANGO/src/tensorflow_lite/src/tensorflow/lite/micro/kernels\kernel_util.h **** namespace tflite {
  27:C:/Renesas/e2studio_2021_01_workspace_RZA2M_ANPR/ANPR_RZA2M_GR_MANGO/src/tensorflow_lite/src/tensorflow/lite/micro/kernels\kernel_util.h **** namespace micro {
  28:C:/Renesas/e2studio_2021_01_workspace_RZA2M_ANPR/ANPR_RZA2M_GR_MANGO/src/tensorflow_lite/src/tensorflow/lite/micro/kernels\kernel_util.h **** 
  29:C:/Renesas/e2studio_2021_01_workspace_RZA2M_ANPR/ANPR_RZA2M_GR_MANGO/src/tensorflow_lite/src/tensorflow/lite/micro/kernels\kernel_util.h **** // Returns a mutable tensor for a given input index. is_variable must be checked
  30:C:/Renesas/e2studio_2021_01_workspace_RZA2M_ANPR/ANPR_RZA2M_GR_MANGO/src/tensorflow_lite/src/tensorflow/lite/micro/kernels\kernel_util.h **** // during prepare when the full TfLiteTensor is available.
  31:C:/Renesas/e2studio_2021_01_workspace_RZA2M_ANPR/ANPR_RZA2M_GR_MANGO/src/tensorflow_lite/src/tensorflow/lite/micro/kernels\kernel_util.h **** inline TfLiteEvalTensor* GetMutableEvalInput(const TfLiteContext* context,
  32:C:/Renesas/e2studio_2021_01_workspace_RZA2M_ANPR/ANPR_RZA2M_GR_MANGO/src/tensorflow_lite/src/tensorflow/lite/micro/kernels\kernel_util.h ****                                              const TfLiteNode* node,
  33:C:/Renesas/e2studio_2021_01_workspace_RZA2M_ANPR/ANPR_RZA2M_GR_MANGO/src/tensorflow_lite/src/tensorflow/lite/micro/kernels\kernel_util.h ****                                              int index) {
  34:C:/Renesas/e2studio_2021_01_workspace_RZA2M_ANPR/ANPR_RZA2M_GR_MANGO/src/tensorflow_lite/src/tensorflow/lite/micro/kernels\kernel_util.h ****   TFLITE_DCHECK(context != nullptr);
  35:C:/Renesas/e2studio_2021_01_workspace_RZA2M_ANPR/ANPR_RZA2M_GR_MANGO/src/tensorflow_lite/src/tensorflow/lite/micro/kernels\kernel_util.h ****   TFLITE_DCHECK(node != nullptr);
  36:C:/Renesas/e2studio_2021_01_workspace_RZA2M_ANPR/ANPR_RZA2M_GR_MANGO/src/tensorflow_lite/src/tensorflow/lite/micro/kernels\kernel_util.h ****   return context->GetEvalTensor(context, node->inputs->data[index]);
  37:C:/Renesas/e2studio_2021_01_workspace_RZA2M_ANPR/ANPR_RZA2M_GR_MANGO/src/tensorflow_lite/src/tensorflow/lite/micro/kernels\kernel_util.h **** }
  38:C:/Renesas/e2studio_2021_01_workspace_RZA2M_ANPR/ANPR_RZA2M_GR_MANGO/src/tensorflow_lite/src/tensorflow/lite/micro/kernels\kernel_util.h **** 
  39:C:/Renesas/e2studio_2021_01_workspace_RZA2M_ANPR/ANPR_RZA2M_GR_MANGO/src/tensorflow_lite/src/tensorflow/lite/micro/kernels\kernel_util.h **** // Returns the TfLiteEvalTensor struct for a given input index in a node.
  40:C:/Renesas/e2studio_2021_01_workspace_RZA2M_ANPR/ANPR_RZA2M_GR_MANGO/src/tensorflow_lite/src/tensorflow/lite/micro/kernels\kernel_util.h **** inline const TfLiteEvalTensor* GetEvalInput(const TfLiteContext* context,
  41:C:/Renesas/e2studio_2021_01_workspace_RZA2M_ANPR/ANPR_RZA2M_GR_MANGO/src/tensorflow_lite/src/tensorflow/lite/micro/kernels\kernel_util.h ****                                             const TfLiteNode* node, int index) {
  42:C:/Renesas/e2studio_2021_01_workspace_RZA2M_ANPR/ANPR_RZA2M_GR_MANGO/src/tensorflow_lite/src/tensorflow/lite/micro/kernels\kernel_util.h ****   return GetMutableEvalInput(context, node, index);
  43:C:/Renesas/e2studio_2021_01_workspace_RZA2M_ANPR/ANPR_RZA2M_GR_MANGO/src/tensorflow_lite/src/tensorflow/lite/micro/kernels\kernel_util.h **** }
  44:C:/Renesas/e2studio_2021_01_workspace_RZA2M_ANPR/ANPR_RZA2M_GR_MANGO/src/tensorflow_lite/src/tensorflow/lite/micro/kernels\kernel_util.h **** 
  45:C:/Renesas/e2studio_2021_01_workspace_RZA2M_ANPR/ANPR_RZA2M_GR_MANGO/src/tensorflow_lite/src/tensorflow/lite/micro/kernels\kernel_util.h **** // Returns the TfLiteEvalTensor struct for a given output index in a node.
  46:C:/Renesas/e2studio_2021_01_workspace_RZA2M_ANPR/ANPR_RZA2M_GR_MANGO/src/tensorflow_lite/src/tensorflow/lite/micro/kernels\kernel_util.h **** inline TfLiteEvalTensor* GetEvalOutput(const TfLiteContext* context,
  47:C:/Renesas/e2studio_2021_01_workspace_RZA2M_ANPR/ANPR_RZA2M_GR_MANGO/src/tensorflow_lite/src/tensorflow/lite/micro/kernels\kernel_util.h ****                                        const TfLiteNode* node, int index) {
  48:C:/Renesas/e2studio_2021_01_workspace_RZA2M_ANPR/ANPR_RZA2M_GR_MANGO/src/tensorflow_lite/src/tensorflow/lite/micro/kernels\kernel_util.h ****   TFLITE_DCHECK(context != nullptr);
  34              		.loc 2 48 0
  35 0000 003050E2 		subs	r3, r0, #0
  36              	.LBE195:
  37              	.LBE194:
  38              		.loc 1 73 0
  39 0004 F04F2DE9 		push	{r4, r5, r6, r7, r8, r9, r10, fp, lr}
  40              		.save {r4, r5, r6, r7, r8, r9, r10, fp, lr}
  41              		.cfi_def_cfa_offset 36
  42              		.cfi_offset 4, -36
  43              		.cfi_offset 5, -32
  44              		.cfi_offset 6, -28
  45              		.cfi_offset 7, -24
  46              		.cfi_offset 8, -20
  47              		.cfi_offset 9, -16
  48              		.cfi_offset 10, -12
  49              		.cfi_offset 11, -8
  50              		.cfi_offset 14, -4
  51              		.pad #52
  52 0008 34D04DE2 		sub	sp, sp, #52
  53              		.cfi_def_cfa_offset 88
  74:../src/tensorflow_lite/src/tensorflow/lite/micro/kernels/pack.cpp ****   const TfLitePackParams* data =
  75:../src/tensorflow_lite/src/tensorflow/lite/micro/kernels/pack.cpp ****       reinterpret_cast<TfLitePackParams*>(node->builtin_data);
  54              		.loc 1 75 0
  55 000c 144091E5 		ldr	r4, [r1, #20]
  56              	.LVL1:
  57              	.LBB199:
  58              	.LBB196:
  59              		.loc 2 48 0
  60 0010 14308DE5 		str	r3, [sp, #20]
  61              	.LBE196:
  62              	.LBE199:
  73:../src/tensorflow_lite/src/tensorflow/lite/micro/kernels/pack.cpp ****   const TfLitePackParams* data =
  63              		.loc 1 73 0
  64 0014 18108DE5 		str	r1, [sp, #24]
  65              	.LVL2:
  66              	.LBB200:
  67              	.LBB197:
  68              		.loc 2 48 0
  69 0018 6709000A 		beq	.L46
  49:C:/Renesas/e2studio_2021_01_workspace_RZA2M_ANPR/ANPR_RZA2M_GR_MANGO/src/tensorflow_lite/src/tensorflow/lite/micro/kernels\kernel_util.h ****   TFLITE_DCHECK(node != nullptr);
  50:C:/Renesas/e2studio_2021_01_workspace_RZA2M_ANPR/ANPR_RZA2M_GR_MANGO/src/tensorflow_lite/src/tensorflow/lite/micro/kernels\kernel_util.h ****   return context->GetEvalTensor(context, node->outputs->data[index]);
  70              		.loc 2 50 0
  71 001c 042091E5 		ldr	r2, [r1, #4]
  72 0020 14309DE5 		ldr	r3, [sp, #20]
  73 0024 041092E5 		ldr	r1, [r2, #4]
  74              	.LVL3:
  75 0028 543093E5 		ldr	r3, [r3, #84]
  76 002c 33FF2FE1 		blx	r3
  77              	.LVL4:
  78 0030 0050A0E1 		mov	r5, r0
  79              	.LVL5:
  80              	.LBE197:
  81              	.LBE200:
  76:../src/tensorflow_lite/src/tensorflow/lite/micro/kernels/pack.cpp **** 
  77:../src/tensorflow_lite/src/tensorflow/lite/micro/kernels/pack.cpp ****   TfLiteEvalTensor* output =
  78:../src/tensorflow_lite/src/tensorflow/lite/micro/kernels/pack.cpp ****       tflite::micro::GetEvalOutput(context, node, kOutputTensor);
  79:../src/tensorflow_lite/src/tensorflow/lite/micro/kernels/pack.cpp **** 
  80:../src/tensorflow_lite/src/tensorflow/lite/micro/kernels/pack.cpp ****   switch (output->type) {
  82              		.loc 1 80 0
  83 0034 0800D0E5 		ldrb	r0, [r0, #8]	@ zero_extendqisi2
  84 0038 013040E2 		sub	r3, r0, #1
  85 003c 080053E3 		cmp	r3, #8
  86 0040 03F19F97 		ldrls	pc, [pc, r3, asl #2]
  87 0044 7B0800EA 		b	.L3
  88              	.L5:
  89 0048 F8070000 		.word	.L4
  90 004c 500E0000 		.word	.L6
  91 0050 90140000 		.word	.L7
  92 0054 141C0000 		.word	.L8
  93 0058 38220000 		.word	.L3
  94 005c 38220000 		.word	.L3
  95 0060 38220000 		.word	.L3
  96 0064 38220000 		.word	.L3
  97 0068 6C000000 		.word	.L9
  98              	.L9:
  99              	.LBB201:
 100              	.LBB202:
 101              	.LBB203:
 102              	.LBB204:
 103              	.LBB205:
  36:C:/Renesas/e2studio_2021_01_workspace_RZA2M_ANPR/ANPR_RZA2M_GR_MANGO/src/tensorflow_lite/src/tensorflow/lite/micro/kernels\kernel_util.h **** }
 104              		.loc 2 36 0
 105 006c 18309DE5 		ldr	r3, [sp, #24]
 106              	.LBE205:
 107              	.LBE204:
 108              	.LBE203:
 109              	.LBE202:
 110              	.LBE201:
  81:../src/tensorflow_lite/src/tensorflow/lite/micro/kernels/pack.cpp ****     case kTfLiteFloat32: {
  82:../src/tensorflow_lite/src/tensorflow/lite/micro/kernels/pack.cpp ****       return PackImpl<float>(context, node, output, data->values_count,
  83:../src/tensorflow_lite/src/tensorflow/lite/micro/kernels/pack.cpp ****                              data->axis);
  84:../src/tensorflow_lite/src/tensorflow/lite/micro/kernels/pack.cpp ****     }
  85:../src/tensorflow_lite/src/tensorflow/lite/micro/kernels/pack.cpp ****     case kTfLiteUInt8: {
  86:../src/tensorflow_lite/src/tensorflow/lite/micro/kernels/pack.cpp ****       return PackImpl<uint8_t>(context, node, output, data->values_count,
  87:../src/tensorflow_lite/src/tensorflow/lite/micro/kernels/pack.cpp ****                                data->axis);
  88:../src/tensorflow_lite/src/tensorflow/lite/micro/kernels/pack.cpp ****     }
  89:../src/tensorflow_lite/src/tensorflow/lite/micro/kernels/pack.cpp ****     case kTfLiteInt8: {
  90:../src/tensorflow_lite/src/tensorflow/lite/micro/kernels/pack.cpp ****       return PackImpl<int8_t>(context, node, output, data->values_count,
  91:../src/tensorflow_lite/src/tensorflow/lite/micro/kernels/pack.cpp ****                               data->axis);
 111              		.loc 1 91 0
 112 0070 047094E5 		ldr	r7, [r4, #4]
 113              	.LBB258:
 114              	.LBB249:
 115              	.LBB212:
 116              	.LBB209:
 117              	.LBB206:
  36:C:/Renesas/e2studio_2021_01_workspace_RZA2M_ANPR/ANPR_RZA2M_GR_MANGO/src/tensorflow_lite/src/tensorflow/lite/micro/kernels\kernel_util.h **** }
 118              		.loc 2 36 0
 119 0074 002093E5 		ldr	r2, [r3]
 120 0078 14309DE5 		ldr	r3, [sp, #20]
 121              	.LVL6:
 122 007c 041092E5 		ldr	r1, [r2, #4]
 123              	.LBE206:
 124              	.LBE209:
 125              	.LBE212:
 126              	.LBE249:
 127              	.LBE258:
  90:../src/tensorflow_lite/src/tensorflow/lite/micro/kernels/pack.cpp ****                               data->axis);
 128              		.loc 1 90 0
 129 0080 002094E5 		ldr	r2, [r4]
 130              	.LBB259:
 131              	.LBB250:
 132              	.LBB213:
 133              	.LBB210:
 134              	.LBB207:
  36:C:/Renesas/e2studio_2021_01_workspace_RZA2M_ANPR/ANPR_RZA2M_GR_MANGO/src/tensorflow_lite/src/tensorflow/lite/micro/kernels\kernel_util.h **** }
 135              		.loc 2 36 0
 136 0084 0300A0E1 		mov	r0, r3
 137 0088 543093E5 		ldr	r3, [r3, #84]
 138              	.LVL7:
 139              	.LBE207:
 140              	.LBE210:
 141              	.LBE213:
 142              	.LBE250:
 143              	.LBE259:
  90:../src/tensorflow_lite/src/tensorflow/lite/micro/kernels/pack.cpp ****                               data->axis);
 144              		.loc 1 90 0
 145 008c 20208DE5 		str	r2, [sp, #32]
 146              	.LVL8:
 147              	.LBB260:
 148              	.LBB251:
 149              	.LBB214:
 150              	.LBB211:
 151              	.LBB208:
  36:C:/Renesas/e2studio_2021_01_workspace_RZA2M_ANPR/ANPR_RZA2M_GR_MANGO/src/tensorflow_lite/src/tensorflow/lite/micro/kernels\kernel_util.h **** }
 152              		.loc 2 36 0
 153 0090 33FF2FE1 		blx	r3
 154              	.LVL9:
 155              	.LBE208:
 156              	.LBE211:
 157              	.LBE214:
  35:../src/tensorflow_lite/src/tensorflow/lite/micro/kernels/pack.cpp ****   const TfLiteIntArray* input_dims = input0->dims;
 158              		.loc 1 35 0
 159 0094 041095E5 		ldr	r1, [r5, #4]
  39:../src/tensorflow_lite/src/tensorflow/lite/micro/kernels/pack.cpp ****     axis += dimensions;
 160              		.loc 1 39 0
 161 0098 000057E3 		cmp	r7, #0
  36:../src/tensorflow_lite/src/tensorflow/lite/micro/kernels/pack.cpp ****   const TfLiteIntArray* output_dims = output->dims;
 162              		.loc 1 36 0
 163 009c 04C090E5 		ldr	ip, [r0, #4]
  35:../src/tensorflow_lite/src/tensorflow/lite/micro/kernels/pack.cpp ****   const TfLiteIntArray* input_dims = input0->dims;
 164              		.loc 1 35 0
 165 00a0 008091E5 		ldr	r8, [r1]
 166              	.LVL10:
  40:../src/tensorflow_lite/src/tensorflow/lite/micro/kernels/pack.cpp ****   }
 167              		.loc 1 40 0
 168 00a4 087087B0 		addlt	r7, r7, r8
 169              	.LVL11:
 170              	.LBB215:
  44:../src/tensorflow_lite/src/tensorflow/lite/micro/kernels/pack.cpp ****     outer_size *= output_dims->data[i];
 171              		.loc 1 44 0
 172 00a8 000057E3 		cmp	r7, #0
 173 00ac 400900DA 		ble	.L306
 174 00b0 043081E2 		add	r3, r1, #4
 175 00b4 5331A0E7 		sbfx	r3, r3, #2, #1
 176 00b8 033003E2 		and	r3, r3, #3
 177 00bc 070053E1 		cmp	r3, r7
 178 00c0 0730A021 		movcs	r3, r7
 179 00c4 080057E3 		cmp	r7, #8
 180 00c8 0730A0D1 		movle	r3, r7
 181 00cc 220900CA 		bgt	.L612
 182              	.L116:
 183 00d0 010053E3 		cmp	r3, #1
  45:../src/tensorflow_lite/src/tensorflow/lite/micro/kernels/pack.cpp ****   }
 184              		.loc 1 45 0
 185 00d4 046091E5 		ldr	r6, [r1, #4]
 186              	.LVL12:
 187 00d8 6609000A 		beq	.L315
 188 00dc 082091E5 		ldr	r2, [r1, #8]
 189 00e0 020053E3 		cmp	r3, #2
 190 00e4 920606E0 		mul	r6, r2, r6
 191              	.LVL13:
 192 00e8 6209000A 		beq	.L315
 193 00ec 0C2091E5 		ldr	r2, [r1, #12]
 194 00f0 030053E3 		cmp	r3, #3
 195 00f4 920606E0 		mul	r6, r2, r6
 196              	.LVL14:
 197 00f8 5E09000A 		beq	.L315
 198 00fc 102091E5 		ldr	r2, [r1, #16]
 199 0100 040053E3 		cmp	r3, #4
 200 0104 920606E0 		mul	r6, r2, r6
 201              	.LVL15:
 202 0108 5A09000A 		beq	.L315
 203 010c 142091E5 		ldr	r2, [r1, #20]
 204 0110 050053E3 		cmp	r3, #5
 205 0114 920606E0 		mul	r6, r2, r6
 206              	.LVL16:
 207 0118 5609000A 		beq	.L315
 208 011c 182091E5 		ldr	r2, [r1, #24]
 209 0120 060053E3 		cmp	r3, #6
 210 0124 920606E0 		mul	r6, r2, r6
 211              	.LVL17:
 212 0128 5209000A 		beq	.L315
 213 012c 1C2091E5 		ldr	r2, [r1, #28]
 214 0130 070053E3 		cmp	r3, #7
 215 0134 920606E0 		mul	r6, r2, r6
 216              	.LVL18:
 217 0138 4E09000A 		beq	.L315
 218 013c 200091E5 		ldr	r0, [r1, #32]
  44:../src/tensorflow_lite/src/tensorflow/lite/micro/kernels/pack.cpp ****     outer_size *= output_dims->data[i];
 219              		.loc 1 44 0
 220 0140 0820A0E3 		mov	r2, #8
  45:../src/tensorflow_lite/src/tensorflow/lite/micro/kernels/pack.cpp ****   }
 221              		.loc 1 45 0
 222 0144 900606E0 		mul	r6, r0, r6
 223              	.LVL19:
 224              	.L118:
 225 0148 030057E1 		cmp	r7, r3
 226 014c 2A00000A 		beq	.L115
 227              	.LVL20:
 228              	.L117:
 229 0150 039047E0 		sub	r9, r7, r3
 230 0154 01E047E2 		sub	lr, r7, #1
 231 0158 040049E2 		sub	r0, r9, #4
 232 015c 03E04EE0 		sub	lr, lr, r3
 233 0160 2001A0E1 		lsr	r0, r0, #2
 234 0164 02005EE3 		cmp	lr, #2
 235 0168 010080E2 		add	r0, r0, #1
 236 016c 0041A0E1 		lsl	r4, r0, #2
 237              	.LVL21:
 238 0170 1300009A 		bls	.L120
 239 0174 013083E2 		add	r3, r3, #1
  44:../src/tensorflow_lite/src/tensorflow/lite/micro/kernels/pack.cpp ****     outer_size *= output_dims->data[i];
 240              		.loc 1 44 0
 241 0178 5100C0F2 		vmov.i32	q8, #1  @ v4si
 242 017c 033181E0 		add	r3, r1, r3, lsl #2
 243 0180 00E0A0E3 		mov	lr, #0
 244              	.L122:
 245 0184 01E08EE2 		add	lr, lr, #1
  45:../src/tensorflow_lite/src/tensorflow/lite/micro/kernels/pack.cpp ****   }
 246              		.loc 1 45 0
 247 0188 DF2A63F4 		vld1.64	{d18-d19}, [r3:64]
 248 018c 0E0050E1 		cmp	r0, lr
 249 0190 103083E2 		add	r3, r3, #16
 250 0194 F20960F2 		vmul.i32	q8, q8, q9
 251 0198 F9FFFF8A 		bhi	.L122
 252 019c 040059E1 		cmp	r9, r4
 253 01a0 042082E0 		add	r2, r2, r4
 254 01a4 5020C0F2 		vmov.i32	q9, #0  @ v4si
 255 01a8 E248F0F2 		vext.32	q10, q8, q9, #2
 256 01ac F40960F2 		vmul.i32	q8, q8, q10
 257 01b0 E224F0F2 		vext.32	q9, q8, q9, #1
 258 01b4 F20960F2 		vmul.i32	q8, q8, q9
 259 01b8 903B10EE 		vmov.32	r3, d16[0]
 260 01bc 930606E0 		mul	r6, r3, r6
 261 01c0 0D00000A 		beq	.L115
 262              	.L120:
 263              	.LVL22:
 264 01c4 020181E0 		add	r0, r1, r2, lsl #2
  44:../src/tensorflow_lite/src/tensorflow/lite/micro/kernels/pack.cpp ****     outer_size *= output_dims->data[i];
 265              		.loc 1 44 0
 266 01c8 013082E2 		add	r3, r2, #1
  45:../src/tensorflow_lite/src/tensorflow/lite/micro/kernels/pack.cpp ****   }
 267              		.loc 1 45 0
 268 01cc 040090E5 		ldr	r0, [r0, #4]
  44:../src/tensorflow_lite/src/tensorflow/lite/micro/kernels/pack.cpp ****     outer_size *= output_dims->data[i];
 269              		.loc 1 44 0
 270 01d0 030057E1 		cmp	r7, r3
  45:../src/tensorflow_lite/src/tensorflow/lite/micro/kernels/pack.cpp ****   }
 271              		.loc 1 45 0
 272 01d4 900606E0 		mul	r6, r0, r6
 273              	.LVL23:
  44:../src/tensorflow_lite/src/tensorflow/lite/micro/kernels/pack.cpp ****     outer_size *= output_dims->data[i];
 274              		.loc 1 44 0
 275 01d8 070000DA 		ble	.L115
  45:../src/tensorflow_lite/src/tensorflow/lite/micro/kernels/pack.cpp ****   }
 276              		.loc 1 45 0
 277 01dc 033181E0 		add	r3, r1, r3, lsl #2
 278              	.LVL24:
  44:../src/tensorflow_lite/src/tensorflow/lite/micro/kernels/pack.cpp ****     outer_size *= output_dims->data[i];
 279              		.loc 1 44 0
 280 01e0 022082E2 		add	r2, r2, #2
 281              	.LVL25:
  45:../src/tensorflow_lite/src/tensorflow/lite/micro/kernels/pack.cpp ****   }
 282              		.loc 1 45 0
 283 01e4 043093E5 		ldr	r3, [r3, #4]
  44:../src/tensorflow_lite/src/tensorflow/lite/micro/kernels/pack.cpp ****     outer_size *= output_dims->data[i];
 284              		.loc 1 44 0
 285 01e8 020057E1 		cmp	r7, r2
  45:../src/tensorflow_lite/src/tensorflow/lite/micro/kernels/pack.cpp ****   }
 286              		.loc 1 45 0
 287 01ec 930606E0 		mul	r6, r3, r6
 288              	.LVL26:
  44:../src/tensorflow_lite/src/tensorflow/lite/micro/kernels/pack.cpp ****     outer_size *= output_dims->data[i];
 289              		.loc 1 44 0
  45:../src/tensorflow_lite/src/tensorflow/lite/micro/kernels/pack.cpp ****   }
 290              		.loc 1 45 0
 291 01f0 022181C0 		addgt	r2, r1, r2, lsl #2
 292              	.LVL27:
 293 01f4 043092C5 		ldrgt	r3, [r2, #4]
 294 01f8 930606C0 		mulgt	r6, r3, r6
 295              	.LVL28:
 296              	.L115:
 297              	.LBE215:
 298              	.LBB216:
  48:../src/tensorflow_lite/src/tensorflow/lite/micro/kernels/pack.cpp ****     copy_size *= output_dims->data[i];
 299              		.loc 1 48 0
 300 01fc 013087E2 		add	r3, r7, #1
 301              	.LVL29:
 302 0200 030058E1 		cmp	r8, r3
 303 0204 190900DA 		ble	.L613
 304 0208 029087E2 		add	r9, r7, #2
 305 020c 01E048E2 		sub	lr, r8, #1
 306 0210 092181E0 		add	r2, r1, r9, lsl #2
 307 0214 07E04EE0 		sub	lr, lr, r7
 308 0218 5201A0E7 		sbfx	r0, r2, #2, #1
 309 021c 030000E2 		and	r0, r0, #3
 310 0220 0E0050E1 		cmp	r0, lr
 311 0224 0E00A021 		movcs	r0, lr
 312 0228 08005EE3 		cmp	lr, #8
 313 022c 0E00A091 		movls	r0, lr
 314 0230 000050E3 		cmp	r0, #0
 315 0234 C608000A 		beq	.L317
  49:../src/tensorflow_lite/src/tensorflow/lite/micro/kernels/pack.cpp ****   }
 316              		.loc 1 49 0
 317 0238 034181E0 		add	r4, r1, r3, lsl #2
 318 023c 010050E3 		cmp	r0, #1
  48:../src/tensorflow_lite/src/tensorflow/lite/micro/kernels/pack.cpp ****     copy_size *= output_dims->data[i];
 319              		.loc 1 48 0
 320 0240 0930A0E1 		mov	r3, r9
 321              	.LVL30:
  49:../src/tensorflow_lite/src/tensorflow/lite/micro/kernels/pack.cpp ****   }
 322              		.loc 1 49 0
 323 0244 044094E5 		ldr	r4, [r4, #4]
 324              	.LVL31:
 325 0248 2500000A 		beq	.L131
 326 024c 042092E5 		ldr	r2, [r2, #4]
 327 0250 020050E3 		cmp	r0, #2
  48:../src/tensorflow_lite/src/tensorflow/lite/micro/kernels/pack.cpp ****     copy_size *= output_dims->data[i];
 328              		.loc 1 48 0
 329 0254 033087E2 		add	r3, r7, #3
 330              	.LVL32:
  49:../src/tensorflow_lite/src/tensorflow/lite/micro/kernels/pack.cpp ****   }
 331              		.loc 1 49 0
 332 0258 920404E0 		mul	r4, r2, r4
 333              	.LVL33:
 334 025c 2000000A 		beq	.L131
 335 0260 033181E0 		add	r3, r1, r3, lsl #2
 336              	.LVL34:
 337 0264 030050E3 		cmp	r0, #3
 338 0268 042093E5 		ldr	r2, [r3, #4]
  48:../src/tensorflow_lite/src/tensorflow/lite/micro/kernels/pack.cpp ****     copy_size *= output_dims->data[i];
 339              		.loc 1 48 0
 340 026c 043087E2 		add	r3, r7, #4
  49:../src/tensorflow_lite/src/tensorflow/lite/micro/kernels/pack.cpp ****   }
 341              		.loc 1 49 0
 342 0270 920404E0 		mul	r4, r2, r4
 343              	.LVL35:
 344 0274 1A00000A 		beq	.L131
 345 0278 033181E0 		add	r3, r1, r3, lsl #2
 346              	.LVL36:
 347 027c 040050E3 		cmp	r0, #4
 348 0280 042093E5 		ldr	r2, [r3, #4]
  48:../src/tensorflow_lite/src/tensorflow/lite/micro/kernels/pack.cpp ****     copy_size *= output_dims->data[i];
 349              		.loc 1 48 0
 350 0284 053087E2 		add	r3, r7, #5
  49:../src/tensorflow_lite/src/tensorflow/lite/micro/kernels/pack.cpp ****   }
 351              		.loc 1 49 0
 352 0288 920404E0 		mul	r4, r2, r4
 353              	.LVL37:
 354 028c 1400000A 		beq	.L131
 355 0290 033181E0 		add	r3, r1, r3, lsl #2
 356              	.LVL38:
 357 0294 050050E3 		cmp	r0, #5
 358 0298 042093E5 		ldr	r2, [r3, #4]
  48:../src/tensorflow_lite/src/tensorflow/lite/micro/kernels/pack.cpp ****     copy_size *= output_dims->data[i];
 359              		.loc 1 48 0
 360 029c 063087E2 		add	r3, r7, #6
  49:../src/tensorflow_lite/src/tensorflow/lite/micro/kernels/pack.cpp ****   }
 361              		.loc 1 49 0
 362 02a0 920404E0 		mul	r4, r2, r4
 363              	.LVL39:
 364 02a4 0E00000A 		beq	.L131
 365 02a8 033181E0 		add	r3, r1, r3, lsl #2
 366              	.LVL40:
 367 02ac 060050E3 		cmp	r0, #6
 368 02b0 042093E5 		ldr	r2, [r3, #4]
  48:../src/tensorflow_lite/src/tensorflow/lite/micro/kernels/pack.cpp ****     copy_size *= output_dims->data[i];
 369              		.loc 1 48 0
 370 02b4 073087E2 		add	r3, r7, #7
  49:../src/tensorflow_lite/src/tensorflow/lite/micro/kernels/pack.cpp ****   }
 371              		.loc 1 49 0
 372 02b8 920404E0 		mul	r4, r2, r4
 373              	.LVL41:
 374 02bc 0800000A 		beq	.L131
 375 02c0 033181E0 		add	r3, r1, r3, lsl #2
 376              	.LVL42:
 377 02c4 070050E3 		cmp	r0, #7
 378 02c8 042093E5 		ldr	r2, [r3, #4]
  48:../src/tensorflow_lite/src/tensorflow/lite/micro/kernels/pack.cpp ****     copy_size *= output_dims->data[i];
 379              		.loc 1 48 0
 380 02cc 083087E2 		add	r3, r7, #8
  49:../src/tensorflow_lite/src/tensorflow/lite/micro/kernels/pack.cpp ****   }
 381              		.loc 1 49 0
 382 02d0 920404E0 		mul	r4, r2, r4
 383              	.LVL43:
 384 02d4 03218110 		addne	r2, r1, r3, lsl #2
  48:../src/tensorflow_lite/src/tensorflow/lite/micro/kernels/pack.cpp ****     copy_size *= output_dims->data[i];
 385              		.loc 1 48 0
 386 02d8 09308712 		addne	r3, r7, #9
 387              	.LVL44:
  49:../src/tensorflow_lite/src/tensorflow/lite/micro/kernels/pack.cpp ****   }
 388              		.loc 1 49 0
 389 02dc 04209215 		ldrne	r2, [r2, #4]
 390 02e0 92040410 		mulne	r4, r2, r4
 391              	.LVL45:
 392              	.L131:
 393 02e4 00005EE1 		cmp	lr, r0
 394 02e8 2B00000A 		beq	.L139
 395              	.LVL46:
 396              	.L130:
 397 02ec 072048E0 		sub	r2, r8, r7
 398 02f0 00E04EE0 		sub	lr, lr, r0
 399 02f4 022042E2 		sub	r2, r2, #2
 400 02f8 04704EE2 		sub	r7, lr, #4
 401              	.LVL47:
 402 02fc 002042E0 		sub	r2, r2, r0
 403 0300 2771A0E1 		lsr	r7, r7, #2
 404 0304 020052E3 		cmp	r2, #2
 405 0308 012087E2 		add	r2, r7, #1
 406 030c 0271A0E1 		lsl	r7, r2, #2
 407 0310 1300009A 		bls	.L133
 408 0314 000089E0 		add	r0, r9, r0
  48:../src/tensorflow_lite/src/tensorflow/lite/micro/kernels/pack.cpp ****     copy_size *= output_dims->data[i];
 409              		.loc 1 48 0
 410 0318 5100C0F2 		vmov.i32	q8, #1  @ v4si
 411 031c 000181E0 		add	r0, r1, r0, lsl #2
 412 0320 0090A0E3 		mov	r9, #0
 413              	.LVL48:
 414              	.L135:
 415 0324 019089E2 		add	r9, r9, #1
  49:../src/tensorflow_lite/src/tensorflow/lite/micro/kernels/pack.cpp ****   }
 416              		.loc 1 49 0
 417 0328 DF2A60F4 		vld1.64	{d18-d19}, [r0:64]
 418 032c 090052E1 		cmp	r2, r9
 419 0330 100080E2 		add	r0, r0, #16
 420 0334 F20960F2 		vmul.i32	q8, q8, q9
 421 0338 F9FFFF8A 		bhi	.L135
 422 033c 07005EE1 		cmp	lr, r7
 423 0340 073083E0 		add	r3, r3, r7
 424 0344 5020C0F2 		vmov.i32	q9, #0  @ v4si
 425 0348 E248F0F2 		vext.32	q10, q8, q9, #2
 426 034c F40960F2 		vmul.i32	q8, q8, q10
 427 0350 E224F0F2 		vext.32	q9, q8, q9, #1
 428 0354 F20960F2 		vmul.i32	q8, q8, q9
 429 0358 902B10EE 		vmov.32	r2, d16[0]
 430 035c 920404E0 		mul	r4, r2, r4
 431 0360 0D00000A 		beq	.L139
 432              	.L133:
 433              	.LVL49:
 434 0364 030181E0 		add	r0, r1, r3, lsl #2
  48:../src/tensorflow_lite/src/tensorflow/lite/micro/kernels/pack.cpp ****     copy_size *= output_dims->data[i];
 435              		.loc 1 48 0
 436 0368 012083E2 		add	r2, r3, #1
  49:../src/tensorflow_lite/src/tensorflow/lite/micro/kernels/pack.cpp ****   }
 437              		.loc 1 49 0
 438 036c 040090E5 		ldr	r0, [r0, #4]
  48:../src/tensorflow_lite/src/tensorflow/lite/micro/kernels/pack.cpp ****     copy_size *= output_dims->data[i];
 439              		.loc 1 48 0
 440 0370 020058E1 		cmp	r8, r2
  49:../src/tensorflow_lite/src/tensorflow/lite/micro/kernels/pack.cpp ****   }
 441              		.loc 1 49 0
 442 0374 900404E0 		mul	r4, r0, r4
 443              	.LVL50:
  48:../src/tensorflow_lite/src/tensorflow/lite/micro/kernels/pack.cpp ****     copy_size *= output_dims->data[i];
 444              		.loc 1 48 0
 445 0378 070000DA 		ble	.L139
  49:../src/tensorflow_lite/src/tensorflow/lite/micro/kernels/pack.cpp ****   }
 446              		.loc 1 49 0
 447 037c 022181E0 		add	r2, r1, r2, lsl #2
 448              	.LVL51:
  48:../src/tensorflow_lite/src/tensorflow/lite/micro/kernels/pack.cpp ****     copy_size *= output_dims->data[i];
 449              		.loc 1 48 0
 450 0380 023083E2 		add	r3, r3, #2
 451              	.LVL52:
  49:../src/tensorflow_lite/src/tensorflow/lite/micro/kernels/pack.cpp ****   }
 452              		.loc 1 49 0
 453 0384 042092E5 		ldr	r2, [r2, #4]
  48:../src/tensorflow_lite/src/tensorflow/lite/micro/kernels/pack.cpp ****     copy_size *= output_dims->data[i];
 454              		.loc 1 48 0
 455 0388 030058E1 		cmp	r8, r3
  49:../src/tensorflow_lite/src/tensorflow/lite/micro/kernels/pack.cpp ****   }
 456              		.loc 1 49 0
 457 038c 920404E0 		mul	r4, r2, r4
 458              	.LVL53:
  48:../src/tensorflow_lite/src/tensorflow/lite/micro/kernels/pack.cpp ****     copy_size *= output_dims->data[i];
 459              		.loc 1 48 0
  49:../src/tensorflow_lite/src/tensorflow/lite/micro/kernels/pack.cpp ****   }
 460              		.loc 1 49 0
 461 0390 033181C0 		addgt	r3, r1, r3, lsl #2
 462              	.LVL54:
 463 0394 043093C5 		ldrgt	r3, [r3, #4]
 464 0398 930404C0 		mulgt	r4, r3, r4
 465              	.LVL55:
 466              	.L139:
 467              	.LBE216:
 468              	.LBB217:
  52:../src/tensorflow_lite/src/tensorflow/lite/micro/kernels/pack.cpp ****     input_size *= input_dims->data[i];
 469              		.loc 1 52 0
 470 039c 00009CE5 		ldr	r0, [ip]
 471 03a0 000050E3 		cmp	r0, #0
 472 03a4 AF0800DA 		ble	.L614
 473 03a8 04308CE2 		add	r3, ip, #4
 474 03ac 5331A0E7 		sbfx	r3, r3, #2, #1
 475 03b0 033003E2 		and	r3, r3, #3
 476 03b4 000053E1 		cmp	r3, r0
 477 03b8 0030A021 		movcs	r3, r0
 478 03bc 080050E3 		cmp	r0, #8
 479 03c0 0030A0D1 		movle	r3, r0
 480 03c4 3E0800CA 		bgt	.L615
 481              	.LVL56:
 482              	.L140:
 483 03c8 010053E3 		cmp	r3, #1
  53:../src/tensorflow_lite/src/tensorflow/lite/micro/kernels/pack.cpp ****   }
 484              		.loc 1 53 0
 485 03cc 04209CE5 		ldr	r2, [ip, #4]
 486              	.LVL57:
 487 03d0 A208000A 		beq	.L326
 488 03d4 08109CE5 		ldr	r1, [ip, #8]
 489 03d8 020053E3 		cmp	r3, #2
 490 03dc 910202E0 		mul	r2, r1, r2
 491              	.LVL58:
 492 03e0 9E08000A 		beq	.L326
 493 03e4 0C109CE5 		ldr	r1, [ip, #12]
 494 03e8 030053E3 		cmp	r3, #3
 495 03ec 910202E0 		mul	r2, r1, r2
 496              	.LVL59:
 497 03f0 9A08000A 		beq	.L326
 498 03f4 10109CE5 		ldr	r1, [ip, #16]
 499 03f8 040053E3 		cmp	r3, #4
 500 03fc 910202E0 		mul	r2, r1, r2
 501              	.LVL60:
 502 0400 9608000A 		beq	.L326
 503 0404 14109CE5 		ldr	r1, [ip, #20]
 504 0408 050053E3 		cmp	r3, #5
 505 040c 910202E0 		mul	r2, r1, r2
 506              	.LVL61:
 507 0410 9208000A 		beq	.L326
 508 0414 18109CE5 		ldr	r1, [ip, #24]
 509 0418 060053E3 		cmp	r3, #6
 510 041c 910202E0 		mul	r2, r1, r2
 511              	.LVL62:
 512 0420 8E08000A 		beq	.L326
 513 0424 1C109CE5 		ldr	r1, [ip, #28]
 514 0428 070053E3 		cmp	r3, #7
 515 042c 910202E0 		mul	r2, r1, r2
 516              	.LVL63:
 517 0430 8A08000A 		beq	.L326
 518 0434 20E09CE5 		ldr	lr, [ip, #32]
  52:../src/tensorflow_lite/src/tensorflow/lite/micro/kernels/pack.cpp ****     input_size *= input_dims->data[i];
 519              		.loc 1 52 0
 520 0438 0810A0E3 		mov	r1, #8
  53:../src/tensorflow_lite/src/tensorflow/lite/micro/kernels/pack.cpp ****   }
 521              		.loc 1 53 0
 522 043c 9E0202E0 		mul	r2, lr, r2
 523              	.LVL64:
 524              	.L142:
 525 0440 030050E1 		cmp	r0, r3
 526 0444 2A00000A 		beq	.L127
 527              	.LVL65:
 528              	.L141:
 529 0448 039040E0 		sub	r9, r0, r3
 530 044c 017040E2 		sub	r7, r0, #1
 531 0450 04E049E2 		sub	lr, r9, #4
 532 0454 037047E0 		sub	r7, r7, r3
 533 0458 2EE1A0E1 		lsr	lr, lr, #2
 534 045c 020057E3 		cmp	r7, #2
 535 0460 01E08EE2 		add	lr, lr, #1
 536 0464 0E81A0E1 		lsl	r8, lr, #2
 537              	.LVL66:
 538 0468 1300009A 		bls	.L144
 539 046c 013083E2 		add	r3, r3, #1
  52:../src/tensorflow_lite/src/tensorflow/lite/micro/kernels/pack.cpp ****     input_size *= input_dims->data[i];
 540              		.loc 1 52 0
 541 0470 5100C0F2 		vmov.i32	q8, #1  @ v4si
 542 0474 03318CE0 		add	r3, ip, r3, lsl #2
 543 0478 0070A0E3 		mov	r7, #0
 544              	.L146:
 545 047c 017087E2 		add	r7, r7, #1
  53:../src/tensorflow_lite/src/tensorflow/lite/micro/kernels/pack.cpp ****   }
 546              		.loc 1 53 0
 547 0480 DF2A63F4 		vld1.64	{d18-d19}, [r3:64]
 548 0484 07005EE1 		cmp	lr, r7
 549 0488 103083E2 		add	r3, r3, #16
 550 048c F20960F2 		vmul.i32	q8, q8, q9
 551 0490 F9FFFF8A 		bhi	.L146
 552 0494 080059E1 		cmp	r9, r8
 553 0498 081081E0 		add	r1, r1, r8
 554 049c 5020C0F2 		vmov.i32	q9, #0  @ v4si
 555 04a0 E248F0F2 		vext.32	q10, q8, q9, #2
 556 04a4 F40960F2 		vmul.i32	q8, q8, q10
 557 04a8 E224F0F2 		vext.32	q9, q8, q9, #1
 558 04ac F20960F2 		vmul.i32	q8, q8, q9
 559 04b0 903B10EE 		vmov.32	r3, d16[0]
 560 04b4 930202E0 		mul	r2, r3, r2
 561 04b8 0D00000A 		beq	.L127
 562              	.L144:
 563              	.LVL67:
 564 04bc 01E18CE0 		add	lr, ip, r1, lsl #2
  52:../src/tensorflow_lite/src/tensorflow/lite/micro/kernels/pack.cpp ****     input_size *= input_dims->data[i];
 565              		.loc 1 52 0
 566 04c0 013081E2 		add	r3, r1, #1
  53:../src/tensorflow_lite/src/tensorflow/lite/micro/kernels/pack.cpp ****   }
 567              		.loc 1 53 0
 568 04c4 04E09EE5 		ldr	lr, [lr, #4]
  52:../src/tensorflow_lite/src/tensorflow/lite/micro/kernels/pack.cpp ****     input_size *= input_dims->data[i];
 569              		.loc 1 52 0
 570 04c8 030050E1 		cmp	r0, r3
  53:../src/tensorflow_lite/src/tensorflow/lite/micro/kernels/pack.cpp ****   }
 571              		.loc 1 53 0
 572 04cc 9E0202E0 		mul	r2, lr, r2
 573              	.LVL68:
  52:../src/tensorflow_lite/src/tensorflow/lite/micro/kernels/pack.cpp ****     input_size *= input_dims->data[i];
 574              		.loc 1 52 0
 575 04d0 070000DA 		ble	.L127
  53:../src/tensorflow_lite/src/tensorflow/lite/micro/kernels/pack.cpp ****   }
 576              		.loc 1 53 0
 577 04d4 03318CE0 		add	r3, ip, r3, lsl #2
 578              	.LVL69:
  52:../src/tensorflow_lite/src/tensorflow/lite/micro/kernels/pack.cpp ****     input_size *= input_dims->data[i];
 579              		.loc 1 52 0
 580 04d8 021081E2 		add	r1, r1, #2
 581              	.LVL70:
  53:../src/tensorflow_lite/src/tensorflow/lite/micro/kernels/pack.cpp ****   }
 582              		.loc 1 53 0
 583 04dc 043093E5 		ldr	r3, [r3, #4]
  52:../src/tensorflow_lite/src/tensorflow/lite/micro/kernels/pack.cpp ****     input_size *= input_dims->data[i];
 584              		.loc 1 52 0
 585 04e0 010050E1 		cmp	r0, r1
  53:../src/tensorflow_lite/src/tensorflow/lite/micro/kernels/pack.cpp ****   }
 586              		.loc 1 53 0
 587 04e4 930202E0 		mul	r2, r3, r2
 588              	.LVL71:
  52:../src/tensorflow_lite/src/tensorflow/lite/micro/kernels/pack.cpp ****     input_size *= input_dims->data[i];
 589              		.loc 1 52 0
  53:../src/tensorflow_lite/src/tensorflow/lite/micro/kernels/pack.cpp ****   }
 590              		.loc 1 53 0
 591 04e8 01118CC0 		addgt	r1, ip, r1, lsl #2
 592              	.LVL72:
 593 04ec 043091C5 		ldrgt	r3, [r1, #4]
 594 04f0 930202C0 		mulgt	r2, r3, r2
 595              	.LVL73:
 596              	.L127:
 597              	.LBE217:
  55:../src/tensorflow_lite/src/tensorflow/lite/micro/kernels/pack.cpp **** 
 598              		.loc 1 55 0
 599 04f4 960403E0 		mul	r3, r6, r4
 600 04f8 030052E1 		cmp	r2, r3
 601 04fc 2E08001A 		bne	.L46
 602              	.LVL74:
 603              	.LBB218:
  59:../src/tensorflow_lite/src/tensorflow/lite/micro/kernels/pack.cpp ****     const TfLiteEvalTensor* t = tflite::micro::GetEvalInput(context, node, i);
 604              		.loc 1 59 0
 605 0500 20209DE5 		ldr	r2, [sp, #32]
 606              	.LBE218:
 607              	.LBB239:
 608              	.LBB240:
  51:C:/Renesas/e2studio_2021_01_workspace_RZA2M_ANPR/ANPR_RZA2M_GR_MANGO/src/tensorflow_lite/src/tensorflow/lite/micro/kernels\kernel_util.h **** }
  52:C:/Renesas/e2studio_2021_01_workspace_RZA2M_ANPR/ANPR_RZA2M_GR_MANGO/src/tensorflow_lite/src/tensorflow/lite/micro/kernels\kernel_util.h **** 
  53:C:/Renesas/e2studio_2021_01_workspace_RZA2M_ANPR/ANPR_RZA2M_GR_MANGO/src/tensorflow_lite/src/tensorflow/lite/micro/kernels\kernel_util.h **** // Returns data for a TfLiteEvalTensor struct.
  54:C:/Renesas/e2studio_2021_01_workspace_RZA2M_ANPR/ANPR_RZA2M_GR_MANGO/src/tensorflow_lite/src/tensorflow/lite/micro/kernels\kernel_util.h **** template <typename T>
  55:C:/Renesas/e2studio_2021_01_workspace_RZA2M_ANPR/ANPR_RZA2M_GR_MANGO/src/tensorflow_lite/src/tensorflow/lite/micro/kernels\kernel_util.h **** T* GetTensorData(TfLiteEvalTensor* tensor) {
  56:C:/Renesas/e2studio_2021_01_workspace_RZA2M_ANPR/ANPR_RZA2M_GR_MANGO/src/tensorflow_lite/src/tensorflow/lite/micro/kernels\kernel_util.h ****   return tensor != nullptr ? reinterpret_cast<T*>(tensor->data.raw) : nullptr;
 609              		.loc 2 56 0
 610 0504 005095E5 		ldr	r5, [r5]
 611              	.LVL75:
 612              	.LBE240:
 613              	.LBE239:
 614              	.LBB241:
  59:../src/tensorflow_lite/src/tensorflow/lite/micro/kernels/pack.cpp ****     const TfLiteEvalTensor* t = tflite::micro::GetEvalInput(context, node, i);
 615              		.loc 1 59 0
 616 0508 000052E3 		cmp	r2, #0
 617 050c B60000DA 		ble	.L50
 618 0510 103044E2 		sub	r3, r4, #16
 619 0514 940207E0 		mul	r7, r4, r2
 620 0518 2332A0E1 		lsr	r3, r3, #4
 621 051c 012044E2 		sub	r2, r4, #1
 622 0520 08208DE5 		str	r2, [sp, #8]
 623 0524 013083E2 		add	r3, r3, #1
 624 0528 1C508DE5 		str	r5, [sp, #28]
 625 052c 0C308DE5 		str	r3, [sp, #12]
 626 0530 0332A0E1 		lsl	r3, r3, #4
 627 0534 04308DE5 		str	r3, [sp, #4]
 628 0538 0030A0E3 		mov	r3, #0
 629 053c 10308DE5 		str	r3, [sp, #16]
 630              	.LVL76:
 631              	.L151:
 632              	.LBB219:
 633              	.LBB220:
 634              	.LBB221:
 635              	.LBB222:
  36:C:/Renesas/e2studio_2021_01_workspace_RZA2M_ANPR/ANPR_RZA2M_GR_MANGO/src/tensorflow_lite/src/tensorflow/lite/micro/kernels\kernel_util.h **** }
 636              		.loc 2 36 0
 637 0540 18309DE5 		ldr	r3, [sp, #24]
 638 0544 10109DE5 		ldr	r1, [sp, #16]
 639 0548 002093E5 		ldr	r2, [r3]
 640 054c 14309DE5 		ldr	r3, [sp, #20]
 641 0550 012182E0 		add	r2, r2, r1, lsl #2
 642 0554 0300A0E1 		mov	r0, r3
 643 0558 543093E5 		ldr	r3, [r3, #84]
 644 055c 041092E5 		ldr	r1, [r2, #4]
 645 0560 33FF2FE1 		blx	r3
 646              	.LVL77:
 647              	.LBE222:
 648              	.LBE221:
 649              	.LBE220:
 650              	.LBB223:
 651              	.LBB224:
  57:C:/Renesas/e2studio_2021_01_workspace_RZA2M_ANPR/ANPR_RZA2M_GR_MANGO/src/tensorflow_lite/src/tensorflow/lite/micro/kernels\kernel_util.h **** }
  58:C:/Renesas/e2studio_2021_01_workspace_RZA2M_ANPR/ANPR_RZA2M_GR_MANGO/src/tensorflow_lite/src/tensorflow/lite/micro/kernels\kernel_util.h **** 
  59:C:/Renesas/e2studio_2021_01_workspace_RZA2M_ANPR/ANPR_RZA2M_GR_MANGO/src/tensorflow_lite/src/tensorflow/lite/micro/kernels\kernel_util.h **** // Returns const data for a TfLiteEvalTensor struct.
  60:C:/Renesas/e2studio_2021_01_workspace_RZA2M_ANPR/ANPR_RZA2M_GR_MANGO/src/tensorflow_lite/src/tensorflow/lite/micro/kernels\kernel_util.h **** template <typename T>
  61:C:/Renesas/e2studio_2021_01_workspace_RZA2M_ANPR/ANPR_RZA2M_GR_MANGO/src/tensorflow_lite/src/tensorflow/lite/micro/kernels\kernel_util.h **** const T* GetTensorData(const TfLiteEvalTensor* tensor) {
  62:C:/Renesas/e2studio_2021_01_workspace_RZA2M_ANPR/ANPR_RZA2M_GR_MANGO/src/tensorflow_lite/src/tensorflow/lite/micro/kernels\kernel_util.h ****   TFLITE_DCHECK(tensor != nullptr);
 652              		.loc 2 62 0
 653 0564 000050E3 		cmp	r0, #0
 654 0568 1308000A 		beq	.L46
 655              	.LBE224:
 656              	.LBE223:
 657              	.LBB226:
  62:../src/tensorflow_lite/src/tensorflow/lite/micro/kernels/pack.cpp ****       const T* input_ptr = input_data + copy_size * k;
 658              		.loc 1 62 0
 659 056c 000056E3 		cmp	r6, #0
 660              	.LBE226:
 661              	.LBB233:
 662              	.LBB225:
  63:C:/Renesas/e2studio_2021_01_workspace_RZA2M_ANPR/ANPR_RZA2M_GR_MANGO/src/tensorflow_lite/src/tensorflow/lite/micro/kernels\kernel_util.h ****   return reinterpret_cast<const T*>(tensor->data.raw);
 663              		.loc 2 63 0
 664 0570 001090E5 		ldr	r1, [r0]
 665              	.LVL78:
 666              	.LBE225:
 667              	.LBE233:
 668              	.LBB234:
  62:../src/tensorflow_lite/src/tensorflow/lite/micro/kernels/pack.cpp ****       const T* input_ptr = input_data + copy_size * k;
 669              		.loc 1 62 0
 670 0574 930000DA 		ble	.L152
 671 0578 000054E3 		cmp	r4, #0
 672 057c 910000DA 		ble	.L152
 673 0580 1CE09DE5 		ldr	lr, [sp, #28]
 674 0584 0120A0E1 		mov	r2, r1
 675 0588 00A0A0E3 		mov	r10, #0
 676              	.LVL79:
 677              	.L155:
 678 058c 0E0082E1 		orr	r0, r2, lr
 679 0590 0F0054E3 		cmp	r4, #15
 680 0594 5000E3E7 		ubfx	r0, r0, #0, #4
 681 0598 103082E2 		add	r3, r2, #16
 682 059c 0080A093 		movls	r8, #0
 683 05a0 0180A083 		movhi	r8, #1
 684 05a4 10C08EE2 		add	ip, lr, #16
 685 05a8 000050E3 		cmp	r0, #0
 686 05ac 0080A013 		movne	r8, #0
 687 05b0 0C0052E1 		cmp	r2, ip
 688 05b4 03005E31 		cmpcc	lr, r3
 689 05b8 0130A023 		movcs	r3, #1
 690 05bc 0030A033 		movcc	r3, #0
 691 05c0 030018E1 		tst	r8, r3
 692 05c4 01C042E0 		sub	ip, r2, r1
 693              	.LVL80:
 694 05c8 05004EE0 		sub	r0, lr, r5
 695              	.LVL81:
 696 05cc 3307000A 		beq	.L616
 697 05d0 08309DE5 		ldr	r3, [sp, #8]
 698 05d4 0E0053E3 		cmp	r3, #14
 699 05d8 2707009A 		bls	.L327
 700 05dc 0CB09DE5 		ldr	fp, [sp, #12]
 701 05e0 0290A0E1 		mov	r9, r2
 702 05e4 0E80A0E1 		mov	r8, lr
 703 05e8 0030A0E3 		mov	r3, #0
 704              	.LVL82:
 705              	.L158:
 706 05ec 013083E2 		add	r3, r3, #1
 707              	.LBB227:
 708              	.LBB228:
  66:../src/tensorflow_lite/src/tensorflow/lite/micro/kernels/pack.cpp ****     }
 709              		.loc 1 66 0
 710 05f0 DF0A69F4 		vld1.64	{d16-d17}, [r9:64]
 711 05f4 03005BE1 		cmp	fp, r3
 712 05f8 109089E2 		add	r9, r9, #16
 713 05fc DF0A48F4 		vst1.64	{d16-d17}, [r8:64]
 714 0600 108088E2 		add	r8, r8, #16
 715 0604 F8FFFF8A 		bhi	.L158
 716 0608 04309DE5 		ldr	r3, [sp, #4]
 717 060c 040053E1 		cmp	r3, r4
 718 0610 03C08200 		addeq	ip, r2, r3
 719              	.LVL83:
 720 0614 6600000A 		beq	.L161
 721              	.L156:
 722              	.LVL84:
 723 0618 039081E0 		add	r9, r1, r3
 724 061c 018083E2 		add	r8, r3, #1
 725              	.LVL85:
 726 0620 DCB099E1 		ldrsb	fp, [r9, ip]
 727 0624 080054E1 		cmp	r4, r8
 728 0628 039085E0 		add	r9, r5, r3
 729 062c 00B0C9E7 		strb	fp, [r9, r0]
 730 0630 0D0700DA 		ble	.L598
 731 0634 08B081E0 		add	fp, r1, r8
 732 0638 029083E2 		add	r9, r3, #2
 733              	.LVL86:
 734 063c DCB09BE1 		ldrsb	fp, [fp, ip]
 735 0640 090054E1 		cmp	r4, r9
 736 0644 088085E0 		add	r8, r5, r8
 737 0648 00B0C8E7 		strb	fp, [r8, r0]
 738 064c 060700DA 		ble	.L598
 739 0650 09B081E0 		add	fp, r1, r9
 740 0654 038083E2 		add	r8, r3, #3
 741              	.LVL87:
 742 0658 DCB09BE1 		ldrsb	fp, [fp, ip]
 743 065c 080054E1 		cmp	r4, r8
 744 0660 099085E0 		add	r9, r5, r9
 745 0664 00B0C9E7 		strb	fp, [r9, r0]
 746 0668 FF0600DA 		ble	.L598
 747 066c 08B081E0 		add	fp, r1, r8
 748 0670 049083E2 		add	r9, r3, #4
 749              	.LVL88:
 750 0674 DCB09BE1 		ldrsb	fp, [fp, ip]
 751 0678 090054E1 		cmp	r4, r9
 752 067c 088085E0 		add	r8, r5, r8
 753 0680 00B0C8E7 		strb	fp, [r8, r0]
 754 0684 F80600DA 		ble	.L598
 755 0688 09B081E0 		add	fp, r1, r9
 756 068c 058083E2 		add	r8, r3, #5
 757              	.LVL89:
 758 0690 DCB09BE1 		ldrsb	fp, [fp, ip]
 759 0694 080054E1 		cmp	r4, r8
 760 0698 099085E0 		add	r9, r5, r9
 761 069c 00B0C9E7 		strb	fp, [r9, r0]
 762 06a0 F10600DA 		ble	.L598
 763 06a4 08B081E0 		add	fp, r1, r8
 764 06a8 069083E2 		add	r9, r3, #6
 765              	.LVL90:
 766 06ac DCB09BE1 		ldrsb	fp, [fp, ip]
 767 06b0 090054E1 		cmp	r4, r9
 768 06b4 088085E0 		add	r8, r5, r8
 769 06b8 00B0C8E7 		strb	fp, [r8, r0]
 770 06bc EA0600DA 		ble	.L598
 771 06c0 09B081E0 		add	fp, r1, r9
 772 06c4 078083E2 		add	r8, r3, #7
 773              	.LVL91:
 774 06c8 DCB09BE1 		ldrsb	fp, [fp, ip]
 775 06cc 080054E1 		cmp	r4, r8
 776 06d0 099085E0 		add	r9, r5, r9
 777 06d4 00B0C9E7 		strb	fp, [r9, r0]
 778 06d8 E30600DA 		ble	.L598
 779 06dc 08B081E0 		add	fp, r1, r8
 780 06e0 089083E2 		add	r9, r3, #8
 781              	.LVL92:
 782 06e4 DCB09BE1 		ldrsb	fp, [fp, ip]
 783 06e8 090054E1 		cmp	r4, r9
 784 06ec 088085E0 		add	r8, r5, r8
 785 06f0 00B0C8E7 		strb	fp, [r8, r0]
 786 06f4 DC0600DA 		ble	.L598
 787 06f8 09B081E0 		add	fp, r1, r9
 788 06fc 098083E2 		add	r8, r3, #9
 789              	.LVL93:
 790 0700 DCB09BE1 		ldrsb	fp, [fp, ip]
 791 0704 080054E1 		cmp	r4, r8
 792 0708 099085E0 		add	r9, r5, r9
 793 070c 00B0C9E7 		strb	fp, [r9, r0]
 794 0710 D50600DA 		ble	.L598
 795 0714 08B081E0 		add	fp, r1, r8
 796 0718 0A9083E2 		add	r9, r3, #10
 797              	.LVL94:
 798 071c DCB09BE1 		ldrsb	fp, [fp, ip]
 799 0720 090054E1 		cmp	r4, r9
 800 0724 088085E0 		add	r8, r5, r8
 801 0728 00B0C8E7 		strb	fp, [r8, r0]
 802 072c CE0600DA 		ble	.L598
 803 0730 09B081E0 		add	fp, r1, r9
 804 0734 0B8083E2 		add	r8, r3, #11
 805              	.LVL95:
 806 0738 DCB09BE1 		ldrsb	fp, [fp, ip]
 807 073c 080054E1 		cmp	r4, r8
 808 0740 099085E0 		add	r9, r5, r9
 809 0744 00B0C9E7 		strb	fp, [r9, r0]
 810 0748 C70600DA 		ble	.L598
 811 074c 08B081E0 		add	fp, r1, r8
 812 0750 0C9083E2 		add	r9, r3, #12
 813              	.LVL96:
 814 0754 DCB09BE1 		ldrsb	fp, [fp, ip]
 815 0758 090054E1 		cmp	r4, r9
 816 075c 088085E0 		add	r8, r5, r8
 817 0760 00B0C8E7 		strb	fp, [r8, r0]
 818 0764 C00600DA 		ble	.L598
 819 0768 09B081E0 		add	fp, r1, r9
 820 076c 0D8083E2 		add	r8, r3, #13
 821              	.LVL97:
 822 0770 DCB09BE1 		ldrsb	fp, [fp, ip]
 823 0774 080054E1 		cmp	r4, r8
 824 0778 099085E0 		add	r9, r5, r9
 825 077c 00B0C9E7 		strb	fp, [r9, r0]
 826 0780 B90600DA 		ble	.L598
 827 0784 089081E0 		add	r9, r1, r8
 828 0788 0E3083E2 		add	r3, r3, #14
 829 078c DC9099E1 		ldrsb	r9, [r9, ip]
 830 0790 030054E1 		cmp	r4, r3
 831 0794 088085E0 		add	r8, r5, r8
 832              	.LVL98:
 833 0798 0090C8E7 		strb	r9, [r8, r0]
 834              	.LVL99:
 835 079c B20600DA 		ble	.L598
 836 07a0 038081E0 		add	r8, r1, r3
 837 07a4 033085E0 		add	r3, r5, r3
 838              	.LVL100:
 839 07a8 DC8098E1 		ldrsb	r8, [r8, ip]
 840 07ac 04C082E0 		add	ip, r2, r4
 841 07b0 0080C3E7 		strb	r8, [r3, r0]
 842              	.LVL101:
 843              	.L161:
 844              	.LBE228:
 845              	.LBE227:
  62:../src/tensorflow_lite/src/tensorflow/lite/micro/kernels/pack.cpp ****       const T* input_ptr = input_data + copy_size * k;
 846              		.loc 1 62 0
 847 07b4 01A08AE2 		add	r10, r10, #1
 848              	.LVL102:
 849 07b8 0C20A0E1 		mov	r2, ip
 850 07bc 06005AE1 		cmp	r10, r6
 851 07c0 07E08EE0 		add	lr, lr, r7
 852              	.LVL103:
 853 07c4 70FFFF1A 		bne	.L155
 854              	.LVL104:
 855              	.L152:
 856 07c8 1C209DE5 		ldr	r2, [sp, #28]
 857              	.LBE234:
 858              	.LBE219:
  59:../src/tensorflow_lite/src/tensorflow/lite/micro/kernels/pack.cpp ****     const TfLiteEvalTensor* t = tflite::micro::GetEvalInput(context, node, i);
 859              		.loc 1 59 0
 860 07cc 10309DE5 		ldr	r3, [sp, #16]
 861 07d0 042082E0 		add	r2, r2, r4
 862 07d4 1C208DE5 		str	r2, [sp, #28]
 863 07d8 013083E2 		add	r3, r3, #1
 864 07dc 20209DE5 		ldr	r2, [sp, #32]
 865 07e0 10308DE5 		str	r3, [sp, #16]
 866              	.LVL105:
 867 07e4 030052E1 		cmp	r2, r3
 868 07e8 54FFFF1A 		bne	.L151
 869              	.LVL106:
 870              	.L50:
 871              	.LBE241:
 872              	.LBE251:
 873              	.LBE260:
  83:../src/tensorflow_lite/src/tensorflow/lite/micro/kernels/pack.cpp ****     }
 874              		.loc 1 83 0
 875 07ec 0000A0E3 		mov	r0, #0
  92:../src/tensorflow_lite/src/tensorflow/lite/micro/kernels/pack.cpp ****     }
  93:../src/tensorflow_lite/src/tensorflow/lite/micro/kernels/pack.cpp ****     case kTfLiteInt32: {
  94:../src/tensorflow_lite/src/tensorflow/lite/micro/kernels/pack.cpp ****       return PackImpl<int32_t>(context, node, output, data->values_count,
  95:../src/tensorflow_lite/src/tensorflow/lite/micro/kernels/pack.cpp ****                                data->axis);
  96:../src/tensorflow_lite/src/tensorflow/lite/micro/kernels/pack.cpp ****     }
  97:../src/tensorflow_lite/src/tensorflow/lite/micro/kernels/pack.cpp ****     case kTfLiteInt64: {
  98:../src/tensorflow_lite/src/tensorflow/lite/micro/kernels/pack.cpp ****       return PackImpl<int64_t>(context, node, output, data->values_count,
  99:../src/tensorflow_lite/src/tensorflow/lite/micro/kernels/pack.cpp ****                                data->axis);
 100:../src/tensorflow_lite/src/tensorflow/lite/micro/kernels/pack.cpp ****     }
 101:../src/tensorflow_lite/src/tensorflow/lite/micro/kernels/pack.cpp ****     default: {
 102:../src/tensorflow_lite/src/tensorflow/lite/micro/kernels/pack.cpp ****       TF_LITE_KERNEL_LOG(context, "Type '%s' is not supported by pack.",
 103:../src/tensorflow_lite/src/tensorflow/lite/micro/kernels/pack.cpp ****                          TfLiteTypeGetName(output->type));
 104:../src/tensorflow_lite/src/tensorflow/lite/micro/kernels/pack.cpp ****       return kTfLiteError;
 105:../src/tensorflow_lite/src/tensorflow/lite/micro/kernels/pack.cpp ****     }
 106:../src/tensorflow_lite/src/tensorflow/lite/micro/kernels/pack.cpp ****   }
 107:../src/tensorflow_lite/src/tensorflow/lite/micro/kernels/pack.cpp **** 
 108:../src/tensorflow_lite/src/tensorflow/lite/micro/kernels/pack.cpp ****   return kTfLiteOk;
 109:../src/tensorflow_lite/src/tensorflow/lite/micro/kernels/pack.cpp **** }
 876              		.loc 1 109 0
 877 07f0 34D08DE2 		add	sp, sp, #52
 878              		.cfi_remember_state
 879              		.cfi_def_cfa_offset 36
 880              		@ sp needed
 881 07f4 F08FBDE8 		pop	{r4, r5, r6, r7, r8, r9, r10, fp, pc}
 882              	.LVL107:
 883              	.L4:
 884              		.cfi_restore_state
 885              	.LBB261:
 886              	.LBB262:
 887              	.LBB263:
 888              	.LBB264:
 889              	.LBB265:
  36:C:/Renesas/e2studio_2021_01_workspace_RZA2M_ANPR/ANPR_RZA2M_GR_MANGO/src/tensorflow_lite/src/tensorflow/lite/micro/kernels\kernel_util.h **** }
 890              		.loc 2 36 0
 891 07f8 18309DE5 		ldr	r3, [sp, #24]
 892              	.LBE265:
 893              	.LBE264:
 894              	.LBE263:
 895              	.LBE262:
 896              	.LBE261:
  83:../src/tensorflow_lite/src/tensorflow/lite/micro/kernels/pack.cpp ****     }
 897              		.loc 1 83 0
 898 07fc 047094E5 		ldr	r7, [r4, #4]
 899              	.LBB314:
 900              	.LBB307:
 901              	.LBB272:
 902              	.LBB269:
 903              	.LBB266:
  36:C:/Renesas/e2studio_2021_01_workspace_RZA2M_ANPR/ANPR_RZA2M_GR_MANGO/src/tensorflow_lite/src/tensorflow/lite/micro/kernels\kernel_util.h **** }
 904              		.loc 2 36 0
 905 0800 002093E5 		ldr	r2, [r3]
 906 0804 14309DE5 		ldr	r3, [sp, #20]
 907              	.LVL108:
 908 0808 041092E5 		ldr	r1, [r2, #4]
 909              	.LBE266:
 910              	.LBE269:
 911              	.LBE272:
 912              	.LBE307:
 913              	.LBE314:
  82:../src/tensorflow_lite/src/tensorflow/lite/micro/kernels/pack.cpp ****                              data->axis);
 914              		.loc 1 82 0
 915 080c 002094E5 		ldr	r2, [r4]
 916              	.LBB315:
 917              	.LBB308:
 918              	.LBB273:
 919              	.LBB270:
 920              	.LBB267:
  36:C:/Renesas/e2studio_2021_01_workspace_RZA2M_ANPR/ANPR_RZA2M_GR_MANGO/src/tensorflow_lite/src/tensorflow/lite/micro/kernels\kernel_util.h **** }
 921              		.loc 2 36 0
 922 0810 0300A0E1 		mov	r0, r3
 923 0814 543093E5 		ldr	r3, [r3, #84]
 924              	.LVL109:
 925              	.LBE267:
 926              	.LBE270:
 927              	.LBE273:
 928              	.LBE308:
 929              	.LBE315:
  82:../src/tensorflow_lite/src/tensorflow/lite/micro/kernels/pack.cpp ****                              data->axis);
 930              		.loc 1 82 0
 931 0818 28208DE5 		str	r2, [sp, #40]
 932              	.LVL110:
 933              	.LBB316:
 934              	.LBB309:
 935              	.LBB274:
 936              	.LBB271:
 937              	.LBB268:
  36:C:/Renesas/e2studio_2021_01_workspace_RZA2M_ANPR/ANPR_RZA2M_GR_MANGO/src/tensorflow_lite/src/tensorflow/lite/micro/kernels\kernel_util.h **** }
 938              		.loc 2 36 0
 939 081c 33FF2FE1 		blx	r3
 940              	.LVL111:
 941              	.LBE268:
 942              	.LBE271:
 943              	.LBE274:
  35:../src/tensorflow_lite/src/tensorflow/lite/micro/kernels/pack.cpp ****   const TfLiteIntArray* input_dims = input0->dims;
 944              		.loc 1 35 0
 945 0820 041095E5 		ldr	r1, [r5, #4]
  39:../src/tensorflow_lite/src/tensorflow/lite/micro/kernels/pack.cpp ****     axis += dimensions;
 946              		.loc 1 39 0
 947 0824 000057E3 		cmp	r7, #0
  36:../src/tensorflow_lite/src/tensorflow/lite/micro/kernels/pack.cpp ****   const TfLiteIntArray* output_dims = output->dims;
 948              		.loc 1 36 0
 949 0828 04C090E5 		ldr	ip, [r0, #4]
  35:../src/tensorflow_lite/src/tensorflow/lite/micro/kernels/pack.cpp ****   const TfLiteIntArray* input_dims = input0->dims;
 950              		.loc 1 35 0
 951 082c 008091E5 		ldr	r8, [r1]
 952              	.LVL112:
  40:../src/tensorflow_lite/src/tensorflow/lite/micro/kernels/pack.cpp ****   }
 953              		.loc 1 40 0
 954 0830 087087B0 		addlt	r7, r7, r8
 955              	.LVL113:
 956              	.LBB275:
  44:../src/tensorflow_lite/src/tensorflow/lite/micro/kernels/pack.cpp ****     outer_size *= output_dims->data[i];
 957              		.loc 1 44 0
 958 0834 000057E3 		cmp	r7, #0
 959 0838 860700DA 		ble	.L261
 960 083c 043081E2 		add	r3, r1, #4
 961 0840 5331A0E7 		sbfx	r3, r3, #2, #1
 962 0844 033003E2 		and	r3, r3, #3
 963 0848 070053E1 		cmp	r3, r7
 964 084c 0730A021 		movcs	r3, r7
 965 0850 080057E3 		cmp	r7, #8
 966 0854 0730A0D1 		movle	r3, r7
 967 0858 310700CA 		bgt	.L617
 968              	.L12:
 969 085c 010053E3 		cmp	r3, #1
  45:../src/tensorflow_lite/src/tensorflow/lite/micro/kernels/pack.cpp ****   }
 970              		.loc 1 45 0
 971 0860 046091E5 		ldr	r6, [r1, #4]
 972              	.LVL114:
 973 0864 7907000A 		beq	.L270
 974 0868 082091E5 		ldr	r2, [r1, #8]
 975 086c 020053E3 		cmp	r3, #2
 976 0870 920606E0 		mul	r6, r2, r6
 977              	.LVL115:
 978 0874 7507000A 		beq	.L270
 979 0878 0C2091E5 		ldr	r2, [r1, #12]
 980 087c 030053E3 		cmp	r3, #3
 981 0880 920606E0 		mul	r6, r2, r6
 982              	.LVL116:
 983 0884 7107000A 		beq	.L270
 984 0888 102091E5 		ldr	r2, [r1, #16]
 985 088c 040053E3 		cmp	r3, #4
 986 0890 920606E0 		mul	r6, r2, r6
 987              	.LVL117:
 988 0894 6D07000A 		beq	.L270
 989 0898 142091E5 		ldr	r2, [r1, #20]
 990 089c 050053E3 		cmp	r3, #5
 991 08a0 920606E0 		mul	r6, r2, r6
 992              	.LVL118:
 993 08a4 6907000A 		beq	.L270
 994 08a8 182091E5 		ldr	r2, [r1, #24]
 995 08ac 060053E3 		cmp	r3, #6
 996 08b0 920606E0 		mul	r6, r2, r6
 997              	.LVL119:
 998 08b4 6507000A 		beq	.L270
 999 08b8 1C2091E5 		ldr	r2, [r1, #28]
 1000 08bc 070053E3 		cmp	r3, #7
 1001 08c0 920606E0 		mul	r6, r2, r6
 1002              	.LVL120:
 1003 08c4 6107000A 		beq	.L270
 1004 08c8 200091E5 		ldr	r0, [r1, #32]
  44:../src/tensorflow_lite/src/tensorflow/lite/micro/kernels/pack.cpp ****     outer_size *= output_dims->data[i];
 1005              		.loc 1 44 0
 1006 08cc 0820A0E3 		mov	r2, #8
  45:../src/tensorflow_lite/src/tensorflow/lite/micro/kernels/pack.cpp ****   }
 1007              		.loc 1 45 0
 1008 08d0 900606E0 		mul	r6, r0, r6
 1009              	.LVL121:
 1010              	.L14:
 1011 08d4 030057E1 		cmp	r7, r3
 1012 08d8 2A00000A 		beq	.L11
 1013              	.LVL122:
 1014              	.L13:
 1015 08dc 039047E0 		sub	r9, r7, r3
 1016 08e0 01E047E2 		sub	lr, r7, #1
 1017 08e4 040049E2 		sub	r0, r9, #4
 1018 08e8 03E04EE0 		sub	lr, lr, r3
 1019 08ec 2001A0E1 		lsr	r0, r0, #2
 1020 08f0 02005EE3 		cmp	lr, #2
 1021 08f4 010080E2 		add	r0, r0, #1
 1022 08f8 0041A0E1 		lsl	r4, r0, #2
 1023              	.LVL123:
 1024 08fc 1300009A 		bls	.L16
 1025 0900 013083E2 		add	r3, r3, #1
  44:../src/tensorflow_lite/src/tensorflow/lite/micro/kernels/pack.cpp ****     outer_size *= output_dims->data[i];
 1026              		.loc 1 44 0
 1027 0904 5100C0F2 		vmov.i32	q8, #1  @ v4si
 1028 0908 033181E0 		add	r3, r1, r3, lsl #2
 1029 090c 00E0A0E3 		mov	lr, #0
 1030              	.L18:
 1031 0910 01E08EE2 		add	lr, lr, #1
  45:../src/tensorflow_lite/src/tensorflow/lite/micro/kernels/pack.cpp ****   }
 1032              		.loc 1 45 0
 1033 0914 DF2A63F4 		vld1.64	{d18-d19}, [r3:64]
 1034 0918 0E0050E1 		cmp	r0, lr
 1035 091c 103083E2 		add	r3, r3, #16
 1036 0920 F20960F2 		vmul.i32	q8, q8, q9
 1037 0924 F9FFFF8A 		bhi	.L18
 1038 0928 040059E1 		cmp	r9, r4
 1039 092c 042082E0 		add	r2, r2, r4
 1040 0930 5020C0F2 		vmov.i32	q9, #0  @ v4si
 1041 0934 E248F0F2 		vext.32	q10, q8, q9, #2
 1042 0938 F40960F2 		vmul.i32	q8, q8, q10
 1043 093c E224F0F2 		vext.32	q9, q8, q9, #1
 1044 0940 F20960F2 		vmul.i32	q8, q8, q9
 1045 0944 903B10EE 		vmov.32	r3, d16[0]
 1046 0948 930606E0 		mul	r6, r3, r6
 1047 094c 0D00000A 		beq	.L11
 1048              	.L16:
 1049              	.LVL124:
 1050 0950 020181E0 		add	r0, r1, r2, lsl #2
  44:../src/tensorflow_lite/src/tensorflow/lite/micro/kernels/pack.cpp ****     outer_size *= output_dims->data[i];
 1051              		.loc 1 44 0
 1052 0954 013082E2 		add	r3, r2, #1
  45:../src/tensorflow_lite/src/tensorflow/lite/micro/kernels/pack.cpp ****   }
 1053              		.loc 1 45 0
 1054 0958 040090E5 		ldr	r0, [r0, #4]
  44:../src/tensorflow_lite/src/tensorflow/lite/micro/kernels/pack.cpp ****     outer_size *= output_dims->data[i];
 1055              		.loc 1 44 0
 1056 095c 030057E1 		cmp	r7, r3
  45:../src/tensorflow_lite/src/tensorflow/lite/micro/kernels/pack.cpp ****   }
 1057              		.loc 1 45 0
 1058 0960 900606E0 		mul	r6, r0, r6
 1059              	.LVL125:
  44:../src/tensorflow_lite/src/tensorflow/lite/micro/kernels/pack.cpp ****     outer_size *= output_dims->data[i];
 1060              		.loc 1 44 0
 1061 0964 070000DA 		ble	.L11
  45:../src/tensorflow_lite/src/tensorflow/lite/micro/kernels/pack.cpp ****   }
 1062              		.loc 1 45 0
 1063 0968 033181E0 		add	r3, r1, r3, lsl #2
 1064              	.LVL126:
  44:../src/tensorflow_lite/src/tensorflow/lite/micro/kernels/pack.cpp ****     outer_size *= output_dims->data[i];
 1065              		.loc 1 44 0
 1066 096c 022082E2 		add	r2, r2, #2
 1067              	.LVL127:
  45:../src/tensorflow_lite/src/tensorflow/lite/micro/kernels/pack.cpp ****   }
 1068              		.loc 1 45 0
 1069 0970 043093E5 		ldr	r3, [r3, #4]
  44:../src/tensorflow_lite/src/tensorflow/lite/micro/kernels/pack.cpp ****     outer_size *= output_dims->data[i];
 1070              		.loc 1 44 0
 1071 0974 020057E1 		cmp	r7, r2
  45:../src/tensorflow_lite/src/tensorflow/lite/micro/kernels/pack.cpp ****   }
 1072              		.loc 1 45 0
 1073 0978 930606E0 		mul	r6, r3, r6
 1074              	.LVL128:
  44:../src/tensorflow_lite/src/tensorflow/lite/micro/kernels/pack.cpp ****     outer_size *= output_dims->data[i];
 1075              		.loc 1 44 0
  45:../src/tensorflow_lite/src/tensorflow/lite/micro/kernels/pack.cpp ****   }
 1076              		.loc 1 45 0
 1077 097c 022181C0 		addgt	r2, r1, r2, lsl #2
 1078              	.LVL129:
 1079 0980 043092C5 		ldrgt	r3, [r2, #4]
 1080 0984 930606C0 		mulgt	r6, r3, r6
 1081              	.LVL130:
 1082              	.L11:
 1083              	.LBE275:
 1084              	.LBB276:
  48:../src/tensorflow_lite/src/tensorflow/lite/micro/kernels/pack.cpp ****     copy_size *= output_dims->data[i];
 1085              		.loc 1 48 0
 1086 0988 013087E2 		add	r3, r7, #1
 1087              	.LVL131:
 1088 098c 030058E1 		cmp	r8, r3
 1089 0990 2C0700DA 		ble	.L618
 1090 0994 029087E2 		add	r9, r7, #2
 1091 0998 01E048E2 		sub	lr, r8, #1
 1092 099c 092181E0 		add	r2, r1, r9, lsl #2
 1093 09a0 07E04EE0 		sub	lr, lr, r7
 1094 09a4 5201A0E7 		sbfx	r0, r2, #2, #1
 1095 09a8 030000E2 		and	r0, r0, #3
 1096 09ac 0E0050E1 		cmp	r0, lr
 1097 09b0 0E00A021 		movcs	r0, lr
 1098 09b4 08005EE3 		cmp	lr, #8
 1099 09b8 0E00A091 		movls	r0, lr
 1100 09bc 000050E3 		cmp	r0, #0
 1101 09c0 E106000A 		beq	.L272
  49:../src/tensorflow_lite/src/tensorflow/lite/micro/kernels/pack.cpp ****   }
 1102              		.loc 1 49 0
 1103 09c4 034181E0 		add	r4, r1, r3, lsl #2
 1104 09c8 010050E3 		cmp	r0, #1
  48:../src/tensorflow_lite/src/tensorflow/lite/micro/kernels/pack.cpp ****     copy_size *= output_dims->data[i];
 1105              		.loc 1 48 0
 1106 09cc 0930A0E1 		mov	r3, r9
 1107              	.LVL132:
  49:../src/tensorflow_lite/src/tensorflow/lite/micro/kernels/pack.cpp ****   }
 1108              		.loc 1 49 0
 1109 09d0 044094E5 		ldr	r4, [r4, #4]
 1110              	.LVL133:
 1111 09d4 2500000A 		beq	.L27
 1112 09d8 042092E5 		ldr	r2, [r2, #4]
 1113 09dc 020050E3 		cmp	r0, #2
  48:../src/tensorflow_lite/src/tensorflow/lite/micro/kernels/pack.cpp ****     copy_size *= output_dims->data[i];
 1114              		.loc 1 48 0
 1115 09e0 033087E2 		add	r3, r7, #3
 1116              	.LVL134:
  49:../src/tensorflow_lite/src/tensorflow/lite/micro/kernels/pack.cpp ****   }
 1117              		.loc 1 49 0
 1118 09e4 920404E0 		mul	r4, r2, r4
 1119              	.LVL135:
 1120 09e8 2000000A 		beq	.L27
 1121 09ec 033181E0 		add	r3, r1, r3, lsl #2
 1122              	.LVL136:
 1123 09f0 030050E3 		cmp	r0, #3
 1124 09f4 042093E5 		ldr	r2, [r3, #4]
  48:../src/tensorflow_lite/src/tensorflow/lite/micro/kernels/pack.cpp ****     copy_size *= output_dims->data[i];
 1125              		.loc 1 48 0
 1126 09f8 043087E2 		add	r3, r7, #4
  49:../src/tensorflow_lite/src/tensorflow/lite/micro/kernels/pack.cpp ****   }
 1127              		.loc 1 49 0
 1128 09fc 920404E0 		mul	r4, r2, r4
 1129              	.LVL137:
 1130 0a00 1A00000A 		beq	.L27
 1131 0a04 033181E0 		add	r3, r1, r3, lsl #2
 1132              	.LVL138:
 1133 0a08 040050E3 		cmp	r0, #4
 1134 0a0c 042093E5 		ldr	r2, [r3, #4]
  48:../src/tensorflow_lite/src/tensorflow/lite/micro/kernels/pack.cpp ****     copy_size *= output_dims->data[i];
 1135              		.loc 1 48 0
 1136 0a10 053087E2 		add	r3, r7, #5
  49:../src/tensorflow_lite/src/tensorflow/lite/micro/kernels/pack.cpp ****   }
 1137              		.loc 1 49 0
 1138 0a14 920404E0 		mul	r4, r2, r4
 1139              	.LVL139:
 1140 0a18 1400000A 		beq	.L27
 1141 0a1c 033181E0 		add	r3, r1, r3, lsl #2
 1142              	.LVL140:
 1143 0a20 050050E3 		cmp	r0, #5
 1144 0a24 042093E5 		ldr	r2, [r3, #4]
  48:../src/tensorflow_lite/src/tensorflow/lite/micro/kernels/pack.cpp ****     copy_size *= output_dims->data[i];
 1145              		.loc 1 48 0
 1146 0a28 063087E2 		add	r3, r7, #6
  49:../src/tensorflow_lite/src/tensorflow/lite/micro/kernels/pack.cpp ****   }
 1147              		.loc 1 49 0
 1148 0a2c 920404E0 		mul	r4, r2, r4
 1149              	.LVL141:
 1150 0a30 0E00000A 		beq	.L27
 1151 0a34 033181E0 		add	r3, r1, r3, lsl #2
 1152              	.LVL142:
 1153 0a38 060050E3 		cmp	r0, #6
 1154 0a3c 042093E5 		ldr	r2, [r3, #4]
  48:../src/tensorflow_lite/src/tensorflow/lite/micro/kernels/pack.cpp ****     copy_size *= output_dims->data[i];
 1155              		.loc 1 48 0
 1156 0a40 073087E2 		add	r3, r7, #7
  49:../src/tensorflow_lite/src/tensorflow/lite/micro/kernels/pack.cpp ****   }
 1157              		.loc 1 49 0
 1158 0a44 920404E0 		mul	r4, r2, r4
 1159              	.LVL143:
 1160 0a48 0800000A 		beq	.L27
 1161 0a4c 033181E0 		add	r3, r1, r3, lsl #2
 1162              	.LVL144:
 1163 0a50 070050E3 		cmp	r0, #7
 1164 0a54 042093E5 		ldr	r2, [r3, #4]
  48:../src/tensorflow_lite/src/tensorflow/lite/micro/kernels/pack.cpp ****     copy_size *= output_dims->data[i];
 1165              		.loc 1 48 0
 1166 0a58 083087E2 		add	r3, r7, #8
  49:../src/tensorflow_lite/src/tensorflow/lite/micro/kernels/pack.cpp ****   }
 1167              		.loc 1 49 0
 1168 0a5c 920404E0 		mul	r4, r2, r4
 1169              	.LVL145:
 1170 0a60 03218110 		addne	r2, r1, r3, lsl #2
  48:../src/tensorflow_lite/src/tensorflow/lite/micro/kernels/pack.cpp ****     copy_size *= output_dims->data[i];
 1171              		.loc 1 48 0
 1172 0a64 09308712 		addne	r3, r7, #9
 1173              	.LVL146:
  49:../src/tensorflow_lite/src/tensorflow/lite/micro/kernels/pack.cpp ****   }
 1174              		.loc 1 49 0
 1175 0a68 04209215 		ldrne	r2, [r2, #4]
 1176 0a6c 92040410 		mulne	r4, r2, r4
 1177              	.LVL147:
 1178              	.L27:
 1179 0a70 00005EE1 		cmp	lr, r0
 1180 0a74 2B00000A 		beq	.L35
 1181              	.LVL148:
 1182              	.L26:
 1183 0a78 072048E0 		sub	r2, r8, r7
 1184 0a7c 00E04EE0 		sub	lr, lr, r0
 1185 0a80 022042E2 		sub	r2, r2, #2
 1186 0a84 04704EE2 		sub	r7, lr, #4
 1187              	.LVL149:
 1188 0a88 002042E0 		sub	r2, r2, r0
 1189 0a8c 2771A0E1 		lsr	r7, r7, #2
 1190 0a90 020052E3 		cmp	r2, #2
 1191 0a94 012087E2 		add	r2, r7, #1
 1192 0a98 0271A0E1 		lsl	r7, r2, #2
 1193 0a9c 1300009A 		bls	.L29
 1194 0aa0 000089E0 		add	r0, r9, r0
  48:../src/tensorflow_lite/src/tensorflow/lite/micro/kernels/pack.cpp ****     copy_size *= output_dims->data[i];
 1195              		.loc 1 48 0
 1196 0aa4 5140C0F2 		vmov.i32	q10, #1  @ v4si
 1197 0aa8 000181E0 		add	r0, r1, r0, lsl #2
 1198 0aac 0090A0E3 		mov	r9, #0
 1199              	.LVL150:
 1200              	.L31:
 1201 0ab0 019089E2 		add	r9, r9, #1
  49:../src/tensorflow_lite/src/tensorflow/lite/micro/kernels/pack.cpp ****   }
 1202              		.loc 1 49 0
 1203 0ab4 DF0A60F4 		vld1.64	{d16-d17}, [r0:64]
 1204 0ab8 090052E1 		cmp	r2, r9
 1205 0abc 100080E2 		add	r0, r0, #16
 1206 0ac0 F04964F2 		vmul.i32	q10, q10, q8
 1207 0ac4 F9FFFF8A 		bhi	.L31
 1208 0ac8 0E0057E1 		cmp	r7, lr
 1209 0acc 073083E0 		add	r3, r3, r7
 1210 0ad0 5020C0F2 		vmov.i32	q9, #0  @ v4si
 1211 0ad4 E208F4F2 		vext.32	q8, q10, q9, #2
 1212 0ad8 F40960F2 		vmul.i32	q8, q8, q10
 1213 0adc E224F0F2 		vext.32	q9, q8, q9, #1
 1214 0ae0 F20960F2 		vmul.i32	q8, q8, q9
 1215 0ae4 902B10EE 		vmov.32	r2, d16[0]
 1216 0ae8 920404E0 		mul	r4, r2, r4
 1217 0aec 0D00000A 		beq	.L35
 1218              	.L29:
 1219              	.LVL151:
 1220 0af0 030181E0 		add	r0, r1, r3, lsl #2
  48:../src/tensorflow_lite/src/tensorflow/lite/micro/kernels/pack.cpp ****     copy_size *= output_dims->data[i];
 1221              		.loc 1 48 0
 1222 0af4 012083E2 		add	r2, r3, #1
  49:../src/tensorflow_lite/src/tensorflow/lite/micro/kernels/pack.cpp ****   }
 1223              		.loc 1 49 0
 1224 0af8 040090E5 		ldr	r0, [r0, #4]
  48:../src/tensorflow_lite/src/tensorflow/lite/micro/kernels/pack.cpp ****     copy_size *= output_dims->data[i];
 1225              		.loc 1 48 0
 1226 0afc 020058E1 		cmp	r8, r2
  49:../src/tensorflow_lite/src/tensorflow/lite/micro/kernels/pack.cpp ****   }
 1227              		.loc 1 49 0
 1228 0b00 900404E0 		mul	r4, r0, r4
 1229              	.LVL152:
  48:../src/tensorflow_lite/src/tensorflow/lite/micro/kernels/pack.cpp ****     copy_size *= output_dims->data[i];
 1230              		.loc 1 48 0
 1231 0b04 070000DA 		ble	.L35
  49:../src/tensorflow_lite/src/tensorflow/lite/micro/kernels/pack.cpp ****   }
 1232              		.loc 1 49 0
 1233 0b08 022181E0 		add	r2, r1, r2, lsl #2
 1234              	.LVL153:
  48:../src/tensorflow_lite/src/tensorflow/lite/micro/kernels/pack.cpp ****     copy_size *= output_dims->data[i];
 1235              		.loc 1 48 0
 1236 0b0c 023083E2 		add	r3, r3, #2
 1237              	.LVL154:
  49:../src/tensorflow_lite/src/tensorflow/lite/micro/kernels/pack.cpp ****   }
 1238              		.loc 1 49 0
 1239 0b10 042092E5 		ldr	r2, [r2, #4]
  48:../src/tensorflow_lite/src/tensorflow/lite/micro/kernels/pack.cpp ****     copy_size *= output_dims->data[i];
 1240              		.loc 1 48 0
 1241 0b14 030058E1 		cmp	r8, r3
  49:../src/tensorflow_lite/src/tensorflow/lite/micro/kernels/pack.cpp ****   }
 1242              		.loc 1 49 0
 1243 0b18 920404E0 		mul	r4, r2, r4
 1244              	.LVL155:
  48:../src/tensorflow_lite/src/tensorflow/lite/micro/kernels/pack.cpp ****     copy_size *= output_dims->data[i];
 1245              		.loc 1 48 0
  49:../src/tensorflow_lite/src/tensorflow/lite/micro/kernels/pack.cpp ****   }
 1246              		.loc 1 49 0
 1247 0b1c 033181C0 		addgt	r3, r1, r3, lsl #2
 1248              	.LVL156:
 1249 0b20 043093C5 		ldrgt	r3, [r3, #4]
 1250 0b24 930404C0 		mulgt	r4, r3, r4
 1251              	.LVL157:
 1252              	.L35:
 1253              	.LBE276:
 1254              	.LBB277:
  52:../src/tensorflow_lite/src/tensorflow/lite/micro/kernels/pack.cpp ****     input_size *= input_dims->data[i];
 1255              		.loc 1 52 0
 1256 0b28 00009CE5 		ldr	r0, [ip]
 1257 0b2c 000050E3 		cmp	r0, #0
 1258 0b30 C20600DA 		ble	.L619
 1259 0b34 04308CE2 		add	r3, ip, #4
 1260 0b38 5331A0E7 		sbfx	r3, r3, #2, #1
 1261 0b3c 033003E2 		and	r3, r3, #3
 1262 0b40 000053E1 		cmp	r3, r0
 1263 0b44 0030A021 		movcs	r3, r0
 1264 0b48 080050E3 		cmp	r0, #8
 1265 0b4c 0030A0D1 		movle	r3, r0
 1266 0b50 780600CA 		bgt	.L620
 1267              	.LVL158:
 1268              	.L36:
 1269 0b54 010053E3 		cmp	r3, #1
  53:../src/tensorflow_lite/src/tensorflow/lite/micro/kernels/pack.cpp ****   }
 1270              		.loc 1 53 0
 1271 0b58 04209CE5 		ldr	r2, [ip, #4]
 1272              	.LVL159:
 1273 0b5c B506000A 		beq	.L281
 1274 0b60 08109CE5 		ldr	r1, [ip, #8]
 1275 0b64 020053E3 		cmp	r3, #2
 1276 0b68 910202E0 		mul	r2, r1, r2
 1277              	.LVL160:
 1278 0b6c B106000A 		beq	.L281
 1279 0b70 0C109CE5 		ldr	r1, [ip, #12]
 1280 0b74 030053E3 		cmp	r3, #3
 1281 0b78 910202E0 		mul	r2, r1, r2
 1282              	.LVL161:
 1283 0b7c AD06000A 		beq	.L281
 1284 0b80 10109CE5 		ldr	r1, [ip, #16]
 1285 0b84 040053E3 		cmp	r3, #4
 1286 0b88 910202E0 		mul	r2, r1, r2
 1287              	.LVL162:
 1288 0b8c A906000A 		beq	.L281
 1289 0b90 14109CE5 		ldr	r1, [ip, #20]
 1290 0b94 050053E3 		cmp	r3, #5
 1291 0b98 910202E0 		mul	r2, r1, r2
 1292              	.LVL163:
 1293 0b9c A506000A 		beq	.L281
 1294 0ba0 18109CE5 		ldr	r1, [ip, #24]
 1295 0ba4 060053E3 		cmp	r3, #6
 1296 0ba8 910202E0 		mul	r2, r1, r2
 1297              	.LVL164:
 1298 0bac A106000A 		beq	.L281
 1299 0bb0 1C109CE5 		ldr	r1, [ip, #28]
 1300 0bb4 070053E3 		cmp	r3, #7
 1301 0bb8 910202E0 		mul	r2, r1, r2
 1302              	.LVL165:
 1303 0bbc 9D06000A 		beq	.L281
 1304 0bc0 20E09CE5 		ldr	lr, [ip, #32]
  52:../src/tensorflow_lite/src/tensorflow/lite/micro/kernels/pack.cpp ****     input_size *= input_dims->data[i];
 1305              		.loc 1 52 0
 1306 0bc4 0810A0E3 		mov	r1, #8
  53:../src/tensorflow_lite/src/tensorflow/lite/micro/kernels/pack.cpp ****   }
 1307              		.loc 1 53 0
 1308 0bc8 9E0202E0 		mul	r2, lr, r2
 1309              	.LVL166:
 1310              	.L38:
 1311 0bcc 030050E1 		cmp	r0, r3
 1312 0bd0 2A00000A 		beq	.L23
 1313              	.LVL167:
 1314              	.L37:
 1315 0bd4 039040E0 		sub	r9, r0, r3
 1316 0bd8 017040E2 		sub	r7, r0, #1
 1317 0bdc 04E049E2 		sub	lr, r9, #4
 1318 0be0 037047E0 		sub	r7, r7, r3
 1319 0be4 2EE1A0E1 		lsr	lr, lr, #2
 1320 0be8 020057E3 		cmp	r7, #2
 1321 0bec 01E08EE2 		add	lr, lr, #1
 1322 0bf0 0E81A0E1 		lsl	r8, lr, #2
 1323              	.LVL168:
 1324 0bf4 1300009A 		bls	.L40
 1325 0bf8 013083E2 		add	r3, r3, #1
  52:../src/tensorflow_lite/src/tensorflow/lite/micro/kernels/pack.cpp ****     input_size *= input_dims->data[i];
 1326              		.loc 1 52 0
 1327 0bfc 5140C0F2 		vmov.i32	q10, #1  @ v4si
 1328 0c00 03318CE0 		add	r3, ip, r3, lsl #2
 1329 0c04 0070A0E3 		mov	r7, #0
 1330              	.L42:
 1331 0c08 017087E2 		add	r7, r7, #1
  53:../src/tensorflow_lite/src/tensorflow/lite/micro/kernels/pack.cpp ****   }
 1332              		.loc 1 53 0
 1333 0c0c DF0A63F4 		vld1.64	{d16-d17}, [r3:64]
 1334 0c10 07005EE1 		cmp	lr, r7
 1335 0c14 103083E2 		add	r3, r3, #16
 1336 0c18 F04964F2 		vmul.i32	q10, q10, q8
 1337 0c1c F9FFFF8A 		bhi	.L42
 1338 0c20 090058E1 		cmp	r8, r9
 1339 0c24 081081E0 		add	r1, r1, r8
 1340 0c28 5000C0F2 		vmov.i32	q8, #0  @ v4si
 1341 0c2c E028F4F2 		vext.32	q9, q10, q8, #2
 1342 0c30 F42962F2 		vmul.i32	q9, q9, q10
 1343 0c34 E004F2F2 		vext.32	q8, q9, q8, #1
 1344 0c38 F20960F2 		vmul.i32	q8, q8, q9
 1345 0c3c 903B10EE 		vmov.32	r3, d16[0]
 1346 0c40 930202E0 		mul	r2, r3, r2
 1347 0c44 0D00000A 		beq	.L23
 1348              	.L40:
 1349              	.LVL169:
 1350 0c48 01E18CE0 		add	lr, ip, r1, lsl #2
  52:../src/tensorflow_lite/src/tensorflow/lite/micro/kernels/pack.cpp ****     input_size *= input_dims->data[i];
 1351              		.loc 1 52 0
 1352 0c4c 013081E2 		add	r3, r1, #1
  53:../src/tensorflow_lite/src/tensorflow/lite/micro/kernels/pack.cpp ****   }
 1353              		.loc 1 53 0
 1354 0c50 04E09EE5 		ldr	lr, [lr, #4]
  52:../src/tensorflow_lite/src/tensorflow/lite/micro/kernels/pack.cpp ****     input_size *= input_dims->data[i];
 1355              		.loc 1 52 0
 1356 0c54 030050E1 		cmp	r0, r3
  53:../src/tensorflow_lite/src/tensorflow/lite/micro/kernels/pack.cpp ****   }
 1357              		.loc 1 53 0
 1358 0c58 9E0202E0 		mul	r2, lr, r2
 1359              	.LVL170:
  52:../src/tensorflow_lite/src/tensorflow/lite/micro/kernels/pack.cpp ****     input_size *= input_dims->data[i];
 1360              		.loc 1 52 0
 1361 0c5c 070000DA 		ble	.L23
  53:../src/tensorflow_lite/src/tensorflow/lite/micro/kernels/pack.cpp ****   }
 1362              		.loc 1 53 0
 1363 0c60 03318CE0 		add	r3, ip, r3, lsl #2
 1364              	.LVL171:
  52:../src/tensorflow_lite/src/tensorflow/lite/micro/kernels/pack.cpp ****     input_size *= input_dims->data[i];
 1365              		.loc 1 52 0
 1366 0c64 021081E2 		add	r1, r1, #2
 1367              	.LVL172:
  53:../src/tensorflow_lite/src/tensorflow/lite/micro/kernels/pack.cpp ****   }
 1368              		.loc 1 53 0
 1369 0c68 043093E5 		ldr	r3, [r3, #4]
  52:../src/tensorflow_lite/src/tensorflow/lite/micro/kernels/pack.cpp ****     input_size *= input_dims->data[i];
 1370              		.loc 1 52 0
 1371 0c6c 010050E1 		cmp	r0, r1
  53:../src/tensorflow_lite/src/tensorflow/lite/micro/kernels/pack.cpp ****   }
 1372              		.loc 1 53 0
 1373 0c70 930202E0 		mul	r2, r3, r2
 1374              	.LVL173:
  52:../src/tensorflow_lite/src/tensorflow/lite/micro/kernels/pack.cpp ****     input_size *= input_dims->data[i];
 1375              		.loc 1 52 0
  53:../src/tensorflow_lite/src/tensorflow/lite/micro/kernels/pack.cpp ****   }
 1376              		.loc 1 53 0
 1377 0c74 01118CC0 		addgt	r1, ip, r1, lsl #2
 1378              	.LVL174:
 1379 0c78 043091C5 		ldrgt	r3, [r1, #4]
 1380 0c7c 930202C0 		mulgt	r2, r3, r2
 1381              	.LVL175:
 1382              	.L23:
 1383              	.LBE277:
  55:../src/tensorflow_lite/src/tensorflow/lite/micro/kernels/pack.cpp **** 
 1384              		.loc 1 55 0
 1385 0c80 960403E0 		mul	r3, r6, r4
 1386 0c84 020053E1 		cmp	r3, r2
 1387 0c88 4B06001A 		bne	.L46
 1388              	.LVL176:
 1389              	.LBB278:
  59:../src/tensorflow_lite/src/tensorflow/lite/micro/kernels/pack.cpp ****     const TfLiteEvalTensor* t = tflite::micro::GetEvalInput(context, node, i);
 1390              		.loc 1 59 0
 1391 0c8c 28309DE5 		ldr	r3, [sp, #40]
 1392              	.LBE278:
 1393              	.LBB297:
 1394              	.LBB298:
  56:C:/Renesas/e2studio_2021_01_workspace_RZA2M_ANPR/ANPR_RZA2M_GR_MANGO/src/tensorflow_lite/src/tensorflow/lite/micro/kernels\kernel_util.h **** }
 1395              		.loc 2 56 0
 1396 0c90 005095E5 		ldr	r5, [r5]
 1397              	.LVL177:
 1398              	.LBE298:
 1399              	.LBE297:
 1400              	.LBB299:
  59:../src/tensorflow_lite/src/tensorflow/lite/micro/kernels/pack.cpp ****     const TfLiteEvalTensor* t = tflite::micro::GetEvalInput(context, node, i);
 1401              		.loc 1 59 0
 1402 0c94 000053E3 		cmp	r3, #0
 1403 0c98 D3FEFFDA 		ble	.L50
 1404 0c9c 042044E2 		sub	r2, r4, #4
 1405 0ca0 940301E0 		mul	r1, r4, r3
 1406 0ca4 2221A0E1 		lsr	r2, r2, #2
 1407 0ca8 093044E2 		sub	r3, r4, #9
 1408 0cac 0471A0E1 		lsl	r7, r4, #2
 1409 0cb0 20508DE5 		str	r5, [sp, #32]
 1410 0cb4 012082E2 		add	r2, r2, #1
 1411 0cb8 0C208DE5 		str	r2, [sp, #12]
 1412 0cbc 0730C3E3 		bic	r3, r3, #7
 1413 0cc0 0221A0E1 		lsl	r2, r2, #2
 1414 0cc4 083083E2 		add	r3, r3, #8
 1415 0cc8 24308DE5 		str	r3, [sp, #36]
 1416 0ccc 013044E2 		sub	r3, r4, #1
 1417 0cd0 10208DE5 		str	r2, [sp, #16]
 1418 0cd4 0121A0E1 		lsl	r2, r1, #2
 1419 0cd8 08308DE5 		str	r3, [sp, #8]
 1420 0cdc 0030A0E3 		mov	r3, #0
 1421 0ce0 04208DE5 		str	r2, [sp, #4]
 1422 0ce4 1C308DE5 		str	r3, [sp, #28]
 1423              	.LVL178:
 1424              	.L51:
 1425              	.LBB279:
 1426              	.LBB280:
 1427              	.LBB281:
 1428              	.LBB282:
  36:C:/Renesas/e2studio_2021_01_workspace_RZA2M_ANPR/ANPR_RZA2M_GR_MANGO/src/tensorflow_lite/src/tensorflow/lite/micro/kernels\kernel_util.h **** }
 1429              		.loc 2 36 0
 1430 0ce8 18309DE5 		ldr	r3, [sp, #24]
 1431 0cec 1C109DE5 		ldr	r1, [sp, #28]
 1432 0cf0 002093E5 		ldr	r2, [r3]
 1433 0cf4 14309DE5 		ldr	r3, [sp, #20]
 1434 0cf8 012182E0 		add	r2, r2, r1, lsl #2
 1435 0cfc 0300A0E1 		mov	r0, r3
 1436 0d00 543093E5 		ldr	r3, [r3, #84]
 1437 0d04 041092E5 		ldr	r1, [r2, #4]
 1438 0d08 33FF2FE1 		blx	r3
 1439              	.LVL179:
 1440              	.LBE282:
 1441              	.LBE281:
 1442              	.LBE280:
 1443              	.LBB283:
 1444              	.LBB284:
  62:C:/Renesas/e2studio_2021_01_workspace_RZA2M_ANPR/ANPR_RZA2M_GR_MANGO/src/tensorflow_lite/src/tensorflow/lite/micro/kernels\kernel_util.h ****   return reinterpret_cast<const T*>(tensor->data.raw);
 1445              		.loc 2 62 0
 1446 0d0c 000050E3 		cmp	r0, #0
 1447 0d10 2906000A 		beq	.L46
 1448              	.LBE284:
 1449              	.LBE283:
 1450              	.LBB286:
  62:../src/tensorflow_lite/src/tensorflow/lite/micro/kernels/pack.cpp ****       const T* input_ptr = input_data + copy_size * k;
 1451              		.loc 1 62 0
 1452 0d14 000056E3 		cmp	r6, #0
 1453              	.LBE286:
 1454              	.LBB293:
 1455              	.LBB285:
 1456              		.loc 2 63 0
 1457 0d18 009090E5 		ldr	r9, [r0]
 1458              	.LVL180:
 1459              	.LBE285:
 1460              	.LBE293:
 1461              	.LBB294:
  62:../src/tensorflow_lite/src/tensorflow/lite/micro/kernels/pack.cpp ****       const T* input_ptr = input_data + copy_size * k;
 1462              		.loc 1 62 0
 1463 0d1c D40500DA 		ble	.L52
 1464 0d20 000054E3 		cmp	r4, #0
 1465 0d24 D20500DA 		ble	.L52
 1466 0d28 20C09DE5 		ldr	ip, [sp, #32]
 1467 0d2c 0900A0E1 		mov	r0, r9
 1468 0d30 00A0A0E3 		mov	r10, #0
 1469 0d34 2F0000EA 		b	.L55
 1470              	.LVL181:
 1471              	.L622:
 1472 0d38 0CB09DE5 		ldr	fp, [sp, #12]
 1473 0d3c 00E0A0E1 		mov	lr, r0
 1474 0d40 0C10A0E1 		mov	r1, ip
 1475 0d44 0020A0E3 		mov	r2, #0
 1476              	.LVL182:
 1477              	.L58:
 1478 0d48 012082E2 		add	r2, r2, #1
 1479              	.LBB287:
 1480              	.LBB288:
  66:../src/tensorflow_lite/src/tensorflow/lite/micro/kernels/pack.cpp ****     }
 1481              		.loc 1 66 0
 1482 0d4c DF0A6EF4 		vld1.64	{d16-d17}, [lr:64]
 1483 0d50 02005BE1 		cmp	fp, r2
 1484 0d54 10E08EE2 		add	lr, lr, #16
 1485 0d58 DF0A41F4 		vst1.64	{d16-d17}, [r1:64]
 1486 0d5c 101081E2 		add	r1, r1, #16
 1487 0d60 F8FFFF8A 		bhi	.L58
 1488 0d64 10209DE5 		ldr	r2, [sp, #16]
 1489 0d68 040052E1 		cmp	r2, r4
 1490 0d6c 02E0A011 		movne	lr, r2
 1491 0d70 1A00000A 		beq	.L63
 1492              	.L56:
 1493 0d74 0E21A0E1 		lsl	r2, lr, #2
 1494 0d78 01108EE2 		add	r1, lr, #1
 1495 0d7c 010054E1 		cmp	r4, r1
 1496 0d80 02B089E0 		add	fp, r9, r2
 1497 0d84 021085E0 		add	r1, r5, r2
 1498 0d88 03B08BE0 		add	fp, fp, r3
 1499 0d8c 081081E0 		add	r1, r1, r8
 1500 0d90 00B09BE5 		ldr	fp, [fp]	@ float
 1501 0d94 00B081E5 		str	fp, [r1]	@ float
 1502 0d98 100000DA 		ble	.L63
 1503 0d9c 041082E2 		add	r1, r2, #4
 1504 0da0 02E08EE2 		add	lr, lr, #2
 1505 0da4 01B089E0 		add	fp, r9, r1
 1506 0da8 0E0054E1 		cmp	r4, lr
 1507 0dac 03B08BE0 		add	fp, fp, r3
 1508 0db0 011085E0 		add	r1, r5, r1
 1509 0db4 00E09BE5 		ldr	lr, [fp]	@ float
 1510 0db8 081081E0 		add	r1, r1, r8
 1511 0dbc 00E081E5 		str	lr, [r1]	@ float
 1512 0dc0 060000DA 		ble	.L63
 1513 0dc4 082082E2 		add	r2, r2, #8
 1514 0dc8 021089E0 		add	r1, r9, r2
 1515 0dcc 022085E0 		add	r2, r5, r2
 1516 0dd0 033081E0 		add	r3, r1, r3
 1517              	.LVL183:
 1518 0dd4 082082E0 		add	r2, r2, r8
 1519 0dd8 003093E5 		ldr	r3, [r3]	@ float
 1520 0ddc 003082E5 		str	r3, [r2]	@ float
 1521              	.LVL184:
 1522              	.L63:
 1523              	.LBE288:
 1524              	.LBE287:
  62:../src/tensorflow_lite/src/tensorflow/lite/micro/kernels/pack.cpp ****       const T* input_ptr = input_data + copy_size * k;
 1525              		.loc 1 62 0
 1526 0de0 01A08AE2 		add	r10, r10, #1
 1527              	.LVL185:
 1528 0de4 04309DE5 		ldr	r3, [sp, #4]
 1529 0de8 06005AE1 		cmp	r10, r6
 1530 0dec 070080E0 		add	r0, r0, r7
 1531              	.LVL186:
 1532 0df0 03C08CE0 		add	ip, ip, r3
 1533              	.LVL187:
 1534 0df4 9E05000A 		beq	.L52
 1535              	.LVL188:
 1536              	.L55:
 1537 0df8 0C1080E1 		orr	r1, r0, ip
 1538 0dfc 090054E3 		cmp	r4, #9
 1539 0e00 5110E3E7 		ubfx	r1, r1, #0, #4
 1540 0e04 0080A093 		movls	r8, #0
 1541 0e08 0180A083 		movhi	r8, #1
 1542 0e0c 10308CE2 		add	r3, ip, #16
 1543 0e10 000051E3 		cmp	r1, #0
 1544 0e14 10E080E2 		add	lr, r0, #16
 1545 0e18 0080A013 		movne	r8, #0
 1546 0e1c 0E005CE1 		cmp	ip, lr
 1547 0e20 03005031 		cmpcc	r0, r3
 1548 0e24 0120A023 		movcs	r2, #1
 1549 0e28 0020A033 		movcc	r2, #0
 1550 0e2c 082012E0 		ands	r2, r2, r8
 1551 0e30 093040E0 		sub	r3, r0, r9
 1552              	.LVL189:
 1553 0e34 05804CE0 		sub	r8, ip, r5
 1554              	.LVL190:
 1555 0e38 4705000A 		beq	.L621
 1556 0e3c 08209DE5 		ldr	r2, [sp, #8]
 1557 0e40 020052E3 		cmp	r2, #2
 1558 0e44 BBFFFF8A 		bhi	.L622
 1559              	.LBB291:
 1560              	.LBB289:
  66:../src/tensorflow_lite/src/tensorflow/lite/micro/kernels/pack.cpp ****     }
 1561              		.loc 1 66 0
 1562 0e48 00E0A0E3 		mov	lr, #0
 1563 0e4c C8FFFFEA 		b	.L56
 1564              	.LVL191:
 1565              	.L6:
 1566              	.LBE289:
 1567              	.LBE291:
 1568              	.LBE294:
 1569              	.LBE279:
 1570              	.LBE299:
 1571              	.LBE309:
 1572              	.LBE316:
 1573              	.LBB317:
 1574              	.LBB318:
 1575              	.LBB319:
 1576              	.LBB320:
 1577              	.LBB321:
  36:C:/Renesas/e2studio_2021_01_workspace_RZA2M_ANPR/ANPR_RZA2M_GR_MANGO/src/tensorflow_lite/src/tensorflow/lite/micro/kernels\kernel_util.h **** }
 1578              		.loc 2 36 0
 1579 0e50 18309DE5 		ldr	r3, [sp, #24]
 1580              	.LBE321:
 1581              	.LBE320:
 1582              	.LBE319:
 1583              	.LBE318:
 1584              	.LBE317:
  95:../src/tensorflow_lite/src/tensorflow/lite/micro/kernels/pack.cpp ****     }
 1585              		.loc 1 95 0
 1586 0e54 047094E5 		ldr	r7, [r4, #4]
 1587              	.LBB370:
 1588              	.LBB363:
 1589              	.LBB328:
 1590              	.LBB325:
 1591              	.LBB322:
  36:C:/Renesas/e2studio_2021_01_workspace_RZA2M_ANPR/ANPR_RZA2M_GR_MANGO/src/tensorflow_lite/src/tensorflow/lite/micro/kernels\kernel_util.h **** }
 1592              		.loc 2 36 0
 1593 0e58 002093E5 		ldr	r2, [r3]
 1594 0e5c 14309DE5 		ldr	r3, [sp, #20]
 1595              	.LVL192:
 1596 0e60 041092E5 		ldr	r1, [r2, #4]
 1597              	.LBE322:
 1598              	.LBE325:
 1599              	.LBE328:
 1600              	.LBE363:
 1601              	.LBE370:
  94:../src/tensorflow_lite/src/tensorflow/lite/micro/kernels/pack.cpp ****                                data->axis);
 1602              		.loc 1 94 0
 1603 0e64 002094E5 		ldr	r2, [r4]
 1604              	.LBB371:
 1605              	.LBB364:
 1606              	.LBB329:
 1607              	.LBB326:
 1608              	.LBB323:
  36:C:/Renesas/e2studio_2021_01_workspace_RZA2M_ANPR/ANPR_RZA2M_GR_MANGO/src/tensorflow_lite/src/tensorflow/lite/micro/kernels\kernel_util.h **** }
 1609              		.loc 2 36 0
 1610 0e68 0300A0E1 		mov	r0, r3
 1611 0e6c 543093E5 		ldr	r3, [r3, #84]
 1612              	.LVL193:
 1613              	.LBE323:
 1614              	.LBE326:
 1615              	.LBE329:
 1616              	.LBE364:
 1617              	.LBE371:
  94:../src/tensorflow_lite/src/tensorflow/lite/micro/kernels/pack.cpp ****                                data->axis);
 1618              		.loc 1 94 0
 1619 0e70 2C208DE5 		str	r2, [sp, #44]
 1620              	.LVL194:
 1621              	.LBB372:
 1622              	.LBB365:
 1623              	.LBB330:
 1624              	.LBB327:
 1625              	.LBB324:
  36:C:/Renesas/e2studio_2021_01_workspace_RZA2M_ANPR/ANPR_RZA2M_GR_MANGO/src/tensorflow_lite/src/tensorflow/lite/micro/kernels\kernel_util.h **** }
 1626              		.loc 2 36 0
 1627 0e74 33FF2FE1 		blx	r3
 1628              	.LVL195:
 1629              	.LBE324:
 1630              	.LBE327:
 1631              	.LBE330:
  35:../src/tensorflow_lite/src/tensorflow/lite/micro/kernels/pack.cpp ****   const TfLiteIntArray* input_dims = input0->dims;
 1632              		.loc 1 35 0
 1633 0e78 041095E5 		ldr	r1, [r5, #4]
  39:../src/tensorflow_lite/src/tensorflow/lite/micro/kernels/pack.cpp ****     axis += dimensions;
 1634              		.loc 1 39 0
 1635 0e7c 000057E3 		cmp	r7, #0
  36:../src/tensorflow_lite/src/tensorflow/lite/micro/kernels/pack.cpp ****   const TfLiteIntArray* output_dims = output->dims;
 1636              		.loc 1 36 0
 1637 0e80 04C090E5 		ldr	ip, [r0, #4]
  35:../src/tensorflow_lite/src/tensorflow/lite/micro/kernels/pack.cpp ****   const TfLiteIntArray* input_dims = input0->dims;
 1638              		.loc 1 35 0
 1639 0e84 008091E5 		ldr	r8, [r1]
 1640              	.LVL196:
  40:../src/tensorflow_lite/src/tensorflow/lite/micro/kernels/pack.cpp ****   }
 1641              		.loc 1 40 0
 1642 0e88 087087B0 		addlt	r7, r7, r8
 1643              	.LVL197:
 1644              	.LBB331:
  44:../src/tensorflow_lite/src/tensorflow/lite/micro/kernels/pack.cpp ****     outer_size *= output_dims->data[i];
 1645              		.loc 1 44 0
 1646 0e8c 000057E3 		cmp	r7, #0
 1647 0e90 E60500DA 		ble	.L328
 1648 0e94 043081E2 		add	r3, r1, #4
 1649 0e98 5331A0E7 		sbfx	r3, r3, #2, #1
 1650 0e9c 033003E2 		and	r3, r3, #3
 1651 0ea0 070053E1 		cmp	r3, r7
 1652 0ea4 0730A021 		movcs	r3, r7
 1653 0ea8 080057E3 		cmp	r7, #8
 1654 0eac 0730A0D1 		movle	r3, r7
 1655 0eb0 960500CA 		bgt	.L623
 1656              	.L165:
 1657 0eb4 010053E3 		cmp	r3, #1
  45:../src/tensorflow_lite/src/tensorflow/lite/micro/kernels/pack.cpp ****   }
 1658              		.loc 1 45 0
 1659 0eb8 046091E5 		ldr	r6, [r1, #4]
 1660              	.LVL198:
 1661 0ebc D905000A 		beq	.L337
 1662 0ec0 082091E5 		ldr	r2, [r1, #8]
 1663 0ec4 020053E3 		cmp	r3, #2
 1664 0ec8 920606E0 		mul	r6, r2, r6
 1665              	.LVL199:
 1666 0ecc D505000A 		beq	.L337
 1667 0ed0 0C2091E5 		ldr	r2, [r1, #12]
 1668 0ed4 030053E3 		cmp	r3, #3
 1669 0ed8 920606E0 		mul	r6, r2, r6
 1670              	.LVL200:
 1671 0edc D105000A 		beq	.L337
 1672 0ee0 102091E5 		ldr	r2, [r1, #16]
 1673 0ee4 040053E3 		cmp	r3, #4
 1674 0ee8 920606E0 		mul	r6, r2, r6
 1675              	.LVL201:
 1676 0eec CD05000A 		beq	.L337
 1677 0ef0 142091E5 		ldr	r2, [r1, #20]
 1678 0ef4 050053E3 		cmp	r3, #5
 1679 0ef8 920606E0 		mul	r6, r2, r6
 1680              	.LVL202:
 1681 0efc C905000A 		beq	.L337
 1682 0f00 182091E5 		ldr	r2, [r1, #24]
 1683 0f04 060053E3 		cmp	r3, #6
 1684 0f08 920606E0 		mul	r6, r2, r6
 1685              	.LVL203:
 1686 0f0c C505000A 		beq	.L337
 1687 0f10 1C2091E5 		ldr	r2, [r1, #28]
 1688 0f14 070053E3 		cmp	r3, #7
 1689 0f18 920606E0 		mul	r6, r2, r6
 1690              	.LVL204:
 1691 0f1c C105000A 		beq	.L337
 1692 0f20 200091E5 		ldr	r0, [r1, #32]
  44:../src/tensorflow_lite/src/tensorflow/lite/micro/kernels/pack.cpp ****     outer_size *= output_dims->data[i];
 1693              		.loc 1 44 0
 1694 0f24 0820A0E3 		mov	r2, #8
  45:../src/tensorflow_lite/src/tensorflow/lite/micro/kernels/pack.cpp ****   }
 1695              		.loc 1 45 0
 1696 0f28 900606E0 		mul	r6, r0, r6
 1697              	.LVL205:
 1698              	.L167:
 1699 0f2c 030057E1 		cmp	r7, r3
 1700 0f30 2A00000A 		beq	.L164
 1701              	.LVL206:
 1702              	.L166:
 1703 0f34 039047E0 		sub	r9, r7, r3
 1704 0f38 01E047E2 		sub	lr, r7, #1
 1705 0f3c 040049E2 		sub	r0, r9, #4
 1706 0f40 03E04EE0 		sub	lr, lr, r3
 1707 0f44 2001A0E1 		lsr	r0, r0, #2
 1708 0f48 02005EE3 		cmp	lr, #2
 1709 0f4c 010080E2 		add	r0, r0, #1
 1710 0f50 0041A0E1 		lsl	r4, r0, #2
 1711              	.LVL207:
 1712 0f54 1300009A 		bls	.L169
 1713 0f58 013083E2 		add	r3, r3, #1
  44:../src/tensorflow_lite/src/tensorflow/lite/micro/kernels/pack.cpp ****     outer_size *= output_dims->data[i];
 1714              		.loc 1 44 0
 1715 0f5c 5100C0F2 		vmov.i32	q8, #1  @ v4si
 1716 0f60 033181E0 		add	r3, r1, r3, lsl #2
 1717 0f64 00E0A0E3 		mov	lr, #0
 1718              	.L171:
 1719 0f68 01E08EE2 		add	lr, lr, #1
  45:../src/tensorflow_lite/src/tensorflow/lite/micro/kernels/pack.cpp ****   }
 1720              		.loc 1 45 0
 1721 0f6c DF2A63F4 		vld1.64	{d18-d19}, [r3:64]
 1722 0f70 0E0050E1 		cmp	r0, lr
 1723 0f74 103083E2 		add	r3, r3, #16
 1724 0f78 F20960F2 		vmul.i32	q8, q8, q9
 1725 0f7c F9FFFF8A 		bhi	.L171
 1726 0f80 040059E1 		cmp	r9, r4
 1727 0f84 042082E0 		add	r2, r2, r4
 1728 0f88 5020C0F2 		vmov.i32	q9, #0  @ v4si
 1729 0f8c E248F0F2 		vext.32	q10, q8, q9, #2
 1730 0f90 F40960F2 		vmul.i32	q8, q8, q10
 1731 0f94 E224F0F2 		vext.32	q9, q8, q9, #1
 1732 0f98 F20960F2 		vmul.i32	q8, q8, q9
 1733 0f9c 903B10EE 		vmov.32	r3, d16[0]
 1734 0fa0 930606E0 		mul	r6, r3, r6
 1735 0fa4 0D00000A 		beq	.L164
 1736              	.L169:
 1737              	.LVL208:
 1738 0fa8 020181E0 		add	r0, r1, r2, lsl #2
  44:../src/tensorflow_lite/src/tensorflow/lite/micro/kernels/pack.cpp ****     outer_size *= output_dims->data[i];
 1739              		.loc 1 44 0
 1740 0fac 013082E2 		add	r3, r2, #1
  45:../src/tensorflow_lite/src/tensorflow/lite/micro/kernels/pack.cpp ****   }
 1741              		.loc 1 45 0
 1742 0fb0 040090E5 		ldr	r0, [r0, #4]
  44:../src/tensorflow_lite/src/tensorflow/lite/micro/kernels/pack.cpp ****     outer_size *= output_dims->data[i];
 1743              		.loc 1 44 0
 1744 0fb4 030057E1 		cmp	r7, r3
  45:../src/tensorflow_lite/src/tensorflow/lite/micro/kernels/pack.cpp ****   }
 1745              		.loc 1 45 0
 1746 0fb8 900606E0 		mul	r6, r0, r6
 1747              	.LVL209:
  44:../src/tensorflow_lite/src/tensorflow/lite/micro/kernels/pack.cpp ****     outer_size *= output_dims->data[i];
 1748              		.loc 1 44 0
 1749 0fbc 070000DA 		ble	.L164
  45:../src/tensorflow_lite/src/tensorflow/lite/micro/kernels/pack.cpp ****   }
 1750              		.loc 1 45 0
 1751 0fc0 033181E0 		add	r3, r1, r3, lsl #2
 1752              	.LVL210:
  44:../src/tensorflow_lite/src/tensorflow/lite/micro/kernels/pack.cpp ****     outer_size *= output_dims->data[i];
 1753              		.loc 1 44 0
 1754 0fc4 022082E2 		add	r2, r2, #2
 1755              	.LVL211:
  45:../src/tensorflow_lite/src/tensorflow/lite/micro/kernels/pack.cpp ****   }
 1756              		.loc 1 45 0
 1757 0fc8 043093E5 		ldr	r3, [r3, #4]
  44:../src/tensorflow_lite/src/tensorflow/lite/micro/kernels/pack.cpp ****     outer_size *= output_dims->data[i];
 1758              		.loc 1 44 0
 1759 0fcc 020057E1 		cmp	r7, r2
  45:../src/tensorflow_lite/src/tensorflow/lite/micro/kernels/pack.cpp ****   }
 1760              		.loc 1 45 0
 1761 0fd0 930606E0 		mul	r6, r3, r6
 1762              	.LVL212:
  44:../src/tensorflow_lite/src/tensorflow/lite/micro/kernels/pack.cpp ****     outer_size *= output_dims->data[i];
 1763              		.loc 1 44 0
  45:../src/tensorflow_lite/src/tensorflow/lite/micro/kernels/pack.cpp ****   }
 1764              		.loc 1 45 0
 1765 0fd4 022181C0 		addgt	r2, r1, r2, lsl #2
 1766              	.LVL213:
 1767 0fd8 043092C5 		ldrgt	r3, [r2, #4]
 1768 0fdc 930606C0 		mulgt	r6, r3, r6
 1769              	.LVL214:
 1770              	.L164:
 1771              	.LBE331:
 1772              	.LBB332:
  48:../src/tensorflow_lite/src/tensorflow/lite/micro/kernels/pack.cpp ****     copy_size *= output_dims->data[i];
 1773              		.loc 1 48 0
 1774 0fe0 013087E2 		add	r3, r7, #1
 1775              	.LVL215:
 1776 0fe4 030058E1 		cmp	r8, r3
 1777 0fe8 8C0500DA 		ble	.L624
 1778 0fec 029087E2 		add	r9, r7, #2
 1779 0ff0 01E048E2 		sub	lr, r8, #1
 1780 0ff4 092181E0 		add	r2, r1, r9, lsl #2
 1781 0ff8 07E04EE0 		sub	lr, lr, r7
 1782 0ffc 5201A0E7 		sbfx	r0, r2, #2, #1
 1783 1000 030000E2 		and	r0, r0, #3
 1784 1004 0E0050E1 		cmp	r0, lr
 1785 1008 0E00A021 		movcs	r0, lr
 1786 100c 08005EE3 		cmp	lr, #8
 1787 1010 0E00A091 		movls	r0, lr
 1788 1014 000050E3 		cmp	r0, #0
 1789 1018 3A05000A 		beq	.L339
  49:../src/tensorflow_lite/src/tensorflow/lite/micro/kernels/pack.cpp ****   }
 1790              		.loc 1 49 0
 1791 101c 034181E0 		add	r4, r1, r3, lsl #2
 1792 1020 010050E3 		cmp	r0, #1
  48:../src/tensorflow_lite/src/tensorflow/lite/micro/kernels/pack.cpp ****     copy_size *= output_dims->data[i];
 1793              		.loc 1 48 0
 1794 1024 0930A0E1 		mov	r3, r9
 1795              	.LVL216:
  49:../src/tensorflow_lite/src/tensorflow/lite/micro/kernels/pack.cpp ****   }
 1796              		.loc 1 49 0
 1797 1028 044094E5 		ldr	r4, [r4, #4]
 1798              	.LVL217:
 1799 102c 2500000A 		beq	.L180
 1800 1030 042092E5 		ldr	r2, [r2, #4]
 1801 1034 020050E3 		cmp	r0, #2
  48:../src/tensorflow_lite/src/tensorflow/lite/micro/kernels/pack.cpp ****     copy_size *= output_dims->data[i];
 1802              		.loc 1 48 0
 1803 1038 033087E2 		add	r3, r7, #3
 1804              	.LVL218:
  49:../src/tensorflow_lite/src/tensorflow/lite/micro/kernels/pack.cpp ****   }
 1805              		.loc 1 49 0
 1806 103c 920404E0 		mul	r4, r2, r4
 1807              	.LVL219:
 1808 1040 2000000A 		beq	.L180
 1809 1044 033181E0 		add	r3, r1, r3, lsl #2
 1810              	.LVL220:
 1811 1048 030050E3 		cmp	r0, #3
 1812 104c 042093E5 		ldr	r2, [r3, #4]
  48:../src/tensorflow_lite/src/tensorflow/lite/micro/kernels/pack.cpp ****     copy_size *= output_dims->data[i];
 1813              		.loc 1 48 0
 1814 1050 043087E2 		add	r3, r7, #4
  49:../src/tensorflow_lite/src/tensorflow/lite/micro/kernels/pack.cpp ****   }
 1815              		.loc 1 49 0
 1816 1054 920404E0 		mul	r4, r2, r4
 1817              	.LVL221:
 1818 1058 1A00000A 		beq	.L180
 1819 105c 033181E0 		add	r3, r1, r3, lsl #2
 1820              	.LVL222:
 1821 1060 040050E3 		cmp	r0, #4
 1822 1064 042093E5 		ldr	r2, [r3, #4]
  48:../src/tensorflow_lite/src/tensorflow/lite/micro/kernels/pack.cpp ****     copy_size *= output_dims->data[i];
 1823              		.loc 1 48 0
 1824 1068 053087E2 		add	r3, r7, #5
  49:../src/tensorflow_lite/src/tensorflow/lite/micro/kernels/pack.cpp ****   }
 1825              		.loc 1 49 0
 1826 106c 920404E0 		mul	r4, r2, r4
 1827              	.LVL223:
 1828 1070 1400000A 		beq	.L180
 1829 1074 033181E0 		add	r3, r1, r3, lsl #2
 1830              	.LVL224:
 1831 1078 050050E3 		cmp	r0, #5
 1832 107c 042093E5 		ldr	r2, [r3, #4]
  48:../src/tensorflow_lite/src/tensorflow/lite/micro/kernels/pack.cpp ****     copy_size *= output_dims->data[i];
 1833              		.loc 1 48 0
 1834 1080 063087E2 		add	r3, r7, #6
  49:../src/tensorflow_lite/src/tensorflow/lite/micro/kernels/pack.cpp ****   }
 1835              		.loc 1 49 0
 1836 1084 920404E0 		mul	r4, r2, r4
 1837              	.LVL225:
 1838 1088 0E00000A 		beq	.L180
 1839 108c 033181E0 		add	r3, r1, r3, lsl #2
 1840              	.LVL226:
 1841 1090 060050E3 		cmp	r0, #6
 1842 1094 042093E5 		ldr	r2, [r3, #4]
  48:../src/tensorflow_lite/src/tensorflow/lite/micro/kernels/pack.cpp ****     copy_size *= output_dims->data[i];
 1843              		.loc 1 48 0
 1844 1098 073087E2 		add	r3, r7, #7
  49:../src/tensorflow_lite/src/tensorflow/lite/micro/kernels/pack.cpp ****   }
 1845              		.loc 1 49 0
 1846 109c 920404E0 		mul	r4, r2, r4
 1847              	.LVL227:
 1848 10a0 0800000A 		beq	.L180
 1849 10a4 033181E0 		add	r3, r1, r3, lsl #2
 1850              	.LVL228:
 1851 10a8 070050E3 		cmp	r0, #7
 1852 10ac 042093E5 		ldr	r2, [r3, #4]
  48:../src/tensorflow_lite/src/tensorflow/lite/micro/kernels/pack.cpp ****     copy_size *= output_dims->data[i];
 1853              		.loc 1 48 0
 1854 10b0 083087E2 		add	r3, r7, #8
  49:../src/tensorflow_lite/src/tensorflow/lite/micro/kernels/pack.cpp ****   }
 1855              		.loc 1 49 0
 1856 10b4 920404E0 		mul	r4, r2, r4
 1857              	.LVL229:
 1858 10b8 03218110 		addne	r2, r1, r3, lsl #2
  48:../src/tensorflow_lite/src/tensorflow/lite/micro/kernels/pack.cpp ****     copy_size *= output_dims->data[i];
 1859              		.loc 1 48 0
 1860 10bc 09308712 		addne	r3, r7, #9
 1861              	.LVL230:
  49:../src/tensorflow_lite/src/tensorflow/lite/micro/kernels/pack.cpp ****   }
 1862              		.loc 1 49 0
 1863 10c0 04209215 		ldrne	r2, [r2, #4]
 1864 10c4 92040410 		mulne	r4, r2, r4
 1865              	.LVL231:
 1866              	.L180:
 1867 10c8 00005EE1 		cmp	lr, r0
 1868 10cc 2B00000A 		beq	.L188
 1869              	.LVL232:
 1870              	.L179:
 1871 10d0 072048E0 		sub	r2, r8, r7
 1872 10d4 00E04EE0 		sub	lr, lr, r0
 1873 10d8 022042E2 		sub	r2, r2, #2
 1874 10dc 04704EE2 		sub	r7, lr, #4
 1875              	.LVL233:
 1876 10e0 002042E0 		sub	r2, r2, r0
 1877 10e4 2771A0E1 		lsr	r7, r7, #2
 1878 10e8 020052E3 		cmp	r2, #2
 1879 10ec 012087E2 		add	r2, r7, #1
 1880 10f0 0271A0E1 		lsl	r7, r2, #2
 1881 10f4 1300009A 		bls	.L182
 1882 10f8 000089E0 		add	r0, r9, r0
  48:../src/tensorflow_lite/src/tensorflow/lite/micro/kernels/pack.cpp ****     copy_size *= output_dims->data[i];
 1883              		.loc 1 48 0
 1884 10fc 5100C0F2 		vmov.i32	q8, #1  @ v4si
 1885 1100 000181E0 		add	r0, r1, r0, lsl #2
 1886 1104 0090A0E3 		mov	r9, #0
 1887              	.LVL234:
 1888              	.L184:
 1889 1108 019089E2 		add	r9, r9, #1
  49:../src/tensorflow_lite/src/tensorflow/lite/micro/kernels/pack.cpp ****   }
 1890              		.loc 1 49 0
 1891 110c DF2A60F4 		vld1.64	{d18-d19}, [r0:64]
 1892 1110 090052E1 		cmp	r2, r9
 1893 1114 100080E2 		add	r0, r0, #16
 1894 1118 F20960F2 		vmul.i32	q8, q8, q9
 1895 111c F9FFFF8A 		bhi	.L184
 1896 1120 07005EE1 		cmp	lr, r7
 1897 1124 073083E0 		add	r3, r3, r7
 1898 1128 5020C0F2 		vmov.i32	q9, #0  @ v4si
 1899 112c E248F0F2 		vext.32	q10, q8, q9, #2
 1900 1130 F40960F2 		vmul.i32	q8, q8, q10
 1901 1134 E224F0F2 		vext.32	q9, q8, q9, #1
 1902 1138 F20960F2 		vmul.i32	q8, q8, q9
 1903 113c 902B10EE 		vmov.32	r2, d16[0]
 1904 1140 920404E0 		mul	r4, r2, r4
 1905 1144 0D00000A 		beq	.L188
 1906              	.L182:
 1907              	.LVL235:
 1908 1148 030181E0 		add	r0, r1, r3, lsl #2
  48:../src/tensorflow_lite/src/tensorflow/lite/micro/kernels/pack.cpp ****     copy_size *= output_dims->data[i];
 1909              		.loc 1 48 0
 1910 114c 012083E2 		add	r2, r3, #1
  49:../src/tensorflow_lite/src/tensorflow/lite/micro/kernels/pack.cpp ****   }
 1911              		.loc 1 49 0
 1912 1150 040090E5 		ldr	r0, [r0, #4]
  48:../src/tensorflow_lite/src/tensorflow/lite/micro/kernels/pack.cpp ****     copy_size *= output_dims->data[i];
 1913              		.loc 1 48 0
 1914 1154 020058E1 		cmp	r8, r2
  49:../src/tensorflow_lite/src/tensorflow/lite/micro/kernels/pack.cpp ****   }
 1915              		.loc 1 49 0
 1916 1158 900404E0 		mul	r4, r0, r4
 1917              	.LVL236:
  48:../src/tensorflow_lite/src/tensorflow/lite/micro/kernels/pack.cpp ****     copy_size *= output_dims->data[i];
 1918              		.loc 1 48 0
 1919 115c 070000DA 		ble	.L188
  49:../src/tensorflow_lite/src/tensorflow/lite/micro/kernels/pack.cpp ****   }
 1920              		.loc 1 49 0
 1921 1160 022181E0 		add	r2, r1, r2, lsl #2
 1922              	.LVL237:
  48:../src/tensorflow_lite/src/tensorflow/lite/micro/kernels/pack.cpp ****     copy_size *= output_dims->data[i];
 1923              		.loc 1 48 0
 1924 1164 023083E2 		add	r3, r3, #2
 1925              	.LVL238:
  49:../src/tensorflow_lite/src/tensorflow/lite/micro/kernels/pack.cpp ****   }
 1926              		.loc 1 49 0
 1927 1168 042092E5 		ldr	r2, [r2, #4]
  48:../src/tensorflow_lite/src/tensorflow/lite/micro/kernels/pack.cpp ****     copy_size *= output_dims->data[i];
 1928              		.loc 1 48 0
 1929 116c 030058E1 		cmp	r8, r3
  49:../src/tensorflow_lite/src/tensorflow/lite/micro/kernels/pack.cpp ****   }
 1930              		.loc 1 49 0
 1931 1170 920404E0 		mul	r4, r2, r4
 1932              	.LVL239:
  48:../src/tensorflow_lite/src/tensorflow/lite/micro/kernels/pack.cpp ****     copy_size *= output_dims->data[i];
 1933              		.loc 1 48 0
  49:../src/tensorflow_lite/src/tensorflow/lite/micro/kernels/pack.cpp ****   }
 1934              		.loc 1 49 0
 1935 1174 033181C0 		addgt	r3, r1, r3, lsl #2
 1936              	.LVL240:
 1937 1178 043093C5 		ldrgt	r3, [r3, #4]
 1938 117c 930404C0 		mulgt	r4, r3, r4
 1939              	.LVL241:
 1940              	.L188:
 1941              	.LBE332:
 1942              	.LBB333:
  52:../src/tensorflow_lite/src/tensorflow/lite/micro/kernels/pack.cpp ****     input_size *= input_dims->data[i];
 1943              		.loc 1 52 0
 1944 1180 00009CE5 		ldr	r0, [ip]
 1945 1184 000050E3 		cmp	r0, #0
 1946 1188 220500DA 		ble	.L625
 1947 118c 04308CE2 		add	r3, ip, #4
 1948 1190 5331A0E7 		sbfx	r3, r3, #2, #1
 1949 1194 033003E2 		and	r3, r3, #3
 1950 1198 000053E1 		cmp	r3, r0
 1951 119c 0030A021 		movcs	r3, r0
 1952 11a0 080050E3 		cmp	r0, #8
 1953 11a4 0030A0D1 		movle	r3, r0
 1954 11a8 D10400CA 		bgt	.L626
 1955              	.LVL242:
 1956              	.L189:
 1957 11ac 010053E3 		cmp	r3, #1
  53:../src/tensorflow_lite/src/tensorflow/lite/micro/kernels/pack.cpp ****   }
 1958              		.loc 1 53 0
 1959 11b0 04209CE5 		ldr	r2, [ip, #4]
 1960              	.LVL243:
 1961 11b4 1505000A 		beq	.L348
 1962 11b8 08109CE5 		ldr	r1, [ip, #8]
 1963 11bc 020053E3 		cmp	r3, #2
 1964 11c0 910202E0 		mul	r2, r1, r2
 1965              	.LVL244:
 1966 11c4 1105000A 		beq	.L348
 1967 11c8 0C109CE5 		ldr	r1, [ip, #12]
 1968 11cc 030053E3 		cmp	r3, #3
 1969 11d0 910202E0 		mul	r2, r1, r2
 1970              	.LVL245:
 1971 11d4 0D05000A 		beq	.L348
 1972 11d8 10109CE5 		ldr	r1, [ip, #16]
 1973 11dc 040053E3 		cmp	r3, #4
 1974 11e0 910202E0 		mul	r2, r1, r2
 1975              	.LVL246:
 1976 11e4 0905000A 		beq	.L348
 1977 11e8 14109CE5 		ldr	r1, [ip, #20]
 1978 11ec 050053E3 		cmp	r3, #5
 1979 11f0 910202E0 		mul	r2, r1, r2
 1980              	.LVL247:
 1981 11f4 0505000A 		beq	.L348
 1982 11f8 18109CE5 		ldr	r1, [ip, #24]
 1983 11fc 060053E3 		cmp	r3, #6
 1984 1200 910202E0 		mul	r2, r1, r2
 1985              	.LVL248:
 1986 1204 0105000A 		beq	.L348
 1987 1208 1C109CE5 		ldr	r1, [ip, #28]
 1988 120c 070053E3 		cmp	r3, #7
 1989 1210 910202E0 		mul	r2, r1, r2
 1990              	.LVL249:
 1991 1214 FD04000A 		beq	.L348
 1992 1218 20E09CE5 		ldr	lr, [ip, #32]
  52:../src/tensorflow_lite/src/tensorflow/lite/micro/kernels/pack.cpp ****     input_size *= input_dims->data[i];
 1993              		.loc 1 52 0
 1994 121c 0810A0E3 		mov	r1, #8
  53:../src/tensorflow_lite/src/tensorflow/lite/micro/kernels/pack.cpp ****   }
 1995              		.loc 1 53 0
 1996 1220 9E0202E0 		mul	r2, lr, r2
 1997              	.LVL250:
 1998              	.L191:
 1999 1224 030050E1 		cmp	r0, r3
 2000 1228 2A00000A 		beq	.L176
 2001              	.LVL251:
 2002              	.L190:
 2003 122c 039040E0 		sub	r9, r0, r3
 2004 1230 017040E2 		sub	r7, r0, #1
 2005 1234 04E049E2 		sub	lr, r9, #4
 2006 1238 037047E0 		sub	r7, r7, r3
 2007 123c 2EE1A0E1 		lsr	lr, lr, #2
 2008 1240 020057E3 		cmp	r7, #2
 2009 1244 01E08EE2 		add	lr, lr, #1
 2010 1248 0E81A0E1 		lsl	r8, lr, #2
 2011              	.LVL252:
 2012 124c 1300009A 		bls	.L193
 2013 1250 013083E2 		add	r3, r3, #1
  52:../src/tensorflow_lite/src/tensorflow/lite/micro/kernels/pack.cpp ****     input_size *= input_dims->data[i];
 2014              		.loc 1 52 0
 2015 1254 5100C0F2 		vmov.i32	q8, #1  @ v4si
 2016 1258 03318CE0 		add	r3, ip, r3, lsl #2
 2017 125c 0070A0E3 		mov	r7, #0
 2018              	.L195:
 2019 1260 017087E2 		add	r7, r7, #1
  53:../src/tensorflow_lite/src/tensorflow/lite/micro/kernels/pack.cpp ****   }
 2020              		.loc 1 53 0
 2021 1264 DF2A63F4 		vld1.64	{d18-d19}, [r3:64]
 2022 1268 07005EE1 		cmp	lr, r7
 2023 126c 103083E2 		add	r3, r3, #16
 2024 1270 F20960F2 		vmul.i32	q8, q8, q9
 2025 1274 F9FFFF8A 		bhi	.L195
 2026 1278 080059E1 		cmp	r9, r8
 2027 127c 081081E0 		add	r1, r1, r8
 2028 1280 5020C0F2 		vmov.i32	q9, #0  @ v4si
 2029 1284 E248F0F2 		vext.32	q10, q8, q9, #2
 2030 1288 F40960F2 		vmul.i32	q8, q8, q10
 2031 128c E224F0F2 		vext.32	q9, q8, q9, #1
 2032 1290 F20960F2 		vmul.i32	q8, q8, q9
 2033 1294 903B10EE 		vmov.32	r3, d16[0]
 2034 1298 930202E0 		mul	r2, r3, r2
 2035 129c 0D00000A 		beq	.L176
 2036              	.L193:
 2037              	.LVL253:
 2038 12a0 01E18CE0 		add	lr, ip, r1, lsl #2
  52:../src/tensorflow_lite/src/tensorflow/lite/micro/kernels/pack.cpp ****     input_size *= input_dims->data[i];
 2039              		.loc 1 52 0
 2040 12a4 013081E2 		add	r3, r1, #1
  53:../src/tensorflow_lite/src/tensorflow/lite/micro/kernels/pack.cpp ****   }
 2041              		.loc 1 53 0
 2042 12a8 04E09EE5 		ldr	lr, [lr, #4]
  52:../src/tensorflow_lite/src/tensorflow/lite/micro/kernels/pack.cpp ****     input_size *= input_dims->data[i];
 2043              		.loc 1 52 0
 2044 12ac 030050E1 		cmp	r0, r3
  53:../src/tensorflow_lite/src/tensorflow/lite/micro/kernels/pack.cpp ****   }
 2045              		.loc 1 53 0
 2046 12b0 9E0202E0 		mul	r2, lr, r2
 2047              	.LVL254:
  52:../src/tensorflow_lite/src/tensorflow/lite/micro/kernels/pack.cpp ****     input_size *= input_dims->data[i];
 2048              		.loc 1 52 0
 2049 12b4 070000DA 		ble	.L176
  53:../src/tensorflow_lite/src/tensorflow/lite/micro/kernels/pack.cpp ****   }
 2050              		.loc 1 53 0
 2051 12b8 03318CE0 		add	r3, ip, r3, lsl #2
 2052              	.LVL255:
  52:../src/tensorflow_lite/src/tensorflow/lite/micro/kernels/pack.cpp ****     input_size *= input_dims->data[i];
 2053              		.loc 1 52 0
 2054 12bc 021081E2 		add	r1, r1, #2
 2055              	.LVL256:
  53:../src/tensorflow_lite/src/tensorflow/lite/micro/kernels/pack.cpp ****   }
 2056              		.loc 1 53 0
 2057 12c0 043093E5 		ldr	r3, [r3, #4]
  52:../src/tensorflow_lite/src/tensorflow/lite/micro/kernels/pack.cpp ****     input_size *= input_dims->data[i];
 2058              		.loc 1 52 0
 2059 12c4 010050E1 		cmp	r0, r1
  53:../src/tensorflow_lite/src/tensorflow/lite/micro/kernels/pack.cpp ****   }
 2060              		.loc 1 53 0
 2061 12c8 930202E0 		mul	r2, r3, r2
 2062              	.LVL257:
  52:../src/tensorflow_lite/src/tensorflow/lite/micro/kernels/pack.cpp ****     input_size *= input_dims->data[i];
 2063              		.loc 1 52 0
  53:../src/tensorflow_lite/src/tensorflow/lite/micro/kernels/pack.cpp ****   }
 2064              		.loc 1 53 0
 2065 12cc 01118CC0 		addgt	r1, ip, r1, lsl #2
 2066              	.LVL258:
 2067 12d0 043091C5 		ldrgt	r3, [r1, #4]
 2068 12d4 930202C0 		mulgt	r2, r3, r2
 2069              	.LVL259:
 2070              	.L176:
 2071              	.LBE333:
  55:../src/tensorflow_lite/src/tensorflow/lite/micro/kernels/pack.cpp **** 
 2072              		.loc 1 55 0
 2073 12d8 960403E0 		mul	r3, r6, r4
 2074 12dc 020053E1 		cmp	r3, r2
 2075 12e0 B504001A 		bne	.L46
 2076              	.LVL260:
 2077              	.LBB334:
  59:../src/tensorflow_lite/src/tensorflow/lite/micro/kernels/pack.cpp ****     const TfLiteEvalTensor* t = tflite::micro::GetEvalInput(context, node, i);
 2078              		.loc 1 59 0
 2079 12e4 2C309DE5 		ldr	r3, [sp, #44]
 2080              	.LBE334:
 2081              	.LBB353:
 2082              	.LBB354:
  56:C:/Renesas/e2studio_2021_01_workspace_RZA2M_ANPR/ANPR_RZA2M_GR_MANGO/src/tensorflow_lite/src/tensorflow/lite/micro/kernels\kernel_util.h **** }
 2083              		.loc 2 56 0
 2084 12e8 005095E5 		ldr	r5, [r5]
 2085              	.LVL261:
 2086              	.LBE354:
 2087              	.LBE353:
 2088              	.LBB355:
  59:../src/tensorflow_lite/src/tensorflow/lite/micro/kernels/pack.cpp ****     const TfLiteEvalTensor* t = tflite::micro::GetEvalInput(context, node, i);
 2089              		.loc 1 59 0
 2090 12ec 000053E3 		cmp	r3, #0
 2091 12f0 3DFDFFDA 		ble	.L50
 2092 12f4 042044E2 		sub	r2, r4, #4
 2093 12f8 940301E0 		mul	r1, r4, r3
 2094 12fc 2221A0E1 		lsr	r2, r2, #2
 2095 1300 093044E2 		sub	r3, r4, #9
 2096 1304 0471A0E1 		lsl	r7, r4, #2
 2097 1308 24508DE5 		str	r5, [sp, #36]
 2098 130c 012082E2 		add	r2, r2, #1
 2099 1310 0C208DE5 		str	r2, [sp, #12]
 2100 1314 0730C3E3 		bic	r3, r3, #7
 2101 1318 0221A0E1 		lsl	r2, r2, #2
 2102 131c 083083E2 		add	r3, r3, #8
 2103 1320 28308DE5 		str	r3, [sp, #40]
 2104 1324 013044E2 		sub	r3, r4, #1
 2105 1328 10208DE5 		str	r2, [sp, #16]
 2106 132c 0121A0E1 		lsl	r2, r1, #2
 2107 1330 08308DE5 		str	r3, [sp, #8]
 2108 1334 0030A0E3 		mov	r3, #0
 2109 1338 04208DE5 		str	r2, [sp, #4]
 2110 133c 20308DE5 		str	r3, [sp, #32]
 2111              	.LVL262:
 2112              	.L200:
 2113              	.LBB335:
 2114              	.LBB336:
 2115              	.LBB337:
 2116              	.LBB338:
  36:C:/Renesas/e2studio_2021_01_workspace_RZA2M_ANPR/ANPR_RZA2M_GR_MANGO/src/tensorflow_lite/src/tensorflow/lite/micro/kernels\kernel_util.h **** }
 2117              		.loc 2 36 0
 2118 1340 18309DE5 		ldr	r3, [sp, #24]
 2119 1344 20109DE5 		ldr	r1, [sp, #32]
 2120 1348 002093E5 		ldr	r2, [r3]
 2121 134c 14309DE5 		ldr	r3, [sp, #20]
 2122 1350 012182E0 		add	r2, r2, r1, lsl #2
 2123 1354 0300A0E1 		mov	r0, r3
 2124 1358 543093E5 		ldr	r3, [r3, #84]
 2125 135c 041092E5 		ldr	r1, [r2, #4]
 2126 1360 33FF2FE1 		blx	r3
 2127              	.LVL263:
 2128              	.LBE338:
 2129              	.LBE337:
 2130              	.LBE336:
 2131              	.LBB339:
 2132              	.LBB340:
  62:C:/Renesas/e2studio_2021_01_workspace_RZA2M_ANPR/ANPR_RZA2M_GR_MANGO/src/tensorflow_lite/src/tensorflow/lite/micro/kernels\kernel_util.h ****   return reinterpret_cast<const T*>(tensor->data.raw);
 2133              		.loc 2 62 0
 2134 1364 000050E3 		cmp	r0, #0
 2135 1368 9304000A 		beq	.L46
 2136              	.LBE340:
 2137              	.LBE339:
 2138              	.LBB342:
  62:../src/tensorflow_lite/src/tensorflow/lite/micro/kernels/pack.cpp ****       const T* input_ptr = input_data + copy_size * k;
 2139              		.loc 1 62 0
 2140 136c 000056E3 		cmp	r6, #0
 2141              	.LBE342:
 2142              	.LBB349:
 2143              	.LBB341:
 2144              		.loc 2 63 0
 2145 1370 009090E5 		ldr	r9, [r0]
 2146              	.LVL264:
 2147              	.LBE341:
 2148              	.LBE349:
 2149              	.LBB350:
  62:../src/tensorflow_lite/src/tensorflow/lite/micro/kernels/pack.cpp ****       const T* input_ptr = input_data + copy_size * k;
 2150              		.loc 1 62 0
 2151 1374 480400DA 		ble	.L201
 2152 1378 000054E3 		cmp	r4, #0
 2153 137c 460400DA 		ble	.L201
 2154 1380 24009DE5 		ldr	r0, [sp, #36]
 2155 1384 0910A0E1 		mov	r1, r9
 2156 1388 00A0A0E3 		mov	r10, #0
 2157 138c 290000EA 		b	.L204
 2158              	.LVL265:
 2159              	.L628:
 2160 1390 0CB09DE5 		ldr	fp, [sp, #12]
 2161 1394 01E0A0E1 		mov	lr, r1
 2162 1398 00C0A0E1 		mov	ip, r0
 2163 139c 0020A0E3 		mov	r2, #0
 2164              	.LVL266:
 2165              	.L207:
 2166 13a0 012082E2 		add	r2, r2, #1
 2167              	.LBB343:
 2168              	.LBB344:
  66:../src/tensorflow_lite/src/tensorflow/lite/micro/kernels/pack.cpp ****     }
 2169              		.loc 1 66 0
 2170 13a4 DF0A6EF4 		vld1.64	{d16-d17}, [lr:64]
 2171 13a8 02005BE1 		cmp	fp, r2
 2172 13ac 10E08EE2 		add	lr, lr, #16
 2173 13b0 DF0A4CF4 		vst1.64	{d16-d17}, [ip:64]
 2174 13b4 10C08CE2 		add	ip, ip, #16
 2175 13b8 F8FFFF8A 		bhi	.L207
 2176 13bc 10209DE5 		ldr	r2, [sp, #16]
 2177 13c0 040052E1 		cmp	r2, r4
 2178 13c4 02E0A011 		movne	lr, r2
 2179 13c8 1400000A 		beq	.L212
 2180              	.L205:
 2181 13cc 0E21A0E1 		lsl	r2, lr, #2
 2182 13d0 01C08EE2 		add	ip, lr, #1
 2183 13d4 0C0054E1 		cmp	r4, ip
 2184 13d8 02B089E0 		add	fp, r9, r2
 2185 13dc 02C085E0 		add	ip, r5, r2
 2186 13e0 03B09BE7 		ldr	fp, [fp, r3]
 2187 13e4 08B08CE7 		str	fp, [ip, r8]
 2188 13e8 0C0000DA 		ble	.L212
 2189 13ec 04C082E2 		add	ip, r2, #4
 2190 13f0 02E08EE2 		add	lr, lr, #2
 2191 13f4 0CB089E0 		add	fp, r9, ip
 2192 13f8 0E0054E1 		cmp	r4, lr
 2193 13fc 03E09BE7 		ldr	lr, [fp, r3]
 2194 1400 0CC085E0 		add	ip, r5, ip
 2195 1404 08E08CE7 		str	lr, [ip, r8]
 2196 1408 040000DA 		ble	.L212
 2197 140c 082082E2 		add	r2, r2, #8
 2198 1410 02C089E0 		add	ip, r9, r2
 2199 1414 022085E0 		add	r2, r5, r2
 2200 1418 03309CE7 		ldr	r3, [ip, r3]
 2201              	.LVL267:
 2202 141c 083082E7 		str	r3, [r2, r8]
 2203              	.LVL268:
 2204              	.L212:
 2205              	.LBE344:
 2206              	.LBE343:
  62:../src/tensorflow_lite/src/tensorflow/lite/micro/kernels/pack.cpp ****       const T* input_ptr = input_data + copy_size * k;
 2207              		.loc 1 62 0
 2208 1420 01A08AE2 		add	r10, r10, #1
 2209              	.LVL269:
 2210 1424 04309DE5 		ldr	r3, [sp, #4]
 2211 1428 06005AE1 		cmp	r10, r6
 2212 142c 071081E0 		add	r1, r1, r7
 2213              	.LVL270:
 2214 1430 030080E0 		add	r0, r0, r3
 2215              	.LVL271:
 2216 1434 1804000A 		beq	.L201
 2217              	.LVL272:
 2218              	.L204:
 2219 1438 00C081E1 		orr	ip, r1, r0
 2220 143c 090054E3 		cmp	r4, #9
 2221 1440 5CC0E3E7 		ubfx	ip, ip, #0, #4
 2222 1444 0080A093 		movls	r8, #0
 2223 1448 0180A083 		movhi	r8, #1
 2224 144c 103081E2 		add	r3, r1, #16
 2225 1450 00005CE3 		cmp	ip, #0
 2226 1454 10E080E2 		add	lr, r0, #16
 2227 1458 0080A013 		movne	r8, #0
 2228 145c 0E0051E1 		cmp	r1, lr
 2229 1460 03005031 		cmpcc	r0, r3
 2230 1464 0120A023 		movcs	r2, #1
 2231 1468 0020A033 		movcc	r2, #0
 2232 146c 022018E0 		ands	r2, r8, r2
 2233 1470 093041E0 		sub	r3, r1, r9
 2234              	.LVL273:
 2235 1474 058040E0 		sub	r8, r0, r5
 2236              	.LVL274:
 2237 1478 8F03000A 		beq	.L627
 2238 147c 08209DE5 		ldr	r2, [sp, #8]
 2239 1480 020052E3 		cmp	r2, #2
 2240 1484 C1FFFF8A 		bhi	.L628
 2241              	.LBB347:
 2242              	.LBB345:
  66:../src/tensorflow_lite/src/tensorflow/lite/micro/kernels/pack.cpp ****     }
 2243              		.loc 1 66 0
 2244 1488 00E0A0E3 		mov	lr, #0
 2245 148c CEFFFFEA 		b	.L205
 2246              	.LVL275:
 2247              	.L7:
 2248              	.LBE345:
 2249              	.LBE347:
 2250              	.LBE350:
 2251              	.LBE335:
 2252              	.LBE355:
 2253              	.LBE365:
 2254              	.LBE372:
 2255              	.LBB373:
 2256              	.LBB374:
 2257              	.LBB375:
 2258              	.LBB376:
 2259              	.LBB377:
  36:C:/Renesas/e2studio_2021_01_workspace_RZA2M_ANPR/ANPR_RZA2M_GR_MANGO/src/tensorflow_lite/src/tensorflow/lite/micro/kernels\kernel_util.h **** }
 2260              		.loc 2 36 0
 2261 1490 18309DE5 		ldr	r3, [sp, #24]
 2262              	.LBE377:
 2263              	.LBE376:
 2264              	.LBE375:
 2265              	.LBE374:
 2266              	.LBE373:
  87:../src/tensorflow_lite/src/tensorflow/lite/micro/kernels/pack.cpp ****     }
 2267              		.loc 1 87 0
 2268 1494 047094E5 		ldr	r7, [r4, #4]
 2269              	.LBB429:
 2270              	.LBB421:
 2271              	.LBB384:
 2272              	.LBB381:
 2273              	.LBB378:
  36:C:/Renesas/e2studio_2021_01_workspace_RZA2M_ANPR/ANPR_RZA2M_GR_MANGO/src/tensorflow_lite/src/tensorflow/lite/micro/kernels\kernel_util.h **** }
 2274              		.loc 2 36 0
 2275 1498 002093E5 		ldr	r2, [r3]
 2276 149c 14309DE5 		ldr	r3, [sp, #20]
 2277              	.LVL276:
 2278 14a0 041092E5 		ldr	r1, [r2, #4]
 2279              	.LBE378:
 2280              	.LBE381:
 2281              	.LBE384:
 2282              	.LBE421:
 2283              	.LBE429:
  86:../src/tensorflow_lite/src/tensorflow/lite/micro/kernels/pack.cpp ****                                data->axis);
 2284              		.loc 1 86 0
 2285 14a4 002094E5 		ldr	r2, [r4]
 2286              	.LBB430:
 2287              	.LBB422:
 2288              	.LBB385:
 2289              	.LBB382:
 2290              	.LBB379:
  36:C:/Renesas/e2studio_2021_01_workspace_RZA2M_ANPR/ANPR_RZA2M_GR_MANGO/src/tensorflow_lite/src/tensorflow/lite/micro/kernels\kernel_util.h **** }
 2291              		.loc 2 36 0
 2292 14a8 0300A0E1 		mov	r0, r3
 2293 14ac 543093E5 		ldr	r3, [r3, #84]
 2294              	.LVL277:
 2295              	.LBE379:
 2296              	.LBE382:
 2297              	.LBE385:
 2298              	.LBE422:
 2299              	.LBE430:
  86:../src/tensorflow_lite/src/tensorflow/lite/micro/kernels/pack.cpp ****                                data->axis);
 2300              		.loc 1 86 0
 2301 14b0 20208DE5 		str	r2, [sp, #32]
 2302              	.LVL278:
 2303              	.LBB431:
 2304              	.LBB423:
 2305              	.LBB386:
 2306              	.LBB383:
 2307              	.LBB380:
  36:C:/Renesas/e2studio_2021_01_workspace_RZA2M_ANPR/ANPR_RZA2M_GR_MANGO/src/tensorflow_lite/src/tensorflow/lite/micro/kernels\kernel_util.h **** }
 2308              		.loc 2 36 0
 2309 14b4 33FF2FE1 		blx	r3
 2310              	.LVL279:
 2311              	.LBE380:
 2312              	.LBE383:
 2313              	.LBE386:
  35:../src/tensorflow_lite/src/tensorflow/lite/micro/kernels/pack.cpp ****   const TfLiteIntArray* input_dims = input0->dims;
 2314              		.loc 1 35 0
 2315 14b8 041095E5 		ldr	r1, [r5, #4]
  39:../src/tensorflow_lite/src/tensorflow/lite/micro/kernels/pack.cpp ****     axis += dimensions;
 2316              		.loc 1 39 0
 2317 14bc 000057E3 		cmp	r7, #0
  36:../src/tensorflow_lite/src/tensorflow/lite/micro/kernels/pack.cpp ****   const TfLiteIntArray* output_dims = output->dims;
 2318              		.loc 1 36 0
 2319 14c0 04C090E5 		ldr	ip, [r0, #4]
  35:../src/tensorflow_lite/src/tensorflow/lite/micro/kernels/pack.cpp ****   const TfLiteIntArray* input_dims = input0->dims;
 2320              		.loc 1 35 0
 2321 14c4 008091E5 		ldr	r8, [r1]
 2322              	.LVL280:
  40:../src/tensorflow_lite/src/tensorflow/lite/micro/kernels/pack.cpp ****   }
 2323              		.loc 1 40 0
 2324 14c8 087087B0 		addlt	r7, r7, r8
 2325              	.LVL281:
 2326              	.LBB387:
  44:../src/tensorflow_lite/src/tensorflow/lite/micro/kernels/pack.cpp ****     outer_size *= output_dims->data[i];
 2327              		.loc 1 44 0
 2328 14cc 000057E3 		cmp	r7, #0
 2329 14d0 4C0400DA 		ble	.L284
 2330 14d4 043081E2 		add	r3, r1, #4
 2331 14d8 5331A0E7 		sbfx	r3, r3, #2, #1
 2332 14dc 033003E2 		and	r3, r3, #3
 2333 14e0 070053E1 		cmp	r3, r7
 2334 14e4 0730A021 		movcs	r3, r7
 2335 14e8 080057E3 		cmp	r7, #8
 2336 14ec 0730A0D1 		movle	r3, r7
 2337 14f0 2A0400CA 		bgt	.L629
 2338              	.L67:
 2339 14f4 010053E3 		cmp	r3, #1
  45:../src/tensorflow_lite/src/tensorflow/lite/micro/kernels/pack.cpp ****   }
 2340              		.loc 1 45 0
 2341 14f8 046091E5 		ldr	r6, [r1, #4]
 2342              	.LVL282:
 2343 14fc 3F04000A 		beq	.L293
 2344 1500 082091E5 		ldr	r2, [r1, #8]
 2345 1504 020053E3 		cmp	r3, #2
 2346 1508 920606E0 		mul	r6, r2, r6
 2347              	.LVL283:
 2348 150c 3B04000A 		beq	.L293
 2349 1510 0C2091E5 		ldr	r2, [r1, #12]
 2350 1514 030053E3 		cmp	r3, #3
 2351 1518 920606E0 		mul	r6, r2, r6
 2352              	.LVL284:
 2353 151c 3704000A 		beq	.L293
 2354 1520 102091E5 		ldr	r2, [r1, #16]
 2355 1524 040053E3 		cmp	r3, #4
 2356 1528 920606E0 		mul	r6, r2, r6
 2357              	.LVL285:
 2358 152c 3304000A 		beq	.L293
 2359 1530 142091E5 		ldr	r2, [r1, #20]
 2360 1534 050053E3 		cmp	r3, #5
 2361 1538 920606E0 		mul	r6, r2, r6
 2362              	.LVL286:
 2363 153c 2F04000A 		beq	.L293
 2364 1540 182091E5 		ldr	r2, [r1, #24]
 2365 1544 060053E3 		cmp	r3, #6
 2366 1548 920606E0 		mul	r6, r2, r6
 2367              	.LVL287:
 2368 154c 2B04000A 		beq	.L293
 2369 1550 1C2091E5 		ldr	r2, [r1, #28]
 2370 1554 070053E3 		cmp	r3, #7
 2371 1558 920606E0 		mul	r6, r2, r6
 2372              	.LVL288:
 2373 155c 2704000A 		beq	.L293
 2374 1560 200091E5 		ldr	r0, [r1, #32]
  44:../src/tensorflow_lite/src/tensorflow/lite/micro/kernels/pack.cpp ****     outer_size *= output_dims->data[i];
 2375              		.loc 1 44 0
 2376 1564 0820A0E3 		mov	r2, #8
  45:../src/tensorflow_lite/src/tensorflow/lite/micro/kernels/pack.cpp ****   }
 2377              		.loc 1 45 0
 2378 1568 900606E0 		mul	r6, r0, r6
 2379              	.LVL289:
 2380              	.L69:
 2381 156c 030057E1 		cmp	r7, r3
 2382 1570 2A00000A 		beq	.L66
 2383              	.LVL290:
 2384              	.L68:
 2385 1574 039047E0 		sub	r9, r7, r3
 2386 1578 01E047E2 		sub	lr, r7, #1
 2387 157c 040049E2 		sub	r0, r9, #4
 2388 1580 03E04EE0 		sub	lr, lr, r3
 2389 1584 2001A0E1 		lsr	r0, r0, #2
 2390 1588 02005EE3 		cmp	lr, #2
 2391 158c 010080E2 		add	r0, r0, #1
 2392 1590 0041A0E1 		lsl	r4, r0, #2
 2393              	.LVL291:
 2394 1594 1300009A 		bls	.L71
 2395 1598 013083E2 		add	r3, r3, #1
  44:../src/tensorflow_lite/src/tensorflow/lite/micro/kernels/pack.cpp ****     outer_size *= output_dims->data[i];
 2396              		.loc 1 44 0
 2397 159c 5100C0F2 		vmov.i32	q8, #1  @ v4si
 2398 15a0 033181E0 		add	r3, r1, r3, lsl #2
 2399 15a4 00E0A0E3 		mov	lr, #0
 2400              	.L73:
 2401 15a8 01E08EE2 		add	lr, lr, #1
  45:../src/tensorflow_lite/src/tensorflow/lite/micro/kernels/pack.cpp ****   }
 2402              		.loc 1 45 0
 2403 15ac DF2A63F4 		vld1.64	{d18-d19}, [r3:64]
 2404 15b0 0E0050E1 		cmp	r0, lr
 2405 15b4 103083E2 		add	r3, r3, #16
 2406 15b8 F20960F2 		vmul.i32	q8, q8, q9
 2407 15bc F9FFFF8A 		bhi	.L73
 2408 15c0 040059E1 		cmp	r9, r4
 2409 15c4 042082E0 		add	r2, r2, r4
 2410 15c8 5020C0F2 		vmov.i32	q9, #0  @ v4si
 2411 15cc E248F0F2 		vext.32	q10, q8, q9, #2
 2412 15d0 F40960F2 		vmul.i32	q8, q8, q10
 2413 15d4 E224F0F2 		vext.32	q9, q8, q9, #1
 2414 15d8 F20960F2 		vmul.i32	q8, q8, q9
 2415 15dc 903B10EE 		vmov.32	r3, d16[0]
 2416 15e0 930606E0 		mul	r6, r3, r6
 2417 15e4 0D00000A 		beq	.L66
 2418              	.L71:
 2419              	.LVL292:
 2420 15e8 020181E0 		add	r0, r1, r2, lsl #2
  44:../src/tensorflow_lite/src/tensorflow/lite/micro/kernels/pack.cpp ****     outer_size *= output_dims->data[i];
 2421              		.loc 1 44 0
 2422 15ec 013082E2 		add	r3, r2, #1
  45:../src/tensorflow_lite/src/tensorflow/lite/micro/kernels/pack.cpp ****   }
 2423              		.loc 1 45 0
 2424 15f0 040090E5 		ldr	r0, [r0, #4]
  44:../src/tensorflow_lite/src/tensorflow/lite/micro/kernels/pack.cpp ****     outer_size *= output_dims->data[i];
 2425              		.loc 1 44 0
 2426 15f4 030057E1 		cmp	r7, r3
  45:../src/tensorflow_lite/src/tensorflow/lite/micro/kernels/pack.cpp ****   }
 2427              		.loc 1 45 0
 2428 15f8 900606E0 		mul	r6, r0, r6
 2429              	.LVL293:
  44:../src/tensorflow_lite/src/tensorflow/lite/micro/kernels/pack.cpp ****     outer_size *= output_dims->data[i];
 2430              		.loc 1 44 0
 2431 15fc 070000DA 		ble	.L66
  45:../src/tensorflow_lite/src/tensorflow/lite/micro/kernels/pack.cpp ****   }
 2432              		.loc 1 45 0
 2433 1600 033181E0 		add	r3, r1, r3, lsl #2
 2434              	.LVL294:
  44:../src/tensorflow_lite/src/tensorflow/lite/micro/kernels/pack.cpp ****     outer_size *= output_dims->data[i];
 2435              		.loc 1 44 0
 2436 1604 022082E2 		add	r2, r2, #2
 2437              	.LVL295:
  45:../src/tensorflow_lite/src/tensorflow/lite/micro/kernels/pack.cpp ****   }
 2438              		.loc 1 45 0
 2439 1608 043093E5 		ldr	r3, [r3, #4]
  44:../src/tensorflow_lite/src/tensorflow/lite/micro/kernels/pack.cpp ****     outer_size *= output_dims->data[i];
 2440              		.loc 1 44 0
 2441 160c 020057E1 		cmp	r7, r2
  45:../src/tensorflow_lite/src/tensorflow/lite/micro/kernels/pack.cpp ****   }
 2442              		.loc 1 45 0
 2443 1610 930606E0 		mul	r6, r3, r6
 2444              	.LVL296:
  44:../src/tensorflow_lite/src/tensorflow/lite/micro/kernels/pack.cpp ****     outer_size *= output_dims->data[i];
 2445              		.loc 1 44 0
  45:../src/tensorflow_lite/src/tensorflow/lite/micro/kernels/pack.cpp ****   }
 2446              		.loc 1 45 0
 2447 1614 022181C0 		addgt	r2, r1, r2, lsl #2
 2448              	.LVL297:
 2449 1618 043092C5 		ldrgt	r3, [r2, #4]
 2450 161c 930606C0 		mulgt	r6, r3, r6
 2451              	.LVL298:
 2452              	.L66:
 2453              	.LBE387:
 2454              	.LBB388:
  48:../src/tensorflow_lite/src/tensorflow/lite/micro/kernels/pack.cpp ****     copy_size *= output_dims->data[i];
 2455              		.loc 1 48 0
 2456 1620 013087E2 		add	r3, r7, #1
 2457              	.LVL299:
 2458 1624 030058E1 		cmp	r8, r3
 2459 1628 F20300DA 		ble	.L630
 2460 162c 029087E2 		add	r9, r7, #2
 2461 1630 01E048E2 		sub	lr, r8, #1
 2462 1634 092181E0 		add	r2, r1, r9, lsl #2
 2463 1638 07E04EE0 		sub	lr, lr, r7
 2464 163c 5201A0E7 		sbfx	r0, r2, #2, #1
 2465 1640 030000E2 		and	r0, r0, #3
 2466 1644 0E0050E1 		cmp	r0, lr
 2467 1648 0E00A021 		movcs	r0, lr
 2468 164c 08005EE3 		cmp	lr, #8
 2469 1650 0E00A091 		movls	r0, lr
 2470 1654 000050E3 		cmp	r0, #0
 2471 1658 A303000A 		beq	.L295
  49:../src/tensorflow_lite/src/tensorflow/lite/micro/kernels/pack.cpp ****   }
 2472              		.loc 1 49 0
 2473 165c 034181E0 		add	r4, r1, r3, lsl #2
 2474 1660 010050E3 		cmp	r0, #1
  48:../src/tensorflow_lite/src/tensorflow/lite/micro/kernels/pack.cpp ****     copy_size *= output_dims->data[i];
 2475              		.loc 1 48 0
 2476 1664 0930A0E1 		mov	r3, r9
 2477              	.LVL300:
  49:../src/tensorflow_lite/src/tensorflow/lite/micro/kernels/pack.cpp ****   }
 2478              		.loc 1 49 0
 2479 1668 044094E5 		ldr	r4, [r4, #4]
 2480              	.LVL301:
 2481 166c 2500000A 		beq	.L82
 2482 1670 042092E5 		ldr	r2, [r2, #4]
 2483 1674 020050E3 		cmp	r0, #2
  48:../src/tensorflow_lite/src/tensorflow/lite/micro/kernels/pack.cpp ****     copy_size *= output_dims->data[i];
 2484              		.loc 1 48 0
 2485 1678 033087E2 		add	r3, r7, #3
 2486              	.LVL302:
  49:../src/tensorflow_lite/src/tensorflow/lite/micro/kernels/pack.cpp ****   }
 2487              		.loc 1 49 0
 2488 167c 920404E0 		mul	r4, r2, r4
 2489              	.LVL303:
 2490 1680 2000000A 		beq	.L82
 2491 1684 033181E0 		add	r3, r1, r3, lsl #2
 2492              	.LVL304:
 2493 1688 030050E3 		cmp	r0, #3
 2494 168c 042093E5 		ldr	r2, [r3, #4]
  48:../src/tensorflow_lite/src/tensorflow/lite/micro/kernels/pack.cpp ****     copy_size *= output_dims->data[i];
 2495              		.loc 1 48 0
 2496 1690 043087E2 		add	r3, r7, #4
  49:../src/tensorflow_lite/src/tensorflow/lite/micro/kernels/pack.cpp ****   }
 2497              		.loc 1 49 0
 2498 1694 920404E0 		mul	r4, r2, r4
 2499              	.LVL305:
 2500 1698 1A00000A 		beq	.L82
 2501 169c 033181E0 		add	r3, r1, r3, lsl #2
 2502              	.LVL306:
 2503 16a0 040050E3 		cmp	r0, #4
 2504 16a4 042093E5 		ldr	r2, [r3, #4]
  48:../src/tensorflow_lite/src/tensorflow/lite/micro/kernels/pack.cpp ****     copy_size *= output_dims->data[i];
 2505              		.loc 1 48 0
 2506 16a8 053087E2 		add	r3, r7, #5
  49:../src/tensorflow_lite/src/tensorflow/lite/micro/kernels/pack.cpp ****   }
 2507              		.loc 1 49 0
 2508 16ac 920404E0 		mul	r4, r2, r4
 2509              	.LVL307:
 2510 16b0 1400000A 		beq	.L82
 2511 16b4 033181E0 		add	r3, r1, r3, lsl #2
 2512              	.LVL308:
 2513 16b8 050050E3 		cmp	r0, #5
 2514 16bc 042093E5 		ldr	r2, [r3, #4]
  48:../src/tensorflow_lite/src/tensorflow/lite/micro/kernels/pack.cpp ****     copy_size *= output_dims->data[i];
 2515              		.loc 1 48 0
 2516 16c0 063087E2 		add	r3, r7, #6
  49:../src/tensorflow_lite/src/tensorflow/lite/micro/kernels/pack.cpp ****   }
 2517              		.loc 1 49 0
 2518 16c4 920404E0 		mul	r4, r2, r4
 2519              	.LVL309:
 2520 16c8 0E00000A 		beq	.L82
 2521 16cc 033181E0 		add	r3, r1, r3, lsl #2
 2522              	.LVL310:
 2523 16d0 060050E3 		cmp	r0, #6
 2524 16d4 042093E5 		ldr	r2, [r3, #4]
  48:../src/tensorflow_lite/src/tensorflow/lite/micro/kernels/pack.cpp ****     copy_size *= output_dims->data[i];
 2525              		.loc 1 48 0
 2526 16d8 073087E2 		add	r3, r7, #7
  49:../src/tensorflow_lite/src/tensorflow/lite/micro/kernels/pack.cpp ****   }
 2527              		.loc 1 49 0
 2528 16dc 920404E0 		mul	r4, r2, r4
 2529              	.LVL311:
 2530 16e0 0800000A 		beq	.L82
 2531 16e4 033181E0 		add	r3, r1, r3, lsl #2
 2532              	.LVL312:
 2533 16e8 070050E3 		cmp	r0, #7
 2534 16ec 042093E5 		ldr	r2, [r3, #4]
  48:../src/tensorflow_lite/src/tensorflow/lite/micro/kernels/pack.cpp ****     copy_size *= output_dims->data[i];
 2535              		.loc 1 48 0
 2536 16f0 083087E2 		add	r3, r7, #8
  49:../src/tensorflow_lite/src/tensorflow/lite/micro/kernels/pack.cpp ****   }
 2537              		.loc 1 49 0
 2538 16f4 920404E0 		mul	r4, r2, r4
 2539              	.LVL313:
 2540 16f8 03218110 		addne	r2, r1, r3, lsl #2
  48:../src/tensorflow_lite/src/tensorflow/lite/micro/kernels/pack.cpp ****     copy_size *= output_dims->data[i];
 2541              		.loc 1 48 0
 2542 16fc 09308712 		addne	r3, r7, #9
 2543              	.LVL314:
  49:../src/tensorflow_lite/src/tensorflow/lite/micro/kernels/pack.cpp ****   }
 2544              		.loc 1 49 0
 2545 1700 04209215 		ldrne	r2, [r2, #4]
 2546 1704 92040410 		mulne	r4, r2, r4
 2547              	.LVL315:
 2548              	.L82:
 2549 1708 00005EE1 		cmp	lr, r0
 2550 170c 2B00000A 		beq	.L90
 2551              	.LVL316:
 2552              	.L81:
 2553 1710 072048E0 		sub	r2, r8, r7
 2554 1714 00E04EE0 		sub	lr, lr, r0
 2555 1718 022042E2 		sub	r2, r2, #2
 2556 171c 04704EE2 		sub	r7, lr, #4
 2557              	.LVL317:
 2558 1720 002042E0 		sub	r2, r2, r0
 2559 1724 2771A0E1 		lsr	r7, r7, #2
 2560 1728 020052E3 		cmp	r2, #2
 2561 172c 012087E2 		add	r2, r7, #1
 2562 1730 0271A0E1 		lsl	r7, r2, #2
 2563 1734 1300009A 		bls	.L84
 2564 1738 000089E0 		add	r0, r9, r0
  48:../src/tensorflow_lite/src/tensorflow/lite/micro/kernels/pack.cpp ****     copy_size *= output_dims->data[i];
 2565              		.loc 1 48 0
 2566 173c 5100C0F2 		vmov.i32	q8, #1  @ v4si
 2567 1740 000181E0 		add	r0, r1, r0, lsl #2
 2568 1744 0090A0E3 		mov	r9, #0
 2569              	.LVL318:
 2570              	.L86:
 2571 1748 019089E2 		add	r9, r9, #1
  49:../src/tensorflow_lite/src/tensorflow/lite/micro/kernels/pack.cpp ****   }
 2572              		.loc 1 49 0
 2573 174c DF2A60F4 		vld1.64	{d18-d19}, [r0:64]
 2574 1750 090052E1 		cmp	r2, r9
 2575 1754 100080E2 		add	r0, r0, #16
 2576 1758 F20960F2 		vmul.i32	q8, q8, q9
 2577 175c F9FFFF8A 		bhi	.L86
 2578 1760 07005EE1 		cmp	lr, r7
 2579 1764 073083E0 		add	r3, r3, r7
 2580 1768 5020C0F2 		vmov.i32	q9, #0  @ v4si
 2581 176c E248F0F2 		vext.32	q10, q8, q9, #2
 2582 1770 F40960F2 		vmul.i32	q8, q8, q10
 2583 1774 E224F0F2 		vext.32	q9, q8, q9, #1
 2584 1778 F20960F2 		vmul.i32	q8, q8, q9
 2585 177c 902B10EE 		vmov.32	r2, d16[0]
 2586 1780 920404E0 		mul	r4, r2, r4
 2587 1784 0D00000A 		beq	.L90
 2588              	.L84:
 2589              	.LVL319:
 2590 1788 030181E0 		add	r0, r1, r3, lsl #2
  48:../src/tensorflow_lite/src/tensorflow/lite/micro/kernels/pack.cpp ****     copy_size *= output_dims->data[i];
 2591              		.loc 1 48 0
 2592 178c 012083E2 		add	r2, r3, #1
  49:../src/tensorflow_lite/src/tensorflow/lite/micro/kernels/pack.cpp ****   }
 2593              		.loc 1 49 0
 2594 1790 040090E5 		ldr	r0, [r0, #4]
  48:../src/tensorflow_lite/src/tensorflow/lite/micro/kernels/pack.cpp ****     copy_size *= output_dims->data[i];
 2595              		.loc 1 48 0
 2596 1794 020058E1 		cmp	r8, r2
  49:../src/tensorflow_lite/src/tensorflow/lite/micro/kernels/pack.cpp ****   }
 2597              		.loc 1 49 0
 2598 1798 900404E0 		mul	r4, r0, r4
 2599              	.LVL320:
  48:../src/tensorflow_lite/src/tensorflow/lite/micro/kernels/pack.cpp ****     copy_size *= output_dims->data[i];
 2600              		.loc 1 48 0
 2601 179c 070000DA 		ble	.L90
  49:../src/tensorflow_lite/src/tensorflow/lite/micro/kernels/pack.cpp ****   }
 2602              		.loc 1 49 0
 2603 17a0 022181E0 		add	r2, r1, r2, lsl #2
 2604              	.LVL321:
  48:../src/tensorflow_lite/src/tensorflow/lite/micro/kernels/pack.cpp ****     copy_size *= output_dims->data[i];
 2605              		.loc 1 48 0
 2606 17a4 023083E2 		add	r3, r3, #2
 2607              	.LVL322:
  49:../src/tensorflow_lite/src/tensorflow/lite/micro/kernels/pack.cpp ****   }
 2608              		.loc 1 49 0
 2609 17a8 042092E5 		ldr	r2, [r2, #4]
  48:../src/tensorflow_lite/src/tensorflow/lite/micro/kernels/pack.cpp ****     copy_size *= output_dims->data[i];
 2610              		.loc 1 48 0
 2611 17ac 030058E1 		cmp	r8, r3
  49:../src/tensorflow_lite/src/tensorflow/lite/micro/kernels/pack.cpp ****   }
 2612              		.loc 1 49 0
 2613 17b0 920404E0 		mul	r4, r2, r4
 2614              	.LVL323:
  48:../src/tensorflow_lite/src/tensorflow/lite/micro/kernels/pack.cpp ****     copy_size *= output_dims->data[i];
 2615              		.loc 1 48 0
  49:../src/tensorflow_lite/src/tensorflow/lite/micro/kernels/pack.cpp ****   }
 2616              		.loc 1 49 0
 2617 17b4 033181C0 		addgt	r3, r1, r3, lsl #2
 2618              	.LVL324:
 2619 17b8 043093C5 		ldrgt	r3, [r3, #4]
 2620 17bc 930404C0 		mulgt	r4, r3, r4
 2621              	.LVL325:
 2622              	.L90:
 2623              	.LBE388:
 2624              	.LBB389:
  52:../src/tensorflow_lite/src/tensorflow/lite/micro/kernels/pack.cpp ****     input_size *= input_dims->data[i];
 2625              		.loc 1 52 0
 2626 17c0 00009CE5 		ldr	r0, [ip]
 2627 17c4 000050E3 		cmp	r0, #0
 2628 17c8 880300DA 		ble	.L631
 2629 17cc 04308CE2 		add	r3, ip, #4
 2630 17d0 5331A0E7 		sbfx	r3, r3, #2, #1
 2631 17d4 033003E2 		and	r3, r3, #3
 2632 17d8 000053E1 		cmp	r3, r0
 2633 17dc 0030A021 		movcs	r3, r0
 2634 17e0 080050E3 		cmp	r0, #8
 2635 17e4 0030A0D1 		movle	r3, r0
 2636 17e8 3A0300CA 		bgt	.L632
 2637              	.LVL326:
 2638              	.L91:
 2639 17ec 010053E3 		cmp	r3, #1
  53:../src/tensorflow_lite/src/tensorflow/lite/micro/kernels/pack.cpp ****   }
 2640              		.loc 1 53 0
 2641 17f0 04209CE5 		ldr	r2, [ip, #4]
 2642              	.LVL327:
 2643 17f4 7B03000A 		beq	.L304
 2644 17f8 08109CE5 		ldr	r1, [ip, #8]
 2645 17fc 020053E3 		cmp	r3, #2
 2646 1800 910202E0 		mul	r2, r1, r2
 2647              	.LVL328:
 2648 1804 7703000A 		beq	.L304
 2649 1808 0C109CE5 		ldr	r1, [ip, #12]
 2650 180c 030053E3 		cmp	r3, #3
 2651 1810 910202E0 		mul	r2, r1, r2
 2652              	.LVL329:
 2653 1814 7303000A 		beq	.L304
 2654 1818 10109CE5 		ldr	r1, [ip, #16]
 2655 181c 040053E3 		cmp	r3, #4
 2656 1820 910202E0 		mul	r2, r1, r2
 2657              	.LVL330:
 2658 1824 6F03000A 		beq	.L304
 2659 1828 14109CE5 		ldr	r1, [ip, #20]
 2660 182c 050053E3 		cmp	r3, #5
 2661 1830 910202E0 		mul	r2, r1, r2
 2662              	.LVL331:
 2663 1834 6B03000A 		beq	.L304
 2664 1838 18109CE5 		ldr	r1, [ip, #24]
 2665 183c 060053E3 		cmp	r3, #6
 2666 1840 910202E0 		mul	r2, r1, r2
 2667              	.LVL332:
 2668 1844 6703000A 		beq	.L304
 2669 1848 1C109CE5 		ldr	r1, [ip, #28]
 2670 184c 070053E3 		cmp	r3, #7
 2671 1850 910202E0 		mul	r2, r1, r2
 2672              	.LVL333:
 2673 1854 6303000A 		beq	.L304
 2674 1858 20E09CE5 		ldr	lr, [ip, #32]
  52:../src/tensorflow_lite/src/tensorflow/lite/micro/kernels/pack.cpp ****     input_size *= input_dims->data[i];
 2675              		.loc 1 52 0
 2676 185c 0810A0E3 		mov	r1, #8
  53:../src/tensorflow_lite/src/tensorflow/lite/micro/kernels/pack.cpp ****   }
 2677              		.loc 1 53 0
 2678 1860 9E0202E0 		mul	r2, lr, r2
 2679              	.LVL334:
 2680              	.L93:
 2681 1864 030050E1 		cmp	r0, r3
 2682 1868 2A00000A 		beq	.L78
 2683              	.LVL335:
 2684              	.L92:
 2685 186c 039040E0 		sub	r9, r0, r3
 2686 1870 017040E2 		sub	r7, r0, #1
 2687 1874 04E049E2 		sub	lr, r9, #4
 2688 1878 037047E0 		sub	r7, r7, r3
 2689 187c 2EE1A0E1 		lsr	lr, lr, #2
 2690 1880 020057E3 		cmp	r7, #2
 2691 1884 01E08EE2 		add	lr, lr, #1
 2692 1888 0E81A0E1 		lsl	r8, lr, #2
 2693              	.LVL336:
 2694 188c 1300009A 		bls	.L95
 2695 1890 013083E2 		add	r3, r3, #1
  52:../src/tensorflow_lite/src/tensorflow/lite/micro/kernels/pack.cpp ****     input_size *= input_dims->data[i];
 2696              		.loc 1 52 0
 2697 1894 5100C0F2 		vmov.i32	q8, #1  @ v4si
 2698 1898 03318CE0 		add	r3, ip, r3, lsl #2
 2699 189c 0070A0E3 		mov	r7, #0
 2700              	.L97:
 2701 18a0 017087E2 		add	r7, r7, #1
  53:../src/tensorflow_lite/src/tensorflow/lite/micro/kernels/pack.cpp ****   }
 2702              		.loc 1 53 0
 2703 18a4 DF2A63F4 		vld1.64	{d18-d19}, [r3:64]
 2704 18a8 07005EE1 		cmp	lr, r7
 2705 18ac 103083E2 		add	r3, r3, #16
 2706 18b0 F20960F2 		vmul.i32	q8, q8, q9
 2707 18b4 F9FFFF8A 		bhi	.L97
 2708 18b8 080059E1 		cmp	r9, r8
 2709 18bc 081081E0 		add	r1, r1, r8
 2710 18c0 5020C0F2 		vmov.i32	q9, #0  @ v4si
 2711 18c4 E248F0F2 		vext.32	q10, q8, q9, #2
 2712 18c8 F40960F2 		vmul.i32	q8, q8, q10
 2713 18cc E224F0F2 		vext.32	q9, q8, q9, #1
 2714 18d0 F20960F2 		vmul.i32	q8, q8, q9
 2715 18d4 903B10EE 		vmov.32	r3, d16[0]
 2716 18d8 930202E0 		mul	r2, r3, r2
 2717 18dc 0D00000A 		beq	.L78
 2718              	.L95:
 2719              	.LVL337:
 2720 18e0 01E18CE0 		add	lr, ip, r1, lsl #2
  52:../src/tensorflow_lite/src/tensorflow/lite/micro/kernels/pack.cpp ****     input_size *= input_dims->data[i];
 2721              		.loc 1 52 0
 2722 18e4 013081E2 		add	r3, r1, #1
  53:../src/tensorflow_lite/src/tensorflow/lite/micro/kernels/pack.cpp ****   }
 2723              		.loc 1 53 0
 2724 18e8 04E09EE5 		ldr	lr, [lr, #4]
  52:../src/tensorflow_lite/src/tensorflow/lite/micro/kernels/pack.cpp ****     input_size *= input_dims->data[i];
 2725              		.loc 1 52 0
 2726 18ec 030050E1 		cmp	r0, r3
  53:../src/tensorflow_lite/src/tensorflow/lite/micro/kernels/pack.cpp ****   }
 2727              		.loc 1 53 0
 2728 18f0 9E0202E0 		mul	r2, lr, r2
 2729              	.LVL338:
  52:../src/tensorflow_lite/src/tensorflow/lite/micro/kernels/pack.cpp ****     input_size *= input_dims->data[i];
 2730              		.loc 1 52 0
 2731 18f4 070000DA 		ble	.L78
  53:../src/tensorflow_lite/src/tensorflow/lite/micro/kernels/pack.cpp ****   }
 2732              		.loc 1 53 0
 2733 18f8 03318CE0 		add	r3, ip, r3, lsl #2
 2734              	.LVL339:
  52:../src/tensorflow_lite/src/tensorflow/lite/micro/kernels/pack.cpp ****     input_size *= input_dims->data[i];
 2735              		.loc 1 52 0
 2736 18fc 021081E2 		add	r1, r1, #2
 2737              	.LVL340:
  53:../src/tensorflow_lite/src/tensorflow/lite/micro/kernels/pack.cpp ****   }
 2738              		.loc 1 53 0
 2739 1900 043093E5 		ldr	r3, [r3, #4]
  52:../src/tensorflow_lite/src/tensorflow/lite/micro/kernels/pack.cpp ****     input_size *= input_dims->data[i];
 2740              		.loc 1 52 0
 2741 1904 010050E1 		cmp	r0, r1
  53:../src/tensorflow_lite/src/tensorflow/lite/micro/kernels/pack.cpp ****   }
 2742              		.loc 1 53 0
 2743 1908 930202E0 		mul	r2, r3, r2
 2744              	.LVL341:
  52:../src/tensorflow_lite/src/tensorflow/lite/micro/kernels/pack.cpp ****     input_size *= input_dims->data[i];
 2745              		.loc 1 52 0
  53:../src/tensorflow_lite/src/tensorflow/lite/micro/kernels/pack.cpp ****   }
 2746              		.loc 1 53 0
 2747 190c 01118CC0 		addgt	r1, ip, r1, lsl #2
 2748              	.LVL342:
 2749 1910 043091C5 		ldrgt	r3, [r1, #4]
 2750 1914 930202C0 		mulgt	r2, r3, r2
 2751              	.LVL343:
 2752              	.L78:
 2753              	.LBE389:
  55:../src/tensorflow_lite/src/tensorflow/lite/micro/kernels/pack.cpp **** 
 2754              		.loc 1 55 0
 2755 1918 960403E0 		mul	r3, r6, r4
 2756 191c 020053E1 		cmp	r3, r2
 2757 1920 2503001A 		bne	.L46
 2758              	.LVL344:
 2759              	.LBB390:
  59:../src/tensorflow_lite/src/tensorflow/lite/micro/kernels/pack.cpp ****     const TfLiteEvalTensor* t = tflite::micro::GetEvalInput(context, node, i);
 2760              		.loc 1 59 0
 2761 1924 20209DE5 		ldr	r2, [sp, #32]
 2762              	.LBE390:
 2763              	.LBB411:
 2764              	.LBB412:
  56:C:/Renesas/e2studio_2021_01_workspace_RZA2M_ANPR/ANPR_RZA2M_GR_MANGO/src/tensorflow_lite/src/tensorflow/lite/micro/kernels\kernel_util.h **** }
 2765              		.loc 2 56 0
 2766 1928 005095E5 		ldr	r5, [r5]
 2767              	.LVL345:
 2768              	.LBE412:
 2769              	.LBE411:
 2770              	.LBB413:
  59:../src/tensorflow_lite/src/tensorflow/lite/micro/kernels/pack.cpp ****     const TfLiteEvalTensor* t = tflite::micro::GetEvalInput(context, node, i);
 2771              		.loc 1 59 0
 2772 192c 000052E3 		cmp	r2, #0
 2773 1930 ADFBFFDA 		ble	.L50
 2774 1934 103044E2 		sub	r3, r4, #16
 2775 1938 940207E0 		mul	r7, r4, r2
 2776 193c 2332A0E1 		lsr	r3, r3, #4
 2777 1940 012044E2 		sub	r2, r4, #1
 2778 1944 08208DE5 		str	r2, [sp, #8]
 2779 1948 013083E2 		add	r3, r3, #1
 2780 194c 1C508DE5 		str	r5, [sp, #28]
 2781 1950 0C308DE5 		str	r3, [sp, #12]
 2782 1954 0332A0E1 		lsl	r3, r3, #4
 2783 1958 04308DE5 		str	r3, [sp, #4]
 2784 195c 0030A0E3 		mov	r3, #0
 2785 1960 10308DE5 		str	r3, [sp, #16]
 2786              	.LVL346:
 2787              	.L102:
 2788              	.LBB391:
 2789              	.LBB392:
 2790              	.LBB393:
 2791              	.LBB394:
  36:C:/Renesas/e2studio_2021_01_workspace_RZA2M_ANPR/ANPR_RZA2M_GR_MANGO/src/tensorflow_lite/src/tensorflow/lite/micro/kernels\kernel_util.h **** }
 2792              		.loc 2 36 0
 2793 1964 18309DE5 		ldr	r3, [sp, #24]
 2794 1968 10109DE5 		ldr	r1, [sp, #16]
 2795 196c 002093E5 		ldr	r2, [r3]
 2796 1970 14309DE5 		ldr	r3, [sp, #20]
 2797 1974 012182E0 		add	r2, r2, r1, lsl #2
 2798 1978 0300A0E1 		mov	r0, r3
 2799 197c 543093E5 		ldr	r3, [r3, #84]
 2800 1980 041092E5 		ldr	r1, [r2, #4]
 2801 1984 33FF2FE1 		blx	r3
 2802              	.LVL347:
 2803              	.LBE394:
 2804              	.LBE393:
 2805              	.LBE392:
 2806              	.LBB395:
 2807              	.LBB396:
  62:C:/Renesas/e2studio_2021_01_workspace_RZA2M_ANPR/ANPR_RZA2M_GR_MANGO/src/tensorflow_lite/src/tensorflow/lite/micro/kernels\kernel_util.h ****   return reinterpret_cast<const T*>(tensor->data.raw);
 2808              		.loc 2 62 0
 2809 1988 000050E3 		cmp	r0, #0
 2810 198c 0A03000A 		beq	.L46
 2811              	.LBE396:
 2812              	.LBE395:
 2813              	.LBB398:
  62:../src/tensorflow_lite/src/tensorflow/lite/micro/kernels/pack.cpp ****       const T* input_ptr = input_data + copy_size * k;
 2814              		.loc 1 62 0
 2815 1990 000056E3 		cmp	r6, #0
 2816              	.LBE398:
 2817              	.LBB405:
 2818              	.LBB397:
 2819              		.loc 2 63 0
 2820 1994 001090E5 		ldr	r1, [r0]
 2821              	.LVL348:
 2822              	.LBE397:
 2823              	.LBE405:
 2824              	.LBB406:
  62:../src/tensorflow_lite/src/tensorflow/lite/micro/kernels/pack.cpp ****       const T* input_ptr = input_data + copy_size * k;
 2825              		.loc 1 62 0
 2826 1998 930000DA 		ble	.L103
 2827 199c 000054E3 		cmp	r4, #0
 2828 19a0 910000DA 		ble	.L103
 2829 19a4 1CE09DE5 		ldr	lr, [sp, #28]
 2830 19a8 0120A0E1 		mov	r2, r1
 2831 19ac 00A0A0E3 		mov	r10, #0
 2832              	.LVL349:
 2833              	.L106:
 2834 19b0 0E0082E1 		orr	r0, r2, lr
 2835 19b4 0F0054E3 		cmp	r4, #15
 2836 19b8 5000E3E7 		ubfx	r0, r0, #0, #4
 2837 19bc 103082E2 		add	r3, r2, #16
 2838 19c0 0080A093 		movls	r8, #0
 2839 19c4 0180A083 		movhi	r8, #1
 2840 19c8 10C08EE2 		add	ip, lr, #16
 2841 19cc 000050E3 		cmp	r0, #0
 2842 19d0 0080A013 		movne	r8, #0
 2843 19d4 0C0052E1 		cmp	r2, ip
 2844 19d8 03005E31 		cmpcc	lr, r3
 2845 19dc 0130A023 		movcs	r3, #1
 2846 19e0 0030A033 		movcc	r3, #0
 2847 19e4 030018E1 		tst	r8, r3
 2848 19e8 01C042E0 		sub	ip, r2, r1
 2849              	.LVL350:
 2850 19ec 05004EE0 		sub	r0, lr, r5
 2851              	.LVL351:
 2852 19f0 2302000A 		beq	.L633
 2853 19f4 08309DE5 		ldr	r3, [sp, #8]
 2854 19f8 0E0053E3 		cmp	r3, #14
 2855 19fc 1C02009A 		bls	.L305
 2856 1a00 0CB09DE5 		ldr	fp, [sp, #12]
 2857 1a04 0290A0E1 		mov	r9, r2
 2858 1a08 0E80A0E1 		mov	r8, lr
 2859 1a0c 0030A0E3 		mov	r3, #0
 2860              	.LVL352:
 2861              	.L109:
 2862 1a10 013083E2 		add	r3, r3, #1
 2863              	.LBB399:
 2864              	.LBB400:
  66:../src/tensorflow_lite/src/tensorflow/lite/micro/kernels/pack.cpp ****     }
 2865              		.loc 1 66 0
 2866 1a14 DF0A69F4 		vld1.64	{d16-d17}, [r9:64]
 2867 1a18 03005BE1 		cmp	fp, r3
 2868 1a1c 109089E2 		add	r9, r9, #16
 2869 1a20 DF0A48F4 		vst1.64	{d16-d17}, [r8:64]
 2870 1a24 108088E2 		add	r8, r8, #16
 2871 1a28 F8FFFF8A 		bhi	.L109
 2872 1a2c 04309DE5 		ldr	r3, [sp, #4]
 2873 1a30 040053E1 		cmp	r3, r4
 2874 1a34 03C08200 		addeq	ip, r2, r3
 2875              	.LVL353:
 2876 1a38 6600000A 		beq	.L112
 2877              	.L107:
 2878              	.LVL354:
 2879 1a3c 039081E0 		add	r9, r1, r3
 2880 1a40 018083E2 		add	r8, r3, #1
 2881              	.LVL355:
 2882 1a44 0CB0D9E7 		ldrb	fp, [r9, ip]	@ zero_extendqisi2
 2883 1a48 080054E1 		cmp	r4, r8
 2884 1a4c 039085E0 		add	r9, r5, r3
 2885 1a50 00B0C9E7 		strb	fp, [r9, r0]
 2886 1a54 020200DA 		ble	.L597
 2887 1a58 08B081E0 		add	fp, r1, r8
 2888 1a5c 029083E2 		add	r9, r3, #2
 2889              	.LVL356:
 2890 1a60 0CB0DBE7 		ldrb	fp, [fp, ip]	@ zero_extendqisi2
 2891 1a64 090054E1 		cmp	r4, r9
 2892 1a68 088085E0 		add	r8, r5, r8
 2893 1a6c 00B0C8E7 		strb	fp, [r8, r0]
 2894 1a70 FB0100DA 		ble	.L597
 2895 1a74 09B081E0 		add	fp, r1, r9
 2896 1a78 038083E2 		add	r8, r3, #3
 2897              	.LVL357:
 2898 1a7c 0CB0DBE7 		ldrb	fp, [fp, ip]	@ zero_extendqisi2
 2899 1a80 080054E1 		cmp	r4, r8
 2900 1a84 099085E0 		add	r9, r5, r9
 2901 1a88 00B0C9E7 		strb	fp, [r9, r0]
 2902 1a8c F40100DA 		ble	.L597
 2903 1a90 08B081E0 		add	fp, r1, r8
 2904 1a94 049083E2 		add	r9, r3, #4
 2905              	.LVL358:
 2906 1a98 0CB0DBE7 		ldrb	fp, [fp, ip]	@ zero_extendqisi2
 2907 1a9c 090054E1 		cmp	r4, r9
 2908 1aa0 088085E0 		add	r8, r5, r8
 2909 1aa4 00B0C8E7 		strb	fp, [r8, r0]
 2910 1aa8 ED0100DA 		ble	.L597
 2911 1aac 09B081E0 		add	fp, r1, r9
 2912 1ab0 058083E2 		add	r8, r3, #5
 2913              	.LVL359:
 2914 1ab4 0CB0DBE7 		ldrb	fp, [fp, ip]	@ zero_extendqisi2
 2915 1ab8 080054E1 		cmp	r4, r8
 2916 1abc 099085E0 		add	r9, r5, r9
 2917 1ac0 00B0C9E7 		strb	fp, [r9, r0]
 2918 1ac4 E60100DA 		ble	.L597
 2919 1ac8 08B081E0 		add	fp, r1, r8
 2920 1acc 069083E2 		add	r9, r3, #6
 2921              	.LVL360:
 2922 1ad0 0CB0DBE7 		ldrb	fp, [fp, ip]	@ zero_extendqisi2
 2923 1ad4 090054E1 		cmp	r4, r9
 2924 1ad8 088085E0 		add	r8, r5, r8
 2925 1adc 00B0C8E7 		strb	fp, [r8, r0]
 2926 1ae0 DF0100DA 		ble	.L597
 2927 1ae4 09B081E0 		add	fp, r1, r9
 2928 1ae8 078083E2 		add	r8, r3, #7
 2929              	.LVL361:
 2930 1aec 0CB0DBE7 		ldrb	fp, [fp, ip]	@ zero_extendqisi2
 2931 1af0 080054E1 		cmp	r4, r8
 2932 1af4 099085E0 		add	r9, r5, r9
 2933 1af8 00B0C9E7 		strb	fp, [r9, r0]
 2934 1afc D80100DA 		ble	.L597
 2935 1b00 08B081E0 		add	fp, r1, r8
 2936 1b04 089083E2 		add	r9, r3, #8
 2937              	.LVL362:
 2938 1b08 0CB0DBE7 		ldrb	fp, [fp, ip]	@ zero_extendqisi2
 2939 1b0c 090054E1 		cmp	r4, r9
 2940 1b10 088085E0 		add	r8, r5, r8
 2941 1b14 00B0C8E7 		strb	fp, [r8, r0]
 2942 1b18 D10100DA 		ble	.L597
 2943 1b1c 09B081E0 		add	fp, r1, r9
 2944 1b20 098083E2 		add	r8, r3, #9
 2945              	.LVL363:
 2946 1b24 0CB0DBE7 		ldrb	fp, [fp, ip]	@ zero_extendqisi2
 2947 1b28 080054E1 		cmp	r4, r8
 2948 1b2c 099085E0 		add	r9, r5, r9
 2949 1b30 00B0C9E7 		strb	fp, [r9, r0]
 2950 1b34 CA0100DA 		ble	.L597
 2951 1b38 08B081E0 		add	fp, r1, r8
 2952 1b3c 0A9083E2 		add	r9, r3, #10
 2953              	.LVL364:
 2954 1b40 0CB0DBE7 		ldrb	fp, [fp, ip]	@ zero_extendqisi2
 2955 1b44 090054E1 		cmp	r4, r9
 2956 1b48 088085E0 		add	r8, r5, r8
 2957 1b4c 00B0C8E7 		strb	fp, [r8, r0]
 2958 1b50 C30100DA 		ble	.L597
 2959 1b54 09B081E0 		add	fp, r1, r9
 2960 1b58 0B8083E2 		add	r8, r3, #11
 2961              	.LVL365:
 2962 1b5c 0CB0DBE7 		ldrb	fp, [fp, ip]	@ zero_extendqisi2
 2963 1b60 080054E1 		cmp	r4, r8
 2964 1b64 099085E0 		add	r9, r5, r9
 2965 1b68 00B0C9E7 		strb	fp, [r9, r0]
 2966 1b6c BC0100DA 		ble	.L597
 2967 1b70 08B081E0 		add	fp, r1, r8
 2968 1b74 0C9083E2 		add	r9, r3, #12
 2969              	.LVL366:
 2970 1b78 0CB0DBE7 		ldrb	fp, [fp, ip]	@ zero_extendqisi2
 2971 1b7c 090054E1 		cmp	r4, r9
 2972 1b80 088085E0 		add	r8, r5, r8
 2973 1b84 00B0C8E7 		strb	fp, [r8, r0]
 2974 1b88 B50100DA 		ble	.L597
 2975 1b8c 09B081E0 		add	fp, r1, r9
 2976 1b90 0D8083E2 		add	r8, r3, #13
 2977              	.LVL367:
 2978 1b94 0CB0DBE7 		ldrb	fp, [fp, ip]	@ zero_extendqisi2
 2979 1b98 080054E1 		cmp	r4, r8
 2980 1b9c 099085E0 		add	r9, r5, r9
 2981 1ba0 00B0C9E7 		strb	fp, [r9, r0]
 2982 1ba4 AE0100DA 		ble	.L597
 2983 1ba8 089081E0 		add	r9, r1, r8
 2984 1bac 0E3083E2 		add	r3, r3, #14
 2985 1bb0 0C90D9E7 		ldrb	r9, [r9, ip]	@ zero_extendqisi2
 2986 1bb4 030054E1 		cmp	r4, r3
 2987 1bb8 088085E0 		add	r8, r5, r8
 2988              	.LVL368:
 2989 1bbc 0090C8E7 		strb	r9, [r8, r0]
 2990              	.LVL369:
 2991 1bc0 A70100DA 		ble	.L597
 2992 1bc4 038081E0 		add	r8, r1, r3
 2993 1bc8 033085E0 		add	r3, r5, r3
 2994              	.LVL370:
 2995 1bcc 0C80D8E7 		ldrb	r8, [r8, ip]	@ zero_extendqisi2
 2996 1bd0 04C082E0 		add	ip, r2, r4
 2997 1bd4 0080C3E7 		strb	r8, [r3, r0]
 2998              	.LVL371:
 2999              	.L112:
 3000              	.LBE400:
 3001              	.LBE399:
  62:../src/tensorflow_lite/src/tensorflow/lite/micro/kernels/pack.cpp ****       const T* input_ptr = input_data + copy_size * k;
 3002              		.loc 1 62 0
 3003 1bd8 01A08AE2 		add	r10, r10, #1
 3004              	.LVL372:
 3005 1bdc 0C20A0E1 		mov	r2, ip
 3006 1be0 06005AE1 		cmp	r10, r6
 3007 1be4 07E08EE0 		add	lr, lr, r7
 3008              	.LVL373:
 3009 1be8 70FFFF1A 		bne	.L106
 3010              	.LVL374:
 3011              	.L103:
 3012 1bec 1C209DE5 		ldr	r2, [sp, #28]
 3013              	.LBE406:
 3014              	.LBE391:
  59:../src/tensorflow_lite/src/tensorflow/lite/micro/kernels/pack.cpp ****     const TfLiteEvalTensor* t = tflite::micro::GetEvalInput(context, node, i);
 3015              		.loc 1 59 0
 3016 1bf0 10309DE5 		ldr	r3, [sp, #16]
 3017 1bf4 042082E0 		add	r2, r2, r4
 3018 1bf8 1C208DE5 		str	r2, [sp, #28]
 3019 1bfc 013083E2 		add	r3, r3, #1
 3020 1c00 20209DE5 		ldr	r2, [sp, #32]
 3021 1c04 10308DE5 		str	r3, [sp, #16]
 3022              	.LVL375:
 3023 1c08 030052E1 		cmp	r2, r3
 3024 1c0c 54FFFF1A 		bne	.L102
 3025 1c10 F5FAFFEA 		b	.L50
 3026              	.LVL376:
 3027              	.L8:
 3028              	.LBE413:
 3029              	.LBE423:
 3030              	.LBE431:
 3031              	.LBB432:
 3032              	.LBB433:
 3033              	.LBB434:
 3034              	.LBB435:
 3035              	.LBB436:
  36:C:/Renesas/e2studio_2021_01_workspace_RZA2M_ANPR/ANPR_RZA2M_GR_MANGO/src/tensorflow_lite/src/tensorflow/lite/micro/kernels\kernel_util.h **** }
 3036              		.loc 2 36 0
 3037 1c14 18309DE5 		ldr	r3, [sp, #24]
 3038              	.LBE436:
 3039              	.LBE435:
 3040              	.LBE434:
 3041              	.LBE433:
 3042              	.LBE432:
  99:../src/tensorflow_lite/src/tensorflow/lite/micro/kernels/pack.cpp ****     }
 3043              		.loc 1 99 0
 3044 1c18 046094E5 		ldr	r6, [r4, #4]
 3045              	.LBB488:
 3046              	.LBB482:
 3047              	.LBB443:
 3048              	.LBB440:
 3049              	.LBB437:
  36:C:/Renesas/e2studio_2021_01_workspace_RZA2M_ANPR/ANPR_RZA2M_GR_MANGO/src/tensorflow_lite/src/tensorflow/lite/micro/kernels\kernel_util.h **** }
 3050              		.loc 2 36 0
 3051 1c1c 002093E5 		ldr	r2, [r3]
 3052 1c20 14309DE5 		ldr	r3, [sp, #20]
 3053              	.LVL377:
 3054 1c24 041092E5 		ldr	r1, [r2, #4]
 3055              	.LBE437:
 3056              	.LBE440:
 3057              	.LBE443:
 3058              	.LBE482:
 3059              	.LBE488:
  98:../src/tensorflow_lite/src/tensorflow/lite/micro/kernels/pack.cpp ****                                data->axis);
 3060              		.loc 1 98 0
 3061 1c28 002094E5 		ldr	r2, [r4]
 3062              	.LBB489:
 3063              	.LBB483:
 3064              	.LBB444:
 3065              	.LBB441:
 3066              	.LBB438:
  36:C:/Renesas/e2studio_2021_01_workspace_RZA2M_ANPR/ANPR_RZA2M_GR_MANGO/src/tensorflow_lite/src/tensorflow/lite/micro/kernels\kernel_util.h **** }
 3067              		.loc 2 36 0
 3068 1c2c 0300A0E1 		mov	r0, r3
 3069 1c30 543093E5 		ldr	r3, [r3, #84]
 3070              	.LVL378:
 3071              	.LBE438:
 3072              	.LBE441:
 3073              	.LBE444:
 3074              	.LBE483:
 3075              	.LBE489:
  98:../src/tensorflow_lite/src/tensorflow/lite/micro/kernels/pack.cpp ****                                data->axis);
 3076              		.loc 1 98 0
 3077 1c34 2C208DE5 		str	r2, [sp, #44]
 3078              	.LVL379:
 3079              	.LBB490:
 3080              	.LBB484:
 3081              	.LBB445:
 3082              	.LBB442:
 3083              	.LBB439:
  36:C:/Renesas/e2studio_2021_01_workspace_RZA2M_ANPR/ANPR_RZA2M_GR_MANGO/src/tensorflow_lite/src/tensorflow/lite/micro/kernels\kernel_util.h **** }
 3084              		.loc 2 36 0
 3085 1c38 33FF2FE1 		blx	r3
 3086              	.LVL380:
 3087              	.LBE439:
 3088              	.LBE442:
 3089              	.LBE445:
  35:../src/tensorflow_lite/src/tensorflow/lite/micro/kernels/pack.cpp ****   const TfLiteIntArray* input_dims = input0->dims;
 3090              		.loc 1 35 0
 3091 1c3c 041095E5 		ldr	r1, [r5, #4]
  39:../src/tensorflow_lite/src/tensorflow/lite/micro/kernels/pack.cpp ****     axis += dimensions;
 3092              		.loc 1 39 0
 3093 1c40 000056E3 		cmp	r6, #0
  36:../src/tensorflow_lite/src/tensorflow/lite/micro/kernels/pack.cpp ****   const TfLiteIntArray* output_dims = output->dims;
 3094              		.loc 1 36 0
 3095 1c44 04C090E5 		ldr	ip, [r0, #4]
  35:../src/tensorflow_lite/src/tensorflow/lite/micro/kernels/pack.cpp ****   const TfLiteIntArray* input_dims = input0->dims;
 3096              		.loc 1 35 0
 3097 1c48 007091E5 		ldr	r7, [r1]
 3098              	.LVL381:
  40:../src/tensorflow_lite/src/tensorflow/lite/micro/kernels/pack.cpp ****   }
 3099              		.loc 1 40 0
 3100 1c4c 076086B0 		addlt	r6, r6, r7
 3101              	.LVL382:
 3102              	.LBB446:
  44:../src/tensorflow_lite/src/tensorflow/lite/micro/kernels/pack.cpp ****     outer_size *= output_dims->data[i];
 3103              		.loc 1 44 0
 3104 1c50 000056E3 		cmp	r6, #0
 3105 1c54 610200DA 		ble	.L351
 3106 1c58 043081E2 		add	r3, r1, #4
 3107 1c5c 5331A0E7 		sbfx	r3, r3, #2, #1
 3108 1c60 033003E2 		and	r3, r3, #3
 3109 1c64 060053E1 		cmp	r3, r6
 3110 1c68 0630A021 		movcs	r3, r6
 3111 1c6c 080056E3 		cmp	r6, #8
 3112 1c70 0630A0D1 		movle	r3, r6
 3113 1c74 440200CA 		bgt	.L634
 3114              	.L216:
 3115 1c78 010053E3 		cmp	r3, #1
  45:../src/tensorflow_lite/src/tensorflow/lite/micro/kernels/pack.cpp ****   }
 3116              		.loc 1 45 0
 3117 1c7c 04A091E5 		ldr	r10, [r1, #4]
 3118              	.LVL383:
 3119 1c80 5402000A 		beq	.L360
 3120 1c84 082091E5 		ldr	r2, [r1, #8]
 3121 1c88 020053E3 		cmp	r3, #2
 3122 1c8c 920A0AE0 		mul	r10, r2, r10
 3123              	.LVL384:
 3124 1c90 5002000A 		beq	.L360
 3125 1c94 0C2091E5 		ldr	r2, [r1, #12]
 3126 1c98 030053E3 		cmp	r3, #3
 3127 1c9c 920A0AE0 		mul	r10, r2, r10
 3128              	.LVL385:
 3129 1ca0 4C02000A 		beq	.L360
 3130 1ca4 102091E5 		ldr	r2, [r1, #16]
 3131 1ca8 040053E3 		cmp	r3, #4
 3132 1cac 920A0AE0 		mul	r10, r2, r10
 3133              	.LVL386:
 3134 1cb0 4802000A 		beq	.L360
 3135 1cb4 142091E5 		ldr	r2, [r1, #20]
 3136 1cb8 050053E3 		cmp	r3, #5
 3137 1cbc 920A0AE0 		mul	r10, r2, r10
 3138              	.LVL387:
 3139 1cc0 4402000A 		beq	.L360
 3140 1cc4 182091E5 		ldr	r2, [r1, #24]
 3141 1cc8 060053E3 		cmp	r3, #6
 3142 1ccc 920A0AE0 		mul	r10, r2, r10
 3143              	.LVL388:
 3144 1cd0 4002000A 		beq	.L360
 3145 1cd4 1C2091E5 		ldr	r2, [r1, #28]
 3146 1cd8 070053E3 		cmp	r3, #7
 3147 1cdc 920A0AE0 		mul	r10, r2, r10
 3148              	.LVL389:
 3149 1ce0 3C02000A 		beq	.L360
 3150 1ce4 200091E5 		ldr	r0, [r1, #32]
  44:../src/tensorflow_lite/src/tensorflow/lite/micro/kernels/pack.cpp ****     outer_size *= output_dims->data[i];
 3151              		.loc 1 44 0
 3152 1ce8 0820A0E3 		mov	r2, #8
  45:../src/tensorflow_lite/src/tensorflow/lite/micro/kernels/pack.cpp ****   }
 3153              		.loc 1 45 0
 3154 1cec 900A0AE0 		mul	r10, r0, r10
 3155              	.LVL390:
 3156              	.L218:
 3157 1cf0 030056E1 		cmp	r6, r3
 3158 1cf4 2A00000A 		beq	.L215
 3159              	.LVL391:
 3160              	.L217:
 3161 1cf8 038046E0 		sub	r8, r6, r3
 3162 1cfc 01E046E2 		sub	lr, r6, #1
 3163 1d00 040048E2 		sub	r0, r8, #4
 3164 1d04 03E04EE0 		sub	lr, lr, r3
 3165 1d08 2001A0E1 		lsr	r0, r0, #2
 3166 1d0c 02005EE3 		cmp	lr, #2
 3167 1d10 010080E2 		add	r0, r0, #1
 3168 1d14 0041A0E1 		lsl	r4, r0, #2
 3169              	.LVL392:
 3170 1d18 1300009A 		bls	.L220
 3171 1d1c 013083E2 		add	r3, r3, #1
  44:../src/tensorflow_lite/src/tensorflow/lite/micro/kernels/pack.cpp ****     outer_size *= output_dims->data[i];
 3172              		.loc 1 44 0
 3173 1d20 5100C0F2 		vmov.i32	q8, #1  @ v4si
 3174 1d24 033181E0 		add	r3, r1, r3, lsl #2
 3175 1d28 00E0A0E3 		mov	lr, #0
 3176              	.L222:
 3177 1d2c 01E08EE2 		add	lr, lr, #1
  45:../src/tensorflow_lite/src/tensorflow/lite/micro/kernels/pack.cpp ****   }
 3178              		.loc 1 45 0
 3179 1d30 DF2A63F4 		vld1.64	{d18-d19}, [r3:64]
 3180 1d34 0E0050E1 		cmp	r0, lr
 3181 1d38 103083E2 		add	r3, r3, #16
 3182 1d3c F20960F2 		vmul.i32	q8, q8, q9
 3183 1d40 F9FFFF8A 		bhi	.L222
 3184 1d44 040058E1 		cmp	r8, r4
 3185 1d48 042082E0 		add	r2, r2, r4
 3186 1d4c 5020C0F2 		vmov.i32	q9, #0  @ v4si
 3187 1d50 E248F0F2 		vext.32	q10, q8, q9, #2
 3188 1d54 F40960F2 		vmul.i32	q8, q8, q10
 3189 1d58 E224F0F2 		vext.32	q9, q8, q9, #1
 3190 1d5c F20960F2 		vmul.i32	q8, q8, q9
 3191 1d60 903B10EE 		vmov.32	r3, d16[0]
 3192 1d64 930A0AE0 		mul	r10, r3, r10
 3193 1d68 0D00000A 		beq	.L215
 3194              	.L220:
 3195              	.LVL393:
 3196 1d6c 020181E0 		add	r0, r1, r2, lsl #2
  44:../src/tensorflow_lite/src/tensorflow/lite/micro/kernels/pack.cpp ****     outer_size *= output_dims->data[i];
 3197              		.loc 1 44 0
 3198 1d70 013082E2 		add	r3, r2, #1
  45:../src/tensorflow_lite/src/tensorflow/lite/micro/kernels/pack.cpp ****   }
 3199              		.loc 1 45 0
 3200 1d74 040090E5 		ldr	r0, [r0, #4]
  44:../src/tensorflow_lite/src/tensorflow/lite/micro/kernels/pack.cpp ****     outer_size *= output_dims->data[i];
 3201              		.loc 1 44 0
 3202 1d78 030056E1 		cmp	r6, r3
  45:../src/tensorflow_lite/src/tensorflow/lite/micro/kernels/pack.cpp ****   }
 3203              		.loc 1 45 0
 3204 1d7c 900A0AE0 		mul	r10, r0, r10
 3205              	.LVL394:
  44:../src/tensorflow_lite/src/tensorflow/lite/micro/kernels/pack.cpp ****     outer_size *= output_dims->data[i];
 3206              		.loc 1 44 0
 3207 1d80 070000DA 		ble	.L215
  45:../src/tensorflow_lite/src/tensorflow/lite/micro/kernels/pack.cpp ****   }
 3208              		.loc 1 45 0
 3209 1d84 033181E0 		add	r3, r1, r3, lsl #2
 3210              	.LVL395:
  44:../src/tensorflow_lite/src/tensorflow/lite/micro/kernels/pack.cpp ****     outer_size *= output_dims->data[i];
 3211              		.loc 1 44 0
 3212 1d88 022082E2 		add	r2, r2, #2
 3213              	.LVL396:
  45:../src/tensorflow_lite/src/tensorflow/lite/micro/kernels/pack.cpp ****   }
 3214              		.loc 1 45 0
 3215 1d8c 043093E5 		ldr	r3, [r3, #4]
  44:../src/tensorflow_lite/src/tensorflow/lite/micro/kernels/pack.cpp ****     outer_size *= output_dims->data[i];
 3216              		.loc 1 44 0
 3217 1d90 020056E1 		cmp	r6, r2
  45:../src/tensorflow_lite/src/tensorflow/lite/micro/kernels/pack.cpp ****   }
 3218              		.loc 1 45 0
 3219 1d94 930A0AE0 		mul	r10, r3, r10
 3220              	.LVL397:
  44:../src/tensorflow_lite/src/tensorflow/lite/micro/kernels/pack.cpp ****     outer_size *= output_dims->data[i];
 3221              		.loc 1 44 0
  45:../src/tensorflow_lite/src/tensorflow/lite/micro/kernels/pack.cpp ****   }
 3222              		.loc 1 45 0
 3223 1d98 022181C0 		addgt	r2, r1, r2, lsl #2
 3224              	.LVL398:
 3225 1d9c 043092C5 		ldrgt	r3, [r2, #4]
 3226 1da0 930A0AC0 		mulgt	r10, r3, r10
 3227              	.LVL399:
 3228              	.L215:
 3229              	.LBE446:
 3230              	.LBB447:
  48:../src/tensorflow_lite/src/tensorflow/lite/micro/kernels/pack.cpp ****     copy_size *= output_dims->data[i];
 3231              		.loc 1 48 0
 3232 1da4 013086E2 		add	r3, r6, #1
 3233              	.LVL400:
 3234 1da8 030057E1 		cmp	r7, r3
 3235 1dac 070200DA 		ble	.L635
 3236 1db0 028086E2 		add	r8, r6, #2
 3237 1db4 01E047E2 		sub	lr, r7, #1
 3238 1db8 082181E0 		add	r2, r1, r8, lsl #2
 3239 1dbc 06E04EE0 		sub	lr, lr, r6
 3240 1dc0 5201A0E7 		sbfx	r0, r2, #2, #1
 3241 1dc4 030000E2 		and	r0, r0, #3
 3242 1dc8 0E0050E1 		cmp	r0, lr
 3243 1dcc 0E00A021 		movcs	r0, lr
 3244 1dd0 08005EE3 		cmp	lr, #8
 3245 1dd4 0E00A091 		movls	r0, lr
 3246 1dd8 000050E3 		cmp	r0, #0
 3247 1ddc E801000A 		beq	.L362
  49:../src/tensorflow_lite/src/tensorflow/lite/micro/kernels/pack.cpp ****   }
 3248              		.loc 1 49 0
 3249 1de0 034181E0 		add	r4, r1, r3, lsl #2
 3250 1de4 010050E3 		cmp	r0, #1
  48:../src/tensorflow_lite/src/tensorflow/lite/micro/kernels/pack.cpp ****     copy_size *= output_dims->data[i];
 3251              		.loc 1 48 0
 3252 1de8 0830A0E1 		mov	r3, r8
 3253              	.LVL401:
  49:../src/tensorflow_lite/src/tensorflow/lite/micro/kernels/pack.cpp ****   }
 3254              		.loc 1 49 0
 3255 1dec 044094E5 		ldr	r4, [r4, #4]
 3256              	.LVL402:
 3257 1df0 2500000A 		beq	.L231
 3258 1df4 042092E5 		ldr	r2, [r2, #4]
 3259 1df8 020050E3 		cmp	r0, #2
  48:../src/tensorflow_lite/src/tensorflow/lite/micro/kernels/pack.cpp ****     copy_size *= output_dims->data[i];
 3260              		.loc 1 48 0
 3261 1dfc 033086E2 		add	r3, r6, #3
 3262              	.LVL403:
  49:../src/tensorflow_lite/src/tensorflow/lite/micro/kernels/pack.cpp ****   }
 3263              		.loc 1 49 0
 3264 1e00 920404E0 		mul	r4, r2, r4
 3265              	.LVL404:
 3266 1e04 2000000A 		beq	.L231
 3267 1e08 033181E0 		add	r3, r1, r3, lsl #2
 3268              	.LVL405:
 3269 1e0c 030050E3 		cmp	r0, #3
 3270 1e10 042093E5 		ldr	r2, [r3, #4]
  48:../src/tensorflow_lite/src/tensorflow/lite/micro/kernels/pack.cpp ****     copy_size *= output_dims->data[i];
 3271              		.loc 1 48 0
 3272 1e14 043086E2 		add	r3, r6, #4
  49:../src/tensorflow_lite/src/tensorflow/lite/micro/kernels/pack.cpp ****   }
 3273              		.loc 1 49 0
 3274 1e18 920404E0 		mul	r4, r2, r4
 3275              	.LVL406:
 3276 1e1c 1A00000A 		beq	.L231
 3277 1e20 033181E0 		add	r3, r1, r3, lsl #2
 3278              	.LVL407:
 3279 1e24 040050E3 		cmp	r0, #4
 3280 1e28 042093E5 		ldr	r2, [r3, #4]
  48:../src/tensorflow_lite/src/tensorflow/lite/micro/kernels/pack.cpp ****     copy_size *= output_dims->data[i];
 3281              		.loc 1 48 0
 3282 1e2c 053086E2 		add	r3, r6, #5
  49:../src/tensorflow_lite/src/tensorflow/lite/micro/kernels/pack.cpp ****   }
 3283              		.loc 1 49 0
 3284 1e30 920404E0 		mul	r4, r2, r4
 3285              	.LVL408:
 3286 1e34 1400000A 		beq	.L231
 3287 1e38 033181E0 		add	r3, r1, r3, lsl #2
 3288              	.LVL409:
 3289 1e3c 050050E3 		cmp	r0, #5
 3290 1e40 042093E5 		ldr	r2, [r3, #4]
  48:../src/tensorflow_lite/src/tensorflow/lite/micro/kernels/pack.cpp ****     copy_size *= output_dims->data[i];
 3291              		.loc 1 48 0
 3292 1e44 063086E2 		add	r3, r6, #6
  49:../src/tensorflow_lite/src/tensorflow/lite/micro/kernels/pack.cpp ****   }
 3293              		.loc 1 49 0
 3294 1e48 920404E0 		mul	r4, r2, r4
 3295              	.LVL410:
 3296 1e4c 0E00000A 		beq	.L231
 3297 1e50 033181E0 		add	r3, r1, r3, lsl #2
 3298              	.LVL411:
 3299 1e54 060050E3 		cmp	r0, #6
 3300 1e58 042093E5 		ldr	r2, [r3, #4]
  48:../src/tensorflow_lite/src/tensorflow/lite/micro/kernels/pack.cpp ****     copy_size *= output_dims->data[i];
 3301              		.loc 1 48 0
 3302 1e5c 073086E2 		add	r3, r6, #7
  49:../src/tensorflow_lite/src/tensorflow/lite/micro/kernels/pack.cpp ****   }
 3303              		.loc 1 49 0
 3304 1e60 920404E0 		mul	r4, r2, r4
 3305              	.LVL412:
 3306 1e64 0800000A 		beq	.L231
 3307 1e68 033181E0 		add	r3, r1, r3, lsl #2
 3308              	.LVL413:
 3309 1e6c 070050E3 		cmp	r0, #7
 3310 1e70 042093E5 		ldr	r2, [r3, #4]
  48:../src/tensorflow_lite/src/tensorflow/lite/micro/kernels/pack.cpp ****     copy_size *= output_dims->data[i];
 3311              		.loc 1 48 0
 3312 1e74 083086E2 		add	r3, r6, #8
  49:../src/tensorflow_lite/src/tensorflow/lite/micro/kernels/pack.cpp ****   }
 3313              		.loc 1 49 0
 3314 1e78 920404E0 		mul	r4, r2, r4
 3315              	.LVL414:
 3316 1e7c 03218110 		addne	r2, r1, r3, lsl #2
  48:../src/tensorflow_lite/src/tensorflow/lite/micro/kernels/pack.cpp ****     copy_size *= output_dims->data[i];
 3317              		.loc 1 48 0
 3318 1e80 09308612 		addne	r3, r6, #9
 3319              	.LVL415:
  49:../src/tensorflow_lite/src/tensorflow/lite/micro/kernels/pack.cpp ****   }
 3320              		.loc 1 49 0
 3321 1e84 04209215 		ldrne	r2, [r2, #4]
 3322 1e88 92040410 		mulne	r4, r2, r4
 3323              	.LVL416:
 3324              	.L231:
 3325 1e8c 00005EE1 		cmp	lr, r0
 3326 1e90 2B00000A 		beq	.L239
 3327              	.LVL417:
 3328              	.L230:
 3329 1e94 062047E0 		sub	r2, r7, r6
 3330 1e98 00E04EE0 		sub	lr, lr, r0
 3331 1e9c 022042E2 		sub	r2, r2, #2
 3332 1ea0 04604EE2 		sub	r6, lr, #4
 3333              	.LVL418:
 3334 1ea4 002042E0 		sub	r2, r2, r0
 3335 1ea8 2661A0E1 		lsr	r6, r6, #2
 3336 1eac 020052E3 		cmp	r2, #2
 3337 1eb0 012086E2 		add	r2, r6, #1
 3338 1eb4 0261A0E1 		lsl	r6, r2, #2
 3339 1eb8 1300009A 		bls	.L233
 3340 1ebc 000088E0 		add	r0, r8, r0
  48:../src/tensorflow_lite/src/tensorflow/lite/micro/kernels/pack.cpp ****     copy_size *= output_dims->data[i];
 3341              		.loc 1 48 0
 3342 1ec0 5100C0F2 		vmov.i32	q8, #1  @ v4si
 3343 1ec4 000181E0 		add	r0, r1, r0, lsl #2
 3344 1ec8 0080A0E3 		mov	r8, #0
 3345              	.LVL419:
 3346              	.L235:
 3347 1ecc 018088E2 		add	r8, r8, #1
  49:../src/tensorflow_lite/src/tensorflow/lite/micro/kernels/pack.cpp ****   }
 3348              		.loc 1 49 0
 3349 1ed0 DF2A60F4 		vld1.64	{d18-d19}, [r0:64]
 3350 1ed4 080052E1 		cmp	r2, r8
 3351 1ed8 100080E2 		add	r0, r0, #16
 3352 1edc F20960F2 		vmul.i32	q8, q8, q9
 3353 1ee0 F9FFFF8A 		bhi	.L235
 3354 1ee4 06005EE1 		cmp	lr, r6
 3355 1ee8 063083E0 		add	r3, r3, r6
 3356 1eec 5020C0F2 		vmov.i32	q9, #0  @ v4si
 3357 1ef0 E248F0F2 		vext.32	q10, q8, q9, #2
 3358 1ef4 F40960F2 		vmul.i32	q8, q8, q10
 3359 1ef8 E224F0F2 		vext.32	q9, q8, q9, #1
 3360 1efc F20960F2 		vmul.i32	q8, q8, q9
 3361 1f00 902B10EE 		vmov.32	r2, d16[0]
 3362 1f04 920404E0 		mul	r4, r2, r4
 3363 1f08 0D00000A 		beq	.L239
 3364              	.L233:
 3365              	.LVL420:
 3366 1f0c 030181E0 		add	r0, r1, r3, lsl #2
  48:../src/tensorflow_lite/src/tensorflow/lite/micro/kernels/pack.cpp ****     copy_size *= output_dims->data[i];
 3367              		.loc 1 48 0
 3368 1f10 012083E2 		add	r2, r3, #1
  49:../src/tensorflow_lite/src/tensorflow/lite/micro/kernels/pack.cpp ****   }
 3369              		.loc 1 49 0
 3370 1f14 040090E5 		ldr	r0, [r0, #4]
  48:../src/tensorflow_lite/src/tensorflow/lite/micro/kernels/pack.cpp ****     copy_size *= output_dims->data[i];
 3371              		.loc 1 48 0
 3372 1f18 020057E1 		cmp	r7, r2
  49:../src/tensorflow_lite/src/tensorflow/lite/micro/kernels/pack.cpp ****   }
 3373              		.loc 1 49 0
 3374 1f1c 900404E0 		mul	r4, r0, r4
 3375              	.LVL421:
  48:../src/tensorflow_lite/src/tensorflow/lite/micro/kernels/pack.cpp ****     copy_size *= output_dims->data[i];
 3376              		.loc 1 48 0
 3377 1f20 070000DA 		ble	.L239
  49:../src/tensorflow_lite/src/tensorflow/lite/micro/kernels/pack.cpp ****   }
 3378              		.loc 1 49 0
 3379 1f24 022181E0 		add	r2, r1, r2, lsl #2
 3380              	.LVL422:
  48:../src/tensorflow_lite/src/tensorflow/lite/micro/kernels/pack.cpp ****     copy_size *= output_dims->data[i];
 3381              		.loc 1 48 0
 3382 1f28 023083E2 		add	r3, r3, #2
 3383              	.LVL423:
  49:../src/tensorflow_lite/src/tensorflow/lite/micro/kernels/pack.cpp ****   }
 3384              		.loc 1 49 0
 3385 1f2c 042092E5 		ldr	r2, [r2, #4]
  48:../src/tensorflow_lite/src/tensorflow/lite/micro/kernels/pack.cpp ****     copy_size *= output_dims->data[i];
 3386              		.loc 1 48 0
 3387 1f30 030057E1 		cmp	r7, r3
  49:../src/tensorflow_lite/src/tensorflow/lite/micro/kernels/pack.cpp ****   }
 3388              		.loc 1 49 0
 3389 1f34 920404E0 		mul	r4, r2, r4
 3390              	.LVL424:
  48:../src/tensorflow_lite/src/tensorflow/lite/micro/kernels/pack.cpp ****     copy_size *= output_dims->data[i];
 3391              		.loc 1 48 0
  49:../src/tensorflow_lite/src/tensorflow/lite/micro/kernels/pack.cpp ****   }
 3392              		.loc 1 49 0
 3393 1f38 033181C0 		addgt	r3, r1, r3, lsl #2
 3394              	.LVL425:
 3395 1f3c 043093C5 		ldrgt	r3, [r3, #4]
 3396 1f40 930404C0 		mulgt	r4, r3, r4
 3397              	.LVL426:
 3398              	.L239:
 3399              	.LBE447:
 3400              	.LBB448:
  52:../src/tensorflow_lite/src/tensorflow/lite/micro/kernels/pack.cpp ****     input_size *= input_dims->data[i];
 3401              		.loc 1 52 0
 3402 1f44 00009CE5 		ldr	r0, [ip]
 3403 1f48 000050E3 		cmp	r0, #0
 3404 1f4c 9D0100DA 		ble	.L636
 3405 1f50 04308CE2 		add	r3, ip, #4
 3406 1f54 5331A0E7 		sbfx	r3, r3, #2, #1
 3407 1f58 033003E2 		and	r3, r3, #3
 3408 1f5c 000053E1 		cmp	r3, r0
 3409 1f60 0030A021 		movcs	r3, r0
 3410 1f64 080050E3 		cmp	r0, #8
 3411 1f68 0030A0D1 		movle	r3, r0
 3412 1f6c 7F0100CA 		bgt	.L637
 3413              	.LVL427:
 3414              	.L240:
 3415 1f70 010053E3 		cmp	r3, #1
  53:../src/tensorflow_lite/src/tensorflow/lite/micro/kernels/pack.cpp ****   }
 3416              		.loc 1 53 0
 3417 1f74 04209CE5 		ldr	r2, [ip, #4]
 3418              	.LVL428:
 3419 1f78 9001000A 		beq	.L371
 3420 1f7c 08109CE5 		ldr	r1, [ip, #8]
 3421 1f80 020053E3 		cmp	r3, #2
 3422 1f84 910202E0 		mul	r2, r1, r2
 3423              	.LVL429:
 3424 1f88 8C01000A 		beq	.L371
 3425 1f8c 0C109CE5 		ldr	r1, [ip, #12]
 3426 1f90 030053E3 		cmp	r3, #3
 3427 1f94 910202E0 		mul	r2, r1, r2
 3428              	.LVL430:
 3429 1f98 8801000A 		beq	.L371
 3430 1f9c 10109CE5 		ldr	r1, [ip, #16]
 3431 1fa0 040053E3 		cmp	r3, #4
 3432 1fa4 910202E0 		mul	r2, r1, r2
 3433              	.LVL431:
 3434 1fa8 8401000A 		beq	.L371
 3435 1fac 14109CE5 		ldr	r1, [ip, #20]
 3436 1fb0 050053E3 		cmp	r3, #5
 3437 1fb4 910202E0 		mul	r2, r1, r2
 3438              	.LVL432:
 3439 1fb8 8001000A 		beq	.L371
 3440 1fbc 18109CE5 		ldr	r1, [ip, #24]
 3441 1fc0 060053E3 		cmp	r3, #6
 3442 1fc4 910202E0 		mul	r2, r1, r2
 3443              	.LVL433:
 3444 1fc8 7C01000A 		beq	.L371
 3445 1fcc 1C109CE5 		ldr	r1, [ip, #28]
 3446 1fd0 070053E3 		cmp	r3, #7
 3447 1fd4 910202E0 		mul	r2, r1, r2
 3448              	.LVL434:
 3449 1fd8 7801000A 		beq	.L371
 3450 1fdc 20E09CE5 		ldr	lr, [ip, #32]
  52:../src/tensorflow_lite/src/tensorflow/lite/micro/kernels/pack.cpp ****     input_size *= input_dims->data[i];
 3451              		.loc 1 52 0
 3452 1fe0 0810A0E3 		mov	r1, #8
  53:../src/tensorflow_lite/src/tensorflow/lite/micro/kernels/pack.cpp ****   }
 3453              		.loc 1 53 0
 3454 1fe4 9E0202E0 		mul	r2, lr, r2
 3455              	.LVL435:
 3456              	.L242:
 3457 1fe8 030050E1 		cmp	r0, r3
 3458 1fec 2A00000A 		beq	.L227
 3459              	.LVL436:
 3460              	.L241:
 3461 1ff0 038040E0 		sub	r8, r0, r3
 3462 1ff4 016040E2 		sub	r6, r0, #1
 3463 1ff8 04E048E2 		sub	lr, r8, #4
 3464 1ffc 036046E0 		sub	r6, r6, r3
 3465 2000 2EE1A0E1 		lsr	lr, lr, #2
 3466 2004 020056E3 		cmp	r6, #2
 3467 2008 01E08EE2 		add	lr, lr, #1
 3468 200c 0E71A0E1 		lsl	r7, lr, #2
 3469              	.LVL437:
 3470 2010 1300009A 		bls	.L244
 3471 2014 013083E2 		add	r3, r3, #1
  52:../src/tensorflow_lite/src/tensorflow/lite/micro/kernels/pack.cpp ****     input_size *= input_dims->data[i];
 3472              		.loc 1 52 0
 3473 2018 5100C0F2 		vmov.i32	q8, #1  @ v4si
 3474 201c 03318CE0 		add	r3, ip, r3, lsl #2
 3475 2020 0060A0E3 		mov	r6, #0
 3476              	.L246:
 3477 2024 016086E2 		add	r6, r6, #1
  53:../src/tensorflow_lite/src/tensorflow/lite/micro/kernels/pack.cpp ****   }
 3478              		.loc 1 53 0
 3479 2028 DF2A63F4 		vld1.64	{d18-d19}, [r3:64]
 3480 202c 06005EE1 		cmp	lr, r6
 3481 2030 103083E2 		add	r3, r3, #16
 3482 2034 F20960F2 		vmul.i32	q8, q8, q9
 3483 2038 F9FFFF8A 		bhi	.L246
 3484 203c 070058E1 		cmp	r8, r7
 3485 2040 071081E0 		add	r1, r1, r7
 3486 2044 5020C0F2 		vmov.i32	q9, #0  @ v4si
 3487 2048 E248F0F2 		vext.32	q10, q8, q9, #2
 3488 204c F40960F2 		vmul.i32	q8, q8, q10
 3489 2050 E224F0F2 		vext.32	q9, q8, q9, #1
 3490 2054 F20960F2 		vmul.i32	q8, q8, q9
 3491 2058 903B10EE 		vmov.32	r3, d16[0]
 3492 205c 930202E0 		mul	r2, r3, r2
 3493 2060 0D00000A 		beq	.L227
 3494              	.L244:
 3495              	.LVL438:
 3496 2064 01E18CE0 		add	lr, ip, r1, lsl #2
  52:../src/tensorflow_lite/src/tensorflow/lite/micro/kernels/pack.cpp ****     input_size *= input_dims->data[i];
 3497              		.loc 1 52 0
 3498 2068 013081E2 		add	r3, r1, #1
  53:../src/tensorflow_lite/src/tensorflow/lite/micro/kernels/pack.cpp ****   }
 3499              		.loc 1 53 0
 3500 206c 04E09EE5 		ldr	lr, [lr, #4]
  52:../src/tensorflow_lite/src/tensorflow/lite/micro/kernels/pack.cpp ****     input_size *= input_dims->data[i];
 3501              		.loc 1 52 0
 3502 2070 030050E1 		cmp	r0, r3
  53:../src/tensorflow_lite/src/tensorflow/lite/micro/kernels/pack.cpp ****   }
 3503              		.loc 1 53 0
 3504 2074 9E0202E0 		mul	r2, lr, r2
 3505              	.LVL439:
  52:../src/tensorflow_lite/src/tensorflow/lite/micro/kernels/pack.cpp ****     input_size *= input_dims->data[i];
 3506              		.loc 1 52 0
 3507 2078 070000DA 		ble	.L227
  53:../src/tensorflow_lite/src/tensorflow/lite/micro/kernels/pack.cpp ****   }
 3508              		.loc 1 53 0
 3509 207c 03318CE0 		add	r3, ip, r3, lsl #2
 3510              	.LVL440:
  52:../src/tensorflow_lite/src/tensorflow/lite/micro/kernels/pack.cpp ****     input_size *= input_dims->data[i];
 3511              		.loc 1 52 0
 3512 2080 021081E2 		add	r1, r1, #2
 3513              	.LVL441:
  53:../src/tensorflow_lite/src/tensorflow/lite/micro/kernels/pack.cpp ****   }
 3514              		.loc 1 53 0
 3515 2084 043093E5 		ldr	r3, [r3, #4]
  52:../src/tensorflow_lite/src/tensorflow/lite/micro/kernels/pack.cpp ****     input_size *= input_dims->data[i];
 3516              		.loc 1 52 0
 3517 2088 010050E1 		cmp	r0, r1
  53:../src/tensorflow_lite/src/tensorflow/lite/micro/kernels/pack.cpp ****   }
 3518              		.loc 1 53 0
 3519 208c 930202E0 		mul	r2, r3, r2
 3520              	.LVL442:
  52:../src/tensorflow_lite/src/tensorflow/lite/micro/kernels/pack.cpp ****     input_size *= input_dims->data[i];
 3521              		.loc 1 52 0
  53:../src/tensorflow_lite/src/tensorflow/lite/micro/kernels/pack.cpp ****   }
 3522              		.loc 1 53 0
 3523 2090 01118CC0 		addgt	r1, ip, r1, lsl #2
 3524              	.LVL443:
 3525 2094 043091C5 		ldrgt	r3, [r1, #4]
 3526 2098 930202C0 		mulgt	r2, r3, r2
 3527              	.LVL444:
 3528              	.L227:
 3529              	.LBE448:
  55:../src/tensorflow_lite/src/tensorflow/lite/micro/kernels/pack.cpp **** 
 3530              		.loc 1 55 0
 3531 209c 940A03E0 		mul	r3, r4, r10
 3532 20a0 020053E1 		cmp	r3, r2
 3533 20a4 4401001A 		bne	.L46
 3534              	.LVL445:
 3535              	.LBB449:
  59:../src/tensorflow_lite/src/tensorflow/lite/micro/kernels/pack.cpp ****     const TfLiteEvalTensor* t = tflite::micro::GetEvalInput(context, node, i);
 3536              		.loc 1 59 0
 3537 20a8 2C309DE5 		ldr	r3, [sp, #44]
 3538              	.LBE449:
 3539              	.LBB470:
 3540              	.LBB471:
  56:C:/Renesas/e2studio_2021_01_workspace_RZA2M_ANPR/ANPR_RZA2M_GR_MANGO/src/tensorflow_lite/src/tensorflow/lite/micro/kernels\kernel_util.h **** }
 3541              		.loc 2 56 0
 3542 20ac 002095E5 		ldr	r2, [r5]
 3543              	.LBE471:
 3544              	.LBE470:
 3545              	.LBB473:
  59:../src/tensorflow_lite/src/tensorflow/lite/micro/kernels/pack.cpp ****     const TfLiteEvalTensor* t = tflite::micro::GetEvalInput(context, node, i);
 3546              		.loc 1 59 0
 3547 20b0 000053E3 		cmp	r3, #0
 3548              	.LBE473:
 3549              	.LBB474:
 3550              	.LBB472:
  56:C:/Renesas/e2studio_2021_01_workspace_RZA2M_ANPR/ANPR_RZA2M_GR_MANGO/src/tensorflow_lite/src/tensorflow/lite/micro/kernels\kernel_util.h **** }
 3551              		.loc 2 56 0
 3552 20b4 0210A0E1 		mov	r1, r2
 3553              	.LBE472:
 3554              	.LBE474:
 3555              	.LBB475:
  59:../src/tensorflow_lite/src/tensorflow/lite/micro/kernels/pack.cpp ****     const TfLiteEvalTensor* t = tflite::micro::GetEvalInput(context, node, i);
 3556              		.loc 1 59 0
 3557 20b8 CBF9FFDA 		ble	.L50
 3558 20bc 940302E0 		mul	r2, r4, r3
 3559 20c0 025044E2 		sub	r5, r4, #2
 3560              	.LVL446:
 3561 20c4 A550A0E1 		lsr	r5, r5, #1
 3562 20c8 053044E2 		sub	r3, r4, #5
 3563 20cc 8401A0E1 		lsl	r0, r4, #3
 3564 20d0 24108DE5 		str	r1, [sp, #36]
 3565 20d4 015085E2 		add	r5, r5, #1
 3566 20d8 08A08DE5 		str	r10, [sp, #8]
 3567 20dc 0330C3E3 		bic	r3, r3, #3
 3568 20e0 04008DE5 		str	r0, [sp, #4]
 3569 20e4 043083E2 		add	r3, r3, #4
 3570 20e8 8500A0E1 		lsl	r0, r5, #1
 3571 20ec 8221A0E1 		lsl	r2, r2, #3
 3572 20f0 0160A0E1 		mov	r6, r1
 3573 20f4 28308DE5 		str	r3, [sp, #40]
 3574 20f8 0030A0E3 		mov	r3, #0
 3575 20fc 10008DE5 		str	r0, [sp, #16]
 3576 2100 0C208DE5 		str	r2, [sp, #12]
 3577 2104 20308DE5 		str	r3, [sp, #32]
 3578              	.LVL447:
 3579              	.L251:
 3580              	.LBB450:
 3581              	.LBB451:
 3582              	.LBB452:
 3583              	.LBB453:
  36:C:/Renesas/e2studio_2021_01_workspace_RZA2M_ANPR/ANPR_RZA2M_GR_MANGO/src/tensorflow_lite/src/tensorflow/lite/micro/kernels\kernel_util.h **** }
 3584              		.loc 2 36 0
 3585 2108 18309DE5 		ldr	r3, [sp, #24]
 3586 210c 20109DE5 		ldr	r1, [sp, #32]
 3587 2110 002093E5 		ldr	r2, [r3]
 3588 2114 14309DE5 		ldr	r3, [sp, #20]
 3589 2118 012182E0 		add	r2, r2, r1, lsl #2
 3590 211c 0300A0E1 		mov	r0, r3
 3591 2120 543093E5 		ldr	r3, [r3, #84]
 3592 2124 041092E5 		ldr	r1, [r2, #4]
 3593 2128 33FF2FE1 		blx	r3
 3594              	.LVL448:
 3595              	.LBE453:
 3596              	.LBE452:
 3597              	.LBE451:
 3598              	.LBB454:
 3599              	.LBB455:
  62:C:/Renesas/e2studio_2021_01_workspace_RZA2M_ANPR/ANPR_RZA2M_GR_MANGO/src/tensorflow_lite/src/tensorflow/lite/micro/kernels\kernel_util.h ****   return reinterpret_cast<const T*>(tensor->data.raw);
 3600              		.loc 2 62 0
 3601 212c 000050E3 		cmp	r0, #0
 3602 2130 2101000A 		beq	.L46
 3603              	.LBE455:
 3604              	.LBE454:
 3605              	.LBB457:
  62:../src/tensorflow_lite/src/tensorflow/lite/micro/kernels/pack.cpp ****       const T* input_ptr = input_data + copy_size * k;
 3606              		.loc 1 62 0
 3607 2134 08309DE5 		ldr	r3, [sp, #8]
 3608              	.LBE457:
 3609              	.LBB466:
 3610              	.LBB456:
 3611              		.loc 2 63 0
 3612 2138 009090E5 		ldr	r9, [r0]
 3613              	.LVL449:
 3614              	.LBE456:
 3615              	.LBE466:
 3616              	.LBB467:
  62:../src/tensorflow_lite/src/tensorflow/lite/micro/kernels/pack.cpp ****       const T* input_ptr = input_data + copy_size * k;
 3617              		.loc 1 62 0
 3618 213c 000053E3 		cmp	r3, #0
 3619 2140 310000DA 		ble	.L252
 3620 2144 000054E3 		cmp	r4, #0
 3621 2148 2F0000DA 		ble	.L252
 3622              	.LBB458:
 3623              	.LBB459:
  66:../src/tensorflow_lite/src/tensorflow/lite/micro/kernels/pack.cpp ****     }
 3624              		.loc 1 66 0
 3625 214c 10309DE5 		ldr	r3, [sp, #16]
 3626              	.LBE459:
 3627              	.LBE458:
  62:../src/tensorflow_lite/src/tensorflow/lite/micro/kernels/pack.cpp ****       const T* input_ptr = input_data + copy_size * k;
 3628              		.loc 1 62 0
 3629 2150 09C0A0E1 		mov	ip, r9
 3630 2154 24E09DE5 		ldr	lr, [sp, #36]
 3631 2158 0070A0E3 		mov	r7, #0
 3632              	.LBB463:
 3633              	.LBB460:
  66:../src/tensorflow_lite/src/tensorflow/lite/micro/kernels/pack.cpp ****     }
 3634              		.loc 1 66 0
 3635 215c 8381A0E1 		lsl	r8, r3, #3
 3636 2160 08A089E0 		add	r10, r9, r8
 3637 2164 088086E0 		add	r8, r6, r8
 3638              	.LVL450:
 3639              	.L255:
 3640 2168 0E108CE1 		orr	r1, ip, lr
 3641 216c 0C0054E3 		cmp	r4, #12
 3642 2170 5110E3E7 		ubfx	r1, r1, #0, #4
 3643 2174 00B0A093 		movls	fp, #0
 3644 2178 01B0A083 		movhi	fp, #1
 3645 217c 10208CE2 		add	r2, ip, #16
 3646 2180 000051E3 		cmp	r1, #0
 3647 2184 10008EE2 		add	r0, lr, #16
 3648 2188 00B0A013 		movne	fp, #0
 3649 218c 00005CE1 		cmp	ip, r0
 3650 2190 02005E31 		cmpcc	lr, r2
 3651 2194 0130A023 		movcs	r3, #1
 3652 2198 0030A033 		movcc	r3, #0
 3653 219c 03301BE0 		ands	r3, fp, r3
 3654 21a0 09204CE0 		sub	r2, ip, r9
 3655              	.LVL451:
 3656 21a4 06004EE0 		sub	r0, lr, r6
 3657              	.LVL452:
 3658              	.LBE460:
 3659              	.LBE463:
  62:../src/tensorflow_lite/src/tensorflow/lite/micro/kernels/pack.cpp ****       const T* input_ptr = input_data + copy_size * k;
 3660              		.loc 1 62 0
 3661 21a8 0CB0A011 		movne	fp, ip
 3662 21ac 0E10A011 		movne	r1, lr
 3663 21b0 0030A013 		movne	r3, #0
 3664 21b4 8E00000A 		beq	.L638
 3665              	.LVL453:
 3666              	.L253:
 3667 21b8 013083E2 		add	r3, r3, #1
 3668              	.LBB464:
 3669              	.LBB461:
  66:../src/tensorflow_lite/src/tensorflow/lite/micro/kernels/pack.cpp ****     }
 3670              		.loc 1 66 0
 3671 21bc DF0A6BF4 		vld1.64	{d16-d17}, [fp:64]
 3672 21c0 030055E1 		cmp	r5, r3
 3673 21c4 10B08BE2 		add	fp, fp, #16
 3674 21c8 DF0A41F4 		vst1.64	{d16-d17}, [r1:64]
 3675 21cc 101081E2 		add	r1, r1, #16
 3676 21d0 F8FFFF8A 		bhi	.L253
 3677 21d4 10309DE5 		ldr	r3, [sp, #16]
 3678 21d8 040053E1 		cmp	r3, r4
 3679              	.LVL454:
 3680 21dc 02208A10 		addne	r2, r10, r2
 3681              	.LVL455:
 3682 21e0 00008810 		addne	r0, r8, r0
 3683              	.LVL456:
 3684 21e4 D020C211 		ldrdne	r2, [r2]
 3685 21e8 F020C011 		strdne	r2, [r0]
 3686              	.LVL457:
 3687              	.L259:
 3688 21ec 04309DE5 		ldr	r3, [sp, #4]
 3689              	.LBE461:
 3690              	.LBE464:
  62:../src/tensorflow_lite/src/tensorflow/lite/micro/kernels/pack.cpp ****       const T* input_ptr = input_data + copy_size * k;
 3691              		.loc 1 62 0
 3692 21f0 017087E2 		add	r7, r7, #1
 3693              	.LVL458:
 3694 21f4 03C08CE0 		add	ip, ip, r3
 3695              	.LVL459:
 3696 21f8 08309DE5 		ldr	r3, [sp, #8]
 3697 21fc 030057E1 		cmp	r7, r3
 3698 2200 0C309DE5 		ldr	r3, [sp, #12]
 3699 2204 03E08EE0 		add	lr, lr, r3
 3700 2208 D6FFFF1A 		bne	.L255
 3701              	.LVL460:
 3702              	.L252:
 3703 220c 24209DE5 		ldr	r2, [sp, #36]
 3704 2210 04109DE5 		ldr	r1, [sp, #4]
 3705              	.LBE467:
 3706              	.LBE450:
  59:../src/tensorflow_lite/src/tensorflow/lite/micro/kernels/pack.cpp ****     const TfLiteEvalTensor* t = tflite::micro::GetEvalInput(context, node, i);
 3707              		.loc 1 59 0
 3708 2214 20309DE5 		ldr	r3, [sp, #32]
 3709 2218 012082E0 		add	r2, r2, r1
 3710 221c 24208DE5 		str	r2, [sp, #36]
 3711 2220 013083E2 		add	r3, r3, #1
 3712 2224 2C209DE5 		ldr	r2, [sp, #44]
 3713 2228 20308DE5 		str	r3, [sp, #32]
 3714              	.LVL461:
 3715 222c 030052E1 		cmp	r2, r3
 3716 2230 B4FFFF1A 		bne	.L251
 3717 2234 6CF9FFEA 		b	.L50
 3718              	.LVL462:
 3719              	.L3:
 3720              	.LBE475:
 3721              	.LBE484:
 3722              	.LBE490:
 102:../src/tensorflow_lite/src/tensorflow/lite/micro/kernels/pack.cpp ****                          TfLiteTypeGetName(output->type));
 3723              		.loc 1 102 0
 3724 2238 14509DE5 		ldr	r5, [sp, #20]
 3725 223c 144095E5 		ldr	r4, [r5, #20]
 3726              	.LVL463:
 3727 2240 FEFFFFEB 		bl	TfLiteTypeGetName
 3728              	.LVL464:
 3729 2244 001000E3 		movw	r1, #:lower16:.LC0
 3730 2248 0020A0E1 		mov	r2, r0
 3731 224c 001040E3 		movt	r1, #:upper16:.LC0
 3732 2250 0500A0E1 		mov	r0, r5
 3733 2254 34FF2FE1 		blx	r4
 3734              	.LVL465:
 104:../src/tensorflow_lite/src/tensorflow/lite/micro/kernels/pack.cpp ****     }
 3735              		.loc 1 104 0
 3736 2258 0100A0E3 		mov	r0, #1
 3737              		.loc 1 109 0
 3738 225c 34D08DE2 		add	sp, sp, #52
 3739              		.cfi_remember_state
 3740              		.cfi_def_cfa_offset 36
 3741              		@ sp needed
 3742 2260 F08FBDE8 		pop	{r4, r5, r6, r7, r8, r9, r10, fp, pc}
 3743              	.LVL466:
 3744              	.L597:
 3745              		.cfi_restore_state
 3746 2264 04C082E0 		add	ip, r2, r4
 3747 2268 5AFEFFEA 		b	.L112
 3748              	.LVL467:
 3749              	.L598:
 3750 226c 04C082E0 		add	ip, r2, r4
 3751 2270 4FF9FFEA 		b	.L161
 3752              	.LVL468:
 3753              	.L305:
 3754              	.LBB491:
 3755              	.LBB424:
 3756              	.LBB414:
 3757              	.LBB409:
 3758              	.LBB407:
 3759              	.LBB403:
 3760              	.LBB401:
  66:../src/tensorflow_lite/src/tensorflow/lite/micro/kernels/pack.cpp ****     }
 3761              		.loc 1 66 0
 3762 2274 0030A0E3 		mov	r3, #0
 3763 2278 EFFDFFEA 		b	.L107
 3764              	.LVL469:
 3765              	.L327:
 3766              	.LBE401:
 3767              	.LBE403:
 3768              	.LBE407:
 3769              	.LBE409:
 3770              	.LBE414:
 3771              	.LBE424:
 3772              	.LBE491:
 3773              	.LBB492:
 3774              	.LBB252:
 3775              	.LBB242:
 3776              	.LBB237:
 3777              	.LBB235:
 3778              	.LBB231:
 3779              	.LBB229:
 3780 227c 0030A0E3 		mov	r3, #0
 3781 2280 E4F8FFEA 		b	.L156
 3782              	.LVL470:
 3783              	.L633:
 3784 2284 04C082E0 		add	ip, r2, r4
 3785              	.LVL471:
 3786              	.LBE229:
 3787              	.LBE231:
 3788              	.LBE235:
 3789              	.LBE237:
 3790              	.LBE242:
 3791              	.LBE252:
 3792              	.LBE492:
 3793              	.LBB493:
 3794              	.LBB425:
 3795              	.LBB415:
 3796              	.LBB410:
 3797              	.LBB408:
 3798              	.LBB404:
 3799              	.LBB402:
 3800 2288 0E30A0E1 		mov	r3, lr
 3801              	.LVL472:
 3802              	.L113:
 3803 228c 0100D2E4 		ldrb	r0, [r2], #1	@ zero_extendqisi2
 3804 2290 0C0052E1 		cmp	r2, ip
 3805 2294 0100C3E4 		strb	r0, [r3], #1
 3806 2298 FBFFFF1A 		bne	.L113
 3807 229c 4DFEFFEA 		b	.L112
 3808              	.LVL473:
 3809              	.L616:
 3810 22a0 04C082E0 		add	ip, r2, r4
 3811              	.LVL474:
 3812              	.LBE402:
 3813              	.LBE404:
 3814              	.LBE408:
 3815              	.LBE410:
 3816              	.LBE415:
 3817              	.LBE425:
 3818              	.LBE493:
 3819              	.LBB494:
 3820              	.LBB253:
 3821              	.LBB243:
 3822              	.LBB238:
 3823              	.LBB236:
 3824              	.LBB232:
 3825              	.LBB230:
 3826 22a4 0E30A0E1 		mov	r3, lr
 3827              	.LVL475:
 3828              	.L162:
 3829 22a8 D100D2E0 		ldrsb	r0, [r2], #1
 3830 22ac 0C0052E1 		cmp	r2, ip
 3831 22b0 0100C3E4 		strb	r0, [r3], #1
 3832 22b4 FBFFFF1A 		bne	.L162
 3833 22b8 3DF9FFEA 		b	.L161
 3834              	.LVL476:
 3835              	.L627:
 3836 22bc 080054E3 		cmp	r4, #8
 3837 22c0 1A0000DA 		ble	.L210
 3838              	.LBE230:
 3839              	.LBE232:
 3840              	.LBE236:
 3841              	.LBE238:
 3842              	.LBE243:
 3843              	.LBE253:
 3844              	.LBE494:
 3845              	.LBB495:
 3846              	.LBB366:
 3847              	.LBB356:
 3848              	.LBB352:
 3849              	.LBB351:
 3850              	.LBB348:
 3851              	.LBB346:
 3852 22c4 28B09DE5 		ldr	fp, [sp, #40]
 3853 22c8 50C081E2 		add	ip, r1, #80
 3854 22cc 00E0A0E1 		mov	lr, r0
 3855 22d0 1C308DE5 		str	r3, [sp, #28]
 3856              	.LVL477:
 3857              	.L211:
 3858 22d4 50301CE5 		ldr	r3, [ip, #-80]
 3859 22d8 082082E2 		add	r2, r2, #8
 3860              	.LVL478:
 3861 22dc 00F0DCF5 		pld	[ip]
 3862 22e0 0B0052E1 		cmp	r2, fp
 3863 22e4 20C08CE2 		add	ip, ip, #32
 3864 22e8 20E08EE2 		add	lr, lr, #32
 3865 22ec 20300EE5 		str	r3, [lr, #-32]
 3866              	.LVL479:
 3867 22f0 6C301CE5 		ldr	r3, [ip, #-108]
 3868 22f4 1C300EE5 		str	r3, [lr, #-28]
 3869 22f8 68301CE5 		ldr	r3, [ip, #-104]
 3870 22fc 18300EE5 		str	r3, [lr, #-24]
 3871 2300 64301CE5 		ldr	r3, [ip, #-100]
 3872 2304 14300EE5 		str	r3, [lr, #-20]
 3873 2308 60301CE5 		ldr	r3, [ip, #-96]
 3874 230c 10300EE5 		str	r3, [lr, #-16]
 3875 2310 5C301CE5 		ldr	r3, [ip, #-92]
 3876 2314 0C300EE5 		str	r3, [lr, #-12]
 3877 2318 58301CE5 		ldr	r3, [ip, #-88]
 3878 231c 08300EE5 		str	r3, [lr, #-8]
 3879              	.LVL480:
 3880 2320 54301CE5 		ldr	r3, [ip, #-84]
 3881 2324 04300EE5 		str	r3, [lr, #-4]
 3882 2328 E9FFFF1A 		bne	.L211
 3883 232c 1C309DE5 		ldr	r3, [sp, #28]
 3884              	.LVL481:
 3885              	.L210:
 3886 2330 02C1A0E1 		lsl	ip, r2, #2
 3887 2334 03308CE0 		add	r3, ip, r3
 3888 2338 08808CE0 		add	r8, ip, r8
 3889              	.LVL482:
 3890 233c 033089E0 		add	r3, r9, r3
 3891 2340 088085E0 		add	r8, r5, r8
 3892              	.L213:
 3893              	.LVL483:
 3894 2344 012082E2 		add	r2, r2, #1
 3895              	.LVL484:
 3896 2348 04C093E4 		ldr	ip, [r3], #4
 3897 234c 020054E1 		cmp	r4, r2
 3898 2350 04C088E4 		str	ip, [r8], #4
 3899 2354 FAFFFFCA 		bgt	.L213
 3900 2358 30FCFFEA 		b	.L212
 3901              	.LVL485:
 3902              	.L621:
 3903 235c 080054E3 		cmp	r4, #8
 3904 2360 180000DA 		ble	.L61
 3905              	.LBE346:
 3906              	.LBE348:
 3907              	.LBE351:
 3908              	.LBE352:
 3909              	.LBE356:
 3910              	.LBE366:
 3911              	.LBE495:
 3912              	.LBB496:
 3913              	.LBB310:
 3914              	.LBB300:
 3915              	.LBB296:
 3916              	.LBB295:
 3917              	.LBB292:
 3918              	.LBB290:
 3919 2364 24B09DE5 		ldr	fp, [sp, #36]
 3920 2368 501080E2 		add	r1, r0, #80
 3921 236c 0CE0A0E1 		mov	lr, ip
 3922              	.LVL486:
 3923              	.L62:
 3924 2370 147A51ED 		vldr.32	s15, [r1, #-80]
 3925 2374 082082E2 		add	r2, r2, #8
 3926              	.LVL487:
 3927 2378 00F0D1F5 		pld	[r1]
 3928 237c 0B0052E1 		cmp	r2, fp
 3929 2380 201081E2 		add	r1, r1, #32
 3930 2384 20E08EE2 		add	lr, lr, #32
 3931 2388 087A4EED 		vstr.32	s15, [lr, #-32]
 3932              	.LVL488:
 3933 238c 1B7A51ED 		vldr.32	s15, [r1, #-108]
 3934 2390 077A4EED 		vstr.32	s15, [lr, #-28]
 3935 2394 1A7A51ED 		vldr.32	s15, [r1, #-104]
 3936 2398 067A4EED 		vstr.32	s15, [lr, #-24]
 3937 239c 197A51ED 		vldr.32	s15, [r1, #-100]
 3938 23a0 057A4EED 		vstr.32	s15, [lr, #-20]
 3939 23a4 187A51ED 		vldr.32	s15, [r1, #-96]
 3940 23a8 047A4EED 		vstr.32	s15, [lr, #-16]
 3941 23ac 177A51ED 		vldr.32	s15, [r1, #-92]
 3942 23b0 037A4EED 		vstr.32	s15, [lr, #-12]
 3943 23b4 167A51ED 		vldr.32	s15, [r1, #-88]
 3944 23b8 027A4EED 		vstr.32	s15, [lr, #-8]
 3945              	.LVL489:
 3946 23bc 157A51ED 		vldr.32	s15, [r1, #-84]
 3947 23c0 017A4EED 		vstr.32	s15, [lr, #-4]
 3948 23c4 E9FFFF1A 		bne	.L62
 3949              	.LVL490:
 3950              	.L61:
 3951 23c8 0211A0E1 		lsl	r1, r2, #2
 3952 23cc 033081E0 		add	r3, r1, r3
 3953              	.LVL491:
 3954 23d0 088081E0 		add	r8, r1, r8
 3955              	.LVL492:
 3956 23d4 033089E0 		add	r3, r9, r3
 3957 23d8 088085E0 		add	r8, r5, r8
 3958              	.L64:
 3959              	.LVL493:
 3960 23dc 012082E2 		add	r2, r2, #1
 3961              	.LVL494:
 3962 23e0 041093E4 		ldr	r1, [r3], #4	@ float
 3963 23e4 020054E1 		cmp	r4, r2
 3964 23e8 041088E4 		str	r1, [r8], #4	@ float
 3965 23ec FAFFFFCA 		bgt	.L64
 3966 23f0 7AFAFFEA 		b	.L63
 3967              	.LVL495:
 3968              	.L638:
 3969 23f4 040054E3 		cmp	r4, #4
 3970 23f8 120000DA 		ble	.L257
 3971              	.LBE290:
 3972              	.LBE292:
 3973              	.LBE295:
 3974              	.LBE296:
 3975              	.LBE300:
 3976              	.LBE310:
 3977              	.LBE496:
 3978              	.LBB497:
 3979              	.LBB485:
 3980              	.LBB476:
 3981              	.LBB469:
 3982              	.LBB468:
  62:../src/tensorflow_lite/src/tensorflow/lite/micro/kernels/pack.cpp ****       const T* input_ptr = input_data + copy_size * k;
 3983              		.loc 1 62 0
 3984 23fc 1C608DE5 		str	r6, [sp, #28]
 3985 2400 88108CE2 		add	r1, ip, #136
 3986 2404 28609DE5 		ldr	r6, [sp, #40]
 3987              	.LVL496:
 3988 2408 0EB0A0E1 		mov	fp, lr
 3989              	.LVL497:
 3990              	.L258:
 3991              	.LBB465:
 3992              	.LBB462:
  66:../src/tensorflow_lite/src/tensorflow/lite/micro/kernels/pack.cpp ****     }
 3993              		.loc 1 66 0
 3994 240c 220B51ED 		vldr.64	d16, [r1, #-136]	@ int
 3995 2410 043083E2 		add	r3, r3, #4
 3996              	.LVL498:
 3997 2414 00F0D1F5 		pld	[r1]
 3998 2418 060053E1 		cmp	r3, r6
 3999 241c 201081E2 		add	r1, r1, #32
 4000 2420 20B08BE2 		add	fp, fp, #32
 4001 2424 080B4BED 		vstr.64	d16, [fp, #-32]	@ int
 4002              	.LVL499:
 4003 2428 280B51ED 		vldr.64	d16, [r1, #-160]	@ int
 4004 242c 060B4BED 		vstr.64	d16, [fp, #-24]	@ int
 4005 2430 260B51ED 		vldr.64	d16, [r1, #-152]	@ int
 4006 2434 040B4BED 		vstr.64	d16, [fp, #-16]	@ int
 4007              	.LVL500:
 4008 2438 240B51ED 		vldr.64	d16, [r1, #-144]	@ int
 4009 243c 020B4BED 		vstr.64	d16, [fp, #-8]	@ int
 4010 2440 F1FFFF1A 		bne	.L258
 4011 2444 1C609DE5 		ldr	r6, [sp, #28]
 4012              	.LVL501:
 4013              	.L257:
 4014 2448 8311A0E1 		lsl	r1, r3, #3
 4015 244c 022081E0 		add	r2, r1, r2
 4016              	.LVL502:
 4017 2450 000081E0 		add	r0, r1, r0
 4018 2454 022089E0 		add	r2, r9, r2
 4019 2458 000086E0 		add	r0, r6, r0
 4020              	.L260:
 4021              	.LVL503:
 4022 245c 013083E2 		add	r3, r3, #1
 4023              	.LVL504:
 4024 2460 020BF2EC 		vldmia.64	r2!, {d16}	@ int
 4025 2464 030054E1 		cmp	r4, r3
 4026 2468 020BE0EC 		vstmia.64	r0!, {d16}	@ int
 4027 246c FAFFFFCA 		bgt	.L260
 4028 2470 5DFFFFEA 		b	.L259
 4029              	.LVL505:
 4030              	.L52:
 4031 2474 20209DE5 		ldr	r2, [sp, #32]
 4032              	.LBE462:
 4033              	.LBE465:
 4034              	.LBE468:
 4035              	.LBE469:
 4036              	.LBE476:
 4037              	.LBE485:
 4038              	.LBE497:
 4039              	.LBB498:
 4040              	.LBB311:
 4041              	.LBB301:
  59:../src/tensorflow_lite/src/tensorflow/lite/micro/kernels/pack.cpp ****     const TfLiteEvalTensor* t = tflite::micro::GetEvalInput(context, node, i);
 4042              		.loc 1 59 0
 4043 2478 1C309DE5 		ldr	r3, [sp, #28]
 4044 247c 072082E0 		add	r2, r2, r7
 4045 2480 20208DE5 		str	r2, [sp, #32]
 4046 2484 013083E2 		add	r3, r3, #1
 4047 2488 28209DE5 		ldr	r2, [sp, #40]
 4048 248c 1C308DE5 		str	r3, [sp, #28]
 4049              	.LVL506:
 4050 2490 030052E1 		cmp	r2, r3
 4051 2494 13FAFF1A 		bne	.L51
 4052 2498 D3F8FFEA 		b	.L50
 4053              	.LVL507:
 4054              	.L201:
 4055 249c 24209DE5 		ldr	r2, [sp, #36]
 4056              	.LBE301:
 4057              	.LBE311:
 4058              	.LBE498:
 4059              	.LBB499:
 4060              	.LBB367:
 4061              	.LBB357:
 4062 24a0 20309DE5 		ldr	r3, [sp, #32]
 4063 24a4 072082E0 		add	r2, r2, r7
 4064 24a8 24208DE5 		str	r2, [sp, #36]
 4065 24ac 013083E2 		add	r3, r3, #1
 4066 24b0 2C209DE5 		ldr	r2, [sp, #44]
 4067 24b4 20308DE5 		str	r3, [sp, #32]
 4068              	.LVL508:
 4069 24b8 030052E1 		cmp	r2, r3
 4070 24bc 9FFBFF1A 		bne	.L200
 4071 24c0 C9F8FFEA 		b	.L50
 4072              	.LVL509:
 4073              	.L615:
 4074 24c4 000053E3 		cmp	r3, #0
 4075              	.LBE357:
 4076              	.LBE367:
 4077              	.LBE499:
 4078              	.LBB500:
 4079              	.LBB254:
 4080              	.LBB244:
  52:../src/tensorflow_lite/src/tensorflow/lite/micro/kernels/pack.cpp ****     input_size *= input_dims->data[i];
 4081              		.loc 1 52 0
 4082 24c8 0120A003 		moveq	r2, #1
 4083 24cc 0310A001 		moveq	r1, r3
 4084              	.LVL510:
 4085 24d0 DCF7FF0A 		beq	.L141
 4086 24d4 BBF7FFEA 		b	.L140
 4087              	.LVL511:
 4088              	.L632:
 4089 24d8 000053E3 		cmp	r3, #0
 4090              	.LBE244:
 4091              	.LBE254:
 4092              	.LBE500:
 4093              	.LBB501:
 4094              	.LBB426:
 4095              	.LBB416:
 4096 24dc 0120A003 		moveq	r2, #1
 4097 24e0 0310A001 		moveq	r1, r3
 4098              	.LVL512:
 4099 24e4 E0FCFF0A 		beq	.L92
 4100 24e8 BFFCFFEA 		b	.L91
 4101              	.LVL513:
 4102              	.L295:
 4103              	.LBE416:
 4104              	.LBB417:
  48:../src/tensorflow_lite/src/tensorflow/lite/micro/kernels/pack.cpp ****     copy_size *= output_dims->data[i];
 4105              		.loc 1 48 0
 4106 24ec 0140A0E3 		mov	r4, #1
 4107 24f0 86FCFFEA 		b	.L81
 4108              	.LVL514:
 4109              	.L626:
 4110 24f4 000053E3 		cmp	r3, #0
 4111              	.LBE417:
 4112              	.LBE426:
 4113              	.LBE501:
 4114              	.LBB502:
 4115              	.LBB368:
 4116              	.LBB358:
  52:../src/tensorflow_lite/src/tensorflow/lite/micro/kernels/pack.cpp ****     input_size *= input_dims->data[i];
 4117              		.loc 1 52 0
 4118 24f8 0120A003 		moveq	r2, #1
 4119 24fc 0310A001 		moveq	r1, r3
 4120              	.LVL515:
 4121 2500 49FBFF0A 		beq	.L190
 4122 2504 28FBFFEA 		b	.L189
 4123              	.LVL516:
 4124              	.L339:
 4125              	.LBE358:
 4126              	.LBB359:
  48:../src/tensorflow_lite/src/tensorflow/lite/micro/kernels/pack.cpp ****     copy_size *= output_dims->data[i];
 4127              		.loc 1 48 0
 4128 2508 0140A0E3 		mov	r4, #1
 4129 250c EFFAFFEA 		b	.L179
 4130              	.LVL517:
 4131              	.L623:
 4132 2510 000053E3 		cmp	r3, #0
 4133              	.LBE359:
 4134              	.LBB360:
  44:../src/tensorflow_lite/src/tensorflow/lite/micro/kernels/pack.cpp ****     outer_size *= output_dims->data[i];
 4135              		.loc 1 44 0
 4136 2514 0160A003 		moveq	r6, #1
 4137 2518 0320A001 		moveq	r2, r3
 4138 251c 84FAFF0A 		beq	.L166
 4139 2520 63FAFFEA 		b	.L165
 4140              	.LVL518:
 4141              	.L617:
 4142 2524 000053E3 		cmp	r3, #0
 4143              	.LBE360:
 4144              	.LBE368:
 4145              	.LBE502:
 4146              	.LBB503:
 4147              	.LBB312:
 4148              	.LBB302:
 4149 2528 0160A003 		moveq	r6, #1
 4150 252c 0320A001 		moveq	r2, r3
 4151 2530 E9F8FF0A 		beq	.L13
 4152 2534 C8F8FFEA 		b	.L12
 4153              	.LVL519:
 4154              	.L620:
 4155 2538 000053E3 		cmp	r3, #0
 4156              	.LBE302:
 4157              	.LBB303:
  52:../src/tensorflow_lite/src/tensorflow/lite/micro/kernels/pack.cpp ****     input_size *= input_dims->data[i];
 4158              		.loc 1 52 0
 4159 253c 0120A003 		moveq	r2, #1
 4160 2540 0310A001 		moveq	r1, r3
 4161              	.LVL520:
 4162 2544 A2F9FF0A 		beq	.L37
 4163 2548 81F9FFEA 		b	.L36
 4164              	.LVL521:
 4165              	.L272:
 4166              	.LBE303:
 4167              	.LBB304:
  48:../src/tensorflow_lite/src/tensorflow/lite/micro/kernels/pack.cpp ****     copy_size *= output_dims->data[i];
 4168              		.loc 1 48 0
 4169 254c 0140A0E3 		mov	r4, #1
 4170 2550 48F9FFEA 		b	.L26
 4171              	.LVL522:
 4172              	.L317:
 4173              	.LBE304:
 4174              	.LBE312:
 4175              	.LBE503:
 4176              	.LBB504:
 4177              	.LBB255:
 4178              	.LBB245:
 4179 2554 0140A0E3 		mov	r4, #1
 4180 2558 63F7FFEA 		b	.L130
 4181              	.LVL523:
 4182              	.L612:
 4183 255c 000053E3 		cmp	r3, #0
 4184              	.LBE245:
 4185              	.LBB246:
  44:../src/tensorflow_lite/src/tensorflow/lite/micro/kernels/pack.cpp ****     outer_size *= output_dims->data[i];
 4186              		.loc 1 44 0
 4187 2560 0160A003 		moveq	r6, #1
 4188 2564 0320A001 		moveq	r2, r3
 4189 2568 F8F6FF0A 		beq	.L117
 4190 256c D7F6FFEA 		b	.L116
 4191              	.LVL524:
 4192              	.L637:
 4193 2570 000053E3 		cmp	r3, #0
 4194              	.LBE246:
 4195              	.LBE255:
 4196              	.LBE504:
 4197              	.LBB505:
 4198              	.LBB486:
 4199              	.LBB477:
  52:../src/tensorflow_lite/src/tensorflow/lite/micro/kernels/pack.cpp ****     input_size *= input_dims->data[i];
 4200              		.loc 1 52 0
 4201 2574 0120A003 		moveq	r2, #1
 4202 2578 0310A001 		moveq	r1, r3
 4203              	.LVL525:
 4204 257c 9BFEFF0A 		beq	.L241
 4205 2580 7AFEFFEA 		b	.L240
 4206              	.LVL526:
 4207              	.L362:
 4208              	.LBE477:
 4209              	.LBB478:
  48:../src/tensorflow_lite/src/tensorflow/lite/micro/kernels/pack.cpp ****     copy_size *= output_dims->data[i];
 4210              		.loc 1 48 0
 4211 2584 0140A0E3 		mov	r4, #1
 4212 2588 41FEFFEA 		b	.L230
 4213              	.LVL527:
 4214              	.L634:
 4215 258c 000053E3 		cmp	r3, #0
 4216              	.LBE478:
 4217              	.LBB479:
  44:../src/tensorflow_lite/src/tensorflow/lite/micro/kernels/pack.cpp ****     outer_size *= output_dims->data[i];
 4218              		.loc 1 44 0
 4219 2590 01A0A003 		moveq	r10, #1
 4220 2594 0320A001 		moveq	r2, r3
 4221 2598 D6FDFF0A 		beq	.L217
 4222 259c B5FDFFEA 		b	.L216
 4223              	.LVL528:
 4224              	.L629:
 4225 25a0 000053E3 		cmp	r3, #0
 4226              	.LBE479:
 4227              	.LBE486:
 4228              	.LBE505:
 4229              	.LBB506:
 4230              	.LBB427:
 4231              	.LBB418:
 4232 25a4 0160A003 		moveq	r6, #1
 4233 25a8 0320A001 		moveq	r2, r3
 4234 25ac F0FBFF0A 		beq	.L68
 4235 25b0 CFFBFFEA 		b	.L67
 4236              	.LVL529:
 4237              	.L306:
 4238              	.LBE418:
 4239              	.LBE427:
 4240              	.LBE506:
 4241              	.LBB507:
 4242              	.LBB256:
  43:../src/tensorflow_lite/src/tensorflow/lite/micro/kernels/pack.cpp ****   for (int i = 0; i < axis; ++i) {
 4243              		.loc 1 43 0
 4244 25b4 0160A0E3 		mov	r6, #1
 4245 25b8 0FF7FFEA 		b	.L115
 4246              	.LVL530:
 4247              	.L46:
 4248              	.LBE256:
 4249              	.LBE507:
 4250              	.LBB508:
 4251              	.LBB198:
  48:C:/Renesas/e2studio_2021_01_workspace_RZA2M_ANPR/ANPR_RZA2M_GR_MANGO/src/tensorflow_lite/src/tensorflow/lite/micro/kernels\kernel_util.h ****   TFLITE_DCHECK(node != nullptr);
 4252              		.loc 2 48 0
 4253 25bc FEFFFFEB 		bl	abort
 4254              	.LVL531:
 4255              	.L371:
 4256              	.LBE198:
 4257              	.LBE508:
 4258              	.LBB509:
 4259              	.LBB487:
 4260              	.LBB480:
  52:../src/tensorflow_lite/src/tensorflow/lite/micro/kernels/pack.cpp ****     input_size *= input_dims->data[i];
 4261              		.loc 1 52 0
 4262 25c0 0310A0E1 		mov	r1, r3
 4263 25c4 87FEFFEA 		b	.L242
 4264              	.LVL532:
 4265              	.L636:
 4266 25c8 0120A0E3 		mov	r2, #1
 4267 25cc B2FEFFEA 		b	.L227
 4268              	.LVL533:
 4269              	.L635:
 4270              	.LBE480:
  47:../src/tensorflow_lite/src/tensorflow/lite/micro/kernels/pack.cpp ****   for (int i = axis + 1; i < dimensions; ++i) {
 4271              		.loc 1 47 0
 4272 25d0 0140A0E3 		mov	r4, #1
 4273 25d4 5AFEFFEA 		b	.L239
 4274              	.LVL534:
 4275              	.L360:
 4276              	.LBB481:
  44:../src/tensorflow_lite/src/tensorflow/lite/micro/kernels/pack.cpp ****     outer_size *= output_dims->data[i];
 4277              		.loc 1 44 0
 4278 25d8 0320A0E1 		mov	r2, r3
 4279 25dc C3FDFFEA 		b	.L218
 4280              	.LVL535:
 4281              	.L351:
 4282              	.LBE481:
  43:../src/tensorflow_lite/src/tensorflow/lite/micro/kernels/pack.cpp ****   for (int i = 0; i < axis; ++i) {
 4283              		.loc 1 43 0
 4284 25e0 01A0A0E3 		mov	r10, #1
 4285 25e4 EEFDFFEA 		b	.L215
 4286              	.LVL536:
 4287              	.L304:
 4288              	.LBE487:
 4289              	.LBE509:
 4290              	.LBB510:
 4291              	.LBB428:
 4292              	.LBB419:
  52:../src/tensorflow_lite/src/tensorflow/lite/micro/kernels/pack.cpp ****     input_size *= input_dims->data[i];
 4293              		.loc 1 52 0
 4294 25e8 0310A0E1 		mov	r1, r3
 4295 25ec 9CFCFFEA 		b	.L93
 4296              	.LVL537:
 4297              	.L631:
 4298 25f0 0120A0E3 		mov	r2, #1
 4299 25f4 C7FCFFEA 		b	.L78
 4300              	.LVL538:
 4301              	.L630:
 4302              	.LBE419:
  47:../src/tensorflow_lite/src/tensorflow/lite/micro/kernels/pack.cpp ****   for (int i = axis + 1; i < dimensions; ++i) {
 4303              		.loc 1 47 0
 4304 25f8 0140A0E3 		mov	r4, #1
 4305 25fc 6FFCFFEA 		b	.L90
 4306              	.LVL539:
 4307              	.L293:
 4308              	.LBB420:
  44:../src/tensorflow_lite/src/tensorflow/lite/micro/kernels/pack.cpp ****     outer_size *= output_dims->data[i];
 4309              		.loc 1 44 0
 4310 2600 0320A0E1 		mov	r2, r3
 4311 2604 D8FBFFEA 		b	.L69
 4312              	.LVL540:
 4313              	.L284:
 4314              	.LBE420:
  43:../src/tensorflow_lite/src/tensorflow/lite/micro/kernels/pack.cpp ****   for (int i = 0; i < axis; ++i) {
 4315              		.loc 1 43 0
 4316 2608 0160A0E3 		mov	r6, #1
 4317 260c 03FCFFEA 		b	.L66
 4318              	.LVL541:
 4319              	.L348:
 4320              	.LBE428:
 4321              	.LBE510:
 4322              	.LBB511:
 4323              	.LBB369:
 4324              	.LBB361:
  52:../src/tensorflow_lite/src/tensorflow/lite/micro/kernels/pack.cpp ****     input_size *= input_dims->data[i];
 4325              		.loc 1 52 0
 4326 2610 0310A0E1 		mov	r1, r3
 4327 2614 02FBFFEA 		b	.L191
 4328              	.LVL542:
 4329              	.L625:
 4330 2618 0120A0E3 		mov	r2, #1
 4331 261c 2DFBFFEA 		b	.L176
 4332              	.LVL543:
 4333              	.L624:
 4334              	.LBE361:
  47:../src/tensorflow_lite/src/tensorflow/lite/micro/kernels/pack.cpp ****   for (int i = axis + 1; i < dimensions; ++i) {
 4335              		.loc 1 47 0
 4336 2620 0140A0E3 		mov	r4, #1
 4337 2624 D5FAFFEA 		b	.L188
 4338              	.LVL544:
 4339              	.L337:
 4340              	.LBB362:
  44:../src/tensorflow_lite/src/tensorflow/lite/micro/kernels/pack.cpp ****     outer_size *= output_dims->data[i];
 4341              		.loc 1 44 0
 4342 2628 0320A0E1 		mov	r2, r3
 4343 262c 3EFAFFEA 		b	.L167
 4344              	.LVL545:
 4345              	.L328:
 4346              	.LBE362:
  43:../src/tensorflow_lite/src/tensorflow/lite/micro/kernels/pack.cpp ****   for (int i = 0; i < axis; ++i) {
 4347              		.loc 1 43 0
 4348 2630 0160A0E3 		mov	r6, #1
 4349 2634 69FAFFEA 		b	.L164
 4350              	.LVL546:
 4351              	.L281:
 4352              	.LBE369:
 4353              	.LBE511:
 4354              	.LBB512:
 4355              	.LBB313:
 4356              	.LBB305:
  52:../src/tensorflow_lite/src/tensorflow/lite/micro/kernels/pack.cpp ****     input_size *= input_dims->data[i];
 4357              		.loc 1 52 0
 4358 2638 0310A0E1 		mov	r1, r3
 4359 263c 62F9FFEA 		b	.L38
 4360              	.LVL547:
 4361              	.L619:
 4362 2640 0120A0E3 		mov	r2, #1
 4363 2644 8DF9FFEA 		b	.L23
 4364              	.LVL548:
 4365              	.L618:
 4366              	.LBE305:
  47:../src/tensorflow_lite/src/tensorflow/lite/micro/kernels/pack.cpp ****   for (int i = axis + 1; i < dimensions; ++i) {
 4367              		.loc 1 47 0
 4368 2648 0140A0E3 		mov	r4, #1
 4369 264c 35F9FFEA 		b	.L35
 4370              	.LVL549:
 4371              	.L270:
 4372              	.LBB306:
  44:../src/tensorflow_lite/src/tensorflow/lite/micro/kernels/pack.cpp ****     outer_size *= output_dims->data[i];
 4373              		.loc 1 44 0
 4374 2650 0320A0E1 		mov	r2, r3
 4375 2654 9EF8FFEA 		b	.L14
 4376              	.LVL550:
 4377              	.L261:
 4378              	.LBE306:
  43:../src/tensorflow_lite/src/tensorflow/lite/micro/kernels/pack.cpp ****   for (int i = 0; i < axis; ++i) {
 4379              		.loc 1 43 0
 4380 2658 0160A0E3 		mov	r6, #1
 4381 265c C9F8FFEA 		b	.L11
 4382              	.LVL551:
 4383              	.L326:
 4384              	.LBE313:
 4385              	.LBE512:
 4386              	.LBB513:
 4387              	.LBB257:
 4388              	.LBB247:
  52:../src/tensorflow_lite/src/tensorflow/lite/micro/kernels/pack.cpp ****     input_size *= input_dims->data[i];
 4389              		.loc 1 52 0
 4390 2660 0310A0E1 		mov	r1, r3
 4391 2664 75F7FFEA 		b	.L142
 4392              	.LVL552:
 4393              	.L614:
 4394 2668 0120A0E3 		mov	r2, #1
 4395 266c A0F7FFEA 		b	.L127
 4396              	.LVL553:
 4397              	.L613:
 4398              	.LBE247:
  47:../src/tensorflow_lite/src/tensorflow/lite/micro/kernels/pack.cpp ****   for (int i = axis + 1; i < dimensions; ++i) {
 4399              		.loc 1 47 0
 4400 2670 0140A0E3 		mov	r4, #1
 4401 2674 48F7FFEA 		b	.L139
 4402              	.LVL554:
 4403              	.L315:
 4404              	.LBB248:
  44:../src/tensorflow_lite/src/tensorflow/lite/micro/kernels/pack.cpp ****     outer_size *= output_dims->data[i];
 4405              		.loc 1 44 0
 4406 2678 0320A0E1 		mov	r2, r3
 4407 267c B1F6FFEA 		b	.L118
 4408              	.LBE248:
 4409              	.LBE257:
 4410              	.LBE513:
 4411              		.cfi_endproc
 4412              	.LFE903:
 4413              		.fnend
 4415              		.section	.text._ZN6tflite3ops5micro13Register_PACKEv,"ax",%progbits
 4416              		.align	2
 4417              		.global	_ZN6tflite3ops5micro13Register_PACKEv
 4418              		.syntax unified
 4419              		.arm
 4420              		.fpu neon
 4422              	_ZN6tflite3ops5micro13Register_PACKEv:
 4423              		.fnstart
 4424              	.LFB904:
 110:../src/tensorflow_lite/src/tensorflow/lite/micro/kernels/pack.cpp **** 
 111:../src/tensorflow_lite/src/tensorflow/lite/micro/kernels/pack.cpp **** }  // namespace
 112:../src/tensorflow_lite/src/tensorflow/lite/micro/kernels/pack.cpp **** }  // namespace pack
 113:../src/tensorflow_lite/src/tensorflow/lite/micro/kernels/pack.cpp **** 
 114:../src/tensorflow_lite/src/tensorflow/lite/micro/kernels/pack.cpp **** TfLiteRegistration Register_PACK() {
 4425              		.loc 1 114 0
 4426              		.cfi_startproc
 4427              		@ args = 0, pretend = 0, frame = 0
 4428              		@ frame_needed = 0, uses_anonymous_args = 0
 4429              	.LVL555:
 4430 0000 10402DE9 		push	{r4, lr}
 4431              		.cfi_def_cfa_offset 8
 4432              		.cfi_offset 4, -8
 4433              		.cfi_offset 14, -4
 115:../src/tensorflow_lite/src/tensorflow/lite/micro/kernels/pack.cpp ****   return {/*init=*/nullptr,
 116:../src/tensorflow_lite/src/tensorflow/lite/micro/kernels/pack.cpp ****           /*free=*/nullptr,
 117:../src/tensorflow_lite/src/tensorflow/lite/micro/kernels/pack.cpp ****           /*prepare=*/nullptr,
 118:../src/tensorflow_lite/src/tensorflow/lite/micro/kernels/pack.cpp ****           /*invoke=*/pack::Eval,
 119:../src/tensorflow_lite/src/tensorflow/lite/micro/kernels/pack.cpp ****           /*profiling_string=*/nullptr,
 120:../src/tensorflow_lite/src/tensorflow/lite/micro/kernels/pack.cpp ****           /*builtin_code=*/0,
 121:../src/tensorflow_lite/src/tensorflow/lite/micro/kernels/pack.cpp ****           /*custom_name=*/nullptr,
 122:../src/tensorflow_lite/src/tensorflow/lite/micro/kernels/pack.cpp ****           /*version=*/0};
 4434              		.loc 1 122 0
 4435 0004 2020A0E3 		mov	r2, #32
 4436 0008 0010A0E3 		mov	r1, #0
 114:../src/tensorflow_lite/src/tensorflow/lite/micro/kernels/pack.cpp ****   return {/*init=*/nullptr,
 4437              		.loc 1 114 0
 4438 000c 0040A0E1 		mov	r4, r0
 4439              		.loc 1 122 0
 4440 0010 FEFFFFEB 		bl	memset
 4441              	.LVL556:
 4442 0014 003000E3 		movw	r3, #:lower16:_ZN6tflite3ops5micro4pack12_GLOBAL__N_14EvalEP13TfLiteContextP10TfLiteNode
 123:../src/tensorflow_lite/src/tensorflow/lite/micro/kernels/pack.cpp **** }
 4443              		.loc 1 123 0
 4444 0018 0400A0E1 		mov	r0, r4
 122:../src/tensorflow_lite/src/tensorflow/lite/micro/kernels/pack.cpp **** }
 4445              		.loc 1 122 0
 4446 001c 003040E3 		movt	r3, #:upper16:_ZN6tflite3ops5micro4pack12_GLOBAL__N_14EvalEP13TfLiteContextP10TfLiteNode
 4447 0020 0C3084E5 		str	r3, [r4, #12]
 4448              		.loc 1 123 0
 4449 0024 1080BDE8 		pop	{r4, pc}
 4450              		.cfi_endproc
 4451              	.LFE904:
 4452              		.cantunwind
 4453              		.fnend
 4455              		.section	.rodata._ZN6tflite3ops5micro4pack12_GLOBAL__N_14EvalEP13TfLiteContextP10TfLiteNode.str1.4
 4456              		.align	2
 4457              	.LC0:
 4458 0000 54797065 		.ascii	"Type '%s' is not supported by pack.\000"
 4458      20272573 
 4458      27206973 
 4458      206E6F74 
 4458      20737570 
 4459              		.text
 4460              	.Letext0:
 4461              		.file 3 "c:\\program files (x86)\\gnu tools arm embedded\\6 2017-q2-update\\arm-none-eabi\\include
 4462              		.file 4 "c:\\program files (x86)\\gnu tools arm embedded\\6 2017-q2-update\\arm-none-eabi\\include
 4463              		.file 5 "c:\\program files (x86)\\gnu tools arm embedded\\6 2017-q2-update\\arm-none-eabi\\include
 4464              		.file 6 "c:\\program files (x86)\\gnu tools arm embedded\\6 2017-q2-update\\lib\\gcc\\arm-none-eab
 4465              		.file 7 "C:/Renesas/e2studio_2021_01_workspace_RZA2M_ANPR/ANPR_RZA2M_GR_MANGO/src/tensorflow_lite/
 4466              		.file 8 "C:/Renesas/e2studio_2021_01_workspace_RZA2M_ANPR/ANPR_RZA2M_GR_MANGO/src/tensorflow_lite/
 4467              		.file 9 "C:/Renesas/e2studio_2021_01_workspace_RZA2M_ANPR/ANPR_RZA2M_GR_MANGO/src/tensorflow_lite/
 4468              		.file 10 "c:\\program files (x86)\\gnu tools arm embedded\\6 2017-q2-update\\arm-none-eabi\\includ
 4469              		.file 11 "c:\\program files (x86)\\gnu tools arm embedded\\6 2017-q2-update\\arm-none-eabi\\includ
 4470              		.file 12 "c:\\program files (x86)\\gnu tools arm embedded\\6 2017-q2-update\\arm-none-eabi\\includ
 4471              		.file 13 "c:\\program files (x86)\\gnu tools arm embedded\\6 2017-q2-update\\arm-none-eabi\\includ
 4472              		.file 14 "c:\\program files (x86)\\gnu tools arm embedded\\6 2017-q2-update\\arm-none-eabi\\includ
 4473              		.file 15 "c:\\program files (x86)\\gnu tools arm embedded\\6 2017-q2-update\\arm-none-eabi\\includ
 4474              		.file 16 "c:\\program files (x86)\\gnu tools arm embedded\\6 2017-q2-update\\arm-none-eabi\\includ
 4475              		.file 17 "c:\\program files (x86)\\gnu tools arm embedded\\6 2017-q2-update\\arm-none-eabi\\includ
 4476              		.file 18 "c:\\program files (x86)\\gnu tools arm embedded\\6 2017-q2-update\\arm-none-eabi\\includ
 4477              		.file 19 "c:\\program files (x86)\\gnu tools arm embedded\\6 2017-q2-update\\arm-none-eabi\\includ
 4478              		.file 20 "c:\\program files (x86)\\gnu tools arm embedded\\6 2017-q2-update\\arm-none-eabi\\includ
 4479              		.file 21 "c:\\program files (x86)\\gnu tools arm embedded\\6 2017-q2-update\\arm-none-eabi\\includ
 4480              		.file 22 "c:\\program files (x86)\\gnu tools arm embedded\\6 2017-q2-update\\arm-none-eabi\\includ
 4481              		.file 23 "c:\\program files (x86)\\gnu tools arm embedded\\6 2017-q2-update\\arm-none-eabi\\includ
 4482              		.file 24 "c:\\program files (x86)\\gnu tools arm embedded\\6 2017-q2-update\\arm-none-eabi\\includ
 4483              		.file 25 "c:\\program files (x86)\\gnu tools arm embedded\\6 2017-q2-update\\arm-none-eabi\\includ
 4484              		.file 26 "c:\\program files (x86)\\gnu tools arm embedded\\6 2017-q2-update\\arm-none-eabi\\includ
 4485              		.file 27 "c:\\program files (x86)\\gnu tools arm embedded\\6 2017-q2-update\\arm-none-eabi\\includ
 4486              		.file 28 "c:\\program files (x86)\\gnu tools arm embedded\\6 2017-q2-update\\arm-none-eabi\\includ
 4487              		.file 29 "c:\\program files (x86)\\gnu tools arm embedded\\6 2017-q2-update\\arm-none-eabi\\includ
 4488              		.file 30 "C:/Renesas/e2studio_2021_01_workspace_RZA2M_ANPR/ANPR_RZA2M_GR_MANGO/src/tensorflow_lite
 4489              		.file 31 "<built-in>"