   1              		.cpu cortex-a9
   2              		.eabi_attribute 28, 1
   3              		.eabi_attribute 20, 1
   4              		.eabi_attribute 21, 1
   5              		.eabi_attribute 23, 3
   6              		.eabi_attribute 24, 1
   7              		.eabi_attribute 25, 1
   8              		.eabi_attribute 26, 1
   9              		.eabi_attribute 30, 2
  10              		.eabi_attribute 34, 0
  11              		.eabi_attribute 18, 4
  12              		.file	"arm_depthwise_conv_3x3_s8.c"
  13              		.text
  14              	.Ltext0:
  15              		.cfi_sections	.debug_frame
  16              		.section	.text.arm_depthwise_conv_3x3_s8,"ax",%progbits
  17              		.align	2
  18              		.global	arm_depthwise_conv_3x3_s8
  19              		.syntax unified
  20              		.arm
  21              		.fpu neon
  23              	arm_depthwise_conv_3x3_s8:
  24              	.LFB122:
  25              		.file 1 "../src/tensorflow_lite/third_party/cmsis/CMSIS/NN/Source/ConvolutionFunctions/arm_depthwi
   1:../src/tensorflow_lite/third_party/cmsis/CMSIS/NN/Source/ConvolutionFunctions/arm_depthwise_conv_3x3_s8.c **** /*
   2:../src/tensorflow_lite/third_party/cmsis/CMSIS/NN/Source/ConvolutionFunctions/arm_depthwise_conv_3x3_s8.c ****  * Copyright (C) 2010-2020 Arm Limited or its affiliates. All rights reserved.
   3:../src/tensorflow_lite/third_party/cmsis/CMSIS/NN/Source/ConvolutionFunctions/arm_depthwise_conv_3x3_s8.c ****  *
   4:../src/tensorflow_lite/third_party/cmsis/CMSIS/NN/Source/ConvolutionFunctions/arm_depthwise_conv_3x3_s8.c ****  * SPDX-License-Identifier: Apache-2.0
   5:../src/tensorflow_lite/third_party/cmsis/CMSIS/NN/Source/ConvolutionFunctions/arm_depthwise_conv_3x3_s8.c ****  *
   6:../src/tensorflow_lite/third_party/cmsis/CMSIS/NN/Source/ConvolutionFunctions/arm_depthwise_conv_3x3_s8.c ****  * Licensed under the Apache License, Version 2.0 (the License); you may
   7:../src/tensorflow_lite/third_party/cmsis/CMSIS/NN/Source/ConvolutionFunctions/arm_depthwise_conv_3x3_s8.c ****  * not use this file except in compliance with the License.
   8:../src/tensorflow_lite/third_party/cmsis/CMSIS/NN/Source/ConvolutionFunctions/arm_depthwise_conv_3x3_s8.c ****  * You may obtain a copy of the License at
   9:../src/tensorflow_lite/third_party/cmsis/CMSIS/NN/Source/ConvolutionFunctions/arm_depthwise_conv_3x3_s8.c ****  *
  10:../src/tensorflow_lite/third_party/cmsis/CMSIS/NN/Source/ConvolutionFunctions/arm_depthwise_conv_3x3_s8.c ****  * www.apache.org/licenses/LICENSE-2.0
  11:../src/tensorflow_lite/third_party/cmsis/CMSIS/NN/Source/ConvolutionFunctions/arm_depthwise_conv_3x3_s8.c ****  *
  12:../src/tensorflow_lite/third_party/cmsis/CMSIS/NN/Source/ConvolutionFunctions/arm_depthwise_conv_3x3_s8.c ****  * Unless required by applicable law or agreed to in writing, software
  13:../src/tensorflow_lite/third_party/cmsis/CMSIS/NN/Source/ConvolutionFunctions/arm_depthwise_conv_3x3_s8.c ****  * distributed under the License is distributed on an AS IS BASIS, WITHOUT
  14:../src/tensorflow_lite/third_party/cmsis/CMSIS/NN/Source/ConvolutionFunctions/arm_depthwise_conv_3x3_s8.c ****  * WARRANTIES OR CONDITIONS OF ANY KIND, either express or implied.
  15:../src/tensorflow_lite/third_party/cmsis/CMSIS/NN/Source/ConvolutionFunctions/arm_depthwise_conv_3x3_s8.c ****  * See the License for the specific language governing permissions and
  16:../src/tensorflow_lite/third_party/cmsis/CMSIS/NN/Source/ConvolutionFunctions/arm_depthwise_conv_3x3_s8.c ****  * limitations under the License.
  17:../src/tensorflow_lite/third_party/cmsis/CMSIS/NN/Source/ConvolutionFunctions/arm_depthwise_conv_3x3_s8.c ****  */
  18:../src/tensorflow_lite/third_party/cmsis/CMSIS/NN/Source/ConvolutionFunctions/arm_depthwise_conv_3x3_s8.c **** 
  19:../src/tensorflow_lite/third_party/cmsis/CMSIS/NN/Source/ConvolutionFunctions/arm_depthwise_conv_3x3_s8.c **** /* ----------------------------------------------------------------------
  20:../src/tensorflow_lite/third_party/cmsis/CMSIS/NN/Source/ConvolutionFunctions/arm_depthwise_conv_3x3_s8.c ****  * Project:      CMSIS NN Library
  21:../src/tensorflow_lite/third_party/cmsis/CMSIS/NN/Source/ConvolutionFunctions/arm_depthwise_conv_3x3_s8.c ****  * Title:        arm_depthwise_conv_3x3_s8.c
  22:../src/tensorflow_lite/third_party/cmsis/CMSIS/NN/Source/ConvolutionFunctions/arm_depthwise_conv_3x3_s8.c ****  * Description:  Optimized s8 depthwise convolution function for channel
  23:../src/tensorflow_lite/third_party/cmsis/CMSIS/NN/Source/ConvolutionFunctions/arm_depthwise_conv_3x3_s8.c ****  *               multiplier of 1 and 3x3 kernel size.
  24:../src/tensorflow_lite/third_party/cmsis/CMSIS/NN/Source/ConvolutionFunctions/arm_depthwise_conv_3x3_s8.c ****  *
  25:../src/tensorflow_lite/third_party/cmsis/CMSIS/NN/Source/ConvolutionFunctions/arm_depthwise_conv_3x3_s8.c ****  * $Date:        09. October 2020
  26:../src/tensorflow_lite/third_party/cmsis/CMSIS/NN/Source/ConvolutionFunctions/arm_depthwise_conv_3x3_s8.c ****  * $Revision:    V.2.0.1
  27:../src/tensorflow_lite/third_party/cmsis/CMSIS/NN/Source/ConvolutionFunctions/arm_depthwise_conv_3x3_s8.c ****  *
  28:../src/tensorflow_lite/third_party/cmsis/CMSIS/NN/Source/ConvolutionFunctions/arm_depthwise_conv_3x3_s8.c ****  * Target Processor:  Cortex-M CPUs
  29:../src/tensorflow_lite/third_party/cmsis/CMSIS/NN/Source/ConvolutionFunctions/arm_depthwise_conv_3x3_s8.c ****  *
  30:../src/tensorflow_lite/third_party/cmsis/CMSIS/NN/Source/ConvolutionFunctions/arm_depthwise_conv_3x3_s8.c ****  * -------------------------------------------------------------------- */
  31:../src/tensorflow_lite/third_party/cmsis/CMSIS/NN/Source/ConvolutionFunctions/arm_depthwise_conv_3x3_s8.c **** 
  32:../src/tensorflow_lite/third_party/cmsis/CMSIS/NN/Source/ConvolutionFunctions/arm_depthwise_conv_3x3_s8.c **** #include "arm_nnfunctions.h"
  33:../src/tensorflow_lite/third_party/cmsis/CMSIS/NN/Source/ConvolutionFunctions/arm_depthwise_conv_3x3_s8.c **** #include "arm_nnsupportfunctions.h"
  34:../src/tensorflow_lite/third_party/cmsis/CMSIS/NN/Source/ConvolutionFunctions/arm_depthwise_conv_3x3_s8.c **** 
  35:../src/tensorflow_lite/third_party/cmsis/CMSIS/NN/Source/ConvolutionFunctions/arm_depthwise_conv_3x3_s8.c **** /**
  36:../src/tensorflow_lite/third_party/cmsis/CMSIS/NN/Source/ConvolutionFunctions/arm_depthwise_conv_3x3_s8.c ****  *  @ingroup groupNN
  37:../src/tensorflow_lite/third_party/cmsis/CMSIS/NN/Source/ConvolutionFunctions/arm_depthwise_conv_3x3_s8.c ****  */
  38:../src/tensorflow_lite/third_party/cmsis/CMSIS/NN/Source/ConvolutionFunctions/arm_depthwise_conv_3x3_s8.c **** 
  39:../src/tensorflow_lite/third_party/cmsis/CMSIS/NN/Source/ConvolutionFunctions/arm_depthwise_conv_3x3_s8.c **** /**
  40:../src/tensorflow_lite/third_party/cmsis/CMSIS/NN/Source/ConvolutionFunctions/arm_depthwise_conv_3x3_s8.c ****  * @addtogroup NNConv
  41:../src/tensorflow_lite/third_party/cmsis/CMSIS/NN/Source/ConvolutionFunctions/arm_depthwise_conv_3x3_s8.c ****  * @{
  42:../src/tensorflow_lite/third_party/cmsis/CMSIS/NN/Source/ConvolutionFunctions/arm_depthwise_conv_3x3_s8.c ****  */
  43:../src/tensorflow_lite/third_party/cmsis/CMSIS/NN/Source/ConvolutionFunctions/arm_depthwise_conv_3x3_s8.c **** 
  44:../src/tensorflow_lite/third_party/cmsis/CMSIS/NN/Source/ConvolutionFunctions/arm_depthwise_conv_3x3_s8.c **** /*
  45:../src/tensorflow_lite/third_party/cmsis/CMSIS/NN/Source/ConvolutionFunctions/arm_depthwise_conv_3x3_s8.c ****  * Optimized s8 depthwise convolution function with constraint that
  46:../src/tensorflow_lite/third_party/cmsis/CMSIS/NN/Source/ConvolutionFunctions/arm_depthwise_conv_3x3_s8.c ****  * in_channel == out_channel and kernel_x == kernel_y == 3 with pads at most 1
  47:../src/tensorflow_lite/third_party/cmsis/CMSIS/NN/Source/ConvolutionFunctions/arm_depthwise_conv_3x3_s8.c ****  *
  48:../src/tensorflow_lite/third_party/cmsis/CMSIS/NN/Source/ConvolutionFunctions/arm_depthwise_conv_3x3_s8.c ****  *  Refer prototype header file for details.
  49:../src/tensorflow_lite/third_party/cmsis/CMSIS/NN/Source/ConvolutionFunctions/arm_depthwise_conv_3x3_s8.c ****  *
  50:../src/tensorflow_lite/third_party/cmsis/CMSIS/NN/Source/ConvolutionFunctions/arm_depthwise_conv_3x3_s8.c ****  */
  51:../src/tensorflow_lite/third_party/cmsis/CMSIS/NN/Source/ConvolutionFunctions/arm_depthwise_conv_3x3_s8.c **** 
  52:../src/tensorflow_lite/third_party/cmsis/CMSIS/NN/Source/ConvolutionFunctions/arm_depthwise_conv_3x3_s8.c **** arm_status arm_depthwise_conv_3x3_s8(const cmsis_nn_context *ctx,
  53:../src/tensorflow_lite/third_party/cmsis/CMSIS/NN/Source/ConvolutionFunctions/arm_depthwise_conv_3x3_s8.c ****                                      const cmsis_nn_dw_conv_params *dw_conv_params,
  54:../src/tensorflow_lite/third_party/cmsis/CMSIS/NN/Source/ConvolutionFunctions/arm_depthwise_conv_3x3_s8.c ****                                      const cmsis_nn_per_channel_quant_params *quant_params,
  55:../src/tensorflow_lite/third_party/cmsis/CMSIS/NN/Source/ConvolutionFunctions/arm_depthwise_conv_3x3_s8.c ****                                      const cmsis_nn_dims *input_dims,
  56:../src/tensorflow_lite/third_party/cmsis/CMSIS/NN/Source/ConvolutionFunctions/arm_depthwise_conv_3x3_s8.c ****                                      const q7_t *input,
  57:../src/tensorflow_lite/third_party/cmsis/CMSIS/NN/Source/ConvolutionFunctions/arm_depthwise_conv_3x3_s8.c ****                                      const cmsis_nn_dims *filter_dims,
  58:../src/tensorflow_lite/third_party/cmsis/CMSIS/NN/Source/ConvolutionFunctions/arm_depthwise_conv_3x3_s8.c ****                                      const q7_t *kernel,
  59:../src/tensorflow_lite/third_party/cmsis/CMSIS/NN/Source/ConvolutionFunctions/arm_depthwise_conv_3x3_s8.c ****                                      const cmsis_nn_dims *bias_dims,
  60:../src/tensorflow_lite/third_party/cmsis/CMSIS/NN/Source/ConvolutionFunctions/arm_depthwise_conv_3x3_s8.c ****                                      const int32_t *bias,
  61:../src/tensorflow_lite/third_party/cmsis/CMSIS/NN/Source/ConvolutionFunctions/arm_depthwise_conv_3x3_s8.c ****                                      const cmsis_nn_dims *output_dims,
  62:../src/tensorflow_lite/third_party/cmsis/CMSIS/NN/Source/ConvolutionFunctions/arm_depthwise_conv_3x3_s8.c ****                                      q7_t *output)
  63:../src/tensorflow_lite/third_party/cmsis/CMSIS/NN/Source/ConvolutionFunctions/arm_depthwise_conv_3x3_s8.c **** {
  26              		.loc 1 63 0
  27              		.cfi_startproc
  28              		@ args = 28, pretend = 0, frame = 384
  29              		@ frame_needed = 0, uses_anonymous_args = 0
  30              	.LVL0:
  31 0000 F04F2DE9 		push	{r4, r5, r6, r7, r8, r9, r10, fp, lr}
  32              		.cfi_def_cfa_offset 36
  33              		.cfi_offset 4, -36
  34              		.cfi_offset 5, -32
  35              		.cfi_offset 6, -28
  36              		.cfi_offset 7, -24
  37              		.cfi_offset 8, -20
  38              		.cfi_offset 9, -16
  39              		.cfi_offset 10, -12
  40              		.cfi_offset 11, -8
  41              		.cfi_offset 14, -4
  64:../src/tensorflow_lite/third_party/cmsis/CMSIS/NN/Source/ConvolutionFunctions/arm_depthwise_conv_3x3_s8.c ****     (void)ctx;
  65:../src/tensorflow_lite/third_party/cmsis/CMSIS/NN/Source/ConvolutionFunctions/arm_depthwise_conv_3x3_s8.c ****     (void)bias_dims;
  66:../src/tensorflow_lite/third_party/cmsis/CMSIS/NN/Source/ConvolutionFunctions/arm_depthwise_conv_3x3_s8.c **** 
  67:../src/tensorflow_lite/third_party/cmsis/CMSIS/NN/Source/ConvolutionFunctions/arm_depthwise_conv_3x3_s8.c ****     const int32_t input_x = input_dims->w;
  42              		.loc 1 67 0
  43 0004 08C093E5 		ldr	ip, [r3, #8]
  68:../src/tensorflow_lite/third_party/cmsis/CMSIS/NN/Source/ConvolutionFunctions/arm_depthwise_conv_3x3_s8.c ****     const int32_t input_y = input_dims->h;
  69:../src/tensorflow_lite/third_party/cmsis/CMSIS/NN/Source/ConvolutionFunctions/arm_depthwise_conv_3x3_s8.c ****     const int32_t input_ch = input_dims->c;
  44              		.loc 1 69 0
  45 0008 0CB093E5 		ldr	fp, [r3, #12]
  68:../src/tensorflow_lite/third_party/cmsis/CMSIS/NN/Source/ConvolutionFunctions/arm_depthwise_conv_3x3_s8.c ****     const int32_t input_y = input_dims->h;
  46              		.loc 1 68 0
  47 000c 043093E5 		ldr	r3, [r3, #4]
  48              	.LVL1:
  63:../src/tensorflow_lite/third_party/cmsis/CMSIS/NN/Source/ConvolutionFunctions/arm_depthwise_conv_3x3_s8.c ****     (void)ctx;
  49              		.loc 1 63 0
  50 0010 048B2DED 		vpush.64	{d8, d9}
  51              		.cfi_def_cfa_offset 52
  52              		.cfi_offset 80, -52
  53              		.cfi_offset 81, -48
  54              		.cfi_offset 82, -44
  55              		.cfi_offset 83, -40
  56 0014 61DF4DE2 		sub	sp, sp, #388
  57              		.cfi_def_cfa_offset 440
  63:../src/tensorflow_lite/third_party/cmsis/CMSIS/NN/Source/ConvolutionFunctions/arm_depthwise_conv_3x3_s8.c ****     (void)ctx;
  58              		.loc 1 63 0
  59 0018 CC019DE5 		ldr	r0, [sp, #460]
  60              	.LVL2:
  68:../src/tensorflow_lite/third_party/cmsis/CMSIS/NN/Source/ConvolutionFunctions/arm_depthwise_conv_3x3_s8.c ****     const int32_t input_y = input_dims->h;
  61              		.loc 1 68 0
  62 001c 38318DE5 		str	r3, [sp, #312]
  70:../src/tensorflow_lite/third_party/cmsis/CMSIS/NN/Source/ConvolutionFunctions/arm_depthwise_conv_3x3_s8.c ****     const int32_t output_ch = output_dims->c;
  71:../src/tensorflow_lite/third_party/cmsis/CMSIS/NN/Source/ConvolutionFunctions/arm_depthwise_conv_3x3_s8.c ****     const int32_t pad_x = dw_conv_params->padding.w;
  63              		.loc 1 71 0
  64 0020 143091E5 		ldr	r3, [r1, #20]
  67:../src/tensorflow_lite/third_party/cmsis/CMSIS/NN/Source/ConvolutionFunctions/arm_depthwise_conv_3x3_s8.c ****     const int32_t input_y = input_dims->h;
  65              		.loc 1 67 0
  66 0024 2CC18DE5 		str	ip, [sp, #300]
  67              	.LVL3:
  72:../src/tensorflow_lite/third_party/cmsis/CMSIS/NN/Source/ConvolutionFunctions/arm_depthwise_conv_3x3_s8.c ****     const int32_t pad_y = dw_conv_params->padding.h;
  73:../src/tensorflow_lite/third_party/cmsis/CMSIS/NN/Source/ConvolutionFunctions/arm_depthwise_conv_3x3_s8.c ****     const int32_t stride_x = dw_conv_params->stride.w;
  74:../src/tensorflow_lite/third_party/cmsis/CMSIS/NN/Source/ConvolutionFunctions/arm_depthwise_conv_3x3_s8.c ****     const int32_t stride_y = dw_conv_params->stride.h;
  75:../src/tensorflow_lite/third_party/cmsis/CMSIS/NN/Source/ConvolutionFunctions/arm_depthwise_conv_3x3_s8.c ****     const int32_t *output_shift = quant_params->shift;
  76:../src/tensorflow_lite/third_party/cmsis/CMSIS/NN/Source/ConvolutionFunctions/arm_depthwise_conv_3x3_s8.c ****     const int32_t *output_mult = quant_params->multiplier;
  77:../src/tensorflow_lite/third_party/cmsis/CMSIS/NN/Source/ConvolutionFunctions/arm_depthwise_conv_3x3_s8.c ****     const int32_t output_x = output_dims->w;
  78:../src/tensorflow_lite/third_party/cmsis/CMSIS/NN/Source/ConvolutionFunctions/arm_depthwise_conv_3x3_s8.c ****     const int32_t output_y = output_dims->h;
  79:../src/tensorflow_lite/third_party/cmsis/CMSIS/NN/Source/ConvolutionFunctions/arm_depthwise_conv_3x3_s8.c ****     const int32_t output_offset = dw_conv_params->output_offset;
  80:../src/tensorflow_lite/third_party/cmsis/CMSIS/NN/Source/ConvolutionFunctions/arm_depthwise_conv_3x3_s8.c ****     const int32_t input_offset = dw_conv_params->input_offset;
  81:../src/tensorflow_lite/third_party/cmsis/CMSIS/NN/Source/ConvolutionFunctions/arm_depthwise_conv_3x3_s8.c ****     const int32_t output_activation_min = dw_conv_params->activation.min;
  82:../src/tensorflow_lite/third_party/cmsis/CMSIS/NN/Source/ConvolutionFunctions/arm_depthwise_conv_3x3_s8.c ****     const int32_t output_activation_max = dw_conv_params->activation.max;
  83:../src/tensorflow_lite/third_party/cmsis/CMSIS/NN/Source/ConvolutionFunctions/arm_depthwise_conv_3x3_s8.c **** 
  84:../src/tensorflow_lite/third_party/cmsis/CMSIS/NN/Source/ConvolutionFunctions/arm_depthwise_conv_3x3_s8.c ****     /* Check input constraints input_ch == output_ch */
  85:../src/tensorflow_lite/third_party/cmsis/CMSIS/NN/Source/ConvolutionFunctions/arm_depthwise_conv_3x3_s8.c ****     if (input_ch != output_ch)
  68              		.loc 1 85 0
  69 0028 0CC090E5 		ldr	ip, [r0, #12]
  70              	.LVL4:
  71:../src/tensorflow_lite/third_party/cmsis/CMSIS/NN/Source/ConvolutionFunctions/arm_depthwise_conv_3x3_s8.c ****     const int32_t pad_y = dw_conv_params->padding.h;
  71              		.loc 1 71 0
  72 002c 03E0A0E1 		mov	lr, r3
  73 0030 3C318DE5 		str	r3, [sp, #316]
  74              	.LVL5:
  73:../src/tensorflow_lite/third_party/cmsis/CMSIS/NN/Source/ConvolutionFunctions/arm_depthwise_conv_3x3_s8.c ****     const int32_t stride_y = dw_conv_params->stride.h;
  75              		.loc 1 73 0
  76 0034 0C3091E5 		ldr	r3, [r1, #12]
  77              	.LVL6:
  78              		.loc 1 85 0
  79 0038 0C005BE1 		cmp	fp, ip
  80:../src/tensorflow_lite/third_party/cmsis/CMSIS/NN/Source/ConvolutionFunctions/arm_depthwise_conv_3x3_s8.c ****     const int32_t output_activation_min = dw_conv_params->activation.min;
  80              		.loc 1 80 0
  81 003c 00A091E5 		ldr	r10, [r1]
  72:../src/tensorflow_lite/third_party/cmsis/CMSIS/NN/Source/ConvolutionFunctions/arm_depthwise_conv_3x3_s8.c ****     const int32_t stride_x = dw_conv_params->stride.w;
  82              		.loc 1 72 0
  83 0040 18C091E5 		ldr	ip, [r1, #24]
  84              	.LVL7:
  73:../src/tensorflow_lite/third_party/cmsis/CMSIS/NN/Source/ConvolutionFunctions/arm_depthwise_conv_3x3_s8.c ****     const int32_t stride_y = dw_conv_params->stride.h;
  85              		.loc 1 73 0
  86 0044 AC308DE5 		str	r3, [sp, #172]
  87              	.LVL8:
  74:../src/tensorflow_lite/third_party/cmsis/CMSIS/NN/Source/ConvolutionFunctions/arm_depthwise_conv_3x3_s8.c ****     const int32_t *output_shift = quant_params->shift;
  88              		.loc 1 74 0
  89 0048 103091E5 		ldr	r3, [r1, #16]
  90              	.LVL9:
  91 004c 48318DE5 		str	r3, [sp, #328]
  92              	.LVL10:
  75:../src/tensorflow_lite/third_party/cmsis/CMSIS/NN/Source/ConvolutionFunctions/arm_depthwise_conv_3x3_s8.c ****     const int32_t *output_mult = quant_params->multiplier;
  93              		.loc 1 75 0
  94 0050 043092E5 		ldr	r3, [r2, #4]
  95              	.LVL11:
  96 0054 88308DE5 		str	r3, [sp, #136]
  97              	.LVL12:
  76:../src/tensorflow_lite/third_party/cmsis/CMSIS/NN/Source/ConvolutionFunctions/arm_depthwise_conv_3x3_s8.c ****     const int32_t output_x = output_dims->w;
  98              		.loc 1 76 0
  99 0058 003092E5 		ldr	r3, [r2]
 100              	.LVL13:
 101 005c 8C308DE5 		str	r3, [sp, #140]
 102              	.LVL14:
  77:../src/tensorflow_lite/third_party/cmsis/CMSIS/NN/Source/ConvolutionFunctions/arm_depthwise_conv_3x3_s8.c ****     const int32_t output_y = output_dims->h;
 103              		.loc 1 77 0
 104 0060 083090E5 		ldr	r3, [r0, #8]
 105              	.LVL15:
 106 0064 B0308DE5 		str	r3, [sp, #176]
 107              	.LVL16:
  78:../src/tensorflow_lite/third_party/cmsis/CMSIS/NN/Source/ConvolutionFunctions/arm_depthwise_conv_3x3_s8.c ****     const int32_t output_offset = dw_conv_params->output_offset;
 108              		.loc 1 78 0
 109 0068 043090E5 		ldr	r3, [r0, #4]
 110              	.LVL17:
 111 006c 0300A0E1 		mov	r0, r3
 112              	.LVL18:
 113 0070 4C318DE5 		str	r3, [sp, #332]
 114              	.LVL19:
  79:../src/tensorflow_lite/third_party/cmsis/CMSIS/NN/Source/ConvolutionFunctions/arm_depthwise_conv_3x3_s8.c ****     const int32_t input_offset = dw_conv_params->input_offset;
 115              		.loc 1 79 0
 116 0074 043091E5 		ldr	r3, [r1, #4]
 117 0078 64308DE5 		str	r3, [sp, #100]
 118              	.LVL20:
  81:../src/tensorflow_lite/third_party/cmsis/CMSIS/NN/Source/ConvolutionFunctions/arm_depthwise_conv_3x3_s8.c ****     const int32_t output_activation_max = dw_conv_params->activation.max;
 119              		.loc 1 81 0
 120 007c 243091E5 		ldr	r3, [r1, #36]
 121              	.LVL21:
 122 0080 68308DE5 		str	r3, [sp, #104]
 123              	.LVL22:
  82:../src/tensorflow_lite/third_party/cmsis/CMSIS/NN/Source/ConvolutionFunctions/arm_depthwise_conv_3x3_s8.c **** 
 124              		.loc 1 82 0
 125 0084 283091E5 		ldr	r3, [r1, #40]
 126              	.LVL23:
 127 0088 6C308DE5 		str	r3, [sp, #108]
 128              	.LVL24:
  63:../src/tensorflow_lite/third_party/cmsis/CMSIS/NN/Source/ConvolutionFunctions/arm_depthwise_conv_3x3_s8.c ****     (void)ctx;
 129              		.loc 1 63 0
 130 008c BC319DE5 		ldr	r3, [sp, #444]
 131              	.LVL25:
 132              		.loc 1 85 0
 133 0090 4403001A 		bne	.L40
  86:../src/tensorflow_lite/third_party/cmsis/CMSIS/NN/Source/ConvolutionFunctions/arm_depthwise_conv_3x3_s8.c ****     {
  87:../src/tensorflow_lite/third_party/cmsis/CMSIS/NN/Source/ConvolutionFunctions/arm_depthwise_conv_3x3_s8.c ****         return ARM_MATH_SIZE_MISMATCH;
  88:../src/tensorflow_lite/third_party/cmsis/CMSIS/NN/Source/ConvolutionFunctions/arm_depthwise_conv_3x3_s8.c ****     }
  89:../src/tensorflow_lite/third_party/cmsis/CMSIS/NN/Source/ConvolutionFunctions/arm_depthwise_conv_3x3_s8.c ****     /* Check input constraints pad_x <= 1 */
  90:../src/tensorflow_lite/third_party/cmsis/CMSIS/NN/Source/ConvolutionFunctions/arm_depthwise_conv_3x3_s8.c ****     if (pad_x > 1 || filter_dims->w != 3 || filter_dims->h != 3)
 134              		.loc 1 90 0
 135 0094 01005EE3 		cmp	lr, #1
 136 0098 460300CA 		bgt	.L43
 137              		.loc 1 90 0 is_stmt 0 discriminator 1
 138 009c 082093E5 		ldr	r2, [r3, #8]
 139              	.LVL26:
 140 00a0 030052E3 		cmp	r2, #3
 141 00a4 4303001A 		bne	.L43
 142              		.loc 1 90 0 discriminator 2
 143 00a8 043093E5 		ldr	r3, [r3, #4]
 144 00ac 030053E3 		cmp	r3, #3
 145 00b0 4003001A 		bne	.L43
 146              	.LBB56:
  91:../src/tensorflow_lite/third_party/cmsis/CMSIS/NN/Source/ConvolutionFunctions/arm_depthwise_conv_3x3_s8.c ****     {
  92:../src/tensorflow_lite/third_party/cmsis/CMSIS/NN/Source/ConvolutionFunctions/arm_depthwise_conv_3x3_s8.c ****         return ARM_MATH_ARGUMENT_ERROR;
  93:../src/tensorflow_lite/third_party/cmsis/CMSIS/NN/Source/ConvolutionFunctions/arm_depthwise_conv_3x3_s8.c ****     }
  94:../src/tensorflow_lite/third_party/cmsis/CMSIS/NN/Source/ConvolutionFunctions/arm_depthwise_conv_3x3_s8.c **** 
  95:../src/tensorflow_lite/third_party/cmsis/CMSIS/NN/Source/ConvolutionFunctions/arm_depthwise_conv_3x3_s8.c ****     for (int32_t in_h = -pad_y, out_h = 0, out_idx = 0; out_h < output_y; in_h += stride_y, ++out_h
 147              		.loc 1 95 0 is_stmt 1
 148 00b4 000050E3 		cmp	r0, #0
 149 00b8 00306CE2 		rsb	r3, ip, #0
 150 00bc 30318DE5 		str	r3, [sp, #304]
 151              	.LVL27:
 152 00c0 C50200DA 		ble	.L39
 153 00c4 2C319DE5 		ldr	r3, [sp, #300]
 154              	.LVL28:
 155 00c8 04104BE2 		sub	r1, fp, #4
 156              	.LVL29:
 157 00cc 1C118DE5 		str	r1, [sp, #284]
 158 00d0 10ABA8EE 		vdup.32	q4, r10
 159 00d4 9B0303E0 		mul	r3, fp, r3
 160 00d8 0320A0E1 		mov	r2, r3
 161 00dc 18308DE5 		str	r3, [sp, #24]
 162 00e0 8B30A0E1 		lsl	r3, fp, #1
 163 00e4 58308DE5 		str	r3, [sp, #88]
 164 00e8 0B3083E0 		add	r3, r3, fp
 165 00ec 03E0A0E1 		mov	lr, r3
 166              	.LVL30:
 167 00f0 14308DE5 		str	r3, [sp, #20]
 168 00f4 2131A0E1 		lsr	r3, r1, #2
 169 00f8 8E11A0E1 		lsl	r1, lr, #3
 170 00fc 8E008EE0 		add	r0, lr, lr, lsl #1
 171              	.LVL31:
 172 0100 0E618EE0 		add	r6, lr, lr, lsl #2
 173 0104 04108DE5 		str	r1, [sp, #4]
 174 0108 0E72A0E1 		lsl	r7, lr, #4
 175 010c AC109DE5 		ldr	r1, [sp, #172]
 176 0110 0040A0E1 		mov	r4, r0
 177 0114 0680A0E1 		mov	r8, r6
 178 0118 E0608DE5 		str	r6, [sp, #224]
 179 011c 026182E0 		add	r6, r2, r2, lsl #2
 180 0120 DC008DE5 		str	r0, [sp, #220]
 181 0124 820082E0 		add	r0, r2, r2, lsl #1
 182 0128 A8708DE5 		str	r7, [sp, #168]
 183 012c 910B01E0 		mul	r1, r1, fp
 184 0130 0690A0E1 		mov	r9, r6
 185 0134 C4608DE5 		str	r6, [sp, #196]
 186 0138 0461A0E1 		lsl	r6, r4, #2
 187 013c C0008DE5 		str	r0, [sp, #192]
 188 0140 0050A0E1 		mov	r5, r0
 189 0144 8201A0E1 		lsl	r0, r2, #3
 190 0148 28118DE5 		str	r1, [sp, #296]
 191 014c 8410A0E1 		lsl	r1, r4, #1
 192 0150 00008DE5 		str	r0, [sp]
 193 0154 0571A0E1 		lsl	r7, r5, #2
 194 0158 08118DE5 		str	r1, [sp, #264]
 195 015c 0200A0E1 		mov	r0, r2
 196 0160 3C119DE5 		ldr	r1, [sp, #316]
 197 0164 0222A0E1 		lsl	r2, r2, #4
 198 0168 10618DE5 		str	r6, [sp, #272]
 199 016c 00718DE5 		str	r7, [sp, #256]
 200 0170 004061E2 		rsb	r4, r1, #0
 201 0174 8810A0E1 		lsl	r1, r8, #1
 202 0178 44418DE5 		str	r4, [sp, #324]
 203 017c 44419DE5 		ldr	r4, [sp, #324]
 204 0180 0C118DE5 		str	r1, [sp, #268]
 205 0184 04809DE5 		ldr	r8, [sp, #4]
 206 0188 B4208DE5 		str	r2, [sp, #180]
 207 018c 9B0401E0 		mul	r1, fp, r4
 208 0190 0E4048E0 		sub	r4, r8, lr
 209 0194 E4408DE5 		str	r4, [sp, #228]
 210 0198 50118DE5 		str	r1, [sp, #336]
 211 019c 0311A0E1 		lsl	r1, r3, #2
 212 01a0 013083E2 		add	r3, r3, #1
 213 01a4 18118DE5 		str	r1, [sp, #280]
 214 01a8 8510A0E1 		lsl	r1, r5, #1
 215 01ac 00509DE5 		ldr	r5, [sp]
 216 01b0 F8108DE5 		str	r1, [sp, #248]
 217 01b4 8410A0E1 		lsl	r1, r4, #1
 218 01b8 14118DE5 		str	r1, [sp, #276]
 219 01bc 8910A0E1 		lsl	r1, r9, #1
 220 01c0 004045E0 		sub	r4, r5, r0
 221 01c4 FC108DE5 		str	r1, [sp, #252]
 222 01c8 8410A0E1 		lsl	r1, r4, #1
 223 01cc C8408DE5 		str	r4, [sp, #200]
 224              	.LBB57:
 225              	.LBB58:
 226              	.LBB59:
 227              	.LBB60:
 228              	.LBB61:
  96:../src/tensorflow_lite/third_party/cmsis/CMSIS/NN/Source/ConvolutionFunctions/arm_depthwise_conv_3x3_s8.c ****     {
  97:../src/tensorflow_lite/third_party/cmsis/CMSIS/NN/Source/ConvolutionFunctions/arm_depthwise_conv_3x3_s8.c ****         for (int32_t in_w = -pad_x, out_w = 0, ker_h_start = MAX(0, -in_h); out_w < output_x; in_w 
  98:../src/tensorflow_lite/third_party/cmsis/CMSIS/NN/Source/ConvolutionFunctions/arm_depthwise_conv_3x3_s8.c ****         {
  99:../src/tensorflow_lite/third_party/cmsis/CMSIS/NN/Source/ConvolutionFunctions/arm_depthwise_conv_3x3_s8.c ****             int32_t in_ch = 0;
 100:../src/tensorflow_lite/third_party/cmsis/CMSIS/NN/Source/ConvolutionFunctions/arm_depthwise_conv_3x3_s8.c ****             int32_t ker_w_start = MAX(0, -in_w);
 101:../src/tensorflow_lite/third_party/cmsis/CMSIS/NN/Source/ConvolutionFunctions/arm_depthwise_conv_3x3_s8.c **** 
 102:../src/tensorflow_lite/third_party/cmsis/CMSIS/NN/Source/ConvolutionFunctions/arm_depthwise_conv_3x3_s8.c ****             for (; in_ch <= (input_ch - 4); in_ch += 4)
 103:../src/tensorflow_lite/third_party/cmsis/CMSIS/NN/Source/ConvolutionFunctions/arm_depthwise_conv_3x3_s8.c ****             {
 104:../src/tensorflow_lite/third_party/cmsis/CMSIS/NN/Source/ConvolutionFunctions/arm_depthwise_conv_3x3_s8.c ****                 int32_t out_buff0 = bias[in_ch + 0];
 105:../src/tensorflow_lite/third_party/cmsis/CMSIS/NN/Source/ConvolutionFunctions/arm_depthwise_conv_3x3_s8.c ****                 int32_t out_buff1 = bias[in_ch + 1];
 106:../src/tensorflow_lite/third_party/cmsis/CMSIS/NN/Source/ConvolutionFunctions/arm_depthwise_conv_3x3_s8.c ****                 int32_t out_buff2 = bias[in_ch + 2];
 107:../src/tensorflow_lite/third_party/cmsis/CMSIS/NN/Source/ConvolutionFunctions/arm_depthwise_conv_3x3_s8.c ****                 int32_t out_buff3 = bias[in_ch + 3];
 108:../src/tensorflow_lite/third_party/cmsis/CMSIS/NN/Source/ConvolutionFunctions/arm_depthwise_conv_3x3_s8.c **** 
 109:../src/tensorflow_lite/third_party/cmsis/CMSIS/NN/Source/ConvolutionFunctions/arm_depthwise_conv_3x3_s8.c ****                 const int8_t *input_ptr = input + (in_h + ker_h_start) * (input_ch * input_x) + in_
 110:../src/tensorflow_lite/third_party/cmsis/CMSIS/NN/Source/ConvolutionFunctions/arm_depthwise_conv_3x3_s8.c ****                 const int8_t *kernel_ptr = kernel + ker_h_start * (input_ch * 3) + in_ch;
 111:../src/tensorflow_lite/third_party/cmsis/CMSIS/NN/Source/ConvolutionFunctions/arm_depthwise_conv_3x3_s8.c **** 
 112:../src/tensorflow_lite/third_party/cmsis/CMSIS/NN/Source/ConvolutionFunctions/arm_depthwise_conv_3x3_s8.c ****                 for (int32_t ker_h = ker_h_start; ker_h < MIN(3, input_y - in_h); ++ker_h)
 113:../src/tensorflow_lite/third_party/cmsis/CMSIS/NN/Source/ConvolutionFunctions/arm_depthwise_conv_3x3_s8.c ****                 {
 114:../src/tensorflow_lite/third_party/cmsis/CMSIS/NN/Source/ConvolutionFunctions/arm_depthwise_conv_3x3_s8.c ****                     int32_t in_val = 0;
 115:../src/tensorflow_lite/third_party/cmsis/CMSIS/NN/Source/ConvolutionFunctions/arm_depthwise_conv_3x3_s8.c ****                     int32_t ker_val = 0;
 116:../src/tensorflow_lite/third_party/cmsis/CMSIS/NN/Source/ConvolutionFunctions/arm_depthwise_conv_3x3_s8.c **** 
 117:../src/tensorflow_lite/third_party/cmsis/CMSIS/NN/Source/ConvolutionFunctions/arm_depthwise_conv_3x3_s8.c ****                     if (ker_w_start == 0)
 118:../src/tensorflow_lite/third_party/cmsis/CMSIS/NN/Source/ConvolutionFunctions/arm_depthwise_conv_3x3_s8.c ****                     {
 119:../src/tensorflow_lite/third_party/cmsis/CMSIS/NN/Source/ConvolutionFunctions/arm_depthwise_conv_3x3_s8.c ****                         in_val = arm_nn_read_q7x4(input_ptr);
 120:../src/tensorflow_lite/third_party/cmsis/CMSIS/NN/Source/ConvolutionFunctions/arm_depthwise_conv_3x3_s8.c ****                         ker_val = arm_nn_read_q7x4(kernel_ptr);
 121:../src/tensorflow_lite/third_party/cmsis/CMSIS/NN/Source/ConvolutionFunctions/arm_depthwise_conv_3x3_s8.c **** 
 122:../src/tensorflow_lite/third_party/cmsis/CMSIS/NN/Source/ConvolutionFunctions/arm_depthwise_conv_3x3_s8.c ****                         out_buff0 += ((int8_t)in_val + input_offset) * (int8_t)ker_val;
 123:../src/tensorflow_lite/third_party/cmsis/CMSIS/NN/Source/ConvolutionFunctions/arm_depthwise_conv_3x3_s8.c ****                         out_buff1 += ((int8_t)(in_val >> 8) + input_offset) * (int8_t)(ker_val >> 8
 124:../src/tensorflow_lite/third_party/cmsis/CMSIS/NN/Source/ConvolutionFunctions/arm_depthwise_conv_3x3_s8.c ****                         out_buff2 += ((int8_t)(in_val >> 16) + input_offset) * (int8_t)(ker_val >> 
 125:../src/tensorflow_lite/third_party/cmsis/CMSIS/NN/Source/ConvolutionFunctions/arm_depthwise_conv_3x3_s8.c ****                         out_buff3 += ((int8_t)(in_val >> 24) + input_offset) * (int8_t)(ker_val >> 
 126:../src/tensorflow_lite/third_party/cmsis/CMSIS/NN/Source/ConvolutionFunctions/arm_depthwise_conv_3x3_s8.c ****                     }
 127:../src/tensorflow_lite/third_party/cmsis/CMSIS/NN/Source/ConvolutionFunctions/arm_depthwise_conv_3x3_s8.c **** 
 128:../src/tensorflow_lite/third_party/cmsis/CMSIS/NN/Source/ConvolutionFunctions/arm_depthwise_conv_3x3_s8.c ****                     in_val = arm_nn_read_q7x4(input_ptr + input_ch);
 129:../src/tensorflow_lite/third_party/cmsis/CMSIS/NN/Source/ConvolutionFunctions/arm_depthwise_conv_3x3_s8.c ****                     ker_val = arm_nn_read_q7x4(kernel_ptr + input_ch);
 130:../src/tensorflow_lite/third_party/cmsis/CMSIS/NN/Source/ConvolutionFunctions/arm_depthwise_conv_3x3_s8.c **** 
 131:../src/tensorflow_lite/third_party/cmsis/CMSIS/NN/Source/ConvolutionFunctions/arm_depthwise_conv_3x3_s8.c ****                     out_buff0 += ((int8_t)in_val + input_offset) * (int8_t)ker_val;
 132:../src/tensorflow_lite/third_party/cmsis/CMSIS/NN/Source/ConvolutionFunctions/arm_depthwise_conv_3x3_s8.c ****                     out_buff1 += ((int8_t)(in_val >> 8) + input_offset) * (int8_t)(ker_val >> 8);
 133:../src/tensorflow_lite/third_party/cmsis/CMSIS/NN/Source/ConvolutionFunctions/arm_depthwise_conv_3x3_s8.c ****                     out_buff2 += ((int8_t)(in_val >> 16) + input_offset) * (int8_t)(ker_val >> 16);
 134:../src/tensorflow_lite/third_party/cmsis/CMSIS/NN/Source/ConvolutionFunctions/arm_depthwise_conv_3x3_s8.c ****                     out_buff3 += ((int8_t)(in_val >> 24) + input_offset) * (int8_t)(ker_val >> 24);
 135:../src/tensorflow_lite/third_party/cmsis/CMSIS/NN/Source/ConvolutionFunctions/arm_depthwise_conv_3x3_s8.c **** 
 136:../src/tensorflow_lite/third_party/cmsis/CMSIS/NN/Source/ConvolutionFunctions/arm_depthwise_conv_3x3_s8.c ****                     if ((input_x - in_w) >= 3)
 137:../src/tensorflow_lite/third_party/cmsis/CMSIS/NN/Source/ConvolutionFunctions/arm_depthwise_conv_3x3_s8.c ****                     {
 138:../src/tensorflow_lite/third_party/cmsis/CMSIS/NN/Source/ConvolutionFunctions/arm_depthwise_conv_3x3_s8.c ****                         in_val = arm_nn_read_q7x4(input_ptr + (input_ch << 1));
 229              		.loc 1 138 0
 230 01d0 0040A0E3 		mov	r4, #0
 231 01d4 04118DE5 		str	r1, [sp, #260]
 232 01d8 0311A0E1 		lsl	r1, r3, #2
 233 01dc 24118DE5 		str	r1, [sp, #292]
 234 01e0 A8309DE5 		ldr	r3, [sp, #168]
 235 01e4 38119DE5 		ldr	r1, [sp, #312]
 236 01e8 54B18DE5 		str	fp, [sp, #340]
 237 01ec 0E3043E0 		sub	r3, r3, lr
 238 01f0 7C408DE5 		str	r4, [sp, #124]
 239 01f4 F4308DE5 		str	r3, [sp, #244]
 240 01f8 003047E0 		sub	r3, r7, r0
 241 01fc D0308DE5 		str	r3, [sp, #208]
 242 0200 003087E0 		add	r3, r7, r0
 243 0204 01108CE0 		add	r1, ip, r1
 244 0208 D4308DE5 		str	r3, [sp, #212]
 245 020c 003085E0 		add	r3, r5, r0
 246 0210 34118DE5 		str	r1, [sp, #308]
 247 0214 CC308DE5 		str	r3, [sp, #204]
 248 0218 0E1046E0 		sub	r1, r6, lr
 249 021c 003042E0 		sub	r3, r2, r0
 250 0220 EC108DE5 		str	r1, [sp, #236]
 251 0224 D8308DE5 		str	r3, [sp, #216]
 252 0228 0E1086E0 		add	r1, r6, lr
 253 022c 03304BE2 		sub	r3, fp, #3
 254 0230 0AB0A0E1 		mov	fp, r10
 255              	.LVL32:
 256 0234 F0108DE5 		str	r1, [sp, #240]
 257 0238 0E1088E0 		add	r1, r8, lr
 258 023c E8108DE5 		str	r1, [sp, #232]
 259 0240 40418DE5 		str	r4, [sp, #320]
 260 0244 20318DE5 		str	r3, [sp, #288]
 261              	.LVL33:
 262              	.L38:
 263              	.LBE61:
 264              	.LBE60:
 265              	.LBE59:
 266              	.LBE58:
  97:../src/tensorflow_lite/third_party/cmsis/CMSIS/NN/Source/ConvolutionFunctions/arm_depthwise_conv_3x3_s8.c ****         {
 267              		.loc 1 97 0
 268 0248 30319DE5 		ldr	r3, [sp, #304]
 269 024c 000053E3 		cmp	r3, #0
 270 0250 34319DD5 		ldrle	r3, [sp, #308]
 271 0254 0030A0C3 		movgt	r3, #0
 272 0258 38219DD5 		ldrle	r2, [sp, #312]
 273 025c 023043D0 		suble	r3, r3, r2
 274 0260 5C308DE5 		str	r3, [sp, #92]
 275              	.LVL34:
 276 0264 B0309DE5 		ldr	r3, [sp, #176]
 277              	.LVL35:
 278 0268 000053E3 		cmp	r3, #0
 279 026c 4D0200DA 		ble	.L5
 280 0270 5C209DE5 		ldr	r2, [sp, #92]
 281 0274 14C09DE5 		ldr	ip, [sp, #20]
 282 0278 30019DE5 		ldr	r0, [sp, #304]
 283 027c 34119DE5 		ldr	r1, [sp, #308]
 284 0280 2CE19DE5 		ldr	lr, [sp, #300]
 285 0284 023080E0 		add	r3, r0, r2
 286 0288 920C00E0 		mul	r0, r2, ip
 287 028c 030051E3 		cmp	r1, #3
 288 0290 54A19DE5 		ldr	r10, [sp, #340]
 289 0294 0310A0A3 		movge	r1, #3
 290 0298 08108DE5 		str	r1, [sp, #8]
 291 029c 74008DE5 		str	r0, [sp, #116]
 292 02a0 0200A0E1 		mov	r0, r2
 293 02a4 022041E0 		sub	r2, r1, r2
 294 02a8 011041E2 		sub	r1, r1, #1
 295 02ac 001041E0 		sub	r1, r1, r0
 296 02b0 A0208DE5 		str	r2, [sp, #160]
 297 02b4 84108DE5 		str	r1, [sp, #132]
 298 02b8 102042E2 		sub	r2, r2, #16
 299 02bc 3C119DE5 		ldr	r1, [sp, #316]
 300 02c0 2222A0E1 		lsr	r2, r2, #4
 301 02c4 012082E2 		add	r2, r2, #1
 302 02c8 0E1081E0 		add	r1, r1, lr
 303 02cc 18E09DE5 		ldr	lr, [sp, #24]
 304 02d0 04108DE5 		str	r1, [sp, #4]
 305 02d4 44119DE5 		ldr	r1, [sp, #324]
 306 02d8 BC208DE5 		str	r2, [sp, #188]
 307 02dc 0222A0E1 		lsl	r2, r2, #4
 308 02e0 80108DE5 		str	r1, [sp, #128]
 309 02e4 0010A0E3 		mov	r1, #0
 310 02e8 90108DE5 		str	r1, [sp, #144]
 311 02ec 9E0201E0 		mul	r1, lr, r2
 312 02f0 A4208DE5 		str	r2, [sp, #164]
 313 02f4 9C108DE5 		str	r1, [sp, #156]
 314 02f8 0210A0E1 		mov	r1, r2
 315 02fc 002081E0 		add	r2, r1, r0
 316 0300 B8208DE5 		str	r2, [sp, #184]
 317 0304 9C0102E0 		mul	r2, ip, r1
 318 0308 98208DE5 		str	r2, [sp, #152]
 319 030c 50219DE5 		ldr	r2, [sp, #336]
 320 0310 9E2323E0 		mla	r3, lr, r3, r2
 321 0314 70308DE5 		str	r3, [sp, #112]
 322              	.LVL36:
 323              	.L37:
 324              	.LBB202:
 100:../src/tensorflow_lite/third_party/cmsis/CMSIS/NN/Source/ConvolutionFunctions/arm_depthwise_conv_3x3_s8.c **** 
 325              		.loc 1 100 0
 326 0318 80309DE5 		ldr	r3, [sp, #128]
 327 031c 000053E3 		cmp	r3, #0
 328 0320 04309DD5 		ldrle	r3, [sp, #4]
 329 0324 0030A0C3 		movgt	r3, #0
 330 0328 2C219DD5 		ldrle	r2, [sp, #300]
 331 032c 023043D0 		suble	r3, r3, r2
 332 0330 0C308DE5 		str	r3, [sp, #12]
 333              	.LVL37:
 102:../src/tensorflow_lite/third_party/cmsis/CMSIS/NN/Source/ConvolutionFunctions/arm_depthwise_conv_3x3_s8.c ****             {
 334              		.loc 1 102 0
 335 0334 20319DE5 		ldr	r3, [sp, #288]
 336 0338 000053E3 		cmp	r3, #0
 337 033c 970200DA 		ble	.L46
 338 0340 C8219DE5 		ldr	r2, [sp, #456]
 339 0344 1C319DE5 		ldr	r3, [sp, #284]
 340 0348 D0119DE5 		ldr	r1, [sp, #464]
 341 034c 1C2082E2 		add	r2, r2, #28
 342              	.LBB170:
 343              	.LBB85:
 344              	.LBB86:
 345              	.LBB87:
 346              	.LBB88:
 347              		.file 2 "C:/Renesas/e2studio_2021_01_workspace_RZA2M_ANPR/ANPR_RZA2M_EBK/src/tensorflow_lite/third
   1:C:/Renesas/e2studio_2021_01_workspace_RZA2M_ANPR/ANPR_RZA2M_EBK/src/tensorflow_lite/third_party/cmsis/CMSIS/NN/Include\arm_nnsupportfunctions.h **** /*
   2:C:/Renesas/e2studio_2021_01_workspace_RZA2M_ANPR/ANPR_RZA2M_EBK/src/tensorflow_lite/third_party/cmsis/CMSIS/NN/Include\arm_nnsupportfunctions.h ****  * Copyright (C) 2010-2021 Arm Limited or its affiliates. All rights reserved.
   3:C:/Renesas/e2studio_2021_01_workspace_RZA2M_ANPR/ANPR_RZA2M_EBK/src/tensorflow_lite/third_party/cmsis/CMSIS/NN/Include\arm_nnsupportfunctions.h ****  *
   4:C:/Renesas/e2studio_2021_01_workspace_RZA2M_ANPR/ANPR_RZA2M_EBK/src/tensorflow_lite/third_party/cmsis/CMSIS/NN/Include\arm_nnsupportfunctions.h ****  * SPDX-License-Identifier: Apache-2.0
   5:C:/Renesas/e2studio_2021_01_workspace_RZA2M_ANPR/ANPR_RZA2M_EBK/src/tensorflow_lite/third_party/cmsis/CMSIS/NN/Include\arm_nnsupportfunctions.h ****  *
   6:C:/Renesas/e2studio_2021_01_workspace_RZA2M_ANPR/ANPR_RZA2M_EBK/src/tensorflow_lite/third_party/cmsis/CMSIS/NN/Include\arm_nnsupportfunctions.h ****  * Licensed under the Apache License, Version 2.0 (the License); you may
   7:C:/Renesas/e2studio_2021_01_workspace_RZA2M_ANPR/ANPR_RZA2M_EBK/src/tensorflow_lite/third_party/cmsis/CMSIS/NN/Include\arm_nnsupportfunctions.h ****  * not use this file except in compliance with the License.
   8:C:/Renesas/e2studio_2021_01_workspace_RZA2M_ANPR/ANPR_RZA2M_EBK/src/tensorflow_lite/third_party/cmsis/CMSIS/NN/Include\arm_nnsupportfunctions.h ****  * You may obtain a copy of the License at
   9:C:/Renesas/e2studio_2021_01_workspace_RZA2M_ANPR/ANPR_RZA2M_EBK/src/tensorflow_lite/third_party/cmsis/CMSIS/NN/Include\arm_nnsupportfunctions.h ****  *
  10:C:/Renesas/e2studio_2021_01_workspace_RZA2M_ANPR/ANPR_RZA2M_EBK/src/tensorflow_lite/third_party/cmsis/CMSIS/NN/Include\arm_nnsupportfunctions.h ****  * www.apache.org/licenses/LICENSE-2.0
  11:C:/Renesas/e2studio_2021_01_workspace_RZA2M_ANPR/ANPR_RZA2M_EBK/src/tensorflow_lite/third_party/cmsis/CMSIS/NN/Include\arm_nnsupportfunctions.h ****  *
  12:C:/Renesas/e2studio_2021_01_workspace_RZA2M_ANPR/ANPR_RZA2M_EBK/src/tensorflow_lite/third_party/cmsis/CMSIS/NN/Include\arm_nnsupportfunctions.h ****  * Unless required by applicable law or agreed to in writing, software
  13:C:/Renesas/e2studio_2021_01_workspace_RZA2M_ANPR/ANPR_RZA2M_EBK/src/tensorflow_lite/third_party/cmsis/CMSIS/NN/Include\arm_nnsupportfunctions.h ****  * distributed under the License is distributed on an AS IS BASIS, WITHOUT
  14:C:/Renesas/e2studio_2021_01_workspace_RZA2M_ANPR/ANPR_RZA2M_EBK/src/tensorflow_lite/third_party/cmsis/CMSIS/NN/Include\arm_nnsupportfunctions.h ****  * WARRANTIES OR CONDITIONS OF ANY KIND, either express or implied.
  15:C:/Renesas/e2studio_2021_01_workspace_RZA2M_ANPR/ANPR_RZA2M_EBK/src/tensorflow_lite/third_party/cmsis/CMSIS/NN/Include\arm_nnsupportfunctions.h ****  * See the License for the specific language governing permissions and
  16:C:/Renesas/e2studio_2021_01_workspace_RZA2M_ANPR/ANPR_RZA2M_EBK/src/tensorflow_lite/third_party/cmsis/CMSIS/NN/Include\arm_nnsupportfunctions.h ****  * limitations under the License.
  17:C:/Renesas/e2studio_2021_01_workspace_RZA2M_ANPR/ANPR_RZA2M_EBK/src/tensorflow_lite/third_party/cmsis/CMSIS/NN/Include\arm_nnsupportfunctions.h ****  */
  18:C:/Renesas/e2studio_2021_01_workspace_RZA2M_ANPR/ANPR_RZA2M_EBK/src/tensorflow_lite/third_party/cmsis/CMSIS/NN/Include\arm_nnsupportfunctions.h **** 
  19:C:/Renesas/e2studio_2021_01_workspace_RZA2M_ANPR/ANPR_RZA2M_EBK/src/tensorflow_lite/third_party/cmsis/CMSIS/NN/Include\arm_nnsupportfunctions.h **** /* ----------------------------------------------------------------------
  20:C:/Renesas/e2studio_2021_01_workspace_RZA2M_ANPR/ANPR_RZA2M_EBK/src/tensorflow_lite/third_party/cmsis/CMSIS/NN/Include\arm_nnsupportfunctions.h ****  * Project:      CMSIS NN Library
  21:C:/Renesas/e2studio_2021_01_workspace_RZA2M_ANPR/ANPR_RZA2M_EBK/src/tensorflow_lite/third_party/cmsis/CMSIS/NN/Include\arm_nnsupportfunctions.h ****  * Title:        arm_nnsupportfunctions.h
  22:C:/Renesas/e2studio_2021_01_workspace_RZA2M_ANPR/ANPR_RZA2M_EBK/src/tensorflow_lite/third_party/cmsis/CMSIS/NN/Include\arm_nnsupportfunctions.h ****  * Description:  Public header file of support functions for CMSIS NN Library
  23:C:/Renesas/e2studio_2021_01_workspace_RZA2M_ANPR/ANPR_RZA2M_EBK/src/tensorflow_lite/third_party/cmsis/CMSIS/NN/Include\arm_nnsupportfunctions.h ****  *
  24:C:/Renesas/e2studio_2021_01_workspace_RZA2M_ANPR/ANPR_RZA2M_EBK/src/tensorflow_lite/third_party/cmsis/CMSIS/NN/Include\arm_nnsupportfunctions.h ****  * $Date:        15. April 2021
  25:C:/Renesas/e2studio_2021_01_workspace_RZA2M_ANPR/ANPR_RZA2M_EBK/src/tensorflow_lite/third_party/cmsis/CMSIS/NN/Include\arm_nnsupportfunctions.h ****  * $Revision:    V.5.5.0
  26:C:/Renesas/e2studio_2021_01_workspace_RZA2M_ANPR/ANPR_RZA2M_EBK/src/tensorflow_lite/third_party/cmsis/CMSIS/NN/Include\arm_nnsupportfunctions.h ****  *
  27:C:/Renesas/e2studio_2021_01_workspace_RZA2M_ANPR/ANPR_RZA2M_EBK/src/tensorflow_lite/third_party/cmsis/CMSIS/NN/Include\arm_nnsupportfunctions.h ****  * Target Processor:  Cortex-M CPUs
  28:C:/Renesas/e2studio_2021_01_workspace_RZA2M_ANPR/ANPR_RZA2M_EBK/src/tensorflow_lite/third_party/cmsis/CMSIS/NN/Include\arm_nnsupportfunctions.h ****  * -------------------------------------------------------------------- */
  29:C:/Renesas/e2studio_2021_01_workspace_RZA2M_ANPR/ANPR_RZA2M_EBK/src/tensorflow_lite/third_party/cmsis/CMSIS/NN/Include\arm_nnsupportfunctions.h **** 
  30:C:/Renesas/e2studio_2021_01_workspace_RZA2M_ANPR/ANPR_RZA2M_EBK/src/tensorflow_lite/third_party/cmsis/CMSIS/NN/Include\arm_nnsupportfunctions.h **** #ifndef _ARM_NNSUPPORTFUNCTIONS_H_
  31:C:/Renesas/e2studio_2021_01_workspace_RZA2M_ANPR/ANPR_RZA2M_EBK/src/tensorflow_lite/third_party/cmsis/CMSIS/NN/Include\arm_nnsupportfunctions.h **** #define _ARM_NNSUPPORTFUNCTIONS_H_
  32:C:/Renesas/e2studio_2021_01_workspace_RZA2M_ANPR/ANPR_RZA2M_EBK/src/tensorflow_lite/third_party/cmsis/CMSIS/NN/Include\arm_nnsupportfunctions.h **** 
  33:C:/Renesas/e2studio_2021_01_workspace_RZA2M_ANPR/ANPR_RZA2M_EBK/src/tensorflow_lite/third_party/cmsis/CMSIS/NN/Include\arm_nnsupportfunctions.h **** #include "arm_common_tables.h"
  34:C:/Renesas/e2studio_2021_01_workspace_RZA2M_ANPR/ANPR_RZA2M_EBK/src/tensorflow_lite/third_party/cmsis/CMSIS/NN/Include\arm_nnsupportfunctions.h **** #include "arm_math_types.h"
  35:C:/Renesas/e2studio_2021_01_workspace_RZA2M_ANPR/ANPR_RZA2M_EBK/src/tensorflow_lite/third_party/cmsis/CMSIS/NN/Include\arm_nnsupportfunctions.h **** 
  36:C:/Renesas/e2studio_2021_01_workspace_RZA2M_ANPR/ANPR_RZA2M_EBK/src/tensorflow_lite/third_party/cmsis/CMSIS/NN/Include\arm_nnsupportfunctions.h **** #ifdef __cplusplus
  37:C:/Renesas/e2studio_2021_01_workspace_RZA2M_ANPR/ANPR_RZA2M_EBK/src/tensorflow_lite/third_party/cmsis/CMSIS/NN/Include\arm_nnsupportfunctions.h **** extern "C" {
  38:C:/Renesas/e2studio_2021_01_workspace_RZA2M_ANPR/ANPR_RZA2M_EBK/src/tensorflow_lite/third_party/cmsis/CMSIS/NN/Include\arm_nnsupportfunctions.h **** #endif
  39:C:/Renesas/e2studio_2021_01_workspace_RZA2M_ANPR/ANPR_RZA2M_EBK/src/tensorflow_lite/third_party/cmsis/CMSIS/NN/Include\arm_nnsupportfunctions.h **** 
  40:C:/Renesas/e2studio_2021_01_workspace_RZA2M_ANPR/ANPR_RZA2M_EBK/src/tensorflow_lite/third_party/cmsis/CMSIS/NN/Include\arm_nnsupportfunctions.h **** #define LEFT_SHIFT(_shift) (_shift > 0 ? _shift : 0)
  41:C:/Renesas/e2studio_2021_01_workspace_RZA2M_ANPR/ANPR_RZA2M_EBK/src/tensorflow_lite/third_party/cmsis/CMSIS/NN/Include\arm_nnsupportfunctions.h **** #define RIGHT_SHIFT(_shift) (_shift > 0 ? 0 : -_shift)
  42:C:/Renesas/e2studio_2021_01_workspace_RZA2M_ANPR/ANPR_RZA2M_EBK/src/tensorflow_lite/third_party/cmsis/CMSIS/NN/Include\arm_nnsupportfunctions.h **** #define MASK_IF_ZERO(x) (x) == 0 ? ~0 : 0
  43:C:/Renesas/e2studio_2021_01_workspace_RZA2M_ANPR/ANPR_RZA2M_EBK/src/tensorflow_lite/third_party/cmsis/CMSIS/NN/Include\arm_nnsupportfunctions.h **** #define MASK_IF_NON_ZERO(x) (x) != 0 ? ~0 : 0
  44:C:/Renesas/e2studio_2021_01_workspace_RZA2M_ANPR/ANPR_RZA2M_EBK/src/tensorflow_lite/third_party/cmsis/CMSIS/NN/Include\arm_nnsupportfunctions.h **** #define SELECT_USING_MASK(mask, a, b) ((mask) & (a)) ^ (~(mask) & (b))
  45:C:/Renesas/e2studio_2021_01_workspace_RZA2M_ANPR/ANPR_RZA2M_EBK/src/tensorflow_lite/third_party/cmsis/CMSIS/NN/Include\arm_nnsupportfunctions.h **** 
  46:C:/Renesas/e2studio_2021_01_workspace_RZA2M_ANPR/ANPR_RZA2M_EBK/src/tensorflow_lite/third_party/cmsis/CMSIS/NN/Include\arm_nnsupportfunctions.h **** #define MAX(A, B) ((A) > (B) ? (A) : (B))
  47:C:/Renesas/e2studio_2021_01_workspace_RZA2M_ANPR/ANPR_RZA2M_EBK/src/tensorflow_lite/third_party/cmsis/CMSIS/NN/Include\arm_nnsupportfunctions.h **** #define MIN(A, B) ((A) < (B) ? (A) : (B))
  48:C:/Renesas/e2studio_2021_01_workspace_RZA2M_ANPR/ANPR_RZA2M_EBK/src/tensorflow_lite/third_party/cmsis/CMSIS/NN/Include\arm_nnsupportfunctions.h **** #define CLAMP(x, h, l) MAX(MIN((x), (h)), (l))
  49:C:/Renesas/e2studio_2021_01_workspace_RZA2M_ANPR/ANPR_RZA2M_EBK/src/tensorflow_lite/third_party/cmsis/CMSIS/NN/Include\arm_nnsupportfunctions.h **** 
  50:C:/Renesas/e2studio_2021_01_workspace_RZA2M_ANPR/ANPR_RZA2M_EBK/src/tensorflow_lite/third_party/cmsis/CMSIS/NN/Include\arm_nnsupportfunctions.h **** /**
  51:C:/Renesas/e2studio_2021_01_workspace_RZA2M_ANPR/ANPR_RZA2M_EBK/src/tensorflow_lite/third_party/cmsis/CMSIS/NN/Include\arm_nnsupportfunctions.h ****  * @brief Union for SIMD access of q31/q15/q7 types
  52:C:/Renesas/e2studio_2021_01_workspace_RZA2M_ANPR/ANPR_RZA2M_EBK/src/tensorflow_lite/third_party/cmsis/CMSIS/NN/Include\arm_nnsupportfunctions.h ****  */
  53:C:/Renesas/e2studio_2021_01_workspace_RZA2M_ANPR/ANPR_RZA2M_EBK/src/tensorflow_lite/third_party/cmsis/CMSIS/NN/Include\arm_nnsupportfunctions.h **** union arm_nnword
  54:C:/Renesas/e2studio_2021_01_workspace_RZA2M_ANPR/ANPR_RZA2M_EBK/src/tensorflow_lite/third_party/cmsis/CMSIS/NN/Include\arm_nnsupportfunctions.h **** {
  55:C:/Renesas/e2studio_2021_01_workspace_RZA2M_ANPR/ANPR_RZA2M_EBK/src/tensorflow_lite/third_party/cmsis/CMSIS/NN/Include\arm_nnsupportfunctions.h ****     q31_t word;
  56:C:/Renesas/e2studio_2021_01_workspace_RZA2M_ANPR/ANPR_RZA2M_EBK/src/tensorflow_lite/third_party/cmsis/CMSIS/NN/Include\arm_nnsupportfunctions.h ****     /**< q31 type */
  57:C:/Renesas/e2studio_2021_01_workspace_RZA2M_ANPR/ANPR_RZA2M_EBK/src/tensorflow_lite/third_party/cmsis/CMSIS/NN/Include\arm_nnsupportfunctions.h ****     q15_t half_words[2];
  58:C:/Renesas/e2studio_2021_01_workspace_RZA2M_ANPR/ANPR_RZA2M_EBK/src/tensorflow_lite/third_party/cmsis/CMSIS/NN/Include\arm_nnsupportfunctions.h ****     /**< q15 type */
  59:C:/Renesas/e2studio_2021_01_workspace_RZA2M_ANPR/ANPR_RZA2M_EBK/src/tensorflow_lite/third_party/cmsis/CMSIS/NN/Include\arm_nnsupportfunctions.h ****     q7_t bytes[4];
  60:C:/Renesas/e2studio_2021_01_workspace_RZA2M_ANPR/ANPR_RZA2M_EBK/src/tensorflow_lite/third_party/cmsis/CMSIS/NN/Include\arm_nnsupportfunctions.h ****     /**< q7 type */
  61:C:/Renesas/e2studio_2021_01_workspace_RZA2M_ANPR/ANPR_RZA2M_EBK/src/tensorflow_lite/third_party/cmsis/CMSIS/NN/Include\arm_nnsupportfunctions.h **** };
  62:C:/Renesas/e2studio_2021_01_workspace_RZA2M_ANPR/ANPR_RZA2M_EBK/src/tensorflow_lite/third_party/cmsis/CMSIS/NN/Include\arm_nnsupportfunctions.h **** 
  63:C:/Renesas/e2studio_2021_01_workspace_RZA2M_ANPR/ANPR_RZA2M_EBK/src/tensorflow_lite/third_party/cmsis/CMSIS/NN/Include\arm_nnsupportfunctions.h **** /**
  64:C:/Renesas/e2studio_2021_01_workspace_RZA2M_ANPR/ANPR_RZA2M_EBK/src/tensorflow_lite/third_party/cmsis/CMSIS/NN/Include\arm_nnsupportfunctions.h ****  * @brief Union for data type long long
  65:C:/Renesas/e2studio_2021_01_workspace_RZA2M_ANPR/ANPR_RZA2M_EBK/src/tensorflow_lite/third_party/cmsis/CMSIS/NN/Include\arm_nnsupportfunctions.h ****  */
  66:C:/Renesas/e2studio_2021_01_workspace_RZA2M_ANPR/ANPR_RZA2M_EBK/src/tensorflow_lite/third_party/cmsis/CMSIS/NN/Include\arm_nnsupportfunctions.h **** struct arm_nn_double
  67:C:/Renesas/e2studio_2021_01_workspace_RZA2M_ANPR/ANPR_RZA2M_EBK/src/tensorflow_lite/third_party/cmsis/CMSIS/NN/Include\arm_nnsupportfunctions.h **** {
  68:C:/Renesas/e2studio_2021_01_workspace_RZA2M_ANPR/ANPR_RZA2M_EBK/src/tensorflow_lite/third_party/cmsis/CMSIS/NN/Include\arm_nnsupportfunctions.h ****     uint32_t low;
  69:C:/Renesas/e2studio_2021_01_workspace_RZA2M_ANPR/ANPR_RZA2M_EBK/src/tensorflow_lite/third_party/cmsis/CMSIS/NN/Include\arm_nnsupportfunctions.h ****     int32_t high;
  70:C:/Renesas/e2studio_2021_01_workspace_RZA2M_ANPR/ANPR_RZA2M_EBK/src/tensorflow_lite/third_party/cmsis/CMSIS/NN/Include\arm_nnsupportfunctions.h **** };
  71:C:/Renesas/e2studio_2021_01_workspace_RZA2M_ANPR/ANPR_RZA2M_EBK/src/tensorflow_lite/third_party/cmsis/CMSIS/NN/Include\arm_nnsupportfunctions.h **** 
  72:C:/Renesas/e2studio_2021_01_workspace_RZA2M_ANPR/ANPR_RZA2M_EBK/src/tensorflow_lite/third_party/cmsis/CMSIS/NN/Include\arm_nnsupportfunctions.h **** union arm_nn_long_long
  73:C:/Renesas/e2studio_2021_01_workspace_RZA2M_ANPR/ANPR_RZA2M_EBK/src/tensorflow_lite/third_party/cmsis/CMSIS/NN/Include\arm_nnsupportfunctions.h **** {
  74:C:/Renesas/e2studio_2021_01_workspace_RZA2M_ANPR/ANPR_RZA2M_EBK/src/tensorflow_lite/third_party/cmsis/CMSIS/NN/Include\arm_nnsupportfunctions.h ****     int64_t long_long;
  75:C:/Renesas/e2studio_2021_01_workspace_RZA2M_ANPR/ANPR_RZA2M_EBK/src/tensorflow_lite/third_party/cmsis/CMSIS/NN/Include\arm_nnsupportfunctions.h ****     struct arm_nn_double word;
  76:C:/Renesas/e2studio_2021_01_workspace_RZA2M_ANPR/ANPR_RZA2M_EBK/src/tensorflow_lite/third_party/cmsis/CMSIS/NN/Include\arm_nnsupportfunctions.h **** };
  77:C:/Renesas/e2studio_2021_01_workspace_RZA2M_ANPR/ANPR_RZA2M_EBK/src/tensorflow_lite/third_party/cmsis/CMSIS/NN/Include\arm_nnsupportfunctions.h **** 
  78:C:/Renesas/e2studio_2021_01_workspace_RZA2M_ANPR/ANPR_RZA2M_EBK/src/tensorflow_lite/third_party/cmsis/CMSIS/NN/Include\arm_nnsupportfunctions.h **** /**
  79:C:/Renesas/e2studio_2021_01_workspace_RZA2M_ANPR/ANPR_RZA2M_EBK/src/tensorflow_lite/third_party/cmsis/CMSIS/NN/Include\arm_nnsupportfunctions.h ****  * @defgroup nndata_convert Neural Network Data Conversion Functions
  80:C:/Renesas/e2studio_2021_01_workspace_RZA2M_ANPR/ANPR_RZA2M_EBK/src/tensorflow_lite/third_party/cmsis/CMSIS/NN/Include\arm_nnsupportfunctions.h ****  *
  81:C:/Renesas/e2studio_2021_01_workspace_RZA2M_ANPR/ANPR_RZA2M_EBK/src/tensorflow_lite/third_party/cmsis/CMSIS/NN/Include\arm_nnsupportfunctions.h ****  * Perform data type conversion in-between neural network operations
  82:C:/Renesas/e2studio_2021_01_workspace_RZA2M_ANPR/ANPR_RZA2M_EBK/src/tensorflow_lite/third_party/cmsis/CMSIS/NN/Include\arm_nnsupportfunctions.h ****  *
  83:C:/Renesas/e2studio_2021_01_workspace_RZA2M_ANPR/ANPR_RZA2M_EBK/src/tensorflow_lite/third_party/cmsis/CMSIS/NN/Include\arm_nnsupportfunctions.h ****  */
  84:C:/Renesas/e2studio_2021_01_workspace_RZA2M_ANPR/ANPR_RZA2M_EBK/src/tensorflow_lite/third_party/cmsis/CMSIS/NN/Include\arm_nnsupportfunctions.h **** 
  85:C:/Renesas/e2studio_2021_01_workspace_RZA2M_ANPR/ANPR_RZA2M_EBK/src/tensorflow_lite/third_party/cmsis/CMSIS/NN/Include\arm_nnsupportfunctions.h **** /**
  86:C:/Renesas/e2studio_2021_01_workspace_RZA2M_ANPR/ANPR_RZA2M_EBK/src/tensorflow_lite/third_party/cmsis/CMSIS/NN/Include\arm_nnsupportfunctions.h ****  * @brief Converts the elements of the q7 vector to q15 vector without left-shift
  87:C:/Renesas/e2studio_2021_01_workspace_RZA2M_ANPR/ANPR_RZA2M_EBK/src/tensorflow_lite/third_party/cmsis/CMSIS/NN/Include\arm_nnsupportfunctions.h ****  * @param[in]       *pSrc points to the q7 input vector
  88:C:/Renesas/e2studio_2021_01_workspace_RZA2M_ANPR/ANPR_RZA2M_EBK/src/tensorflow_lite/third_party/cmsis/CMSIS/NN/Include\arm_nnsupportfunctions.h ****  * @param[out]      *pDst points to the q15 output vector
  89:C:/Renesas/e2studio_2021_01_workspace_RZA2M_ANPR/ANPR_RZA2M_EBK/src/tensorflow_lite/third_party/cmsis/CMSIS/NN/Include\arm_nnsupportfunctions.h ****  * @param[in]       blockSize length of the input vector
  90:C:/Renesas/e2studio_2021_01_workspace_RZA2M_ANPR/ANPR_RZA2M_EBK/src/tensorflow_lite/third_party/cmsis/CMSIS/NN/Include\arm_nnsupportfunctions.h ****  *
  91:C:/Renesas/e2studio_2021_01_workspace_RZA2M_ANPR/ANPR_RZA2M_EBK/src/tensorflow_lite/third_party/cmsis/CMSIS/NN/Include\arm_nnsupportfunctions.h ****  */
  92:C:/Renesas/e2studio_2021_01_workspace_RZA2M_ANPR/ANPR_RZA2M_EBK/src/tensorflow_lite/third_party/cmsis/CMSIS/NN/Include\arm_nnsupportfunctions.h **** void arm_q7_to_q15_no_shift(const q7_t *pSrc, q15_t *pDst, uint32_t blockSize);
  93:C:/Renesas/e2studio_2021_01_workspace_RZA2M_ANPR/ANPR_RZA2M_EBK/src/tensorflow_lite/third_party/cmsis/CMSIS/NN/Include\arm_nnsupportfunctions.h **** 
  94:C:/Renesas/e2studio_2021_01_workspace_RZA2M_ANPR/ANPR_RZA2M_EBK/src/tensorflow_lite/third_party/cmsis/CMSIS/NN/Include\arm_nnsupportfunctions.h **** /**
  95:C:/Renesas/e2studio_2021_01_workspace_RZA2M_ANPR/ANPR_RZA2M_EBK/src/tensorflow_lite/third_party/cmsis/CMSIS/NN/Include\arm_nnsupportfunctions.h ****  * @brief Non-saturating addition of elements of a q7 vector
  96:C:/Renesas/e2studio_2021_01_workspace_RZA2M_ANPR/ANPR_RZA2M_EBK/src/tensorflow_lite/third_party/cmsis/CMSIS/NN/Include\arm_nnsupportfunctions.h ****  * @param[in]       *input Pointer to the q7 input vector
  97:C:/Renesas/e2studio_2021_01_workspace_RZA2M_ANPR/ANPR_RZA2M_EBK/src/tensorflow_lite/third_party/cmsis/CMSIS/NN/Include\arm_nnsupportfunctions.h ****  * @param[out]      *output Pointer to the q31 output variable.
  98:C:/Renesas/e2studio_2021_01_workspace_RZA2M_ANPR/ANPR_RZA2M_EBK/src/tensorflow_lite/third_party/cmsis/CMSIS/NN/Include\arm_nnsupportfunctions.h ****  * @param[in]       block_size length of the input vector
  99:C:/Renesas/e2studio_2021_01_workspace_RZA2M_ANPR/ANPR_RZA2M_EBK/src/tensorflow_lite/third_party/cmsis/CMSIS/NN/Include\arm_nnsupportfunctions.h ****  * \par Description:
 100:C:/Renesas/e2studio_2021_01_workspace_RZA2M_ANPR/ANPR_RZA2M_EBK/src/tensorflow_lite/third_party/cmsis/CMSIS/NN/Include\arm_nnsupportfunctions.h ****  *
 101:C:/Renesas/e2studio_2021_01_workspace_RZA2M_ANPR/ANPR_RZA2M_EBK/src/tensorflow_lite/third_party/cmsis/CMSIS/NN/Include\arm_nnsupportfunctions.h ****  * 2^24 samples can be added without saturating the result.
 102:C:/Renesas/e2studio_2021_01_workspace_RZA2M_ANPR/ANPR_RZA2M_EBK/src/tensorflow_lite/third_party/cmsis/CMSIS/NN/Include\arm_nnsupportfunctions.h ****  *
 103:C:/Renesas/e2studio_2021_01_workspace_RZA2M_ANPR/ANPR_RZA2M_EBK/src/tensorflow_lite/third_party/cmsis/CMSIS/NN/Include\arm_nnsupportfunctions.h ****  * The equation used for the conversion process is:
 104:C:/Renesas/e2studio_2021_01_workspace_RZA2M_ANPR/ANPR_RZA2M_EBK/src/tensorflow_lite/third_party/cmsis/CMSIS/NN/Include\arm_nnsupportfunctions.h ****  *
 105:C:/Renesas/e2studio_2021_01_workspace_RZA2M_ANPR/ANPR_RZA2M_EBK/src/tensorflow_lite/third_party/cmsis/CMSIS/NN/Include\arm_nnsupportfunctions.h ****  * <pre>
 106:C:/Renesas/e2studio_2021_01_workspace_RZA2M_ANPR/ANPR_RZA2M_EBK/src/tensorflow_lite/third_party/cmsis/CMSIS/NN/Include\arm_nnsupportfunctions.h ****  *  sum = input[0] + input[1] + .. + input[block_size -1]
 107:C:/Renesas/e2studio_2021_01_workspace_RZA2M_ANPR/ANPR_RZA2M_EBK/src/tensorflow_lite/third_party/cmsis/CMSIS/NN/Include\arm_nnsupportfunctions.h ****  * </pre>
 108:C:/Renesas/e2studio_2021_01_workspace_RZA2M_ANPR/ANPR_RZA2M_EBK/src/tensorflow_lite/third_party/cmsis/CMSIS/NN/Include\arm_nnsupportfunctions.h ****  *
 109:C:/Renesas/e2studio_2021_01_workspace_RZA2M_ANPR/ANPR_RZA2M_EBK/src/tensorflow_lite/third_party/cmsis/CMSIS/NN/Include\arm_nnsupportfunctions.h ****  * */
 110:C:/Renesas/e2studio_2021_01_workspace_RZA2M_ANPR/ANPR_RZA2M_EBK/src/tensorflow_lite/third_party/cmsis/CMSIS/NN/Include\arm_nnsupportfunctions.h **** void arm_nn_add_q7(const q7_t *input, q31_t *output, uint32_t block_size);
 111:C:/Renesas/e2studio_2021_01_workspace_RZA2M_ANPR/ANPR_RZA2M_EBK/src/tensorflow_lite/third_party/cmsis/CMSIS/NN/Include\arm_nnsupportfunctions.h **** 
 112:C:/Renesas/e2studio_2021_01_workspace_RZA2M_ANPR/ANPR_RZA2M_EBK/src/tensorflow_lite/third_party/cmsis/CMSIS/NN/Include\arm_nnsupportfunctions.h **** /**
 113:C:/Renesas/e2studio_2021_01_workspace_RZA2M_ANPR/ANPR_RZA2M_EBK/src/tensorflow_lite/third_party/cmsis/CMSIS/NN/Include\arm_nnsupportfunctions.h ****  * @brief  Converts the elements of the q7 vector to reordered q15 vector without left-shift
 114:C:/Renesas/e2studio_2021_01_workspace_RZA2M_ANPR/ANPR_RZA2M_EBK/src/tensorflow_lite/third_party/cmsis/CMSIS/NN/Include\arm_nnsupportfunctions.h ****  * @param[in]       *pSrc points to the q7 input vector
 115:C:/Renesas/e2studio_2021_01_workspace_RZA2M_ANPR/ANPR_RZA2M_EBK/src/tensorflow_lite/third_party/cmsis/CMSIS/NN/Include\arm_nnsupportfunctions.h ****  * @param[out]      *pDst points to the q15 output vector
 116:C:/Renesas/e2studio_2021_01_workspace_RZA2M_ANPR/ANPR_RZA2M_EBK/src/tensorflow_lite/third_party/cmsis/CMSIS/NN/Include\arm_nnsupportfunctions.h ****  * @param[in]       blockSize length of the input vector
 117:C:/Renesas/e2studio_2021_01_workspace_RZA2M_ANPR/ANPR_RZA2M_EBK/src/tensorflow_lite/third_party/cmsis/CMSIS/NN/Include\arm_nnsupportfunctions.h ****  * @return none.
 118:C:/Renesas/e2studio_2021_01_workspace_RZA2M_ANPR/ANPR_RZA2M_EBK/src/tensorflow_lite/third_party/cmsis/CMSIS/NN/Include\arm_nnsupportfunctions.h ****  *
 119:C:/Renesas/e2studio_2021_01_workspace_RZA2M_ANPR/ANPR_RZA2M_EBK/src/tensorflow_lite/third_party/cmsis/CMSIS/NN/Include\arm_nnsupportfunctions.h ****  */
 120:C:/Renesas/e2studio_2021_01_workspace_RZA2M_ANPR/ANPR_RZA2M_EBK/src/tensorflow_lite/third_party/cmsis/CMSIS/NN/Include\arm_nnsupportfunctions.h **** void arm_q7_to_q15_reordered_no_shift(const q7_t *pSrc, q15_t *pDst, uint32_t blockSize);
 121:C:/Renesas/e2studio_2021_01_workspace_RZA2M_ANPR/ANPR_RZA2M_EBK/src/tensorflow_lite/third_party/cmsis/CMSIS/NN/Include\arm_nnsupportfunctions.h **** 
 122:C:/Renesas/e2studio_2021_01_workspace_RZA2M_ANPR/ANPR_RZA2M_EBK/src/tensorflow_lite/third_party/cmsis/CMSIS/NN/Include\arm_nnsupportfunctions.h **** /**
 123:C:/Renesas/e2studio_2021_01_workspace_RZA2M_ANPR/ANPR_RZA2M_EBK/src/tensorflow_lite/third_party/cmsis/CMSIS/NN/Include\arm_nnsupportfunctions.h ****  * @brief Converts the elements from a q7 vector to a q15 vector with an added offset
 124:C:/Renesas/e2studio_2021_01_workspace_RZA2M_ANPR/ANPR_RZA2M_EBK/src/tensorflow_lite/third_party/cmsis/CMSIS/NN/Include\arm_nnsupportfunctions.h ****  * @param[in]    src        pointer to the q7 input vector
 125:C:/Renesas/e2studio_2021_01_workspace_RZA2M_ANPR/ANPR_RZA2M_EBK/src/tensorflow_lite/third_party/cmsis/CMSIS/NN/Include\arm_nnsupportfunctions.h ****  * @param[out]   dst        pointer to the q15 output vector
 126:C:/Renesas/e2studio_2021_01_workspace_RZA2M_ANPR/ANPR_RZA2M_EBK/src/tensorflow_lite/third_party/cmsis/CMSIS/NN/Include\arm_nnsupportfunctions.h ****  * @param[in]    block_size length of the input vector
 127:C:/Renesas/e2studio_2021_01_workspace_RZA2M_ANPR/ANPR_RZA2M_EBK/src/tensorflow_lite/third_party/cmsis/CMSIS/NN/Include\arm_nnsupportfunctions.h ****  * @param[in]    offset     q7 offset to be added to each input vector element.
 128:C:/Renesas/e2studio_2021_01_workspace_RZA2M_ANPR/ANPR_RZA2M_EBK/src/tensorflow_lite/third_party/cmsis/CMSIS/NN/Include\arm_nnsupportfunctions.h ****  *
 129:C:/Renesas/e2studio_2021_01_workspace_RZA2M_ANPR/ANPR_RZA2M_EBK/src/tensorflow_lite/third_party/cmsis/CMSIS/NN/Include\arm_nnsupportfunctions.h ****  * \par Description:
 130:C:/Renesas/e2studio_2021_01_workspace_RZA2M_ANPR/ANPR_RZA2M_EBK/src/tensorflow_lite/third_party/cmsis/CMSIS/NN/Include\arm_nnsupportfunctions.h ****  *
 131:C:/Renesas/e2studio_2021_01_workspace_RZA2M_ANPR/ANPR_RZA2M_EBK/src/tensorflow_lite/third_party/cmsis/CMSIS/NN/Include\arm_nnsupportfunctions.h ****  * The equation used for the conversion process is:
 132:C:/Renesas/e2studio_2021_01_workspace_RZA2M_ANPR/ANPR_RZA2M_EBK/src/tensorflow_lite/third_party/cmsis/CMSIS/NN/Include\arm_nnsupportfunctions.h ****  *
 133:C:/Renesas/e2studio_2021_01_workspace_RZA2M_ANPR/ANPR_RZA2M_EBK/src/tensorflow_lite/third_party/cmsis/CMSIS/NN/Include\arm_nnsupportfunctions.h ****  * <pre>
 134:C:/Renesas/e2studio_2021_01_workspace_RZA2M_ANPR/ANPR_RZA2M_EBK/src/tensorflow_lite/third_party/cmsis/CMSIS/NN/Include\arm_nnsupportfunctions.h ****  *  dst[n] = (q15_t) src[n] + offset;   0 <= n < block_size.
 135:C:/Renesas/e2studio_2021_01_workspace_RZA2M_ANPR/ANPR_RZA2M_EBK/src/tensorflow_lite/third_party/cmsis/CMSIS/NN/Include\arm_nnsupportfunctions.h ****  * </pre>
 136:C:/Renesas/e2studio_2021_01_workspace_RZA2M_ANPR/ANPR_RZA2M_EBK/src/tensorflow_lite/third_party/cmsis/CMSIS/NN/Include\arm_nnsupportfunctions.h ****  *
 137:C:/Renesas/e2studio_2021_01_workspace_RZA2M_ANPR/ANPR_RZA2M_EBK/src/tensorflow_lite/third_party/cmsis/CMSIS/NN/Include\arm_nnsupportfunctions.h ****  */
 138:C:/Renesas/e2studio_2021_01_workspace_RZA2M_ANPR/ANPR_RZA2M_EBK/src/tensorflow_lite/third_party/cmsis/CMSIS/NN/Include\arm_nnsupportfunctions.h **** void arm_q7_to_q15_with_offset(const q7_t *src, q15_t *dst, uint32_t block_size, q15_t offset);
 139:C:/Renesas/e2studio_2021_01_workspace_RZA2M_ANPR/ANPR_RZA2M_EBK/src/tensorflow_lite/third_party/cmsis/CMSIS/NN/Include\arm_nnsupportfunctions.h **** 
 140:C:/Renesas/e2studio_2021_01_workspace_RZA2M_ANPR/ANPR_RZA2M_EBK/src/tensorflow_lite/third_party/cmsis/CMSIS/NN/Include\arm_nnsupportfunctions.h **** /**
 141:C:/Renesas/e2studio_2021_01_workspace_RZA2M_ANPR/ANPR_RZA2M_EBK/src/tensorflow_lite/third_party/cmsis/CMSIS/NN/Include\arm_nnsupportfunctions.h ****  * @brief Converts the elements of the q7 vector to reordered q15 vector with an added offset
 142:C:/Renesas/e2studio_2021_01_workspace_RZA2M_ANPR/ANPR_RZA2M_EBK/src/tensorflow_lite/third_party/cmsis/CMSIS/NN/Include\arm_nnsupportfunctions.h ****  * @param[in]       src        pointer to the q7 input vector
 143:C:/Renesas/e2studio_2021_01_workspace_RZA2M_ANPR/ANPR_RZA2M_EBK/src/tensorflow_lite/third_party/cmsis/CMSIS/NN/Include\arm_nnsupportfunctions.h ****  * @param[out]      dst        pointer to the q15 output vector
 144:C:/Renesas/e2studio_2021_01_workspace_RZA2M_ANPR/ANPR_RZA2M_EBK/src/tensorflow_lite/third_party/cmsis/CMSIS/NN/Include\arm_nnsupportfunctions.h ****  * @param[in]       block_size length of the input vector
 145:C:/Renesas/e2studio_2021_01_workspace_RZA2M_ANPR/ANPR_RZA2M_EBK/src/tensorflow_lite/third_party/cmsis/CMSIS/NN/Include\arm_nnsupportfunctions.h ****  * @param[in]       offset     offset to be added to each input vector element.
 146:C:/Renesas/e2studio_2021_01_workspace_RZA2M_ANPR/ANPR_RZA2M_EBK/src/tensorflow_lite/third_party/cmsis/CMSIS/NN/Include\arm_nnsupportfunctions.h ****  * @return none.
 147:C:/Renesas/e2studio_2021_01_workspace_RZA2M_ANPR/ANPR_RZA2M_EBK/src/tensorflow_lite/third_party/cmsis/CMSIS/NN/Include\arm_nnsupportfunctions.h ****  *
 148:C:/Renesas/e2studio_2021_01_workspace_RZA2M_ANPR/ANPR_RZA2M_EBK/src/tensorflow_lite/third_party/cmsis/CMSIS/NN/Include\arm_nnsupportfunctions.h ****  * @details  This function does the q7 to q15 expansion with re-ordering of bytes. Re-ordering is a
 149:C:/Renesas/e2studio_2021_01_workspace_RZA2M_ANPR/ANPR_RZA2M_EBK/src/tensorflow_lite/third_party/cmsis/CMSIS/NN/Include\arm_nnsupportfunctions.h ****  *           the sign extension intrinsic(DSP extension). The tail (i.e., last (N % 4) elements) re
 150:C:/Renesas/e2studio_2021_01_workspace_RZA2M_ANPR/ANPR_RZA2M_EBK/src/tensorflow_lite/third_party/cmsis/CMSIS/NN/Include\arm_nnsupportfunctions.h ****  * original order.
 151:C:/Renesas/e2studio_2021_01_workspace_RZA2M_ANPR/ANPR_RZA2M_EBK/src/tensorflow_lite/third_party/cmsis/CMSIS/NN/Include\arm_nnsupportfunctions.h ****  *
 152:C:/Renesas/e2studio_2021_01_workspace_RZA2M_ANPR/ANPR_RZA2M_EBK/src/tensorflow_lite/third_party/cmsis/CMSIS/NN/Include\arm_nnsupportfunctions.h ****  */
 153:C:/Renesas/e2studio_2021_01_workspace_RZA2M_ANPR/ANPR_RZA2M_EBK/src/tensorflow_lite/third_party/cmsis/CMSIS/NN/Include\arm_nnsupportfunctions.h **** void arm_q7_to_q15_reordered_with_offset(const q7_t *src, q15_t *dst, uint32_t block_size, q15_t of
 154:C:/Renesas/e2studio_2021_01_workspace_RZA2M_ANPR/ANPR_RZA2M_EBK/src/tensorflow_lite/third_party/cmsis/CMSIS/NN/Include\arm_nnsupportfunctions.h **** 
 155:C:/Renesas/e2studio_2021_01_workspace_RZA2M_ANPR/ANPR_RZA2M_EBK/src/tensorflow_lite/third_party/cmsis/CMSIS/NN/Include\arm_nnsupportfunctions.h **** /**
 156:C:/Renesas/e2studio_2021_01_workspace_RZA2M_ANPR/ANPR_RZA2M_EBK/src/tensorflow_lite/third_party/cmsis/CMSIS/NN/Include\arm_nnsupportfunctions.h ****  * @brief Converts the elements from a q7 vector and accumulate to a q15 vector
 157:C:/Renesas/e2studio_2021_01_workspace_RZA2M_ANPR/ANPR_RZA2M_EBK/src/tensorflow_lite/third_party/cmsis/CMSIS/NN/Include\arm_nnsupportfunctions.h ****  * @param[in]    *src       points to the q7 input vector
 158:C:/Renesas/e2studio_2021_01_workspace_RZA2M_ANPR/ANPR_RZA2M_EBK/src/tensorflow_lite/third_party/cmsis/CMSIS/NN/Include\arm_nnsupportfunctions.h ****  * @param[out]   *dst       points to the q15 output vector
 159:C:/Renesas/e2studio_2021_01_workspace_RZA2M_ANPR/ANPR_RZA2M_EBK/src/tensorflow_lite/third_party/cmsis/CMSIS/NN/Include\arm_nnsupportfunctions.h ****  * @param[in]    block_size length of the input vector
 160:C:/Renesas/e2studio_2021_01_workspace_RZA2M_ANPR/ANPR_RZA2M_EBK/src/tensorflow_lite/third_party/cmsis/CMSIS/NN/Include\arm_nnsupportfunctions.h ****  *
 161:C:/Renesas/e2studio_2021_01_workspace_RZA2M_ANPR/ANPR_RZA2M_EBK/src/tensorflow_lite/third_party/cmsis/CMSIS/NN/Include\arm_nnsupportfunctions.h ****  * \par Description:
 162:C:/Renesas/e2studio_2021_01_workspace_RZA2M_ANPR/ANPR_RZA2M_EBK/src/tensorflow_lite/third_party/cmsis/CMSIS/NN/Include\arm_nnsupportfunctions.h ****  *
 163:C:/Renesas/e2studio_2021_01_workspace_RZA2M_ANPR/ANPR_RZA2M_EBK/src/tensorflow_lite/third_party/cmsis/CMSIS/NN/Include\arm_nnsupportfunctions.h ****  * The equation used for the conversion process is:
 164:C:/Renesas/e2studio_2021_01_workspace_RZA2M_ANPR/ANPR_RZA2M_EBK/src/tensorflow_lite/third_party/cmsis/CMSIS/NN/Include\arm_nnsupportfunctions.h ****  *
 165:C:/Renesas/e2studio_2021_01_workspace_RZA2M_ANPR/ANPR_RZA2M_EBK/src/tensorflow_lite/third_party/cmsis/CMSIS/NN/Include\arm_nnsupportfunctions.h ****  * <pre>
 166:C:/Renesas/e2studio_2021_01_workspace_RZA2M_ANPR/ANPR_RZA2M_EBK/src/tensorflow_lite/third_party/cmsis/CMSIS/NN/Include\arm_nnsupportfunctions.h ****  *  dst[n] += (q15_t) src[n] ;   0 <= n < block_size.
 167:C:/Renesas/e2studio_2021_01_workspace_RZA2M_ANPR/ANPR_RZA2M_EBK/src/tensorflow_lite/third_party/cmsis/CMSIS/NN/Include\arm_nnsupportfunctions.h ****  * </pre>
 168:C:/Renesas/e2studio_2021_01_workspace_RZA2M_ANPR/ANPR_RZA2M_EBK/src/tensorflow_lite/third_party/cmsis/CMSIS/NN/Include\arm_nnsupportfunctions.h ****  *
 169:C:/Renesas/e2studio_2021_01_workspace_RZA2M_ANPR/ANPR_RZA2M_EBK/src/tensorflow_lite/third_party/cmsis/CMSIS/NN/Include\arm_nnsupportfunctions.h ****  */
 170:C:/Renesas/e2studio_2021_01_workspace_RZA2M_ANPR/ANPR_RZA2M_EBK/src/tensorflow_lite/third_party/cmsis/CMSIS/NN/Include\arm_nnsupportfunctions.h **** void arm_nn_accumulate_q7_to_q15(q15_t *dst, const q7_t *src, uint32_t block_size);
 171:C:/Renesas/e2studio_2021_01_workspace_RZA2M_ANPR/ANPR_RZA2M_EBK/src/tensorflow_lite/third_party/cmsis/CMSIS/NN/Include\arm_nnsupportfunctions.h **** 
 172:C:/Renesas/e2studio_2021_01_workspace_RZA2M_ANPR/ANPR_RZA2M_EBK/src/tensorflow_lite/third_party/cmsis/CMSIS/NN/Include\arm_nnsupportfunctions.h **** /**
 173:C:/Renesas/e2studio_2021_01_workspace_RZA2M_ANPR/ANPR_RZA2M_EBK/src/tensorflow_lite/third_party/cmsis/CMSIS/NN/Include\arm_nnsupportfunctions.h ****  * @brief Depthwise conv on an im2col buffer where the input channel equals output channel.
 174:C:/Renesas/e2studio_2021_01_workspace_RZA2M_ANPR/ANPR_RZA2M_EBK/src/tensorflow_lite/third_party/cmsis/CMSIS/NN/Include\arm_nnsupportfunctions.h ****  * @param[in]    row     pointer to row
 175:C:/Renesas/e2studio_2021_01_workspace_RZA2M_ANPR/ANPR_RZA2M_EBK/src/tensorflow_lite/third_party/cmsis/CMSIS/NN/Include\arm_nnsupportfunctions.h ****  * @param[in]    col     pointer to im2col buffer, always consists of 2 columns.
 176:C:/Renesas/e2studio_2021_01_workspace_RZA2M_ANPR/ANPR_RZA2M_EBK/src/tensorflow_lite/third_party/cmsis/CMSIS/NN/Include\arm_nnsupportfunctions.h ****  * @param[in]    num_ch   number of channels
 177:C:/Renesas/e2studio_2021_01_workspace_RZA2M_ANPR/ANPR_RZA2M_EBK/src/tensorflow_lite/third_party/cmsis/CMSIS/NN/Include\arm_nnsupportfunctions.h ****  * @param[in]    out_shift  pointer to per output channel requantization shift parameter.
 178:C:/Renesas/e2studio_2021_01_workspace_RZA2M_ANPR/ANPR_RZA2M_EBK/src/tensorflow_lite/third_party/cmsis/CMSIS/NN/Include\arm_nnsupportfunctions.h ****  * @param[in]    out_mult   pointer to per output channel requantization multiplier parameter.
 179:C:/Renesas/e2studio_2021_01_workspace_RZA2M_ANPR/ANPR_RZA2M_EBK/src/tensorflow_lite/third_party/cmsis/CMSIS/NN/Include\arm_nnsupportfunctions.h ****  * @param[in]    out_offset      output tensor offset.
 180:C:/Renesas/e2studio_2021_01_workspace_RZA2M_ANPR/ANPR_RZA2M_EBK/src/tensorflow_lite/third_party/cmsis/CMSIS/NN/Include\arm_nnsupportfunctions.h ****  * @param[in]    activation_min   minimum value to clamp the output to. Range : int8
 181:C:/Renesas/e2studio_2021_01_workspace_RZA2M_ANPR/ANPR_RZA2M_EBK/src/tensorflow_lite/third_party/cmsis/CMSIS/NN/Include\arm_nnsupportfunctions.h ****  * @param[in]    activation_max   maximum value to clamp the output to. Range : int8
 182:C:/Renesas/e2studio_2021_01_workspace_RZA2M_ANPR/ANPR_RZA2M_EBK/src/tensorflow_lite/third_party/cmsis/CMSIS/NN/Include\arm_nnsupportfunctions.h ****  * @param[in]    kernel_size   number of elements in one column.
 183:C:/Renesas/e2studio_2021_01_workspace_RZA2M_ANPR/ANPR_RZA2M_EBK/src/tensorflow_lite/third_party/cmsis/CMSIS/NN/Include\arm_nnsupportfunctions.h ****  * @param[in]    output_bias per output channel bias. Range : int32
 184:C:/Renesas/e2studio_2021_01_workspace_RZA2M_ANPR/ANPR_RZA2M_EBK/src/tensorflow_lite/third_party/cmsis/CMSIS/NN/Include\arm_nnsupportfunctions.h ****  * @param[out]   out         pointer to output
 185:C:/Renesas/e2studio_2021_01_workspace_RZA2M_ANPR/ANPR_RZA2M_EBK/src/tensorflow_lite/third_party/cmsis/CMSIS/NN/Include\arm_nnsupportfunctions.h ****  * @return     The function returns one of the two
 186:C:/Renesas/e2studio_2021_01_workspace_RZA2M_ANPR/ANPR_RZA2M_EBK/src/tensorflow_lite/third_party/cmsis/CMSIS/NN/Include\arm_nnsupportfunctions.h ****  *              1. The incremented output pointer for a successful operation or
 187:C:/Renesas/e2studio_2021_01_workspace_RZA2M_ANPR/ANPR_RZA2M_EBK/src/tensorflow_lite/third_party/cmsis/CMSIS/NN/Include\arm_nnsupportfunctions.h ****  *              2. NULL if implementation is not available.
 188:C:/Renesas/e2studio_2021_01_workspace_RZA2M_ANPR/ANPR_RZA2M_EBK/src/tensorflow_lite/third_party/cmsis/CMSIS/NN/Include\arm_nnsupportfunctions.h ****  *
 189:C:/Renesas/e2studio_2021_01_workspace_RZA2M_ANPR/ANPR_RZA2M_EBK/src/tensorflow_lite/third_party/cmsis/CMSIS/NN/Include\arm_nnsupportfunctions.h ****  * @details     Supported framework: TensorFlow Lite micro.
 190:C:/Renesas/e2studio_2021_01_workspace_RZA2M_ANPR/ANPR_RZA2M_EBK/src/tensorflow_lite/third_party/cmsis/CMSIS/NN/Include\arm_nnsupportfunctions.h ****  */
 191:C:/Renesas/e2studio_2021_01_workspace_RZA2M_ANPR/ANPR_RZA2M_EBK/src/tensorflow_lite/third_party/cmsis/CMSIS/NN/Include\arm_nnsupportfunctions.h **** q7_t *arm_nn_depthwise_conv_s8_core(const q7_t *row,
 192:C:/Renesas/e2studio_2021_01_workspace_RZA2M_ANPR/ANPR_RZA2M_EBK/src/tensorflow_lite/third_party/cmsis/CMSIS/NN/Include\arm_nnsupportfunctions.h ****                                     const q15_t *col,
 193:C:/Renesas/e2studio_2021_01_workspace_RZA2M_ANPR/ANPR_RZA2M_EBK/src/tensorflow_lite/third_party/cmsis/CMSIS/NN/Include\arm_nnsupportfunctions.h ****                                     const uint16_t num_ch,
 194:C:/Renesas/e2studio_2021_01_workspace_RZA2M_ANPR/ANPR_RZA2M_EBK/src/tensorflow_lite/third_party/cmsis/CMSIS/NN/Include\arm_nnsupportfunctions.h ****                                     const int32_t *out_shift,
 195:C:/Renesas/e2studio_2021_01_workspace_RZA2M_ANPR/ANPR_RZA2M_EBK/src/tensorflow_lite/third_party/cmsis/CMSIS/NN/Include\arm_nnsupportfunctions.h ****                                     const int32_t *out_mult,
 196:C:/Renesas/e2studio_2021_01_workspace_RZA2M_ANPR/ANPR_RZA2M_EBK/src/tensorflow_lite/third_party/cmsis/CMSIS/NN/Include\arm_nnsupportfunctions.h ****                                     const int32_t out_offset,
 197:C:/Renesas/e2studio_2021_01_workspace_RZA2M_ANPR/ANPR_RZA2M_EBK/src/tensorflow_lite/third_party/cmsis/CMSIS/NN/Include\arm_nnsupportfunctions.h ****                                     const int32_t activation_min,
 198:C:/Renesas/e2studio_2021_01_workspace_RZA2M_ANPR/ANPR_RZA2M_EBK/src/tensorflow_lite/third_party/cmsis/CMSIS/NN/Include\arm_nnsupportfunctions.h ****                                     const int32_t activation_max,
 199:C:/Renesas/e2studio_2021_01_workspace_RZA2M_ANPR/ANPR_RZA2M_EBK/src/tensorflow_lite/third_party/cmsis/CMSIS/NN/Include\arm_nnsupportfunctions.h ****                                     const uint16_t kernel_size,
 200:C:/Renesas/e2studio_2021_01_workspace_RZA2M_ANPR/ANPR_RZA2M_EBK/src/tensorflow_lite/third_party/cmsis/CMSIS/NN/Include\arm_nnsupportfunctions.h ****                                     const int32_t *const output_bias,
 201:C:/Renesas/e2studio_2021_01_workspace_RZA2M_ANPR/ANPR_RZA2M_EBK/src/tensorflow_lite/third_party/cmsis/CMSIS/NN/Include\arm_nnsupportfunctions.h ****                                     q7_t *out);
 202:C:/Renesas/e2studio_2021_01_workspace_RZA2M_ANPR/ANPR_RZA2M_EBK/src/tensorflow_lite/third_party/cmsis/CMSIS/NN/Include\arm_nnsupportfunctions.h **** 
 203:C:/Renesas/e2studio_2021_01_workspace_RZA2M_ANPR/ANPR_RZA2M_EBK/src/tensorflow_lite/third_party/cmsis/CMSIS/NN/Include\arm_nnsupportfunctions.h **** /**
 204:C:/Renesas/e2studio_2021_01_workspace_RZA2M_ANPR/ANPR_RZA2M_EBK/src/tensorflow_lite/third_party/cmsis/CMSIS/NN/Include\arm_nnsupportfunctions.h ****  * @brief General Matrix-multiplication function with per-channel requantization.
 205:C:/Renesas/e2studio_2021_01_workspace_RZA2M_ANPR/ANPR_RZA2M_EBK/src/tensorflow_lite/third_party/cmsis/CMSIS/NN/Include\arm_nnsupportfunctions.h ****  * @param[in]       input_row    pointer to row operand
 206:C:/Renesas/e2studio_2021_01_workspace_RZA2M_ANPR/ANPR_RZA2M_EBK/src/tensorflow_lite/third_party/cmsis/CMSIS/NN/Include\arm_nnsupportfunctions.h ****  * @param[in]       input_col    pointer to col operand
 207:C:/Renesas/e2studio_2021_01_workspace_RZA2M_ANPR/ANPR_RZA2M_EBK/src/tensorflow_lite/third_party/cmsis/CMSIS/NN/Include\arm_nnsupportfunctions.h ****  * @param[in]       output_ch    number of rows of input_row
 208:C:/Renesas/e2studio_2021_01_workspace_RZA2M_ANPR/ANPR_RZA2M_EBK/src/tensorflow_lite/third_party/cmsis/CMSIS/NN/Include\arm_nnsupportfunctions.h ****  * @param[in]       col_batches  number of column batches. Range: 1 to 4
 209:C:/Renesas/e2studio_2021_01_workspace_RZA2M_ANPR/ANPR_RZA2M_EBK/src/tensorflow_lite/third_party/cmsis/CMSIS/NN/Include\arm_nnsupportfunctions.h ****  * @param[in]       output_shift  pointer to per output channel requantization shift parameter.
 210:C:/Renesas/e2studio_2021_01_workspace_RZA2M_ANPR/ANPR_RZA2M_EBK/src/tensorflow_lite/third_party/cmsis/CMSIS/NN/Include\arm_nnsupportfunctions.h ****  * @param[in]       output_mult   pointer to per output channel requantization multiplier parameter
 211:C:/Renesas/e2studio_2021_01_workspace_RZA2M_ANPR/ANPR_RZA2M_EBK/src/tensorflow_lite/third_party/cmsis/CMSIS/NN/Include\arm_nnsupportfunctions.h ****  * @param[in]       out_offset    output tensor offset.
 212:C:/Renesas/e2studio_2021_01_workspace_RZA2M_ANPR/ANPR_RZA2M_EBK/src/tensorflow_lite/third_party/cmsis/CMSIS/NN/Include\arm_nnsupportfunctions.h ****  * @param[in]       col_offset    input tensor(col) offset.
 213:C:/Renesas/e2studio_2021_01_workspace_RZA2M_ANPR/ANPR_RZA2M_EBK/src/tensorflow_lite/third_party/cmsis/CMSIS/NN/Include\arm_nnsupportfunctions.h ****  * @param[in]       row_offset    kernel offset(row). Not used.
 214:C:/Renesas/e2studio_2021_01_workspace_RZA2M_ANPR/ANPR_RZA2M_EBK/src/tensorflow_lite/third_party/cmsis/CMSIS/NN/Include\arm_nnsupportfunctions.h ****  * @param[in]       out_activation_min   minimum value to clamp the output to. Range : int8
 215:C:/Renesas/e2studio_2021_01_workspace_RZA2M_ANPR/ANPR_RZA2M_EBK/src/tensorflow_lite/third_party/cmsis/CMSIS/NN/Include\arm_nnsupportfunctions.h ****  * @param[in]       out_activation_max   maximum value to clamp the output to. Range : int8
 216:C:/Renesas/e2studio_2021_01_workspace_RZA2M_ANPR/ANPR_RZA2M_EBK/src/tensorflow_lite/third_party/cmsis/CMSIS/NN/Include\arm_nnsupportfunctions.h ****  * @param[in]       row_len       number of elements in each row
 217:C:/Renesas/e2studio_2021_01_workspace_RZA2M_ANPR/ANPR_RZA2M_EBK/src/tensorflow_lite/third_party/cmsis/CMSIS/NN/Include\arm_nnsupportfunctions.h ****  * @param[in]       bias          per output channel bias. Range : int32
 218:C:/Renesas/e2studio_2021_01_workspace_RZA2M_ANPR/ANPR_RZA2M_EBK/src/tensorflow_lite/third_party/cmsis/CMSIS/NN/Include\arm_nnsupportfunctions.h ****  * @param[in,out]   out           pointer to output
 219:C:/Renesas/e2studio_2021_01_workspace_RZA2M_ANPR/ANPR_RZA2M_EBK/src/tensorflow_lite/third_party/cmsis/CMSIS/NN/Include\arm_nnsupportfunctions.h ****  * @return     The function returns one of the two
 220:C:/Renesas/e2studio_2021_01_workspace_RZA2M_ANPR/ANPR_RZA2M_EBK/src/tensorflow_lite/third_party/cmsis/CMSIS/NN/Include\arm_nnsupportfunctions.h ****  *              1. The incremented output pointer for a successful operation or
 221:C:/Renesas/e2studio_2021_01_workspace_RZA2M_ANPR/ANPR_RZA2M_EBK/src/tensorflow_lite/third_party/cmsis/CMSIS/NN/Include\arm_nnsupportfunctions.h ****  *              2. NULL if implementation is not available.
 222:C:/Renesas/e2studio_2021_01_workspace_RZA2M_ANPR/ANPR_RZA2M_EBK/src/tensorflow_lite/third_party/cmsis/CMSIS/NN/Include\arm_nnsupportfunctions.h ****  *
 223:C:/Renesas/e2studio_2021_01_workspace_RZA2M_ANPR/ANPR_RZA2M_EBK/src/tensorflow_lite/third_party/cmsis/CMSIS/NN/Include\arm_nnsupportfunctions.h ****  * @details   Supported framework: TensorFlow Lite
 224:C:/Renesas/e2studio_2021_01_workspace_RZA2M_ANPR/ANPR_RZA2M_EBK/src/tensorflow_lite/third_party/cmsis/CMSIS/NN/Include\arm_nnsupportfunctions.h ****  */
 225:C:/Renesas/e2studio_2021_01_workspace_RZA2M_ANPR/ANPR_RZA2M_EBK/src/tensorflow_lite/third_party/cmsis/CMSIS/NN/Include\arm_nnsupportfunctions.h **** q7_t *arm_nn_mat_mult_s8(const q7_t *input_row,
 226:C:/Renesas/e2studio_2021_01_workspace_RZA2M_ANPR/ANPR_RZA2M_EBK/src/tensorflow_lite/third_party/cmsis/CMSIS/NN/Include\arm_nnsupportfunctions.h ****                          const q7_t *input_col,
 227:C:/Renesas/e2studio_2021_01_workspace_RZA2M_ANPR/ANPR_RZA2M_EBK/src/tensorflow_lite/third_party/cmsis/CMSIS/NN/Include\arm_nnsupportfunctions.h ****                          const uint16_t output_ch,
 228:C:/Renesas/e2studio_2021_01_workspace_RZA2M_ANPR/ANPR_RZA2M_EBK/src/tensorflow_lite/third_party/cmsis/CMSIS/NN/Include\arm_nnsupportfunctions.h ****                          const uint16_t col_batches,
 229:C:/Renesas/e2studio_2021_01_workspace_RZA2M_ANPR/ANPR_RZA2M_EBK/src/tensorflow_lite/third_party/cmsis/CMSIS/NN/Include\arm_nnsupportfunctions.h ****                          const int32_t *output_shift,
 230:C:/Renesas/e2studio_2021_01_workspace_RZA2M_ANPR/ANPR_RZA2M_EBK/src/tensorflow_lite/third_party/cmsis/CMSIS/NN/Include\arm_nnsupportfunctions.h ****                          const int32_t *output_mult,
 231:C:/Renesas/e2studio_2021_01_workspace_RZA2M_ANPR/ANPR_RZA2M_EBK/src/tensorflow_lite/third_party/cmsis/CMSIS/NN/Include\arm_nnsupportfunctions.h ****                          const int32_t out_offset,
 232:C:/Renesas/e2studio_2021_01_workspace_RZA2M_ANPR/ANPR_RZA2M_EBK/src/tensorflow_lite/third_party/cmsis/CMSIS/NN/Include\arm_nnsupportfunctions.h ****                          const int32_t col_offset,
 233:C:/Renesas/e2studio_2021_01_workspace_RZA2M_ANPR/ANPR_RZA2M_EBK/src/tensorflow_lite/third_party/cmsis/CMSIS/NN/Include\arm_nnsupportfunctions.h ****                          const int32_t row_offset,
 234:C:/Renesas/e2studio_2021_01_workspace_RZA2M_ANPR/ANPR_RZA2M_EBK/src/tensorflow_lite/third_party/cmsis/CMSIS/NN/Include\arm_nnsupportfunctions.h ****                          const int16_t out_activation_min,
 235:C:/Renesas/e2studio_2021_01_workspace_RZA2M_ANPR/ANPR_RZA2M_EBK/src/tensorflow_lite/third_party/cmsis/CMSIS/NN/Include\arm_nnsupportfunctions.h ****                          const int16_t out_activation_max,
 236:C:/Renesas/e2studio_2021_01_workspace_RZA2M_ANPR/ANPR_RZA2M_EBK/src/tensorflow_lite/third_party/cmsis/CMSIS/NN/Include\arm_nnsupportfunctions.h ****                          const uint16_t row_len,
 237:C:/Renesas/e2studio_2021_01_workspace_RZA2M_ANPR/ANPR_RZA2M_EBK/src/tensorflow_lite/third_party/cmsis/CMSIS/NN/Include\arm_nnsupportfunctions.h ****                          const int32_t *const bias,
 238:C:/Renesas/e2studio_2021_01_workspace_RZA2M_ANPR/ANPR_RZA2M_EBK/src/tensorflow_lite/third_party/cmsis/CMSIS/NN/Include\arm_nnsupportfunctions.h ****                          q7_t *out);
 239:C:/Renesas/e2studio_2021_01_workspace_RZA2M_ANPR/ANPR_RZA2M_EBK/src/tensorflow_lite/third_party/cmsis/CMSIS/NN/Include\arm_nnsupportfunctions.h **** 
 240:C:/Renesas/e2studio_2021_01_workspace_RZA2M_ANPR/ANPR_RZA2M_EBK/src/tensorflow_lite/third_party/cmsis/CMSIS/NN/Include\arm_nnsupportfunctions.h **** /**
 241:C:/Renesas/e2studio_2021_01_workspace_RZA2M_ANPR/ANPR_RZA2M_EBK/src/tensorflow_lite/third_party/cmsis/CMSIS/NN/Include\arm_nnsupportfunctions.h ****  * @brief General Matrix-multiplication without requantization for one row & one column
 242:C:/Renesas/e2studio_2021_01_workspace_RZA2M_ANPR/ANPR_RZA2M_EBK/src/tensorflow_lite/third_party/cmsis/CMSIS/NN/Include\arm_nnsupportfunctions.h ****  * @param[in]       row_elements  number of row elements
 243:C:/Renesas/e2studio_2021_01_workspace_RZA2M_ANPR/ANPR_RZA2M_EBK/src/tensorflow_lite/third_party/cmsis/CMSIS/NN/Include\arm_nnsupportfunctions.h ****  * @param[in]       row_base      pointer to row operand
 244:C:/Renesas/e2studio_2021_01_workspace_RZA2M_ANPR/ANPR_RZA2M_EBK/src/tensorflow_lite/third_party/cmsis/CMSIS/NN/Include\arm_nnsupportfunctions.h ****  * @param[in]       col_base      pointer to col operand
 245:C:/Renesas/e2studio_2021_01_workspace_RZA2M_ANPR/ANPR_RZA2M_EBK/src/tensorflow_lite/third_party/cmsis/CMSIS/NN/Include\arm_nnsupportfunctions.h ****  * @param[out]      sum_col       pointer to store sum of column elements
 246:C:/Renesas/e2studio_2021_01_workspace_RZA2M_ANPR/ANPR_RZA2M_EBK/src/tensorflow_lite/third_party/cmsis/CMSIS/NN/Include\arm_nnsupportfunctions.h ****  * @param[out]      output        pointer to store result of multiply-accumulate
 247:C:/Renesas/e2studio_2021_01_workspace_RZA2M_ANPR/ANPR_RZA2M_EBK/src/tensorflow_lite/third_party/cmsis/CMSIS/NN/Include\arm_nnsupportfunctions.h ****  * @return     The function returns the multiply-accumulated result of the row by column.
 248:C:/Renesas/e2studio_2021_01_workspace_RZA2M_ANPR/ANPR_RZA2M_EBK/src/tensorflow_lite/third_party/cmsis/CMSIS/NN/Include\arm_nnsupportfunctions.h ****  *
 249:C:/Renesas/e2studio_2021_01_workspace_RZA2M_ANPR/ANPR_RZA2M_EBK/src/tensorflow_lite/third_party/cmsis/CMSIS/NN/Include\arm_nnsupportfunctions.h ****  * @details Pseudo-code
 250:C:/Renesas/e2studio_2021_01_workspace_RZA2M_ANPR/ANPR_RZA2M_EBK/src/tensorflow_lite/third_party/cmsis/CMSIS/NN/Include\arm_nnsupportfunctions.h ****  *      *output = 0
 251:C:/Renesas/e2studio_2021_01_workspace_RZA2M_ANPR/ANPR_RZA2M_EBK/src/tensorflow_lite/third_party/cmsis/CMSIS/NN/Include\arm_nnsupportfunctions.h ****  *      sum_col = 0
 252:C:/Renesas/e2studio_2021_01_workspace_RZA2M_ANPR/ANPR_RZA2M_EBK/src/tensorflow_lite/third_party/cmsis/CMSIS/NN/Include\arm_nnsupportfunctions.h ****  *      for (i = 0; i < row_elements; i++)
 253:C:/Renesas/e2studio_2021_01_workspace_RZA2M_ANPR/ANPR_RZA2M_EBK/src/tensorflow_lite/third_party/cmsis/CMSIS/NN/Include\arm_nnsupportfunctions.h ****  *          *output += row_base[i] * col_base[i]
 254:C:/Renesas/e2studio_2021_01_workspace_RZA2M_ANPR/ANPR_RZA2M_EBK/src/tensorflow_lite/third_party/cmsis/CMSIS/NN/Include\arm_nnsupportfunctions.h ****  *          sum_col += col_base[i]
 255:C:/Renesas/e2studio_2021_01_workspace_RZA2M_ANPR/ANPR_RZA2M_EBK/src/tensorflow_lite/third_party/cmsis/CMSIS/NN/Include\arm_nnsupportfunctions.h ****  *
 256:C:/Renesas/e2studio_2021_01_workspace_RZA2M_ANPR/ANPR_RZA2M_EBK/src/tensorflow_lite/third_party/cmsis/CMSIS/NN/Include\arm_nnsupportfunctions.h ****  */
 257:C:/Renesas/e2studio_2021_01_workspace_RZA2M_ANPR/ANPR_RZA2M_EBK/src/tensorflow_lite/third_party/cmsis/CMSIS/NN/Include\arm_nnsupportfunctions.h **** arm_status arm_nn_mat_mul_core_1x_s8(int32_t row_elements,
 258:C:/Renesas/e2studio_2021_01_workspace_RZA2M_ANPR/ANPR_RZA2M_EBK/src/tensorflow_lite/third_party/cmsis/CMSIS/NN/Include\arm_nnsupportfunctions.h ****                                      const int8_t *row_base,
 259:C:/Renesas/e2studio_2021_01_workspace_RZA2M_ANPR/ANPR_RZA2M_EBK/src/tensorflow_lite/third_party/cmsis/CMSIS/NN/Include\arm_nnsupportfunctions.h ****                                      const int8_t *col_base,
 260:C:/Renesas/e2studio_2021_01_workspace_RZA2M_ANPR/ANPR_RZA2M_EBK/src/tensorflow_lite/third_party/cmsis/CMSIS/NN/Include\arm_nnsupportfunctions.h ****                                      int32_t *const sum_col,
 261:C:/Renesas/e2studio_2021_01_workspace_RZA2M_ANPR/ANPR_RZA2M_EBK/src/tensorflow_lite/third_party/cmsis/CMSIS/NN/Include\arm_nnsupportfunctions.h ****                                      int32_t *const output);
 262:C:/Renesas/e2studio_2021_01_workspace_RZA2M_ANPR/ANPR_RZA2M_EBK/src/tensorflow_lite/third_party/cmsis/CMSIS/NN/Include\arm_nnsupportfunctions.h **** 
 263:C:/Renesas/e2studio_2021_01_workspace_RZA2M_ANPR/ANPR_RZA2M_EBK/src/tensorflow_lite/third_party/cmsis/CMSIS/NN/Include\arm_nnsupportfunctions.h **** /**
 264:C:/Renesas/e2studio_2021_01_workspace_RZA2M_ANPR/ANPR_RZA2M_EBK/src/tensorflow_lite/third_party/cmsis/CMSIS/NN/Include\arm_nnsupportfunctions.h ****  * @brief General Matrix-multiplication without requantization for four rows and one column
 265:C:/Renesas/e2studio_2021_01_workspace_RZA2M_ANPR/ANPR_RZA2M_EBK/src/tensorflow_lite/third_party/cmsis/CMSIS/NN/Include\arm_nnsupportfunctions.h ****  * @param[in]       row_elements  number of row elements
 266:C:/Renesas/e2studio_2021_01_workspace_RZA2M_ANPR/ANPR_RZA2M_EBK/src/tensorflow_lite/third_party/cmsis/CMSIS/NN/Include\arm_nnsupportfunctions.h ****  * @param[in]       offset        offset between rows. Can be the same as row_elements.
 267:C:/Renesas/e2studio_2021_01_workspace_RZA2M_ANPR/ANPR_RZA2M_EBK/src/tensorflow_lite/third_party/cmsis/CMSIS/NN/Include\arm_nnsupportfunctions.h ****  *                                For e.g, in a 1x1 conv scenario with stride as 1.
 268:C:/Renesas/e2studio_2021_01_workspace_RZA2M_ANPR/ANPR_RZA2M_EBK/src/tensorflow_lite/third_party/cmsis/CMSIS/NN/Include\arm_nnsupportfunctions.h ****  * @param[in]       row_base      pointer to row operand
 269:C:/Renesas/e2studio_2021_01_workspace_RZA2M_ANPR/ANPR_RZA2M_EBK/src/tensorflow_lite/third_party/cmsis/CMSIS/NN/Include\arm_nnsupportfunctions.h ****  * @param[in]       col_base      pointer to col operand
 270:C:/Renesas/e2studio_2021_01_workspace_RZA2M_ANPR/ANPR_RZA2M_EBK/src/tensorflow_lite/third_party/cmsis/CMSIS/NN/Include\arm_nnsupportfunctions.h ****  * @param[out]      sum_col       pointer to store sum of column elements
 271:C:/Renesas/e2studio_2021_01_workspace_RZA2M_ANPR/ANPR_RZA2M_EBK/src/tensorflow_lite/third_party/cmsis/CMSIS/NN/Include\arm_nnsupportfunctions.h ****  * @param[out]      output        pointer to store result(4 int32's) of multiply-accumulate
 272:C:/Renesas/e2studio_2021_01_workspace_RZA2M_ANPR/ANPR_RZA2M_EBK/src/tensorflow_lite/third_party/cmsis/CMSIS/NN/Include\arm_nnsupportfunctions.h ****  * @return     The function returns the multiply-accumulated result of the row by column
 273:C:/Renesas/e2studio_2021_01_workspace_RZA2M_ANPR/ANPR_RZA2M_EBK/src/tensorflow_lite/third_party/cmsis/CMSIS/NN/Include\arm_nnsupportfunctions.h ****  *
 274:C:/Renesas/e2studio_2021_01_workspace_RZA2M_ANPR/ANPR_RZA2M_EBK/src/tensorflow_lite/third_party/cmsis/CMSIS/NN/Include\arm_nnsupportfunctions.h ****  * @details Pseudo-code
 275:C:/Renesas/e2studio_2021_01_workspace_RZA2M_ANPR/ANPR_RZA2M_EBK/src/tensorflow_lite/third_party/cmsis/CMSIS/NN/Include\arm_nnsupportfunctions.h ****  *      output[0] = 0
 276:C:/Renesas/e2studio_2021_01_workspace_RZA2M_ANPR/ANPR_RZA2M_EBK/src/tensorflow_lite/third_party/cmsis/CMSIS/NN/Include\arm_nnsupportfunctions.h ****  *         ..
 277:C:/Renesas/e2studio_2021_01_workspace_RZA2M_ANPR/ANPR_RZA2M_EBK/src/tensorflow_lite/third_party/cmsis/CMSIS/NN/Include\arm_nnsupportfunctions.h ****  *      output[3] = 0
 278:C:/Renesas/e2studio_2021_01_workspace_RZA2M_ANPR/ANPR_RZA2M_EBK/src/tensorflow_lite/third_party/cmsis/CMSIS/NN/Include\arm_nnsupportfunctions.h ****  *      sum_col = 0
 279:C:/Renesas/e2studio_2021_01_workspace_RZA2M_ANPR/ANPR_RZA2M_EBK/src/tensorflow_lite/third_party/cmsis/CMSIS/NN/Include\arm_nnsupportfunctions.h ****  *      for (i = 0; i < row_elements; i++)
 280:C:/Renesas/e2studio_2021_01_workspace_RZA2M_ANPR/ANPR_RZA2M_EBK/src/tensorflow_lite/third_party/cmsis/CMSIS/NN/Include\arm_nnsupportfunctions.h ****  *          output[0] += row_base[i] * col_base[i]
 281:C:/Renesas/e2studio_2021_01_workspace_RZA2M_ANPR/ANPR_RZA2M_EBK/src/tensorflow_lite/third_party/cmsis/CMSIS/NN/Include\arm_nnsupportfunctions.h ****  *                ..
 282:C:/Renesas/e2studio_2021_01_workspace_RZA2M_ANPR/ANPR_RZA2M_EBK/src/tensorflow_lite/third_party/cmsis/CMSIS/NN/Include\arm_nnsupportfunctions.h ****  *          output[3] += row_base[i + (row_elements * 3)] * col_base[i]
 283:C:/Renesas/e2studio_2021_01_workspace_RZA2M_ANPR/ANPR_RZA2M_EBK/src/tensorflow_lite/third_party/cmsis/CMSIS/NN/Include\arm_nnsupportfunctions.h ****  *          sum_col += col_base[i]
 284:C:/Renesas/e2studio_2021_01_workspace_RZA2M_ANPR/ANPR_RZA2M_EBK/src/tensorflow_lite/third_party/cmsis/CMSIS/NN/Include\arm_nnsupportfunctions.h ****  */
 285:C:/Renesas/e2studio_2021_01_workspace_RZA2M_ANPR/ANPR_RZA2M_EBK/src/tensorflow_lite/third_party/cmsis/CMSIS/NN/Include\arm_nnsupportfunctions.h **** arm_status arm_nn_mat_mul_core_4x_s8(const int32_t row_elements,
 286:C:/Renesas/e2studio_2021_01_workspace_RZA2M_ANPR/ANPR_RZA2M_EBK/src/tensorflow_lite/third_party/cmsis/CMSIS/NN/Include\arm_nnsupportfunctions.h ****                                      const int32_t offset,
 287:C:/Renesas/e2studio_2021_01_workspace_RZA2M_ANPR/ANPR_RZA2M_EBK/src/tensorflow_lite/third_party/cmsis/CMSIS/NN/Include\arm_nnsupportfunctions.h ****                                      const int8_t *row_base,
 288:C:/Renesas/e2studio_2021_01_workspace_RZA2M_ANPR/ANPR_RZA2M_EBK/src/tensorflow_lite/third_party/cmsis/CMSIS/NN/Include\arm_nnsupportfunctions.h ****                                      const int8_t *col_base,
 289:C:/Renesas/e2studio_2021_01_workspace_RZA2M_ANPR/ANPR_RZA2M_EBK/src/tensorflow_lite/third_party/cmsis/CMSIS/NN/Include\arm_nnsupportfunctions.h ****                                      int32_t *const sum_col,
 290:C:/Renesas/e2studio_2021_01_workspace_RZA2M_ANPR/ANPR_RZA2M_EBK/src/tensorflow_lite/third_party/cmsis/CMSIS/NN/Include\arm_nnsupportfunctions.h ****                                      int32_t *const output);
 291:C:/Renesas/e2studio_2021_01_workspace_RZA2M_ANPR/ANPR_RZA2M_EBK/src/tensorflow_lite/third_party/cmsis/CMSIS/NN/Include\arm_nnsupportfunctions.h **** 
 292:C:/Renesas/e2studio_2021_01_workspace_RZA2M_ANPR/ANPR_RZA2M_EBK/src/tensorflow_lite/third_party/cmsis/CMSIS/NN/Include\arm_nnsupportfunctions.h **** /**
 293:C:/Renesas/e2studio_2021_01_workspace_RZA2M_ANPR/ANPR_RZA2M_EBK/src/tensorflow_lite/third_party/cmsis/CMSIS/NN/Include\arm_nnsupportfunctions.h ****  * @brief General Matrix-multiplication function with per-channel requantization.
 294:C:/Renesas/e2studio_2021_01_workspace_RZA2M_ANPR/ANPR_RZA2M_EBK/src/tensorflow_lite/third_party/cmsis/CMSIS/NN/Include\arm_nnsupportfunctions.h ****  *        This function assumes:
 295:C:/Renesas/e2studio_2021_01_workspace_RZA2M_ANPR/ANPR_RZA2M_EBK/src/tensorflow_lite/third_party/cmsis/CMSIS/NN/Include\arm_nnsupportfunctions.h ****  *        - LHS input matrix NOT transposed (nt)
 296:C:/Renesas/e2studio_2021_01_workspace_RZA2M_ANPR/ANPR_RZA2M_EBK/src/tensorflow_lite/third_party/cmsis/CMSIS/NN/Include\arm_nnsupportfunctions.h ****  *        - RHS input matrix transposed (t)
 297:C:/Renesas/e2studio_2021_01_workspace_RZA2M_ANPR/ANPR_RZA2M_EBK/src/tensorflow_lite/third_party/cmsis/CMSIS/NN/Include\arm_nnsupportfunctions.h ****  *
 298:C:/Renesas/e2studio_2021_01_workspace_RZA2M_ANPR/ANPR_RZA2M_EBK/src/tensorflow_lite/third_party/cmsis/CMSIS/NN/Include\arm_nnsupportfunctions.h ****  *  @note This operation also performs the broadcast bias addition before the requantization
 299:C:/Renesas/e2studio_2021_01_workspace_RZA2M_ANPR/ANPR_RZA2M_EBK/src/tensorflow_lite/third_party/cmsis/CMSIS/NN/Include\arm_nnsupportfunctions.h ****  *
 300:C:/Renesas/e2studio_2021_01_workspace_RZA2M_ANPR/ANPR_RZA2M_EBK/src/tensorflow_lite/third_party/cmsis/CMSIS/NN/Include\arm_nnsupportfunctions.h ****  * @param[in]  lhs                Pointer to the LHS input matrix
 301:C:/Renesas/e2studio_2021_01_workspace_RZA2M_ANPR/ANPR_RZA2M_EBK/src/tensorflow_lite/third_party/cmsis/CMSIS/NN/Include\arm_nnsupportfunctions.h ****  * @param[in]  rhs                Pointer to the RHS input matrix
 302:C:/Renesas/e2studio_2021_01_workspace_RZA2M_ANPR/ANPR_RZA2M_EBK/src/tensorflow_lite/third_party/cmsis/CMSIS/NN/Include\arm_nnsupportfunctions.h ****  * @param[in]  bias               Pointer to the bias vector. The length of this vector is equal to
 303:C:/Renesas/e2studio_2021_01_workspace_RZA2M_ANPR/ANPR_RZA2M_EBK/src/tensorflow_lite/third_party/cmsis/CMSIS/NN/Include\arm_nnsupportfunctions.h ****  * output columns (or RHS input rows)
 304:C:/Renesas/e2studio_2021_01_workspace_RZA2M_ANPR/ANPR_RZA2M_EBK/src/tensorflow_lite/third_party/cmsis/CMSIS/NN/Include\arm_nnsupportfunctions.h ****  * @param[out] dst                Pointer to the output matrix with "m" rows and "n" columns
 305:C:/Renesas/e2studio_2021_01_workspace_RZA2M_ANPR/ANPR_RZA2M_EBK/src/tensorflow_lite/third_party/cmsis/CMSIS/NN/Include\arm_nnsupportfunctions.h ****  * @param[in]  dst_multipliers    Pointer to the multipliers vector needed for the per-channel requ
 306:C:/Renesas/e2studio_2021_01_workspace_RZA2M_ANPR/ANPR_RZA2M_EBK/src/tensorflow_lite/third_party/cmsis/CMSIS/NN/Include\arm_nnsupportfunctions.h ****  *                                The length of this vector is equal to the number of output column
 307:C:/Renesas/e2studio_2021_01_workspace_RZA2M_ANPR/ANPR_RZA2M_EBK/src/tensorflow_lite/third_party/cmsis/CMSIS/NN/Include\arm_nnsupportfunctions.h ****  * rows)
 308:C:/Renesas/e2studio_2021_01_workspace_RZA2M_ANPR/ANPR_RZA2M_EBK/src/tensorflow_lite/third_party/cmsis/CMSIS/NN/Include\arm_nnsupportfunctions.h ****  * @param[in]  dst_shifts         Pointer to the shifts vector needed for the per-channel requantiz
 309:C:/Renesas/e2studio_2021_01_workspace_RZA2M_ANPR/ANPR_RZA2M_EBK/src/tensorflow_lite/third_party/cmsis/CMSIS/NN/Include\arm_nnsupportfunctions.h ****  * of this vector is equal to the number of output columns (or RHS input rows)
 310:C:/Renesas/e2studio_2021_01_workspace_RZA2M_ANPR/ANPR_RZA2M_EBK/src/tensorflow_lite/third_party/cmsis/CMSIS/NN/Include\arm_nnsupportfunctions.h ****  * @param[in]  lhs_rows           Number of LHS input rows
 311:C:/Renesas/e2studio_2021_01_workspace_RZA2M_ANPR/ANPR_RZA2M_EBK/src/tensorflow_lite/third_party/cmsis/CMSIS/NN/Include\arm_nnsupportfunctions.h ****  * @param[in]  rhs_rows           Number of RHS input rows
 312:C:/Renesas/e2studio_2021_01_workspace_RZA2M_ANPR/ANPR_RZA2M_EBK/src/tensorflow_lite/third_party/cmsis/CMSIS/NN/Include\arm_nnsupportfunctions.h ****  * @param[in]  rhs_cols           Number of LHS/RHS input columns
 313:C:/Renesas/e2studio_2021_01_workspace_RZA2M_ANPR/ANPR_RZA2M_EBK/src/tensorflow_lite/third_party/cmsis/CMSIS/NN/Include\arm_nnsupportfunctions.h ****  * @param[in]  lhs_offset         Offset to be applied to the LHS input value
 314:C:/Renesas/e2studio_2021_01_workspace_RZA2M_ANPR/ANPR_RZA2M_EBK/src/tensorflow_lite/third_party/cmsis/CMSIS/NN/Include\arm_nnsupportfunctions.h ****  * @param[in]  dst_offset         Offset to be applied the output result
 315:C:/Renesas/e2studio_2021_01_workspace_RZA2M_ANPR/ANPR_RZA2M_EBK/src/tensorflow_lite/third_party/cmsis/CMSIS/NN/Include\arm_nnsupportfunctions.h ****  * @param[in]  activation_min     Minimum value to clamp down the output. Range : int8
 316:C:/Renesas/e2studio_2021_01_workspace_RZA2M_ANPR/ANPR_RZA2M_EBK/src/tensorflow_lite/third_party/cmsis/CMSIS/NN/Include\arm_nnsupportfunctions.h ****  * @param[in]  activation_max     Maximum value to clamp up the output. Range : int8
 317:C:/Renesas/e2studio_2021_01_workspace_RZA2M_ANPR/ANPR_RZA2M_EBK/src/tensorflow_lite/third_party/cmsis/CMSIS/NN/Include\arm_nnsupportfunctions.h ****  *
 318:C:/Renesas/e2studio_2021_01_workspace_RZA2M_ANPR/ANPR_RZA2M_EBK/src/tensorflow_lite/third_party/cmsis/CMSIS/NN/Include\arm_nnsupportfunctions.h ****  * @return     The function returns <code>ARM_MATH_SUCCESS</code>
 319:C:/Renesas/e2studio_2021_01_workspace_RZA2M_ANPR/ANPR_RZA2M_EBK/src/tensorflow_lite/third_party/cmsis/CMSIS/NN/Include\arm_nnsupportfunctions.h ****  *
 320:C:/Renesas/e2studio_2021_01_workspace_RZA2M_ANPR/ANPR_RZA2M_EBK/src/tensorflow_lite/third_party/cmsis/CMSIS/NN/Include\arm_nnsupportfunctions.h ****  */
 321:C:/Renesas/e2studio_2021_01_workspace_RZA2M_ANPR/ANPR_RZA2M_EBK/src/tensorflow_lite/third_party/cmsis/CMSIS/NN/Include\arm_nnsupportfunctions.h **** arm_status arm_nn_mat_mult_nt_t_s8(const q7_t *lhs,
 322:C:/Renesas/e2studio_2021_01_workspace_RZA2M_ANPR/ANPR_RZA2M_EBK/src/tensorflow_lite/third_party/cmsis/CMSIS/NN/Include\arm_nnsupportfunctions.h ****                                    const q7_t *rhs,
 323:C:/Renesas/e2studio_2021_01_workspace_RZA2M_ANPR/ANPR_RZA2M_EBK/src/tensorflow_lite/third_party/cmsis/CMSIS/NN/Include\arm_nnsupportfunctions.h ****                                    const q31_t *bias,
 324:C:/Renesas/e2studio_2021_01_workspace_RZA2M_ANPR/ANPR_RZA2M_EBK/src/tensorflow_lite/third_party/cmsis/CMSIS/NN/Include\arm_nnsupportfunctions.h ****                                    q7_t *dst,
 325:C:/Renesas/e2studio_2021_01_workspace_RZA2M_ANPR/ANPR_RZA2M_EBK/src/tensorflow_lite/third_party/cmsis/CMSIS/NN/Include\arm_nnsupportfunctions.h ****                                    const int32_t *dst_multipliers,
 326:C:/Renesas/e2studio_2021_01_workspace_RZA2M_ANPR/ANPR_RZA2M_EBK/src/tensorflow_lite/third_party/cmsis/CMSIS/NN/Include\arm_nnsupportfunctions.h ****                                    const int32_t *dst_shifts,
 327:C:/Renesas/e2studio_2021_01_workspace_RZA2M_ANPR/ANPR_RZA2M_EBK/src/tensorflow_lite/third_party/cmsis/CMSIS/NN/Include\arm_nnsupportfunctions.h ****                                    const int32_t lhs_rows,
 328:C:/Renesas/e2studio_2021_01_workspace_RZA2M_ANPR/ANPR_RZA2M_EBK/src/tensorflow_lite/third_party/cmsis/CMSIS/NN/Include\arm_nnsupportfunctions.h ****                                    const int32_t rhs_rows,
 329:C:/Renesas/e2studio_2021_01_workspace_RZA2M_ANPR/ANPR_RZA2M_EBK/src/tensorflow_lite/third_party/cmsis/CMSIS/NN/Include\arm_nnsupportfunctions.h ****                                    const int32_t rhs_cols,
 330:C:/Renesas/e2studio_2021_01_workspace_RZA2M_ANPR/ANPR_RZA2M_EBK/src/tensorflow_lite/third_party/cmsis/CMSIS/NN/Include\arm_nnsupportfunctions.h ****                                    const int32_t lhs_offset,
 331:C:/Renesas/e2studio_2021_01_workspace_RZA2M_ANPR/ANPR_RZA2M_EBK/src/tensorflow_lite/third_party/cmsis/CMSIS/NN/Include\arm_nnsupportfunctions.h ****                                    const int32_t dst_offset,
 332:C:/Renesas/e2studio_2021_01_workspace_RZA2M_ANPR/ANPR_RZA2M_EBK/src/tensorflow_lite/third_party/cmsis/CMSIS/NN/Include\arm_nnsupportfunctions.h ****                                    const int32_t activation_min,
 333:C:/Renesas/e2studio_2021_01_workspace_RZA2M_ANPR/ANPR_RZA2M_EBK/src/tensorflow_lite/third_party/cmsis/CMSIS/NN/Include\arm_nnsupportfunctions.h ****                                    const int32_t activation_max);
 334:C:/Renesas/e2studio_2021_01_workspace_RZA2M_ANPR/ANPR_RZA2M_EBK/src/tensorflow_lite/third_party/cmsis/CMSIS/NN/Include\arm_nnsupportfunctions.h **** 
 335:C:/Renesas/e2studio_2021_01_workspace_RZA2M_ANPR/ANPR_RZA2M_EBK/src/tensorflow_lite/third_party/cmsis/CMSIS/NN/Include\arm_nnsupportfunctions.h **** /**
 336:C:/Renesas/e2studio_2021_01_workspace_RZA2M_ANPR/ANPR_RZA2M_EBK/src/tensorflow_lite/third_party/cmsis/CMSIS/NN/Include\arm_nnsupportfunctions.h ****  * @brief s8 Vector by Matrix (transposed) multiplication
 337:C:/Renesas/e2studio_2021_01_workspace_RZA2M_ANPR/ANPR_RZA2M_EBK/src/tensorflow_lite/third_party/cmsis/CMSIS/NN/Include\arm_nnsupportfunctions.h ****  *
 338:C:/Renesas/e2studio_2021_01_workspace_RZA2M_ANPR/ANPR_RZA2M_EBK/src/tensorflow_lite/third_party/cmsis/CMSIS/NN/Include\arm_nnsupportfunctions.h ****  * @param[in]      lhs             Input left-hand side vector
 339:C:/Renesas/e2studio_2021_01_workspace_RZA2M_ANPR/ANPR_RZA2M_EBK/src/tensorflow_lite/third_party/cmsis/CMSIS/NN/Include\arm_nnsupportfunctions.h ****  * @param[in]      rhs             Input right-hand side matrix (transposed)
 340:C:/Renesas/e2studio_2021_01_workspace_RZA2M_ANPR/ANPR_RZA2M_EBK/src/tensorflow_lite/third_party/cmsis/CMSIS/NN/Include\arm_nnsupportfunctions.h ****  * @param[in]      bias            Input bias
 341:C:/Renesas/e2studio_2021_01_workspace_RZA2M_ANPR/ANPR_RZA2M_EBK/src/tensorflow_lite/third_party/cmsis/CMSIS/NN/Include\arm_nnsupportfunctions.h ****  * @param[out]     dst             Output vector
 342:C:/Renesas/e2studio_2021_01_workspace_RZA2M_ANPR/ANPR_RZA2M_EBK/src/tensorflow_lite/third_party/cmsis/CMSIS/NN/Include\arm_nnsupportfunctions.h ****  * @param[in]      lhs_offset      Offset to be added to the input values of the left-hand side vec
 343:C:/Renesas/e2studio_2021_01_workspace_RZA2M_ANPR/ANPR_RZA2M_EBK/src/tensorflow_lite/third_party/cmsis/CMSIS/NN/Include\arm_nnsupportfunctions.h ****  *                                 Range: -127 to 128
 344:C:/Renesas/e2studio_2021_01_workspace_RZA2M_ANPR/ANPR_RZA2M_EBK/src/tensorflow_lite/third_party/cmsis/CMSIS/NN/Include\arm_nnsupportfunctions.h ****  * @param[in]      rhs_offset      Not used
 345:C:/Renesas/e2studio_2021_01_workspace_RZA2M_ANPR/ANPR_RZA2M_EBK/src/tensorflow_lite/third_party/cmsis/CMSIS/NN/Include\arm_nnsupportfunctions.h ****  * @param[in]      dst_offset      Offset to be added to the output values. Range: -127 to 128
 346:C:/Renesas/e2studio_2021_01_workspace_RZA2M_ANPR/ANPR_RZA2M_EBK/src/tensorflow_lite/third_party/cmsis/CMSIS/NN/Include\arm_nnsupportfunctions.h ****  * @param[in]      dst_multiplier  Output multiplier
 347:C:/Renesas/e2studio_2021_01_workspace_RZA2M_ANPR/ANPR_RZA2M_EBK/src/tensorflow_lite/third_party/cmsis/CMSIS/NN/Include\arm_nnsupportfunctions.h ****  * @param[in]      dst_shift       Output shift
 348:C:/Renesas/e2studio_2021_01_workspace_RZA2M_ANPR/ANPR_RZA2M_EBK/src/tensorflow_lite/third_party/cmsis/CMSIS/NN/Include\arm_nnsupportfunctions.h ****  * @param[in]      rhs_cols        Number of columns in the right-hand side input matrix
 349:C:/Renesas/e2studio_2021_01_workspace_RZA2M_ANPR/ANPR_RZA2M_EBK/src/tensorflow_lite/third_party/cmsis/CMSIS/NN/Include\arm_nnsupportfunctions.h ****  * @param[in]      rhs_rows        Number of rows in the right-hand side input matrix
 350:C:/Renesas/e2studio_2021_01_workspace_RZA2M_ANPR/ANPR_RZA2M_EBK/src/tensorflow_lite/third_party/cmsis/CMSIS/NN/Include\arm_nnsupportfunctions.h ****  * @param[in]      activation_min  Minimum value to clamp the output to. Range: int8
 351:C:/Renesas/e2studio_2021_01_workspace_RZA2M_ANPR/ANPR_RZA2M_EBK/src/tensorflow_lite/third_party/cmsis/CMSIS/NN/Include\arm_nnsupportfunctions.h ****  * @param[in]      activation_max  Maximum value to clamp the output to. Range: int8
 352:C:/Renesas/e2studio_2021_01_workspace_RZA2M_ANPR/ANPR_RZA2M_EBK/src/tensorflow_lite/third_party/cmsis/CMSIS/NN/Include\arm_nnsupportfunctions.h ****  *
 353:C:/Renesas/e2studio_2021_01_workspace_RZA2M_ANPR/ANPR_RZA2M_EBK/src/tensorflow_lite/third_party/cmsis/CMSIS/NN/Include\arm_nnsupportfunctions.h ****  * @return         The function returns <code>ARM_MATH_SUCCESS</code>
 354:C:/Renesas/e2studio_2021_01_workspace_RZA2M_ANPR/ANPR_RZA2M_EBK/src/tensorflow_lite/third_party/cmsis/CMSIS/NN/Include\arm_nnsupportfunctions.h ****  *
 355:C:/Renesas/e2studio_2021_01_workspace_RZA2M_ANPR/ANPR_RZA2M_EBK/src/tensorflow_lite/third_party/cmsis/CMSIS/NN/Include\arm_nnsupportfunctions.h ****  */
 356:C:/Renesas/e2studio_2021_01_workspace_RZA2M_ANPR/ANPR_RZA2M_EBK/src/tensorflow_lite/third_party/cmsis/CMSIS/NN/Include\arm_nnsupportfunctions.h **** arm_status arm_nn_vec_mat_mult_t_s8(const q7_t *lhs,
 357:C:/Renesas/e2studio_2021_01_workspace_RZA2M_ANPR/ANPR_RZA2M_EBK/src/tensorflow_lite/third_party/cmsis/CMSIS/NN/Include\arm_nnsupportfunctions.h ****                                     const q7_t *rhs,
 358:C:/Renesas/e2studio_2021_01_workspace_RZA2M_ANPR/ANPR_RZA2M_EBK/src/tensorflow_lite/third_party/cmsis/CMSIS/NN/Include\arm_nnsupportfunctions.h ****                                     const q31_t *bias,
 359:C:/Renesas/e2studio_2021_01_workspace_RZA2M_ANPR/ANPR_RZA2M_EBK/src/tensorflow_lite/third_party/cmsis/CMSIS/NN/Include\arm_nnsupportfunctions.h ****                                     q7_t *dst,
 360:C:/Renesas/e2studio_2021_01_workspace_RZA2M_ANPR/ANPR_RZA2M_EBK/src/tensorflow_lite/third_party/cmsis/CMSIS/NN/Include\arm_nnsupportfunctions.h ****                                     const int32_t lhs_offset,
 361:C:/Renesas/e2studio_2021_01_workspace_RZA2M_ANPR/ANPR_RZA2M_EBK/src/tensorflow_lite/third_party/cmsis/CMSIS/NN/Include\arm_nnsupportfunctions.h ****                                     const int32_t rhs_offset,
 362:C:/Renesas/e2studio_2021_01_workspace_RZA2M_ANPR/ANPR_RZA2M_EBK/src/tensorflow_lite/third_party/cmsis/CMSIS/NN/Include\arm_nnsupportfunctions.h ****                                     const int32_t dst_offset,
 363:C:/Renesas/e2studio_2021_01_workspace_RZA2M_ANPR/ANPR_RZA2M_EBK/src/tensorflow_lite/third_party/cmsis/CMSIS/NN/Include\arm_nnsupportfunctions.h ****                                     const int32_t dst_multiplier,
 364:C:/Renesas/e2studio_2021_01_workspace_RZA2M_ANPR/ANPR_RZA2M_EBK/src/tensorflow_lite/third_party/cmsis/CMSIS/NN/Include\arm_nnsupportfunctions.h ****                                     const int32_t dst_shift,
 365:C:/Renesas/e2studio_2021_01_workspace_RZA2M_ANPR/ANPR_RZA2M_EBK/src/tensorflow_lite/third_party/cmsis/CMSIS/NN/Include\arm_nnsupportfunctions.h ****                                     const int32_t rhs_cols,
 366:C:/Renesas/e2studio_2021_01_workspace_RZA2M_ANPR/ANPR_RZA2M_EBK/src/tensorflow_lite/third_party/cmsis/CMSIS/NN/Include\arm_nnsupportfunctions.h ****                                     const int32_t rhs_rows,
 367:C:/Renesas/e2studio_2021_01_workspace_RZA2M_ANPR/ANPR_RZA2M_EBK/src/tensorflow_lite/third_party/cmsis/CMSIS/NN/Include\arm_nnsupportfunctions.h ****                                     const int32_t activation_min,
 368:C:/Renesas/e2studio_2021_01_workspace_RZA2M_ANPR/ANPR_RZA2M_EBK/src/tensorflow_lite/third_party/cmsis/CMSIS/NN/Include\arm_nnsupportfunctions.h ****                                     const int32_t activation_max);
 369:C:/Renesas/e2studio_2021_01_workspace_RZA2M_ANPR/ANPR_RZA2M_EBK/src/tensorflow_lite/third_party/cmsis/CMSIS/NN/Include\arm_nnsupportfunctions.h **** 
 370:C:/Renesas/e2studio_2021_01_workspace_RZA2M_ANPR/ANPR_RZA2M_EBK/src/tensorflow_lite/third_party/cmsis/CMSIS/NN/Include\arm_nnsupportfunctions.h **** /**
 371:C:/Renesas/e2studio_2021_01_workspace_RZA2M_ANPR/ANPR_RZA2M_EBK/src/tensorflow_lite/third_party/cmsis/CMSIS/NN/Include\arm_nnsupportfunctions.h ****  * @brief s8 Vector by Matrix (transposed) multiplication with s16 output
 372:C:/Renesas/e2studio_2021_01_workspace_RZA2M_ANPR/ANPR_RZA2M_EBK/src/tensorflow_lite/third_party/cmsis/CMSIS/NN/Include\arm_nnsupportfunctions.h ****  *
 373:C:/Renesas/e2studio_2021_01_workspace_RZA2M_ANPR/ANPR_RZA2M_EBK/src/tensorflow_lite/third_party/cmsis/CMSIS/NN/Include\arm_nnsupportfunctions.h ****  * @param[in]      lhs             Input left-hand side vector
 374:C:/Renesas/e2studio_2021_01_workspace_RZA2M_ANPR/ANPR_RZA2M_EBK/src/tensorflow_lite/third_party/cmsis/CMSIS/NN/Include\arm_nnsupportfunctions.h ****  * @param[in]      rhs             Input right-hand side matrix (transposed)
 375:C:/Renesas/e2studio_2021_01_workspace_RZA2M_ANPR/ANPR_RZA2M_EBK/src/tensorflow_lite/third_party/cmsis/CMSIS/NN/Include\arm_nnsupportfunctions.h ****  * @param[out]     dst             Output vector
 376:C:/Renesas/e2studio_2021_01_workspace_RZA2M_ANPR/ANPR_RZA2M_EBK/src/tensorflow_lite/third_party/cmsis/CMSIS/NN/Include\arm_nnsupportfunctions.h ****  * @param[in]      lhs_offset      Offset to be added to the input values of the left-hand side
 377:C:/Renesas/e2studio_2021_01_workspace_RZA2M_ANPR/ANPR_RZA2M_EBK/src/tensorflow_lite/third_party/cmsis/CMSIS/NN/Include\arm_nnsupportfunctions.h ****  *                                 vector. Range: -127 to 128
 378:C:/Renesas/e2studio_2021_01_workspace_RZA2M_ANPR/ANPR_RZA2M_EBK/src/tensorflow_lite/third_party/cmsis/CMSIS/NN/Include\arm_nnsupportfunctions.h ****  * @param[in]      rhs_offset      Not used
 379:C:/Renesas/e2studio_2021_01_workspace_RZA2M_ANPR/ANPR_RZA2M_EBK/src/tensorflow_lite/third_party/cmsis/CMSIS/NN/Include\arm_nnsupportfunctions.h ****  * @param[in]      scatter_offset  Address offset for dst. First output is stored at 'dst', the
 380:C:/Renesas/e2studio_2021_01_workspace_RZA2M_ANPR/ANPR_RZA2M_EBK/src/tensorflow_lite/third_party/cmsis/CMSIS/NN/Include\arm_nnsupportfunctions.h ****  *                                 second at 'dst + scatter_offset' and so on.
 381:C:/Renesas/e2studio_2021_01_workspace_RZA2M_ANPR/ANPR_RZA2M_EBK/src/tensorflow_lite/third_party/cmsis/CMSIS/NN/Include\arm_nnsupportfunctions.h ****  * @param[in]      dst_multiplier  Output multiplier
 382:C:/Renesas/e2studio_2021_01_workspace_RZA2M_ANPR/ANPR_RZA2M_EBK/src/tensorflow_lite/third_party/cmsis/CMSIS/NN/Include\arm_nnsupportfunctions.h ****  * @param[in]      dst_shift       Output shift
 383:C:/Renesas/e2studio_2021_01_workspace_RZA2M_ANPR/ANPR_RZA2M_EBK/src/tensorflow_lite/third_party/cmsis/CMSIS/NN/Include\arm_nnsupportfunctions.h ****  * @param[in]      rhs_cols        Number of columns in the right-hand side input matrix
 384:C:/Renesas/e2studio_2021_01_workspace_RZA2M_ANPR/ANPR_RZA2M_EBK/src/tensorflow_lite/third_party/cmsis/CMSIS/NN/Include\arm_nnsupportfunctions.h ****  * @param[in]      rhs_rows        Number of rows in the right-hand side input matrix
 385:C:/Renesas/e2studio_2021_01_workspace_RZA2M_ANPR/ANPR_RZA2M_EBK/src/tensorflow_lite/third_party/cmsis/CMSIS/NN/Include\arm_nnsupportfunctions.h ****  * @param[in]      activation_min  Minimum value to clamp the output to. Range: int16
 386:C:/Renesas/e2studio_2021_01_workspace_RZA2M_ANPR/ANPR_RZA2M_EBK/src/tensorflow_lite/third_party/cmsis/CMSIS/NN/Include\arm_nnsupportfunctions.h ****  * @param[in]      activation_max  Maximum value to clamp the output to. Range: int16
 387:C:/Renesas/e2studio_2021_01_workspace_RZA2M_ANPR/ANPR_RZA2M_EBK/src/tensorflow_lite/third_party/cmsis/CMSIS/NN/Include\arm_nnsupportfunctions.h ****  *
 388:C:/Renesas/e2studio_2021_01_workspace_RZA2M_ANPR/ANPR_RZA2M_EBK/src/tensorflow_lite/third_party/cmsis/CMSIS/NN/Include\arm_nnsupportfunctions.h ****  * @return         The function returns <code>ARM_MATH_SUCCESS</code>
 389:C:/Renesas/e2studio_2021_01_workspace_RZA2M_ANPR/ANPR_RZA2M_EBK/src/tensorflow_lite/third_party/cmsis/CMSIS/NN/Include\arm_nnsupportfunctions.h ****  *
 390:C:/Renesas/e2studio_2021_01_workspace_RZA2M_ANPR/ANPR_RZA2M_EBK/src/tensorflow_lite/third_party/cmsis/CMSIS/NN/Include\arm_nnsupportfunctions.h ****  */
 391:C:/Renesas/e2studio_2021_01_workspace_RZA2M_ANPR/ANPR_RZA2M_EBK/src/tensorflow_lite/third_party/cmsis/CMSIS/NN/Include\arm_nnsupportfunctions.h **** arm_status arm_nn_vec_mat_mult_t_svdf_s8(const q7_t *lhs,
 392:C:/Renesas/e2studio_2021_01_workspace_RZA2M_ANPR/ANPR_RZA2M_EBK/src/tensorflow_lite/third_party/cmsis/CMSIS/NN/Include\arm_nnsupportfunctions.h ****                                          const q7_t *rhs,
 393:C:/Renesas/e2studio_2021_01_workspace_RZA2M_ANPR/ANPR_RZA2M_EBK/src/tensorflow_lite/third_party/cmsis/CMSIS/NN/Include\arm_nnsupportfunctions.h ****                                          q15_t *dst,
 394:C:/Renesas/e2studio_2021_01_workspace_RZA2M_ANPR/ANPR_RZA2M_EBK/src/tensorflow_lite/third_party/cmsis/CMSIS/NN/Include\arm_nnsupportfunctions.h ****                                          const int32_t lhs_offset,
 395:C:/Renesas/e2studio_2021_01_workspace_RZA2M_ANPR/ANPR_RZA2M_EBK/src/tensorflow_lite/third_party/cmsis/CMSIS/NN/Include\arm_nnsupportfunctions.h ****                                          const int32_t rhs_offset,
 396:C:/Renesas/e2studio_2021_01_workspace_RZA2M_ANPR/ANPR_RZA2M_EBK/src/tensorflow_lite/third_party/cmsis/CMSIS/NN/Include\arm_nnsupportfunctions.h ****                                          const int32_t scatter_offset,
 397:C:/Renesas/e2studio_2021_01_workspace_RZA2M_ANPR/ANPR_RZA2M_EBK/src/tensorflow_lite/third_party/cmsis/CMSIS/NN/Include\arm_nnsupportfunctions.h ****                                          const int32_t dst_multiplier,
 398:C:/Renesas/e2studio_2021_01_workspace_RZA2M_ANPR/ANPR_RZA2M_EBK/src/tensorflow_lite/third_party/cmsis/CMSIS/NN/Include\arm_nnsupportfunctions.h ****                                          const int32_t dst_shift,
 399:C:/Renesas/e2studio_2021_01_workspace_RZA2M_ANPR/ANPR_RZA2M_EBK/src/tensorflow_lite/third_party/cmsis/CMSIS/NN/Include\arm_nnsupportfunctions.h ****                                          const int32_t rhs_cols,
 400:C:/Renesas/e2studio_2021_01_workspace_RZA2M_ANPR/ANPR_RZA2M_EBK/src/tensorflow_lite/third_party/cmsis/CMSIS/NN/Include\arm_nnsupportfunctions.h ****                                          const int32_t rhs_rows,
 401:C:/Renesas/e2studio_2021_01_workspace_RZA2M_ANPR/ANPR_RZA2M_EBK/src/tensorflow_lite/third_party/cmsis/CMSIS/NN/Include\arm_nnsupportfunctions.h ****                                          const int32_t activation_min,
 402:C:/Renesas/e2studio_2021_01_workspace_RZA2M_ANPR/ANPR_RZA2M_EBK/src/tensorflow_lite/third_party/cmsis/CMSIS/NN/Include\arm_nnsupportfunctions.h ****                                          const int32_t activation_max);
 403:C:/Renesas/e2studio_2021_01_workspace_RZA2M_ANPR/ANPR_RZA2M_EBK/src/tensorflow_lite/third_party/cmsis/CMSIS/NN/Include\arm_nnsupportfunctions.h **** 
 404:C:/Renesas/e2studio_2021_01_workspace_RZA2M_ANPR/ANPR_RZA2M_EBK/src/tensorflow_lite/third_party/cmsis/CMSIS/NN/Include\arm_nnsupportfunctions.h **** /**
 405:C:/Renesas/e2studio_2021_01_workspace_RZA2M_ANPR/ANPR_RZA2M_EBK/src/tensorflow_lite/third_party/cmsis/CMSIS/NN/Include\arm_nnsupportfunctions.h ****  * @brief Depthwise convolution of transposed rhs matrix with 4 lhs matrices. To be used in padded 
 406:C:/Renesas/e2studio_2021_01_workspace_RZA2M_ANPR/ANPR_RZA2M_EBK/src/tensorflow_lite/third_party/cmsis/CMSIS/NN/Include\arm_nnsupportfunctions.h ****  *        the padding is -lhs_offset(Range: int8). Dimensions are the same for lhs and rhs.
 407:C:/Renesas/e2studio_2021_01_workspace_RZA2M_ANPR/ANPR_RZA2M_EBK/src/tensorflow_lite/third_party/cmsis/CMSIS/NN/Include\arm_nnsupportfunctions.h ****  *
 408:C:/Renesas/e2studio_2021_01_workspace_RZA2M_ANPR/ANPR_RZA2M_EBK/src/tensorflow_lite/third_party/cmsis/CMSIS/NN/Include\arm_nnsupportfunctions.h ****  * @param[in]      lhs             Input left-hand side matrix
 409:C:/Renesas/e2studio_2021_01_workspace_RZA2M_ANPR/ANPR_RZA2M_EBK/src/tensorflow_lite/third_party/cmsis/CMSIS/NN/Include\arm_nnsupportfunctions.h ****  * @param[in]      rhs             Input right-hand side matrix (transposed)
 410:C:/Renesas/e2studio_2021_01_workspace_RZA2M_ANPR/ANPR_RZA2M_EBK/src/tensorflow_lite/third_party/cmsis/CMSIS/NN/Include\arm_nnsupportfunctions.h ****  * @param[in]      lhs_offset      LHS matrix offset(input offset). Range: -127 to 128
 411:C:/Renesas/e2studio_2021_01_workspace_RZA2M_ANPR/ANPR_RZA2M_EBK/src/tensorflow_lite/third_party/cmsis/CMSIS/NN/Include\arm_nnsupportfunctions.h ****  * @param[in]      num_ch          Number of channels in LHS/RHS
 412:C:/Renesas/e2studio_2021_01_workspace_RZA2M_ANPR/ANPR_RZA2M_EBK/src/tensorflow_lite/third_party/cmsis/CMSIS/NN/Include\arm_nnsupportfunctions.h ****  * @param[in]      out_shift       Per channel output shift. Length of vector is equal to number of
 413:C:/Renesas/e2studio_2021_01_workspace_RZA2M_ANPR/ANPR_RZA2M_EBK/src/tensorflow_lite/third_party/cmsis/CMSIS/NN/Include\arm_nnsupportfunctions.h ****  * @param[in]      out_mult        Per channel output multiplier. Length of vector is equal to numb
 414:C:/Renesas/e2studio_2021_01_workspace_RZA2M_ANPR/ANPR_RZA2M_EBK/src/tensorflow_lite/third_party/cmsis/CMSIS/NN/Include\arm_nnsupportfunctions.h ****  * @param[in]      out_offset      Offset to be added to the output values. Range: -127 to 128
 415:C:/Renesas/e2studio_2021_01_workspace_RZA2M_ANPR/ANPR_RZA2M_EBK/src/tensorflow_lite/third_party/cmsis/CMSIS/NN/Include\arm_nnsupportfunctions.h ****  * @param[in]      activation_min  Minimum value to clamp the output to. Range: int8
 416:C:/Renesas/e2studio_2021_01_workspace_RZA2M_ANPR/ANPR_RZA2M_EBK/src/tensorflow_lite/third_party/cmsis/CMSIS/NN/Include\arm_nnsupportfunctions.h ****  * @param[in]      activation_max  Maximum value to clamp the output to. Range: int8
 417:C:/Renesas/e2studio_2021_01_workspace_RZA2M_ANPR/ANPR_RZA2M_EBK/src/tensorflow_lite/third_party/cmsis/CMSIS/NN/Include\arm_nnsupportfunctions.h ****  * @param[in]       row_x_col       (row_dimension * col_dimension) of LHS/RHS matrix
 418:C:/Renesas/e2studio_2021_01_workspace_RZA2M_ANPR/ANPR_RZA2M_EBK/src/tensorflow_lite/third_party/cmsis/CMSIS/NN/Include\arm_nnsupportfunctions.h ****  * @param[in]      output_bias     Per channel output bias. Length of vector is equal to number of 
 419:C:/Renesas/e2studio_2021_01_workspace_RZA2M_ANPR/ANPR_RZA2M_EBK/src/tensorflow_lite/third_party/cmsis/CMSIS/NN/Include\arm_nnsupportfunctions.h ****  * @param[in]      out             Output pointer
 420:C:/Renesas/e2studio_2021_01_workspace_RZA2M_ANPR/ANPR_RZA2M_EBK/src/tensorflow_lite/third_party/cmsis/CMSIS/NN/Include\arm_nnsupportfunctions.h ****  *
 421:C:/Renesas/e2studio_2021_01_workspace_RZA2M_ANPR/ANPR_RZA2M_EBK/src/tensorflow_lite/third_party/cmsis/CMSIS/NN/Include\arm_nnsupportfunctions.h ****  * @return         The function returns one of the two
 422:C:/Renesas/e2studio_2021_01_workspace_RZA2M_ANPR/ANPR_RZA2M_EBK/src/tensorflow_lite/third_party/cmsis/CMSIS/NN/Include\arm_nnsupportfunctions.h ****  *                  - Updated output pointer if an implementaiton is available
 423:C:/Renesas/e2studio_2021_01_workspace_RZA2M_ANPR/ANPR_RZA2M_EBK/src/tensorflow_lite/third_party/cmsis/CMSIS/NN/Include\arm_nnsupportfunctions.h ****  *                  - NULL if no implementation is available.
 424:C:/Renesas/e2studio_2021_01_workspace_RZA2M_ANPR/ANPR_RZA2M_EBK/src/tensorflow_lite/third_party/cmsis/CMSIS/NN/Include\arm_nnsupportfunctions.h ****  *
 425:C:/Renesas/e2studio_2021_01_workspace_RZA2M_ANPR/ANPR_RZA2M_EBK/src/tensorflow_lite/third_party/cmsis/CMSIS/NN/Include\arm_nnsupportfunctions.h ****  * @note           If number of channels is not a multiple of 4, upto 3 elements outside the bounda
 426:C:/Renesas/e2studio_2021_01_workspace_RZA2M_ANPR/ANPR_RZA2M_EBK/src/tensorflow_lite/third_party/cmsis/CMSIS/NN/Include\arm_nnsupportfunctions.h ****  * out for the following.
 427:C:/Renesas/e2studio_2021_01_workspace_RZA2M_ANPR/ANPR_RZA2M_EBK/src/tensorflow_lite/third_party/cmsis/CMSIS/NN/Include\arm_nnsupportfunctions.h ****  *                  - Output shift
 428:C:/Renesas/e2studio_2021_01_workspace_RZA2M_ANPR/ANPR_RZA2M_EBK/src/tensorflow_lite/third_party/cmsis/CMSIS/NN/Include\arm_nnsupportfunctions.h ****  *                  - Output multiplier
 429:C:/Renesas/e2studio_2021_01_workspace_RZA2M_ANPR/ANPR_RZA2M_EBK/src/tensorflow_lite/third_party/cmsis/CMSIS/NN/Include\arm_nnsupportfunctions.h ****  *                  - Output bias
 430:C:/Renesas/e2studio_2021_01_workspace_RZA2M_ANPR/ANPR_RZA2M_EBK/src/tensorflow_lite/third_party/cmsis/CMSIS/NN/Include\arm_nnsupportfunctions.h ****  *                  - rhs
 431:C:/Renesas/e2studio_2021_01_workspace_RZA2M_ANPR/ANPR_RZA2M_EBK/src/tensorflow_lite/third_party/cmsis/CMSIS/NN/Include\arm_nnsupportfunctions.h ****  */
 432:C:/Renesas/e2studio_2021_01_workspace_RZA2M_ANPR/ANPR_RZA2M_EBK/src/tensorflow_lite/third_party/cmsis/CMSIS/NN/Include\arm_nnsupportfunctions.h **** q7_t *arm_nn_depthwise_conv_nt_t_padded_s8(const q7_t *lhs,
 433:C:/Renesas/e2studio_2021_01_workspace_RZA2M_ANPR/ANPR_RZA2M_EBK/src/tensorflow_lite/third_party/cmsis/CMSIS/NN/Include\arm_nnsupportfunctions.h ****                                            const q7_t *rhs,
 434:C:/Renesas/e2studio_2021_01_workspace_RZA2M_ANPR/ANPR_RZA2M_EBK/src/tensorflow_lite/third_party/cmsis/CMSIS/NN/Include\arm_nnsupportfunctions.h ****                                            const int32_t lhs_offset,
 435:C:/Renesas/e2studio_2021_01_workspace_RZA2M_ANPR/ANPR_RZA2M_EBK/src/tensorflow_lite/third_party/cmsis/CMSIS/NN/Include\arm_nnsupportfunctions.h ****                                            const uint16_t num_ch,
 436:C:/Renesas/e2studio_2021_01_workspace_RZA2M_ANPR/ANPR_RZA2M_EBK/src/tensorflow_lite/third_party/cmsis/CMSIS/NN/Include\arm_nnsupportfunctions.h ****                                            const int32_t *out_shift,
 437:C:/Renesas/e2studio_2021_01_workspace_RZA2M_ANPR/ANPR_RZA2M_EBK/src/tensorflow_lite/third_party/cmsis/CMSIS/NN/Include\arm_nnsupportfunctions.h ****                                            const int32_t *out_mult,
 438:C:/Renesas/e2studio_2021_01_workspace_RZA2M_ANPR/ANPR_RZA2M_EBK/src/tensorflow_lite/third_party/cmsis/CMSIS/NN/Include\arm_nnsupportfunctions.h ****                                            const int32_t out_offset,
 439:C:/Renesas/e2studio_2021_01_workspace_RZA2M_ANPR/ANPR_RZA2M_EBK/src/tensorflow_lite/third_party/cmsis/CMSIS/NN/Include\arm_nnsupportfunctions.h ****                                            const int32_t activation_min,
 440:C:/Renesas/e2studio_2021_01_workspace_RZA2M_ANPR/ANPR_RZA2M_EBK/src/tensorflow_lite/third_party/cmsis/CMSIS/NN/Include\arm_nnsupportfunctions.h ****                                            const int32_t activation_max,
 441:C:/Renesas/e2studio_2021_01_workspace_RZA2M_ANPR/ANPR_RZA2M_EBK/src/tensorflow_lite/third_party/cmsis/CMSIS/NN/Include\arm_nnsupportfunctions.h ****                                            const uint16_t row_x_col,
 442:C:/Renesas/e2studio_2021_01_workspace_RZA2M_ANPR/ANPR_RZA2M_EBK/src/tensorflow_lite/third_party/cmsis/CMSIS/NN/Include\arm_nnsupportfunctions.h ****                                            const int32_t *const output_bias,
 443:C:/Renesas/e2studio_2021_01_workspace_RZA2M_ANPR/ANPR_RZA2M_EBK/src/tensorflow_lite/third_party/cmsis/CMSIS/NN/Include\arm_nnsupportfunctions.h ****                                            q7_t *out);
 444:C:/Renesas/e2studio_2021_01_workspace_RZA2M_ANPR/ANPR_RZA2M_EBK/src/tensorflow_lite/third_party/cmsis/CMSIS/NN/Include\arm_nnsupportfunctions.h **** 
 445:C:/Renesas/e2studio_2021_01_workspace_RZA2M_ANPR/ANPR_RZA2M_EBK/src/tensorflow_lite/third_party/cmsis/CMSIS/NN/Include\arm_nnsupportfunctions.h **** /**
 446:C:/Renesas/e2studio_2021_01_workspace_RZA2M_ANPR/ANPR_RZA2M_EBK/src/tensorflow_lite/third_party/cmsis/CMSIS/NN/Include\arm_nnsupportfunctions.h ****  * @brief Depthwise convolution of transposed rhs matrix with 4 lhs matrices. To be used in non-pad
 447:C:/Renesas/e2studio_2021_01_workspace_RZA2M_ANPR/ANPR_RZA2M_EBK/src/tensorflow_lite/third_party/cmsis/CMSIS/NN/Include\arm_nnsupportfunctions.h ****  *        Dimensions are the same for lhs and rhs.
 448:C:/Renesas/e2studio_2021_01_workspace_RZA2M_ANPR/ANPR_RZA2M_EBK/src/tensorflow_lite/third_party/cmsis/CMSIS/NN/Include\arm_nnsupportfunctions.h ****  *
 449:C:/Renesas/e2studio_2021_01_workspace_RZA2M_ANPR/ANPR_RZA2M_EBK/src/tensorflow_lite/third_party/cmsis/CMSIS/NN/Include\arm_nnsupportfunctions.h ****  * @param[in]      lhs             Input left-hand side matrix
 450:C:/Renesas/e2studio_2021_01_workspace_RZA2M_ANPR/ANPR_RZA2M_EBK/src/tensorflow_lite/third_party/cmsis/CMSIS/NN/Include\arm_nnsupportfunctions.h ****  * @param[in]      rhs             Input right-hand side matrix (transposed)
 451:C:/Renesas/e2studio_2021_01_workspace_RZA2M_ANPR/ANPR_RZA2M_EBK/src/tensorflow_lite/third_party/cmsis/CMSIS/NN/Include\arm_nnsupportfunctions.h ****  * @param[in]      lhs_offset      LHS matrix offset(input offset). Range: -127 to 128
 452:C:/Renesas/e2studio_2021_01_workspace_RZA2M_ANPR/ANPR_RZA2M_EBK/src/tensorflow_lite/third_party/cmsis/CMSIS/NN/Include\arm_nnsupportfunctions.h ****  * @param[in]      num_ch          Number of channels in LHS/RHS
 453:C:/Renesas/e2studio_2021_01_workspace_RZA2M_ANPR/ANPR_RZA2M_EBK/src/tensorflow_lite/third_party/cmsis/CMSIS/NN/Include\arm_nnsupportfunctions.h ****  * @param[in]      out_shift       Per channel output shift. Length of vector is equal to number of
 454:C:/Renesas/e2studio_2021_01_workspace_RZA2M_ANPR/ANPR_RZA2M_EBK/src/tensorflow_lite/third_party/cmsis/CMSIS/NN/Include\arm_nnsupportfunctions.h ****  * @param[in]      out_mult        Per channel output multiplier. Length of vector is equal to numb
 455:C:/Renesas/e2studio_2021_01_workspace_RZA2M_ANPR/ANPR_RZA2M_EBK/src/tensorflow_lite/third_party/cmsis/CMSIS/NN/Include\arm_nnsupportfunctions.h ****  * @param[in]      out_offset      Offset to be added to the output values. Range: -127 to 128
 456:C:/Renesas/e2studio_2021_01_workspace_RZA2M_ANPR/ANPR_RZA2M_EBK/src/tensorflow_lite/third_party/cmsis/CMSIS/NN/Include\arm_nnsupportfunctions.h ****  * @param[in]      activation_min  Minimum value to clamp the output to. Range: int8
 457:C:/Renesas/e2studio_2021_01_workspace_RZA2M_ANPR/ANPR_RZA2M_EBK/src/tensorflow_lite/third_party/cmsis/CMSIS/NN/Include\arm_nnsupportfunctions.h ****  * @param[in]      activation_max  Maximum value to clamp the output to. Range: int8
 458:C:/Renesas/e2studio_2021_01_workspace_RZA2M_ANPR/ANPR_RZA2M_EBK/src/tensorflow_lite/third_party/cmsis/CMSIS/NN/Include\arm_nnsupportfunctions.h ****  * @param[in]       row_x_col       (row_dimension * col_dimension) of LHS/RHS matrix
 459:C:/Renesas/e2studio_2021_01_workspace_RZA2M_ANPR/ANPR_RZA2M_EBK/src/tensorflow_lite/third_party/cmsis/CMSIS/NN/Include\arm_nnsupportfunctions.h ****  * @param[in]      output_bias     Per channel output bias. Length of vector is equal to number of 
 460:C:/Renesas/e2studio_2021_01_workspace_RZA2M_ANPR/ANPR_RZA2M_EBK/src/tensorflow_lite/third_party/cmsis/CMSIS/NN/Include\arm_nnsupportfunctions.h ****  * @param[in]      out             Output pointer
 461:C:/Renesas/e2studio_2021_01_workspace_RZA2M_ANPR/ANPR_RZA2M_EBK/src/tensorflow_lite/third_party/cmsis/CMSIS/NN/Include\arm_nnsupportfunctions.h ****  *
 462:C:/Renesas/e2studio_2021_01_workspace_RZA2M_ANPR/ANPR_RZA2M_EBK/src/tensorflow_lite/third_party/cmsis/CMSIS/NN/Include\arm_nnsupportfunctions.h ****  * @return         The function returns one of the two
 463:C:/Renesas/e2studio_2021_01_workspace_RZA2M_ANPR/ANPR_RZA2M_EBK/src/tensorflow_lite/third_party/cmsis/CMSIS/NN/Include\arm_nnsupportfunctions.h ****  *                  - Updated output pointer if an implementaiton is available
 464:C:/Renesas/e2studio_2021_01_workspace_RZA2M_ANPR/ANPR_RZA2M_EBK/src/tensorflow_lite/third_party/cmsis/CMSIS/NN/Include\arm_nnsupportfunctions.h ****  *                  - NULL if no implementation is available.
 465:C:/Renesas/e2studio_2021_01_workspace_RZA2M_ANPR/ANPR_RZA2M_EBK/src/tensorflow_lite/third_party/cmsis/CMSIS/NN/Include\arm_nnsupportfunctions.h ****  *
 466:C:/Renesas/e2studio_2021_01_workspace_RZA2M_ANPR/ANPR_RZA2M_EBK/src/tensorflow_lite/third_party/cmsis/CMSIS/NN/Include\arm_nnsupportfunctions.h ****  * @note           If number of channels is not a multiple of 4, upto 3 elements outside the bounda
 467:C:/Renesas/e2studio_2021_01_workspace_RZA2M_ANPR/ANPR_RZA2M_EBK/src/tensorflow_lite/third_party/cmsis/CMSIS/NN/Include\arm_nnsupportfunctions.h ****  * out for the following.
 468:C:/Renesas/e2studio_2021_01_workspace_RZA2M_ANPR/ANPR_RZA2M_EBK/src/tensorflow_lite/third_party/cmsis/CMSIS/NN/Include\arm_nnsupportfunctions.h ****  *                  - Output shift
 469:C:/Renesas/e2studio_2021_01_workspace_RZA2M_ANPR/ANPR_RZA2M_EBK/src/tensorflow_lite/third_party/cmsis/CMSIS/NN/Include\arm_nnsupportfunctions.h ****  *                  - Output multiplier
 470:C:/Renesas/e2studio_2021_01_workspace_RZA2M_ANPR/ANPR_RZA2M_EBK/src/tensorflow_lite/third_party/cmsis/CMSIS/NN/Include\arm_nnsupportfunctions.h ****  *                  - Output bias
 471:C:/Renesas/e2studio_2021_01_workspace_RZA2M_ANPR/ANPR_RZA2M_EBK/src/tensorflow_lite/third_party/cmsis/CMSIS/NN/Include\arm_nnsupportfunctions.h ****  *                  - rhs
 472:C:/Renesas/e2studio_2021_01_workspace_RZA2M_ANPR/ANPR_RZA2M_EBK/src/tensorflow_lite/third_party/cmsis/CMSIS/NN/Include\arm_nnsupportfunctions.h ****  */
 473:C:/Renesas/e2studio_2021_01_workspace_RZA2M_ANPR/ANPR_RZA2M_EBK/src/tensorflow_lite/third_party/cmsis/CMSIS/NN/Include\arm_nnsupportfunctions.h **** q7_t *arm_nn_depthwise_conv_nt_t_s8(const q7_t *lhs,
 474:C:/Renesas/e2studio_2021_01_workspace_RZA2M_ANPR/ANPR_RZA2M_EBK/src/tensorflow_lite/third_party/cmsis/CMSIS/NN/Include\arm_nnsupportfunctions.h ****                                     const q7_t *rhs,
 475:C:/Renesas/e2studio_2021_01_workspace_RZA2M_ANPR/ANPR_RZA2M_EBK/src/tensorflow_lite/third_party/cmsis/CMSIS/NN/Include\arm_nnsupportfunctions.h ****                                     const int32_t lhs_offset,
 476:C:/Renesas/e2studio_2021_01_workspace_RZA2M_ANPR/ANPR_RZA2M_EBK/src/tensorflow_lite/third_party/cmsis/CMSIS/NN/Include\arm_nnsupportfunctions.h ****                                     const uint16_t num_ch,
 477:C:/Renesas/e2studio_2021_01_workspace_RZA2M_ANPR/ANPR_RZA2M_EBK/src/tensorflow_lite/third_party/cmsis/CMSIS/NN/Include\arm_nnsupportfunctions.h ****                                     const int32_t *out_shift,
 478:C:/Renesas/e2studio_2021_01_workspace_RZA2M_ANPR/ANPR_RZA2M_EBK/src/tensorflow_lite/third_party/cmsis/CMSIS/NN/Include\arm_nnsupportfunctions.h ****                                     const int32_t *out_mult,
 479:C:/Renesas/e2studio_2021_01_workspace_RZA2M_ANPR/ANPR_RZA2M_EBK/src/tensorflow_lite/third_party/cmsis/CMSIS/NN/Include\arm_nnsupportfunctions.h ****                                     const int32_t out_offset,
 480:C:/Renesas/e2studio_2021_01_workspace_RZA2M_ANPR/ANPR_RZA2M_EBK/src/tensorflow_lite/third_party/cmsis/CMSIS/NN/Include\arm_nnsupportfunctions.h ****                                     const int32_t activation_min,
 481:C:/Renesas/e2studio_2021_01_workspace_RZA2M_ANPR/ANPR_RZA2M_EBK/src/tensorflow_lite/third_party/cmsis/CMSIS/NN/Include\arm_nnsupportfunctions.h ****                                     const int32_t activation_max,
 482:C:/Renesas/e2studio_2021_01_workspace_RZA2M_ANPR/ANPR_RZA2M_EBK/src/tensorflow_lite/third_party/cmsis/CMSIS/NN/Include\arm_nnsupportfunctions.h ****                                     const uint16_t row_x_col,
 483:C:/Renesas/e2studio_2021_01_workspace_RZA2M_ANPR/ANPR_RZA2M_EBK/src/tensorflow_lite/third_party/cmsis/CMSIS/NN/Include\arm_nnsupportfunctions.h ****                                     const int32_t *const output_bias,
 484:C:/Renesas/e2studio_2021_01_workspace_RZA2M_ANPR/ANPR_RZA2M_EBK/src/tensorflow_lite/third_party/cmsis/CMSIS/NN/Include\arm_nnsupportfunctions.h ****                                     q7_t *out);
 485:C:/Renesas/e2studio_2021_01_workspace_RZA2M_ANPR/ANPR_RZA2M_EBK/src/tensorflow_lite/third_party/cmsis/CMSIS/NN/Include\arm_nnsupportfunctions.h **** 
 486:C:/Renesas/e2studio_2021_01_workspace_RZA2M_ANPR/ANPR_RZA2M_EBK/src/tensorflow_lite/third_party/cmsis/CMSIS/NN/Include\arm_nnsupportfunctions.h **** /**
 487:C:/Renesas/e2studio_2021_01_workspace_RZA2M_ANPR/ANPR_RZA2M_EBK/src/tensorflow_lite/third_party/cmsis/CMSIS/NN/Include\arm_nnsupportfunctions.h ****   @brief         Read 2 q15 elements and post increment pointer.
 488:C:/Renesas/e2studio_2021_01_workspace_RZA2M_ANPR/ANPR_RZA2M_EBK/src/tensorflow_lite/third_party/cmsis/CMSIS/NN/Include\arm_nnsupportfunctions.h ****   @param[in]     in_q15   Pointer to pointer that holds address of input.
 489:C:/Renesas/e2studio_2021_01_workspace_RZA2M_ANPR/ANPR_RZA2M_EBK/src/tensorflow_lite/third_party/cmsis/CMSIS/NN/Include\arm_nnsupportfunctions.h ****   @return        q31 value
 490:C:/Renesas/e2studio_2021_01_workspace_RZA2M_ANPR/ANPR_RZA2M_EBK/src/tensorflow_lite/third_party/cmsis/CMSIS/NN/Include\arm_nnsupportfunctions.h ****  */
 491:C:/Renesas/e2studio_2021_01_workspace_RZA2M_ANPR/ANPR_RZA2M_EBK/src/tensorflow_lite/third_party/cmsis/CMSIS/NN/Include\arm_nnsupportfunctions.h **** __STATIC_FORCEINLINE q31_t arm_nn_read_q15x2_ia(const q15_t **in_q15)
 492:C:/Renesas/e2studio_2021_01_workspace_RZA2M_ANPR/ANPR_RZA2M_EBK/src/tensorflow_lite/third_party/cmsis/CMSIS/NN/Include\arm_nnsupportfunctions.h **** {
 493:C:/Renesas/e2studio_2021_01_workspace_RZA2M_ANPR/ANPR_RZA2M_EBK/src/tensorflow_lite/third_party/cmsis/CMSIS/NN/Include\arm_nnsupportfunctions.h ****     q31_t val;
 494:C:/Renesas/e2studio_2021_01_workspace_RZA2M_ANPR/ANPR_RZA2M_EBK/src/tensorflow_lite/third_party/cmsis/CMSIS/NN/Include\arm_nnsupportfunctions.h **** 
 495:C:/Renesas/e2studio_2021_01_workspace_RZA2M_ANPR/ANPR_RZA2M_EBK/src/tensorflow_lite/third_party/cmsis/CMSIS/NN/Include\arm_nnsupportfunctions.h ****     memcpy(&val, *in_q15, 4);
 496:C:/Renesas/e2studio_2021_01_workspace_RZA2M_ANPR/ANPR_RZA2M_EBK/src/tensorflow_lite/third_party/cmsis/CMSIS/NN/Include\arm_nnsupportfunctions.h ****     *in_q15 += 2;
 497:C:/Renesas/e2studio_2021_01_workspace_RZA2M_ANPR/ANPR_RZA2M_EBK/src/tensorflow_lite/third_party/cmsis/CMSIS/NN/Include\arm_nnsupportfunctions.h **** 
 498:C:/Renesas/e2studio_2021_01_workspace_RZA2M_ANPR/ANPR_RZA2M_EBK/src/tensorflow_lite/third_party/cmsis/CMSIS/NN/Include\arm_nnsupportfunctions.h ****     return (val);
 499:C:/Renesas/e2studio_2021_01_workspace_RZA2M_ANPR/ANPR_RZA2M_EBK/src/tensorflow_lite/third_party/cmsis/CMSIS/NN/Include\arm_nnsupportfunctions.h **** }
 500:C:/Renesas/e2studio_2021_01_workspace_RZA2M_ANPR/ANPR_RZA2M_EBK/src/tensorflow_lite/third_party/cmsis/CMSIS/NN/Include\arm_nnsupportfunctions.h **** 
 501:C:/Renesas/e2studio_2021_01_workspace_RZA2M_ANPR/ANPR_RZA2M_EBK/src/tensorflow_lite/third_party/cmsis/CMSIS/NN/Include\arm_nnsupportfunctions.h **** /**
 502:C:/Renesas/e2studio_2021_01_workspace_RZA2M_ANPR/ANPR_RZA2M_EBK/src/tensorflow_lite/third_party/cmsis/CMSIS/NN/Include\arm_nnsupportfunctions.h ****   @brief         Read 4 q7 from q7 pointer and post increment pointer.
 503:C:/Renesas/e2studio_2021_01_workspace_RZA2M_ANPR/ANPR_RZA2M_EBK/src/tensorflow_lite/third_party/cmsis/CMSIS/NN/Include\arm_nnsupportfunctions.h ****   @param[in]     in_q7       Pointer to pointer that holds address of input.
 504:C:/Renesas/e2studio_2021_01_workspace_RZA2M_ANPR/ANPR_RZA2M_EBK/src/tensorflow_lite/third_party/cmsis/CMSIS/NN/Include\arm_nnsupportfunctions.h ****   @return        q31 value
 505:C:/Renesas/e2studio_2021_01_workspace_RZA2M_ANPR/ANPR_RZA2M_EBK/src/tensorflow_lite/third_party/cmsis/CMSIS/NN/Include\arm_nnsupportfunctions.h ****  */
 506:C:/Renesas/e2studio_2021_01_workspace_RZA2M_ANPR/ANPR_RZA2M_EBK/src/tensorflow_lite/third_party/cmsis/CMSIS/NN/Include\arm_nnsupportfunctions.h **** __STATIC_FORCEINLINE q31_t arm_nn_read_q7x4_ia(const q7_t **in_q7)
 507:C:/Renesas/e2studio_2021_01_workspace_RZA2M_ANPR/ANPR_RZA2M_EBK/src/tensorflow_lite/third_party/cmsis/CMSIS/NN/Include\arm_nnsupportfunctions.h **** {
 508:C:/Renesas/e2studio_2021_01_workspace_RZA2M_ANPR/ANPR_RZA2M_EBK/src/tensorflow_lite/third_party/cmsis/CMSIS/NN/Include\arm_nnsupportfunctions.h ****     q31_t val;
 509:C:/Renesas/e2studio_2021_01_workspace_RZA2M_ANPR/ANPR_RZA2M_EBK/src/tensorflow_lite/third_party/cmsis/CMSIS/NN/Include\arm_nnsupportfunctions.h ****     memcpy(&val, *in_q7, 4);
 510:C:/Renesas/e2studio_2021_01_workspace_RZA2M_ANPR/ANPR_RZA2M_EBK/src/tensorflow_lite/third_party/cmsis/CMSIS/NN/Include\arm_nnsupportfunctions.h ****     *in_q7 += 4;
 511:C:/Renesas/e2studio_2021_01_workspace_RZA2M_ANPR/ANPR_RZA2M_EBK/src/tensorflow_lite/third_party/cmsis/CMSIS/NN/Include\arm_nnsupportfunctions.h **** 
 512:C:/Renesas/e2studio_2021_01_workspace_RZA2M_ANPR/ANPR_RZA2M_EBK/src/tensorflow_lite/third_party/cmsis/CMSIS/NN/Include\arm_nnsupportfunctions.h ****     return (val);
 513:C:/Renesas/e2studio_2021_01_workspace_RZA2M_ANPR/ANPR_RZA2M_EBK/src/tensorflow_lite/third_party/cmsis/CMSIS/NN/Include\arm_nnsupportfunctions.h **** }
 514:C:/Renesas/e2studio_2021_01_workspace_RZA2M_ANPR/ANPR_RZA2M_EBK/src/tensorflow_lite/third_party/cmsis/CMSIS/NN/Include\arm_nnsupportfunctions.h **** 
 515:C:/Renesas/e2studio_2021_01_workspace_RZA2M_ANPR/ANPR_RZA2M_EBK/src/tensorflow_lite/third_party/cmsis/CMSIS/NN/Include\arm_nnsupportfunctions.h **** /**
 516:C:/Renesas/e2studio_2021_01_workspace_RZA2M_ANPR/ANPR_RZA2M_EBK/src/tensorflow_lite/third_party/cmsis/CMSIS/NN/Include\arm_nnsupportfunctions.h ****   @brief         Read 2 q15 from q15 pointer.
 517:C:/Renesas/e2studio_2021_01_workspace_RZA2M_ANPR/ANPR_RZA2M_EBK/src/tensorflow_lite/third_party/cmsis/CMSIS/NN/Include\arm_nnsupportfunctions.h ****   @param[in]     in_q15   pointer to address of input.
 518:C:/Renesas/e2studio_2021_01_workspace_RZA2M_ANPR/ANPR_RZA2M_EBK/src/tensorflow_lite/third_party/cmsis/CMSIS/NN/Include\arm_nnsupportfunctions.h ****   @return        q31 value
 519:C:/Renesas/e2studio_2021_01_workspace_RZA2M_ANPR/ANPR_RZA2M_EBK/src/tensorflow_lite/third_party/cmsis/CMSIS/NN/Include\arm_nnsupportfunctions.h ****  */
 520:C:/Renesas/e2studio_2021_01_workspace_RZA2M_ANPR/ANPR_RZA2M_EBK/src/tensorflow_lite/third_party/cmsis/CMSIS/NN/Include\arm_nnsupportfunctions.h **** __STATIC_FORCEINLINE q31_t arm_nn_read_q15x2(const q15_t *in_q15)
 521:C:/Renesas/e2studio_2021_01_workspace_RZA2M_ANPR/ANPR_RZA2M_EBK/src/tensorflow_lite/third_party/cmsis/CMSIS/NN/Include\arm_nnsupportfunctions.h **** {
 522:C:/Renesas/e2studio_2021_01_workspace_RZA2M_ANPR/ANPR_RZA2M_EBK/src/tensorflow_lite/third_party/cmsis/CMSIS/NN/Include\arm_nnsupportfunctions.h ****     q31_t val;
 523:C:/Renesas/e2studio_2021_01_workspace_RZA2M_ANPR/ANPR_RZA2M_EBK/src/tensorflow_lite/third_party/cmsis/CMSIS/NN/Include\arm_nnsupportfunctions.h ****     memcpy(&val, in_q15, 4);
 524:C:/Renesas/e2studio_2021_01_workspace_RZA2M_ANPR/ANPR_RZA2M_EBK/src/tensorflow_lite/third_party/cmsis/CMSIS/NN/Include\arm_nnsupportfunctions.h **** 
 525:C:/Renesas/e2studio_2021_01_workspace_RZA2M_ANPR/ANPR_RZA2M_EBK/src/tensorflow_lite/third_party/cmsis/CMSIS/NN/Include\arm_nnsupportfunctions.h ****     return (val);
 526:C:/Renesas/e2studio_2021_01_workspace_RZA2M_ANPR/ANPR_RZA2M_EBK/src/tensorflow_lite/third_party/cmsis/CMSIS/NN/Include\arm_nnsupportfunctions.h **** }
 527:C:/Renesas/e2studio_2021_01_workspace_RZA2M_ANPR/ANPR_RZA2M_EBK/src/tensorflow_lite/third_party/cmsis/CMSIS/NN/Include\arm_nnsupportfunctions.h **** 
 528:C:/Renesas/e2studio_2021_01_workspace_RZA2M_ANPR/ANPR_RZA2M_EBK/src/tensorflow_lite/third_party/cmsis/CMSIS/NN/Include\arm_nnsupportfunctions.h **** /**
 529:C:/Renesas/e2studio_2021_01_workspace_RZA2M_ANPR/ANPR_RZA2M_EBK/src/tensorflow_lite/third_party/cmsis/CMSIS/NN/Include\arm_nnsupportfunctions.h ****   @brief         Read 4 q7 values.
 530:C:/Renesas/e2studio_2021_01_workspace_RZA2M_ANPR/ANPR_RZA2M_EBK/src/tensorflow_lite/third_party/cmsis/CMSIS/NN/Include\arm_nnsupportfunctions.h ****   @param[in]     in_q7       pointer to address of input.
 531:C:/Renesas/e2studio_2021_01_workspace_RZA2M_ANPR/ANPR_RZA2M_EBK/src/tensorflow_lite/third_party/cmsis/CMSIS/NN/Include\arm_nnsupportfunctions.h ****   @return        q31 value
 532:C:/Renesas/e2studio_2021_01_workspace_RZA2M_ANPR/ANPR_RZA2M_EBK/src/tensorflow_lite/third_party/cmsis/CMSIS/NN/Include\arm_nnsupportfunctions.h ****  */
 533:C:/Renesas/e2studio_2021_01_workspace_RZA2M_ANPR/ANPR_RZA2M_EBK/src/tensorflow_lite/third_party/cmsis/CMSIS/NN/Include\arm_nnsupportfunctions.h **** __STATIC_FORCEINLINE q31_t arm_nn_read_q7x4(const q7_t *in_q7)
 534:C:/Renesas/e2studio_2021_01_workspace_RZA2M_ANPR/ANPR_RZA2M_EBK/src/tensorflow_lite/third_party/cmsis/CMSIS/NN/Include\arm_nnsupportfunctions.h **** {
 535:C:/Renesas/e2studio_2021_01_workspace_RZA2M_ANPR/ANPR_RZA2M_EBK/src/tensorflow_lite/third_party/cmsis/CMSIS/NN/Include\arm_nnsupportfunctions.h ****     q31_t val;
 536:C:/Renesas/e2studio_2021_01_workspace_RZA2M_ANPR/ANPR_RZA2M_EBK/src/tensorflow_lite/third_party/cmsis/CMSIS/NN/Include\arm_nnsupportfunctions.h ****     memcpy(&val, in_q7, 4);
 537:C:/Renesas/e2studio_2021_01_workspace_RZA2M_ANPR/ANPR_RZA2M_EBK/src/tensorflow_lite/third_party/cmsis/CMSIS/NN/Include\arm_nnsupportfunctions.h **** 
 538:C:/Renesas/e2studio_2021_01_workspace_RZA2M_ANPR/ANPR_RZA2M_EBK/src/tensorflow_lite/third_party/cmsis/CMSIS/NN/Include\arm_nnsupportfunctions.h ****     return (val);
 539:C:/Renesas/e2studio_2021_01_workspace_RZA2M_ANPR/ANPR_RZA2M_EBK/src/tensorflow_lite/third_party/cmsis/CMSIS/NN/Include\arm_nnsupportfunctions.h **** }
 540:C:/Renesas/e2studio_2021_01_workspace_RZA2M_ANPR/ANPR_RZA2M_EBK/src/tensorflow_lite/third_party/cmsis/CMSIS/NN/Include\arm_nnsupportfunctions.h **** 
 541:C:/Renesas/e2studio_2021_01_workspace_RZA2M_ANPR/ANPR_RZA2M_EBK/src/tensorflow_lite/third_party/cmsis/CMSIS/NN/Include\arm_nnsupportfunctions.h **** /**
 542:C:/Renesas/e2studio_2021_01_workspace_RZA2M_ANPR/ANPR_RZA2M_EBK/src/tensorflow_lite/third_party/cmsis/CMSIS/NN/Include\arm_nnsupportfunctions.h ****  * @brief           memset optimized for MVE
 543:C:/Renesas/e2studio_2021_01_workspace_RZA2M_ANPR/ANPR_RZA2M_EBK/src/tensorflow_lite/third_party/cmsis/CMSIS/NN/Include\arm_nnsupportfunctions.h ****  * @param[in, out]  dst         Destination pointer
 544:C:/Renesas/e2studio_2021_01_workspace_RZA2M_ANPR/ANPR_RZA2M_EBK/src/tensorflow_lite/third_party/cmsis/CMSIS/NN/Include\arm_nnsupportfunctions.h ****  * @param[in]       val         Value to set
 545:C:/Renesas/e2studio_2021_01_workspace_RZA2M_ANPR/ANPR_RZA2M_EBK/src/tensorflow_lite/third_party/cmsis/CMSIS/NN/Include\arm_nnsupportfunctions.h ****  * @param[in]       block_size  Number of bytes to copy.
 546:C:/Renesas/e2studio_2021_01_workspace_RZA2M_ANPR/ANPR_RZA2M_EBK/src/tensorflow_lite/third_party/cmsis/CMSIS/NN/Include\arm_nnsupportfunctions.h ****  *
 547:C:/Renesas/e2studio_2021_01_workspace_RZA2M_ANPR/ANPR_RZA2M_EBK/src/tensorflow_lite/third_party/cmsis/CMSIS/NN/Include\arm_nnsupportfunctions.h ****  */
 548:C:/Renesas/e2studio_2021_01_workspace_RZA2M_ANPR/ANPR_RZA2M_EBK/src/tensorflow_lite/third_party/cmsis/CMSIS/NN/Include\arm_nnsupportfunctions.h **** __STATIC_FORCEINLINE void arm_memset_q7(q7_t *dst, const q7_t val, uint32_t block_size)
 549:C:/Renesas/e2studio_2021_01_workspace_RZA2M_ANPR/ANPR_RZA2M_EBK/src/tensorflow_lite/third_party/cmsis/CMSIS/NN/Include\arm_nnsupportfunctions.h **** {
 550:C:/Renesas/e2studio_2021_01_workspace_RZA2M_ANPR/ANPR_RZA2M_EBK/src/tensorflow_lite/third_party/cmsis/CMSIS/NN/Include\arm_nnsupportfunctions.h **** #if defined(ARM_MATH_MVEI)
 551:C:/Renesas/e2studio_2021_01_workspace_RZA2M_ANPR/ANPR_RZA2M_EBK/src/tensorflow_lite/third_party/cmsis/CMSIS/NN/Include\arm_nnsupportfunctions.h ****     __asm volatile("   vdup.8                  q0, %[set_val]             \n"
 552:C:/Renesas/e2studio_2021_01_workspace_RZA2M_ANPR/ANPR_RZA2M_EBK/src/tensorflow_lite/third_party/cmsis/CMSIS/NN/Include\arm_nnsupportfunctions.h ****                    "   wlstp.8                 lr, %[cnt], 1f             \n"
 553:C:/Renesas/e2studio_2021_01_workspace_RZA2M_ANPR/ANPR_RZA2M_EBK/src/tensorflow_lite/third_party/cmsis/CMSIS/NN/Include\arm_nnsupportfunctions.h ****                    "2:                                                    \n"
 554:C:/Renesas/e2studio_2021_01_workspace_RZA2M_ANPR/ANPR_RZA2M_EBK/src/tensorflow_lite/third_party/cmsis/CMSIS/NN/Include\arm_nnsupportfunctions.h ****                    "   vstrb.8                 q0, [%[in]], 16            \n"
 555:C:/Renesas/e2studio_2021_01_workspace_RZA2M_ANPR/ANPR_RZA2M_EBK/src/tensorflow_lite/third_party/cmsis/CMSIS/NN/Include\arm_nnsupportfunctions.h ****                    "   letp                    lr, 2b                     \n"
 556:C:/Renesas/e2studio_2021_01_workspace_RZA2M_ANPR/ANPR_RZA2M_EBK/src/tensorflow_lite/third_party/cmsis/CMSIS/NN/Include\arm_nnsupportfunctions.h ****                    "1:                                                    \n"
 557:C:/Renesas/e2studio_2021_01_workspace_RZA2M_ANPR/ANPR_RZA2M_EBK/src/tensorflow_lite/third_party/cmsis/CMSIS/NN/Include\arm_nnsupportfunctions.h ****                    : [ in ] "+r"(dst)
 558:C:/Renesas/e2studio_2021_01_workspace_RZA2M_ANPR/ANPR_RZA2M_EBK/src/tensorflow_lite/third_party/cmsis/CMSIS/NN/Include\arm_nnsupportfunctions.h ****                    : [ cnt ] "r"(block_size), [ set_val ] "r"(val)
 559:C:/Renesas/e2studio_2021_01_workspace_RZA2M_ANPR/ANPR_RZA2M_EBK/src/tensorflow_lite/third_party/cmsis/CMSIS/NN/Include\arm_nnsupportfunctions.h ****                    : "q0", "memory", "r14");
 560:C:/Renesas/e2studio_2021_01_workspace_RZA2M_ANPR/ANPR_RZA2M_EBK/src/tensorflow_lite/third_party/cmsis/CMSIS/NN/Include\arm_nnsupportfunctions.h **** #else
 561:C:/Renesas/e2studio_2021_01_workspace_RZA2M_ANPR/ANPR_RZA2M_EBK/src/tensorflow_lite/third_party/cmsis/CMSIS/NN/Include\arm_nnsupportfunctions.h ****     memset(dst, val, block_size);
 562:C:/Renesas/e2studio_2021_01_workspace_RZA2M_ANPR/ANPR_RZA2M_EBK/src/tensorflow_lite/third_party/cmsis/CMSIS/NN/Include\arm_nnsupportfunctions.h **** #endif
 563:C:/Renesas/e2studio_2021_01_workspace_RZA2M_ANPR/ANPR_RZA2M_EBK/src/tensorflow_lite/third_party/cmsis/CMSIS/NN/Include\arm_nnsupportfunctions.h **** }
 564:C:/Renesas/e2studio_2021_01_workspace_RZA2M_ANPR/ANPR_RZA2M_EBK/src/tensorflow_lite/third_party/cmsis/CMSIS/NN/Include\arm_nnsupportfunctions.h **** 
 565:C:/Renesas/e2studio_2021_01_workspace_RZA2M_ANPR/ANPR_RZA2M_EBK/src/tensorflow_lite/third_party/cmsis/CMSIS/NN/Include\arm_nnsupportfunctions.h **** #if defined(ARM_MATH_DSP)
 566:C:/Renesas/e2studio_2021_01_workspace_RZA2M_ANPR/ANPR_RZA2M_EBK/src/tensorflow_lite/third_party/cmsis/CMSIS/NN/Include\arm_nnsupportfunctions.h **** 
 567:C:/Renesas/e2studio_2021_01_workspace_RZA2M_ANPR/ANPR_RZA2M_EBK/src/tensorflow_lite/third_party/cmsis/CMSIS/NN/Include\arm_nnsupportfunctions.h **** /**
 568:C:/Renesas/e2studio_2021_01_workspace_RZA2M_ANPR/ANPR_RZA2M_EBK/src/tensorflow_lite/third_party/cmsis/CMSIS/NN/Include\arm_nnsupportfunctions.h ****  * @brief read and expand one q7 word into two q15 words
 569:C:/Renesas/e2studio_2021_01_workspace_RZA2M_ANPR/ANPR_RZA2M_EBK/src/tensorflow_lite/third_party/cmsis/CMSIS/NN/Include\arm_nnsupportfunctions.h ****  */
 570:C:/Renesas/e2studio_2021_01_workspace_RZA2M_ANPR/ANPR_RZA2M_EBK/src/tensorflow_lite/third_party/cmsis/CMSIS/NN/Include\arm_nnsupportfunctions.h **** 
 571:C:/Renesas/e2studio_2021_01_workspace_RZA2M_ANPR/ANPR_RZA2M_EBK/src/tensorflow_lite/third_party/cmsis/CMSIS/NN/Include\arm_nnsupportfunctions.h **** __STATIC_FORCEINLINE const q7_t *read_and_pad(const q7_t *source, q31_t *out1, q31_t *out2)
 572:C:/Renesas/e2studio_2021_01_workspace_RZA2M_ANPR/ANPR_RZA2M_EBK/src/tensorflow_lite/third_party/cmsis/CMSIS/NN/Include\arm_nnsupportfunctions.h **** {
 573:C:/Renesas/e2studio_2021_01_workspace_RZA2M_ANPR/ANPR_RZA2M_EBK/src/tensorflow_lite/third_party/cmsis/CMSIS/NN/Include\arm_nnsupportfunctions.h ****     q31_t inA = arm_nn_read_q7x4_ia(&source);
 574:C:/Renesas/e2studio_2021_01_workspace_RZA2M_ANPR/ANPR_RZA2M_EBK/src/tensorflow_lite/third_party/cmsis/CMSIS/NN/Include\arm_nnsupportfunctions.h ****     q31_t inAbuf1 = __SXTB16(__ROR((uint32_t)inA, 8));
 575:C:/Renesas/e2studio_2021_01_workspace_RZA2M_ANPR/ANPR_RZA2M_EBK/src/tensorflow_lite/third_party/cmsis/CMSIS/NN/Include\arm_nnsupportfunctions.h ****     q31_t inAbuf2 = __SXTB16(inA);
 576:C:/Renesas/e2studio_2021_01_workspace_RZA2M_ANPR/ANPR_RZA2M_EBK/src/tensorflow_lite/third_party/cmsis/CMSIS/NN/Include\arm_nnsupportfunctions.h **** 
 577:C:/Renesas/e2studio_2021_01_workspace_RZA2M_ANPR/ANPR_RZA2M_EBK/src/tensorflow_lite/third_party/cmsis/CMSIS/NN/Include\arm_nnsupportfunctions.h **** #ifndef ARM_MATH_BIG_ENDIAN
 578:C:/Renesas/e2studio_2021_01_workspace_RZA2M_ANPR/ANPR_RZA2M_EBK/src/tensorflow_lite/third_party/cmsis/CMSIS/NN/Include\arm_nnsupportfunctions.h ****     *out2 = (int32_t)(__PKHTB(inAbuf1, inAbuf2, 16));
 579:C:/Renesas/e2studio_2021_01_workspace_RZA2M_ANPR/ANPR_RZA2M_EBK/src/tensorflow_lite/third_party/cmsis/CMSIS/NN/Include\arm_nnsupportfunctions.h ****     *out1 = (int32_t)(__PKHBT(inAbuf2, inAbuf1, 16));
 580:C:/Renesas/e2studio_2021_01_workspace_RZA2M_ANPR/ANPR_RZA2M_EBK/src/tensorflow_lite/third_party/cmsis/CMSIS/NN/Include\arm_nnsupportfunctions.h **** #else
 581:C:/Renesas/e2studio_2021_01_workspace_RZA2M_ANPR/ANPR_RZA2M_EBK/src/tensorflow_lite/third_party/cmsis/CMSIS/NN/Include\arm_nnsupportfunctions.h ****     *out1 = (int32_t)(__PKHTB(inAbuf1, inAbuf2, 16));
 582:C:/Renesas/e2studio_2021_01_workspace_RZA2M_ANPR/ANPR_RZA2M_EBK/src/tensorflow_lite/third_party/cmsis/CMSIS/NN/Include\arm_nnsupportfunctions.h ****     *out2 = (int32_t)(__PKHBT(inAbuf2, inAbuf1, 16));
 583:C:/Renesas/e2studio_2021_01_workspace_RZA2M_ANPR/ANPR_RZA2M_EBK/src/tensorflow_lite/third_party/cmsis/CMSIS/NN/Include\arm_nnsupportfunctions.h **** #endif
 584:C:/Renesas/e2studio_2021_01_workspace_RZA2M_ANPR/ANPR_RZA2M_EBK/src/tensorflow_lite/third_party/cmsis/CMSIS/NN/Include\arm_nnsupportfunctions.h **** 
 585:C:/Renesas/e2studio_2021_01_workspace_RZA2M_ANPR/ANPR_RZA2M_EBK/src/tensorflow_lite/third_party/cmsis/CMSIS/NN/Include\arm_nnsupportfunctions.h ****     return source;
 586:C:/Renesas/e2studio_2021_01_workspace_RZA2M_ANPR/ANPR_RZA2M_EBK/src/tensorflow_lite/third_party/cmsis/CMSIS/NN/Include\arm_nnsupportfunctions.h **** }
 587:C:/Renesas/e2studio_2021_01_workspace_RZA2M_ANPR/ANPR_RZA2M_EBK/src/tensorflow_lite/third_party/cmsis/CMSIS/NN/Include\arm_nnsupportfunctions.h **** 
 588:C:/Renesas/e2studio_2021_01_workspace_RZA2M_ANPR/ANPR_RZA2M_EBK/src/tensorflow_lite/third_party/cmsis/CMSIS/NN/Include\arm_nnsupportfunctions.h **** /**
 589:C:/Renesas/e2studio_2021_01_workspace_RZA2M_ANPR/ANPR_RZA2M_EBK/src/tensorflow_lite/third_party/cmsis/CMSIS/NN/Include\arm_nnsupportfunctions.h ****  * @brief read and expand one q7 word into two q15 words with reordering
 590:C:/Renesas/e2studio_2021_01_workspace_RZA2M_ANPR/ANPR_RZA2M_EBK/src/tensorflow_lite/third_party/cmsis/CMSIS/NN/Include\arm_nnsupportfunctions.h ****  */
 591:C:/Renesas/e2studio_2021_01_workspace_RZA2M_ANPR/ANPR_RZA2M_EBK/src/tensorflow_lite/third_party/cmsis/CMSIS/NN/Include\arm_nnsupportfunctions.h **** 
 592:C:/Renesas/e2studio_2021_01_workspace_RZA2M_ANPR/ANPR_RZA2M_EBK/src/tensorflow_lite/third_party/cmsis/CMSIS/NN/Include\arm_nnsupportfunctions.h **** __STATIC_FORCEINLINE const q7_t *read_and_pad_reordered(const q7_t *source, q31_t *out1, q31_t *out
 593:C:/Renesas/e2studio_2021_01_workspace_RZA2M_ANPR/ANPR_RZA2M_EBK/src/tensorflow_lite/third_party/cmsis/CMSIS/NN/Include\arm_nnsupportfunctions.h **** {
 594:C:/Renesas/e2studio_2021_01_workspace_RZA2M_ANPR/ANPR_RZA2M_EBK/src/tensorflow_lite/third_party/cmsis/CMSIS/NN/Include\arm_nnsupportfunctions.h ****     q31_t inA = arm_nn_read_q7x4_ia(&source);
 595:C:/Renesas/e2studio_2021_01_workspace_RZA2M_ANPR/ANPR_RZA2M_EBK/src/tensorflow_lite/third_party/cmsis/CMSIS/NN/Include\arm_nnsupportfunctions.h **** #ifndef ARM_MATH_BIG_ENDIAN
 596:C:/Renesas/e2studio_2021_01_workspace_RZA2M_ANPR/ANPR_RZA2M_EBK/src/tensorflow_lite/third_party/cmsis/CMSIS/NN/Include\arm_nnsupportfunctions.h ****     *out2 = __SXTB16(__ROR((uint32_t)inA, 8));
 597:C:/Renesas/e2studio_2021_01_workspace_RZA2M_ANPR/ANPR_RZA2M_EBK/src/tensorflow_lite/third_party/cmsis/CMSIS/NN/Include\arm_nnsupportfunctions.h ****     *out1 = __SXTB16(inA);
 598:C:/Renesas/e2studio_2021_01_workspace_RZA2M_ANPR/ANPR_RZA2M_EBK/src/tensorflow_lite/third_party/cmsis/CMSIS/NN/Include\arm_nnsupportfunctions.h **** #else
 599:C:/Renesas/e2studio_2021_01_workspace_RZA2M_ANPR/ANPR_RZA2M_EBK/src/tensorflow_lite/third_party/cmsis/CMSIS/NN/Include\arm_nnsupportfunctions.h ****     *out1 = __SXTB16(__ROR((uint32_t)inA, 8));
 600:C:/Renesas/e2studio_2021_01_workspace_RZA2M_ANPR/ANPR_RZA2M_EBK/src/tensorflow_lite/third_party/cmsis/CMSIS/NN/Include\arm_nnsupportfunctions.h ****     *out2 = __SXTB16(inA);
 601:C:/Renesas/e2studio_2021_01_workspace_RZA2M_ANPR/ANPR_RZA2M_EBK/src/tensorflow_lite/third_party/cmsis/CMSIS/NN/Include\arm_nnsupportfunctions.h **** #endif
 602:C:/Renesas/e2studio_2021_01_workspace_RZA2M_ANPR/ANPR_RZA2M_EBK/src/tensorflow_lite/third_party/cmsis/CMSIS/NN/Include\arm_nnsupportfunctions.h **** 
 603:C:/Renesas/e2studio_2021_01_workspace_RZA2M_ANPR/ANPR_RZA2M_EBK/src/tensorflow_lite/third_party/cmsis/CMSIS/NN/Include\arm_nnsupportfunctions.h ****     return source;
 604:C:/Renesas/e2studio_2021_01_workspace_RZA2M_ANPR/ANPR_RZA2M_EBK/src/tensorflow_lite/third_party/cmsis/CMSIS/NN/Include\arm_nnsupportfunctions.h **** }
 605:C:/Renesas/e2studio_2021_01_workspace_RZA2M_ANPR/ANPR_RZA2M_EBK/src/tensorflow_lite/third_party/cmsis/CMSIS/NN/Include\arm_nnsupportfunctions.h **** 
 606:C:/Renesas/e2studio_2021_01_workspace_RZA2M_ANPR/ANPR_RZA2M_EBK/src/tensorflow_lite/third_party/cmsis/CMSIS/NN/Include\arm_nnsupportfunctions.h **** /**
 607:C:/Renesas/e2studio_2021_01_workspace_RZA2M_ANPR/ANPR_RZA2M_EBK/src/tensorflow_lite/third_party/cmsis/CMSIS/NN/Include\arm_nnsupportfunctions.h ****  * @brief read and expand one q7 word into two q15 words with reordering and add an offset
 608:C:/Renesas/e2studio_2021_01_workspace_RZA2M_ANPR/ANPR_RZA2M_EBK/src/tensorflow_lite/third_party/cmsis/CMSIS/NN/Include\arm_nnsupportfunctions.h ****  */
 609:C:/Renesas/e2studio_2021_01_workspace_RZA2M_ANPR/ANPR_RZA2M_EBK/src/tensorflow_lite/third_party/cmsis/CMSIS/NN/Include\arm_nnsupportfunctions.h **** __STATIC_FORCEINLINE const q7_t *
 610:C:/Renesas/e2studio_2021_01_workspace_RZA2M_ANPR/ANPR_RZA2M_EBK/src/tensorflow_lite/third_party/cmsis/CMSIS/NN/Include\arm_nnsupportfunctions.h **** read_and_pad_reordered_with_offset(const q7_t *source, q31_t *out1, q31_t *out2, q31_t offset)
 611:C:/Renesas/e2studio_2021_01_workspace_RZA2M_ANPR/ANPR_RZA2M_EBK/src/tensorflow_lite/third_party/cmsis/CMSIS/NN/Include\arm_nnsupportfunctions.h **** {
 612:C:/Renesas/e2studio_2021_01_workspace_RZA2M_ANPR/ANPR_RZA2M_EBK/src/tensorflow_lite/third_party/cmsis/CMSIS/NN/Include\arm_nnsupportfunctions.h ****     q31_t inA = arm_nn_read_q7x4_ia(&source);
 613:C:/Renesas/e2studio_2021_01_workspace_RZA2M_ANPR/ANPR_RZA2M_EBK/src/tensorflow_lite/third_party/cmsis/CMSIS/NN/Include\arm_nnsupportfunctions.h **** 
 614:C:/Renesas/e2studio_2021_01_workspace_RZA2M_ANPR/ANPR_RZA2M_EBK/src/tensorflow_lite/third_party/cmsis/CMSIS/NN/Include\arm_nnsupportfunctions.h **** #ifndef ARM_MATH_BIG_ENDIAN
 615:C:/Renesas/e2studio_2021_01_workspace_RZA2M_ANPR/ANPR_RZA2M_EBK/src/tensorflow_lite/third_party/cmsis/CMSIS/NN/Include\arm_nnsupportfunctions.h ****     *out2 = __SXTB16(__ROR((uint32_t)inA, 8));
 616:C:/Renesas/e2studio_2021_01_workspace_RZA2M_ANPR/ANPR_RZA2M_EBK/src/tensorflow_lite/third_party/cmsis/CMSIS/NN/Include\arm_nnsupportfunctions.h ****     *out1 = __SXTB16(inA);
 617:C:/Renesas/e2studio_2021_01_workspace_RZA2M_ANPR/ANPR_RZA2M_EBK/src/tensorflow_lite/third_party/cmsis/CMSIS/NN/Include\arm_nnsupportfunctions.h **** #else
 618:C:/Renesas/e2studio_2021_01_workspace_RZA2M_ANPR/ANPR_RZA2M_EBK/src/tensorflow_lite/third_party/cmsis/CMSIS/NN/Include\arm_nnsupportfunctions.h ****     *out1 = __SXTB16(__ROR((uint32_t)inA, 8));
 619:C:/Renesas/e2studio_2021_01_workspace_RZA2M_ANPR/ANPR_RZA2M_EBK/src/tensorflow_lite/third_party/cmsis/CMSIS/NN/Include\arm_nnsupportfunctions.h ****     *out2 = __SXTB16(inA);
 620:C:/Renesas/e2studio_2021_01_workspace_RZA2M_ANPR/ANPR_RZA2M_EBK/src/tensorflow_lite/third_party/cmsis/CMSIS/NN/Include\arm_nnsupportfunctions.h **** #endif
 621:C:/Renesas/e2studio_2021_01_workspace_RZA2M_ANPR/ANPR_RZA2M_EBK/src/tensorflow_lite/third_party/cmsis/CMSIS/NN/Include\arm_nnsupportfunctions.h ****     *out1 = __QADD16(*out1, offset);
 622:C:/Renesas/e2studio_2021_01_workspace_RZA2M_ANPR/ANPR_RZA2M_EBK/src/tensorflow_lite/third_party/cmsis/CMSIS/NN/Include\arm_nnsupportfunctions.h ****     *out2 = __QADD16(*out2, offset);
 623:C:/Renesas/e2studio_2021_01_workspace_RZA2M_ANPR/ANPR_RZA2M_EBK/src/tensorflow_lite/third_party/cmsis/CMSIS/NN/Include\arm_nnsupportfunctions.h **** 
 624:C:/Renesas/e2studio_2021_01_workspace_RZA2M_ANPR/ANPR_RZA2M_EBK/src/tensorflow_lite/third_party/cmsis/CMSIS/NN/Include\arm_nnsupportfunctions.h ****     return source;
 625:C:/Renesas/e2studio_2021_01_workspace_RZA2M_ANPR/ANPR_RZA2M_EBK/src/tensorflow_lite/third_party/cmsis/CMSIS/NN/Include\arm_nnsupportfunctions.h **** }
 626:C:/Renesas/e2studio_2021_01_workspace_RZA2M_ANPR/ANPR_RZA2M_EBK/src/tensorflow_lite/third_party/cmsis/CMSIS/NN/Include\arm_nnsupportfunctions.h **** 
 627:C:/Renesas/e2studio_2021_01_workspace_RZA2M_ANPR/ANPR_RZA2M_EBK/src/tensorflow_lite/third_party/cmsis/CMSIS/NN/Include\arm_nnsupportfunctions.h **** #endif
 628:C:/Renesas/e2studio_2021_01_workspace_RZA2M_ANPR/ANPR_RZA2M_EBK/src/tensorflow_lite/third_party/cmsis/CMSIS/NN/Include\arm_nnsupportfunctions.h **** 
 629:C:/Renesas/e2studio_2021_01_workspace_RZA2M_ANPR/ANPR_RZA2M_EBK/src/tensorflow_lite/third_party/cmsis/CMSIS/NN/Include\arm_nnsupportfunctions.h **** /**
 630:C:/Renesas/e2studio_2021_01_workspace_RZA2M_ANPR/ANPR_RZA2M_EBK/src/tensorflow_lite/third_party/cmsis/CMSIS/NN/Include\arm_nnsupportfunctions.h ****  * @defgroup NNBasicMath Basic Math Functions for Neural Network Computation
 631:C:/Renesas/e2studio_2021_01_workspace_RZA2M_ANPR/ANPR_RZA2M_EBK/src/tensorflow_lite/third_party/cmsis/CMSIS/NN/Include\arm_nnsupportfunctions.h ****  *
 632:C:/Renesas/e2studio_2021_01_workspace_RZA2M_ANPR/ANPR_RZA2M_EBK/src/tensorflow_lite/third_party/cmsis/CMSIS/NN/Include\arm_nnsupportfunctions.h ****  * Basic Math Functions for Neural Network Computation
 633:C:/Renesas/e2studio_2021_01_workspace_RZA2M_ANPR/ANPR_RZA2M_EBK/src/tensorflow_lite/third_party/cmsis/CMSIS/NN/Include\arm_nnsupportfunctions.h ****  *
 634:C:/Renesas/e2studio_2021_01_workspace_RZA2M_ANPR/ANPR_RZA2M_EBK/src/tensorflow_lite/third_party/cmsis/CMSIS/NN/Include\arm_nnsupportfunctions.h ****  */
 635:C:/Renesas/e2studio_2021_01_workspace_RZA2M_ANPR/ANPR_RZA2M_EBK/src/tensorflow_lite/third_party/cmsis/CMSIS/NN/Include\arm_nnsupportfunctions.h **** 
 636:C:/Renesas/e2studio_2021_01_workspace_RZA2M_ANPR/ANPR_RZA2M_EBK/src/tensorflow_lite/third_party/cmsis/CMSIS/NN/Include\arm_nnsupportfunctions.h **** /**
 637:C:/Renesas/e2studio_2021_01_workspace_RZA2M_ANPR/ANPR_RZA2M_EBK/src/tensorflow_lite/third_party/cmsis/CMSIS/NN/Include\arm_nnsupportfunctions.h ****  * @brief           q7 vector multiplication with variable output shifts
 638:C:/Renesas/e2studio_2021_01_workspace_RZA2M_ANPR/ANPR_RZA2M_EBK/src/tensorflow_lite/third_party/cmsis/CMSIS/NN/Include\arm_nnsupportfunctions.h ****  * @param[in]       *pSrcA        pointer to the first input vector
 639:C:/Renesas/e2studio_2021_01_workspace_RZA2M_ANPR/ANPR_RZA2M_EBK/src/tensorflow_lite/third_party/cmsis/CMSIS/NN/Include\arm_nnsupportfunctions.h ****  * @param[in]       *pSrcB        pointer to the second input vector
 640:C:/Renesas/e2studio_2021_01_workspace_RZA2M_ANPR/ANPR_RZA2M_EBK/src/tensorflow_lite/third_party/cmsis/CMSIS/NN/Include\arm_nnsupportfunctions.h ****  * @param[out]      *pDst         pointer to the output vector
 641:C:/Renesas/e2studio_2021_01_workspace_RZA2M_ANPR/ANPR_RZA2M_EBK/src/tensorflow_lite/third_party/cmsis/CMSIS/NN/Include\arm_nnsupportfunctions.h ****  * @param[in]       out_shift     amount of right-shift for output
 642:C:/Renesas/e2studio_2021_01_workspace_RZA2M_ANPR/ANPR_RZA2M_EBK/src/tensorflow_lite/third_party/cmsis/CMSIS/NN/Include\arm_nnsupportfunctions.h ****  * @param[in]       blockSize     number of samples in each vector
 643:C:/Renesas/e2studio_2021_01_workspace_RZA2M_ANPR/ANPR_RZA2M_EBK/src/tensorflow_lite/third_party/cmsis/CMSIS/NN/Include\arm_nnsupportfunctions.h ****  * @return none.
 644:C:/Renesas/e2studio_2021_01_workspace_RZA2M_ANPR/ANPR_RZA2M_EBK/src/tensorflow_lite/third_party/cmsis/CMSIS/NN/Include\arm_nnsupportfunctions.h ****  *
 645:C:/Renesas/e2studio_2021_01_workspace_RZA2M_ANPR/ANPR_RZA2M_EBK/src/tensorflow_lite/third_party/cmsis/CMSIS/NN/Include\arm_nnsupportfunctions.h ****  * <b>Scaling and Overflow Behavior:</b>
 646:C:/Renesas/e2studio_2021_01_workspace_RZA2M_ANPR/ANPR_RZA2M_EBK/src/tensorflow_lite/third_party/cmsis/CMSIS/NN/Include\arm_nnsupportfunctions.h ****  * \par
 647:C:/Renesas/e2studio_2021_01_workspace_RZA2M_ANPR/ANPR_RZA2M_EBK/src/tensorflow_lite/third_party/cmsis/CMSIS/NN/Include\arm_nnsupportfunctions.h ****  * The function uses saturating arithmetic.
 648:C:/Renesas/e2studio_2021_01_workspace_RZA2M_ANPR/ANPR_RZA2M_EBK/src/tensorflow_lite/third_party/cmsis/CMSIS/NN/Include\arm_nnsupportfunctions.h ****  * Results outside of the allowable q15 range [0x8000 0x7FFF] will be saturated.
 649:C:/Renesas/e2studio_2021_01_workspace_RZA2M_ANPR/ANPR_RZA2M_EBK/src/tensorflow_lite/third_party/cmsis/CMSIS/NN/Include\arm_nnsupportfunctions.h ****  */
 650:C:/Renesas/e2studio_2021_01_workspace_RZA2M_ANPR/ANPR_RZA2M_EBK/src/tensorflow_lite/third_party/cmsis/CMSIS/NN/Include\arm_nnsupportfunctions.h **** 
 651:C:/Renesas/e2studio_2021_01_workspace_RZA2M_ANPR/ANPR_RZA2M_EBK/src/tensorflow_lite/third_party/cmsis/CMSIS/NN/Include\arm_nnsupportfunctions.h **** void arm_nn_mult_q15(q15_t *pSrcA, q15_t *pSrcB, q15_t *pDst, const uint16_t out_shift, uint32_t bl
 652:C:/Renesas/e2studio_2021_01_workspace_RZA2M_ANPR/ANPR_RZA2M_EBK/src/tensorflow_lite/third_party/cmsis/CMSIS/NN/Include\arm_nnsupportfunctions.h **** 
 653:C:/Renesas/e2studio_2021_01_workspace_RZA2M_ANPR/ANPR_RZA2M_EBK/src/tensorflow_lite/third_party/cmsis/CMSIS/NN/Include\arm_nnsupportfunctions.h **** /**
 654:C:/Renesas/e2studio_2021_01_workspace_RZA2M_ANPR/ANPR_RZA2M_EBK/src/tensorflow_lite/third_party/cmsis/CMSIS/NN/Include\arm_nnsupportfunctions.h ****  * @brief           q7 vector multiplication with variable output shifts
 655:C:/Renesas/e2studio_2021_01_workspace_RZA2M_ANPR/ANPR_RZA2M_EBK/src/tensorflow_lite/third_party/cmsis/CMSIS/NN/Include\arm_nnsupportfunctions.h ****  * @param[in]       *pSrcA        pointer to the first input vector
 656:C:/Renesas/e2studio_2021_01_workspace_RZA2M_ANPR/ANPR_RZA2M_EBK/src/tensorflow_lite/third_party/cmsis/CMSIS/NN/Include\arm_nnsupportfunctions.h ****  * @param[in]       *pSrcB        pointer to the second input vector
 657:C:/Renesas/e2studio_2021_01_workspace_RZA2M_ANPR/ANPR_RZA2M_EBK/src/tensorflow_lite/third_party/cmsis/CMSIS/NN/Include\arm_nnsupportfunctions.h ****  * @param[out]      *pDst         pointer to the output vector
 658:C:/Renesas/e2studio_2021_01_workspace_RZA2M_ANPR/ANPR_RZA2M_EBK/src/tensorflow_lite/third_party/cmsis/CMSIS/NN/Include\arm_nnsupportfunctions.h ****  * @param[in]       out_shift     amount of right-shift for output
 659:C:/Renesas/e2studio_2021_01_workspace_RZA2M_ANPR/ANPR_RZA2M_EBK/src/tensorflow_lite/third_party/cmsis/CMSIS/NN/Include\arm_nnsupportfunctions.h ****  * @param[in]       blockSize     number of samples in each vector
 660:C:/Renesas/e2studio_2021_01_workspace_RZA2M_ANPR/ANPR_RZA2M_EBK/src/tensorflow_lite/third_party/cmsis/CMSIS/NN/Include\arm_nnsupportfunctions.h ****  * @return none.
 661:C:/Renesas/e2studio_2021_01_workspace_RZA2M_ANPR/ANPR_RZA2M_EBK/src/tensorflow_lite/third_party/cmsis/CMSIS/NN/Include\arm_nnsupportfunctions.h ****  *
 662:C:/Renesas/e2studio_2021_01_workspace_RZA2M_ANPR/ANPR_RZA2M_EBK/src/tensorflow_lite/third_party/cmsis/CMSIS/NN/Include\arm_nnsupportfunctions.h ****  * <b>Scaling and Overflow Behavior:</b>
 663:C:/Renesas/e2studio_2021_01_workspace_RZA2M_ANPR/ANPR_RZA2M_EBK/src/tensorflow_lite/third_party/cmsis/CMSIS/NN/Include\arm_nnsupportfunctions.h ****  * \par
 664:C:/Renesas/e2studio_2021_01_workspace_RZA2M_ANPR/ANPR_RZA2M_EBK/src/tensorflow_lite/third_party/cmsis/CMSIS/NN/Include\arm_nnsupportfunctions.h ****  * The function uses saturating arithmetic.
 665:C:/Renesas/e2studio_2021_01_workspace_RZA2M_ANPR/ANPR_RZA2M_EBK/src/tensorflow_lite/third_party/cmsis/CMSIS/NN/Include\arm_nnsupportfunctions.h ****  * Results outside of the allowable q7 range [0x80 0x7F] will be saturated.
 666:C:/Renesas/e2studio_2021_01_workspace_RZA2M_ANPR/ANPR_RZA2M_EBK/src/tensorflow_lite/third_party/cmsis/CMSIS/NN/Include\arm_nnsupportfunctions.h ****  */
 667:C:/Renesas/e2studio_2021_01_workspace_RZA2M_ANPR/ANPR_RZA2M_EBK/src/tensorflow_lite/third_party/cmsis/CMSIS/NN/Include\arm_nnsupportfunctions.h **** 
 668:C:/Renesas/e2studio_2021_01_workspace_RZA2M_ANPR/ANPR_RZA2M_EBK/src/tensorflow_lite/third_party/cmsis/CMSIS/NN/Include\arm_nnsupportfunctions.h **** void arm_nn_mult_q7(q7_t *pSrcA, q7_t *pSrcB, q7_t *pDst, const uint16_t out_shift, uint32_t blockS
 669:C:/Renesas/e2studio_2021_01_workspace_RZA2M_ANPR/ANPR_RZA2M_EBK/src/tensorflow_lite/third_party/cmsis/CMSIS/NN/Include\arm_nnsupportfunctions.h **** 
 670:C:/Renesas/e2studio_2021_01_workspace_RZA2M_ANPR/ANPR_RZA2M_EBK/src/tensorflow_lite/third_party/cmsis/CMSIS/NN/Include\arm_nnsupportfunctions.h **** /**
 671:C:/Renesas/e2studio_2021_01_workspace_RZA2M_ANPR/ANPR_RZA2M_EBK/src/tensorflow_lite/third_party/cmsis/CMSIS/NN/Include\arm_nnsupportfunctions.h ****  * @brief macro for adding rounding offset
 672:C:/Renesas/e2studio_2021_01_workspace_RZA2M_ANPR/ANPR_RZA2M_EBK/src/tensorflow_lite/third_party/cmsis/CMSIS/NN/Include\arm_nnsupportfunctions.h ****  */
 673:C:/Renesas/e2studio_2021_01_workspace_RZA2M_ANPR/ANPR_RZA2M_EBK/src/tensorflow_lite/third_party/cmsis/CMSIS/NN/Include\arm_nnsupportfunctions.h **** #ifndef ARM_NN_TRUNCATE
 674:C:/Renesas/e2studio_2021_01_workspace_RZA2M_ANPR/ANPR_RZA2M_EBK/src/tensorflow_lite/third_party/cmsis/CMSIS/NN/Include\arm_nnsupportfunctions.h **** #define NN_ROUND(out_shift) ((0x1u << out_shift) >> 1)
 675:C:/Renesas/e2studio_2021_01_workspace_RZA2M_ANPR/ANPR_RZA2M_EBK/src/tensorflow_lite/third_party/cmsis/CMSIS/NN/Include\arm_nnsupportfunctions.h **** #else
 676:C:/Renesas/e2studio_2021_01_workspace_RZA2M_ANPR/ANPR_RZA2M_EBK/src/tensorflow_lite/third_party/cmsis/CMSIS/NN/Include\arm_nnsupportfunctions.h **** #define NN_ROUND(out_shift) 0
 677:C:/Renesas/e2studio_2021_01_workspace_RZA2M_ANPR/ANPR_RZA2M_EBK/src/tensorflow_lite/third_party/cmsis/CMSIS/NN/Include\arm_nnsupportfunctions.h **** #endif
 678:C:/Renesas/e2studio_2021_01_workspace_RZA2M_ANPR/ANPR_RZA2M_EBK/src/tensorflow_lite/third_party/cmsis/CMSIS/NN/Include\arm_nnsupportfunctions.h **** 
 679:C:/Renesas/e2studio_2021_01_workspace_RZA2M_ANPR/ANPR_RZA2M_EBK/src/tensorflow_lite/third_party/cmsis/CMSIS/NN/Include\arm_nnsupportfunctions.h **** // Macros for shortening quantization functions' names and avoid long lines
 680:C:/Renesas/e2studio_2021_01_workspace_RZA2M_ANPR/ANPR_RZA2M_EBK/src/tensorflow_lite/third_party/cmsis/CMSIS/NN/Include\arm_nnsupportfunctions.h **** #define MUL_SAT(a, b) arm_nn_doubling_high_mult((a), (b))
 681:C:/Renesas/e2studio_2021_01_workspace_RZA2M_ANPR/ANPR_RZA2M_EBK/src/tensorflow_lite/third_party/cmsis/CMSIS/NN/Include\arm_nnsupportfunctions.h **** #define MUL_SAT_MVE(a, b) arm_doubling_high_mult_mve_32x4((a), (b))
 682:C:/Renesas/e2studio_2021_01_workspace_RZA2M_ANPR/ANPR_RZA2M_EBK/src/tensorflow_lite/third_party/cmsis/CMSIS/NN/Include\arm_nnsupportfunctions.h **** #define MUL_POW2(a, b) arm_nn_mult_by_power_of_two((a), (b))
 683:C:/Renesas/e2studio_2021_01_workspace_RZA2M_ANPR/ANPR_RZA2M_EBK/src/tensorflow_lite/third_party/cmsis/CMSIS/NN/Include\arm_nnsupportfunctions.h **** 
 684:C:/Renesas/e2studio_2021_01_workspace_RZA2M_ANPR/ANPR_RZA2M_EBK/src/tensorflow_lite/third_party/cmsis/CMSIS/NN/Include\arm_nnsupportfunctions.h **** #define DIV_POW2(a, b) arm_nn_divide_by_power_of_two((a), (b))
 685:C:/Renesas/e2studio_2021_01_workspace_RZA2M_ANPR/ANPR_RZA2M_EBK/src/tensorflow_lite/third_party/cmsis/CMSIS/NN/Include\arm_nnsupportfunctions.h **** #define DIV_POW2_MVE(a, b) arm_divide_by_power_of_two_mve((a), (b))
 686:C:/Renesas/e2studio_2021_01_workspace_RZA2M_ANPR/ANPR_RZA2M_EBK/src/tensorflow_lite/third_party/cmsis/CMSIS/NN/Include\arm_nnsupportfunctions.h **** 
 687:C:/Renesas/e2studio_2021_01_workspace_RZA2M_ANPR/ANPR_RZA2M_EBK/src/tensorflow_lite/third_party/cmsis/CMSIS/NN/Include\arm_nnsupportfunctions.h **** #define EXP_ON_NEG(x) arm_nn_exp_on_negative_values((x))
 688:C:/Renesas/e2studio_2021_01_workspace_RZA2M_ANPR/ANPR_RZA2M_EBK/src/tensorflow_lite/third_party/cmsis/CMSIS/NN/Include\arm_nnsupportfunctions.h **** #define ONE_OVER1(x) arm_nn_one_over_one_plus_x_for_x_in_0_1((x))
 689:C:/Renesas/e2studio_2021_01_workspace_RZA2M_ANPR/ANPR_RZA2M_EBK/src/tensorflow_lite/third_party/cmsis/CMSIS/NN/Include\arm_nnsupportfunctions.h **** 
 690:C:/Renesas/e2studio_2021_01_workspace_RZA2M_ANPR/ANPR_RZA2M_EBK/src/tensorflow_lite/third_party/cmsis/CMSIS/NN/Include\arm_nnsupportfunctions.h **** /**
 691:C:/Renesas/e2studio_2021_01_workspace_RZA2M_ANPR/ANPR_RZA2M_EBK/src/tensorflow_lite/third_party/cmsis/CMSIS/NN/Include\arm_nnsupportfunctions.h ****  * @brief           Saturating doubling high multiply. Result matches
 692:C:/Renesas/e2studio_2021_01_workspace_RZA2M_ANPR/ANPR_RZA2M_EBK/src/tensorflow_lite/third_party/cmsis/CMSIS/NN/Include\arm_nnsupportfunctions.h ****  *                  NEON instruction VQRDMULH.
 693:C:/Renesas/e2studio_2021_01_workspace_RZA2M_ANPR/ANPR_RZA2M_EBK/src/tensorflow_lite/third_party/cmsis/CMSIS/NN/Include\arm_nnsupportfunctions.h ****  * @param[in]       m1        Multiplicand. Range: {Q31_MIN, Q31_MAX}
 694:C:/Renesas/e2studio_2021_01_workspace_RZA2M_ANPR/ANPR_RZA2M_EBK/src/tensorflow_lite/third_party/cmsis/CMSIS/NN/Include\arm_nnsupportfunctions.h ****  * @param[in]       m2        Multiplier. Range: {Q31_MIN, Q31_MAX}
 695:C:/Renesas/e2studio_2021_01_workspace_RZA2M_ANPR/ANPR_RZA2M_EBK/src/tensorflow_lite/third_party/cmsis/CMSIS/NN/Include\arm_nnsupportfunctions.h ****  * @return          Result of multiplication.
 696:C:/Renesas/e2studio_2021_01_workspace_RZA2M_ANPR/ANPR_RZA2M_EBK/src/tensorflow_lite/third_party/cmsis/CMSIS/NN/Include\arm_nnsupportfunctions.h ****  *
 697:C:/Renesas/e2studio_2021_01_workspace_RZA2M_ANPR/ANPR_RZA2M_EBK/src/tensorflow_lite/third_party/cmsis/CMSIS/NN/Include\arm_nnsupportfunctions.h ****  */
 698:C:/Renesas/e2studio_2021_01_workspace_RZA2M_ANPR/ANPR_RZA2M_EBK/src/tensorflow_lite/third_party/cmsis/CMSIS/NN/Include\arm_nnsupportfunctions.h **** __STATIC_FORCEINLINE q31_t arm_nn_doubling_high_mult(const q31_t m1, const q31_t m2)
 699:C:/Renesas/e2studio_2021_01_workspace_RZA2M_ANPR/ANPR_RZA2M_EBK/src/tensorflow_lite/third_party/cmsis/CMSIS/NN/Include\arm_nnsupportfunctions.h **** {
 700:C:/Renesas/e2studio_2021_01_workspace_RZA2M_ANPR/ANPR_RZA2M_EBK/src/tensorflow_lite/third_party/cmsis/CMSIS/NN/Include\arm_nnsupportfunctions.h ****     q31_t result = 0;
 701:C:/Renesas/e2studio_2021_01_workspace_RZA2M_ANPR/ANPR_RZA2M_EBK/src/tensorflow_lite/third_party/cmsis/CMSIS/NN/Include\arm_nnsupportfunctions.h ****     // Rounding offset to add for a right shift of 31
 702:C:/Renesas/e2studio_2021_01_workspace_RZA2M_ANPR/ANPR_RZA2M_EBK/src/tensorflow_lite/third_party/cmsis/CMSIS/NN/Include\arm_nnsupportfunctions.h ****     q63_t mult = 1 << 30;
 703:C:/Renesas/e2studio_2021_01_workspace_RZA2M_ANPR/ANPR_RZA2M_EBK/src/tensorflow_lite/third_party/cmsis/CMSIS/NN/Include\arm_nnsupportfunctions.h **** 
 704:C:/Renesas/e2studio_2021_01_workspace_RZA2M_ANPR/ANPR_RZA2M_EBK/src/tensorflow_lite/third_party/cmsis/CMSIS/NN/Include\arm_nnsupportfunctions.h ****     if ((m1 < 0) ^ (m2 < 0))
 705:C:/Renesas/e2studio_2021_01_workspace_RZA2M_ANPR/ANPR_RZA2M_EBK/src/tensorflow_lite/third_party/cmsis/CMSIS/NN/Include\arm_nnsupportfunctions.h ****     {
 706:C:/Renesas/e2studio_2021_01_workspace_RZA2M_ANPR/ANPR_RZA2M_EBK/src/tensorflow_lite/third_party/cmsis/CMSIS/NN/Include\arm_nnsupportfunctions.h ****         mult = 1 - mult;
 707:C:/Renesas/e2studio_2021_01_workspace_RZA2M_ANPR/ANPR_RZA2M_EBK/src/tensorflow_lite/third_party/cmsis/CMSIS/NN/Include\arm_nnsupportfunctions.h ****     }
 708:C:/Renesas/e2studio_2021_01_workspace_RZA2M_ANPR/ANPR_RZA2M_EBK/src/tensorflow_lite/third_party/cmsis/CMSIS/NN/Include\arm_nnsupportfunctions.h ****     // Gets resolved as a SMLAL instruction
 709:C:/Renesas/e2studio_2021_01_workspace_RZA2M_ANPR/ANPR_RZA2M_EBK/src/tensorflow_lite/third_party/cmsis/CMSIS/NN/Include\arm_nnsupportfunctions.h ****     mult = mult + (q63_t)m1 * m2;
 710:C:/Renesas/e2studio_2021_01_workspace_RZA2M_ANPR/ANPR_RZA2M_EBK/src/tensorflow_lite/third_party/cmsis/CMSIS/NN/Include\arm_nnsupportfunctions.h **** 
 711:C:/Renesas/e2studio_2021_01_workspace_RZA2M_ANPR/ANPR_RZA2M_EBK/src/tensorflow_lite/third_party/cmsis/CMSIS/NN/Include\arm_nnsupportfunctions.h ****     // Utilize all of the upper 32 bits. This is the doubling step
 712:C:/Renesas/e2studio_2021_01_workspace_RZA2M_ANPR/ANPR_RZA2M_EBK/src/tensorflow_lite/third_party/cmsis/CMSIS/NN/Include\arm_nnsupportfunctions.h ****     // as well.
 713:C:/Renesas/e2studio_2021_01_workspace_RZA2M_ANPR/ANPR_RZA2M_EBK/src/tensorflow_lite/third_party/cmsis/CMSIS/NN/Include\arm_nnsupportfunctions.h ****     result = (int32_t)(mult / (1ll << 31));
 714:C:/Renesas/e2studio_2021_01_workspace_RZA2M_ANPR/ANPR_RZA2M_EBK/src/tensorflow_lite/third_party/cmsis/CMSIS/NN/Include\arm_nnsupportfunctions.h **** 
 715:C:/Renesas/e2studio_2021_01_workspace_RZA2M_ANPR/ANPR_RZA2M_EBK/src/tensorflow_lite/third_party/cmsis/CMSIS/NN/Include\arm_nnsupportfunctions.h ****     if ((m1 == m2) && (m1 == (int32_t)Q31_MIN))
 716:C:/Renesas/e2studio_2021_01_workspace_RZA2M_ANPR/ANPR_RZA2M_EBK/src/tensorflow_lite/third_party/cmsis/CMSIS/NN/Include\arm_nnsupportfunctions.h ****     {
 717:C:/Renesas/e2studio_2021_01_workspace_RZA2M_ANPR/ANPR_RZA2M_EBK/src/tensorflow_lite/third_party/cmsis/CMSIS/NN/Include\arm_nnsupportfunctions.h ****         result = Q31_MAX;
 718:C:/Renesas/e2studio_2021_01_workspace_RZA2M_ANPR/ANPR_RZA2M_EBK/src/tensorflow_lite/third_party/cmsis/CMSIS/NN/Include\arm_nnsupportfunctions.h ****     }
 719:C:/Renesas/e2studio_2021_01_workspace_RZA2M_ANPR/ANPR_RZA2M_EBK/src/tensorflow_lite/third_party/cmsis/CMSIS/NN/Include\arm_nnsupportfunctions.h ****     return result;
 720:C:/Renesas/e2studio_2021_01_workspace_RZA2M_ANPR/ANPR_RZA2M_EBK/src/tensorflow_lite/third_party/cmsis/CMSIS/NN/Include\arm_nnsupportfunctions.h **** }
 721:C:/Renesas/e2studio_2021_01_workspace_RZA2M_ANPR/ANPR_RZA2M_EBK/src/tensorflow_lite/third_party/cmsis/CMSIS/NN/Include\arm_nnsupportfunctions.h **** 
 722:C:/Renesas/e2studio_2021_01_workspace_RZA2M_ANPR/ANPR_RZA2M_EBK/src/tensorflow_lite/third_party/cmsis/CMSIS/NN/Include\arm_nnsupportfunctions.h **** /**
 723:C:/Renesas/e2studio_2021_01_workspace_RZA2M_ANPR/ANPR_RZA2M_EBK/src/tensorflow_lite/third_party/cmsis/CMSIS/NN/Include\arm_nnsupportfunctions.h ****  * @brief           Doubling high multiply without saturation. This is intended
 724:C:/Renesas/e2studio_2021_01_workspace_RZA2M_ANPR/ANPR_RZA2M_EBK/src/tensorflow_lite/third_party/cmsis/CMSIS/NN/Include\arm_nnsupportfunctions.h ****  *                  for requantization where the scale is a positive integer
 725:C:/Renesas/e2studio_2021_01_workspace_RZA2M_ANPR/ANPR_RZA2M_EBK/src/tensorflow_lite/third_party/cmsis/CMSIS/NN/Include\arm_nnsupportfunctions.h ****  *
 726:C:/Renesas/e2studio_2021_01_workspace_RZA2M_ANPR/ANPR_RZA2M_EBK/src/tensorflow_lite/third_party/cmsis/CMSIS/NN/Include\arm_nnsupportfunctions.h ****  * @param[in]       m1        Multiplicand. Range: {Q31_MIN, Q31_MAX}
 727:C:/Renesas/e2studio_2021_01_workspace_RZA2M_ANPR/ANPR_RZA2M_EBK/src/tensorflow_lite/third_party/cmsis/CMSIS/NN/Include\arm_nnsupportfunctions.h ****  * @param[in]       m2        Multiplier Range: {Q31_MIN, Q31_MAX}
 728:C:/Renesas/e2studio_2021_01_workspace_RZA2M_ANPR/ANPR_RZA2M_EBK/src/tensorflow_lite/third_party/cmsis/CMSIS/NN/Include\arm_nnsupportfunctions.h ****  * @return          Result of multiplication.
 729:C:/Renesas/e2studio_2021_01_workspace_RZA2M_ANPR/ANPR_RZA2M_EBK/src/tensorflow_lite/third_party/cmsis/CMSIS/NN/Include\arm_nnsupportfunctions.h ****  * @note            The result of this matches that of neon instruction
 730:C:/Renesas/e2studio_2021_01_workspace_RZA2M_ANPR/ANPR_RZA2M_EBK/src/tensorflow_lite/third_party/cmsis/CMSIS/NN/Include\arm_nnsupportfunctions.h ****  *                  VQRDMULH for m1 in range {Q31_MIN, Q31_MAX} and m2 in
 731:C:/Renesas/e2studio_2021_01_workspace_RZA2M_ANPR/ANPR_RZA2M_EBK/src/tensorflow_lite/third_party/cmsis/CMSIS/NN/Include\arm_nnsupportfunctions.h ****  *                  range {Q31_MIN + 1, Q31_MAX}. Saturation occurs when
 732:C:/Renesas/e2studio_2021_01_workspace_RZA2M_ANPR/ANPR_RZA2M_EBK/src/tensorflow_lite/third_party/cmsis/CMSIS/NN/Include\arm_nnsupportfunctions.h ****  *                  m1 equals m2 equals Q31_MIN and that is not handled by
 733:C:/Renesas/e2studio_2021_01_workspace_RZA2M_ANPR/ANPR_RZA2M_EBK/src/tensorflow_lite/third_party/cmsis/CMSIS/NN/Include\arm_nnsupportfunctions.h ****  *                  this function.
 734:C:/Renesas/e2studio_2021_01_workspace_RZA2M_ANPR/ANPR_RZA2M_EBK/src/tensorflow_lite/third_party/cmsis/CMSIS/NN/Include\arm_nnsupportfunctions.h ****  *
 735:C:/Renesas/e2studio_2021_01_workspace_RZA2M_ANPR/ANPR_RZA2M_EBK/src/tensorflow_lite/third_party/cmsis/CMSIS/NN/Include\arm_nnsupportfunctions.h ****  */
 736:C:/Renesas/e2studio_2021_01_workspace_RZA2M_ANPR/ANPR_RZA2M_EBK/src/tensorflow_lite/third_party/cmsis/CMSIS/NN/Include\arm_nnsupportfunctions.h **** __STATIC_FORCEINLINE q31_t arm_nn_doubling_high_mult_no_sat(const q31_t m1, const q31_t m2)
 737:C:/Renesas/e2studio_2021_01_workspace_RZA2M_ANPR/ANPR_RZA2M_EBK/src/tensorflow_lite/third_party/cmsis/CMSIS/NN/Include\arm_nnsupportfunctions.h **** {
 738:C:/Renesas/e2studio_2021_01_workspace_RZA2M_ANPR/ANPR_RZA2M_EBK/src/tensorflow_lite/third_party/cmsis/CMSIS/NN/Include\arm_nnsupportfunctions.h ****     q31_t result = 0;
 739:C:/Renesas/e2studio_2021_01_workspace_RZA2M_ANPR/ANPR_RZA2M_EBK/src/tensorflow_lite/third_party/cmsis/CMSIS/NN/Include\arm_nnsupportfunctions.h ****     union arm_nn_long_long mult;
 740:C:/Renesas/e2studio_2021_01_workspace_RZA2M_ANPR/ANPR_RZA2M_EBK/src/tensorflow_lite/third_party/cmsis/CMSIS/NN/Include\arm_nnsupportfunctions.h **** 
 741:C:/Renesas/e2studio_2021_01_workspace_RZA2M_ANPR/ANPR_RZA2M_EBK/src/tensorflow_lite/third_party/cmsis/CMSIS/NN/Include\arm_nnsupportfunctions.h ****     // Rounding offset to add for a right shift of 31
 742:C:/Renesas/e2studio_2021_01_workspace_RZA2M_ANPR/ANPR_RZA2M_EBK/src/tensorflow_lite/third_party/cmsis/CMSIS/NN/Include\arm_nnsupportfunctions.h ****     mult.word.low = 1 << 30;
 743:C:/Renesas/e2studio_2021_01_workspace_RZA2M_ANPR/ANPR_RZA2M_EBK/src/tensorflow_lite/third_party/cmsis/CMSIS/NN/Include\arm_nnsupportfunctions.h ****     mult.word.high = 0;
 744:C:/Renesas/e2studio_2021_01_workspace_RZA2M_ANPR/ANPR_RZA2M_EBK/src/tensorflow_lite/third_party/cmsis/CMSIS/NN/Include\arm_nnsupportfunctions.h **** 
 745:C:/Renesas/e2studio_2021_01_workspace_RZA2M_ANPR/ANPR_RZA2M_EBK/src/tensorflow_lite/third_party/cmsis/CMSIS/NN/Include\arm_nnsupportfunctions.h ****     // Gets resolved as a SMLAL instruction
 746:C:/Renesas/e2studio_2021_01_workspace_RZA2M_ANPR/ANPR_RZA2M_EBK/src/tensorflow_lite/third_party/cmsis/CMSIS/NN/Include\arm_nnsupportfunctions.h ****     mult.long_long = mult.long_long + (q63_t)m1 * m2;
 747:C:/Renesas/e2studio_2021_01_workspace_RZA2M_ANPR/ANPR_RZA2M_EBK/src/tensorflow_lite/third_party/cmsis/CMSIS/NN/Include\arm_nnsupportfunctions.h **** 
 748:C:/Renesas/e2studio_2021_01_workspace_RZA2M_ANPR/ANPR_RZA2M_EBK/src/tensorflow_lite/third_party/cmsis/CMSIS/NN/Include\arm_nnsupportfunctions.h ****     // Utilize all of the upper 32 bits. This is the doubling step
 749:C:/Renesas/e2studio_2021_01_workspace_RZA2M_ANPR/ANPR_RZA2M_EBK/src/tensorflow_lite/third_party/cmsis/CMSIS/NN/Include\arm_nnsupportfunctions.h ****     // as well.
 750:C:/Renesas/e2studio_2021_01_workspace_RZA2M_ANPR/ANPR_RZA2M_EBK/src/tensorflow_lite/third_party/cmsis/CMSIS/NN/Include\arm_nnsupportfunctions.h ****     result = (int32_t)(mult.long_long >> 31);
 751:C:/Renesas/e2studio_2021_01_workspace_RZA2M_ANPR/ANPR_RZA2M_EBK/src/tensorflow_lite/third_party/cmsis/CMSIS/NN/Include\arm_nnsupportfunctions.h **** 
 752:C:/Renesas/e2studio_2021_01_workspace_RZA2M_ANPR/ANPR_RZA2M_EBK/src/tensorflow_lite/third_party/cmsis/CMSIS/NN/Include\arm_nnsupportfunctions.h ****     return result;
 753:C:/Renesas/e2studio_2021_01_workspace_RZA2M_ANPR/ANPR_RZA2M_EBK/src/tensorflow_lite/third_party/cmsis/CMSIS/NN/Include\arm_nnsupportfunctions.h **** }
 754:C:/Renesas/e2studio_2021_01_workspace_RZA2M_ANPR/ANPR_RZA2M_EBK/src/tensorflow_lite/third_party/cmsis/CMSIS/NN/Include\arm_nnsupportfunctions.h **** 
 755:C:/Renesas/e2studio_2021_01_workspace_RZA2M_ANPR/ANPR_RZA2M_EBK/src/tensorflow_lite/third_party/cmsis/CMSIS/NN/Include\arm_nnsupportfunctions.h **** /**
 756:C:/Renesas/e2studio_2021_01_workspace_RZA2M_ANPR/ANPR_RZA2M_EBK/src/tensorflow_lite/third_party/cmsis/CMSIS/NN/Include\arm_nnsupportfunctions.h ****  * @brief           Rounding divide by power of two.
 757:C:/Renesas/e2studio_2021_01_workspace_RZA2M_ANPR/ANPR_RZA2M_EBK/src/tensorflow_lite/third_party/cmsis/CMSIS/NN/Include\arm_nnsupportfunctions.h ****  * @param[in]       dividend - Dividend
 758:C:/Renesas/e2studio_2021_01_workspace_RZA2M_ANPR/ANPR_RZA2M_EBK/src/tensorflow_lite/third_party/cmsis/CMSIS/NN/Include\arm_nnsupportfunctions.h ****  * @param[in]       exponent - Divisor = power(2, exponent)
 759:C:/Renesas/e2studio_2021_01_workspace_RZA2M_ANPR/ANPR_RZA2M_EBK/src/tensorflow_lite/third_party/cmsis/CMSIS/NN/Include\arm_nnsupportfunctions.h ****  *                             Range: [0, 31]
 760:C:/Renesas/e2studio_2021_01_workspace_RZA2M_ANPR/ANPR_RZA2M_EBK/src/tensorflow_lite/third_party/cmsis/CMSIS/NN/Include\arm_nnsupportfunctions.h ****  * @return          Rounded result of division. Midpoint is rounded away from zero.
 761:C:/Renesas/e2studio_2021_01_workspace_RZA2M_ANPR/ANPR_RZA2M_EBK/src/tensorflow_lite/third_party/cmsis/CMSIS/NN/Include\arm_nnsupportfunctions.h ****  *
 762:C:/Renesas/e2studio_2021_01_workspace_RZA2M_ANPR/ANPR_RZA2M_EBK/src/tensorflow_lite/third_party/cmsis/CMSIS/NN/Include\arm_nnsupportfunctions.h ****  */
 763:C:/Renesas/e2studio_2021_01_workspace_RZA2M_ANPR/ANPR_RZA2M_EBK/src/tensorflow_lite/third_party/cmsis/CMSIS/NN/Include\arm_nnsupportfunctions.h **** __STATIC_FORCEINLINE q31_t arm_nn_divide_by_power_of_two(const q31_t dividend, const q31_t exponent
 764:C:/Renesas/e2studio_2021_01_workspace_RZA2M_ANPR/ANPR_RZA2M_EBK/src/tensorflow_lite/third_party/cmsis/CMSIS/NN/Include\arm_nnsupportfunctions.h **** {
 765:C:/Renesas/e2studio_2021_01_workspace_RZA2M_ANPR/ANPR_RZA2M_EBK/src/tensorflow_lite/third_party/cmsis/CMSIS/NN/Include\arm_nnsupportfunctions.h ****     q31_t result = 0;
 766:C:/Renesas/e2studio_2021_01_workspace_RZA2M_ANPR/ANPR_RZA2M_EBK/src/tensorflow_lite/third_party/cmsis/CMSIS/NN/Include\arm_nnsupportfunctions.h ****     const q31_t remainder_mask = (1 << exponent) - 1;
 348              		.loc 2 766 0
 349 0350 10A08DE5 		str	r10, [sp, #16]
 350 0354 24208DE5 		str	r2, [sp, #36]
 351 0358 0330C3E3 		bic	r3, r3, #3
 352 035c 7C209DE5 		ldr	r2, [sp, #124]
 353 0360 043083E2 		add	r3, r3, #4
 354 0364 021081E0 		add	r1, r1, r2
 355 0368 023083E0 		add	r3, r3, r2
 356 036c 8C209DE5 		ldr	r2, [sp, #140]
 357 0370 60108DE5 		str	r1, [sp, #96]
 358 0374 1C2082E2 		add	r2, r2, #28
 359 0378 1C208DE5 		str	r2, [sp, #28]
 360 037c D0219DE5 		ldr	r2, [sp, #464]
 361 0380 033082E0 		add	r3, r2, r3
 362 0384 70209DE5 		ldr	r2, [sp, #112]
 363 0388 78308DE5 		str	r3, [sp, #120]
 364 038c 88309DE5 		ldr	r3, [sp, #136]
 365 0390 1C3083E2 		add	r3, r3, #28
 366 0394 20308DE5 		str	r3, [sp, #32]
 367 0398 B8319DE5 		ldr	r3, [sp, #440]
 368 039c 023083E0 		add	r3, r3, r2
 369 03a0 74209DE5 		ldr	r2, [sp, #116]
 370 03a4 28308DE5 		str	r3, [sp, #40]
 371 03a8 C0319DE5 		ldr	r3, [sp, #448]
 372 03ac 023083E0 		add	r3, r3, r2
 373 03b0 2C308DE5 		str	r3, [sp, #44]
 374              	.LVL38:
 375              	.L20:
 376              	.LBE88:
 377              	.LBE87:
 378              	.LBE86:
 379              	.LBE85:
 380              	.LBB105:
 112:../src/tensorflow_lite/third_party/cmsis/CMSIS/NN/Source/ConvolutionFunctions/arm_depthwise_conv_3x3_s8.c ****                 {
 381              		.loc 1 112 0
 382 03b4 5C209DE5 		ldr	r2, [sp, #92]
 383 03b8 08109DE5 		ldr	r1, [sp, #8]
 384 03bc 24309DE5 		ldr	r3, [sp, #36]
 385              	.LBE105:
 109:../src/tensorflow_lite/third_party/cmsis/CMSIS/NN/Source/ConvolutionFunctions/arm_depthwise_conv_3x3_s8.c ****                 const int8_t *kernel_ptr = kernel + ker_h_start * (input_ch * 3) + in_ch;
 386              		.loc 1 109 0
 387 03c0 28509DE5 		ldr	r5, [sp, #40]
 388              	.LBB106:
 112:../src/tensorflow_lite/third_party/cmsis/CMSIS/NN/Source/ConvolutionFunctions/arm_depthwise_conv_3x3_s8.c ****                 {
 389              		.loc 1 112 0
 390 03c4 010052E1 		cmp	r2, r1
 391              	.LBE106:
 110:../src/tensorflow_lite/third_party/cmsis/CMSIS/NN/Source/ConvolutionFunctions/arm_depthwise_conv_3x3_s8.c **** 
 392              		.loc 1 110 0
 393 03c8 2C609DE5 		ldr	r6, [sp, #44]
 394 03cc 00F0D3F5 		pld	[r3]
 104:../src/tensorflow_lite/third_party/cmsis/CMSIS/NN/Source/ConvolutionFunctions/arm_depthwise_conv_3x3_s8.c ****                 int32_t out_buff1 = bias[in_ch + 1];
 395              		.loc 1 104 0
 396 03d0 1C9013E5 		ldr	r9, [r3, #-28]
 397              	.LVL39:
 105:../src/tensorflow_lite/third_party/cmsis/CMSIS/NN/Source/ConvolutionFunctions/arm_depthwise_conv_3x3_s8.c ****                 int32_t out_buff2 = bias[in_ch + 2];
 398              		.loc 1 105 0
 399 03d4 188013E5 		ldr	r8, [r3, #-24]
 400              	.LVL40:
 106:../src/tensorflow_lite/third_party/cmsis/CMSIS/NN/Source/ConvolutionFunctions/arm_depthwise_conv_3x3_s8.c ****                 int32_t out_buff3 = bias[in_ch + 3];
 401              		.loc 1 106 0
 402 03d8 147013E5 		ldr	r7, [r3, #-20]
 403              	.LVL41:
 107:../src/tensorflow_lite/third_party/cmsis/CMSIS/NN/Source/ConvolutionFunctions/arm_depthwise_conv_3x3_s8.c **** 
 404              		.loc 1 107 0
 405 03dc 10A013E5 		ldr	r10, [r3, #-16]
 406              	.LVL42:
 407              	.LBB107:
 112:../src/tensorflow_lite/third_party/cmsis/CMSIS/NN/Source/ConvolutionFunctions/arm_depthwise_conv_3x3_s8.c ****                 {
 408              		.loc 1 112 0
 409 03e0 5E0000AA 		bge	.L8
 410 03e4 00208DE5 		str	r2, [sp]
 411 03e8 230000EA 		b	.L11
 412              	.LVL43:
 413              	.L9:
 414              	.LBB82:
 415              	.LBB62:
 416              	.LBB63:
 536:C:/Renesas/e2studio_2021_01_workspace_RZA2M_ANPR/ANPR_RZA2M_EBK/src/tensorflow_lite/third_party/cmsis/CMSIS/NN/Include\arm_nnsupportfunctions.h **** 
 417              		.loc 2 536 0
 418 03ec 10409DE5 		ldr	r4, [sp, #16]
 419 03f0 0420A0E3 		mov	r2, #4
 420 03f4 5F0F8DE2 		add	r0, sp, #380
 421 03f8 041085E0 		add	r1, r5, r4
 422              	.LVL44:
 423 03fc FEFFFFEB 		bl	memcpy
 424              	.LVL45:
 425              	.LBE63:
 426              	.LBE62:
 427              	.LBB65:
 428              	.LBB66:
 429 0400 041086E0 		add	r1, r6, r4
 430 0404 0420A0E3 		mov	r2, #4
 431              	.LBE66:
 432              	.LBE65:
 433              	.LBB68:
 434              	.LBB64:
 538:C:/Renesas/e2studio_2021_01_workspace_RZA2M_ANPR/ANPR_RZA2M_EBK/src/tensorflow_lite/third_party/cmsis/CMSIS/NN/Include\arm_nnsupportfunctions.h **** }
 435              		.loc 2 538 0
 436 0408 7C419DE5 		ldr	r4, [sp, #380]
 437              	.LVL46:
 438              	.LBE64:
 439              	.LBE68:
 440              	.LBB69:
 441              	.LBB67:
 536:C:/Renesas/e2studio_2021_01_workspace_RZA2M_ANPR/ANPR_RZA2M_EBK/src/tensorflow_lite/third_party/cmsis/CMSIS/NN/Include\arm_nnsupportfunctions.h **** 
 442              		.loc 2 536 0
 443 040c 5F0F8DE2 		add	r0, sp, #380
 444 0410 FEFFFFEB 		bl	memcpy
 445              	.LVL47:
 538:C:/Renesas/e2studio_2021_01_workspace_RZA2M_ANPR/ANPR_RZA2M_EBK/src/tensorflow_lite/third_party/cmsis/CMSIS/NN/Include\arm_nnsupportfunctions.h **** }
 446              		.loc 2 538 0
 447 0414 7C219DE5 		ldr	r2, [sp, #380]
 448              	.LVL48:
 449              	.LBE67:
 450              	.LBE69:
 136:../src/tensorflow_lite/third_party/cmsis/CMSIS/NN/Source/ConvolutionFunctions/arm_depthwise_conv_3x3_s8.c ****                     {
 451              		.loc 1 136 0
 452 0418 04309DE5 		ldr	r3, [sp, #4]
 132:../src/tensorflow_lite/third_party/cmsis/CMSIS/NN/Source/ConvolutionFunctions/arm_depthwise_conv_3x3_s8.c ****                     out_buff2 += ((int8_t)(in_val >> 16) + input_offset) * (int8_t)(ker_val >> 16);
 453              		.loc 1 132 0
 454 041c 5404A7E7 		sbfx	r0, r4, #8, #8
 455 0420 0B0080E0 		add	r0, r0, fp
 133:../src/tensorflow_lite/third_party/cmsis/CMSIS/NN/Source/ConvolutionFunctions/arm_depthwise_conv_3x3_s8.c ****                     out_buff3 += ((int8_t)(in_val >> 24) + input_offset) * (int8_t)(ker_val >> 24);
 456              		.loc 1 133 0
 457 0424 5418A7E7 		sbfx	r1, r4, #16, #8
 132:../src/tensorflow_lite/third_party/cmsis/CMSIS/NN/Source/ConvolutionFunctions/arm_depthwise_conv_3x3_s8.c ****                     out_buff2 += ((int8_t)(in_val >> 16) + input_offset) * (int8_t)(ker_val >> 16);
 458              		.loc 1 132 0
 459 0428 52E4A7E7 		sbfx	lr, r2, #8, #8
 131:../src/tensorflow_lite/third_party/cmsis/CMSIS/NN/Source/ConvolutionFunctions/arm_depthwise_conv_3x3_s8.c ****                     out_buff1 += ((int8_t)(in_val >> 8) + input_offset) * (int8_t)(ker_val >> 8);
 460              		.loc 1 131 0
 461 042c 74C0ABE6 		sxtab	ip, fp, r4
 136:../src/tensorflow_lite/third_party/cmsis/CMSIS/NN/Source/ConvolutionFunctions/arm_depthwise_conv_3x3_s8.c ****                     {
 462              		.loc 1 136 0
 463 0430 020053E3 		cmp	r3, #2
 134:../src/tensorflow_lite/third_party/cmsis/CMSIS/NN/Source/ConvolutionFunctions/arm_depthwise_conv_3x3_s8.c **** 
 464              		.loc 1 134 0
 465 0434 444C8BE0 		add	r4, fp, r4, asr #24
 133:../src/tensorflow_lite/third_party/cmsis/CMSIS/NN/Source/ConvolutionFunctions/arm_depthwise_conv_3x3_s8.c ****                     out_buff3 += ((int8_t)(in_val >> 24) + input_offset) * (int8_t)(ker_val >> 24);
 466              		.loc 1 133 0
 467 0438 0B1081E0 		add	r1, r1, fp
 132:../src/tensorflow_lite/third_party/cmsis/CMSIS/NN/Source/ConvolutionFunctions/arm_depthwise_conv_3x3_s8.c ****                     out_buff2 += ((int8_t)(in_val >> 16) + input_offset) * (int8_t)(ker_val >> 16);
 468              		.loc 1 132 0
 469 043c 9E8028E0 		mla	r8, lr, r0, r8
 470              	.LVL49:
 133:../src/tensorflow_lite/third_party/cmsis/CMSIS/NN/Source/ConvolutionFunctions/arm_depthwise_conv_3x3_s8.c ****                     out_buff3 += ((int8_t)(in_val >> 24) + input_offset) * (int8_t)(ker_val >> 24);
 471              		.loc 1 133 0
 472 0440 52E8A7E7 		sbfx	lr, r2, #16, #8
 131:../src/tensorflow_lite/third_party/cmsis/CMSIS/NN/Source/ConvolutionFunctions/arm_depthwise_conv_3x3_s8.c ****                     out_buff1 += ((int8_t)(in_val >> 8) + input_offset) * (int8_t)(ker_val >> 8);
 473              		.loc 1 131 0
 474 0444 7200AFE6 		sxtb	r0, r2
 134:../src/tensorflow_lite/third_party/cmsis/CMSIS/NN/Source/ConvolutionFunctions/arm_depthwise_conv_3x3_s8.c **** 
 475              		.loc 1 134 0
 476 0448 422CA0E1 		asr	r2, r2, #24
 133:../src/tensorflow_lite/third_party/cmsis/CMSIS/NN/Source/ConvolutionFunctions/arm_depthwise_conv_3x3_s8.c ****                     out_buff3 += ((int8_t)(in_val >> 24) + input_offset) * (int8_t)(ker_val >> 24);
 477              		.loc 1 133 0
 478 044c 9E7127E0 		mla	r7, lr, r1, r7
 479              	.LVL50:
 131:../src/tensorflow_lite/third_party/cmsis/CMSIS/NN/Source/ConvolutionFunctions/arm_depthwise_conv_3x3_s8.c ****                     out_buff1 += ((int8_t)(in_val >> 8) + input_offset) * (int8_t)(ker_val >> 8);
 480              		.loc 1 131 0
 481 0450 909C29E0 		mla	r9, r0, ip, r9
 482              	.LVL51:
 134:../src/tensorflow_lite/third_party/cmsis/CMSIS/NN/Source/ConvolutionFunctions/arm_depthwise_conv_3x3_s8.c **** 
 483              		.loc 1 134 0
 484 0454 92A42AE0 		mla	r10, r2, r4, r10
 485              	.LVL52:
 136:../src/tensorflow_lite/third_party/cmsis/CMSIS/NN/Source/ConvolutionFunctions/arm_depthwise_conv_3x3_s8.c ****                     {
 486              		.loc 1 136 0
 487 0458 260000CA 		bgt	.L59
 488              	.L10:
 489              	.LBE82:
 112:../src/tensorflow_lite/third_party/cmsis/CMSIS/NN/Source/ConvolutionFunctions/arm_depthwise_conv_3x3_s8.c ****                 {
 490              		.loc 1 112 0 discriminator 2
 491 045c 00309DE5 		ldr	r3, [sp]
 492 0460 08209DE5 		ldr	r2, [sp, #8]
 493 0464 020053E1 		cmp	r3, r2
 494              	.LBB83:
 139:../src/tensorflow_lite/third_party/cmsis/CMSIS/NN/Source/ConvolutionFunctions/arm_depthwise_conv_3x3_s8.c ****                         ker_val = arm_nn_read_q7x4(kernel_ptr + (input_ch << 1));
 140:../src/tensorflow_lite/third_party/cmsis/CMSIS/NN/Source/ConvolutionFunctions/arm_depthwise_conv_3x3_s8.c **** 
 141:../src/tensorflow_lite/third_party/cmsis/CMSIS/NN/Source/ConvolutionFunctions/arm_depthwise_conv_3x3_s8.c ****                         out_buff0 += ((int8_t)in_val + input_offset) * (int8_t)ker_val;
 142:../src/tensorflow_lite/third_party/cmsis/CMSIS/NN/Source/ConvolutionFunctions/arm_depthwise_conv_3x3_s8.c ****                         out_buff1 += ((int8_t)(in_val >> 8) + input_offset) * (int8_t)(ker_val >> 8
 143:../src/tensorflow_lite/third_party/cmsis/CMSIS/NN/Source/ConvolutionFunctions/arm_depthwise_conv_3x3_s8.c ****                         out_buff2 += ((int8_t)(in_val >> 16) + input_offset) * (int8_t)(ker_val >> 
 144:../src/tensorflow_lite/third_party/cmsis/CMSIS/NN/Source/ConvolutionFunctions/arm_depthwise_conv_3x3_s8.c ****                         out_buff3 += ((int8_t)(in_val >> 24) + input_offset) * (int8_t)(ker_val >> 
 145:../src/tensorflow_lite/third_party/cmsis/CMSIS/NN/Source/ConvolutionFunctions/arm_depthwise_conv_3x3_s8.c ****                     }
 146:../src/tensorflow_lite/third_party/cmsis/CMSIS/NN/Source/ConvolutionFunctions/arm_depthwise_conv_3x3_s8.c **** 
 147:../src/tensorflow_lite/third_party/cmsis/CMSIS/NN/Source/ConvolutionFunctions/arm_depthwise_conv_3x3_s8.c ****                     input_ptr += (input_ch * input_x);
 495              		.loc 1 147 0 discriminator 2
 496 0468 18309DE5 		ldr	r3, [sp, #24]
 497 046c 035085E0 		add	r5, r5, r3
 498              	.LVL53:
 148:../src/tensorflow_lite/third_party/cmsis/CMSIS/NN/Source/ConvolutionFunctions/arm_depthwise_conv_3x3_s8.c ****                     kernel_ptr += (input_ch * 3);
 499              		.loc 1 148 0 discriminator 2
 500 0470 14309DE5 		ldr	r3, [sp, #20]
 501 0474 036086E0 		add	r6, r6, r3
 502              	.LVL54:
 503              	.LBE83:
 112:../src/tensorflow_lite/third_party/cmsis/CMSIS/NN/Source/ConvolutionFunctions/arm_depthwise_conv_3x3_s8.c ****                 {
 504              		.loc 1 112 0 discriminator 2
 505 0478 3800000A 		beq	.L8
 506              	.L11:
 507              	.LVL55:
 112:../src/tensorflow_lite/third_party/cmsis/CMSIS/NN/Source/ConvolutionFunctions/arm_depthwise_conv_3x3_s8.c ****                 {
 508              		.loc 1 112 0 is_stmt 0
 509 047c 00309DE5 		ldr	r3, [sp]
 510 0480 013083E2 		add	r3, r3, #1
 511 0484 00308DE5 		str	r3, [sp]
 512              	.LVL56:
 513              	.LBB84:
 117:../src/tensorflow_lite/third_party/cmsis/CMSIS/NN/Source/ConvolutionFunctions/arm_depthwise_conv_3x3_s8.c ****                     {
 514              		.loc 1 117 0 is_stmt 1
 515 0488 0C309DE5 		ldr	r3, [sp, #12]
 516              	.LVL57:
 517 048c 000053E3 		cmp	r3, #0
 518 0490 D5FFFF1A 		bne	.L9
 519              	.LVL58:
 520              	.LBB70:
 521              	.LBB71:
 536:C:/Renesas/e2studio_2021_01_workspace_RZA2M_ANPR/ANPR_RZA2M_EBK/src/tensorflow_lite/third_party/cmsis/CMSIS/NN/Include\arm_nnsupportfunctions.h **** 
 522              		.loc 2 536 0
 523 0494 0420A0E3 		mov	r2, #4
 524 0498 0510A0E1 		mov	r1, r5
 525 049c 5F0F8DE2 		add	r0, sp, #380
 526 04a0 FEFFFFEB 		bl	memcpy
 527              	.LVL59:
 538:C:/Renesas/e2studio_2021_01_workspace_RZA2M_ANPR/ANPR_RZA2M_EBK/src/tensorflow_lite/third_party/cmsis/CMSIS/NN/Include\arm_nnsupportfunctions.h **** }
 528              		.loc 2 538 0
 529 04a4 7C419DE5 		ldr	r4, [sp, #380]
 530              	.LVL60:
 531              	.LBE71:
 532              	.LBE70:
 533              	.LBB72:
 534              	.LBB73:
 536:C:/Renesas/e2studio_2021_01_workspace_RZA2M_ANPR/ANPR_RZA2M_EBK/src/tensorflow_lite/third_party/cmsis/CMSIS/NN/Include\arm_nnsupportfunctions.h **** 
 535              		.loc 2 536 0
 536 04a8 0420A0E3 		mov	r2, #4
 537 04ac 0610A0E1 		mov	r1, r6
 538 04b0 5F0F8DE2 		add	r0, sp, #380
 539 04b4 FEFFFFEB 		bl	memcpy
 540              	.LVL61:
 538:C:/Renesas/e2studio_2021_01_workspace_RZA2M_ANPR/ANPR_RZA2M_EBK/src/tensorflow_lite/third_party/cmsis/CMSIS/NN/Include\arm_nnsupportfunctions.h **** }
 541              		.loc 2 538 0
 542 04b8 7C219DE5 		ldr	r2, [sp, #380]
 543              	.LVL62:
 544              	.LBE73:
 545              	.LBE72:
 123:../src/tensorflow_lite/third_party/cmsis/CMSIS/NN/Source/ConvolutionFunctions/arm_depthwise_conv_3x3_s8.c ****                         out_buff2 += ((int8_t)(in_val >> 16) + input_offset) * (int8_t)(ker_val >> 
 546              		.loc 1 123 0
 547 04bc 5404A7E7 		sbfx	r0, r4, #8, #8
 548 04c0 0B0080E0 		add	r0, r0, fp
 124:../src/tensorflow_lite/third_party/cmsis/CMSIS/NN/Source/ConvolutionFunctions/arm_depthwise_conv_3x3_s8.c ****                         out_buff3 += ((int8_t)(in_val >> 24) + input_offset) * (int8_t)(ker_val >> 
 549              		.loc 1 124 0
 550 04c4 5418A7E7 		sbfx	r1, r4, #16, #8
 122:../src/tensorflow_lite/third_party/cmsis/CMSIS/NN/Source/ConvolutionFunctions/arm_depthwise_conv_3x3_s8.c ****                         out_buff1 += ((int8_t)(in_val >> 8) + input_offset) * (int8_t)(ker_val >> 8
 551              		.loc 1 122 0
 552 04c8 74C0ABE6 		sxtab	ip, fp, r4
 125:../src/tensorflow_lite/third_party/cmsis/CMSIS/NN/Source/ConvolutionFunctions/arm_depthwise_conv_3x3_s8.c ****                     }
 553              		.loc 1 125 0
 554 04cc 444C8BE0 		add	r4, fp, r4, asr #24
 123:../src/tensorflow_lite/third_party/cmsis/CMSIS/NN/Source/ConvolutionFunctions/arm_depthwise_conv_3x3_s8.c ****                         out_buff2 += ((int8_t)(in_val >> 16) + input_offset) * (int8_t)(ker_val >> 
 555              		.loc 1 123 0
 556 04d0 52E4A7E7 		sbfx	lr, r2, #8, #8
 124:../src/tensorflow_lite/third_party/cmsis/CMSIS/NN/Source/ConvolutionFunctions/arm_depthwise_conv_3x3_s8.c ****                         out_buff3 += ((int8_t)(in_val >> 24) + input_offset) * (int8_t)(ker_val >> 
 557              		.loc 1 124 0
 558 04d4 0B1081E0 		add	r1, r1, fp
 123:../src/tensorflow_lite/third_party/cmsis/CMSIS/NN/Source/ConvolutionFunctions/arm_depthwise_conv_3x3_s8.c ****                         out_buff2 += ((int8_t)(in_val >> 16) + input_offset) * (int8_t)(ker_val >> 
 559              		.loc 1 123 0
 560 04d8 9E8028E0 		mla	r8, lr, r0, r8
 561              	.LVL63:
 124:../src/tensorflow_lite/third_party/cmsis/CMSIS/NN/Source/ConvolutionFunctions/arm_depthwise_conv_3x3_s8.c ****                         out_buff3 += ((int8_t)(in_val >> 24) + input_offset) * (int8_t)(ker_val >> 
 562              		.loc 1 124 0
 563 04dc 52E8A7E7 		sbfx	lr, r2, #16, #8
 122:../src/tensorflow_lite/third_party/cmsis/CMSIS/NN/Source/ConvolutionFunctions/arm_depthwise_conv_3x3_s8.c ****                         out_buff1 += ((int8_t)(in_val >> 8) + input_offset) * (int8_t)(ker_val >> 8
 564              		.loc 1 122 0
 565 04e0 7200AFE6 		sxtb	r0, r2
 125:../src/tensorflow_lite/third_party/cmsis/CMSIS/NN/Source/ConvolutionFunctions/arm_depthwise_conv_3x3_s8.c ****                     }
 566              		.loc 1 125 0
 567 04e4 422CA0E1 		asr	r2, r2, #24
 124:../src/tensorflow_lite/third_party/cmsis/CMSIS/NN/Source/ConvolutionFunctions/arm_depthwise_conv_3x3_s8.c ****                         out_buff3 += ((int8_t)(in_val >> 24) + input_offset) * (int8_t)(ker_val >> 
 568              		.loc 1 124 0
 569 04e8 9E7127E0 		mla	r7, lr, r1, r7
 570              	.LVL64:
 122:../src/tensorflow_lite/third_party/cmsis/CMSIS/NN/Source/ConvolutionFunctions/arm_depthwise_conv_3x3_s8.c ****                         out_buff1 += ((int8_t)(in_val >> 8) + input_offset) * (int8_t)(ker_val >> 8
 571              		.loc 1 122 0
 572 04ec 909C29E0 		mla	r9, r0, ip, r9
 573              	.LVL65:
 125:../src/tensorflow_lite/third_party/cmsis/CMSIS/NN/Source/ConvolutionFunctions/arm_depthwise_conv_3x3_s8.c ****                     }
 574              		.loc 1 125 0
 575 04f0 92A42AE0 		mla	r10, r2, r4, r10
 576              	.LVL66:
 577 04f4 BCFFFFEA 		b	.L9
 578              	.L59:
 579              	.LVL67:
 580              	.LBB74:
 581              	.LBB75:
 536:C:/Renesas/e2studio_2021_01_workspace_RZA2M_ANPR/ANPR_RZA2M_EBK/src/tensorflow_lite/third_party/cmsis/CMSIS/NN/Include\arm_nnsupportfunctions.h **** 
 582              		.loc 2 536 0
 583 04f8 58409DE5 		ldr	r4, [sp, #88]
 584 04fc 0420A0E3 		mov	r2, #4
 585 0500 5F0F8DE2 		add	r0, sp, #380
 586 0504 041085E0 		add	r1, r5, r4
 587              	.LVL68:
 588 0508 FEFFFFEB 		bl	memcpy
 589              	.LVL69:
 590              	.LBE75:
 591              	.LBE74:
 592              	.LBB77:
 593              	.LBB78:
 594 050c 041086E0 		add	r1, r6, r4
 595 0510 0420A0E3 		mov	r2, #4
 596              	.LBE78:
 597              	.LBE77:
 598              	.LBB80:
 599              	.LBB76:
 538:C:/Renesas/e2studio_2021_01_workspace_RZA2M_ANPR/ANPR_RZA2M_EBK/src/tensorflow_lite/third_party/cmsis/CMSIS/NN/Include\arm_nnsupportfunctions.h **** }
 600              		.loc 2 538 0
 601 0514 7C419DE5 		ldr	r4, [sp, #380]
 602              	.LVL70:
 603              	.LBE76:
 604              	.LBE80:
 605              	.LBB81:
 606              	.LBB79:
 536:C:/Renesas/e2studio_2021_01_workspace_RZA2M_ANPR/ANPR_RZA2M_EBK/src/tensorflow_lite/third_party/cmsis/CMSIS/NN/Include\arm_nnsupportfunctions.h **** 
 607              		.loc 2 536 0
 608 0518 5F0F8DE2 		add	r0, sp, #380
 609 051c FEFFFFEB 		bl	memcpy
 610              	.LVL71:
 538:C:/Renesas/e2studio_2021_01_workspace_RZA2M_ANPR/ANPR_RZA2M_EBK/src/tensorflow_lite/third_party/cmsis/CMSIS/NN/Include\arm_nnsupportfunctions.h **** }
 611              		.loc 2 538 0
 612 0520 7C219DE5 		ldr	r2, [sp, #380]
 613              	.LVL72:
 614              	.LBE79:
 615              	.LBE81:
 142:../src/tensorflow_lite/third_party/cmsis/CMSIS/NN/Source/ConvolutionFunctions/arm_depthwise_conv_3x3_s8.c ****                         out_buff2 += ((int8_t)(in_val >> 16) + input_offset) * (int8_t)(ker_val >> 
 616              		.loc 1 142 0
 617 0524 5404A7E7 		sbfx	r0, r4, #8, #8
 143:../src/tensorflow_lite/third_party/cmsis/CMSIS/NN/Source/ConvolutionFunctions/arm_depthwise_conv_3x3_s8.c ****                         out_buff3 += ((int8_t)(in_val >> 24) + input_offset) * (int8_t)(ker_val >> 
 618              		.loc 1 143 0
 619 0528 5418A7E7 		sbfx	r1, r4, #16, #8
 142:../src/tensorflow_lite/third_party/cmsis/CMSIS/NN/Source/ConvolutionFunctions/arm_depthwise_conv_3x3_s8.c ****                         out_buff2 += ((int8_t)(in_val >> 16) + input_offset) * (int8_t)(ker_val >> 
 620              		.loc 1 142 0
 621 052c 0B0080E0 		add	r0, r0, fp
 141:../src/tensorflow_lite/third_party/cmsis/CMSIS/NN/Source/ConvolutionFunctions/arm_depthwise_conv_3x3_s8.c ****                         out_buff1 += ((int8_t)(in_val >> 8) + input_offset) * (int8_t)(ker_val >> 8
 622              		.loc 1 141 0
 623 0530 74C0ABE6 		sxtab	ip, fp, r4
 142:../src/tensorflow_lite/third_party/cmsis/CMSIS/NN/Source/ConvolutionFunctions/arm_depthwise_conv_3x3_s8.c ****                         out_buff2 += ((int8_t)(in_val >> 16) + input_offset) * (int8_t)(ker_val >> 
 624              		.loc 1 142 0
 625 0534 52E4A7E7 		sbfx	lr, r2, #8, #8
 144:../src/tensorflow_lite/third_party/cmsis/CMSIS/NN/Source/ConvolutionFunctions/arm_depthwise_conv_3x3_s8.c ****                     }
 626              		.loc 1 144 0
 627 0538 444C8BE0 		add	r4, fp, r4, asr #24
 143:../src/tensorflow_lite/third_party/cmsis/CMSIS/NN/Source/ConvolutionFunctions/arm_depthwise_conv_3x3_s8.c ****                         out_buff3 += ((int8_t)(in_val >> 24) + input_offset) * (int8_t)(ker_val >> 
 628              		.loc 1 143 0
 629 053c 0B1081E0 		add	r1, r1, fp
 142:../src/tensorflow_lite/third_party/cmsis/CMSIS/NN/Source/ConvolutionFunctions/arm_depthwise_conv_3x3_s8.c ****                         out_buff2 += ((int8_t)(in_val >> 16) + input_offset) * (int8_t)(ker_val >> 
 630              		.loc 1 142 0
 631 0540 9E8028E0 		mla	r8, lr, r0, r8
 632              	.LVL73:
 143:../src/tensorflow_lite/third_party/cmsis/CMSIS/NN/Source/ConvolutionFunctions/arm_depthwise_conv_3x3_s8.c ****                         out_buff3 += ((int8_t)(in_val >> 24) + input_offset) * (int8_t)(ker_val >> 
 633              		.loc 1 143 0
 634 0544 52E8A7E7 		sbfx	lr, r2, #16, #8
 141:../src/tensorflow_lite/third_party/cmsis/CMSIS/NN/Source/ConvolutionFunctions/arm_depthwise_conv_3x3_s8.c ****                         out_buff1 += ((int8_t)(in_val >> 8) + input_offset) * (int8_t)(ker_val >> 8
 635              		.loc 1 141 0
 636 0548 7200AFE6 		sxtb	r0, r2
 144:../src/tensorflow_lite/third_party/cmsis/CMSIS/NN/Source/ConvolutionFunctions/arm_depthwise_conv_3x3_s8.c ****                     }
 637              		.loc 1 144 0
 638 054c 422CA0E1 		asr	r2, r2, #24
 143:../src/tensorflow_lite/third_party/cmsis/CMSIS/NN/Source/ConvolutionFunctions/arm_depthwise_conv_3x3_s8.c ****                         out_buff3 += ((int8_t)(in_val >> 24) + input_offset) * (int8_t)(ker_val >> 
 639              		.loc 1 143 0
 640 0550 9E7127E0 		mla	r7, lr, r1, r7
 641              	.LVL74:
 141:../src/tensorflow_lite/third_party/cmsis/CMSIS/NN/Source/ConvolutionFunctions/arm_depthwise_conv_3x3_s8.c ****                         out_buff1 += ((int8_t)(in_val >> 8) + input_offset) * (int8_t)(ker_val >> 8
 642              		.loc 1 141 0
 643 0554 909C29E0 		mla	r9, r0, ip, r9
 644              	.LVL75:
 144:../src/tensorflow_lite/third_party/cmsis/CMSIS/NN/Source/ConvolutionFunctions/arm_depthwise_conv_3x3_s8.c ****                     }
 645              		.loc 1 144 0
 646 0558 92A42AE0 		mla	r10, r2, r4, r10
 647              	.LVL76:
 648 055c BEFFFFEA 		b	.L10
 649              	.LVL77:
 650              	.L8:
 651              	.LBE84:
 652              	.LBE107:
 149:../src/tensorflow_lite/third_party/cmsis/CMSIS/NN/Source/ConvolutionFunctions/arm_depthwise_conv_3x3_s8.c ****                 }
 150:../src/tensorflow_lite/third_party/cmsis/CMSIS/NN/Source/ConvolutionFunctions/arm_depthwise_conv_3x3_s8.c **** 
 151:../src/tensorflow_lite/third_party/cmsis/CMSIS/NN/Source/ConvolutionFunctions/arm_depthwise_conv_3x3_s8.c ****                 out_buff0 = arm_nn_requantize(out_buff0, output_mult[in_ch + 0], output_shift[in_ch
 653              		.loc 1 151 0
 654 0560 20309DE5 		ldr	r3, [sp, #32]
 655 0564 1C2013E5 		ldr	r2, [r3, #-28]
 656              	.LVL78:
 657              	.LBB108:
 658              	.LBB101:
 659              	.LBB91:
 660              	.LBB92:
 742:C:/Renesas/e2studio_2021_01_workspace_RZA2M_ANPR/ANPR_RZA2M_EBK/src/tensorflow_lite/third_party/cmsis/CMSIS/NN/Include\arm_nnsupportfunctions.h ****     mult.word.high = 0;
 661              		.loc 2 742 0
 662 0568 0131A0E3 		mov	r3, #1073741824
 663 056c 30308DE5 		str	r3, [sp, #48]
 664              	.LBE92:
 665              	.LBE91:
 666              	.LBE101:
 667              	.LBE108:
 668              		.loc 1 151 0
 669 0570 1C309DE5 		ldr	r3, [sp, #28]
 670              	.LBB109:
 671              	.LBB102:
 767:C:/Renesas/e2studio_2021_01_workspace_RZA2M_ANPR/ANPR_RZA2M_EBK/src/tensorflow_lite/third_party/cmsis/CMSIS/NN/Include\arm_nnsupportfunctions.h ****     int32_t remainder = remainder_mask & dividend;
 768:C:/Renesas/e2studio_2021_01_workspace_RZA2M_ANPR/ANPR_RZA2M_EBK/src/tensorflow_lite/third_party/cmsis/CMSIS/NN/Include\arm_nnsupportfunctions.h **** 
 769:C:/Renesas/e2studio_2021_01_workspace_RZA2M_ANPR/ANPR_RZA2M_EBK/src/tensorflow_lite/third_party/cmsis/CMSIS/NN/Include\arm_nnsupportfunctions.h ****     // Basic division
 770:C:/Renesas/e2studio_2021_01_workspace_RZA2M_ANPR/ANPR_RZA2M_EBK/src/tensorflow_lite/third_party/cmsis/CMSIS/NN/Include\arm_nnsupportfunctions.h ****     result = dividend >> exponent;
 771:C:/Renesas/e2studio_2021_01_workspace_RZA2M_ANPR/ANPR_RZA2M_EBK/src/tensorflow_lite/third_party/cmsis/CMSIS/NN/Include\arm_nnsupportfunctions.h **** 
 772:C:/Renesas/e2studio_2021_01_workspace_RZA2M_ANPR/ANPR_RZA2M_EBK/src/tensorflow_lite/third_party/cmsis/CMSIS/NN/Include\arm_nnsupportfunctions.h ****     // Adjust 'result' for rounding (mid point away from zero)
 773:C:/Renesas/e2studio_2021_01_workspace_RZA2M_ANPR/ANPR_RZA2M_EBK/src/tensorflow_lite/third_party/cmsis/CMSIS/NN/Include\arm_nnsupportfunctions.h ****     q31_t threshold = remainder_mask >> 1;
 774:C:/Renesas/e2studio_2021_01_workspace_RZA2M_ANPR/ANPR_RZA2M_EBK/src/tensorflow_lite/third_party/cmsis/CMSIS/NN/Include\arm_nnsupportfunctions.h ****     if (result < 0)
 775:C:/Renesas/e2studio_2021_01_workspace_RZA2M_ANPR/ANPR_RZA2M_EBK/src/tensorflow_lite/third_party/cmsis/CMSIS/NN/Include\arm_nnsupportfunctions.h ****     {
 776:C:/Renesas/e2studio_2021_01_workspace_RZA2M_ANPR/ANPR_RZA2M_EBK/src/tensorflow_lite/third_party/cmsis/CMSIS/NN/Include\arm_nnsupportfunctions.h ****         threshold++;
 777:C:/Renesas/e2studio_2021_01_workspace_RZA2M_ANPR/ANPR_RZA2M_EBK/src/tensorflow_lite/third_party/cmsis/CMSIS/NN/Include\arm_nnsupportfunctions.h ****     }
 778:C:/Renesas/e2studio_2021_01_workspace_RZA2M_ANPR/ANPR_RZA2M_EBK/src/tensorflow_lite/third_party/cmsis/CMSIS/NN/Include\arm_nnsupportfunctions.h ****     if (remainder > threshold)
 779:C:/Renesas/e2studio_2021_01_workspace_RZA2M_ANPR/ANPR_RZA2M_EBK/src/tensorflow_lite/third_party/cmsis/CMSIS/NN/Include\arm_nnsupportfunctions.h ****     {
 780:C:/Renesas/e2studio_2021_01_workspace_RZA2M_ANPR/ANPR_RZA2M_EBK/src/tensorflow_lite/third_party/cmsis/CMSIS/NN/Include\arm_nnsupportfunctions.h ****         result++;
 781:C:/Renesas/e2studio_2021_01_workspace_RZA2M_ANPR/ANPR_RZA2M_EBK/src/tensorflow_lite/third_party/cmsis/CMSIS/NN/Include\arm_nnsupportfunctions.h ****     }
 782:C:/Renesas/e2studio_2021_01_workspace_RZA2M_ANPR/ANPR_RZA2M_EBK/src/tensorflow_lite/third_party/cmsis/CMSIS/NN/Include\arm_nnsupportfunctions.h **** 
 783:C:/Renesas/e2studio_2021_01_workspace_RZA2M_ANPR/ANPR_RZA2M_EBK/src/tensorflow_lite/third_party/cmsis/CMSIS/NN/Include\arm_nnsupportfunctions.h ****     return result;
 784:C:/Renesas/e2studio_2021_01_workspace_RZA2M_ANPR/ANPR_RZA2M_EBK/src/tensorflow_lite/third_party/cmsis/CMSIS/NN/Include\arm_nnsupportfunctions.h **** }
 785:C:/Renesas/e2studio_2021_01_workspace_RZA2M_ANPR/ANPR_RZA2M_EBK/src/tensorflow_lite/third_party/cmsis/CMSIS/NN/Include\arm_nnsupportfunctions.h **** 
 786:C:/Renesas/e2studio_2021_01_workspace_RZA2M_ANPR/ANPR_RZA2M_EBK/src/tensorflow_lite/third_party/cmsis/CMSIS/NN/Include\arm_nnsupportfunctions.h **** /**
 787:C:/Renesas/e2studio_2021_01_workspace_RZA2M_ANPR/ANPR_RZA2M_EBK/src/tensorflow_lite/third_party/cmsis/CMSIS/NN/Include\arm_nnsupportfunctions.h ****  * @brief           Requantize a given value.
 788:C:/Renesas/e2studio_2021_01_workspace_RZA2M_ANPR/ANPR_RZA2M_EBK/src/tensorflow_lite/third_party/cmsis/CMSIS/NN/Include\arm_nnsupportfunctions.h ****  * @param[in]       val         Value to be requantized
 789:C:/Renesas/e2studio_2021_01_workspace_RZA2M_ANPR/ANPR_RZA2M_EBK/src/tensorflow_lite/third_party/cmsis/CMSIS/NN/Include\arm_nnsupportfunctions.h ****  * @param[in]       multiplier  multiplier. Range {Q31_MIN + 1, Q32_MAX}
 790:C:/Renesas/e2studio_2021_01_workspace_RZA2M_ANPR/ANPR_RZA2M_EBK/src/tensorflow_lite/third_party/cmsis/CMSIS/NN/Include\arm_nnsupportfunctions.h ****  * @param[in]       shift       left or right shift for 'val * multiplier'
 791:C:/Renesas/e2studio_2021_01_workspace_RZA2M_ANPR/ANPR_RZA2M_EBK/src/tensorflow_lite/third_party/cmsis/CMSIS/NN/Include\arm_nnsupportfunctions.h ****  *
 792:C:/Renesas/e2studio_2021_01_workspace_RZA2M_ANPR/ANPR_RZA2M_EBK/src/tensorflow_lite/third_party/cmsis/CMSIS/NN/Include\arm_nnsupportfunctions.h ****  * @return          Returns (val * multiplier)/(2 ^ shift)
 793:C:/Renesas/e2studio_2021_01_workspace_RZA2M_ANPR/ANPR_RZA2M_EBK/src/tensorflow_lite/third_party/cmsis/CMSIS/NN/Include\arm_nnsupportfunctions.h ****  *
 794:C:/Renesas/e2studio_2021_01_workspace_RZA2M_ANPR/ANPR_RZA2M_EBK/src/tensorflow_lite/third_party/cmsis/CMSIS/NN/Include\arm_nnsupportfunctions.h ****  */
 795:C:/Renesas/e2studio_2021_01_workspace_RZA2M_ANPR/ANPR_RZA2M_EBK/src/tensorflow_lite/third_party/cmsis/CMSIS/NN/Include\arm_nnsupportfunctions.h **** __STATIC_FORCEINLINE q31_t arm_nn_requantize(const q31_t val, const q31_t multiplier, const q31_t s
 796:C:/Renesas/e2studio_2021_01_workspace_RZA2M_ANPR/ANPR_RZA2M_EBK/src/tensorflow_lite/third_party/cmsis/CMSIS/NN/Include\arm_nnsupportfunctions.h **** {
 797:C:/Renesas/e2studio_2021_01_workspace_RZA2M_ANPR/ANPR_RZA2M_EBK/src/tensorflow_lite/third_party/cmsis/CMSIS/NN/Include\arm_nnsupportfunctions.h ****     return arm_nn_divide_by_power_of_two(arm_nn_doubling_high_mult_no_sat(val * (1 << LEFT_SHIFT(sh
 672              		.loc 2 797 0
 673 0574 C20FC2E1 		bic	r0, r2, r2, asr #31
 674              	.LBE102:
 675              	.LBE109:
 676              		.loc 1 151 0
 677 0578 1C1013E5 		ldr	r1, [r3, #-28]
 678              	.LVL79:
 679              	.LBB110:
 680              	.LBB103:
 681              	.LBB96:
 682              	.LBB93:
 743:C:/Renesas/e2studio_2021_01_workspace_RZA2M_ANPR/ANPR_RZA2M_EBK/src/tensorflow_lite/third_party/cmsis/CMSIS/NN/Include\arm_nnsupportfunctions.h **** 
 683              		.loc 2 743 0
 684 057c 0030A0E3 		mov	r3, #0
 685 0580 34308DE5 		str	r3, [sp, #52]
 686              	.LBE93:
 687              	.LBE96:
 688              		.loc 2 797 0
 689 0584 1990A0E1 		lsl	r9, r9, r0
 690              	.LVL80:
 691              	.LBB97:
 692              	.LBB94:
 746:C:/Renesas/e2studio_2021_01_workspace_RZA2M_ANPR/ANPR_RZA2M_EBK/src/tensorflow_lite/third_party/cmsis/CMSIS/NN/Include\arm_nnsupportfunctions.h **** 
 693              		.loc 2 746 0
 694 0588 D043CDE1 		ldrd	r4, [sp, #48]
 695              	.LBE94:
 696              	.LBE97:
 697              		.loc 2 797 0
 698 058c 030052E1 		cmp	r2, r3
 699              	.LBB98:
 700              	.LBB95:
 746:C:/Renesas/e2studio_2021_01_workspace_RZA2M_ANPR/ANPR_RZA2M_EBK/src/tensorflow_lite/third_party/cmsis/CMSIS/NN/Include\arm_nnsupportfunctions.h **** 
 701              		.loc 2 746 0
 702 0590 9149E5E0 		smlal	r4, r5, r1, r9
 750:C:/Renesas/e2studio_2021_01_workspace_RZA2M_ANPR/ANPR_RZA2M_EBK/src/tensorflow_lite/third_party/cmsis/CMSIS/NN/Include\arm_nnsupportfunctions.h **** 
 703              		.loc 2 750 0
 704 0594 A40FA0E1 		lsr	r0, r4, #31
 705 0598 850080E1 		orr	r0, r0, r5, lsl #1
 706 059c 0040A0E1 		mov	r4, r0
 707              	.LVL81:
 708              	.LBE95:
 709              	.LBE98:
 710              		.loc 2 797 0
 711 05a0 CF0100DA 		ble	.L60
 712              	.LVL82:
 713              	.L12:
 714              	.LBE103:
 715              	.LBE110:
 152:../src/tensorflow_lite/third_party/cmsis/CMSIS/NN/Source/ConvolutionFunctions/arm_depthwise_conv_3x3_s8.c ****                 out_buff1 = arm_nn_requantize(out_buff1, output_mult[in_ch + 1], output_shift[in_ch
 716              		.loc 1 152 0
 717 05a4 20309DE5 		ldr	r3, [sp, #32]
 718 05a8 18C013E5 		ldr	ip, [r3, #-24]
 719              	.LVL83:
 720              	.LBB111:
 721              	.LBB112:
 722              	.LBB113:
 723              	.LBB114:
 742:C:/Renesas/e2studio_2021_01_workspace_RZA2M_ANPR/ANPR_RZA2M_EBK/src/tensorflow_lite/third_party/cmsis/CMSIS/NN/Include\arm_nnsupportfunctions.h ****     mult.word.high = 0;
 724              		.loc 2 742 0
 725 05ac 0131A0E3 		mov	r3, #1073741824
 726 05b0 38308DE5 		str	r3, [sp, #56]
 727              	.LBE114:
 728              	.LBE113:
 729              	.LBE112:
 730              	.LBE111:
 731              		.loc 1 152 0
 732 05b4 1C309DE5 		ldr	r3, [sp, #28]
 733              	.LBB128:
 734              	.LBB125:
 735              		.loc 2 797 0
 736 05b8 CC1FCCE1 		bic	r1, ip, ip, asr #31
 737              	.LBE125:
 738              	.LBE128:
 739              		.loc 1 152 0
 740 05bc 182013E5 		ldr	r2, [r3, #-24]
 741              	.LVL84:
 742              	.LBB129:
 743              	.LBB126:
 744              	.LBB118:
 745              	.LBB115:
 743:C:/Renesas/e2studio_2021_01_workspace_RZA2M_ANPR/ANPR_RZA2M_EBK/src/tensorflow_lite/third_party/cmsis/CMSIS/NN/Include\arm_nnsupportfunctions.h **** 
 746              		.loc 2 743 0
 747 05c0 0030A0E3 		mov	r3, #0
 748 05c4 3C308DE5 		str	r3, [sp, #60]
 749              	.LBE115:
 750              	.LBE118:
 751              		.loc 2 797 0
 752 05c8 1881A0E1 		lsl	r8, r8, r1
 753              	.LVL85:
 754              	.LBB119:
 755              	.LBB116:
 746:C:/Renesas/e2studio_2021_01_workspace_RZA2M_ANPR/ANPR_RZA2M_EBK/src/tensorflow_lite/third_party/cmsis/CMSIS/NN/Include\arm_nnsupportfunctions.h **** 
 756              		.loc 2 746 0
 757 05cc D803CDE1 		ldrd	r0, [sp, #56]
 758              	.LBE116:
 759              	.LBE119:
 760              		.loc 2 797 0
 761 05d0 03005CE1 		cmp	ip, r3
 762              	.LBB120:
 763              	.LBB117:
 746:C:/Renesas/e2studio_2021_01_workspace_RZA2M_ANPR/ANPR_RZA2M_EBK/src/tensorflow_lite/third_party/cmsis/CMSIS/NN/Include\arm_nnsupportfunctions.h **** 
 764              		.loc 2 746 0
 765 05d4 9208E1E0 		smlal	r0, r1, r2, r8
 750:C:/Renesas/e2studio_2021_01_workspace_RZA2M_ANPR/ANPR_RZA2M_EBK/src/tensorflow_lite/third_party/cmsis/CMSIS/NN/Include\arm_nnsupportfunctions.h **** 
 766              		.loc 2 750 0
 767 05d8 A00FA0E1 		lsr	r0, r0, #31
 768 05dc 810080E1 		orr	r0, r0, r1, lsl #1
 769 05e0 0020A0E1 		mov	r2, r0
 770              	.LVL86:
 771              	.LBE117:
 772              	.LBE120:
 773              		.loc 2 797 0
 774 05e4 B30100DA 		ble	.L61
 775              	.L14:
 776              	.LVL87:
 777              	.LBE126:
 778              	.LBE129:
 153:../src/tensorflow_lite/third_party/cmsis/CMSIS/NN/Source/ConvolutionFunctions/arm_depthwise_conv_3x3_s8.c ****                 out_buff2 = arm_nn_requantize(out_buff2, output_mult[in_ch + 2], output_shift[in_ch
 779              		.loc 1 153 0
 780 05e8 20309DE5 		ldr	r3, [sp, #32]
 781 05ec 14E013E5 		ldr	lr, [r3, #-20]
 782              	.LVL88:
 783              	.LBB130:
 784              	.LBB131:
 785              	.LBB132:
 786              	.LBB133:
 742:C:/Renesas/e2studio_2021_01_workspace_RZA2M_ANPR/ANPR_RZA2M_EBK/src/tensorflow_lite/third_party/cmsis/CMSIS/NN/Include\arm_nnsupportfunctions.h ****     mult.word.high = 0;
 787              		.loc 2 742 0
 788 05f0 0131A0E3 		mov	r3, #1073741824
 789 05f4 40308DE5 		str	r3, [sp, #64]
 790              	.LBE133:
 791              	.LBE132:
 792              	.LBE131:
 793              	.LBE130:
 794              		.loc 1 153 0
 795 05f8 1C309DE5 		ldr	r3, [sp, #28]
 796              	.LBB147:
 797              	.LBB144:
 798              		.loc 2 797 0
 799 05fc CE0FCEE1 		bic	r0, lr, lr, asr #31
 800              	.LBE144:
 801              	.LBE147:
 802              		.loc 1 153 0
 803 0600 141013E5 		ldr	r1, [r3, #-20]
 804              	.LVL89:
 805              	.LBB148:
 806              	.LBB145:
 807              	.LBB137:
 808              	.LBB134:
 743:C:/Renesas/e2studio_2021_01_workspace_RZA2M_ANPR/ANPR_RZA2M_EBK/src/tensorflow_lite/third_party/cmsis/CMSIS/NN/Include\arm_nnsupportfunctions.h **** 
 809              		.loc 2 743 0
 810 0604 0030A0E3 		mov	r3, #0
 811 0608 44308DE5 		str	r3, [sp, #68]
 812              	.LBE134:
 813              	.LBE137:
 814              		.loc 2 797 0
 815 060c 1770A0E1 		lsl	r7, r7, r0
 816              	.LVL90:
 817              	.LBB138:
 818              	.LBB135:
 746:C:/Renesas/e2studio_2021_01_workspace_RZA2M_ANPR/ANPR_RZA2M_EBK/src/tensorflow_lite/third_party/cmsis/CMSIS/NN/Include\arm_nnsupportfunctions.h **** 
 819              		.loc 2 746 0
 820 0610 D084CDE1 		ldrd	r8, [sp, #64]
 821              	.LBE135:
 822              	.LBE138:
 823              		.loc 2 797 0
 824 0614 03005EE1 		cmp	lr, r3
 825              	.LBB139:
 826              	.LBB136:
 746:C:/Renesas/e2studio_2021_01_workspace_RZA2M_ANPR/ANPR_RZA2M_EBK/src/tensorflow_lite/third_party/cmsis/CMSIS/NN/Include\arm_nnsupportfunctions.h **** 
 827              		.loc 2 746 0
 828 0618 9187E9E0 		smlal	r8, r9, r1, r7
 750:C:/Renesas/e2studio_2021_01_workspace_RZA2M_ANPR/ANPR_RZA2M_EBK/src/tensorflow_lite/third_party/cmsis/CMSIS/NN/Include\arm_nnsupportfunctions.h **** 
 829              		.loc 2 750 0
 830 061c A80FA0E1 		lsr	r0, r8, #31
 831 0620 890080E1 		orr	r0, r0, r9, lsl #1
 832 0624 00C0A0E1 		mov	ip, r0
 833              	.LVL91:
 834              	.LBE136:
 835              	.LBE139:
 836              		.loc 2 797 0
 837 0628 970100DA 		ble	.L62
 838              	.LVL92:
 839              	.L16:
 840              	.LBE145:
 841              	.LBE148:
 154:../src/tensorflow_lite/third_party/cmsis/CMSIS/NN/Source/ConvolutionFunctions/arm_depthwise_conv_3x3_s8.c ****                 out_buff3 = arm_nn_requantize(out_buff3, output_mult[in_ch + 3], output_shift[in_ch
 842              		.loc 1 154 0
 843 062c 20309DE5 		ldr	r3, [sp, #32]
 844              	.LBB149:
 845              	.LBB150:
 846              	.LBB151:
 847              	.LBB152:
 742:C:/Renesas/e2studio_2021_01_workspace_RZA2M_ANPR/ANPR_RZA2M_EBK/src/tensorflow_lite/third_party/cmsis/CMSIS/NN/Include\arm_nnsupportfunctions.h ****     mult.word.high = 0;
 848              		.loc 2 742 0
 849 0630 0111A0E3 		mov	r1, #1073741824
 850 0634 48108DE5 		str	r1, [sp, #72]
 743:C:/Renesas/e2studio_2021_01_workspace_RZA2M_ANPR/ANPR_RZA2M_EBK/src/tensorflow_lite/third_party/cmsis/CMSIS/NN/Include\arm_nnsupportfunctions.h **** 
 851              		.loc 2 743 0
 852 0638 0050A0E3 		mov	r5, #0
 853              	.LVL93:
 854              	.LBE152:
 855              	.LBE151:
 856              	.LBE150:
 857              	.LBE149:
 858              		.loc 1 154 0
 859 063c 1C109DE5 		ldr	r1, [sp, #28]
 860 0640 10E013E5 		ldr	lr, [r3, #-16]
 861              	.LVL94:
 862              	.LBB164:
 863              	.LBB161:
 864              	.LBB156:
 865              	.LBB153:
 743:C:/Renesas/e2studio_2021_01_workspace_RZA2M_ANPR/ANPR_RZA2M_EBK/src/tensorflow_lite/third_party/cmsis/CMSIS/NN/Include\arm_nnsupportfunctions.h **** 
 866              		.loc 2 743 0
 867 0644 4C508DE5 		str	r5, [sp, #76]
 868              	.LBE153:
 869              	.LBE156:
 870              	.LBE161:
 871              	.LBE164:
 872              		.loc 1 154 0
 873 0648 100011E5 		ldr	r0, [r1, #-16]
 874              	.LVL95:
 875 064c 00F0D1F5 		pld	[r1]
 876              	.LBB165:
 877              	.LBB162:
 878              		.loc 2 797 0
 879 0650 05005EE1 		cmp	lr, r5
 880 0654 CE1FCEE1 		bic	r1, lr, lr, asr #31
 881              	.LBB157:
 882              	.LBB154:
 746:C:/Renesas/e2studio_2021_01_workspace_RZA2M_ANPR/ANPR_RZA2M_EBK/src/tensorflow_lite/third_party/cmsis/CMSIS/NN/Include\arm_nnsupportfunctions.h **** 
 883              		.loc 2 746 0
 884 0658 D864CDE1 		ldrd	r6, [sp, #72]
 885              	.LVL96:
 886 065c 00F0D3F5 		pld	[r3]
 887              	.LBE154:
 888              	.LBE157:
 889              		.loc 2 797 0
 890 0660 1A31A0E1 		lsl	r3, r10, r1
 891              	.LVL97:
 892              	.LBB158:
 893              	.LBB155:
 746:C:/Renesas/e2studio_2021_01_workspace_RZA2M_ANPR/ANPR_RZA2M_EBK/src/tensorflow_lite/third_party/cmsis/CMSIS/NN/Include\arm_nnsupportfunctions.h **** 
 894              		.loc 2 746 0
 895 0664 9063E7E0 		smlal	r6, r7, r0, r3
 750:C:/Renesas/e2studio_2021_01_workspace_RZA2M_ANPR/ANPR_RZA2M_EBK/src/tensorflow_lite/third_party/cmsis/CMSIS/NN/Include\arm_nnsupportfunctions.h **** 
 896              		.loc 2 750 0
 897 0668 A60FA0E1 		lsr	r0, r6, #31
 898              	.LVL98:
 899 066c 870080E1 		orr	r0, r0, r7, lsl #1
 900 0670 0030A0E1 		mov	r3, r0
 901              	.LVL99:
 902              	.LBE155:
 903              	.LBE158:
 904              		.loc 2 797 0
 905 0674 790100DA 		ble	.L63
 906              	.LVL100:
 907              	.L18:
 908              	.LBE162:
 909              	.LBE165:
 155:../src/tensorflow_lite/third_party/cmsis/CMSIS/NN/Source/ConvolutionFunctions/arm_depthwise_conv_3x3_s8.c **** 
 156:../src/tensorflow_lite/third_party/cmsis/CMSIS/NN/Source/ConvolutionFunctions/arm_depthwise_conv_3x3_s8.c ****                 out_buff0 += output_offset;
 910              		.loc 1 156 0
 911 0678 64009DE5 		ldr	r0, [sp, #100]
 157:../src/tensorflow_lite/third_party/cmsis/CMSIS/NN/Source/ConvolutionFunctions/arm_depthwise_conv_3x3_s8.c ****                 out_buff1 += output_offset;
 158:../src/tensorflow_lite/third_party/cmsis/CMSIS/NN/Source/ConvolutionFunctions/arm_depthwise_conv_3x3_s8.c ****                 out_buff2 += output_offset;
 159:../src/tensorflow_lite/third_party/cmsis/CMSIS/NN/Source/ConvolutionFunctions/arm_depthwise_conv_3x3_s8.c ****                 out_buff3 += output_offset;
 160:../src/tensorflow_lite/third_party/cmsis/CMSIS/NN/Source/ConvolutionFunctions/arm_depthwise_conv_3x3_s8.c **** 
 161:../src/tensorflow_lite/third_party/cmsis/CMSIS/NN/Source/ConvolutionFunctions/arm_depthwise_conv_3x3_s8.c ****                 out_buff0 = MIN(MAX(out_buff0, output_activation_min), output_activation_max);
 912              		.loc 1 161 0
 913 067c 68109DE5 		ldr	r1, [sp, #104]
 156:../src/tensorflow_lite/third_party/cmsis/CMSIS/NN/Source/ConvolutionFunctions/arm_depthwise_conv_3x3_s8.c ****                 out_buff1 += output_offset;
 914              		.loc 1 156 0
 915 0680 044080E0 		add	r4, r0, r4
 916              	.LVL101:
 157:../src/tensorflow_lite/third_party/cmsis/CMSIS/NN/Source/ConvolutionFunctions/arm_depthwise_conv_3x3_s8.c ****                 out_buff1 += output_offset;
 917              		.loc 1 157 0
 918 0684 022080E0 		add	r2, r0, r2
 919              	.LVL102:
 920              		.loc 1 161 0
 921 0688 010054E1 		cmp	r4, r1
 158:../src/tensorflow_lite/third_party/cmsis/CMSIS/NN/Source/ConvolutionFunctions/arm_depthwise_conv_3x3_s8.c ****                 out_buff3 += output_offset;
 922              		.loc 1 158 0
 923 068c 0CC080E0 		add	ip, r0, ip
 924              	.LVL103:
 925              		.loc 1 161 0
 926 0690 0140A0B1 		movlt	r4, r1
 927              	.LVL104:
 162:../src/tensorflow_lite/third_party/cmsis/CMSIS/NN/Source/ConvolutionFunctions/arm_depthwise_conv_3x3_s8.c ****                 out_buff1 = MIN(MAX(out_buff1, output_activation_min), output_activation_max);
 928              		.loc 1 162 0
 929 0694 010052E1 		cmp	r2, r1
 159:../src/tensorflow_lite/third_party/cmsis/CMSIS/NN/Source/ConvolutionFunctions/arm_depthwise_conv_3x3_s8.c **** 
 930              		.loc 1 159 0
 931 0698 033080E0 		add	r3, r0, r3
 932              	.LVL105:
 933              		.loc 1 162 0
 934 069c 0120A0B1 		movlt	r2, r1
 935              	.LVL106:
 163:../src/tensorflow_lite/third_party/cmsis/CMSIS/NN/Source/ConvolutionFunctions/arm_depthwise_conv_3x3_s8.c ****                 out_buff2 = MIN(MAX(out_buff2, output_activation_min), output_activation_max);
 936              		.loc 1 163 0
 937 06a0 01005CE1 		cmp	ip, r1
 938 06a4 24009DE5 		ldr	r0, [sp, #36]
 939 06a8 01C0A0B1 		movlt	ip, r1
 940              	.LVL107:
 164:../src/tensorflow_lite/third_party/cmsis/CMSIS/NN/Source/ConvolutionFunctions/arm_depthwise_conv_3x3_s8.c ****                 out_buff3 = MIN(MAX(out_buff3, output_activation_min), output_activation_max);
 941              		.loc 1 164 0
 942 06ac 010053E1 		cmp	r3, r1
 943 06b0 0130A0B1 		movlt	r3, r1
 944              	.LVL108:
 161:../src/tensorflow_lite/third_party/cmsis/CMSIS/NN/Source/ConvolutionFunctions/arm_depthwise_conv_3x3_s8.c ****                 out_buff1 = MIN(MAX(out_buff1, output_activation_min), output_activation_max);
 945              		.loc 1 161 0
 946 06b4 6C109DE5 		ldr	r1, [sp, #108]
 947 06b8 100080E2 		add	r0, r0, #16
 948 06bc 24008DE5 		str	r0, [sp, #36]
 949 06c0 040051E1 		cmp	r1, r4
 950 06c4 0140A0B1 		movlt	r4, r1
 951              	.LVL109:
 162:../src/tensorflow_lite/third_party/cmsis/CMSIS/NN/Source/ConvolutionFunctions/arm_depthwise_conv_3x3_s8.c ****                 out_buff2 = MIN(MAX(out_buff2, output_activation_min), output_activation_max);
 952              		.loc 1 162 0
 953 06c8 020051E1 		cmp	r1, r2
 954 06cc 0120A0B1 		movlt	r2, r1
 955              	.LVL110:
 163:../src/tensorflow_lite/third_party/cmsis/CMSIS/NN/Source/ConvolutionFunctions/arm_depthwise_conv_3x3_s8.c ****                 out_buff3 = MIN(MAX(out_buff3, output_activation_min), output_activation_max);
 956              		.loc 1 163 0
 957 06d0 0C0051E1 		cmp	r1, ip
 958 06d4 01C0A0B1 		movlt	ip, r1
 959              	.LVL111:
 960              		.loc 1 164 0
 961 06d8 030051E1 		cmp	r1, r3
 962 06dc 0130A0B1 		movlt	r3, r1
 963              	.LVL112:
 165:../src/tensorflow_lite/third_party/cmsis/CMSIS/NN/Source/ConvolutionFunctions/arm_depthwise_conv_3x3_s8.c **** 
 166:../src/tensorflow_lite/third_party/cmsis/CMSIS/NN/Source/ConvolutionFunctions/arm_depthwise_conv_3x3_s8.c ****                 output[out_idx++] = (int8_t)out_buff0;
 964              		.loc 1 166 0
 965 06e0 60109DE5 		ldr	r1, [sp, #96]
 167:../src/tensorflow_lite/third_party/cmsis/CMSIS/NN/Source/ConvolutionFunctions/arm_depthwise_conv_3x3_s8.c ****                 output[out_idx++] = (int8_t)out_buff1;
 966              		.loc 1 167 0
 967 06e4 0120C1E5 		strb	r2, [r1, #1]
 968 06e8 1C209DE5 		ldr	r2, [sp, #28]
 168:../src/tensorflow_lite/third_party/cmsis/CMSIS/NN/Source/ConvolutionFunctions/arm_depthwise_conv_3x3_s8.c ****                 output[out_idx++] = (int8_t)out_buff2;
 169:../src/tensorflow_lite/third_party/cmsis/CMSIS/NN/Source/ConvolutionFunctions/arm_depthwise_conv_3x3_s8.c ****                 output[out_idx++] = (int8_t)out_buff3;
 969              		.loc 1 169 0
 970 06ec 0330C1E5 		strb	r3, [r1, #3]
 971 06f0 043081E2 		add	r3, r1, #4
 972 06f4 60308DE5 		str	r3, [sp, #96]
 973 06f8 102082E2 		add	r2, r2, #16
 166:../src/tensorflow_lite/third_party/cmsis/CMSIS/NN/Source/ConvolutionFunctions/arm_depthwise_conv_3x3_s8.c ****                 output[out_idx++] = (int8_t)out_buff1;
 974              		.loc 1 166 0
 975 06fc 0040C1E5 		strb	r4, [r1]
 976 0700 1C208DE5 		str	r2, [sp, #28]
 977 0704 20209DE5 		ldr	r2, [sp, #32]
 168:../src/tensorflow_lite/third_party/cmsis/CMSIS/NN/Source/ConvolutionFunctions/arm_depthwise_conv_3x3_s8.c ****                 output[out_idx++] = (int8_t)out_buff2;
 978              		.loc 1 168 0
 979 0708 02C0C1E5 		strb	ip, [r1, #2]
 980 070c 102082E2 		add	r2, r2, #16
 981 0710 20208DE5 		str	r2, [sp, #32]
 982              	.LBE170:
 102:../src/tensorflow_lite/third_party/cmsis/CMSIS/NN/Source/ConvolutionFunctions/arm_depthwise_conv_3x3_s8.c ****             {
 983              		.loc 1 102 0
 984 0714 78209DE5 		ldr	r2, [sp, #120]
 985 0718 020053E1 		cmp	r3, r2
 986 071c 28309DE5 		ldr	r3, [sp, #40]
 987 0720 043083E2 		add	r3, r3, #4
 988 0724 28308DE5 		str	r3, [sp, #40]
 989 0728 2C309DE5 		ldr	r3, [sp, #44]
 990 072c 043083E2 		add	r3, r3, #4
 991 0730 2C308DE5 		str	r3, [sp, #44]
 992 0734 1EFFFF1A 		bne	.L20
 993 0738 7C309DE5 		ldr	r3, [sp, #124]
 994 073c 18219DE5 		ldr	r2, [sp, #280]
 995 0740 10A09DE5 		ldr	r10, [sp, #16]
 996 0744 24719DE5 		ldr	r7, [sp, #292]
 997 0748 043083E2 		add	r3, r3, #4
 998 074c 033082E0 		add	r3, r2, r3
 999 0750 7C308DE5 		str	r3, [sp, #124]
 1000              	.L7:
 1001              	.LVL113:
 170:../src/tensorflow_lite/third_party/cmsis/CMSIS/NN/Source/ConvolutionFunctions/arm_depthwise_conv_3x3_s8.c ****             }
 171:../src/tensorflow_lite/third_party/cmsis/CMSIS/NN/Source/ConvolutionFunctions/arm_depthwise_conv_3x3_s8.c **** 
 172:../src/tensorflow_lite/third_party/cmsis/CMSIS/NN/Source/ConvolutionFunctions/arm_depthwise_conv_3x3_s8.c ****             // Leftover
 173:../src/tensorflow_lite/third_party/cmsis/CMSIS/NN/Source/ConvolutionFunctions/arm_depthwise_conv_3x3_s8.c ****             for (; in_ch < input_ch; ++in_ch)
 1002              		.loc 1 173 0 discriminator 1
 1003 0754 07005AE1 		cmp	r10, r7
 1004 0758 010100DA 		ble	.L21
 1005 075c D0219DE5 		ldr	r2, [sp, #464]
 1006 0760 0731A0E1 		lsl	r3, r7, #2
 1007 0764 7C109DE5 		ldr	r1, [sp, #124]
 1008              	.LBB171:
 1009              	.LBB172:
 1010              	.LBB173:
 1011              	.LBB174:
 1012              	.LBB175:
 766:C:/Renesas/e2studio_2021_01_workspace_RZA2M_ANPR/ANPR_RZA2M_EBK/src/tensorflow_lite/third_party/cmsis/CMSIS/NN/Include\arm_nnsupportfunctions.h ****     int32_t remainder = remainder_mask & dividend;
 1013              		.loc 2 766 0
 1014 0768 08E09DE5 		ldr	lr, [sp, #8]
 1015 076c 14409DE5 		ldr	r4, [sp, #20]
 1016 0770 018082E0 		add	r8, r2, r1
 1017 0774 C8219DE5 		ldr	r2, [sp, #456]
 1018 0778 18509DE5 		ldr	r5, [sp, #24]
 1019 077c 58C09DE5 		ldr	ip, [sp, #88]
 1020 0780 039082E0 		add	r9, r2, r3
 1021 0784 8C209DE5 		ldr	r2, [sp, #140]
 1022 0788 94708DE5 		str	r7, [sp, #148]
 1023 078c 00708DE5 		str	r7, [sp]
 1024 0790 032082E0 		add	r2, r2, r3
 1025 0794 20908DE5 		str	r9, [sp, #32]
 1026 0798 10208DE5 		str	r2, [sp, #16]
 1027 079c 88209DE5 		ldr	r2, [sp, #136]
 1028 07a0 24808DE5 		str	r8, [sp, #36]
 1029 07a4 033082E0 		add	r3, r2, r3
 1030 07a8 1C308DE5 		str	r3, [sp, #28]
 1031 07ac 70309DE5 		ldr	r3, [sp, #112]
 1032 07b0 03308AE0 		add	r3, r10, r3
 1033 07b4 60308DE5 		str	r3, [sp, #96]
 1034 07b8 74309DE5 		ldr	r3, [sp, #116]
 1035 07bc 0A3083E0 		add	r3, r3, r10
 1036 07c0 78308DE5 		str	r3, [sp, #120]
 1037              	.LVL114:
 1038              	.L36:
 1039              	.LBE175:
 1040              	.LBE174:
 1041              	.LBE173:
 1042              	.LBE172:
 1043              	.LBB189:
 174:../src/tensorflow_lite/third_party/cmsis/CMSIS/NN/Source/ConvolutionFunctions/arm_depthwise_conv_3x3_s8.c ****             {
 175:../src/tensorflow_lite/third_party/cmsis/CMSIS/NN/Source/ConvolutionFunctions/arm_depthwise_conv_3x3_s8.c ****                 int32_t out_buff = bias[in_ch];
 176:../src/tensorflow_lite/third_party/cmsis/CMSIS/NN/Source/ConvolutionFunctions/arm_depthwise_conv_3x3_s8.c **** 
 177:../src/tensorflow_lite/third_party/cmsis/CMSIS/NN/Source/ConvolutionFunctions/arm_depthwise_conv_3x3_s8.c ****                 const int8_t *input_ptr = input + (in_h + ker_h_start) * (input_ch * input_x) + in_
 178:../src/tensorflow_lite/third_party/cmsis/CMSIS/NN/Source/ConvolutionFunctions/arm_depthwise_conv_3x3_s8.c ****                 const int8_t *kernel_ptr = kernel + ker_h_start * (input_ch * 3) + in_ch;
 179:../src/tensorflow_lite/third_party/cmsis/CMSIS/NN/Source/ConvolutionFunctions/arm_depthwise_conv_3x3_s8.c **** 
 180:../src/tensorflow_lite/third_party/cmsis/CMSIS/NN/Source/ConvolutionFunctions/arm_depthwise_conv_3x3_s8.c ****                 for (int32_t ker_h = ker_h_start; ker_h < MIN(3, input_y - in_h); ++ker_h)
 1044              		.loc 1 180 0
 1045 07c4 5C309DE5 		ldr	r3, [sp, #92]
 1046 07c8 00209DE5 		ldr	r2, [sp]
 1047 07cc 70109DE5 		ldr	r1, [sp, #112]
 1048 07d0 0E0053E1 		cmp	r3, lr
 1049 07d4 B8319DE5 		ldr	r3, [sp, #440]
 1050 07d8 016082E0 		add	r6, r2, r1
 1051 07dc 74109DE5 		ldr	r1, [sp, #116]
 1052 07e0 066083E0 		add	r6, r3, r6
 1053 07e4 C0319DE5 		ldr	r3, [sp, #448]
 1054 07e8 027081E0 		add	r7, r1, r2
 1055              	.LBE189:
 175:../src/tensorflow_lite/third_party/cmsis/CMSIS/NN/Source/ConvolutionFunctions/arm_depthwise_conv_3x3_s8.c **** 
 1056              		.loc 1 175 0
 1057 07ec 20109DE5 		ldr	r1, [sp, #32]
 1058 07f0 077083E0 		add	r7, r3, r7
 1059 07f4 043091E4 		ldr	r3, [r1], #4
 1060 07f8 20108DE5 		str	r1, [sp, #32]
 1061              	.LVL115:
 1062              	.LBB190:
 1063              		.loc 1 180 0
 1064 07fc B00000AA 		bge	.L22
 1065 0800 0C109DE5 		ldr	r1, [sp, #12]
 1066 0804 000051E3 		cmp	r1, #0
 1067 0808 F700000A 		beq	.L23
 1068 080c 04109DE5 		ldr	r1, [sp, #4]
 1069 0810 020051E3 		cmp	r1, #2
 1070 0814 500100CA 		bgt	.L24
 1071 0818 84109DE5 		ldr	r1, [sp, #132]
 1072 081c 0E0051E3 		cmp	r1, #14
 1073 0820 5C01009A 		bls	.L47
 1074 0824 60109DE5 		ldr	r1, [sp, #96]
 1075 0828 5000C0F2 		vmov.i32	q8, #0  @ v4si
 1076 082c 2C308DE5 		str	r3, [sp, #44]
 1077 0830 029081E0 		add	r9, r1, r2
 1078 0834 78109DE5 		ldr	r1, [sp, #120]
 1079 0838 022081E0 		add	r2, r1, r2
 1080 083c B8119DE5 		ldr	r1, [sp, #440]
 1081 0840 099081E0 		add	r9, r1, r9
 1082 0844 C0119DE5 		ldr	r1, [sp, #448]
 1083 0848 022081E0 		add	r2, r1, r2
 1084 084c 0010A0E3 		mov	r1, #0
 1085 0850 28108DE5 		str	r1, [sp, #40]
 1086              	.LVL116:
 1087              	.L26:
 1088 0854 28009DE5 		ldr	r0, [sp, #40]
 1089 0858 BC309DE5 		ldr	r3, [sp, #188]
 181:../src/tensorflow_lite/third_party/cmsis/CMSIS/NN/Source/ConvolutionFunctions/arm_depthwise_conv_3x3_s8.c ****                 {
 182:../src/tensorflow_lite/third_party/cmsis/CMSIS/NN/Source/ConvolutionFunctions/arm_depthwise_conv_3x3_s8.c ****                     if (ker_w_start == 0)
 183:../src/tensorflow_lite/third_party/cmsis/CMSIS/NN/Source/ConvolutionFunctions/arm_depthwise_conv_3x3_s8.c ****                     {
 184:../src/tensorflow_lite/third_party/cmsis/CMSIS/NN/Source/ConvolutionFunctions/arm_depthwise_conv_3x3_s8.c ****                         out_buff += (*(input_ptr) + input_offset) * *(kernel_ptr);
 185:../src/tensorflow_lite/third_party/cmsis/CMSIS/NN/Source/ConvolutionFunctions/arm_depthwise_conv_3x3_s8.c ****                     }
 186:../src/tensorflow_lite/third_party/cmsis/CMSIS/NN/Source/ConvolutionFunctions/arm_depthwise_conv_3x3_s8.c **** 
 187:../src/tensorflow_lite/third_party/cmsis/CMSIS/NN/Source/ConvolutionFunctions/arm_depthwise_conv_3x3_s8.c ****                     out_buff += (*(input_ptr + input_ch) + input_offset) * *(kernel_ptr + input_ch)
 1090              		.loc 1 187 0
 1091 085c 0010D9E5 		ldrb	r1, [r9]	@ zero_extendqisi2
 1092 0860 010080E2 		add	r0, r0, #1
 1093 0864 0580D9E7 		ldrb	r8, [r9, r5]	@ zero_extendqisi2
 1094 0868 000053E1 		cmp	r3, r0
 1095 086c C0309DE5 		ldr	r3, [sp, #192]
 1096 0870 28008DE5 		str	r0, [sp, #40]
 1097 0874 8500D9E7 		ldrb	r0, [r9, r5, lsl #1]	@ zero_extendqisi2
 1098 0878 6811CDE5 		strb	r1, [sp, #360]
 1099 087c 0310D9E7 		ldrb	r1, [r9, r3]	@ zero_extendqisi2
 1100 0880 C4309DE5 		ldr	r3, [sp, #196]
 1101 0884 6981CDE5 		strb	r8, [sp, #361]
 1102 0888 0581D9E7 		ldrb	r8, [r9, r5, lsl #2]	@ zero_extendqisi2
 1103 088c 6A01CDE5 		strb	r0, [sp, #362]
 1104 0890 0300D9E7 		ldrb	r0, [r9, r3]	@ zero_extendqisi2
 1105 0894 F8309DE5 		ldr	r3, [sp, #248]
 1106 0898 6B11CDE5 		strb	r1, [sp, #363]
 1107 089c 0310D9E7 		ldrb	r1, [r9, r3]	@ zero_extendqisi2
 1108 08a0 C8309DE5 		ldr	r3, [sp, #200]
 1109 08a4 6C81CDE5 		strb	r8, [sp, #364]
 1110 08a8 0380D9E7 		ldrb	r8, [r9, r3]	@ zero_extendqisi2
 1111 08ac CC309DE5 		ldr	r3, [sp, #204]
 1112 08b0 6D01CDE5 		strb	r0, [sp, #365]
 1113 08b4 8501D9E7 		ldrb	r0, [r9, r5, lsl #3]	@ zero_extendqisi2
 1114 08b8 6E11CDE5 		strb	r1, [sp, #366]
 1115 08bc 0310D9E7 		ldrb	r1, [r9, r3]	@ zero_extendqisi2
 1116 08c0 FC309DE5 		ldr	r3, [sp, #252]
 1117 08c4 6F81CDE5 		strb	r8, [sp, #367]
 1118 08c8 0380D9E7 		ldrb	r8, [r9, r3]	@ zero_extendqisi2
 1119 08cc D0309DE5 		ldr	r3, [sp, #208]
 1120 08d0 7001CDE5 		strb	r0, [sp, #368]
 1121 08d4 0300D9E7 		ldrb	r0, [r9, r3]	@ zero_extendqisi2
 1122 08d8 7111CDE5 		strb	r1, [sp, #369]
 1123 08dc 00319DE5 		ldr	r3, [sp, #256]
 1124 08e0 0310D9E7 		ldrb	r1, [r9, r3]	@ zero_extendqisi2
 1125 08e4 D4309DE5 		ldr	r3, [sp, #212]
 1126 08e8 7281CDE5 		strb	r8, [sp, #370]
 1127 08ec 0380D9E7 		ldrb	r8, [r9, r3]	@ zero_extendqisi2
 1128 08f0 04319DE5 		ldr	r3, [sp, #260]
 1129 08f4 7301CDE5 		strb	r0, [sp, #371]
 1130 08f8 0300D9E7 		ldrb	r0, [r9, r3]	@ zero_extendqisi2
 1131 08fc D8309DE5 		ldr	r3, [sp, #216]
 1132 0900 7411CDE5 		strb	r1, [sp, #372]
 1133 0904 0310D9E7 		ldrb	r1, [r9, r3]	@ zero_extendqisi2
 1134 0908 B4309DE5 		ldr	r3, [sp, #180]
 1135 090c 7581CDE5 		strb	r8, [sp, #373]
 1136 0910 7601CDE5 		strb	r0, [sp, #374]
 1137 0914 7711CDE5 		strb	r1, [sp, #375]
 1138 0918 039089E0 		add	r9, r9, r3
 1139 091c 0010D2E5 		ldrb	r1, [r2]	@ zero_extendqisi2
 1140 0920 DC309DE5 		ldr	r3, [sp, #220]
 1141 0924 0480D2E7 		ldrb	r8, [r2, r4]	@ zero_extendqisi2
 1142 0928 8400D2E7 		ldrb	r0, [r2, r4, lsl #1]	@ zero_extendqisi2
 1143 092c 5811CDE5 		strb	r1, [sp, #344]
 1144 0930 0310D2E7 		ldrb	r1, [r2, r3]	@ zero_extendqisi2
 1145 0934 E0309DE5 		ldr	r3, [sp, #224]
 1146 0938 5981CDE5 		strb	r8, [sp, #345]
 1147 093c 0481D2E7 		ldrb	r8, [r2, r4, lsl #2]	@ zero_extendqisi2
 1148 0940 5A01CDE5 		strb	r0, [sp, #346]
 1149 0944 0300D2E7 		ldrb	r0, [r2, r3]	@ zero_extendqisi2
 1150 0948 08319DE5 		ldr	r3, [sp, #264]
 1151 094c 5B11CDE5 		strb	r1, [sp, #347]
 1152 0950 5A2BDDED 		vldr	d18, [sp, #360]
 1153 0954 5C3BDDED 		vldr	d19, [sp, #368]
 1154 0958 0310D2E7 		ldrb	r1, [r2, r3]	@ zero_extendqisi2
 1155 095c E4309DE5 		ldr	r3, [sp, #228]
 1156 0960 5C81CDE5 		strb	r8, [sp, #348]
 1157 0964 326AC8F2 		vmovl.s8 q11, d18
 1158 0968 0380D2E7 		ldrb	r8, [r2, r3]	@ zero_extendqisi2
 1159 096c E8309DE5 		ldr	r3, [sp, #232]
 1160 0970 5D01CDE5 		strb	r0, [sp, #349]
 1161 0974 8401D2E7 		ldrb	r0, [r2, r4, lsl #3]	@ zero_extendqisi2
 1162 0978 5E11CDE5 		strb	r1, [sp, #350]
 1163 097c 0310D2E7 		ldrb	r1, [r2, r3]	@ zero_extendqisi2
 1164 0980 0C319DE5 		ldr	r3, [sp, #268]
 1165 0984 5F81CDE5 		strb	r8, [sp, #351]
 1166 0988 36AAD0F2 		vmovl.s16 q13, d22
 1167 098c 0380D2E7 		ldrb	r8, [r2, r3]	@ zero_extendqisi2
 1168 0990 EC309DE5 		ldr	r3, [sp, #236]
 1169 0994 6001CDE5 		strb	r0, [sp, #352]
 1170 0998 C8A86AF2 		vadd.i32	q13, q13, q4
 1171 099c 0300D2E7 		ldrb	r0, [r2, r3]	@ zero_extendqisi2
 1172 09a0 10319DE5 		ldr	r3, [sp, #272]
 1173 09a4 6111CDE5 		strb	r1, [sp, #353]
 1174 09a8 376AD0F2 		vmovl.s16 q11, d23
 1175 09ac 0310D2E7 		ldrb	r1, [r2, r3]	@ zero_extendqisi2
 1176 09b0 F0309DE5 		ldr	r3, [sp, #240]
 1177 09b4 6281CDE5 		strb	r8, [sp, #354]
 1178 09b8 C86866F2 		vadd.i32	q11, q11, q4
 1179 09bc 0380D2E7 		ldrb	r8, [r2, r3]	@ zero_extendqisi2
 1180 09c0 14319DE5 		ldr	r3, [sp, #276]
 1181 09c4 6301CDE5 		strb	r0, [sp, #355]
 1182 09c8 332AC8F2 		vmovl.s8 q9, d19
 1183 09cc 0300D2E7 		ldrb	r0, [r2, r3]	@ zero_extendqisi2
 1184 09d0 F4309DE5 		ldr	r3, [sp, #244]
 1185 09d4 6411CDE5 		strb	r1, [sp, #356]
 1186 09d8 0310D2E7 		ldrb	r1, [r2, r3]	@ zero_extendqisi2
 1187 09dc 6581CDE5 		strb	r8, [sp, #357]
 1188 09e0 6601CDE5 		strb	r0, [sp, #358]
 1189 09e4 6711CDE5 		strb	r1, [sp, #359]
 1190 09e8 564BDDED 		vldr	d20, [sp, #344]
 1191 09ec 585BDDED 		vldr	d21, [sp, #352]
 1192 09f0 A8309DE5 		ldr	r3, [sp, #168]
 1193 09f4 348AC8F2 		vmovl.s8 q12, d20
 1194 09f8 354AC8F2 		vmovl.s8 q10, d21
 1195 09fc 032082E0 		add	r2, r2, r3
 1196 0a00 38CAD0F2 		vmovl.s16 q14, d24
