   1              		.cpu cortex-a9
   2              		.eabi_attribute 28, 1
   3              		.eabi_attribute 20, 1
   4              		.eabi_attribute 21, 1
   5              		.eabi_attribute 23, 3
   6              		.eabi_attribute 24, 1
   7              		.eabi_attribute 25, 1
   8              		.eabi_attribute 26, 1
   9              		.eabi_attribute 30, 2
  10              		.eabi_attribute 34, 0
  11              		.eabi_attribute 18, 4
  12              		.file	"error_reporter.cpp"
  13              		.text
  14              	.Ltext0:
  15              		.cfi_sections	.debug_frame
  16              		.section	.text._ZN6tflite13ErrorReporter6ReportEPKcz,"ax",%progbits
  17              		.align	2
  18              		.global	_ZN6tflite13ErrorReporter6ReportEPKcz
  19              		.syntax unified
  20              		.arm
  21              		.fpu neon
  23              	_ZN6tflite13ErrorReporter6ReportEPKcz:
  24              		.fnstart
  25              	.LFB4:
  26              		.file 1 "../src/tensorflow_lite/src/tensorflow/lite/core/api/error_reporter.cpp"
   1:../src/tensorflow_lite/src/tensorflow/lite/core/api/error_reporter.cpp **** /* Copyright 2017 The TensorFlow Authors. All Rights Reserved.
   2:../src/tensorflow_lite/src/tensorflow/lite/core/api/error_reporter.cpp **** 
   3:../src/tensorflow_lite/src/tensorflow/lite/core/api/error_reporter.cpp **** Licensed under the Apache License, Version 2.0 (the "License");
   4:../src/tensorflow_lite/src/tensorflow/lite/core/api/error_reporter.cpp **** you may not use this file except in compliance with the License.
   5:../src/tensorflow_lite/src/tensorflow/lite/core/api/error_reporter.cpp **** You may obtain a copy of the License at
   6:../src/tensorflow_lite/src/tensorflow/lite/core/api/error_reporter.cpp **** 
   7:../src/tensorflow_lite/src/tensorflow/lite/core/api/error_reporter.cpp ****     http://www.apache.org/licenses/LICENSE-2.0
   8:../src/tensorflow_lite/src/tensorflow/lite/core/api/error_reporter.cpp **** 
   9:../src/tensorflow_lite/src/tensorflow/lite/core/api/error_reporter.cpp **** Unless required by applicable law or agreed to in writing, software
  10:../src/tensorflow_lite/src/tensorflow/lite/core/api/error_reporter.cpp **** distributed under the License is distributed on an "AS IS" BASIS,
  11:../src/tensorflow_lite/src/tensorflow/lite/core/api/error_reporter.cpp **** WITHOUT WARRANTIES OR CONDITIONS OF ANY KIND, either express or implied.
  12:../src/tensorflow_lite/src/tensorflow/lite/core/api/error_reporter.cpp **** See the License for the specific language governing permissions and
  13:../src/tensorflow_lite/src/tensorflow/lite/core/api/error_reporter.cpp **** limitations under the License.
  14:../src/tensorflow_lite/src/tensorflow/lite/core/api/error_reporter.cpp **** ==============================================================================*/
  15:../src/tensorflow_lite/src/tensorflow/lite/core/api/error_reporter.cpp **** #include "tensorflow/lite/core/api/error_reporter.h"
  16:../src/tensorflow_lite/src/tensorflow/lite/core/api/error_reporter.cpp **** #include <cstdarg>
  17:../src/tensorflow_lite/src/tensorflow/lite/core/api/error_reporter.cpp **** 
  18:../src/tensorflow_lite/src/tensorflow/lite/core/api/error_reporter.cpp **** namespace tflite {
  19:../src/tensorflow_lite/src/tensorflow/lite/core/api/error_reporter.cpp **** 
  20:../src/tensorflow_lite/src/tensorflow/lite/core/api/error_reporter.cpp **** int ErrorReporter::Report(const char* format, ...) {
  27              		.loc 1 20 0
  28              		.cfi_startproc
  29              		@ args = 4, pretend = 12, frame = 8
  30              		@ frame_needed = 0, uses_anonymous_args = 1
  31              	.LVL0:
  32 0000 0E002DE9 		push	{r1, r2, r3}
  33              		.save {r1, r2, r3}
  34              		.cfi_def_cfa_offset 12
  35              		.cfi_offset 1, -12
  36              		.cfi_offset 2, -8
  37              		.cfi_offset 3, -4
  21:../src/tensorflow_lite/src/tensorflow/lite/core/api/error_reporter.cpp ****   va_list args;
  22:../src/tensorflow_lite/src/tensorflow/lite/core/api/error_reporter.cpp ****   va_start(args, format);
  23:../src/tensorflow_lite/src/tensorflow/lite/core/api/error_reporter.cpp ****   int code = Report(format, args);
  38              		.loc 1 23 0
  39 0004 003090E5 		ldr	r3, [r0]
  20:../src/tensorflow_lite/src/tensorflow/lite/core/api/error_reporter.cpp ****   va_list args;
  40              		.loc 1 20 0
  41 0008 04E02DE5 		str	lr, [sp, #-4]!
  42              		.save {lr}
  43              		.cfi_def_cfa_offset 16
  44              		.cfi_offset 14, -16
  45              		.pad #8
  46 000c 08D04DE2 		sub	sp, sp, #8
  47              		.cfi_def_cfa_offset 24
  22:../src/tensorflow_lite/src/tensorflow/lite/core/api/error_reporter.cpp ****   int code = Report(format, args);
  48              		.loc 1 22 0
  49 0010 10208DE2 		add	r2, sp, #16
  50              		.loc 1 23 0
  51 0014 0C109DE5 		ldr	r1, [sp, #12]
  22:../src/tensorflow_lite/src/tensorflow/lite/core/api/error_reporter.cpp ****   int code = Report(format, args);
  52              		.loc 1 22 0
  53 0018 04208DE5 		str	r2, [sp, #4]
  54              		.loc 1 23 0
  55 001c 083093E5 		ldr	r3, [r3, #8]
  56 0020 33FF2FE1 		blx	r3
  57              	.LVL1:
  24:../src/tensorflow_lite/src/tensorflow/lite/core/api/error_reporter.cpp ****   va_end(args);
  25:../src/tensorflow_lite/src/tensorflow/lite/core/api/error_reporter.cpp ****   return code;
  26:../src/tensorflow_lite/src/tensorflow/lite/core/api/error_reporter.cpp **** }
  58              		.loc 1 26 0
  59 0024 08D08DE2 		add	sp, sp, #8
  60              		.cfi_def_cfa_offset 16
  61              		@ sp needed
  62 0028 04E09DE4 		ldr	lr, [sp], #4
  63              		.cfi_restore 14
  64              		.cfi_def_cfa_offset 12
  65 002c 0CD08DE2 		add	sp, sp, #12
  66              		.cfi_restore 3
  67              		.cfi_restore 2
  68              		.cfi_restore 1
  69              		.cfi_def_cfa_offset 0
  70 0030 1EFF2FE1 		bx	lr
  71              		.cfi_endproc
  72              	.LFE4:
  73              		.fnend
  75              		.section	.text._ZN6tflite13ErrorReporter11ReportErrorEPvPKcz,"ax",%progbits
  76              		.align	2
  77              		.global	_ZN6tflite13ErrorReporter11ReportErrorEPvPKcz
  78              		.syntax unified
  79              		.arm
  80              		.fpu neon
  82              	_ZN6tflite13ErrorReporter11ReportErrorEPvPKcz:
  83              		.fnstart
  84              	.LFB5:
  27:../src/tensorflow_lite/src/tensorflow/lite/core/api/error_reporter.cpp **** 
  28:../src/tensorflow_lite/src/tensorflow/lite/core/api/error_reporter.cpp **** // TODO(aselle): Make the name of ReportError on context the same, so
  29:../src/tensorflow_lite/src/tensorflow/lite/core/api/error_reporter.cpp **** // we can use the ensure functions w/o a context and w/ a reporter.
  30:../src/tensorflow_lite/src/tensorflow/lite/core/api/error_reporter.cpp **** int ErrorReporter::ReportError(void*, const char* format, ...) {
  85              		.loc 1 30 0
  86              		.cfi_startproc
  87              		@ args = 4, pretend = 8, frame = 8
  88              		@ frame_needed = 0, uses_anonymous_args = 1
  89              	.LVL2:
  90 0000 0C002DE9 		push	{r2, r3}
  91              		.save {r2, r3}
  92              		.cfi_def_cfa_offset 8
  93              		.cfi_offset 2, -8
  94              		.cfi_offset 3, -4
  31:../src/tensorflow_lite/src/tensorflow/lite/core/api/error_reporter.cpp ****   va_list args;
  32:../src/tensorflow_lite/src/tensorflow/lite/core/api/error_reporter.cpp ****   va_start(args, format);
  33:../src/tensorflow_lite/src/tensorflow/lite/core/api/error_reporter.cpp ****   int code = Report(format, args);
  95              		.loc 1 33 0
  96 0004 003090E5 		ldr	r3, [r0]
  30:../src/tensorflow_lite/src/tensorflow/lite/core/api/error_reporter.cpp ****   va_list args;
  97              		.loc 1 30 0
  98 0008 04E02DE5 		str	lr, [sp, #-4]!
  99              		.save {lr}
 100              		.cfi_def_cfa_offset 12
 101              		.cfi_offset 14, -12
 102              		.pad #12
 103 000c 0CD04DE2 		sub	sp, sp, #12
 104              		.cfi_def_cfa_offset 24
  32:../src/tensorflow_lite/src/tensorflow/lite/core/api/error_reporter.cpp ****   int code = Report(format, args);
 105              		.loc 1 32 0
 106 0010 14208DE2 		add	r2, sp, #20
 107              		.loc 1 33 0
 108 0014 10109DE5 		ldr	r1, [sp, #16]
  32:../src/tensorflow_lite/src/tensorflow/lite/core/api/error_reporter.cpp ****   int code = Report(format, args);
 109              		.loc 1 32 0
 110 0018 04208DE5 		str	r2, [sp, #4]
 111              		.loc 1 33 0
 112 001c 083093E5 		ldr	r3, [r3, #8]
 113 0020 33FF2FE1 		blx	r3
 114              	.LVL3:
  34:../src/tensorflow_lite/src/tensorflow/lite/core/api/error_reporter.cpp ****   va_end(args);
  35:../src/tensorflow_lite/src/tensorflow/lite/core/api/error_reporter.cpp ****   return code;
  36:../src/tensorflow_lite/src/tensorflow/lite/core/api/error_reporter.cpp **** }
 115              		.loc 1 36 0
 116 0024 0CD08DE2 		add	sp, sp, #12
 117              		.cfi_def_cfa_offset 12
 118              		@ sp needed
 119 0028 04E09DE4 		ldr	lr, [sp], #4
 120              		.cfi_restore 14
 121              		.cfi_def_cfa_offset 8
 122 002c 08D08DE2 		add	sp, sp, #8
 123              		.cfi_restore 3
 124              		.cfi_restore 2
 125              		.cfi_def_cfa_offset 0
 126 0030 1EFF2FE1 		bx	lr
 127              		.cfi_endproc
 128              	.LFE5:
 129              		.fnend
 131              		.text
 132              	.Letext0:
 133              		.file 2 "c:\\program files (x86)\\gnu tools arm embedded\\6 2017-q2-update\\arm-none-eabi\\include
 134              		.file 3 "c:\\program files (x86)\\gnu tools arm embedded\\6 2017-q2-update\\lib\\gcc\\arm-none-eab
 135              		.file 4 "C:/Renesas/e2studio_2021_01_workspace_RZA2M_ANPR/ANPR_RZA2M_RDK/src/tensorflow_lite/src/t
 136              		.file 5 "<built-in>"
 137              		.file 6 "c:\\program files (x86)\\gnu tools arm embedded\\6 2017-q2-update\\arm-none-eabi\\include